GAS LISTING C:\Users\kenne\AppData\Local\Temp\ccH82gYi.s 			page 1


   1               		.file	"hd44780.cpp"
   2               	__SP_H__ = 0x3e
   3               	__SP_L__ = 0x3d
   4               	__SREG__ = 0x3f
   5               	__tmp_reg__ = 0
   6               	__zero_reg__ = 1
   7               		.text
   8               	.Ltext0:
   9               		.cfi_sections	.debug_frame
  10               		.file 0 "C:\\D\\IFSC\\MCC\\projects\\bitbang timer1" "funsape/device/hd44780.cpp"
  11               		.section	.text._Z7getTickv,"ax",@progbits
  12               		.weak	_Z7getTickv
  14               	_Z7getTickv:
  15               	.LFB32:
  16               		.file 1 "funsape/device/../globalDefines.hpp"
   1:funsape/device/../globalDefines.hpp **** //!
   2:funsape/device/../globalDefines.hpp **** //! \file           globalDefines.hpp
   3:funsape/device/../globalDefines.hpp **** //! \brief          Global definitions file
   4:funsape/device/../globalDefines.hpp **** //! \author         Leandro Schwarz (bladabuska+funsapeavr8lib@gmail.com)
   5:funsape/device/../globalDefines.hpp **** //! \date           2023-04-05
   6:funsape/device/../globalDefines.hpp **** //! \version        23.04
   7:funsape/device/../globalDefines.hpp **** //! \copyright      license
   8:funsape/device/../globalDefines.hpp **** //! \details        Global definitions file.
   9:funsape/device/../globalDefines.hpp **** //! \todo           Todo list
  10:funsape/device/../globalDefines.hpp **** //!
  11:funsape/device/../globalDefines.hpp **** 
  12:funsape/device/../globalDefines.hpp **** // =============================================================================
  13:funsape/device/../globalDefines.hpp **** // Include guard (START)
  14:funsape/device/../globalDefines.hpp **** // =============================================================================
  15:funsape/device/../globalDefines.hpp **** 
  16:funsape/device/../globalDefines.hpp **** #ifndef __GLOBAL_DEFINES_HPP
  17:funsape/device/../globalDefines.hpp **** #define __GLOBAL_DEFINES_HPP                    2304
  18:funsape/device/../globalDefines.hpp **** 
  19:funsape/device/../globalDefines.hpp **** // =============================================================================
  20:funsape/device/../globalDefines.hpp **** // Basic definitions
  21:funsape/device/../globalDefines.hpp **** // =============================================================================
  22:funsape/device/../globalDefines.hpp **** 
  23:funsape/device/../globalDefines.hpp **** #ifndef F_CPU
  24:funsape/device/../globalDefines.hpp **** #   define F_CPU    16000000UL
  25:funsape/device/../globalDefines.hpp **** #endif
  26:funsape/device/../globalDefines.hpp **** 
  27:funsape/device/../globalDefines.hpp **** // =============================================================================
  28:funsape/device/../globalDefines.hpp **** // Dependencies
  29:funsape/device/../globalDefines.hpp **** // =============================================================================
  30:funsape/device/../globalDefines.hpp **** 
  31:funsape/device/../globalDefines.hpp **** //     //////////////////     AVR STANDARD LIBRARY     //////////////////     //
  32:funsape/device/../globalDefines.hpp **** #include <avr/io.h>
  33:funsape/device/../globalDefines.hpp **** #include <avr/interrupt.h>
  34:funsape/device/../globalDefines.hpp **** #include <util/delay.h>
  35:funsape/device/../globalDefines.hpp **** #include <util/atomic.h>
  36:funsape/device/../globalDefines.hpp **** 
  37:funsape/device/../globalDefines.hpp **** //     ///////////////////     STANDARD C LIBRARY     ///////////////////     //
  38:funsape/device/../globalDefines.hpp **** #include <stddef.h>
  39:funsape/device/../globalDefines.hpp **** #include <stdint.h>
  40:funsape/device/../globalDefines.hpp **** #include <stdio.h>
  41:funsape/device/../globalDefines.hpp **** #include <stdlib.h>
  42:funsape/device/../globalDefines.hpp **** #include <string.h>
GAS LISTING C:\Users\kenne\AppData\Local\Temp\ccH82gYi.s 			page 2


  43:funsape/device/../globalDefines.hpp **** 
  44:funsape/device/../globalDefines.hpp **** //     //////////////////     LIBRARY DEPENDENCIES     //////////////////     //
  45:funsape/device/../globalDefines.hpp **** #include "pinout.hpp"
  46:funsape/device/../globalDefines.hpp **** #if !defined(__PINOUT_HPP)
  47:funsape/device/../globalDefines.hpp **** #   error "Header file (pinout.hpp) is corrupted!"
  48:funsape/device/../globalDefines.hpp **** #elif __PINOUT_HPP != __GLOBAL_DEFINES_HPP
  49:funsape/device/../globalDefines.hpp **** #   error "Version mismatch between header file and library dependency (pinout.hpp)!"
  50:funsape/device/../globalDefines.hpp **** #endif
  51:funsape/device/../globalDefines.hpp **** 
  52:funsape/device/../globalDefines.hpp **** // =============================================================================
  53:funsape/device/../globalDefines.hpp **** // Undefining previous definitions
  54:funsape/device/../globalDefines.hpp **** // =============================================================================
  55:funsape/device/../globalDefines.hpp **** 
  56:funsape/device/../globalDefines.hpp **** // NONE
  57:funsape/device/../globalDefines.hpp **** 
  58:funsape/device/../globalDefines.hpp **** // =============================================================================
  59:funsape/device/../globalDefines.hpp **** // Constant definitions
  60:funsape/device/../globalDefines.hpp **** // =============================================================================
  61:funsape/device/../globalDefines.hpp **** 
  62:funsape/device/../globalDefines.hpp **** #define inlined                         inline __attribute__((always_inline))
  63:funsape/device/../globalDefines.hpp **** #define weakened                        __attribute__((weak))
  64:funsape/device/../globalDefines.hpp **** 
  65:funsape/device/../globalDefines.hpp **** // =============================================================================
  66:funsape/device/../globalDefines.hpp **** // New data types
  67:funsape/device/../globalDefines.hpp **** // =============================================================================
  68:funsape/device/../globalDefines.hpp **** 
  69:funsape/device/../globalDefines.hpp **** //     ////////////////////     BASIC VARIABLES     /////////////////////     //
  70:funsape/device/../globalDefines.hpp **** typedef bool                            bool_t;
  71:funsape/device/../globalDefines.hpp **** typedef char                            char_t;
  72:funsape/device/../globalDefines.hpp **** 
  73:funsape/device/../globalDefines.hpp **** //     ///////////////////     CONSTANT VARIABLES    ////////////////////     //
  74:funsape/device/../globalDefines.hpp **** typedef const bool_t                    cbool_t;
  75:funsape/device/../globalDefines.hpp **** typedef const char_t                    cchar_t;
  76:funsape/device/../globalDefines.hpp **** typedef const int8_t                    cint8_t;
  77:funsape/device/../globalDefines.hpp **** typedef const int16_t                   cint16_t;
  78:funsape/device/../globalDefines.hpp **** typedef const int32_t                   cint32_t;
  79:funsape/device/../globalDefines.hpp **** typedef const int64_t                   cint64_t;
  80:funsape/device/../globalDefines.hpp **** typedef const uint8_t                   cuint8_t;
  81:funsape/device/../globalDefines.hpp **** typedef const uint16_t                  cuint16_t;
  82:funsape/device/../globalDefines.hpp **** typedef const uint32_t                  cuint32_t;
  83:funsape/device/../globalDefines.hpp **** typedef const uint64_t                  cuint64_t;
  84:funsape/device/../globalDefines.hpp **** 
  85:funsape/device/../globalDefines.hpp **** //     ///////////////////     VOLATILE VARIABLES    ////////////////////     //
  86:funsape/device/../globalDefines.hpp **** typedef volatile bool_t                 vbool_t;
  87:funsape/device/../globalDefines.hpp **** typedef volatile char_t                 vchar_t;
  88:funsape/device/../globalDefines.hpp **** typedef volatile int8_t                 vint8_t;
  89:funsape/device/../globalDefines.hpp **** typedef volatile int16_t                vint16_t;
  90:funsape/device/../globalDefines.hpp **** typedef volatile int32_t                vint32_t;
  91:funsape/device/../globalDefines.hpp **** typedef volatile int64_t                vint64_t;
  92:funsape/device/../globalDefines.hpp **** typedef volatile uint8_t                vuint8_t;
  93:funsape/device/../globalDefines.hpp **** typedef volatile uint16_t               vuint16_t;
  94:funsape/device/../globalDefines.hpp **** typedef volatile uint32_t               vuint32_t;
  95:funsape/device/../globalDefines.hpp **** typedef volatile uint64_t               vuint64_t;
  96:funsape/device/../globalDefines.hpp **** 
  97:funsape/device/../globalDefines.hpp **** //     /////////////////     AVR PLATFORM VARIABLES    //////////////////     //
  98:funsape/device/../globalDefines.hpp **** typedef int16_t                         int_t;          // 16-bit (AVR)
  99:funsape/device/../globalDefines.hpp **** typedef uint16_t                        uint_t;         // 16-bit (AVR)
GAS LISTING C:\Users\kenne\AppData\Local\Temp\ccH82gYi.s 			page 3


 100:funsape/device/../globalDefines.hpp **** typedef cint16_t                        cint_t;         // 16-bit (AVR)
 101:funsape/device/../globalDefines.hpp **** typedef cuint16_t                       cuint_t;        // 16-bit (AVR)
 102:funsape/device/../globalDefines.hpp **** typedef vint16_t                        vint_t;         // 16-bit (AVR)
 103:funsape/device/../globalDefines.hpp **** typedef vuint16_t                       vuint_t;        // 16-bit (AVR)
 104:funsape/device/../globalDefines.hpp **** typedef uint8_t                         ioPinIndex_t;   // 8-bit (AVR)
 105:funsape/device/../globalDefines.hpp **** typedef vuint8_t                       *ioRegAddress_t; // 8-bit address (AVR)
 106:funsape/device/../globalDefines.hpp **** 
 107:funsape/device/../globalDefines.hpp **** //     //////////////////     BINARY ENUMERATIONS     ///////////////////     //
 108:funsape/device/../globalDefines.hpp **** enum class Activation : cbool_t {
 109:funsape/device/../globalDefines.hpp ****     OFF                                 = false,
 110:funsape/device/../globalDefines.hpp ****     ON                                  = true
 111:funsape/device/../globalDefines.hpp **** };
 112:funsape/device/../globalDefines.hpp **** 
 113:funsape/device/../globalDefines.hpp **** enum class DisplayOrientation : cbool_t {
 114:funsape/device/../globalDefines.hpp ****     LANDSCAPE                           = false,
 115:funsape/device/../globalDefines.hpp ****     PORTRAIT                            = true
 116:funsape/device/../globalDefines.hpp **** };
 117:funsape/device/../globalDefines.hpp **** 
 118:funsape/device/../globalDefines.hpp **** enum class DriverMode : cbool_t {
 119:funsape/device/../globalDefines.hpp ****     PUSH_PULL                           = false,
 120:funsape/device/../globalDefines.hpp ****     OPEN_DRAIN                          = true,
 121:funsape/device/../globalDefines.hpp **** };
 122:funsape/device/../globalDefines.hpp **** 
 123:funsape/device/../globalDefines.hpp **** enum class Edge : cbool_t {
 124:funsape/device/../globalDefines.hpp ****     FALLING                             = false,
 125:funsape/device/../globalDefines.hpp ****     RISING                              = true
 126:funsape/device/../globalDefines.hpp **** };
 127:funsape/device/../globalDefines.hpp **** 
 128:funsape/device/../globalDefines.hpp **** enum class IoOperation : cbool_t {
 129:funsape/device/../globalDefines.hpp ****     WRITE                               = false,
 130:funsape/device/../globalDefines.hpp ****     READ                                = true
 131:funsape/device/../globalDefines.hpp **** };
 132:funsape/device/../globalDefines.hpp **** 
 133:funsape/device/../globalDefines.hpp **** enum class LogicLevel : cbool_t {
 134:funsape/device/../globalDefines.hpp ****     LOW                                 = false,
 135:funsape/device/../globalDefines.hpp ****     HIGH                                = true
 136:funsape/device/../globalDefines.hpp **** };
 137:funsape/device/../globalDefines.hpp **** 
 138:funsape/device/../globalDefines.hpp **** enum class PinDirection : cbool_t {
 139:funsape/device/../globalDefines.hpp ****     INPUT                               = false,
 140:funsape/device/../globalDefines.hpp ****     OUTPUT                              = true,
 141:funsape/device/../globalDefines.hpp **** };
 142:funsape/device/../globalDefines.hpp **** 
 143:funsape/device/../globalDefines.hpp **** enum class Rotation : cbool_t {
 144:funsape/device/../globalDefines.hpp ****     CLOCKWISE                           = false,
 145:funsape/device/../globalDefines.hpp ****     COUNTERCLOCKWISE                    = true
 146:funsape/device/../globalDefines.hpp **** };
 147:funsape/device/../globalDefines.hpp **** 
 148:funsape/device/../globalDefines.hpp **** enum class State : cbool_t {
 149:funsape/device/../globalDefines.hpp ****     OFF                                 = false,
 150:funsape/device/../globalDefines.hpp ****     ON                                  = true
 151:funsape/device/../globalDefines.hpp **** };
 152:funsape/device/../globalDefines.hpp **** 
 153:funsape/device/../globalDefines.hpp **** //     ///////////////////     PLAIN ENUMERATIONS    ////////////////////     //
 154:funsape/device/../globalDefines.hpp **** enum class Axis : cuint8_t {
 155:funsape/device/../globalDefines.hpp ****     //                                     Z-AXIS     Y-AXIS     X-AXIS
 156:funsape/device/../globalDefines.hpp ****     NONE                                = (0 << 2) | (0 << 1) | (0 << 0),
GAS LISTING C:\Users\kenne\AppData\Local\Temp\ccH82gYi.s 			page 4


 157:funsape/device/../globalDefines.hpp ****     X                                   = (0 << 2) | (0 << 1) | (1 << 0),
 158:funsape/device/../globalDefines.hpp ****     Y                                   = (0 << 2) | (1 << 1) | (0 << 0),
 159:funsape/device/../globalDefines.hpp ****     XY                                  = (0 << 2) | (1 << 1) | (1 << 0),
 160:funsape/device/../globalDefines.hpp ****     Z                                   = (1 << 2) | (0 << 1) | (0 << 0),
 161:funsape/device/../globalDefines.hpp ****     XZ                                  = (1 << 2) | (0 << 1) | (1 << 0),
 162:funsape/device/../globalDefines.hpp ****     YZ                                  = (1 << 2) | (1 << 1) | (0 << 0),
 163:funsape/device/../globalDefines.hpp ****     ALL                                 = (1 << 2) | (1 << 1) | (1 << 0)
 164:funsape/device/../globalDefines.hpp **** };
 165:funsape/device/../globalDefines.hpp **** 
 166:funsape/device/../globalDefines.hpp **** inlined Axis operator|(Axis a, Axis b)
 167:funsape/device/../globalDefines.hpp **** {
 168:funsape/device/../globalDefines.hpp ****     return static_cast<Axis>(static_cast<cint8_t>(a) | static_cast<uint8_t>(b));
 169:funsape/device/../globalDefines.hpp **** }
 170:funsape/device/../globalDefines.hpp **** 
 171:funsape/device/../globalDefines.hpp **** inlined Axis &operator|=(Axis &a, Axis b)
 172:funsape/device/../globalDefines.hpp **** {
 173:funsape/device/../globalDefines.hpp ****     return a = static_cast<Axis>(static_cast<uint8_t>(a) | static_cast<uint8_t>(b));
 174:funsape/device/../globalDefines.hpp **** }
 175:funsape/device/../globalDefines.hpp **** 
 176:funsape/device/../globalDefines.hpp **** inlined Axis operator&(Axis a, Axis b)
 177:funsape/device/../globalDefines.hpp **** {
 178:funsape/device/../globalDefines.hpp ****     return static_cast<Axis>(static_cast<uint8_t>(a) & static_cast<uint8_t>(b));
 179:funsape/device/../globalDefines.hpp **** }
 180:funsape/device/../globalDefines.hpp **** 
 181:funsape/device/../globalDefines.hpp **** inlined Axis &operator&=(Axis &a, Axis b)
 182:funsape/device/../globalDefines.hpp **** {
 183:funsape/device/../globalDefines.hpp ****     return a = static_cast<Axis>(static_cast<uint8_t>(a) & static_cast<uint8_t>(b));
 184:funsape/device/../globalDefines.hpp **** }
 185:funsape/device/../globalDefines.hpp **** 
 186:funsape/device/../globalDefines.hpp **** enum class Direction : cuint8_t {
 187:funsape/device/../globalDefines.hpp ****     LEFT                                = 0,
 188:funsape/device/../globalDefines.hpp ****     RIGHT                               = 1,
 189:funsape/device/../globalDefines.hpp ****     UP                                  = 2,
 190:funsape/device/../globalDefines.hpp ****     DOWN                                = 3
 191:funsape/device/../globalDefines.hpp **** };
 192:funsape/device/../globalDefines.hpp **** 
 193:funsape/device/../globalDefines.hpp **** enum class InterfaceMode : cuint8_t {
 194:funsape/device/../globalDefines.hpp ****     BLOCKING_MODE                       = 0,
 195:funsape/device/../globalDefines.hpp ****     INTERRUPT_MODE                      = 1,
 196:funsape/device/../globalDefines.hpp ****     DMA_MODE                            = 2
 197:funsape/device/../globalDefines.hpp **** };
 198:funsape/device/../globalDefines.hpp **** 
 199:funsape/device/../globalDefines.hpp **** enum class ThermometricScale : cuint8_t {
 200:funsape/device/../globalDefines.hpp ****     CELSIUS                             = 0,
 201:funsape/device/../globalDefines.hpp ****     DELISLE                             = 1,
 202:funsape/device/../globalDefines.hpp ****     FAHRENHEIT                          = 2,
 203:funsape/device/../globalDefines.hpp ****     KELVIN                              = 3,
 204:funsape/device/../globalDefines.hpp ****     NEWTON                              = 4,
 205:funsape/device/../globalDefines.hpp ****     RANKINE                             = 5,
 206:funsape/device/../globalDefines.hpp ****     REAUMUR                             = 6,
 207:funsape/device/../globalDefines.hpp ****     ROMER                               = 7
 208:funsape/device/../globalDefines.hpp **** };
 209:funsape/device/../globalDefines.hpp **** 
 210:funsape/device/../globalDefines.hpp **** enum class Error : cuint16_t {
 211:funsape/device/../globalDefines.hpp ****     // General error codes
 212:funsape/device/../globalDefines.hpp ****     NONE                                                = 0x0000,   // Success - No errors occurred
 213:funsape/device/../globalDefines.hpp ****     AXIS_INVALID                                        = 0x0001,   // Invalid axis
GAS LISTING C:\Users\kenne\AppData\Local\Temp\ccH82gYi.s 			page 5


 214:funsape/device/../globalDefines.hpp ****     NOT_IMPLEMENTED                                     = 0x0002,   // Not implemented yet
 215:funsape/device/../globalDefines.hpp ****     UNDER_DEVELOPMENT                                   = 0x0003,   // This part of the code is sti
 216:funsape/device/../globalDefines.hpp ****     NOT_INITIALIZED                                     = 0x0004,   // Not initialized
 217:funsape/device/../globalDefines.hpp ****     // BUSY                                                = 0x0005,   // TODO: Describe parameter
 218:funsape/device/../globalDefines.hpp ****     // DEVICE_NOT_SUPPORTED                                = 0x0006,   // Device is not currently s
 219:funsape/device/../globalDefines.hpp ****     // FEATURE_NOT_SUPPORTED                               = 0x0007,   // Unsupported feature or co
 220:funsape/device/../globalDefines.hpp ****     // FUNCTION_POINTER_NULL                               = 0x0008,   // TODO: Describe parameter
 221:funsape/device/../globalDefines.hpp ****     // INSTANCE_INVALID                                    = 0x0009,   // Invalid instance
 222:funsape/device/../globalDefines.hpp ****     // LOCKED                                              = 0x000A,   // Accessed a locked device
 223:funsape/device/../globalDefines.hpp ****     MEMORY_ALLOCATION                                   = 0x000B,   // Memory allocation failed
 224:funsape/device/../globalDefines.hpp ****     // MODE_NOT_SUPPORTED                                  = 0x000C,   // Mode is not currently sup
 225:funsape/device/../globalDefines.hpp ****     // NOT_READY                                           = 0x000D,   // TODO: Describe parameter
 226:funsape/device/../globalDefines.hpp ****     // READ_PROTECTED                                      = 0x000E,   // Tried to read a read prot
 227:funsape/device/../globalDefines.hpp ****     // WRITE_PROTECTED                                     = 0x000F,   // Tried to write a write pr
 228:funsape/device/../globalDefines.hpp **** 
 229:funsape/device/../globalDefines.hpp ****     // Function arguments related error codes
 230:funsape/device/../globalDefines.hpp ****     // ARGUMENT_CANNOT_BE_ZERO                             = 0x0010,   // TODO: Describe parameter
 231:funsape/device/../globalDefines.hpp ****     ARGUMENT_POINTER_NULL                               = 0x0011,   // NULL pointer was passed as a
 232:funsape/device/../globalDefines.hpp ****     ARGUMENT_VALUE_INVALID                              = 0x0012,   // TODO: Describe parameter
 233:funsape/device/../globalDefines.hpp ****     // ARGUMENTS_MISMATCH                                  = 0x0013,   // A function was called wit
 234:funsape/device/../globalDefines.hpp ****     // ARGUMENTS_WRONG_NUMBER                              = 0x0014,   // A function was called wit
 235:funsape/device/../globalDefines.hpp ****     // ARGUMENT_GENERIC_ERROR_5                            = 0x0015,   // Generic error (use only o
 236:funsape/device/../globalDefines.hpp ****     // ARGUMENT_GENERIC_ERROR_6                            = 0x0016,   // Generic error (use only o
 237:funsape/device/../globalDefines.hpp ****     // ARGUMENT_GENERIC_ERROR_7                            = 0x0017,   // Generic error (use only o
 238:funsape/device/../globalDefines.hpp ****     // ARGUMENT_GENERIC_ERROR_8                            = 0x0018,   // Generic error (use only o
 239:funsape/device/../globalDefines.hpp ****     // ARGUMENT_GENERIC_ERROR_9                            = 0x0019,   // Generic error (use only o
 240:funsape/device/../globalDefines.hpp ****     // ARGUMENT_GENERIC_ERROR_10                           = 0x001A,   // Generic error (use only o
 241:funsape/device/../globalDefines.hpp ****     // ARGUMENT_GENERIC_ERROR_11                           = 0x001B,   // Generic error (use only o
 242:funsape/device/../globalDefines.hpp ****     // ARGUMENT_GENERIC_ERROR_12                           = 0x001C,   // Generic error (use only o
 243:funsape/device/../globalDefines.hpp ****     // ARGUMENT_GENERIC_ERROR_13                           = 0x001D,   // Generic error (use only o
 244:funsape/device/../globalDefines.hpp ****     // ARGUMENT_GENERIC_ERROR_14                           = 0x001E,   // Generic error (use only o
 245:funsape/device/../globalDefines.hpp ****     // ARGUMENT_GENERIC_ERROR                              = 0x001F,   // Generic error (use only o
 246:funsape/device/../globalDefines.hpp **** 
 247:funsape/device/../globalDefines.hpp ****     // Buffer related error codes
 248:funsape/device/../globalDefines.hpp ****     // BUFFER_EMPTY                                        = 0x0020,   // Buffer is empty
 249:funsape/device/../globalDefines.hpp ****     // BUFFER_FULL                                         = 0x0021,   // Buffer is full
 250:funsape/device/../globalDefines.hpp ****     // BUFFER_NOT_ENOUGH_ELEMENTS                          = 0x0022,   // Not enough space in buffe
 251:funsape/device/../globalDefines.hpp ****     // BUFFER_NOT_ENOUGH_SPACE                             = 0x0023,   // Not enough space in buffe
 252:funsape/device/../globalDefines.hpp ****     // BUFFER_POINTER_NULL                                 = 0x0024,   // Buffer size was set to ze
 253:funsape/device/../globalDefines.hpp ****     // BUFFER_SIZE_TOO_LARGE                               = 0x0025,   // Buffer size was set to a 
 254:funsape/device/../globalDefines.hpp ****     // BUFFER_SIZE_TOO_SMALL                               = 0x0026,   // Buffer size was set to a 
 255:funsape/device/../globalDefines.hpp ****     // BUFFER_SIZE_ZERO                                    = 0x0027,   // Buffer size was set to ze
 256:funsape/device/../globalDefines.hpp ****     // BUFFER_GENERIC_ERROR_8                              = 0x0028,   // Generic error (use only o
 257:funsape/device/../globalDefines.hpp ****     // BUFFER_GENERIC_ERROR_9                              = 0x0029,   // Generic error (use only o
 258:funsape/device/../globalDefines.hpp ****     // BUFFER_GENERIC_ERROR_10                             = 0x002A,   // Generic error (use only o
 259:funsape/device/../globalDefines.hpp ****     // BUFFER_GENERIC_ERROR_11                             = 0x002B,   // Generic error (use only o
 260:funsape/device/../globalDefines.hpp ****     // BUFFER_GENERIC_ERROR_12                             = 0x002C,   // Generic error (use only o
 261:funsape/device/../globalDefines.hpp ****     // BUFFER_GENERIC_ERROR_13                             = 0x002D,   // Generic error (use only o
 262:funsape/device/../globalDefines.hpp ****     // BUFFER_GENERIC_ERROR_14                             = 0x002E,   // Generic error (use only o
 263:funsape/device/../globalDefines.hpp ****     // BUFFER_GENERIC_ERROR_15                             = 0x002F,   // Generic error (use only o
 264:funsape/device/../globalDefines.hpp **** 
 265:funsape/device/../globalDefines.hpp ****     // Clock configuration related error codes
 266:funsape/device/../globalDefines.hpp ****     // CLOCK_PRESCALER_CHANGE_FAILED                       = 0x0030,   // Clock prescaler change fa
 267:funsape/device/../globalDefines.hpp ****     // CLOCK_PRESCALER_NOT_SUPPORTED                       = 0x0031,   // Clock prescaler configura
 268:funsape/device/../globalDefines.hpp ****     // CLOCK_SPEED_TOO_HIGH                                = 0x0032,   // TODO: Describe parameter
 269:funsape/device/../globalDefines.hpp ****     // CLOCK_SPEED_TOO_LOW                                 = 0x0033,   // TODO: Describe parameter
 270:funsape/device/../globalDefines.hpp ****     // CLOCK_GENERIC_ERROR_4                               = 0x0034,   // Generic error (use only o
GAS LISTING C:\Users\kenne\AppData\Local\Temp\ccH82gYi.s 			page 6


 271:funsape/device/../globalDefines.hpp ****     // CLOCK_GENERIC_ERROR_5                               = 0x0035,   // Generic error (use only o
 272:funsape/device/../globalDefines.hpp ****     // CLOCK_GENERIC_ERROR_6                               = 0x0036,   // Generic error (use only o
 273:funsape/device/../globalDefines.hpp ****     // CLOCK_GENERIC_ERROR_7                               = 0x0037,   // Generic error (use only o
 274:funsape/device/../globalDefines.hpp ****     // CLOCK_GENERIC_ERROR_8                               = 0x0038,   // Generic error (use only o
 275:funsape/device/../globalDefines.hpp ****     // CLOCK_GENERIC_ERROR_9                               = 0x0039,   // Generic error (use only o
 276:funsape/device/../globalDefines.hpp ****     // CLOCK_GENERIC_ERROR_10                              = 0x003A,   // Generic error (use only o
 277:funsape/device/../globalDefines.hpp ****     // CLOCK_GENERIC_ERROR_11                              = 0x003B,   // Generic error (use only o
 278:funsape/device/../globalDefines.hpp ****     // CLOCK_GENERIC_ERROR_12                              = 0x003C,   // Generic error (use only o
 279:funsape/device/../globalDefines.hpp ****     // CLOCK_GENERIC_ERROR_13                              = 0x003D,   // Generic error (use only o
 280:funsape/device/../globalDefines.hpp ****     // CLOCK_GENERIC_ERROR_14                              = 0x003E,   // Generic error (use only o
 281:funsape/device/../globalDefines.hpp ****     // CLOCK_GENERIC_ERROR_15                              = 0x003F,   // Generic error (use only o
 282:funsape/device/../globalDefines.hpp **** 
 283:funsape/device/../globalDefines.hpp ****     // Communication related error codes
 284:funsape/device/../globalDefines.hpp ****     // COMMUNICATION_FAILED                                = 0x0040,   // TODO: Describe parameter
 285:funsape/device/../globalDefines.hpp ****     // COMMUNICATION_NO_DEVICE_SELECTED                    = 0x0041,   // TODO: Describe parameter
 286:funsape/device/../globalDefines.hpp ****     // COMMUNICATION_PORT_NOT_SET                          = 0x0042,   // TODO: Describe parameter
 287:funsape/device/../globalDefines.hpp ****     // COMMUNICATION_TIMEOUT                               = 0x0043,   // The operation timed out
 288:funsape/device/../globalDefines.hpp ****     // COMMUNICATION_DEVICE_ID_MATCH_FAILED                = 0x0044,   // TODO: Describe parameter
 289:funsape/device/../globalDefines.hpp ****     // CHECKSUM_ERROR                                      = 0x0045,   // TODO: Describe parameter
 290:funsape/device/../globalDefines.hpp ****     // FRAME_ERROR                                         = 0x0046,   // TODO: Describe parameter
 291:funsape/device/../globalDefines.hpp ****     // PACKAGE_AWAITING                                    = 0x0047,   // Try to write data to a re
 292:funsape/device/../globalDefines.hpp ****     // PACKAGE_NOT_READY                                   = 0x0048,   // Try to read data from a n
 293:funsape/device/../globalDefines.hpp ****     // COMMUNICATION_GENERIC_ERROR_9                       = 0x0049,   // Generic error (use only o
 294:funsape/device/../globalDefines.hpp ****     // COMMUNICATION_GENERIC_ERROR_10                      = 0x004A,   // Generic error (use only o
 295:funsape/device/../globalDefines.hpp ****     // COMMUNICATION_GENERIC_ERROR_11                      = 0x004B,   // Generic error (use only o
 296:funsape/device/../globalDefines.hpp ****     // COMMUNICATION_GENERIC_ERROR_12                      = 0x004C,   // Generic error (use only o
 297:funsape/device/../globalDefines.hpp ****     // COMMUNICATION_GENERIC_ERROR_13                      = 0x004D,   // Generic error (use only o
 298:funsape/device/../globalDefines.hpp ****     // COMMUNICATION_GENERIC_ERROR_14                      = 0x004E,   // Generic error (use only o
 299:funsape/device/../globalDefines.hpp ****     // COMMUNICATION_GENERIC_ERROR_15                      = 0x004F,   // Generic error (use only o
 300:funsape/device/../globalDefines.hpp **** 
 301:funsape/device/../globalDefines.hpp ****     // DateTime class related error codes
 302:funsape/device/../globalDefines.hpp ****     // DATETIME_DATE_NOT_INITIALIZED                       = 0x0050,   // TODO: Describe parameter
 303:funsape/device/../globalDefines.hpp ****     // DATETIME_HOUR_INVALID                               = 0x0051,   // TODO: Describe parameter
 304:funsape/device/../globalDefines.hpp ****     // DATETIME_MILLISECOND_INVALID                        = 0x0052,   // TODO: Describe parameter
 305:funsape/device/../globalDefines.hpp ****     // DATETIME_MINUTE_INVALID                             = 0x0053,   // TODO: Describe parameter
 306:funsape/device/../globalDefines.hpp ****     // DATETIME_MONTH_DAY_INVALID                          = 0x0054,   // TODO: Describe parameter
 307:funsape/device/../globalDefines.hpp ****     // DATETIME_MONTH_INVALID                              = 0x0055,   // TODO: Describe parameter
 308:funsape/device/../globalDefines.hpp ****     // DATETIME_SECOND_INVALID                             = 0x0056,   // TODO: Describe parameter
 309:funsape/device/../globalDefines.hpp ****     // DATETIME_TIME_NOT_INITIALIZED                       = 0x0057,   // TODO: Describe parameter
 310:funsape/device/../globalDefines.hpp ****     // DATETIME_TIMEZONE_INVALID                           = 0x0058,   // TODO: Describe parameter
 311:funsape/device/../globalDefines.hpp ****     // DATETIME_YEAR_INVALID                               = 0x0059,   // TODO: Describe parameter
 312:funsape/device/../globalDefines.hpp ****     // DATETIME_DATE_INVALID                               = 0x005A,   // TODO: Describe parameter
 313:funsape/device/../globalDefines.hpp ****     // DATETIME_TIME_INVALID                               = 0x005B,   // TODO: Describe parameter
 314:funsape/device/../globalDefines.hpp ****     // DATETIME_GENERIC_ERROR_13                           = 0x005C,   // Generic error (use only o
 315:funsape/device/../globalDefines.hpp ****     // DATETIME_GENERIC_ERROR_14                           = 0x005D,   // Generic error (use only o
 316:funsape/device/../globalDefines.hpp ****     // DATETIME_GENERIC_ERROR_15                           = 0x005F,   // Generic error (use only o
 317:funsape/device/../globalDefines.hpp **** 
 318:funsape/device/../globalDefines.hpp ****     // Handler related error codes
 319:funsape/device/../globalDefines.hpp ****     // HANDLER_NOT_SUPPORTED                               = 0x0060,   // TODO: Describe parameter
 320:funsape/device/../globalDefines.hpp ****     // HANDLER_POINTER_NULL                                = 0x0061,   // TODO: Describe parameter
 321:funsape/device/../globalDefines.hpp ****     // HANDLER_GENERIC_ERROR_2                             = 0x0062,   // Generic error (use only o
 322:funsape/device/../globalDefines.hpp ****     // HANDLER_GENERIC_ERROR_3                             = 0x0063,   // Generic error (use only o
 323:funsape/device/../globalDefines.hpp ****     // HANDLER_GENERIC_ERROR_4                             = 0x0064,   // Generic error (use only o
 324:funsape/device/../globalDefines.hpp ****     // HANDLER_GENERIC_ERROR_5                             = 0x0065,   // Generic error (use only o
 325:funsape/device/../globalDefines.hpp ****     // HANDLER_GENERIC_ERROR_6                             = 0x0066,   // Generic error (use only o
 326:funsape/device/../globalDefines.hpp ****     // HANDLER_GENERIC_ERROR_7                             = 0x0067,   // Generic error (use only o
 327:funsape/device/../globalDefines.hpp ****     // HANDLER_GENERIC_ERROR_8                             = 0x0068,   // Generic error (use only o
GAS LISTING C:\Users\kenne\AppData\Local\Temp\ccH82gYi.s 			page 7


 328:funsape/device/../globalDefines.hpp ****     // HANDLER_GENERIC_ERROR_9                             = 0x0069,   // Generic error (use only o
 329:funsape/device/../globalDefines.hpp ****     // HANDLER_GENERIC_ERROR_10                            = 0x006A,   // Generic error (use only o
 330:funsape/device/../globalDefines.hpp ****     // HANDLER_GENERIC_ERROR_11                            = 0x006B,   // Generic error (use only o
 331:funsape/device/../globalDefines.hpp ****     // HANDLER_GENERIC_ERROR_12                            = 0x006C,   // Generic error (use only o
 332:funsape/device/../globalDefines.hpp ****     // HANDLER_GENERIC_ERROR_13                            = 0x006D,   // Generic error (use only o
 333:funsape/device/../globalDefines.hpp ****     // HANDLER_GENERIC_ERROR_14                            = 0x006E,   // Generic error (use only o
 334:funsape/device/../globalDefines.hpp ****     // HANDLER_GENERIC_ERROR_15                            = 0x006F,   // Generic error (use only o
 335:funsape/device/../globalDefines.hpp **** 
 336:funsape/device/../globalDefines.hpp ****     // External interrupts related error codes
 337:funsape/device/../globalDefines.hpp ****     // INTERRUPT_NOT_AVAILABLE                             = 0x0070,   // TODO: Describe parameter
 338:funsape/device/../globalDefines.hpp ****     // INTERRUPT_PORT_OUTPUT_MODE_NOT_SUPPORTED            = 0x0071,   // TODO: Describe parameter
 339:funsape/device/../globalDefines.hpp ****     // INTERRUPT_SENSE_MODE_NOT_SUPPORTED                  = 0x0072,   // TODO: Describe parameter
 340:funsape/device/../globalDefines.hpp ****     // INTERRUPT_GENERIC_ERROR_3                           = 0x0073,   // Generic error (use only o
 341:funsape/device/../globalDefines.hpp ****     // INTERRUPT_GENERIC_ERROR_4                           = 0x0074,   // Generic error (use only o
 342:funsape/device/../globalDefines.hpp ****     // INTERRUPT_GENERIC_ERROR_5                           = 0x0075,   // Generic error (use only o
 343:funsape/device/../globalDefines.hpp ****     // INTERRUPT_GENERIC_ERROR_6                           = 0x0076,   // Generic error (use only o
 344:funsape/device/../globalDefines.hpp ****     // INTERRUPT_GENERIC_ERROR_7                           = 0x0077,   // Generic error (use only o
 345:funsape/device/../globalDefines.hpp ****     // INTERRUPT_GENERIC_ERROR_8                           = 0x0078,   // Generic error (use only o
 346:funsape/device/../globalDefines.hpp ****     // INTERRUPT_GENERIC_ERROR_9                           = 0x0079,   // Generic error (use only o
 347:funsape/device/../globalDefines.hpp ****     // INTERRUPT_GENERIC_ERROR_10                          = 0x007A,   // Generic error (use only o
 348:funsape/device/../globalDefines.hpp ****     // INTERRUPT_GENERIC_ERROR_11                          = 0x007B,   // Generic error (use only o
 349:funsape/device/../globalDefines.hpp ****     // INTERRUPT_GENERIC_ERROR_12                          = 0x007C,   // Generic error (use only o
 350:funsape/device/../globalDefines.hpp ****     // INTERRUPT_GENERIC_ERROR_13                          = 0x007D,   // Generic error (use only o
 351:funsape/device/../globalDefines.hpp ****     // INTERRUPT_GENERIC_ERROR_14                          = 0x007E,   // Generic error (use only o
 352:funsape/device/../globalDefines.hpp ****     // INTERRUPT_GENERIC_ERROR_15                          = 0x007F,   // Generic error (use only o
 353:funsape/device/../globalDefines.hpp **** 
 354:funsape/device/../globalDefines.hpp **** 
 355:funsape/device/../globalDefines.hpp ****     // Package API class related error codes
 356:funsape/device/../globalDefines.hpp ****     // PACKAGE_API_PACKAGE_DATA_FULL                       = 0x0080,   // TODO: Describe parameter
 357:funsape/device/../globalDefines.hpp ****     // PACKAGE_API_PACKAGE_NOT_READY                       = 0x0081,   // TODO: Describe parameter
 358:funsape/device/../globalDefines.hpp ****     // PACKAGE_API_PAYLOAD_DATA_NULL                       = 0x0082,   // TODO: Describe parameter
 359:funsape/device/../globalDefines.hpp ****     // PACKAGE_API_PAYLOAD_SIZE_NULL                       = 0x0083,   // TODO: Describe parameter
 360:funsape/device/../globalDefines.hpp ****     // PACKAGE_API_SOURCE_ADDRESS_INVALID                  = 0x0084,   // TODO: Describe parameter
 361:funsape/device/../globalDefines.hpp ****     // PACKAGE_API_GENERIC_ERROR_5                         = 0x0085,   // Generic error (use only o
 362:funsape/device/../globalDefines.hpp ****     // PACKAGE_API_GENERIC_ERROR_6                         = 0x0086,   // Generic error (use only o
 363:funsape/device/../globalDefines.hpp ****     // PACKAGE_API_GENERIC_ERROR_7                         = 0x0087,   // Generic error (use only o
 364:funsape/device/../globalDefines.hpp ****     // PACKAGE_API_GENERIC_ERROR_8                         = 0x0088,   // Generic error (use only o
 365:funsape/device/../globalDefines.hpp ****     // PACKAGE_API_GENERIC_ERROR_9                         = 0x0089,   // Generic error (use only o
 366:funsape/device/../globalDefines.hpp ****     // PACKAGE_API_GENERIC_ERROR_10                        = 0x008A,   // Generic error (use only o
 367:funsape/device/../globalDefines.hpp ****     // PACKAGE_API_GENERIC_ERROR_11                        = 0x008B,   // Generic error (use only o
 368:funsape/device/../globalDefines.hpp ****     // PACKAGE_API_GENERIC_ERROR_12                        = 0x008C,   // Generic error (use only o
 369:funsape/device/../globalDefines.hpp ****     // PACKAGE_API_GENERIC_ERROR_13                        = 0x008D,   // Generic error (use only o
 370:funsape/device/../globalDefines.hpp ****     // PACKAGE_API_GENERIC_ERROR_14                        = 0x008E,   // Generic error (use only o
 371:funsape/device/../globalDefines.hpp ****     // PACKAGE_API_GENERIC_ERROR_15                        = 0x008F,   // Generic error (use only o
 372:funsape/device/../globalDefines.hpp **** 
 373:funsape/device/../globalDefines.hpp ****     // SPI related error codes
 374:funsape/device/../globalDefines.hpp ****     // SPI_BUSY_FLAG                                       = 0x0090,   // TODO: Describe parameter
 375:funsape/device/../globalDefines.hpp ****     // SPI_CRC                                             = 0x0091,   // TODO: Describe parameter
 376:funsape/device/../globalDefines.hpp ****     // SPI_DMA                                             = 0x0092,   // TODO: Describe parameter
 377:funsape/device/../globalDefines.hpp ****     // SPI_MODE_FAULT                                      = 0x0093,   // TODO: Describe parameter
 378:funsape/device/../globalDefines.hpp ****     // SPI_OVERRUN                                         = 0x0094,   // TODO: Describe parameter
 379:funsape/device/../globalDefines.hpp ****     // SPI_GENERIC_ERROR_5                                 = 0x0095,   // Generic error (use only o
 380:funsape/device/../globalDefines.hpp ****     // SPI_GENERIC_ERROR_6                                 = 0x0096,   // Generic error (use only o
 381:funsape/device/../globalDefines.hpp ****     // SPI_GENERIC_ERROR_7                                 = 0x0097,   // Generic error (use only o
 382:funsape/device/../globalDefines.hpp ****     // SPI_GENERIC_ERROR_8                                 = 0x0098,   // Generic error (use only o
 383:funsape/device/../globalDefines.hpp ****     // SPI_GENERIC_ERROR_9                                 = 0x0099,   // Generic error (use only o
 384:funsape/device/../globalDefines.hpp ****     // SPI_GENERIC_ERROR_10                                = 0x009A,   // Generic error (use only o
GAS LISTING C:\Users\kenne\AppData\Local\Temp\ccH82gYi.s 			page 8


 385:funsape/device/../globalDefines.hpp ****     // SPI_GENERIC_ERROR_11                                = 0x009B,   // Generic error (use only o
 386:funsape/device/../globalDefines.hpp ****     // SPI_GENERIC_ERROR_12                                = 0x009C,   // Generic error (use only o
 387:funsape/device/../globalDefines.hpp ****     // SPI_GENERIC_ERROR_13                                = 0x009D,   // Generic error (use only o
 388:funsape/device/../globalDefines.hpp ****     // SPI_GENERIC_ERROR_14                                = 0x009E,   // Generic error (use only o
 389:funsape/device/../globalDefines.hpp ****     // SPI_GENERIC_ERROR_15                                = 0x009F,   // Generic error (use only o
 390:funsape/device/../globalDefines.hpp **** 
 391:funsape/device/../globalDefines.hpp ****     // TWI related error codes
 392:funsape/device/../globalDefines.hpp ****     // TWI_AF_FLAG                                         = 0x00A0,   // TWI AF flag error
 393:funsape/device/../globalDefines.hpp ****     // TWI_ARBITRATION_LOST                                = 0x00A1,   // TWI bus arbitration lost
 394:funsape/device/../globalDefines.hpp ****     // TWI_BUS_ERROR                                       = 0x00A2,   // TWI bus error
 395:funsape/device/../globalDefines.hpp ****     // TWI_DMA                                             = 0x00A3,   // DMA parameter error
 396:funsape/device/../globalDefines.hpp ****     // TWI_DMA_PARAM                                       = 0x00A4,   // DMA transfer error
 397:funsape/device/../globalDefines.hpp ****     // TWI_OVERRUN                                         = 0x00A5,   // TWI overrun
 398:funsape/device/../globalDefines.hpp ****     // TWI_SIZE_MANAGEMENT_ERROR                           = 0x00A6,   // Size management error
 399:funsape/device/../globalDefines.hpp ****     // TWI_INVALID_DEVICE_ADDRESS                          = 0x00A7,   // TODO: Describe parameter
 400:funsape/device/../globalDefines.hpp ****     // TWI_GENERIC_ERROR_8                                 = 0x00A8,   // Generic error (use only o
 401:funsape/device/../globalDefines.hpp ****     // TWI_GENERIC_ERROR_9                                 = 0x00A9,   // Generic error (use only o
 402:funsape/device/../globalDefines.hpp ****     // TWI_GENERIC_ERROR_10                                = 0x00AA,   // Generic error (use only o
 403:funsape/device/../globalDefines.hpp ****     // TWI_GENERIC_ERROR_11                                = 0x00AB,   // Generic error (use only o
 404:funsape/device/../globalDefines.hpp ****     // TWI_GENERIC_ERROR_12                                = 0x00AC,   // Generic error (use only o
 405:funsape/device/../globalDefines.hpp ****     // TWI_GENERIC_ERROR_13                                = 0x00AD,   // Generic error (use only o
 406:funsape/device/../globalDefines.hpp ****     // TWI_GENERIC_ERROR_14                                = 0x00AE,   // Generic error (use only o
 407:funsape/device/../globalDefines.hpp ****     // TWI_GENERIC_ERROR_15                                = 0x00AF,   // Generic error (use only o
 408:funsape/device/../globalDefines.hpp **** 
 409:funsape/device/../globalDefines.hpp ****     // USART related error codes
 410:funsape/device/../globalDefines.hpp ****     // USART_BAUD_RATE_NOT_SUPPORTED                       = 0x00B0,   // TODO: Describe parameter
 411:funsape/device/../globalDefines.hpp ****     // USART_CONFIGURATION_PARAMETER_WRONG                 = 0x00B1,   // TODO: Describe parameter
 412:funsape/device/../globalDefines.hpp ****     // USART_DATA_BITS_NOT_SUPPORTED                       = 0x00B2,   // TODO: Describe parameter
 413:funsape/device/../globalDefines.hpp ****     // USART_FRAME_FORMAT_NOT_SUPPORTED                    = 0x00B3,   // TODO: Describe parameter
 414:funsape/device/../globalDefines.hpp ****     // USART_PARITY_NOT_SUPPORTED                          = 0x00B4,   // TODO: Describe parameter
 415:funsape/device/../globalDefines.hpp ****     // USART_STOP_BIT_NOT_SUPPORTED                        = 0x00B5,   // TODO: Describe parameter
 416:funsape/device/../globalDefines.hpp ****     // USART_GENERIC_ERROR_6                               = 0x00B6,   // Generic error (use only o
 417:funsape/device/../globalDefines.hpp ****     // USART_GENERIC_ERROR_7                               = 0x00B7,   // Generic error (use only o
 418:funsape/device/../globalDefines.hpp ****     // USART_GENERIC_ERROR_8                               = 0x00B8,   // Generic error (use only o
 419:funsape/device/../globalDefines.hpp ****     // USART_GENERIC_ERROR_9                               = 0x00B9,   // Generic error (use only o
 420:funsape/device/../globalDefines.hpp ****     // USART_GENERIC_ERROR_10                              = 0x00BA,   // Generic error (use only o
 421:funsape/device/../globalDefines.hpp ****     // USART_GENERIC_ERROR_11                              = 0x00BB,   // Generic error (use only o
 422:funsape/device/../globalDefines.hpp ****     // USART_GENERIC_ERROR_12                              = 0x00BC,   // Generic error (use only o
 423:funsape/device/../globalDefines.hpp ****     // USART_GENERIC_ERROR_13                              = 0x00BD,   // Generic error (use only o
 424:funsape/device/../globalDefines.hpp ****     // USART_GENERIC_ERROR_14                              = 0x00BE,   // Generic error (use only o
 425:funsape/device/../globalDefines.hpp ****     // USART_GENERIC_ERROR_15                              = 0x00BF,   // Generic error (use only o
 426:funsape/device/../globalDefines.hpp **** 
 427:funsape/device/../globalDefines.hpp ****     // LCD related error codes
 428:funsape/device/../globalDefines.hpp ****     // LCD_CONTROL_PORT_NOT_SET                            = 0x00C0,   // TODO: Describe parameter
 429:funsape/device/../globalDefines.hpp ****     // LCD_CONTROL_PIN_E_INVALID                           = 0x00C1,   // TODO: Describe parameter
 430:funsape/device/../globalDefines.hpp ****     // LCD_CONTROL_PIN_RS_INVALID                          = 0x00C2,   // TODO: Describe parameter
 431:funsape/device/../globalDefines.hpp ****     // LCD_CONTROL_PIN_RW_INVALID                          = 0x00C3,   // TODO: Describe parameter
 432:funsape/device/../globalDefines.hpp ****     // LCD_DATA_PORT_NOT_SET                               = 0x00C4,   // TODO: Describe parameter
 433:funsape/device/../globalDefines.hpp ****     // LCD_DATA_PIN_INDEX_OUT_OF_BOUNDARIES                = 0x00C5,   // TODO: Describe parameter
 434:funsape/device/../globalDefines.hpp ****     // LCD_GENERIC_ERROR_6                                 = 0x00C6,   // Generic error (use only o
 435:funsape/device/../globalDefines.hpp ****     // LCD_GENERIC_ERROR_7                                 = 0x00C7,   // Generic error (use only o
 436:funsape/device/../globalDefines.hpp ****     // LCD_GENERIC_ERROR_8                                 = 0x00C8,   // Generic error (use only o
 437:funsape/device/../globalDefines.hpp ****     // LCD_GENERIC_ERROR_9                                 = 0x00C9,   // Generic error (use only o
 438:funsape/device/../globalDefines.hpp ****     // LCD_GENERIC_ERROR_10                                = 0x00CA,   // Generic error (use only o
 439:funsape/device/../globalDefines.hpp ****     // LCD_GENERIC_ERROR_11                                = 0x00CB,   // Generic error (use only o
 440:funsape/device/../globalDefines.hpp ****     // LCD_GENERIC_ERROR_12                                = 0x00CC,   // Generic error (use only o
 441:funsape/device/../globalDefines.hpp ****     // LCD_GENERIC_ERROR_13                                = 0x00CD,   // Generic error (use only o
GAS LISTING C:\Users\kenne\AppData\Local\Temp\ccH82gYi.s 			page 9


 442:funsape/device/../globalDefines.hpp ****     // LCD_GENERIC_ERROR_14                                = 0x00CE,   // Generic error (use only o
 443:funsape/device/../globalDefines.hpp ****     // LCD_GENERIC_ERROR_15                                = 0x00CF,   // Generic error (use only o
 444:funsape/device/../globalDefines.hpp **** 
 445:funsape/device/../globalDefines.hpp ****     // GPIO related error codes
 446:funsape/device/../globalDefines.hpp ****     GPIO_PORT_NOT_SET                                   = 0x00D0,   // Gpio port was not set before
 447:funsape/device/../globalDefines.hpp ****     GPIO_DATA_PORT_NOT_SET                              = 0x00D1,   // Gpio data port was not set b
 448:funsape/device/../globalDefines.hpp ****     GPIO_CONTROL_PORT_NOT_SET                           = 0x00D2,   // Gpio control port was not se
 449:funsape/device/../globalDefines.hpp ****     GPIO_PORT_INVALID                                   = 0x00D3,   // Gpio port address is invalid
 450:funsape/device/../globalDefines.hpp ****     GPIO_DATA_PORT_INVALID                              = 0x00D4,   // Gpio data port address is in
 451:funsape/device/../globalDefines.hpp ****     GPIO_CONTROL_PORT_INVALID                           = 0x00D5,   // Gpio control port address is
 452:funsape/device/../globalDefines.hpp ****     GPIO_PIN_INDEX_INVALID                              = 0x00D6,   // Invalid GPIO Pin
 453:funsape/device/../globalDefines.hpp ****     GPIO_PIN_INDEX_OUT_OF_BOUNDARIES                    = 0x00D7,   // Gpio pin index was out of bo
 454:funsape/device/../globalDefines.hpp ****     // GPIO_NO_PIN_SET                                     = 0x00D8,   // No pin selected at Gpio p
 455:funsape/device/../globalDefines.hpp ****     // GPIO_ADDRESS_INVALID                                = 0x00D9,   // Invalid GPIO Port
 456:funsape/device/../globalDefines.hpp ****     // GPIO_PORT_LOGIC_CONTENTION                          = 0x00DA,   // TODO: Describe parameter
 457:funsape/device/../globalDefines.hpp ****     // GPIO_GENERIC_ERROR_11                               = 0x00DB,   // Generic error (use only o
 458:funsape/device/../globalDefines.hpp ****     // GPIO_GENERIC_ERROR_12                               = 0x00DC,   // Generic error (use only o
 459:funsape/device/../globalDefines.hpp ****     // GPIO_GENERIC_ERROR_13                               = 0x00DD,   // Generic error (use only o
 460:funsape/device/../globalDefines.hpp ****     // GPIO_GENERIC_ERROR_14                               = 0x00DE,   // Generic error (use only o
 461:funsape/device/../globalDefines.hpp ****     // GPIO_GENERIC_ERROR_15                               = 0x00DF,   // Generic error (use only o
 462:funsape/device/../globalDefines.hpp **** 
 463:funsape/device/../globalDefines.hpp ****     // HAL related error codes
 464:funsape/device/../globalDefines.hpp ****     // HAL_UNKNOWN_ERROR                                   = 0x00E0,   // TODO: Describe parameter
 465:funsape/device/../globalDefines.hpp ****     // HAL_STATUS_ERROR                                    = 0x00E1,   // TODO: Describe parameter
 466:funsape/device/../globalDefines.hpp ****     // HAL_STATUS_BUSY                                     = 0x00E2,   // TODO: Describe parameter
 467:funsape/device/../globalDefines.hpp ****     // HAL_STATUS_TIMEOUT                                  = 0x00E3,   // TODO: Describe parameter
 468:funsape/device/../globalDefines.hpp ****     // HAL_GENERIC_ERROR_4                                 = 0x00E4,   // Generic error (use only o
 469:funsape/device/../globalDefines.hpp ****     // HAL_GENERIC_ERROR_5                                 = 0x00E5,   // Generic error (use only o
 470:funsape/device/../globalDefines.hpp ****     // HAL_GENERIC_ERROR_6                                 = 0x00E6,   // Generic error (use only o
 471:funsape/device/../globalDefines.hpp ****     // HAL_GENERIC_ERROR_7                                 = 0x00E7,   // Generic error (use only o
 472:funsape/device/../globalDefines.hpp ****     // HAL_GENERIC_ERROR_8                                 = 0x00E8,   // Generic error (use only o
 473:funsape/device/../globalDefines.hpp ****     // HAL_GENERIC_ERROR_9                                 = 0x00E9,   // Generic error (use only o
 474:funsape/device/../globalDefines.hpp ****     // HAL_GENERIC_ERROR_10                                = 0x00EA,   // Generic error (use only o
 475:funsape/device/../globalDefines.hpp ****     // HAL_GENERIC_ERROR_11                                = 0x00EB,   // Generic error (use only o
 476:funsape/device/../globalDefines.hpp ****     // HAL_GENERIC_ERROR_12                                = 0x00EC,   // Generic error (use only o
 477:funsape/device/../globalDefines.hpp ****     // HAL_GENERIC_ERROR_13                                = 0x00ED,   // Generic error (use only o
 478:funsape/device/../globalDefines.hpp ****     // HAL_GENERIC_ERROR_14                                = 0x00EE,   // Generic error (use only o
 479:funsape/device/../globalDefines.hpp ****     // HAL_GENERIC_ERROR_15                                = 0x00EF,   // Generic error (use only o
 480:funsape/device/../globalDefines.hpp **** 
 481:funsape/device/../globalDefines.hpp ****     // System related error codes
 482:funsape/device/../globalDefines.hpp ****     // SYSTEM_US_TIMER_HANDLER_NULL                        = 0x00F0,   // TODO: Describe parameter
 483:funsape/device/../globalDefines.hpp ****     // SYSTEM_GENERIC_ERROR_1                              = 0x00F1,   // Generic error (use only o
 484:funsape/device/../globalDefines.hpp ****     // SYSTEM_GENERIC_ERROR_2                              = 0x00F2,   // Generic error (use only o
 485:funsape/device/../globalDefines.hpp ****     // SYSTEM_GENERIC_ERROR_3                              = 0x00F3,   // Generic error (use only o
 486:funsape/device/../globalDefines.hpp ****     // SYSTEM_GENERIC_ERROR_4                              = 0x00F4,   // Generic error (use only o
 487:funsape/device/../globalDefines.hpp ****     // SYSTEM_GENERIC_ERROR_5                              = 0x00F5,   // Generic error (use only o
 488:funsape/device/../globalDefines.hpp ****     // SYSTEM_GENERIC_ERROR_6                              = 0x00F6,   // Generic error (use only o
 489:funsape/device/../globalDefines.hpp ****     // SYSTEM_GENERIC_ERROR_7                              = 0x00F7,   // Generic error (use only o
 490:funsape/device/../globalDefines.hpp ****     // SYSTEM_GENERIC_ERROR_8                              = 0x00F8,   // Generic error (use only o
 491:funsape/device/../globalDefines.hpp ****     // SYSTEM_GENERIC_ERROR_9                              = 0x00F9,   // Generic error (use only o
 492:funsape/device/../globalDefines.hpp ****     // SYSTEM_GENERIC_ERROR_10                             = 0x00FA,   // Generic error (use only o
 493:funsape/device/../globalDefines.hpp ****     // SYSTEM_GENERIC_ERROR_11                             = 0x00FB,   // Generic error (use only o
 494:funsape/device/../globalDefines.hpp ****     // SYSTEM_GENERIC_ERROR_12                             = 0x00FC,   // Generic error (use only o
 495:funsape/device/../globalDefines.hpp ****     // SYSTEM_GENERIC_ERROR_13                             = 0x00FD,   // Generic error (use only o
 496:funsape/device/../globalDefines.hpp ****     // SYSTEM_GENERIC_ERROR_14                             = 0x00FE,   // Generic error (use only o
 497:funsape/device/../globalDefines.hpp ****     // SYSTEM_GENERIC_ERROR_15                             = 0x00FF,   // Generic error (use only o
 498:funsape/device/../globalDefines.hpp **** 
GAS LISTING C:\Users\kenne\AppData\Local\Temp\ccH82gYi.s 			page 10


 499:funsape/device/../globalDefines.hpp ****     // FatFs related error codes
 500:funsape/device/../globalDefines.hpp ****     // FAT_FS_UNKNOWN_ERROR                                = 0x0100,   // TODO: Describe parameter
 501:funsape/device/../globalDefines.hpp ****     // FAT_FS_DRIVE_UNSUPPORTED                            = 0x0101,   // TODO: Describe parameter
 502:funsape/device/../globalDefines.hpp ****     // FAT_FS_DISK_NOT_INSERTED                            = 0x0102,   // TODO: Describe parameter
 503:funsape/device/../globalDefines.hpp ****     // FAT_FS_INITIALIZATION_FAILED                        = 0x0103,   // TODO: Describe parameter
 504:funsape/device/../globalDefines.hpp ****     // FAT_FS_GENERIC_ERROR_4                              = 0x0104,   // Generic error (use only o
 505:funsape/device/../globalDefines.hpp ****     // FAT_FS_GENERIC_ERROR_5                              = 0x0105,   // Generic error (use only o
 506:funsape/device/../globalDefines.hpp ****     // FAT_FS_GENERIC_ERROR_6                              = 0x0106,   // Generic error (use only o
 507:funsape/device/../globalDefines.hpp ****     // FAT_FS_GENERIC_ERROR_7                              = 0x0107,   // Generic error (use only o
 508:funsape/device/../globalDefines.hpp ****     // FAT_FS_GENERIC_ERROR_8                              = 0x0108,   // Generic error (use only o
 509:funsape/device/../globalDefines.hpp ****     // FAT_FS_GENERIC_ERROR_9                              = 0x0109,   // Generic error (use only o
 510:funsape/device/../globalDefines.hpp ****     // FAT_FS_GENERIC_ERROR_10                             = 0x010A,   // Generic error (use only o
 511:funsape/device/../globalDefines.hpp ****     // FAT_FS_GENERIC_ERROR_11                             = 0x010B,   // Generic error (use only o
 512:funsape/device/../globalDefines.hpp ****     // FAT_FS_GENERIC_ERROR_12                             = 0x010C,   // Generic error (use only o
 513:funsape/device/../globalDefines.hpp ****     // FAT_FS_GENERIC_ERROR_13                             = 0x010D,   // Generic error (use only o
 514:funsape/device/../globalDefines.hpp ****     // FAT_FS_GENERIC_ERROR_14                             = 0x010E,   // Generic error (use only o
 515:funsape/device/../globalDefines.hpp ****     // FAT_FS_GENERIC_ERROR_15                             = 0x010F,   // Generic error (use only o
 516:funsape/device/../globalDefines.hpp **** 
 517:funsape/device/../globalDefines.hpp ****     // Uncategorized error codes
 518:funsape/device/../globalDefines.hpp ****     // LCD_OUT_OF_BOUNDARIES                               = 0xFFF1,   // TODO: Describe parameter
 519:funsape/device/../globalDefines.hpp ****     // CONTROLLER_NOT_SUPPORTED                            = 0xFFF2,   // Unsupported controller
 520:funsape/device/../globalDefines.hpp ****     // DEVICE_ID_MATCH_FAILED                              = 0xFFF3,   // Device ID doesn't match
 521:funsape/device/../globalDefines.hpp ****     // DMA_NOT_SUPPORTED                                   = 0xFFF4,   // DMA interface mode is not
 522:funsape/device/../globalDefines.hpp ****     // DMA_TRANSFER_ERROR                                  = 0xFFF5,   // DMA transfer error
 523:funsape/device/../globalDefines.hpp ****     // MESSAGE_TOO_LONG                                    = 0xFFF6,   // Message is to long to be 
 524:funsape/device/../globalDefines.hpp ****     // VALID_DATA_NOT_AVAILABLE                            = 0xFFF7,   // Valid data was unavailabl
 525:funsape/device/../globalDefines.hpp ****     // PERIPHERAL_NOT_READY                                = 0xFFF8,   // TODO: Describe parameter
 526:funsape/device/../globalDefines.hpp ****     // STOPWATCH_NOT_STARTED                               = 0xFFF9,   // TODO: Describe parameter
 527:funsape/device/../globalDefines.hpp ****     // UNCATEGORIZED_GENERIC_ERROR_10                      = 0xFFFA,   // Generic error (use only o
 528:funsape/device/../globalDefines.hpp ****     // UNCATEGORIZED_GENERIC_ERROR_11                      = 0xFFFB,   // Generic error (use only o
 529:funsape/device/../globalDefines.hpp ****     // UNCATEGORIZED_GENERIC_ERROR_12                      = 0xFFFC,   // Generic error (use only o
 530:funsape/device/../globalDefines.hpp ****     // UNCATEGORIZED_GENERIC_ERROR_13                      = 0xFFFD,   // Generic error (use only o
 531:funsape/device/../globalDefines.hpp ****     // UNCATEGORIZED_GENERIC_ERROR_14                      = 0xFFFE,   // Generic error (use only o
 532:funsape/device/../globalDefines.hpp **** 
 533:funsape/device/../globalDefines.hpp ****     KEYPAD_COLUMNS_PIN_INDEX_INVALID                    = 0xFFF9,
 534:funsape/device/../globalDefines.hpp ****     KEYPAD_LINES_PIN_INDEX_INVALID                      = 0xFFFA,
 535:funsape/device/../globalDefines.hpp **** 
 536:funsape/device/../globalDefines.hpp ****     KEYPAD_LINES_GPIO_PORT_INVALID                      = 0xFFFB,
 537:funsape/device/../globalDefines.hpp ****     KEYPAD_COLUMNS_GPIO_PORT_INVALID                    = 0xFFFC,
 538:funsape/device/../globalDefines.hpp ****     KEYPAD_TYPE_UNSUPPORTED                             = 0xFFFD,
 539:funsape/device/../globalDefines.hpp ****     KEY_VALUES_NOT_SET                                  = 0xFFFE,
 540:funsape/device/../globalDefines.hpp ****     // "I don't have the slightest idea" error code
 541:funsape/device/../globalDefines.hpp ****     UNKNOWN                                             = 0xFFFF,   // Unknown error - Ops!!!!
 542:funsape/device/../globalDefines.hpp **** };
 543:funsape/device/../globalDefines.hpp **** 
 544:funsape/device/../globalDefines.hpp **** // =============================================================================
 545:funsape/device/../globalDefines.hpp **** // Macrofunctions
 546:funsape/device/../globalDefines.hpp **** // =============================================================================
 547:funsape/device/../globalDefines.hpp **** 
 548:funsape/device/../globalDefines.hpp **** //     //////////////////////     DATA VALIDITY    //////////////////////     //
 549:funsape/device/../globalDefines.hpp **** #define isGpioAddressValid(gpioPort)    (       \
 550:funsape/device/../globalDefines.hpp ****         (IS_GPIO_ALL_INSTANCE(gpioPort))        \
 551:funsape/device/../globalDefines.hpp ****         ? (bool_t)true                          \
 552:funsape/device/../globalDefines.hpp ****         : (bool_t)false)
 553:funsape/device/../globalDefines.hpp **** #define isGpioPinIndexValid(gpioPin)    (       \
 554:funsape/device/../globalDefines.hpp ****         (IS_GPIO_ALL_PIN_NUMBER(gpioPin))       \
 555:funsape/device/../globalDefines.hpp ****         ? (bool_t)true                          \
GAS LISTING C:\Users\kenne\AppData\Local\Temp\ccH82gYi.s 			page 11


 556:funsape/device/../globalDefines.hpp ****         : (bool_t)false)
 557:funsape/device/../globalDefines.hpp **** #define isPointerValid(ptr)             (       \
 558:funsape/device/../globalDefines.hpp ****         ((void *)(ptr))                         \
 559:funsape/device/../globalDefines.hpp ****         ? (bool_t)true                          \
 560:funsape/device/../globalDefines.hpp ****         : (bool_t)false)
 561:funsape/device/../globalDefines.hpp **** 
 562:funsape/device/../globalDefines.hpp **** //     //////////////////////     BIT HANDLING     //////////////////////     //
 563:funsape/device/../globalDefines.hpp **** #ifndef setBit
 564:funsape/device/../globalDefines.hpp **** #   define setBit(reg, bit)                     ((reg) |= (1 << (bit)))
 565:funsape/device/../globalDefines.hpp **** #endif
 566:funsape/device/../globalDefines.hpp **** #ifndef clrBit
 567:funsape/device/../globalDefines.hpp **** #   define clrBit(reg, bit)                     ((reg) &= ~(1 << (bit)))
 568:funsape/device/../globalDefines.hpp **** #endif
 569:funsape/device/../globalDefines.hpp **** #ifndef cplBit
 570:funsape/device/../globalDefines.hpp **** #   define cplBit(reg, bit)                     ((reg) ^= (1 << (bit)))
 571:funsape/device/../globalDefines.hpp **** #endif
 572:funsape/device/../globalDefines.hpp **** 
 573:funsape/device/../globalDefines.hpp **** //     ///////////////////////     BIT TESTING    ///////////////////////     //
 574:funsape/device/../globalDefines.hpp **** #ifndef isBitSet
 575:funsape/device/../globalDefines.hpp **** #   define isBitSet(reg, bit)                   (((reg) >> (bit)) & 1)
 576:funsape/device/../globalDefines.hpp **** #endif
 577:funsape/device/../globalDefines.hpp **** #ifndef isBitClr
 578:funsape/device/../globalDefines.hpp **** #   define isBitClr(reg, bit)                   (!isBitSet(reg,bit))
 579:funsape/device/../globalDefines.hpp **** #endif
 580:funsape/device/../globalDefines.hpp **** 
 581:funsape/device/../globalDefines.hpp **** //     ///////////////////////     BIT LOOPING    ///////////////////////     //
 582:funsape/device/../globalDefines.hpp **** #ifndef waitUntilBitIsSet
 583:funsape/device/../globalDefines.hpp **** #   define waitUntilBitIsSet(reg, bit)          do{     \
 584:funsape/device/../globalDefines.hpp ****         doNothing();                                    \
 585:funsape/device/../globalDefines.hpp ****     } while (isBitClr((reg), (bit)))
 586:funsape/device/../globalDefines.hpp **** #endif
 587:funsape/device/../globalDefines.hpp **** #ifndef waitUntilBitIsClear
 588:funsape/device/../globalDefines.hpp **** #   define waitUntilBitIsClear(reg, bit)        do{     \
 589:funsape/device/../globalDefines.hpp ****         doNothing();                                    \
 590:funsape/device/../globalDefines.hpp ****     }while(isBitSet((reg), (bit)))
 591:funsape/device/../globalDefines.hpp **** #endif
 592:funsape/device/../globalDefines.hpp **** 
 593:funsape/device/../globalDefines.hpp **** //     ////////////////////     BIT MASK HANDLING    ////////////////////     //
 594:funsape/device/../globalDefines.hpp **** #ifndef setMask
 595:funsape/device/../globalDefines.hpp **** #   define setMask(reg, mask)                   ((reg) |= (mask))
 596:funsape/device/../globalDefines.hpp **** #endif
 597:funsape/device/../globalDefines.hpp **** #ifndef clrMask
 598:funsape/device/../globalDefines.hpp **** #   define clrMask(reg, mask)                   ((reg) &= ~(mask))
 599:funsape/device/../globalDefines.hpp **** #endif
 600:funsape/device/../globalDefines.hpp **** #ifndef cplMask
 601:funsape/device/../globalDefines.hpp **** #   define cplMask(reg, mask)                   ((reg) ^= (mask))
 602:funsape/device/../globalDefines.hpp **** #endif
 603:funsape/device/../globalDefines.hpp **** 
 604:funsape/device/../globalDefines.hpp **** //     ////////////////     BIT MASK OFFSET HANDLING     ////////////////     //
 605:funsape/device/../globalDefines.hpp **** #ifndef setMaskOffset
 606:funsape/device/../globalDefines.hpp **** #   define setMaskOffset(reg, mask, offset)     ((reg) |= ((mask) << (offset)))
 607:funsape/device/../globalDefines.hpp **** #endif
 608:funsape/device/../globalDefines.hpp **** #ifndef clrMaskOffset
 609:funsape/device/../globalDefines.hpp **** #   define clrMaskOffset(reg, mask, offset)     ((reg) &= ~((mask) << (offset)))
 610:funsape/device/../globalDefines.hpp **** #endif
 611:funsape/device/../globalDefines.hpp **** #ifndef cplMaskOffset
 612:funsape/device/../globalDefines.hpp **** #   define cplMaskOffset(reg, mask, offset)     ((reg) ^= ((mask) << (offset)))
GAS LISTING C:\Users\kenne\AppData\Local\Temp\ccH82gYi.s 			page 12


 613:funsape/device/../globalDefines.hpp **** #endif
 614:funsape/device/../globalDefines.hpp **** 
 615:funsape/device/../globalDefines.hpp **** //     /////////////     DATA MANIPULATION (8-BITS WIDE)    /////////////     //
 616:funsape/device/../globalDefines.hpp **** #define byteGetNibble1(dataByte)        (((dataByte) >> 4) & 0x0F)
 617:funsape/device/../globalDefines.hpp **** #define byteGetNibble0(dataByte)        ((dataByte) & 0x0F)
 618:funsape/device/../globalDefines.hpp **** #define byteSwitchNibbles(dataByte)     ((byteGetNibble0(dataByte) << 4) | \
 619:funsape/device/../globalDefines.hpp ****         (byteGetNibble1(dataByte)))
 620:funsape/device/../globalDefines.hpp **** 
 621:funsape/device/../globalDefines.hpp **** //     ////////////     DATA MANIPULATION (16-BITS WIDE)     ////////////     //
 622:funsape/device/../globalDefines.hpp **** #define hwordGetByte1(dataHword)        (((dataHword) >> 8) & 0x00FF)
 623:funsape/device/../globalDefines.hpp **** #define hwordGetByte0(dataHword)        ((dataHword) & 0x00FF)
 624:funsape/device/../globalDefines.hpp **** #define hwordSwitchBytes(dataHword)     ((hwordGetByte0(dataHword) << 8) | \
 625:funsape/device/../globalDefines.hpp ****         (hwordGetByte1(dataHword)))
 626:funsape/device/../globalDefines.hpp **** 
 627:funsape/device/../globalDefines.hpp **** //     ////////////     DATA MANIPULATION (32-BITS WIDE)     ////////////     //
 628:funsape/device/../globalDefines.hpp **** #define wordGetByte3(dataWord)          (((dataWord) >> 24) & 0x000000FF)
 629:funsape/device/../globalDefines.hpp **** #define wordGetByte2(dataWord)          (((dataWord) >> 16) & 0x000000FF)
 630:funsape/device/../globalDefines.hpp **** #define wordGetByte1(dataWord)          (((dataWord) >> 8) & 0x000000FF)
 631:funsape/device/../globalDefines.hpp **** #define wordGetByte0(dataWord)          ((dataWord) & 0x000000FF)
 632:funsape/device/../globalDefines.hpp **** #define wordSwitchBytes(dataWord)       ((wordGetByte0(dataWord) << 24)  | \
 633:funsape/device/../globalDefines.hpp ****         (wordGetByte1(dataWord) << 16) | \
 634:funsape/device/../globalDefines.hpp ****         (wordGetByte2(dataWord) << 8)  | \
 635:funsape/device/../globalDefines.hpp ****         (wordGetByte3(dataWord)))
 636:funsape/device/../globalDefines.hpp **** #define wordGetHword1(dataWord)         (((dataWord) >> 16) & 0x0000FFFF)
 637:funsape/device/../globalDefines.hpp **** #define wordGetHword0(dataWord)         ((dataWord) & 0x0000FFFF)
 638:funsape/device/../globalDefines.hpp **** #define wordSwitchHwords(dataWord)      ((wordGetHword0(dataWord) << 16) | \
 639:funsape/device/../globalDefines.hpp ****         (wordGetHword1(dataWord)))
 640:funsape/device/../globalDefines.hpp **** 
 641:funsape/device/../globalDefines.hpp **** //     ////////////     DATA MANIPULATION (64-BITS WIDE)     ////////////     //
 642:funsape/device/../globalDefines.hpp **** #define dwordGetByte7(dataDword)        (((dataDword) >> 56) & 0x00000000000000FF)
 643:funsape/device/../globalDefines.hpp **** #define dwordGetByte6(dataDword)        (((dataDword) >> 48) & 0x00000000000000FF)
 644:funsape/device/../globalDefines.hpp **** #define dwordGetByte5(dataDword)        (((dataDword) >> 40) & 0x00000000000000FF)
 645:funsape/device/../globalDefines.hpp **** #define dwordGetByte4(dataDword)        (((dataDword) >> 32) & 0x00000000000000FF)
 646:funsape/device/../globalDefines.hpp **** #define dwordGetByte3(dataDword)        (((dataDword) >> 24) & 0x00000000000000FF)
 647:funsape/device/../globalDefines.hpp **** #define dwordGetByte2(dataDword)        (((dataDword) >> 16) & 0x00000000000000FF)
 648:funsape/device/../globalDefines.hpp **** #define dwordGetByte1(dataDword)        (((dataDword) >> 8) & 0x00000000000000FF)
 649:funsape/device/../globalDefines.hpp **** #define dwordGetByte0(dataDword)        ((dataDword) & 0x00000000000000FF)
 650:funsape/device/../globalDefines.hpp **** #define dwordSwitchBytes(dataDword)     ((dwordGetByte0(dataDword) << 56)  | \
 651:funsape/device/../globalDefines.hpp ****         (dwordGetByte1(dataDword) << 48) | \
 652:funsape/device/../globalDefines.hpp ****         (dwordGetByte2(dataDword) << 40) | \
 653:funsape/device/../globalDefines.hpp ****         (dwordGetByte3(dataDword) << 32) | \
 654:funsape/device/../globalDefines.hpp ****         (dwordGetByte4(dataDword) << 24) | \
 655:funsape/device/../globalDefines.hpp ****         (dwordGetByte5(dataDword) << 16) | \
 656:funsape/device/../globalDefines.hpp ****         (dwordGetByte6(dataDword) << 8)  | \
 657:funsape/device/../globalDefines.hpp ****         (dwordGetByte7(dataDword)))
 658:funsape/device/../globalDefines.hpp **** #define dwordGetHword3(dataDword)       ((dataDword >> 48) & 0x000000000000FFFF)
 659:funsape/device/../globalDefines.hpp **** #define dwordGetHword2(dataDword)       ((dataDword >> 32) & 0x000000000000FFFF)
 660:funsape/device/../globalDefines.hpp **** #define dwordGetHword1(dataDword)       ((dataDword >> 16) & 0x000000000000FFFF)
 661:funsape/device/../globalDefines.hpp **** #define dwordGetHword0(dataDword)       ((dataDword >> 0) & 0x000000000000FFFF)
 662:funsape/device/../globalDefines.hpp **** #define dwordSwitchHwords(dataDword)    ((dwordGetHword0(dataDword) << 48)  | \
 663:funsape/device/../globalDefines.hpp ****         (dwordGetHword1(dataDword) << 32) | \
 664:funsape/device/../globalDefines.hpp ****         (dwordGetHword2(dataDword) << 16) | \
 665:funsape/device/../globalDefines.hpp ****         (dwordGetHword3(dataDword)))
 666:funsape/device/../globalDefines.hpp **** #define dwordGetWord1(dataDword)         (((dataDword) >> 32) & 0x00000000FFFFFFFF)
 667:funsape/device/../globalDefines.hpp **** #define dwordGetWord0(dataDword)         ((dataDword) & 0x00000000FFFFFFFF)
 668:funsape/device/../globalDefines.hpp **** #define dwordSwitchWords(dataDword)     ((dwordGetWord0(dataDword) << 32)  | \
 669:funsape/device/../globalDefines.hpp ****         (dwordGetWord1(dataDword)))
GAS LISTING C:\Users\kenne\AppData\Local\Temp\ccH82gYi.s 			page 13


 670:funsape/device/../globalDefines.hpp **** 
 671:funsape/device/../globalDefines.hpp **** //     /////////////////////     TRUNCATE VALUES    /////////////////////     //
 672:funsape/device/../globalDefines.hpp **** #define getMaximumOf(var1, var2)        (       \
 673:funsape/device/../globalDefines.hpp ****         ((var1) > (var2))                       \
 674:funsape/device/../globalDefines.hpp ****         ? (var1)                                \
 675:funsape/device/../globalDefines.hpp ****         : (var2))
 676:funsape/device/../globalDefines.hpp **** #define getMinimumOf(var1, var2)        (       \
 677:funsape/device/../globalDefines.hpp ****         ((var1) < (var2))                       \
 678:funsape/device/../globalDefines.hpp ****         ? (var1)                                \
 679:funsape/device/../globalDefines.hpp ****         : (var2))
 680:funsape/device/../globalDefines.hpp **** #define truncateBetween(var, min, max)  (       \
 681:funsape/device/../globalDefines.hpp ****         ((var) < (min))                         \
 682:funsape/device/../globalDefines.hpp ****         ? (min)                                 \
 683:funsape/device/../globalDefines.hpp ****         : (((var) > (max))                      \
 684:funsape/device/../globalDefines.hpp ****                 ? (max)                         \
 685:funsape/device/../globalDefines.hpp ****                 : (var)                         \
 686:funsape/device/../globalDefines.hpp ****         ))
 687:funsape/device/../globalDefines.hpp **** 
 688:funsape/device/../globalDefines.hpp **** //     //////////////////////     STRINGIFYING    ///////////////////////     //
 689:funsape/device/../globalDefines.hpp **** #define stringifyName(constant)         #constant
 690:funsape/device/../globalDefines.hpp **** #define stringifyValue(constant)        stringifyName(constant)
 691:funsape/device/../globalDefines.hpp **** 
 692:funsape/device/../globalDefines.hpp **** // =============================================================================
 693:funsape/device/../globalDefines.hpp **** // Extern global variables
 694:funsape/device/../globalDefines.hpp **** // =============================================================================
 695:funsape/device/../globalDefines.hpp **** 
 696:funsape/device/../globalDefines.hpp **** // NONE
 697:funsape/device/../globalDefines.hpp **** 
 698:funsape/device/../globalDefines.hpp **** // =============================================================================
 699:funsape/device/../globalDefines.hpp **** // Inline functions declaration
 700:funsape/device/../globalDefines.hpp **** // =============================================================================
 701:funsape/device/../globalDefines.hpp **** 
 702:funsape/device/../globalDefines.hpp **** //     ///////////////////     CHARACTER HANDLING    ////////////////////     //
 703:funsape/device/../globalDefines.hpp **** char_t inlined toLowerCase(cchar_t character_p);
 704:funsape/device/../globalDefines.hpp **** char_t inlined toUpperCase(cchar_t character_p);
 705:funsape/device/../globalDefines.hpp **** 
 706:funsape/device/../globalDefines.hpp **** //     /////////////////////     DATA VALIDITY     //////////////////////     //
 707:funsape/device/../globalDefines.hpp **** bool_t inlined isAsciiLowerCaseLetter(cchar_t character_p);
 708:funsape/device/../globalDefines.hpp **** bool_t inlined isAsciiUpperCaseLetter(cchar_t character_p);
 709:funsape/device/../globalDefines.hpp **** bool_t inlined isAsciiCommand(cchar_t character_p);
 710:funsape/device/../globalDefines.hpp **** bool_t inlined isAsciiLetter(cchar_t character_p);
 711:funsape/device/../globalDefines.hpp **** bool_t inlined isAsciiNumber(cchar_t character_p);
 712:funsape/device/../globalDefines.hpp **** bool_t inlined isAsciiSymbol(cchar_t character_p);
 713:funsape/device/../globalDefines.hpp **** 
 714:funsape/device/../globalDefines.hpp **** //     /////////////////////     SYSTEM ACTIONS    //////////////////////     //
 715:funsape/device/../globalDefines.hpp **** void inlined die(Error errorCode_p);
 716:funsape/device/../globalDefines.hpp **** void inlined doNop(void);
 717:funsape/device/../globalDefines.hpp **** void inlined doNothing(void);
 718:funsape/device/../globalDefines.hpp **** void inlined systemHalt(void (*function_p)(void) = nullptr);
 719:funsape/device/../globalDefines.hpp **** 
 720:funsape/device/../globalDefines.hpp **** // =============================================================================
 721:funsape/device/../globalDefines.hpp **** // Inline functions definitions
 722:funsape/device/../globalDefines.hpp **** // =============================================================================
 723:funsape/device/../globalDefines.hpp **** 
 724:funsape/device/../globalDefines.hpp **** //     ///////////////////     CHARACTER HANDLING    ////////////////////     //
 725:funsape/device/../globalDefines.hpp **** char_t inlined toLowerCase(cchar_t character_p)
 726:funsape/device/../globalDefines.hpp **** {
GAS LISTING C:\Users\kenne\AppData\Local\Temp\ccH82gYi.s 			page 14


 727:funsape/device/../globalDefines.hpp ****     return ((isAsciiUpperCaseLetter(character_p)) ? (character_p + 0x20) : character_p);
 728:funsape/device/../globalDefines.hpp **** }
 729:funsape/device/../globalDefines.hpp **** 
 730:funsape/device/../globalDefines.hpp **** char_t inlined toUpperCase(cchar_t character_p)
 731:funsape/device/../globalDefines.hpp **** {
 732:funsape/device/../globalDefines.hpp ****     return ((isAsciiLowerCaseLetter(character_p)) ? (character_p - 0x20) : character_p);
 733:funsape/device/../globalDefines.hpp **** }
 734:funsape/device/../globalDefines.hpp **** 
 735:funsape/device/../globalDefines.hpp **** //     /////////////////////     DATA VALIDITY     //////////////////////     //
 736:funsape/device/../globalDefines.hpp **** bool_t inlined isAsciiLowerCaseLetter(cchar_t character_p)
 737:funsape/device/../globalDefines.hpp **** {
 738:funsape/device/../globalDefines.hpp ****     return ((bool_t)(((character_p >= 'a') && (character_p <= 'z')) ? true : false));
 739:funsape/device/../globalDefines.hpp **** }
 740:funsape/device/../globalDefines.hpp **** 
 741:funsape/device/../globalDefines.hpp **** bool_t inlined isAsciiUpperCaseLetter(cchar_t character_p)
 742:funsape/device/../globalDefines.hpp **** {
 743:funsape/device/../globalDefines.hpp ****     return ((bool_t)(((character_p >= 'A') && (character_p <= 'Z')) ? true : false));
 744:funsape/device/../globalDefines.hpp **** }
 745:funsape/device/../globalDefines.hpp **** 
 746:funsape/device/../globalDefines.hpp **** bool_t inlined isAsciiCommand(cchar_t character_p)
 747:funsape/device/../globalDefines.hpp **** {
 748:funsape/device/../globalDefines.hpp ****     return ((bool_t)((character_p < ' ') ? true : false));
 749:funsape/device/../globalDefines.hpp **** }
 750:funsape/device/../globalDefines.hpp **** 
 751:funsape/device/../globalDefines.hpp **** bool_t inlined isAsciiLetter(cchar_t character_p)
 752:funsape/device/../globalDefines.hpp **** {
 753:funsape/device/../globalDefines.hpp ****     return ((bool_t)((isAsciiLowerCaseLetter(character_p) || (isAsciiUpperCaseLetter(character_p)) 
 754:funsape/device/../globalDefines.hpp **** }
 755:funsape/device/../globalDefines.hpp **** 
 756:funsape/device/../globalDefines.hpp **** bool_t inlined isAsciiNumber(cchar_t character_p)
 757:funsape/device/../globalDefines.hpp **** {
 758:funsape/device/../globalDefines.hpp ****     return ((bool_t)(((character_p >= '0') && (character_p <= '9')) ? true : false));
 759:funsape/device/../globalDefines.hpp **** }
 760:funsape/device/../globalDefines.hpp **** 
 761:funsape/device/../globalDefines.hpp **** bool_t inlined isAsciiSymbol(cchar_t character_p)
 762:funsape/device/../globalDefines.hpp **** {
 763:funsape/device/../globalDefines.hpp ****     return ((bool_t)(((!isAsciiNumber(character_p)) && (!isAsciiCommand(character_p)) &&
 764:funsape/device/../globalDefines.hpp ****                                     (!isAsciiLetter(character_p))) ? true : false));
 765:funsape/device/../globalDefines.hpp **** }
 766:funsape/device/../globalDefines.hpp **** 
 767:funsape/device/../globalDefines.hpp **** //     /////////////////////     SYSTEM ACTIONS    //////////////////////     //
 768:funsape/device/../globalDefines.hpp **** void inlined die(Error errorCode_p)
 769:funsape/device/../globalDefines.hpp **** {
 770:funsape/device/../globalDefines.hpp ****     printf("Failed with error=%u (0x%04x).\r", (cuint16_t)errorCode_p, (cuint16_t)errorCode_p);
 771:funsape/device/../globalDefines.hpp ****     systemHalt();
 772:funsape/device/../globalDefines.hpp **** 
 773:funsape/device/../globalDefines.hpp ****     return;
 774:funsape/device/../globalDefines.hpp **** }
 775:funsape/device/../globalDefines.hpp **** 
 776:funsape/device/../globalDefines.hpp **** void inlined doNop(void)
 777:funsape/device/../globalDefines.hpp **** {
 778:funsape/device/../globalDefines.hpp ****     asm volatile("nop");
 779:funsape/device/../globalDefines.hpp **** 
 780:funsape/device/../globalDefines.hpp ****     return;
 781:funsape/device/../globalDefines.hpp **** }
 782:funsape/device/../globalDefines.hpp **** 
 783:funsape/device/../globalDefines.hpp **** void inlined doNothing(void)
GAS LISTING C:\Users\kenne\AppData\Local\Temp\ccH82gYi.s 			page 15


 784:funsape/device/../globalDefines.hpp **** {
 785:funsape/device/../globalDefines.hpp ****     return;
 786:funsape/device/../globalDefines.hpp **** }
 787:funsape/device/../globalDefines.hpp **** 
 788:funsape/device/../globalDefines.hpp **** void inlined systemHalt(void (*function_p)(void))
 789:funsape/device/../globalDefines.hpp **** {
 790:funsape/device/../globalDefines.hpp ****     if(isPointerValid(function_p)) {
 791:funsape/device/../globalDefines.hpp ****         function_p();
 792:funsape/device/../globalDefines.hpp ****     }
 793:funsape/device/../globalDefines.hpp ****     while(1) {
 794:funsape/device/../globalDefines.hpp ****         doNothing();
 795:funsape/device/../globalDefines.hpp ****     }
 796:funsape/device/../globalDefines.hpp **** 
 797:funsape/device/../globalDefines.hpp ****     return;
 798:funsape/device/../globalDefines.hpp **** }
 799:funsape/device/../globalDefines.hpp **** 
 800:funsape/device/../globalDefines.hpp **** // =============================================================================
 801:funsape/device/../globalDefines.hpp **** // Public functions weakly defined
 802:funsape/device/../globalDefines.hpp **** // =============================================================================
 803:funsape/device/../globalDefines.hpp **** 
 804:funsape/device/../globalDefines.hpp **** #define delayMs(time_p)                 _delay_ms(time_p)
 805:funsape/device/../globalDefines.hpp **** #define delayUs(time_p)                 _delay_us(time_p)
 806:funsape/device/../globalDefines.hpp **** 
 807:funsape/device/../globalDefines.hpp **** weakened uint32_t getTick(void)
 808:funsape/device/../globalDefines.hpp **** {
  17               		.loc 1 808 1 view -0
  18               		.cfi_startproc
  19               	/* prologue: function */
  20               	/* frame size = 0 */
  21               	/* stack size = 0 */
  22               	.L__stack_usage = 0
 809:funsape/device/../globalDefines.hpp ****     // TODO
 810:funsape/device/../globalDefines.hpp ****     return 0;
  23               		.loc 1 810 5 view .LVU1
 811:funsape/device/../globalDefines.hpp **** }
  24               		.loc 1 811 1 is_stmt 0 view .LVU2
  25 0000 60E0      		ldi r22,0
  26 0002 70E0      		ldi r23,0
  27 0004 CB01      		movw r24,r22
  28               	/* epilogue start */
  29 0006 0895      		ret
  30               		.cfi_endproc
  31               	.LFE32:
  33               		.section	.text._ZN7Hd44780C2Ev,"ax",@progbits
  34               	.global	_ZN7Hd44780C2Ev
  36               	_ZN7Hd44780C2Ev:
  37               	.LVL0:
  38               	.LFB34:
  39               		.file 2 "funsape/device/hd44780.cpp"
   1:funsape/device/hd44780.cpp **** //!
   2:funsape/device/hd44780.cpp **** //! \file           hd44780.cpp
   3:funsape/device/hd44780.cpp **** //! \brief          Hd44780 LCD controller for the FunSAPE AVR8 Library
   4:funsape/device/hd44780.cpp **** //! \author         Leandro Schwarz (bladabuska+funsapeavr8lib@gmail.com)
   5:funsape/device/hd44780.cpp **** //! \date           2023-04-12
   6:funsape/device/hd44780.cpp **** //! \version        23.04
   7:funsape/device/hd44780.cpp **** //! \copyright      license
   8:funsape/device/hd44780.cpp **** //! \details        Character LCD controller using 8- or 4-bits interface with
GAS LISTING C:\Users\kenne\AppData\Local\Temp\ccH82gYi.s 			page 16


   9:funsape/device/hd44780.cpp **** //!                     support to busy flag or delay-driven
  10:funsape/device/hd44780.cpp **** //! \todo           Todo list
  11:funsape/device/hd44780.cpp **** //!
  12:funsape/device/hd44780.cpp **** 
  13:funsape/device/hd44780.cpp **** // =============================================================================
  14:funsape/device/hd44780.cpp **** // System file dependencies
  15:funsape/device/hd44780.cpp **** // =============================================================================
  16:funsape/device/hd44780.cpp **** 
  17:funsape/device/hd44780.cpp **** #include "hd44780.hpp"
  18:funsape/device/hd44780.cpp **** #if !defined(__HD44780_HPP)
  19:funsape/device/hd44780.cpp **** #   error "Header file is corrupted!"
  20:funsape/device/hd44780.cpp **** #elif __HD44780_HPP != 2304
  21:funsape/device/hd44780.cpp **** #   error "Version mismatch between source and header files!"
  22:funsape/device/hd44780.cpp **** #endif
  23:funsape/device/hd44780.cpp **** 
  24:funsape/device/hd44780.cpp **** // =============================================================================
  25:funsape/device/hd44780.cpp **** // File exclusive - Constants
  26:funsape/device/hd44780.cpp **** // =============================================================================
  27:funsape/device/hd44780.cpp **** 
  28:funsape/device/hd44780.cpp **** #define DEBUG_HD44780                   0xF4FF
  29:funsape/device/hd44780.cpp **** 
  30:funsape/device/hd44780.cpp **** #define LCD_CLEAR_DISPLAY               0x01
  31:funsape/device/hd44780.cpp **** #define LCD_RETURN_HOME                 0x02
  32:funsape/device/hd44780.cpp **** #define LCD_ENTRY_MODE_SET              0x04
  33:funsape/device/hd44780.cpp **** #define LCD_DISPLAY_CONTROL             0x08
  34:funsape/device/hd44780.cpp **** #define LCD_MOVE_CURSOR_OR_DISPLAY      0x10
  35:funsape/device/hd44780.cpp **** #define LCD_FUNCTION_SET                0x20
  36:funsape/device/hd44780.cpp **** #define LCD_CGRAM_ADDRESS_SET           0x40
  37:funsape/device/hd44780.cpp **** #define LCD_DDRAM_ADDRESS_SET           0x80
  38:funsape/device/hd44780.cpp **** 
  39:funsape/device/hd44780.cpp **** #define LCD_FUNCTION_SET_8_BITS_INTERFACE       0x10
  40:funsape/device/hd44780.cpp **** #define LCD_FUNCTION_SET_4_BITS_INTERFACE       0x00
  41:funsape/device/hd44780.cpp **** #define LCD_FUNCTION_SET_2_LINES                0x08
  42:funsape/device/hd44780.cpp **** #define LCD_FUNCTION_SET_1_LINE                 0x00
  43:funsape/device/hd44780.cpp **** #define LCD_FUNCTION_SET_5x10_FONT              0x04
  44:funsape/device/hd44780.cpp **** #define LCD_FUNCTION_SET_5x8_FONT               0x00
  45:funsape/device/hd44780.cpp **** 
  46:funsape/device/hd44780.cpp **** #define LCD_DISPLAY_CONTROL_DISPLAY_ON          0x04
  47:funsape/device/hd44780.cpp **** #define LCD_DISPLAY_CONTROL_DISPLAY_OFF         0x00
  48:funsape/device/hd44780.cpp **** #define LCD_DISPLAY_CONTROL_CURSOR_ON           0x02
  49:funsape/device/hd44780.cpp **** #define LCD_DISPLAY_CONTROL_CURSOR_OFF          0x00
  50:funsape/device/hd44780.cpp **** #define LCD_DISPLAY_CONTROL_CURSOR_BLINK_ON     0x01
  51:funsape/device/hd44780.cpp **** #define LCD_DISPLAY_CONTROL_CURSOR_BLINK_OFF    0x00
  52:funsape/device/hd44780.cpp **** 
  53:funsape/device/hd44780.cpp **** #define LCD_ENTRY_MODE_SET_INCREMENT            0x02
  54:funsape/device/hd44780.cpp **** #define LCD_ENTRY_MODE_SET_DECREMENT            0x00
  55:funsape/device/hd44780.cpp **** #define LCD_ENTRY_MODE_SET_SHIFT                0x01
  56:funsape/device/hd44780.cpp **** #define LCD_ENTRY_MODE_SET_OVERWRITE            0x00
  57:funsape/device/hd44780.cpp **** 
  58:funsape/device/hd44780.cpp **** #define LCD_MOVE_CURSOR_OR_DISPLAY_SHIFT_DISPLAY    0x80
  59:funsape/device/hd44780.cpp **** #define LCD_MOVE_CURSOR_OR_DISPLAY_MOVE_CURSOR      0x00
  60:funsape/device/hd44780.cpp **** #define LCD_MOVE_CURSOR_OR_DISPLAY_RIGHT            0x40
  61:funsape/device/hd44780.cpp **** #define LCD_MOVE_CURSOR_OR_DISPLAY_LEFT             0x00
  62:funsape/device/hd44780.cpp **** 
  63:funsape/device/hd44780.cpp **** // =============================================================================
  64:funsape/device/hd44780.cpp **** // File exclusive - New data types
  65:funsape/device/hd44780.cpp **** // =============================================================================
GAS LISTING C:\Users\kenne\AppData\Local\Temp\ccH82gYi.s 			page 17


  66:funsape/device/hd44780.cpp **** 
  67:funsape/device/hd44780.cpp **** // NONE
  68:funsape/device/hd44780.cpp **** 
  69:funsape/device/hd44780.cpp **** // =============================================================================
  70:funsape/device/hd44780.cpp **** // Static function declarations
  71:funsape/device/hd44780.cpp **** // =============================================================================
  72:funsape/device/hd44780.cpp **** 
  73:funsape/device/hd44780.cpp **** static int lcdWriteStd(char character, FILE *stream);
  74:funsape/device/hd44780.cpp **** 
  75:funsape/device/hd44780.cpp **** // =============================================================================
  76:funsape/device/hd44780.cpp **** // File exclusive - Global variables
  77:funsape/device/hd44780.cpp **** // =============================================================================
  78:funsape/device/hd44780.cpp **** 
  79:funsape/device/hd44780.cpp **** FILE lcdStream;
  80:funsape/device/hd44780.cpp **** Hd44780 *defaultDisplay;
  81:funsape/device/hd44780.cpp **** 
  82:funsape/device/hd44780.cpp **** // =============================================================================
  83:funsape/device/hd44780.cpp **** // File exclusive - Macro-functions
  84:funsape/device/hd44780.cpp **** // =============================================================================
  85:funsape/device/hd44780.cpp **** 
  86:funsape/device/hd44780.cpp **** // NONE
  87:funsape/device/hd44780.cpp **** 
  88:funsape/device/hd44780.cpp **** // =============================================================================
  89:funsape/device/hd44780.cpp **** // Class constructors
  90:funsape/device/hd44780.cpp **** // =============================================================================
  91:funsape/device/hd44780.cpp **** 
  92:funsape/device/hd44780.cpp **** // Hd44780::Hd44780()
  93:funsape/device/hd44780.cpp **** Hd44780::Hd44780()
  40               		.loc 2 93 1 is_stmt 1 view -0
  41               		.cfi_startproc
  42               	/* prologue: function */
  43               	/* frame size = 0 */
  44               	/* stack size = 0 */
  45               	.L__stack_usage = 0
  46               		.loc 2 93 1 is_stmt 0 view .LVU4
  47 0000 E82F      		mov r30,r24
  48 0002 F92F      		mov r31,r25
  49               	.LBB50:
  94:funsape/device/hd44780.cpp **** {
  95:funsape/device/hd44780.cpp ****     // Mark passage for debugging purpose
  96:funsape/device/hd44780.cpp ****     debugMark("Hd44780::Hd44780(void)", DEBUG_HD44780);
  50               		.loc 2 96 5 is_stmt 1 view .LVU5
  51               		.loc 2 96 55 view .LVU6
  97:funsape/device/hd44780.cpp **** 
  98:funsape/device/hd44780.cpp ****     fdev_setup_stream(&lcdStream, lcdWriteStd, nullptr, _FDEV_SETUP_WRITE);
  52               		.loc 2 98 5 view .LVU7
  53               		.loc 2 98 5 view .LVU8
  54 0004 A0E0      		ldi r26,lo8(lcdStream)
  55 0006 B0E0      		ldi r27,hi8(lcdStream)
  56 0008 80E0      		ldi r24,lo8(gs(_ZL11lcdWriteStdcP6__file))
  57 000a 90E0      		ldi r25,hi8(gs(_ZL11lcdWriteStdcP6__file))
  58               	.LVL1:
  59               		.loc 2 98 5 is_stmt 0 view .LVU9
  60 000c 1996      		adiw r26,8+1
  61 000e 9C93      		st X,r25
  62 0010 8E93      		st -X,r24
  63 0012 1897      		sbiw r26,8
GAS LISTING C:\Users\kenne\AppData\Local\Temp\ccH82gYi.s 			page 18


  64               		.loc 2 98 5 is_stmt 1 view .LVU10
  65 0014 1B96      		adiw r26,10+1
  66 0016 1C92      		st X,__zero_reg__
  67 0018 1E92      		st -X,__zero_reg__
  68 001a 1A97      		sbiw r26,10
  69               		.loc 2 98 5 view .LVU11
  70 001c 82E0      		ldi r24,lo8(2)
  71 001e 1396      		adiw r26,3
  72 0020 8C93      		st X,r24
  73 0022 1397      		sbiw r26,3
  74               		.loc 2 98 5 view .LVU12
  75 0024 1D96      		adiw r26,12+1
  76 0026 1C92      		st X,__zero_reg__
  77 0028 1E92      		st -X,__zero_reg__
  78 002a 1C97      		sbiw r26,12
  79               		.loc 2 98 5 view .LVU13
  99:funsape/device/hd44780.cpp **** 
 100:funsape/device/hd44780.cpp ****     // Reset data members
 101:funsape/device/hd44780.cpp ****     this->_controlDir                   = nullptr;
  80               		.loc 2 101 5 view .LVU14
  81               		.loc 2 101 41 is_stmt 0 view .LVU15
  82 002c 1182      		std Z+1,__zero_reg__
  83 002e 1082      		st Z,__zero_reg__
 102:funsape/device/hd44780.cpp ****     this->_controlPout                  = nullptr;
  84               		.loc 2 102 5 is_stmt 1 view .LVU16
  85               		.loc 2 102 41 is_stmt 0 view .LVU17
  86 0030 1382      		std Z+3,__zero_reg__
  87 0032 1282      		std Z+2,__zero_reg__
 103:funsape/device/hd44780.cpp ****     this->_controlE                     = 0;
  88               		.loc 2 103 5 is_stmt 1 view .LVU18
  89               		.loc 2 103 41 is_stmt 0 view .LVU19
  90 0034 8481      		ldd r24,Z+4
  91 0036 982F      		mov r25,r24
  92 0038 987F      		andi r25,lo8(-8)
  93 003a 9483      		std Z+4,r25
 104:funsape/device/hd44780.cpp ****     this->_controlRs                    = 0;
  94               		.loc 2 104 5 is_stmt 1 view .LVU20
  95               		.loc 2 104 41 is_stmt 0 view .LVU21
  96 003c 807C      		andi r24,lo8(-64)
  97 003e 8483      		std Z+4,r24
 105:funsape/device/hd44780.cpp ****     this->_controlRw                    = 0;
  98               		.loc 2 105 5 is_stmt 1 view .LVU22
  99               		.loc 2 105 41 is_stmt 0 view .LVU23
 100 0040 1482      		std Z+4,__zero_reg__
 101 0042 8581      		ldd r24,Z+5
 102 0044 8E7F      		andi r24,lo8(-2)
 103 0046 8583      		std Z+5,r24
 106:funsape/device/hd44780.cpp ****     this->_dataDir                      = nullptr;
 104               		.loc 2 106 5 is_stmt 1 view .LVU24
 105               		.loc 2 106 41 is_stmt 0 view .LVU25
 106 0048 1782      		std Z+7,__zero_reg__
 107 004a 1682      		std Z+6,__zero_reg__
 107:funsape/device/hd44780.cpp ****     this->_dataPout                     = nullptr;
 108               		.loc 2 107 5 is_stmt 1 view .LVU26
 109               		.loc 2 107 41 is_stmt 0 view .LVU27
 110 004c 1186      		std Z+9,__zero_reg__
 111 004e 1086      		std Z+8,__zero_reg__
GAS LISTING C:\Users\kenne\AppData\Local\Temp\ccH82gYi.s 			page 19


 108:funsape/device/hd44780.cpp ****     this->_dataPin                      = nullptr;
 112               		.loc 2 108 5 is_stmt 1 view .LVU28
 113               		.loc 2 108 41 is_stmt 0 view .LVU29
 114 0050 1386      		std Z+11,__zero_reg__
 115 0052 1286      		std Z+10,__zero_reg__
 109:funsape/device/hd44780.cpp ****     this->_dataFirst                    = 0;
 116               		.loc 2 109 5 is_stmt 1 view .LVU30
 117               		.loc 2 109 41 is_stmt 0 view .LVU31
 118 0054 8485      		ldd r24,Z+12
 119 0056 887F      		andi r24,lo8(-8)
 120 0058 8487      		std Z+12,r24
 110:funsape/device/hd44780.cpp ****     this->_use4LinesData                = false;
 121               		.loc 2 110 5 is_stmt 1 view .LVU32
 122               		.loc 2 110 41 is_stmt 0 view .LVU33
 123 005a 877F      		andi r24,lo8(~(1<<3))
 124 005c 8487      		std Z+12,r24
 111:funsape/device/hd44780.cpp ****     this->_useBusyFlag                  = false;
 125               		.loc 2 111 5 is_stmt 1 view .LVU34
 126               		.loc 2 111 41 is_stmt 0 view .LVU35
 127 005e 8F7E      		andi r24,lo8(~(1<<4))
 128 0060 8487      		std Z+12,r24
 112:funsape/device/hd44780.cpp ****     this->_columns                      = 0;
 129               		.loc 2 112 5 is_stmt 1 view .LVU36
 130               		.loc 2 112 41 is_stmt 0 view .LVU37
 131 0062 8F71      		andi r24,lo8(31)
 132 0064 8487      		std Z+12,r24
 133 0066 8585      		ldd r24,Z+13
 134 0068 982F      		mov r25,r24
 135 006a 987F      		andi r25,lo8(-8)
 136 006c 9587      		std Z+13,r25
 113:funsape/device/hd44780.cpp ****     this->_lines                        = 0;
 137               		.loc 2 113 5 is_stmt 1 view .LVU38
 138               		.loc 2 113 41 is_stmt 0 view .LVU39
 139 006e 807E      		andi r24,lo8(-32)
 140 0070 8587      		std Z+13,r24
 114:funsape/device/hd44780.cpp ****     this->_font                         = Font::FONT_5X8;
 141               		.loc 2 114 5 is_stmt 1 view .LVU40
 142               		.loc 2 114 41 is_stmt 0 view .LVU41
 143 0072 8F7D      		andi r24,lo8(~(1<<5))
 144 0074 8587      		std Z+13,r24
 115:funsape/device/hd44780.cpp ****     this->_entryIncDec                  = Step::INCREMENT;
 145               		.loc 2 115 5 is_stmt 1 view .LVU42
 146               		.loc 2 115 41 is_stmt 0 view .LVU43
 147 0076 8064      		ori r24,lo8(1<<6)
 148 0078 8587      		std Z+13,r24
 116:funsape/device/hd44780.cpp ****     this->_entryShiftDisplay            = DisplayMode::OVERWRITE;
 149               		.loc 2 116 5 is_stmt 1 view .LVU44
 150               		.loc 2 116 41 is_stmt 0 view .LVU45
 151 007a 8F77      		andi r24,lo8(~(1<<7))
 152 007c 8587      		std Z+13,r24
 117:funsape/device/hd44780.cpp ****     this->_cursorBlink                  = false;
 153               		.loc 2 117 5 is_stmt 1 view .LVU46
 154               		.loc 2 117 41 is_stmt 0 view .LVU47
 155 007e 8685      		ldd r24,Z+14
 156 0080 8E7F      		andi r24,lo8(~(1<<0))
 157 0082 8687      		std Z+14,r24
 118:funsape/device/hd44780.cpp ****     this->_cursorColumn                 = 0;
GAS LISTING C:\Users\kenne\AppData\Local\Temp\ccH82gYi.s 			page 20


 158               		.loc 2 118 5 is_stmt 1 view .LVU48
 159               		.loc 2 118 41 is_stmt 0 view .LVU49
 160 0084 982F      		mov r25,r24
 161 0086 9178      		andi r25,lo8(-127)
 162 0088 9687      		std Z+14,r25
 119:funsape/device/hd44780.cpp ****     this->_cursorLine                   = 0;
 163               		.loc 2 119 5 is_stmt 1 view .LVU50
 164               		.loc 2 119 41 is_stmt 0 view .LVU51
 165 008a 8170      		andi r24,lo8(1)
 166 008c 8687      		std Z+14,r24
 167 008e 8785      		ldd r24,Z+15
 168 0090 8E7F      		andi r24,lo8(-2)
 169 0092 8787      		std Z+15,r24
 120:funsape/device/hd44780.cpp ****     this->_cursorOn                     = false;
 170               		.loc 2 120 5 is_stmt 1 view .LVU52
 171               		.loc 2 120 41 is_stmt 0 view .LVU53
 172 0094 8D7F      		andi r24,lo8(~(1<<1))
 173 0096 8787      		std Z+15,r24
 121:funsape/device/hd44780.cpp ****     this->_displayOn                    = false;
 174               		.loc 2 121 5 is_stmt 1 view .LVU54
 175               		.loc 2 121 41 is_stmt 0 view .LVU55
 176 0098 8B7F      		andi r24,lo8(~(1<<2))
 177 009a 8787      		std Z+15,r24
 122:funsape/device/hd44780.cpp ****     this->_isBusyInitialized            = false;
 178               		.loc 2 122 5 is_stmt 1 view .LVU56
 179               		.loc 2 122 41 is_stmt 0 view .LVU57
 180 009c 877F      		andi r24,lo8(~(1<<3))
 181 009e 8787      		std Z+15,r24
 123:funsape/device/hd44780.cpp ****     this->_isInterfaceInitialized       = false;
 182               		.loc 2 123 5 is_stmt 1 view .LVU58
 183               		.loc 2 123 41 is_stmt 0 view .LVU59
 184 00a0 8F7E      		andi r24,lo8(~(1<<4))
 185 00a2 8787      		std Z+15,r24
 124:funsape/device/hd44780.cpp ****     this->_isControlPortSet             = false;
 186               		.loc 2 124 5 is_stmt 1 view .LVU60
 187               		.loc 2 124 41 is_stmt 0 view .LVU61
 188 00a4 8F7D      		andi r24,lo8(~(1<<5))
 189 00a6 8787      		std Z+15,r24
 125:funsape/device/hd44780.cpp ****     this->_isDataPortSet                = false;
 190               		.loc 2 125 5 is_stmt 1 view .LVU62
 191               		.loc 2 125 41 is_stmt 0 view .LVU63
 192 00a8 8F7B      		andi r24,lo8(~(1<<6))
 193 00aa 8787      		std Z+15,r24
 126:funsape/device/hd44780.cpp **** 
 127:funsape/device/hd44780.cpp ****     // Returns successfully
 128:funsape/device/hd44780.cpp ****     this->_lastError = Error::NONE;
 194               		.loc 2 128 5 is_stmt 1 view .LVU64
 195               		.loc 2 128 22 is_stmt 0 view .LVU65
 196 00ac 118A      		std Z+17,__zero_reg__
 197 00ae 108A      		std Z+16,__zero_reg__
 129:funsape/device/hd44780.cpp ****     debugMessage(Error::NONE, DEBUG_HD44780);
 198               		.loc 2 129 5 is_stmt 1 view .LVU66
 199               		.loc 2 129 45 view .LVU67
 130:funsape/device/hd44780.cpp ****     return;
 200               		.loc 2 130 5 view .LVU68
 201               	/* epilogue start */
 202               	.LBE50:
GAS LISTING C:\Users\kenne\AppData\Local\Temp\ccH82gYi.s 			page 21


 131:funsape/device/hd44780.cpp **** }
 203               		.loc 2 131 1 is_stmt 0 view .LVU69
 204 00b0 0895      		ret
 205               		.cfi_endproc
 206               	.LFE34:
 208               	.global	_ZN7Hd44780C1Ev
 209               		.set	_ZN7Hd44780C1Ev,_ZN7Hd44780C2Ev
 210               		.section	.text._ZN7Hd44780D2Ev,"ax",@progbits
 211               	.global	_ZN7Hd44780D2Ev
 213               	_ZN7Hd44780D2Ev:
 214               	.LVL2:
 215               	.LFB37:
 132:funsape/device/hd44780.cpp **** 
 133:funsape/device/hd44780.cpp **** // Hd44780::~Hd44780()
 134:funsape/device/hd44780.cpp **** Hd44780::~Hd44780()
 216               		.loc 2 134 1 is_stmt 1 view -0
 217               		.cfi_startproc
 218               	/* prologue: function */
 219               	/* frame size = 0 */
 220               	/* stack size = 0 */
 221               	.L__stack_usage = 0
 135:funsape/device/hd44780.cpp **** {
 136:funsape/device/hd44780.cpp ****     // Returns successfully
 137:funsape/device/hd44780.cpp ****     debugMessage(Error::NONE, DEBUG_HD44780);
 222               		.loc 2 137 5 view .LVU71
 223               		.loc 2 137 45 view .LVU72
 138:funsape/device/hd44780.cpp ****     return;
 224               		.loc 2 138 5 view .LVU73
 225               	/* epilogue start */
 139:funsape/device/hd44780.cpp **** }
 226               		.loc 2 139 1 is_stmt 0 view .LVU74
 227 0000 0895      		ret
 228               		.cfi_endproc
 229               	.LFE37:
 231               	.global	_ZN7Hd44780D1Ev
 232               		.set	_ZN7Hd44780D1Ev,_ZN7Hd44780D2Ev
 233               		.section	.text._ZN7Hd4478014controlPortSetEPVhhhh,"ax",@progbits
 234               	.global	_ZN7Hd4478014controlPortSetEPVhhhh
 236               	_ZN7Hd4478014controlPortSetEPVhhhh:
 237               	.LVL3:
 238               	.LFB40:
 140:funsape/device/hd44780.cpp **** 
 141:funsape/device/hd44780.cpp **** // =============================================================================
 142:funsape/device/hd44780.cpp **** // Class public methods
 143:funsape/device/hd44780.cpp **** // =============================================================================
 144:funsape/device/hd44780.cpp **** 
 145:funsape/device/hd44780.cpp **** //     ///////////////////     CONFIGURATION     ////////////////////     //
 146:funsape/device/hd44780.cpp **** bool_t Hd44780::init(const Size size_p, const Font font_p, cbool_t interface4Bits_p, cbool_t useBus
 147:funsape/device/hd44780.cpp **** {
 148:funsape/device/hd44780.cpp ****     // Mark passage for debugging purpose
 149:funsape/device/hd44780.cpp ****     debugMark("Hd44780::init(const Size, const Font, cbool_t, cbool_t)", DEBUG_HD44780);
 150:funsape/device/hd44780.cpp **** 
 151:funsape/device/hd44780.cpp ****     uint8_t auxCmd = 0;
 152:funsape/device/hd44780.cpp **** 
 153:funsape/device/hd44780.cpp ****     // Updates some struct variables
 154:funsape/device/hd44780.cpp ****     this->_useBusyFlag = useBusyFlag_p;
 155:funsape/device/hd44780.cpp ****     this->_use4LinesData = interface4Bits_p;
GAS LISTING C:\Users\kenne\AppData\Local\Temp\ccH82gYi.s 			page 22


 156:funsape/device/hd44780.cpp ****     this->_isBusyInitialized = false;
 157:funsape/device/hd44780.cpp ****     this->_isInterfaceInitialized = false;
 158:funsape/device/hd44780.cpp ****     this->_font = font_p;
 159:funsape/device/hd44780.cpp **** 
 160:funsape/device/hd44780.cpp ****     // I/O initialization
 161:funsape/device/hd44780.cpp ****     if(interface4Bits_p) {
 162:funsape/device/hd44780.cpp ****         clrMaskOffset(*(this->_dataPout), 0x0F, this->_dataFirst);
 163:funsape/device/hd44780.cpp ****         setMaskOffset(*(this->_dataDir), 0x0F, this->_dataFirst);
 164:funsape/device/hd44780.cpp ****     } else {
 165:funsape/device/hd44780.cpp ****         *(this->_dataPout) = 0x00;
 166:funsape/device/hd44780.cpp ****         *(this->_dataDir) = 0xFF;
 167:funsape/device/hd44780.cpp ****     }
 168:funsape/device/hd44780.cpp ****     clrBit(*(this->_controlPout), this->_controlE);
 169:funsape/device/hd44780.cpp ****     setBit(*(this->_controlDir), this->_controlE);
 170:funsape/device/hd44780.cpp ****     clrBit(*(this->_controlPout), this->_controlRs);
 171:funsape/device/hd44780.cpp ****     setBit(*(this->_controlDir), this->_controlRs);
 172:funsape/device/hd44780.cpp ****     if(useBusyFlag_p) {
 173:funsape/device/hd44780.cpp ****         clrBit(*(this->_controlPout), this->_controlRw);
 174:funsape/device/hd44780.cpp ****         setBit(*(this->_controlDir), this->_controlRw);
 175:funsape/device/hd44780.cpp ****     }
 176:funsape/device/hd44780.cpp **** 
 177:funsape/device/hd44780.cpp ****     // Reset the controller, must be sent 3 times
 178:funsape/device/hd44780.cpp ****     delayMs(15);
 179:funsape/device/hd44780.cpp ****     if(interface4Bits_p) {
 180:funsape/device/hd44780.cpp ****         this->_functionSet8Bits(LCD_FUNCTION_SET | LCD_FUNCTION_SET_8_BITS_INTERFACE);
 181:funsape/device/hd44780.cpp ****         delayMs(5);
 182:funsape/device/hd44780.cpp ****         this->_functionSet8Bits(LCD_FUNCTION_SET | LCD_FUNCTION_SET_8_BITS_INTERFACE);
 183:funsape/device/hd44780.cpp ****         delayUs(100);
 184:funsape/device/hd44780.cpp ****         this->_functionSet8Bits(LCD_FUNCTION_SET | LCD_FUNCTION_SET_8_BITS_INTERFACE);
 185:funsape/device/hd44780.cpp ****     } else {
 186:funsape/device/hd44780.cpp ****         this->_writeCommand(LCD_FUNCTION_SET | LCD_FUNCTION_SET_8_BITS_INTERFACE);
 187:funsape/device/hd44780.cpp ****         delayMs(5);
 188:funsape/device/hd44780.cpp ****         this->_writeCommand(LCD_FUNCTION_SET | LCD_FUNCTION_SET_8_BITS_INTERFACE);
 189:funsape/device/hd44780.cpp ****         delayUs(100);
 190:funsape/device/hd44780.cpp ****         this->_writeCommand(LCD_FUNCTION_SET | LCD_FUNCTION_SET_8_BITS_INTERFACE);
 191:funsape/device/hd44780.cpp ****     }
 192:funsape/device/hd44780.cpp ****     delayUs(100);
 193:funsape/device/hd44780.cpp **** 
 194:funsape/device/hd44780.cpp ****     // Configures the LCD to 4-bits interface
 195:funsape/device/hd44780.cpp ****     if(interface4Bits_p) {
 196:funsape/device/hd44780.cpp ****         this->_functionSet8Bits(LCD_FUNCTION_SET | LCD_FUNCTION_SET_4_BITS_INTERFACE);
 197:funsape/device/hd44780.cpp ****         delayUs(100);
 198:funsape/device/hd44780.cpp ****     }
 199:funsape/device/hd44780.cpp **** 
 200:funsape/device/hd44780.cpp ****     // Function set
 201:funsape/device/hd44780.cpp ****     auxCmd = LCD_FUNCTION_SET;
 202:funsape/device/hd44780.cpp ****     auxCmd |= (interface4Bits_p) ? LCD_FUNCTION_SET_4_BITS_INTERFACE : LCD_FUNCTION_SET_8_BITS_INTE
 203:funsape/device/hd44780.cpp ****     auxCmd |= (font_p == Font::FONT_5X8) ? LCD_FUNCTION_SET_5x8_FONT : LCD_FUNCTION_SET_5x10_FONT;
 204:funsape/device/hd44780.cpp ****     this->_font = font_p;
 205:funsape/device/hd44780.cpp ****     auxCmd |= (((uint8_t)size_p) < 100) ? LCD_FUNCTION_SET_1_LINE : LCD_FUNCTION_SET_2_LINES;
 206:funsape/device/hd44780.cpp ****     this->_writeCommand(auxCmd);
 207:funsape/device/hd44780.cpp ****     this->_isBusyInitialized = true;
 208:funsape/device/hd44780.cpp ****     this->_writeCommand(LCD_DISPLAY_CONTROL | LCD_DISPLAY_CONTROL_DISPLAY_OFF);
 209:funsape/device/hd44780.cpp ****     this->_writeCommand(LCD_CLEAR_DISPLAY);
 210:funsape/device/hd44780.cpp **** 
 211:funsape/device/hd44780.cpp ****     auxCmd = LCD_ENTRY_MODE_SET;
 212:funsape/device/hd44780.cpp ****     if(this->_entryIncDec == Step::INCREMENT) {
GAS LISTING C:\Users\kenne\AppData\Local\Temp\ccH82gYi.s 			page 23


 213:funsape/device/hd44780.cpp ****         auxCmd |= LCD_ENTRY_MODE_SET_INCREMENT;
 214:funsape/device/hd44780.cpp ****     } else {
 215:funsape/device/hd44780.cpp ****         auxCmd |= LCD_ENTRY_MODE_SET_DECREMENT;
 216:funsape/device/hd44780.cpp ****     }
 217:funsape/device/hd44780.cpp ****     if(this->_entryShiftDisplay == DisplayMode::SHIFT) {
 218:funsape/device/hd44780.cpp ****         auxCmd |= LCD_ENTRY_MODE_SET_SHIFT;
 219:funsape/device/hd44780.cpp ****     } else {
 220:funsape/device/hd44780.cpp ****         auxCmd |= LCD_ENTRY_MODE_SET_OVERWRITE;
 221:funsape/device/hd44780.cpp ****     }
 222:funsape/device/hd44780.cpp ****     this->_writeCommand(auxCmd);
 223:funsape/device/hd44780.cpp **** 
 224:funsape/device/hd44780.cpp ****     this->_writeCommand(LCD_DISPLAY_CONTROL | LCD_DISPLAY_CONTROL_DISPLAY_ON);
 225:funsape/device/hd44780.cpp **** 
 226:funsape/device/hd44780.cpp ****     // Updates the rest of the struct variables
 227:funsape/device/hd44780.cpp ****     this->_displayOn = true;
 228:funsape/device/hd44780.cpp ****     this->_cursorOn = false;
 229:funsape/device/hd44780.cpp ****     this->_cursorBlink = false;
 230:funsape/device/hd44780.cpp ****     this->_cursorLine = 0;
 231:funsape/device/hd44780.cpp ****     this->_cursorColumn = 0;
 232:funsape/device/hd44780.cpp ****     this->_lines = ((((uint8_t)size_p) * 2) / 100) - 1;
 233:funsape/device/hd44780.cpp ****     this->_columns = ((((uint8_t)size_p) * 2) % 100) - 1;
 234:funsape/device/hd44780.cpp **** 
 235:funsape/device/hd44780.cpp ****     // Returns successfully
 236:funsape/device/hd44780.cpp ****     this->_lastError = Error::NONE;
 237:funsape/device/hd44780.cpp ****     debugMessage(Error::NONE, DEBUG_HD44780);
 238:funsape/device/hd44780.cpp ****     return true;
 239:funsape/device/hd44780.cpp **** }
 240:funsape/device/hd44780.cpp **** 
 241:funsape/device/hd44780.cpp **** // -------------------------------------------------------------------------
 242:funsape/device/hd44780.cpp **** // Methods -----------------------------------------------------------------
 243:funsape/device/hd44780.cpp **** 
 244:funsape/device/hd44780.cpp **** bool_t Hd44780::controlPortSet(ioRegAddress_t controlReg_p, const ioPinIndex_t controlE_p,
 245:funsape/device/hd44780.cpp ****         const ioPinIndex_t controlRs_p, const ioPinIndex_t controlRw_p)
 246:funsape/device/hd44780.cpp **** {
 239               		.loc 2 246 1 is_stmt 1 view -0
 240               		.cfi_startproc
 241               		.loc 2 246 1 is_stmt 0 view .LVU76
 242 0000 0F93      		push r16
 243               		.cfi_def_cfa_offset 3
 244               		.cfi_offset 16, -2
 245               	/* prologue: function */
 246               	/* frame size = 0 */
 247               	/* stack size = 1 */
 248               	.L__stack_usage = 1
 249 0002 E82F      		mov r30,r24
 250 0004 F92F      		mov r31,r25
 251 0006 862F      		mov r24,r22
 252               	.LVL4:
 253               		.loc 2 246 1 view .LVU77
 254 0008 972F      		mov r25,r23
 255 000a 522F      		mov r21,r18
 247:funsape/device/hd44780.cpp ****     // Mark passage for debugging purpose
 248:funsape/device/hd44780.cpp ****     debugMark("Hd44780::controlPortSet(ioRegAddress_t, const ioPinIndex_t, const ioPinIndex_t, cons
 256               		.loc 2 248 5 is_stmt 1 view .LVU78
 249:funsape/device/hd44780.cpp ****             DEBUG_HD44780);
 257               		.loc 2 249 27 view .LVU79
 250:funsape/device/hd44780.cpp **** 
GAS LISTING C:\Users\kenne\AppData\Local\Temp\ccH82gYi.s 			page 24


 251:funsape/device/hd44780.cpp ****     // Check for errors
 252:funsape/device/hd44780.cpp ****     if(!isGpioAddressValid(controlReg_p)) {
 258               		.loc 2 252 5 view .LVU80
 259               		.loc 2 252 9 is_stmt 0 view .LVU81
 260 000c BC01      		movw r22,r24
 261               	.LVL5:
 262               		.loc 2 252 9 view .LVU82
 263 000e 6352      		subi r22,35
 264 0010 7109      		sbc r23,__zero_reg__
 265               		.loc 2 252 5 view .LVU83
 266 0012 6930      		cpi r22,9
 267 0014 7105      		cpc r23,__zero_reg__
 268 0016 00F0      		brlo .+2
 269 0018 00C0      		rjmp .L10
 253:funsape/device/hd44780.cpp ****         // Returns error
 254:funsape/device/hd44780.cpp ****         this->_lastError = Error::GPIO_PORT_INVALID;
 255:funsape/device/hd44780.cpp ****         debugMessage(Error::GPIO_PORT_INVALID, DEBUG_HD44780);
 256:funsape/device/hd44780.cpp ****         return false;
 257:funsape/device/hd44780.cpp ****     }
 258:funsape/device/hd44780.cpp ****     if(!isGpioPinIndexValid(controlE_p)) {
 270               		.loc 2 258 5 is_stmt 1 view .LVU84
 271 001a 4830      		cpi r20,lo8(8)
 272 001c 00F0      		brlo .+2
 273 001e 00C0      		rjmp .L11
 259:funsape/device/hd44780.cpp ****         // Returns error
 260:funsape/device/hd44780.cpp ****         this->_lastError = Error::GPIO_PIN_INDEX_OUT_OF_BOUNDARIES;
 261:funsape/device/hd44780.cpp ****         debugMessage(Error::GPIO_PIN_INDEX_OUT_OF_BOUNDARIES, DEBUG_HD44780);
 262:funsape/device/hd44780.cpp ****         return false;
 263:funsape/device/hd44780.cpp ****     }
 264:funsape/device/hd44780.cpp ****     if(!isGpioPinIndexValid(controlRs_p)) {
 274               		.loc 2 264 5 view .LVU85
 275 0020 2830      		cpi r18,lo8(8)
 276 0022 00F0      		brlo .+2
 277 0024 00C0      		rjmp .L12
 265:funsape/device/hd44780.cpp ****         // Returns error
 266:funsape/device/hd44780.cpp ****         this->_lastError = Error::GPIO_PIN_INDEX_OUT_OF_BOUNDARIES;
 267:funsape/device/hd44780.cpp ****         debugMessage(Error::GPIO_PIN_INDEX_OUT_OF_BOUNDARIES, DEBUG_HD44780);
 268:funsape/device/hd44780.cpp ****         return false;
 269:funsape/device/hd44780.cpp ****     }
 270:funsape/device/hd44780.cpp ****     if(!isGpioPinIndexValid(controlRw_p)) {
 278               		.loc 2 270 5 view .LVU86
 279 0026 0830      		cpi r16,lo8(8)
 280 0028 00F0      		brlo .+2
 281 002a 00C0      		rjmp .L13
 271:funsape/device/hd44780.cpp ****         // Returns error
 272:funsape/device/hd44780.cpp ****         this->_lastError = Error::GPIO_PIN_INDEX_OUT_OF_BOUNDARIES;
 273:funsape/device/hd44780.cpp ****         debugMessage(Error::GPIO_PIN_INDEX_OUT_OF_BOUNDARIES, DEBUG_HD44780);
 274:funsape/device/hd44780.cpp ****         return false;
 275:funsape/device/hd44780.cpp ****     }
 276:funsape/device/hd44780.cpp **** 
 277:funsape/device/hd44780.cpp ****     // Updates data members
 278:funsape/device/hd44780.cpp ****     this->_controlDir = getGpioDdrAddress(controlReg_p);
 282               		.loc 2 278 5 view .LVU87
 283               		.loc 2 278 25 is_stmt 0 view .LVU88
 284 002c 9C01      		movw r18,r24
 285               	.LVL6:
 286               		.loc 2 278 25 view .LVU89
GAS LISTING C:\Users\kenne\AppData\Local\Temp\ccH82gYi.s 			page 25


 287 002e 2052      		subi r18,32
 288 0030 3109      		sbc r19,__zero_reg__
 289 0032 ABEA      		ldi r26,lo8(-85)
 290 0034 BAEA      		ldi r27,lo8(-86)
 291 0036 0E94 0000 		call __umulhisi3
 292 003a 9C01      		movw r18,r24
 293 003c 3695      		lsr r19
 294 003e 2795      		ror r18
 295 0040 8E7F      		andi r24,254
 296 0042 820F      		add r24,r18
 297 0044 931F      		adc r25,r19
 298 0046 9C01      		movw r18,r24
 299 0048 2F5D      		subi r18,-33
 300 004a 3F4F      		sbci r19,-1
 301               		.loc 2 278 23 view .LVU90
 302 004c 3183      		std Z+1,r19
 303 004e 2083      		st Z,r18
 279:funsape/device/hd44780.cpp ****     this->_controlPout = getGpioPortAddress(controlReg_p);
 304               		.loc 2 279 5 is_stmt 1 view .LVU91
 305               		.loc 2 279 26 is_stmt 0 view .LVU92
 306 0050 8296      		adiw r24,34
 307               		.loc 2 279 24 view .LVU93
 308 0052 9383      		std Z+3,r25
 309 0054 8283      		std Z+2,r24
 280:funsape/device/hd44780.cpp ****     this->_controlE = controlE_p;
 310               		.loc 2 280 5 is_stmt 1 view .LVU94
 311               		.loc 2 280 23 is_stmt 0 view .LVU95
 312 0056 4770      		andi r20,lo8(7)
 313               	.LVL7:
 314               		.loc 2 280 21 view .LVU96
 315 0058 8481      		ldd r24,Z+4
 316 005a 887F      		andi r24,lo8(-8)
 317 005c 842B      		or r24,r20
 318 005e 8483      		std Z+4,r24
 281:funsape/device/hd44780.cpp ****     this->_controlRs = controlRs_p;
 319               		.loc 2 281 5 is_stmt 1 view .LVU97
 320               		.loc 2 281 24 is_stmt 0 view .LVU98
 321 0060 5770      		andi r21,lo8(7)
 322               	.LVL8:
 323               		.loc 2 281 22 view .LVU99
 324 0062 252F      		mov r18,r21
 325 0064 220F      		lsl r18
 326 0066 220F      		lsl r18
 327 0068 220F      		lsl r18
 328 006a 877C      		andi r24,lo8(-57)
 329 006c 282B      		or r18,r24
 330 006e 2483      		std Z+4,r18
 282:funsape/device/hd44780.cpp ****     this->_controlRw = controlRw_p;
 331               		.loc 2 282 5 is_stmt 1 view .LVU100
 332               		.loc 2 282 22 is_stmt 0 view .LVU101
 333 0070 802F      		mov r24,r16
 334 0072 8295      		swap r24
 335 0074 880F      		lsl r24
 336 0076 880F      		lsl r24
 337 0078 807C      		andi r24,lo8(-64)
 338 007a 2F73      		andi r18,lo8(63)
 339 007c 822B      		or r24,r18
GAS LISTING C:\Users\kenne\AppData\Local\Temp\ccH82gYi.s 			page 26


 340 007e 8483      		std Z+4,r24
 341 0080 02FB      		bst r16,2
 342 0082 0027      		clr r16
 343 0084 00F9      		bld r16,0
 344               	.LVL9:
 345               		.loc 2 282 22 view .LVU102
 346 0086 8581      		ldd r24,Z+5
 347 0088 8E7F      		andi r24,lo8(-2)
 348 008a 082B      		or r16,r24
 349 008c 0583      		std Z+5,r16
 283:funsape/device/hd44780.cpp ****     this->_isControlPortSet = true;
 350               		.loc 2 283 5 is_stmt 1 view .LVU103
 351               		.loc 2 283 29 is_stmt 0 view .LVU104
 352 008e 8785      		ldd r24,Z+15
 353 0090 8062      		ori r24,lo8(1<<5)
 354 0092 8787      		std Z+15,r24
 284:funsape/device/hd44780.cpp **** 
 285:funsape/device/hd44780.cpp ****     // Returns successfully
 286:funsape/device/hd44780.cpp ****     this->_lastError = Error::NONE;
 355               		.loc 2 286 5 is_stmt 1 view .LVU105
 356               		.loc 2 286 22 is_stmt 0 view .LVU106
 357 0094 118A      		std Z+17,__zero_reg__
 358 0096 108A      		std Z+16,__zero_reg__
 287:funsape/device/hd44780.cpp ****     debugMessage(Error::NONE, DEBUG_HD44780);
 359               		.loc 2 287 5 is_stmt 1 view .LVU107
 360               		.loc 2 287 45 view .LVU108
 288:funsape/device/hd44780.cpp ****     return true;
 361               		.loc 2 288 5 view .LVU109
 362               		.loc 2 288 12 is_stmt 0 view .LVU110
 363 0098 81E0      		ldi r24,lo8(1)
 364 009a 00C0      		rjmp .L4
 365               	.LVL10:
 366               	.L10:
 254:funsape/device/hd44780.cpp ****         debugMessage(Error::GPIO_PORT_INVALID, DEBUG_HD44780);
 367               		.loc 2 254 9 is_stmt 1 view .LVU111
 254:funsape/device/hd44780.cpp ****         debugMessage(Error::GPIO_PORT_INVALID, DEBUG_HD44780);
 368               		.loc 2 254 26 is_stmt 0 view .LVU112
 369 009c 83ED      		ldi r24,lo8(-45)
 370 009e 90E0      		ldi r25,0
 371 00a0 918B      		std Z+17,r25
 372 00a2 808B      		std Z+16,r24
 255:funsape/device/hd44780.cpp ****         return false;
 373               		.loc 2 255 9 is_stmt 1 view .LVU113
 255:funsape/device/hd44780.cpp ****         return false;
 374               		.loc 2 255 62 view .LVU114
 256:funsape/device/hd44780.cpp ****     }
 375               		.loc 2 256 9 view .LVU115
 256:funsape/device/hd44780.cpp ****     }
 376               		.loc 2 256 16 is_stmt 0 view .LVU116
 377 00a4 80E0      		ldi r24,0
 378               	.LVL11:
 379               	.L4:
 380               	/* epilogue start */
 289:funsape/device/hd44780.cpp **** }
 381               		.loc 2 289 1 view .LVU117
 382 00a6 0F91      		pop r16
 383 00a8 0895      		ret
GAS LISTING C:\Users\kenne\AppData\Local\Temp\ccH82gYi.s 			page 27


 384               	.LVL12:
 385               	.L11:
 260:funsape/device/hd44780.cpp ****         debugMessage(Error::GPIO_PIN_INDEX_OUT_OF_BOUNDARIES, DEBUG_HD44780);
 386               		.loc 2 260 9 is_stmt 1 view .LVU118
 260:funsape/device/hd44780.cpp ****         debugMessage(Error::GPIO_PIN_INDEX_OUT_OF_BOUNDARIES, DEBUG_HD44780);
 387               		.loc 2 260 26 is_stmt 0 view .LVU119
 388 00aa 87ED      		ldi r24,lo8(-41)
 389 00ac 90E0      		ldi r25,0
 390 00ae 918B      		std Z+17,r25
 391 00b0 808B      		std Z+16,r24
 261:funsape/device/hd44780.cpp ****         return false;
 392               		.loc 2 261 9 is_stmt 1 view .LVU120
 261:funsape/device/hd44780.cpp ****         return false;
 393               		.loc 2 261 77 view .LVU121
 262:funsape/device/hd44780.cpp ****     }
 394               		.loc 2 262 9 view .LVU122
 262:funsape/device/hd44780.cpp ****     }
 395               		.loc 2 262 16 is_stmt 0 view .LVU123
 396 00b2 80E0      		ldi r24,0
 397 00b4 00C0      		rjmp .L4
 398               	.L12:
 266:funsape/device/hd44780.cpp ****         debugMessage(Error::GPIO_PIN_INDEX_OUT_OF_BOUNDARIES, DEBUG_HD44780);
 399               		.loc 2 266 9 is_stmt 1 view .LVU124
 266:funsape/device/hd44780.cpp ****         debugMessage(Error::GPIO_PIN_INDEX_OUT_OF_BOUNDARIES, DEBUG_HD44780);
 400               		.loc 2 266 26 is_stmt 0 view .LVU125
 401 00b6 87ED      		ldi r24,lo8(-41)
 402 00b8 90E0      		ldi r25,0
 403 00ba 918B      		std Z+17,r25
 404 00bc 808B      		std Z+16,r24
 267:funsape/device/hd44780.cpp ****         return false;
 405               		.loc 2 267 9 is_stmt 1 view .LVU126
 267:funsape/device/hd44780.cpp ****         return false;
 406               		.loc 2 267 77 view .LVU127
 268:funsape/device/hd44780.cpp ****     }
 407               		.loc 2 268 9 view .LVU128
 268:funsape/device/hd44780.cpp ****     }
 408               		.loc 2 268 16 is_stmt 0 view .LVU129
 409 00be 80E0      		ldi r24,0
 410 00c0 00C0      		rjmp .L4
 411               	.L13:
 272:funsape/device/hd44780.cpp ****         debugMessage(Error::GPIO_PIN_INDEX_OUT_OF_BOUNDARIES, DEBUG_HD44780);
 412               		.loc 2 272 9 is_stmt 1 view .LVU130
 272:funsape/device/hd44780.cpp ****         debugMessage(Error::GPIO_PIN_INDEX_OUT_OF_BOUNDARIES, DEBUG_HD44780);
 413               		.loc 2 272 26 is_stmt 0 view .LVU131
 414 00c2 87ED      		ldi r24,lo8(-41)
 415 00c4 90E0      		ldi r25,0
 416 00c6 918B      		std Z+17,r25
 417 00c8 808B      		std Z+16,r24
 273:funsape/device/hd44780.cpp ****         return false;
 418               		.loc 2 273 9 is_stmt 1 view .LVU132
 273:funsape/device/hd44780.cpp ****         return false;
 419               		.loc 2 273 77 view .LVU133
 274:funsape/device/hd44780.cpp ****     }
 420               		.loc 2 274 9 view .LVU134
 274:funsape/device/hd44780.cpp ****     }
 421               		.loc 2 274 16 is_stmt 0 view .LVU135
 422 00ca 80E0      		ldi r24,0
GAS LISTING C:\Users\kenne\AppData\Local\Temp\ccH82gYi.s 			page 28


 423 00cc 00C0      		rjmp .L4
 424               		.cfi_endproc
 425               	.LFE40:
 427               		.section	.text._ZN7Hd4478011dataPortSetEPVhh,"ax",@progbits
 428               	.global	_ZN7Hd4478011dataPortSetEPVhh
 430               	_ZN7Hd4478011dataPortSetEPVhh:
 431               	.LVL13:
 432               	.LFB41:
 290:funsape/device/hd44780.cpp **** 
 291:funsape/device/hd44780.cpp **** bool_t Hd44780::dataPortSet(ioRegAddress_t dataReg_p, const ioPinIndex_t dataFirst_p)
 292:funsape/device/hd44780.cpp **** {
 433               		.loc 2 292 1 is_stmt 1 view -0
 434               		.cfi_startproc
 435               	/* prologue: function */
 436               	/* frame size = 0 */
 437               	/* stack size = 0 */
 438               	.L__stack_usage = 0
 439               		.loc 2 292 1 is_stmt 0 view .LVU137
 440 0000 E82F      		mov r30,r24
 441 0002 F92F      		mov r31,r25
 442 0004 262F      		mov r18,r22
 443 0006 372F      		mov r19,r23
 293:funsape/device/hd44780.cpp ****     // Mark passage for debugging purpose
 294:funsape/device/hd44780.cpp ****     debugMark("Hd44780::dataPortSet(ioRegAddress_t, const ioPinIndex_t)", DEBUG_HD44780);
 444               		.loc 2 294 5 is_stmt 1 view .LVU138
 445               		.loc 2 294 89 view .LVU139
 295:funsape/device/hd44780.cpp **** 
 296:funsape/device/hd44780.cpp ****     // Check for errors
 297:funsape/device/hd44780.cpp ****     if(!isGpioAddressValid(dataReg_p)) {
 446               		.loc 2 297 5 view .LVU140
 447               		.loc 2 297 9 is_stmt 0 view .LVU141
 448 0008 C901      		movw r24,r18
 449               	.LVL14:
 450               		.loc 2 297 9 view .LVU142
 451 000a 8397      		sbiw r24,35
 452               		.loc 2 297 5 view .LVU143
 453 000c 0997      		sbiw r24,9
 454 000e 00F4      		brsh .L18
 298:funsape/device/hd44780.cpp ****         // Returns error
 299:funsape/device/hd44780.cpp ****         this->_lastError = Error::GPIO_PORT_INVALID;
 300:funsape/device/hd44780.cpp ****         debugMessage(Error::GPIO_PORT_INVALID, DEBUG_HD44780);
 301:funsape/device/hd44780.cpp ****         return false;
 302:funsape/device/hd44780.cpp ****     }
 303:funsape/device/hd44780.cpp ****     if(!isGpioPinIndexValid(dataFirst_p)) {
 455               		.loc 2 303 5 is_stmt 1 view .LVU144
 456 0010 4830      		cpi r20,lo8(8)
 457 0012 00F4      		brsh .L19
 304:funsape/device/hd44780.cpp ****         // Returns error
 305:funsape/device/hd44780.cpp ****         this->_lastError = Error::GPIO_PIN_INDEX_OUT_OF_BOUNDARIES;
 306:funsape/device/hd44780.cpp ****         debugMessage(Error::GPIO_PIN_INDEX_OUT_OF_BOUNDARIES, DEBUG_HD44780);
 307:funsape/device/hd44780.cpp ****         return false;
 308:funsape/device/hd44780.cpp ****     }
 309:funsape/device/hd44780.cpp **** 
 310:funsape/device/hd44780.cpp ****     // Updates data members
 311:funsape/device/hd44780.cpp ****     this->_dataDir = getGpioDdrAddress(dataReg_p);
 458               		.loc 2 311 5 view .LVU145
 459               		.loc 2 311 22 is_stmt 0 view .LVU146
GAS LISTING C:\Users\kenne\AppData\Local\Temp\ccH82gYi.s 			page 29


 460 0014 2052      		subi r18,32
 461 0016 3109      		sbc r19,__zero_reg__
 462 0018 ABEA      		ldi r26,lo8(-85)
 463 001a BAEA      		ldi r27,lo8(-86)
 464 001c 0E94 0000 		call __umulhisi3
 465               	.LVL15:
 466               		.loc 2 311 22 view .LVU147
 467 0020 9C01      		movw r18,r24
 468 0022 3695      		lsr r19
 469 0024 2795      		ror r18
 470 0026 8E7F      		andi r24,254
 471 0028 820F      		add r24,r18
 472 002a 931F      		adc r25,r19
 473 002c 9C01      		movw r18,r24
 474 002e 2F5D      		subi r18,-33
 475 0030 3F4F      		sbci r19,-1
 476               		.loc 2 311 20 view .LVU148
 477 0032 3783      		std Z+7,r19
 478 0034 2683      		std Z+6,r18
 312:funsape/device/hd44780.cpp ****     this->_dataPout = getGpioPortAddress(dataReg_p);
 479               		.loc 2 312 5 is_stmt 1 view .LVU149
 480               		.loc 2 312 23 is_stmt 0 view .LVU150
 481 0036 2F5F      		subi r18,-1
 482 0038 3F4F      		sbci r19,-1
 483               		.loc 2 312 21 view .LVU151
 484 003a 3187      		std Z+9,r19
 485 003c 2087      		std Z+8,r18
 313:funsape/device/hd44780.cpp ****     this->_dataPin = getGpioPinAddress(dataReg_p);
 486               		.loc 2 313 5 is_stmt 1 view .LVU152
 487               		.loc 2 313 22 is_stmt 0 view .LVU153
 488 003e 8096      		adiw r24,32
 489               		.loc 2 313 20 view .LVU154
 490 0040 9387      		std Z+11,r25
 491 0042 8287      		std Z+10,r24
 314:funsape/device/hd44780.cpp ****     this->_dataFirst = dataFirst_p;
 492               		.loc 2 314 5 is_stmt 1 view .LVU155
 493               		.loc 2 314 24 is_stmt 0 view .LVU156
 494 0044 4770      		andi r20,lo8(7)
 495               	.LVL16:
 496               		.loc 2 314 22 view .LVU157
 497 0046 8485      		ldd r24,Z+12
 498 0048 887F      		andi r24,lo8(-8)
 499 004a 842B      		or r24,r20
 500 004c 8487      		std Z+12,r24
 315:funsape/device/hd44780.cpp **** 
 316:funsape/device/hd44780.cpp ****     // Returns successfully
 317:funsape/device/hd44780.cpp ****     this->_lastError = Error::NONE;
 501               		.loc 2 317 5 is_stmt 1 view .LVU158
 502               		.loc 2 317 22 is_stmt 0 view .LVU159
 503 004e 118A      		std Z+17,__zero_reg__
 504 0050 108A      		std Z+16,__zero_reg__
 318:funsape/device/hd44780.cpp ****     debugMessage(Error::NONE, DEBUG_HD44780);
 505               		.loc 2 318 5 is_stmt 1 view .LVU160
 506               		.loc 2 318 45 view .LVU161
 319:funsape/device/hd44780.cpp ****     return true;
 507               		.loc 2 319 5 view .LVU162
 508               		.loc 2 319 12 is_stmt 0 view .LVU163
GAS LISTING C:\Users\kenne\AppData\Local\Temp\ccH82gYi.s 			page 30


 509 0052 81E0      		ldi r24,lo8(1)
 510               	/* epilogue start */
 320:funsape/device/hd44780.cpp **** }
 511               		.loc 2 320 1 view .LVU164
 512 0054 0895      		ret
 513               	.LVL17:
 514               	.L18:
 299:funsape/device/hd44780.cpp ****         debugMessage(Error::GPIO_PORT_INVALID, DEBUG_HD44780);
 515               		.loc 2 299 9 is_stmt 1 view .LVU165
 299:funsape/device/hd44780.cpp ****         debugMessage(Error::GPIO_PORT_INVALID, DEBUG_HD44780);
 516               		.loc 2 299 26 is_stmt 0 view .LVU166
 517 0056 83ED      		ldi r24,lo8(-45)
 518 0058 90E0      		ldi r25,0
 519 005a 918B      		std Z+17,r25
 520 005c 808B      		std Z+16,r24
 300:funsape/device/hd44780.cpp ****         return false;
 521               		.loc 2 300 9 is_stmt 1 view .LVU167
 300:funsape/device/hd44780.cpp ****         return false;
 522               		.loc 2 300 62 view .LVU168
 301:funsape/device/hd44780.cpp ****     }
 523               		.loc 2 301 9 view .LVU169
 301:funsape/device/hd44780.cpp ****     }
 524               		.loc 2 301 16 is_stmt 0 view .LVU170
 525 005e 80E0      		ldi r24,0
 526 0060 0895      		ret
 527               	.L19:
 305:funsape/device/hd44780.cpp ****         debugMessage(Error::GPIO_PIN_INDEX_OUT_OF_BOUNDARIES, DEBUG_HD44780);
 528               		.loc 2 305 9 is_stmt 1 view .LVU171
 305:funsape/device/hd44780.cpp ****         debugMessage(Error::GPIO_PIN_INDEX_OUT_OF_BOUNDARIES, DEBUG_HD44780);
 529               		.loc 2 305 26 is_stmt 0 view .LVU172
 530 0062 87ED      		ldi r24,lo8(-41)
 531 0064 90E0      		ldi r25,0
 532 0066 918B      		std Z+17,r25
 533 0068 808B      		std Z+16,r24
 306:funsape/device/hd44780.cpp ****         return false;
 534               		.loc 2 306 9 is_stmt 1 view .LVU173
 306:funsape/device/hd44780.cpp ****         return false;
 535               		.loc 2 306 77 view .LVU174
 307:funsape/device/hd44780.cpp ****     }
 536               		.loc 2 307 9 view .LVU175
 307:funsape/device/hd44780.cpp ****     }
 537               		.loc 2 307 16 is_stmt 0 view .LVU176
 538 006a 80E0      		ldi r24,0
 539 006c 0895      		ret
 540               		.cfi_endproc
 541               	.LFE41:
 543               		.section	.text._ZN7Hd447805stdioEv,"ax",@progbits
 544               	.global	_ZN7Hd447805stdioEv
 546               	_ZN7Hd447805stdioEv:
 547               	.LVL18:
 548               	.LFB51:
 321:funsape/device/hd44780.cpp **** 
 322:funsape/device/hd44780.cpp **** //     //////////////////////    COMMANDS     ///////////////////////     //
 323:funsape/device/hd44780.cpp **** 
 324:funsape/device/hd44780.cpp **** bool_t Hd44780::clearScreen(void)
 325:funsape/device/hd44780.cpp **** {
 326:funsape/device/hd44780.cpp ****     // Mark passage for debugging purpose
GAS LISTING C:\Users\kenne\AppData\Local\Temp\ccH82gYi.s 			page 31


 327:funsape/device/hd44780.cpp ****     debugMark("Hd44780::clearScreen(void)", DEBUG_HD44780);
 328:funsape/device/hd44780.cpp **** 
 329:funsape/device/hd44780.cpp ****     // Sends command
 330:funsape/device/hd44780.cpp ****     if(!this->_writeCommand(LCD_CLEAR_DISPLAY)) {
 331:funsape/device/hd44780.cpp ****         // Returns error
 332:funsape/device/hd44780.cpp ****         debugMessage(this->_lastError, DEBUG_HD44780);
 333:funsape/device/hd44780.cpp ****         return false;
 334:funsape/device/hd44780.cpp ****     }
 335:funsape/device/hd44780.cpp ****     this->_cursorLine = 0;
 336:funsape/device/hd44780.cpp ****     this->_cursorColumn = 0;
 337:funsape/device/hd44780.cpp **** 
 338:funsape/device/hd44780.cpp ****     // Returns successfully
 339:funsape/device/hd44780.cpp ****     this->_lastError = Error::NONE;
 340:funsape/device/hd44780.cpp ****     debugMessage(Error::NONE, DEBUG_HD44780);
 341:funsape/device/hd44780.cpp ****     return true;
 342:funsape/device/hd44780.cpp **** }
 343:funsape/device/hd44780.cpp **** 
 344:funsape/device/hd44780.cpp **** bool_t Hd44780::cursorGoTo(cuint8_t line_p, cuint8_t column_p)
 345:funsape/device/hd44780.cpp **** {
 346:funsape/device/hd44780.cpp ****     // Mark passage for debugging purpose
 347:funsape/device/hd44780.cpp ****     debugMark("Hd44780::cursorGoTo(cuint8_t, cuint8_t)", DEBUG_HD44780);
 348:funsape/device/hd44780.cpp **** 
 349:funsape/device/hd44780.cpp ****     // Local variables
 350:funsape/device/hd44780.cpp ****     uint8_t address = 0xFF;
 351:funsape/device/hd44780.cpp **** 
 352:funsape/device/hd44780.cpp ****     switch(line_p) {
 353:funsape/device/hd44780.cpp ****     case 0:     // Go to line 0
 354:funsape/device/hd44780.cpp ****         address = column_p;
 355:funsape/device/hd44780.cpp ****         break;
 356:funsape/device/hd44780.cpp ****     case 1:     // Go to line 1
 357:funsape/device/hd44780.cpp ****         address = (this->_lines >= 1) ? (0x40 + column_p) : 0xFF;
 358:funsape/device/hd44780.cpp ****         break;
 359:funsape/device/hd44780.cpp ****     case 2:     // Go to line 2
 360:funsape/device/hd44780.cpp ****         if((this->_lines == 3) && (this->_columns == 11)) {             // Display 12x4
 361:funsape/device/hd44780.cpp ****             address = 0x0C + column_p;
 362:funsape/device/hd44780.cpp ****         } else if((this->_lines == 3) && (this->_columns == 15)) {      // Display 16x4
 363:funsape/device/hd44780.cpp ****             address = 0x10 + column_p;
 364:funsape/device/hd44780.cpp ****         } else if((this->_lines == 3) && (this->_columns == 19)) {      // Display 20x4
 365:funsape/device/hd44780.cpp ****             address = 0x14 + column_p;
 366:funsape/device/hd44780.cpp ****         }
 367:funsape/device/hd44780.cpp ****         break;
 368:funsape/device/hd44780.cpp ****     case 3:     // Go to line 3
 369:funsape/device/hd44780.cpp ****         if((this->_lines == 3) && (this->_columns == 11)) {             // Display 12x4
 370:funsape/device/hd44780.cpp ****             address = 0x4C + column_p;
 371:funsape/device/hd44780.cpp ****         } else if((this->_lines == 3) && (this->_columns == 15)) {      // Display 16x4
 372:funsape/device/hd44780.cpp ****             address = 0x50 + column_p;
 373:funsape/device/hd44780.cpp ****         } else if((this->_lines == 3) && (this->_columns == 19)) {      // Display 20x4
 374:funsape/device/hd44780.cpp ****             address = 0x54 + column_p;
 375:funsape/device/hd44780.cpp ****         }
 376:funsape/device/hd44780.cpp ****         break;
 377:funsape/device/hd44780.cpp ****     }
 378:funsape/device/hd44780.cpp **** 
 379:funsape/device/hd44780.cpp ****     if(address != 0xFF) {
 380:funsape/device/hd44780.cpp ****         this->_cursorLine = line_p;
 381:funsape/device/hd44780.cpp ****         this->_cursorColumn = column_p;
 382:funsape/device/hd44780.cpp ****         this->_writeCommand((LCD_DDRAM_ADDRESS_SET | address));
 383:funsape/device/hd44780.cpp ****     }
GAS LISTING C:\Users\kenne\AppData\Local\Temp\ccH82gYi.s 			page 32


 384:funsape/device/hd44780.cpp **** 
 385:funsape/device/hd44780.cpp ****     // Returns successfully
 386:funsape/device/hd44780.cpp ****     this->_lastError = Error::NONE;
 387:funsape/device/hd44780.cpp ****     debugMessage(Error::NONE, DEBUG_HD44780);
 388:funsape/device/hd44780.cpp ****     return true;
 389:funsape/device/hd44780.cpp **** 
 390:funsape/device/hd44780.cpp **** }
 391:funsape/device/hd44780.cpp **** 
 392:funsape/device/hd44780.cpp **** bool_t Hd44780::cursorHome(void)
 393:funsape/device/hd44780.cpp **** {
 394:funsape/device/hd44780.cpp ****     // Mark passage for debugging purpose
 395:funsape/device/hd44780.cpp ****     debugMark("Hd44780::cursorHome(void)", DEBUG_HD44780);
 396:funsape/device/hd44780.cpp **** 
 397:funsape/device/hd44780.cpp ****     if(!this->_writeCommand(LCD_RETURN_HOME)) {
 398:funsape/device/hd44780.cpp ****         // Returns error
 399:funsape/device/hd44780.cpp ****         debugMessage(this->_lastError, DEBUG_HD44780);
 400:funsape/device/hd44780.cpp ****         return false;
 401:funsape/device/hd44780.cpp ****     }
 402:funsape/device/hd44780.cpp ****     this->_cursorLine = 0;
 403:funsape/device/hd44780.cpp ****     this->_cursorColumn = 0;
 404:funsape/device/hd44780.cpp **** 
 405:funsape/device/hd44780.cpp ****     // Returns successfully
 406:funsape/device/hd44780.cpp ****     this->_lastError = Error::NONE;
 407:funsape/device/hd44780.cpp ****     debugMessage(Error::NONE, DEBUG_HD44780);
 408:funsape/device/hd44780.cpp ****     return true;
 409:funsape/device/hd44780.cpp **** }
 410:funsape/device/hd44780.cpp **** 
 411:funsape/device/hd44780.cpp **** bool_t Hd44780::cursorMove(const Direction direction_p)
 412:funsape/device/hd44780.cpp **** {
 413:funsape/device/hd44780.cpp ****     // Mark passage for debugging purpose
 414:funsape/device/hd44780.cpp ****     debugMark("Hd44780::cursorMove(const Direction)", DEBUG_HD44780);
 415:funsape/device/hd44780.cpp **** 
 416:funsape/device/hd44780.cpp ****     // Local variables
 417:funsape/device/hd44780.cpp ****     uint8_t auxCommand = LCD_MOVE_CURSOR_OR_DISPLAY | LCD_MOVE_CURSOR_OR_DISPLAY_MOVE_CURSOR;
 418:funsape/device/hd44780.cpp **** 
 419:funsape/device/hd44780.cpp ****     auxCommand |= (direction_p == Direction::LEFT) ? LCD_MOVE_CURSOR_OR_DISPLAY_LEFT : LCD_MOVE_CUR
 420:funsape/device/hd44780.cpp ****     if(direction_p == Direction::LEFT) {
 421:funsape/device/hd44780.cpp ****         this->_cursorColumn--;
 422:funsape/device/hd44780.cpp ****     } else {
 423:funsape/device/hd44780.cpp ****         this->_cursorColumn++;
 424:funsape/device/hd44780.cpp ****     }
 425:funsape/device/hd44780.cpp ****     this->_writeCommand(auxCommand);
 426:funsape/device/hd44780.cpp **** 
 427:funsape/device/hd44780.cpp ****     // Returns successfully
 428:funsape/device/hd44780.cpp ****     this->_lastError = Error::NONE;
 429:funsape/device/hd44780.cpp ****     debugMessage(Error::NONE, DEBUG_HD44780);
 430:funsape/device/hd44780.cpp ****     return true;
 431:funsape/device/hd44780.cpp **** }
 432:funsape/device/hd44780.cpp **** 
 433:funsape/device/hd44780.cpp **** bool_t Hd44780::cursorMoveFirstLine(void)
 434:funsape/device/hd44780.cpp **** {
 435:funsape/device/hd44780.cpp ****     // Mark passage for debugging purpose
 436:funsape/device/hd44780.cpp ****     debugMark("Hd44780::cursorMoveFirstLine(void)", DEBUG_HD44780);
 437:funsape/device/hd44780.cpp **** 
 438:funsape/device/hd44780.cpp ****     if(!this->_writeCommand(LCD_RETURN_HOME)) {
 439:funsape/device/hd44780.cpp ****         // Returns error
 440:funsape/device/hd44780.cpp ****         debugMessage(this->_lastError, DEBUG_HD44780);
GAS LISTING C:\Users\kenne\AppData\Local\Temp\ccH82gYi.s 			page 33


 441:funsape/device/hd44780.cpp ****         return false;
 442:funsape/device/hd44780.cpp ****     }
 443:funsape/device/hd44780.cpp ****     this->_cursorLine = 0;
 444:funsape/device/hd44780.cpp ****     this->_cursorColumn = 0;
 445:funsape/device/hd44780.cpp **** 
 446:funsape/device/hd44780.cpp ****     // Returns successfully
 447:funsape/device/hd44780.cpp ****     this->_lastError = Error::NONE;
 448:funsape/device/hd44780.cpp ****     debugMessage(Error::NONE, DEBUG_HD44780);
 449:funsape/device/hd44780.cpp ****     return true;
 450:funsape/device/hd44780.cpp **** }
 451:funsape/device/hd44780.cpp **** 
 452:funsape/device/hd44780.cpp **** bool_t Hd44780::cursorMoveNextLine(void)
 453:funsape/device/hd44780.cpp **** {
 454:funsape/device/hd44780.cpp ****     // Mark passage for debugging purpose
 455:funsape/device/hd44780.cpp ****     debugMark("Hd44780::cursorMoveNextLine(void)", DEBUG_HD44780);
 456:funsape/device/hd44780.cpp **** 
 457:funsape/device/hd44780.cpp ****     // Local variables
 458:funsape/device/hd44780.cpp ****     uint8_t currentLine = (this->_cursorLine + 1);
 459:funsape/device/hd44780.cpp **** 
 460:funsape/device/hd44780.cpp ****     currentLine %= (this->_lines + 1);
 461:funsape/device/hd44780.cpp ****     if(!this->cursorGoTo(currentLine, 0)) {
 462:funsape/device/hd44780.cpp ****         // Returns error
 463:funsape/device/hd44780.cpp ****         debugMessage(this->_lastError, DEBUG_HD44780);
 464:funsape/device/hd44780.cpp ****         return false;
 465:funsape/device/hd44780.cpp ****     }
 466:funsape/device/hd44780.cpp ****     // Returns successfully
 467:funsape/device/hd44780.cpp ****     this->_lastError = Error::NONE;
 468:funsape/device/hd44780.cpp ****     debugMessage(Error::NONE, DEBUG_HD44780);
 469:funsape/device/hd44780.cpp ****     return true;
 470:funsape/device/hd44780.cpp **** }
 471:funsape/device/hd44780.cpp **** 
 472:funsape/device/hd44780.cpp **** bool_t Hd44780::displayStateSet(const DisplayState displayState_p)
 473:funsape/device/hd44780.cpp **** {
 474:funsape/device/hd44780.cpp ****     // Mark passage for debugging purpose
 475:funsape/device/hd44780.cpp ****     debugMark("Hd44780::displayStateSet(const DisplayState)", DEBUG_HD44780);
 476:funsape/device/hd44780.cpp **** 
 477:funsape/device/hd44780.cpp ****     // Local variables
 478:funsape/device/hd44780.cpp ****     uint8_t auxCommand = 0;
 479:funsape/device/hd44780.cpp ****     bool_t auxDisplayOn = false;
 480:funsape/device/hd44780.cpp ****     bool_t auxCursorOn = false;
 481:funsape/device/hd44780.cpp ****     bool_t auxBlinkOn = false;
 482:funsape/device/hd44780.cpp **** 
 483:funsape/device/hd44780.cpp ****     // Decodes display state
 484:funsape/device/hd44780.cpp ****     switch(displayState_p) {
 485:funsape/device/hd44780.cpp ****     case DisplayState::BLINK_ON:    auxDisplayOn = true;    auxCursorOn = true;     auxBlinkOn = tr
 486:funsape/device/hd44780.cpp ****     case DisplayState::CURSOR_ON:   auxDisplayOn = true;    auxCursorOn = true;     auxBlinkOn = fa
 487:funsape/device/hd44780.cpp ****     case DisplayState::CURSOR_OFF:  auxDisplayOn = true;    auxCursorOn = false;    auxBlinkOn = fa
 488:funsape/device/hd44780.cpp ****     case DisplayState::DISPLAY_OFF: auxDisplayOn = false;   auxCursorOn = false;    auxBlinkOn = fa
 489:funsape/device/hd44780.cpp ****     }
 490:funsape/device/hd44780.cpp **** 
 491:funsape/device/hd44780.cpp ****     // Creates command
 492:funsape/device/hd44780.cpp ****     auxCommand = LCD_DISPLAY_CONTROL;
 493:funsape/device/hd44780.cpp ****     auxCommand |= (auxDisplayOn) ? LCD_DISPLAY_CONTROL_DISPLAY_ON : LCD_DISPLAY_CONTROL_DISPLAY_OFF
 494:funsape/device/hd44780.cpp ****     auxCommand |= (auxCursorOn) ? LCD_DISPLAY_CONTROL_CURSOR_ON : LCD_DISPLAY_CONTROL_CURSOR_OFF;
 495:funsape/device/hd44780.cpp ****     auxCommand |= (auxBlinkOn) ? LCD_DISPLAY_CONTROL_CURSOR_BLINK_ON : LCD_DISPLAY_CONTROL_CURSOR_B
 496:funsape/device/hd44780.cpp ****     this->_writeCommand(auxCommand);
 497:funsape/device/hd44780.cpp **** 
GAS LISTING C:\Users\kenne\AppData\Local\Temp\ccH82gYi.s 			page 34


 498:funsape/device/hd44780.cpp ****     // Updates data members
 499:funsape/device/hd44780.cpp ****     this->_cursorBlink = auxBlinkOn;
 500:funsape/device/hd44780.cpp ****     this->_cursorOn = auxCursorOn;
 501:funsape/device/hd44780.cpp ****     this->_displayOn = auxDisplayOn;
 502:funsape/device/hd44780.cpp **** 
 503:funsape/device/hd44780.cpp ****     // Returns successfully
 504:funsape/device/hd44780.cpp ****     this->_lastError = Error::NONE;
 505:funsape/device/hd44780.cpp ****     debugMessage(Error::NONE, DEBUG_HD44780);
 506:funsape/device/hd44780.cpp ****     return true;
 507:funsape/device/hd44780.cpp **** }
 508:funsape/device/hd44780.cpp **** 
 509:funsape/device/hd44780.cpp **** bool_t Hd44780::displayShift(const Direction direction_p)
 510:funsape/device/hd44780.cpp **** {
 511:funsape/device/hd44780.cpp ****     // Mark passage for debugging purpose
 512:funsape/device/hd44780.cpp ****     debugMark("Hd44780::displayShift(const Direction)", DEBUG_HD44780);
 513:funsape/device/hd44780.cpp **** 
 514:funsape/device/hd44780.cpp ****     // Local variables
 515:funsape/device/hd44780.cpp ****     uint8_t auxCommand = LCD_MOVE_CURSOR_OR_DISPLAY | LCD_MOVE_CURSOR_OR_DISPLAY_SHIFT_DISPLAY;
 516:funsape/device/hd44780.cpp **** 
 517:funsape/device/hd44780.cpp ****     auxCommand |= (direction_p == Direction::LEFT) ? LCD_MOVE_CURSOR_OR_DISPLAY_LEFT : LCD_MOVE_CUR
 518:funsape/device/hd44780.cpp ****     if(direction_p == Direction::LEFT) {
 519:funsape/device/hd44780.cpp ****         this->_cursorColumn--;
 520:funsape/device/hd44780.cpp ****     } else {
 521:funsape/device/hd44780.cpp ****         this->_cursorColumn++;
 522:funsape/device/hd44780.cpp ****     }
 523:funsape/device/hd44780.cpp ****     this->_writeCommand(auxCommand);
 524:funsape/device/hd44780.cpp **** 
 525:funsape/device/hd44780.cpp ****     // Returns successfully
 526:funsape/device/hd44780.cpp ****     this->_lastError = Error::NONE;
 527:funsape/device/hd44780.cpp ****     debugMessage(Error::NONE, DEBUG_HD44780);
 528:funsape/device/hd44780.cpp ****     return true;
 529:funsape/device/hd44780.cpp **** }
 530:funsape/device/hd44780.cpp **** 
 531:funsape/device/hd44780.cpp **** bool_t Hd44780::entryModeSet(const Step incDec_p, const DisplayMode mode_p)
 532:funsape/device/hd44780.cpp **** {
 533:funsape/device/hd44780.cpp ****     // Mark passage for debugging purpose
 534:funsape/device/hd44780.cpp ****     debugMark("Hd44780::entryModeSet(const Step, const DisplayMode)", DEBUG_HD44780);
 535:funsape/device/hd44780.cpp **** 
 536:funsape/device/hd44780.cpp ****     // Local variables
 537:funsape/device/hd44780.cpp ****     uint8_t auxCommand = LCD_ENTRY_MODE_SET;
 538:funsape/device/hd44780.cpp **** 
 539:funsape/device/hd44780.cpp ****     auxCommand |= (this->_entryIncDec == Step::INCREMENT) ? LCD_ENTRY_MODE_SET_INCREMENT : LCD_ENTR
 540:funsape/device/hd44780.cpp ****     auxCommand |= (this->_entryShiftDisplay == DisplayMode::SHIFT) ? LCD_ENTRY_MODE_SET_SHIFT :
 541:funsape/device/hd44780.cpp ****             LCD_ENTRY_MODE_SET_OVERWRITE;
 542:funsape/device/hd44780.cpp ****     this->_writeCommand(auxCommand);
 543:funsape/device/hd44780.cpp **** 
 544:funsape/device/hd44780.cpp ****     this->_entryIncDec = incDec_p;
 545:funsape/device/hd44780.cpp ****     this->_entryShiftDisplay = mode_p;
 546:funsape/device/hd44780.cpp **** 
 547:funsape/device/hd44780.cpp ****     // Returns successfully
 548:funsape/device/hd44780.cpp ****     this->_lastError = Error::NONE;
 549:funsape/device/hd44780.cpp ****     debugMessage(Error::NONE, DEBUG_HD44780);
 550:funsape/device/hd44780.cpp ****     return true;
 551:funsape/device/hd44780.cpp **** }
 552:funsape/device/hd44780.cpp **** 
 553:funsape/device/hd44780.cpp **** bool_t Hd44780::stdio(void)
 554:funsape/device/hd44780.cpp **** {
GAS LISTING C:\Users\kenne\AppData\Local\Temp\ccH82gYi.s 			page 35


 549               		.loc 2 554 1 is_stmt 1 view -0
 550               		.cfi_startproc
 551               	/* prologue: function */
 552               	/* frame size = 0 */
 553               	/* stack size = 0 */
 554               	.L__stack_usage = 0
 555               		.loc 2 554 1 is_stmt 0 view .LVU178
 556 0000 E82F      		mov r30,r24
 557 0002 F92F      		mov r31,r25
 555:funsape/device/hd44780.cpp ****     // Mark passage for debugging purpose
 556:funsape/device/hd44780.cpp ****     debugMark("Hd44780::init(Size, Font, bool_t, bool_t)", DEBUG_HD44780);
 558               		.loc 2 556 5 is_stmt 1 view .LVU179
 559               		.loc 2 556 74 view .LVU180
 557:funsape/device/hd44780.cpp **** 
 558:funsape/device/hd44780.cpp ****     stdin = stdout = stderr = &lcdStream;
 560               		.loc 2 558 5 view .LVU181
 561               		.loc 2 558 29 is_stmt 0 view .LVU182
 562 0004 A0E0      		ldi r26,lo8(__iob)
 563 0006 B0E0      		ldi r27,hi8(__iob)
 564 0008 80E0      		ldi r24,lo8(lcdStream)
 565 000a 90E0      		ldi r25,hi8(lcdStream)
 566               	.LVL19:
 567               		.loc 2 558 29 view .LVU183
 568 000c 1596      		adiw r26,4+1
 569 000e 9C93      		st X,r25
 570 0010 8E93      		st -X,r24
 571 0012 1497      		sbiw r26,4
 572               		.loc 2 558 20 view .LVU184
 573 0014 1396      		adiw r26,2+1
 574 0016 9C93      		st X,r25
 575 0018 8E93      		st -X,r24
 576 001a 1297      		sbiw r26,2
 577               		.loc 2 558 11 view .LVU185
 578 001c 8D93      		st X+,r24
 579 001e 9C93      		st X,r25
 559:funsape/device/hd44780.cpp ****     defaultDisplay = this;
 580               		.loc 2 559 5 is_stmt 1 view .LVU186
 581               		.loc 2 559 20 is_stmt 0 view .LVU187
 582 0020 F093 0000 		sts defaultDisplay+1,r31
 583 0024 E093 0000 		sts defaultDisplay,r30
 560:funsape/device/hd44780.cpp **** 
 561:funsape/device/hd44780.cpp ****     // Returns successfully
 562:funsape/device/hd44780.cpp ****     this->_lastError = Error::NONE;
 584               		.loc 2 562 5 is_stmt 1 view .LVU188
 585               		.loc 2 562 22 is_stmt 0 view .LVU189
 586 0028 118A      		std Z+17,__zero_reg__
 587 002a 108A      		std Z+16,__zero_reg__
 563:funsape/device/hd44780.cpp ****     debugMessage(Error::NONE, DEBUG_HD44780);
 588               		.loc 2 563 5 is_stmt 1 view .LVU190
 589               		.loc 2 563 45 view .LVU191
 564:funsape/device/hd44780.cpp ****     return true;
 590               		.loc 2 564 5 view .LVU192
 565:funsape/device/hd44780.cpp **** 
 566:funsape/device/hd44780.cpp **** }
 591               		.loc 2 566 1 is_stmt 0 view .LVU193
 592 002c 81E0      		ldi r24,lo8(1)
 593               	/* epilogue start */
GAS LISTING C:\Users\kenne\AppData\Local\Temp\ccH82gYi.s 			page 36


 594 002e 0895      		ret
 595               		.cfi_endproc
 596               	.LFE51:
 598               		.section	.text._ZN7Hd4478012getLastErrorEv,"ax",@progbits
 599               	.global	_ZN7Hd4478012getLastErrorEv
 601               	_ZN7Hd4478012getLastErrorEv:
 602               	.LVL20:
 603               	.LFB53:
 567:funsape/device/hd44780.cpp **** 
 568:funsape/device/hd44780.cpp **** bool_t Hd44780::customCharacterSet(cuint8_t charAddress_p, cuint8_t *charData_p)
 569:funsape/device/hd44780.cpp **** {
 570:funsape/device/hd44780.cpp ****     // Mark passage for debugging purpose
 571:funsape/device/hd44780.cpp ****     debugMark("Hd44780::customCharacterSet(cuint8_t, cuint8_t *)", DEBUG_HD44780);
 572:funsape/device/hd44780.cpp **** 
 573:funsape/device/hd44780.cpp ****     if(this->_font == Font::FONT_5X8) {
 574:funsape/device/hd44780.cpp ****         if(charAddress_p > 7) {
 575:funsape/device/hd44780.cpp ****             return false;
 576:funsape/device/hd44780.cpp ****         }
 577:funsape/device/hd44780.cpp ****         this->_writeCommand(LCD_CGRAM_ADDRESS_SET | (charAddress_p * 8));
 578:funsape/device/hd44780.cpp ****         for(uint8_t i = 0; i < 8; i++) {
 579:funsape/device/hd44780.cpp ****             this->_writeCharacter(charData_p[i], false);
 580:funsape/device/hd44780.cpp ****         }
 581:funsape/device/hd44780.cpp ****     } else {
 582:funsape/device/hd44780.cpp ****         if(charAddress_p > 3) {
 583:funsape/device/hd44780.cpp ****             return false;
 584:funsape/device/hd44780.cpp ****         }
 585:funsape/device/hd44780.cpp ****         this->_writeCommand(LCD_CGRAM_ADDRESS_SET | (charAddress_p * 10));
 586:funsape/device/hd44780.cpp ****         for(uint8_t i = 0; i < 10; i++) {
 587:funsape/device/hd44780.cpp ****             this->_writeCharacter(charData_p[i], false);
 588:funsape/device/hd44780.cpp ****         }
 589:funsape/device/hd44780.cpp ****     }
 590:funsape/device/hd44780.cpp **** 
 591:funsape/device/hd44780.cpp ****     // Returns successfully
 592:funsape/device/hd44780.cpp ****     this->_lastError = Error::NONE;
 593:funsape/device/hd44780.cpp ****     debugMessage(Error::NONE, DEBUG_HD44780);
 594:funsape/device/hd44780.cpp ****     return true;
 595:funsape/device/hd44780.cpp **** }
 596:funsape/device/hd44780.cpp **** 
 597:funsape/device/hd44780.cpp **** Error Hd44780::getLastError(void)
 598:funsape/device/hd44780.cpp **** {
 604               		.loc 2 598 1 is_stmt 1 view -0
 605               		.cfi_startproc
 606               	/* prologue: function */
 607               	/* frame size = 0 */
 608               	/* stack size = 0 */
 609               	.L__stack_usage = 0
 599:funsape/device/hd44780.cpp ****     // Returns error
 600:funsape/device/hd44780.cpp ****     return this->_lastError;
 610               		.loc 2 600 5 view .LVU195
 601:funsape/device/hd44780.cpp **** }
 611               		.loc 2 601 1 is_stmt 0 view .LVU196
 612 0000 FC01      		movw r30,r24
 613 0002 8089      		ldd r24,Z+16
 614 0004 9189      		ldd r25,Z+17
 615               	.LVL21:
 616               	/* epilogue start */
 617               		.loc 2 601 1 view .LVU197
GAS LISTING C:\Users\kenne\AppData\Local\Temp\ccH82gYi.s 			page 37


 618 0006 0895      		ret
 619               		.cfi_endproc
 620               	.LFE53:
 622               		.section	.text._ZN7Hd4478017_functionSet8BitsEh,"ax",@progbits
 623               	.global	_ZN7Hd4478017_functionSet8BitsEh
 625               	_ZN7Hd4478017_functionSet8BitsEh:
 626               	.LVL22:
 627               	.LFB54:
 602:funsape/device/hd44780.cpp **** 
 603:funsape/device/hd44780.cpp **** // =============================================================================
 604:funsape/device/hd44780.cpp **** // Class private methods
 605:funsape/device/hd44780.cpp **** // =============================================================================
 606:funsape/device/hd44780.cpp **** 
 607:funsape/device/hd44780.cpp **** bool_t Hd44780::_functionSet8Bits(uint8_t command_p)
 608:funsape/device/hd44780.cpp **** {
 628               		.loc 2 608 1 is_stmt 1 view -0
 629               		.cfi_startproc
 630               		.loc 2 608 1 is_stmt 0 view .LVU199
 631 0000 CF93      		push r28
 632               		.cfi_def_cfa_offset 3
 633               		.cfi_offset 28, -2
 634 0002 DF93      		push r29
 635               		.cfi_def_cfa_offset 4
 636               		.cfi_offset 29, -3
 637               	/* prologue: function */
 638               	/* frame size = 0 */
 639               	/* stack size = 2 */
 640               	.L__stack_usage = 2
 641 0004 E82F      		mov r30,r24
 642 0006 F92F      		mov r31,r25
 609:funsape/device/hd44780.cpp ****     if(this->_useBusyFlag) {
 643               		.loc 2 609 5 is_stmt 1 view .LVU200
 644               		.loc 2 609 14 is_stmt 0 view .LVU201
 645 0008 8485      		ldd r24,Z+12
 646               	.LVL23:
 647               		.loc 2 609 5 view .LVU202
 648 000a 84FF      		sbrs r24,4
 649 000c 00C0      		rjmp .L23
 610:funsape/device/hd44780.cpp ****         clrBit(*(this->_controlPout), this->_controlRw);    // LCD in write mode
 650               		.loc 2 610 9 is_stmt 1 view .LVU203
 651 000e A281      		ldd r26,Z+2
 652 0010 B381      		ldd r27,Z+3
 653 0012 3C91      		ld r19,X
 654 0014 8481      		ldd r24,Z+4
 655 0016 8295      		swap r24
 656 0018 8695      		lsr r24
 657 001a 8695      		lsr r24
 658 001c 8370      		andi r24,lo8(3)
 659 001e 2581      		ldd r18,Z+5
 660 0020 2170      		andi r18,lo8(1)
 661 0022 220F      		lsl r18
 662 0024 220F      		lsl r18
 663 0026 282B      		or r18,r24
 664 0028 81E0      		ldi r24,lo8(1)
 665 002a 90E0      		ldi r25,0
 666 002c 00C0      		rjmp 2f
 667               		1:
GAS LISTING C:\Users\kenne\AppData\Local\Temp\ccH82gYi.s 			page 38


 668 002e 880F      		lsl r24
 669 0030 991F      		rol r25
 670               		2:
 671 0032 2A95      		dec r18
 672 0034 02F4      		brpl 1b
 673 0036 8095      		com r24
 674 0038 8323      		and r24,r19
 675 003a 8C93      		st X,r24
 676               	.L23:
 611:funsape/device/hd44780.cpp ****     }
 612:funsape/device/hd44780.cpp ****     clrBit(*(this->_controlPout), this->_controlRs);        // LCD in command mode
 677               		.loc 2 612 5 view .LVU204
 678 003c A281      		ldd r26,Z+2
 679 003e B381      		ldd r27,Z+3
 680 0040 4C91      		ld r20,X
 681 0042 8481      		ldd r24,Z+4
 682 0044 8695      		lsr r24
 683 0046 8695      		lsr r24
 684 0048 8695      		lsr r24
 685 004a 8770      		andi r24,lo8(7)
 686 004c 21E0      		ldi r18,lo8(1)
 687 004e 30E0      		ldi r19,0
 688 0050 E901      		movw r28,r18
 689 0052 00C0      		rjmp 2f
 690               		1:
 691 0054 CC0F      		lsl r28
 692 0056 DD1F      		rol r29
 693               		2:
 694 0058 8A95      		dec r24
 695 005a 02F4      		brpl 1b
 696 005c CE01      		movw r24,r28
 697 005e 8095      		com r24
 698 0060 8423      		and r24,r20
 699 0062 8C93      		st X,r24
 613:funsape/device/hd44780.cpp ****     clrBit(*(this->_controlPout), this->_controlE);         // Makes sure enable is LOW
 700               		.loc 2 613 5 view .LVU205
 701 0064 A281      		ldd r26,Z+2
 702 0066 B381      		ldd r27,Z+3
 703 0068 4C91      		ld r20,X
 704 006a 8481      		ldd r24,Z+4
 705 006c 8770      		andi r24,lo8(7)
 706 006e E901      		movw r28,r18
 707 0070 00C0      		rjmp 2f
 708               		1:
 709 0072 CC0F      		lsl r28
 710 0074 DD1F      		rol r29
 711               		2:
 712 0076 8A95      		dec r24
 713 0078 02F4      		brpl 1b
 714 007a CE01      		movw r24,r28
 715 007c 8095      		com r24
 716 007e 8423      		and r24,r20
 717 0080 8C93      		st X,r24
 614:funsape/device/hd44780.cpp ****     clrMaskOffset(*(this->_dataPout), 0x0F, this->_dataFirst);  // Writes data
 718               		.loc 2 614 5 view .LVU206
 719 0082 A085      		ldd r26,Z+8
 720 0084 B185      		ldd r27,Z+9
GAS LISTING C:\Users\kenne\AppData\Local\Temp\ccH82gYi.s 			page 39


 721 0086 5C91      		ld r21,X
 722 0088 4485      		ldd r20,Z+12
 723 008a 4770      		andi r20,lo8(7)
 724 008c 8FE0      		ldi r24,lo8(15)
 725 008e 90E0      		ldi r25,0
 726 0090 00C0      		rjmp 2f
 727               		1:
 728 0092 880F      		lsl r24
 729 0094 991F      		rol r25
 730               		2:
 731 0096 4A95      		dec r20
 732 0098 02F4      		brpl 1b
 733 009a 8095      		com r24
 734 009c 8523      		and r24,r21
 735 009e 8C93      		st X,r24
 615:funsape/device/hd44780.cpp ****     *(this->_dataPout) |= ((command_p >> 4) << this->_dataFirst);
 736               		.loc 2 615 5 view .LVU207
 737               		.loc 2 615 13 is_stmt 0 view .LVU208
 738 00a0 A085      		ldd r26,Z+8
 739 00a2 B185      		ldd r27,Z+9
 740               		.loc 2 615 5 view .LVU209
 741 00a4 8C91      		ld r24,X
 742               		.loc 2 615 39 view .LVU210
 743 00a6 6295      		swap r22
 744               	.LVL24:
 745               		.loc 2 615 39 view .LVU211
 746 00a8 6F70      		andi r22,lo8(15)
 747 00aa 70E0      		ldi r23,0
 748               		.loc 2 615 54 view .LVU212
 749 00ac 9485      		ldd r25,Z+12
 750 00ae 9770      		andi r25,lo8(7)
 751               		.loc 2 615 45 view .LVU213
 752 00b0 00C0      		rjmp 2f
 753               		1:
 754 00b2 660F      		lsl r22
 755 00b4 771F      		rol r23
 756               		2:
 757 00b6 9A95      		dec r25
 758 00b8 02F4      		brpl 1b
 759               		.loc 2 615 24 view .LVU214
 760 00ba 862B      		or r24,r22
 761 00bc 8C93      		st X,r24
 616:funsape/device/hd44780.cpp ****     setBit(*(this->_controlPout), this->_controlE);         // Enable pulse start
 762               		.loc 2 616 5 is_stmt 1 view .LVU215
 763 00be A281      		ldd r26,Z+2
 764 00c0 B381      		ldd r27,Z+3
 765 00c2 4C91      		ld r20,X
 766 00c4 8481      		ldd r24,Z+4
 767 00c6 8770      		andi r24,lo8(7)
 768 00c8 B901      		movw r22,r18
 769 00ca 00C0      		rjmp 2f
 770               		1:
 771 00cc 660F      		lsl r22
 772 00ce 771F      		rol r23
 773               		2:
 774 00d0 8A95      		dec r24
 775 00d2 02F4      		brpl 1b
GAS LISTING C:\Users\kenne\AppData\Local\Temp\ccH82gYi.s 			page 40


 776 00d4 CB01      		movw r24,r22
 777 00d6 842B      		or r24,r20
 778 00d8 8C93      		st X,r24
 617:funsape/device/hd44780.cpp ****     delayUs(1);
 779               		.loc 2 617 5 view .LVU216
 780               	.LVL25:
 781               	.LBB51:
 782               	.LBI51:
 783               		.file 3 "c:\\d\\ifsc\\vscodeleandro\\ex\\toolchains\\avr-gcc\\avr\\include\\util\\delay.h"
   1:c:\d\ifsc\vscodeleandro\ex\toolchains\avr-gcc\avr\include\util\delay.h **** /* Copyright (c) 2002, Marek Michalkiewicz
   2:c:\d\ifsc\vscodeleandro\ex\toolchains\avr-gcc\avr\include\util\delay.h ****    Copyright (c) 2004,2005,2007 Joerg Wunsch
   3:c:\d\ifsc\vscodeleandro\ex\toolchains\avr-gcc\avr\include\util\delay.h ****    Copyright (c) 2007  Florin-Viorel Petrov
   4:c:\d\ifsc\vscodeleandro\ex\toolchains\avr-gcc\avr\include\util\delay.h ****    All rights reserved.
   5:c:\d\ifsc\vscodeleandro\ex\toolchains\avr-gcc\avr\include\util\delay.h **** 
   6:c:\d\ifsc\vscodeleandro\ex\toolchains\avr-gcc\avr\include\util\delay.h ****    Redistribution and use in source and binary forms, with or without
   7:c:\d\ifsc\vscodeleandro\ex\toolchains\avr-gcc\avr\include\util\delay.h ****    modification, are permitted provided that the following conditions are met:
   8:c:\d\ifsc\vscodeleandro\ex\toolchains\avr-gcc\avr\include\util\delay.h **** 
   9:c:\d\ifsc\vscodeleandro\ex\toolchains\avr-gcc\avr\include\util\delay.h ****    * Redistributions of source code must retain the above copyright
  10:c:\d\ifsc\vscodeleandro\ex\toolchains\avr-gcc\avr\include\util\delay.h ****      notice, this list of conditions and the following disclaimer.
  11:c:\d\ifsc\vscodeleandro\ex\toolchains\avr-gcc\avr\include\util\delay.h **** 
  12:c:\d\ifsc\vscodeleandro\ex\toolchains\avr-gcc\avr\include\util\delay.h ****    * Redistributions in binary form must reproduce the above copyright
  13:c:\d\ifsc\vscodeleandro\ex\toolchains\avr-gcc\avr\include\util\delay.h ****      notice, this list of conditions and the following disclaimer in
  14:c:\d\ifsc\vscodeleandro\ex\toolchains\avr-gcc\avr\include\util\delay.h ****      the documentation and/or other materials provided with the
  15:c:\d\ifsc\vscodeleandro\ex\toolchains\avr-gcc\avr\include\util\delay.h ****      distribution.
  16:c:\d\ifsc\vscodeleandro\ex\toolchains\avr-gcc\avr\include\util\delay.h **** 
  17:c:\d\ifsc\vscodeleandro\ex\toolchains\avr-gcc\avr\include\util\delay.h ****    * Neither the name of the copyright holders nor the names of
  18:c:\d\ifsc\vscodeleandro\ex\toolchains\avr-gcc\avr\include\util\delay.h ****      contributors may be used to endorse or promote products derived
  19:c:\d\ifsc\vscodeleandro\ex\toolchains\avr-gcc\avr\include\util\delay.h ****      from this software without specific prior written permission.
  20:c:\d\ifsc\vscodeleandro\ex\toolchains\avr-gcc\avr\include\util\delay.h **** 
  21:c:\d\ifsc\vscodeleandro\ex\toolchains\avr-gcc\avr\include\util\delay.h ****   THIS SOFTWARE IS PROVIDED BY THE COPYRIGHT HOLDERS AND CONTRIBUTORS "AS IS"
  22:c:\d\ifsc\vscodeleandro\ex\toolchains\avr-gcc\avr\include\util\delay.h ****   AND ANY EXPRESS OR IMPLIED WARRANTIES, INCLUDING, BUT NOT LIMITED TO, THE
  23:c:\d\ifsc\vscodeleandro\ex\toolchains\avr-gcc\avr\include\util\delay.h ****   IMPLIED WARRANTIES OF MERCHANTABILITY AND FITNESS FOR A PARTICULAR PURPOSE
  24:c:\d\ifsc\vscodeleandro\ex\toolchains\avr-gcc\avr\include\util\delay.h ****   ARE DISCLAIMED. IN NO EVENT SHALL THE COPYRIGHT OWNER OR CONTRIBUTORS BE
  25:c:\d\ifsc\vscodeleandro\ex\toolchains\avr-gcc\avr\include\util\delay.h ****   LIABLE FOR ANY DIRECT, INDIRECT, INCIDENTAL, SPECIAL, EXEMPLARY, OR
  26:c:\d\ifsc\vscodeleandro\ex\toolchains\avr-gcc\avr\include\util\delay.h ****   CONSEQUENTIAL DAMAGES (INCLUDING, BUT NOT LIMITED TO, PROCUREMENT OF
  27:c:\d\ifsc\vscodeleandro\ex\toolchains\avr-gcc\avr\include\util\delay.h ****   SUBSTITUTE GOODS OR SERVICES; LOSS OF USE, DATA, OR PROFITS; OR BUSINESS
  28:c:\d\ifsc\vscodeleandro\ex\toolchains\avr-gcc\avr\include\util\delay.h ****   INTERRUPTION) HOWEVER CAUSED AND ON ANY THEORY OF LIABILITY, WHETHER IN
  29:c:\d\ifsc\vscodeleandro\ex\toolchains\avr-gcc\avr\include\util\delay.h ****   CONTRACT, STRICT LIABILITY, OR TORT (INCLUDING NEGLIGENCE OR OTHERWISE)
  30:c:\d\ifsc\vscodeleandro\ex\toolchains\avr-gcc\avr\include\util\delay.h ****   ARISING IN ANY WAY OUT OF THE USE OF THIS SOFTWARE, EVEN IF ADVISED OF THE
  31:c:\d\ifsc\vscodeleandro\ex\toolchains\avr-gcc\avr\include\util\delay.h ****   POSSIBILITY OF SUCH DAMAGE. */
  32:c:\d\ifsc\vscodeleandro\ex\toolchains\avr-gcc\avr\include\util\delay.h **** 
  33:c:\d\ifsc\vscodeleandro\ex\toolchains\avr-gcc\avr\include\util\delay.h **** /* $Id$ */
  34:c:\d\ifsc\vscodeleandro\ex\toolchains\avr-gcc\avr\include\util\delay.h **** 
  35:c:\d\ifsc\vscodeleandro\ex\toolchains\avr-gcc\avr\include\util\delay.h **** #ifndef _UTIL_DELAY_H_
  36:c:\d\ifsc\vscodeleandro\ex\toolchains\avr-gcc\avr\include\util\delay.h **** #define _UTIL_DELAY_H_ 1
  37:c:\d\ifsc\vscodeleandro\ex\toolchains\avr-gcc\avr\include\util\delay.h **** 
  38:c:\d\ifsc\vscodeleandro\ex\toolchains\avr-gcc\avr\include\util\delay.h **** #ifndef __DOXYGEN__
  39:c:\d\ifsc\vscodeleandro\ex\toolchains\avr-gcc\avr\include\util\delay.h **** #  ifndef __HAS_DELAY_CYCLES
  40:c:\d\ifsc\vscodeleandro\ex\toolchains\avr-gcc\avr\include\util\delay.h **** #    define __HAS_DELAY_CYCLES 1
  41:c:\d\ifsc\vscodeleandro\ex\toolchains\avr-gcc\avr\include\util\delay.h **** #  endif
  42:c:\d\ifsc\vscodeleandro\ex\toolchains\avr-gcc\avr\include\util\delay.h **** #endif  /* __DOXYGEN__ */
  43:c:\d\ifsc\vscodeleandro\ex\toolchains\avr-gcc\avr\include\util\delay.h **** 
  44:c:\d\ifsc\vscodeleandro\ex\toolchains\avr-gcc\avr\include\util\delay.h **** #include <inttypes.h>
  45:c:\d\ifsc\vscodeleandro\ex\toolchains\avr-gcc\avr\include\util\delay.h **** #include <util/delay_basic.h>
  46:c:\d\ifsc\vscodeleandro\ex\toolchains\avr-gcc\avr\include\util\delay.h **** #include <math.h>
  47:c:\d\ifsc\vscodeleandro\ex\toolchains\avr-gcc\avr\include\util\delay.h **** 
  48:c:\d\ifsc\vscodeleandro\ex\toolchains\avr-gcc\avr\include\util\delay.h **** /** \file */
GAS LISTING C:\Users\kenne\AppData\Local\Temp\ccH82gYi.s 			page 41


  49:c:\d\ifsc\vscodeleandro\ex\toolchains\avr-gcc\avr\include\util\delay.h **** /** \defgroup util_delay <util/delay.h>: Convenience functions for busy-wait delay loops
  50:c:\d\ifsc\vscodeleandro\ex\toolchains\avr-gcc\avr\include\util\delay.h ****     \code
  51:c:\d\ifsc\vscodeleandro\ex\toolchains\avr-gcc\avr\include\util\delay.h ****     #define F_CPU 1000000UL  // 1 MHz
  52:c:\d\ifsc\vscodeleandro\ex\toolchains\avr-gcc\avr\include\util\delay.h ****     //#define F_CPU 14.7456E6
  53:c:\d\ifsc\vscodeleandro\ex\toolchains\avr-gcc\avr\include\util\delay.h ****     #include <util/delay.h>
  54:c:\d\ifsc\vscodeleandro\ex\toolchains\avr-gcc\avr\include\util\delay.h ****     \endcode
  55:c:\d\ifsc\vscodeleandro\ex\toolchains\avr-gcc\avr\include\util\delay.h **** 
  56:c:\d\ifsc\vscodeleandro\ex\toolchains\avr-gcc\avr\include\util\delay.h ****     \note As an alternative method, it is possible to pass the
  57:c:\d\ifsc\vscodeleandro\ex\toolchains\avr-gcc\avr\include\util\delay.h ****     F_CPU macro down to the compiler from the Makefile.
  58:c:\d\ifsc\vscodeleandro\ex\toolchains\avr-gcc\avr\include\util\delay.h ****     Obviously, in that case, no \c \#define statement should be
  59:c:\d\ifsc\vscodeleandro\ex\toolchains\avr-gcc\avr\include\util\delay.h ****     used.
  60:c:\d\ifsc\vscodeleandro\ex\toolchains\avr-gcc\avr\include\util\delay.h **** 
  61:c:\d\ifsc\vscodeleandro\ex\toolchains\avr-gcc\avr\include\util\delay.h ****     The functions in this header file are wrappers around the basic
  62:c:\d\ifsc\vscodeleandro\ex\toolchains\avr-gcc\avr\include\util\delay.h ****     busy-wait functions from <util/delay_basic.h>.  They are meant as
  63:c:\d\ifsc\vscodeleandro\ex\toolchains\avr-gcc\avr\include\util\delay.h ****     convenience functions where actual time values can be specified
  64:c:\d\ifsc\vscodeleandro\ex\toolchains\avr-gcc\avr\include\util\delay.h ****     rather than a number of cycles to wait for.  The idea behind is
  65:c:\d\ifsc\vscodeleandro\ex\toolchains\avr-gcc\avr\include\util\delay.h ****     that compile-time constant expressions will be eliminated by
  66:c:\d\ifsc\vscodeleandro\ex\toolchains\avr-gcc\avr\include\util\delay.h ****     compiler optimization so floating-point expressions can be used
  67:c:\d\ifsc\vscodeleandro\ex\toolchains\avr-gcc\avr\include\util\delay.h ****     to calculate the number of delay cycles needed based on the CPU
  68:c:\d\ifsc\vscodeleandro\ex\toolchains\avr-gcc\avr\include\util\delay.h ****     frequency passed by the macro F_CPU.
  69:c:\d\ifsc\vscodeleandro\ex\toolchains\avr-gcc\avr\include\util\delay.h **** 
  70:c:\d\ifsc\vscodeleandro\ex\toolchains\avr-gcc\avr\include\util\delay.h ****     \note In order for these functions to work as intended, compiler
  71:c:\d\ifsc\vscodeleandro\ex\toolchains\avr-gcc\avr\include\util\delay.h ****     optimizations <em>must</em> be enabled, and the delay time
  72:c:\d\ifsc\vscodeleandro\ex\toolchains\avr-gcc\avr\include\util\delay.h ****     <em>must</em> be an expression that is a known constant at
  73:c:\d\ifsc\vscodeleandro\ex\toolchains\avr-gcc\avr\include\util\delay.h ****     compile-time.  If these requirements are not met, the resulting
  74:c:\d\ifsc\vscodeleandro\ex\toolchains\avr-gcc\avr\include\util\delay.h ****     delay will be much longer (and basically unpredictable), and
  75:c:\d\ifsc\vscodeleandro\ex\toolchains\avr-gcc\avr\include\util\delay.h ****     applications that otherwise do not use floating-point calculations
  76:c:\d\ifsc\vscodeleandro\ex\toolchains\avr-gcc\avr\include\util\delay.h ****     will experience severe code bloat by the floating-point library
  77:c:\d\ifsc\vscodeleandro\ex\toolchains\avr-gcc\avr\include\util\delay.h ****     routines linked into the application.
  78:c:\d\ifsc\vscodeleandro\ex\toolchains\avr-gcc\avr\include\util\delay.h **** 
  79:c:\d\ifsc\vscodeleandro\ex\toolchains\avr-gcc\avr\include\util\delay.h ****     The functions available allow the specification of microsecond, and
  80:c:\d\ifsc\vscodeleandro\ex\toolchains\avr-gcc\avr\include\util\delay.h ****     millisecond delays directly, using the application-supplied macro
  81:c:\d\ifsc\vscodeleandro\ex\toolchains\avr-gcc\avr\include\util\delay.h ****     F_CPU as the CPU clock frequency (in Hertz).
  82:c:\d\ifsc\vscodeleandro\ex\toolchains\avr-gcc\avr\include\util\delay.h **** 
  83:c:\d\ifsc\vscodeleandro\ex\toolchains\avr-gcc\avr\include\util\delay.h **** */
  84:c:\d\ifsc\vscodeleandro\ex\toolchains\avr-gcc\avr\include\util\delay.h **** 
  85:c:\d\ifsc\vscodeleandro\ex\toolchains\avr-gcc\avr\include\util\delay.h **** #if !defined(__DOXYGEN__)
  86:c:\d\ifsc\vscodeleandro\ex\toolchains\avr-gcc\avr\include\util\delay.h **** static __inline__ void _delay_us(double __us) __attribute__((__always_inline__));
  87:c:\d\ifsc\vscodeleandro\ex\toolchains\avr-gcc\avr\include\util\delay.h **** static __inline__ void _delay_ms(double __ms) __attribute__((__always_inline__));
  88:c:\d\ifsc\vscodeleandro\ex\toolchains\avr-gcc\avr\include\util\delay.h **** #endif
  89:c:\d\ifsc\vscodeleandro\ex\toolchains\avr-gcc\avr\include\util\delay.h **** 
  90:c:\d\ifsc\vscodeleandro\ex\toolchains\avr-gcc\avr\include\util\delay.h **** #ifndef F_CPU
  91:c:\d\ifsc\vscodeleandro\ex\toolchains\avr-gcc\avr\include\util\delay.h **** /* prevent compiler error by supplying a default */
  92:c:\d\ifsc\vscodeleandro\ex\toolchains\avr-gcc\avr\include\util\delay.h **** # warning "F_CPU not defined for <util/delay.h>"
  93:c:\d\ifsc\vscodeleandro\ex\toolchains\avr-gcc\avr\include\util\delay.h **** /** \ingroup util_delay
  94:c:\d\ifsc\vscodeleandro\ex\toolchains\avr-gcc\avr\include\util\delay.h ****     \def F_CPU
  95:c:\d\ifsc\vscodeleandro\ex\toolchains\avr-gcc\avr\include\util\delay.h ****     \brief CPU frequency in Hz
  96:c:\d\ifsc\vscodeleandro\ex\toolchains\avr-gcc\avr\include\util\delay.h **** 
  97:c:\d\ifsc\vscodeleandro\ex\toolchains\avr-gcc\avr\include\util\delay.h ****     The macro F_CPU specifies the CPU frequency to be considered by
  98:c:\d\ifsc\vscodeleandro\ex\toolchains\avr-gcc\avr\include\util\delay.h ****     the delay macros.  This macro is normally supplied by the
  99:c:\d\ifsc\vscodeleandro\ex\toolchains\avr-gcc\avr\include\util\delay.h ****     environment (e.g. from within a project header, or the project's
 100:c:\d\ifsc\vscodeleandro\ex\toolchains\avr-gcc\avr\include\util\delay.h ****     Makefile).  The value 1 MHz here is only provided as a "vanilla"
 101:c:\d\ifsc\vscodeleandro\ex\toolchains\avr-gcc\avr\include\util\delay.h ****     fallback if no such user-provided definition could be found.
 102:c:\d\ifsc\vscodeleandro\ex\toolchains\avr-gcc\avr\include\util\delay.h **** 
 103:c:\d\ifsc\vscodeleandro\ex\toolchains\avr-gcc\avr\include\util\delay.h ****     In terms of the delay functions, the CPU frequency can be given as
 104:c:\d\ifsc\vscodeleandro\ex\toolchains\avr-gcc\avr\include\util\delay.h ****     a floating-point constant (e.g. 3.6864E6 for 3.6864 MHz).
 105:c:\d\ifsc\vscodeleandro\ex\toolchains\avr-gcc\avr\include\util\delay.h ****     However, the macros in <util/setbaud.h> require it to be an
GAS LISTING C:\Users\kenne\AppData\Local\Temp\ccH82gYi.s 			page 42


 106:c:\d\ifsc\vscodeleandro\ex\toolchains\avr-gcc\avr\include\util\delay.h ****     integer value.
 107:c:\d\ifsc\vscodeleandro\ex\toolchains\avr-gcc\avr\include\util\delay.h ****  */
 108:c:\d\ifsc\vscodeleandro\ex\toolchains\avr-gcc\avr\include\util\delay.h **** # define F_CPU 1000000UL
 109:c:\d\ifsc\vscodeleandro\ex\toolchains\avr-gcc\avr\include\util\delay.h **** #endif
 110:c:\d\ifsc\vscodeleandro\ex\toolchains\avr-gcc\avr\include\util\delay.h **** 
 111:c:\d\ifsc\vscodeleandro\ex\toolchains\avr-gcc\avr\include\util\delay.h **** #ifndef __OPTIMIZE__
 112:c:\d\ifsc\vscodeleandro\ex\toolchains\avr-gcc\avr\include\util\delay.h **** # warning "Compiler optimizations disabled; functions from <util/delay.h> won't work as designed"
 113:c:\d\ifsc\vscodeleandro\ex\toolchains\avr-gcc\avr\include\util\delay.h **** #endif
 114:c:\d\ifsc\vscodeleandro\ex\toolchains\avr-gcc\avr\include\util\delay.h **** 
 115:c:\d\ifsc\vscodeleandro\ex\toolchains\avr-gcc\avr\include\util\delay.h **** #if __HAS_DELAY_CYCLES && defined(__OPTIMIZE__) && \
 116:c:\d\ifsc\vscodeleandro\ex\toolchains\avr-gcc\avr\include\util\delay.h ****   !defined(__DELAY_BACKWARD_COMPATIBLE__) &&	   \
 117:c:\d\ifsc\vscodeleandro\ex\toolchains\avr-gcc\avr\include\util\delay.h ****   __STDC_HOSTED__
 118:c:\d\ifsc\vscodeleandro\ex\toolchains\avr-gcc\avr\include\util\delay.h **** #  include <math.h>
 119:c:\d\ifsc\vscodeleandro\ex\toolchains\avr-gcc\avr\include\util\delay.h **** #endif
 120:c:\d\ifsc\vscodeleandro\ex\toolchains\avr-gcc\avr\include\util\delay.h **** 
 121:c:\d\ifsc\vscodeleandro\ex\toolchains\avr-gcc\avr\include\util\delay.h **** /**
 122:c:\d\ifsc\vscodeleandro\ex\toolchains\avr-gcc\avr\include\util\delay.h ****    \ingroup util_delay
 123:c:\d\ifsc\vscodeleandro\ex\toolchains\avr-gcc\avr\include\util\delay.h **** 
 124:c:\d\ifsc\vscodeleandro\ex\toolchains\avr-gcc\avr\include\util\delay.h ****    Perform a delay of \c __ms milliseconds, using _delay_loop_2().
 125:c:\d\ifsc\vscodeleandro\ex\toolchains\avr-gcc\avr\include\util\delay.h **** 
 126:c:\d\ifsc\vscodeleandro\ex\toolchains\avr-gcc\avr\include\util\delay.h ****    The macro F_CPU is supposed to be defined to a
 127:c:\d\ifsc\vscodeleandro\ex\toolchains\avr-gcc\avr\include\util\delay.h ****    constant defining the CPU clock frequency (in Hertz).
 128:c:\d\ifsc\vscodeleandro\ex\toolchains\avr-gcc\avr\include\util\delay.h **** 
 129:c:\d\ifsc\vscodeleandro\ex\toolchains\avr-gcc\avr\include\util\delay.h ****    The maximal possible delay is 262.14 ms / F_CPU in MHz.
 130:c:\d\ifsc\vscodeleandro\ex\toolchains\avr-gcc\avr\include\util\delay.h **** 
 131:c:\d\ifsc\vscodeleandro\ex\toolchains\avr-gcc\avr\include\util\delay.h ****    When the user request delay which exceed the maximum possible one,
 132:c:\d\ifsc\vscodeleandro\ex\toolchains\avr-gcc\avr\include\util\delay.h ****    _delay_ms() provides a decreased resolution functionality. In this
 133:c:\d\ifsc\vscodeleandro\ex\toolchains\avr-gcc\avr\include\util\delay.h ****    mode _delay_ms() will work with a resolution of 1/10 ms, providing
 134:c:\d\ifsc\vscodeleandro\ex\toolchains\avr-gcc\avr\include\util\delay.h ****    delays up to 6.5535 seconds (independent from CPU frequency).  The
 135:c:\d\ifsc\vscodeleandro\ex\toolchains\avr-gcc\avr\include\util\delay.h ****    user will not be informed about decreased resolution.
 136:c:\d\ifsc\vscodeleandro\ex\toolchains\avr-gcc\avr\include\util\delay.h **** 
 137:c:\d\ifsc\vscodeleandro\ex\toolchains\avr-gcc\avr\include\util\delay.h ****    If the avr-gcc toolchain has __builtin_avr_delay_cycles()
 138:c:\d\ifsc\vscodeleandro\ex\toolchains\avr-gcc\avr\include\util\delay.h ****    support, maximal possible delay is 4294967.295 ms/ F_CPU in MHz. For
 139:c:\d\ifsc\vscodeleandro\ex\toolchains\avr-gcc\avr\include\util\delay.h ****    values greater than the maximal possible delay, overflows results in
 140:c:\d\ifsc\vscodeleandro\ex\toolchains\avr-gcc\avr\include\util\delay.h ****    no delay i.e., 0ms.
 141:c:\d\ifsc\vscodeleandro\ex\toolchains\avr-gcc\avr\include\util\delay.h **** 
 142:c:\d\ifsc\vscodeleandro\ex\toolchains\avr-gcc\avr\include\util\delay.h ****    Conversion of \c __ms into clock cycles may not always result in
 143:c:\d\ifsc\vscodeleandro\ex\toolchains\avr-gcc\avr\include\util\delay.h ****    integer.  By default, the clock cycles rounded up to next
 144:c:\d\ifsc\vscodeleandro\ex\toolchains\avr-gcc\avr\include\util\delay.h ****    integer. This ensures that the user gets at least \c __ms
 145:c:\d\ifsc\vscodeleandro\ex\toolchains\avr-gcc\avr\include\util\delay.h ****    microseconds of delay.
 146:c:\d\ifsc\vscodeleandro\ex\toolchains\avr-gcc\avr\include\util\delay.h **** 
 147:c:\d\ifsc\vscodeleandro\ex\toolchains\avr-gcc\avr\include\util\delay.h ****    Alternatively, by defining the macro \c __DELAY_ROUND_DOWN__, or
 148:c:\d\ifsc\vscodeleandro\ex\toolchains\avr-gcc\avr\include\util\delay.h ****    \c __DELAY_ROUND_CLOSEST__, before including this header file, the
 149:c:\d\ifsc\vscodeleandro\ex\toolchains\avr-gcc\avr\include\util\delay.h ****    algorithm can be made to round down, or round to closest integer,
 150:c:\d\ifsc\vscodeleandro\ex\toolchains\avr-gcc\avr\include\util\delay.h ****    respectively.
 151:c:\d\ifsc\vscodeleandro\ex\toolchains\avr-gcc\avr\include\util\delay.h **** 
 152:c:\d\ifsc\vscodeleandro\ex\toolchains\avr-gcc\avr\include\util\delay.h ****    \note
 153:c:\d\ifsc\vscodeleandro\ex\toolchains\avr-gcc\avr\include\util\delay.h **** 
 154:c:\d\ifsc\vscodeleandro\ex\toolchains\avr-gcc\avr\include\util\delay.h ****    The implementation of _delay_ms() based on
 155:c:\d\ifsc\vscodeleandro\ex\toolchains\avr-gcc\avr\include\util\delay.h ****    __builtin_avr_delay_cycles() is not backward compatible with older
 156:c:\d\ifsc\vscodeleandro\ex\toolchains\avr-gcc\avr\include\util\delay.h ****    implementations.  In order to get functionality backward compatible
 157:c:\d\ifsc\vscodeleandro\ex\toolchains\avr-gcc\avr\include\util\delay.h ****    with previous versions, the macro \c "__DELAY_BACKWARD_COMPATIBLE__"
 158:c:\d\ifsc\vscodeleandro\ex\toolchains\avr-gcc\avr\include\util\delay.h ****    must be defined before including this header file. Also, the
 159:c:\d\ifsc\vscodeleandro\ex\toolchains\avr-gcc\avr\include\util\delay.h ****    backward compatible algorithm will be chosen if the code is
 160:c:\d\ifsc\vscodeleandro\ex\toolchains\avr-gcc\avr\include\util\delay.h ****    compiled in a <em>freestanding environment</em> (GCC option
 161:c:\d\ifsc\vscodeleandro\ex\toolchains\avr-gcc\avr\include\util\delay.h ****    \c -ffreestanding), as the math functions required for rounding are
 162:c:\d\ifsc\vscodeleandro\ex\toolchains\avr-gcc\avr\include\util\delay.h ****    not available to the compiler then.
GAS LISTING C:\Users\kenne\AppData\Local\Temp\ccH82gYi.s 			page 43


 163:c:\d\ifsc\vscodeleandro\ex\toolchains\avr-gcc\avr\include\util\delay.h **** 
 164:c:\d\ifsc\vscodeleandro\ex\toolchains\avr-gcc\avr\include\util\delay.h ****  */
 165:c:\d\ifsc\vscodeleandro\ex\toolchains\avr-gcc\avr\include\util\delay.h **** void
 166:c:\d\ifsc\vscodeleandro\ex\toolchains\avr-gcc\avr\include\util\delay.h **** _delay_ms(double __ms)
 167:c:\d\ifsc\vscodeleandro\ex\toolchains\avr-gcc\avr\include\util\delay.h **** {
 168:c:\d\ifsc\vscodeleandro\ex\toolchains\avr-gcc\avr\include\util\delay.h **** 	double __tmp ;
 169:c:\d\ifsc\vscodeleandro\ex\toolchains\avr-gcc\avr\include\util\delay.h **** #if __HAS_DELAY_CYCLES && defined(__OPTIMIZE__) && \
 170:c:\d\ifsc\vscodeleandro\ex\toolchains\avr-gcc\avr\include\util\delay.h ****   !defined(__DELAY_BACKWARD_COMPATIBLE__) &&	   \
 171:c:\d\ifsc\vscodeleandro\ex\toolchains\avr-gcc\avr\include\util\delay.h ****   __STDC_HOSTED__
 172:c:\d\ifsc\vscodeleandro\ex\toolchains\avr-gcc\avr\include\util\delay.h **** 	uint32_t __ticks_dc;
 173:c:\d\ifsc\vscodeleandro\ex\toolchains\avr-gcc\avr\include\util\delay.h **** 	extern void __builtin_avr_delay_cycles(unsigned long);
 174:c:\d\ifsc\vscodeleandro\ex\toolchains\avr-gcc\avr\include\util\delay.h **** 	__tmp = ((F_CPU) / 1e3) * __ms;
 175:c:\d\ifsc\vscodeleandro\ex\toolchains\avr-gcc\avr\include\util\delay.h **** 
 176:c:\d\ifsc\vscodeleandro\ex\toolchains\avr-gcc\avr\include\util\delay.h **** 	#if defined(__DELAY_ROUND_DOWN__)
 177:c:\d\ifsc\vscodeleandro\ex\toolchains\avr-gcc\avr\include\util\delay.h **** 		__ticks_dc = (uint32_t)fabs(__tmp);
 178:c:\d\ifsc\vscodeleandro\ex\toolchains\avr-gcc\avr\include\util\delay.h **** 
 179:c:\d\ifsc\vscodeleandro\ex\toolchains\avr-gcc\avr\include\util\delay.h **** 	#elif defined(__DELAY_ROUND_CLOSEST__)
 180:c:\d\ifsc\vscodeleandro\ex\toolchains\avr-gcc\avr\include\util\delay.h **** 		__ticks_dc = (uint32_t)(fabs(__tmp)+0.5);
 181:c:\d\ifsc\vscodeleandro\ex\toolchains\avr-gcc\avr\include\util\delay.h **** 
 182:c:\d\ifsc\vscodeleandro\ex\toolchains\avr-gcc\avr\include\util\delay.h **** 	#else
 183:c:\d\ifsc\vscodeleandro\ex\toolchains\avr-gcc\avr\include\util\delay.h **** 		//round up by default
 184:c:\d\ifsc\vscodeleandro\ex\toolchains\avr-gcc\avr\include\util\delay.h **** 		__ticks_dc = (uint32_t)(ceil(fabs(__tmp)));
 185:c:\d\ifsc\vscodeleandro\ex\toolchains\avr-gcc\avr\include\util\delay.h **** 	#endif
 186:c:\d\ifsc\vscodeleandro\ex\toolchains\avr-gcc\avr\include\util\delay.h **** 
 187:c:\d\ifsc\vscodeleandro\ex\toolchains\avr-gcc\avr\include\util\delay.h **** 	__builtin_avr_delay_cycles(__ticks_dc);
 188:c:\d\ifsc\vscodeleandro\ex\toolchains\avr-gcc\avr\include\util\delay.h **** 
 189:c:\d\ifsc\vscodeleandro\ex\toolchains\avr-gcc\avr\include\util\delay.h **** #else
 190:c:\d\ifsc\vscodeleandro\ex\toolchains\avr-gcc\avr\include\util\delay.h **** 	uint16_t __ticks;
 191:c:\d\ifsc\vscodeleandro\ex\toolchains\avr-gcc\avr\include\util\delay.h **** 	__tmp = ((F_CPU) / 4e3) * __ms;
 192:c:\d\ifsc\vscodeleandro\ex\toolchains\avr-gcc\avr\include\util\delay.h **** 	if (__tmp < 1.0)
 193:c:\d\ifsc\vscodeleandro\ex\toolchains\avr-gcc\avr\include\util\delay.h **** 		__ticks = 1;
 194:c:\d\ifsc\vscodeleandro\ex\toolchains\avr-gcc\avr\include\util\delay.h **** 	else if (__tmp > 65535)
 195:c:\d\ifsc\vscodeleandro\ex\toolchains\avr-gcc\avr\include\util\delay.h **** 	{
 196:c:\d\ifsc\vscodeleandro\ex\toolchains\avr-gcc\avr\include\util\delay.h **** 		//	__ticks = requested delay in 1/10 ms
 197:c:\d\ifsc\vscodeleandro\ex\toolchains\avr-gcc\avr\include\util\delay.h **** 		__ticks = (uint16_t) (__ms * 10.0);
 198:c:\d\ifsc\vscodeleandro\ex\toolchains\avr-gcc\avr\include\util\delay.h **** 		while(__ticks)
 199:c:\d\ifsc\vscodeleandro\ex\toolchains\avr-gcc\avr\include\util\delay.h **** 		{
 200:c:\d\ifsc\vscodeleandro\ex\toolchains\avr-gcc\avr\include\util\delay.h **** 			// wait 1/10 ms
 201:c:\d\ifsc\vscodeleandro\ex\toolchains\avr-gcc\avr\include\util\delay.h **** 			_delay_loop_2(((F_CPU) / 4e3) / 10);
 202:c:\d\ifsc\vscodeleandro\ex\toolchains\avr-gcc\avr\include\util\delay.h **** 			__ticks --;
 203:c:\d\ifsc\vscodeleandro\ex\toolchains\avr-gcc\avr\include\util\delay.h **** 		}
 204:c:\d\ifsc\vscodeleandro\ex\toolchains\avr-gcc\avr\include\util\delay.h **** 		return;
 205:c:\d\ifsc\vscodeleandro\ex\toolchains\avr-gcc\avr\include\util\delay.h **** 	}
 206:c:\d\ifsc\vscodeleandro\ex\toolchains\avr-gcc\avr\include\util\delay.h **** 	else
 207:c:\d\ifsc\vscodeleandro\ex\toolchains\avr-gcc\avr\include\util\delay.h **** 		__ticks = (uint16_t)__tmp;
 208:c:\d\ifsc\vscodeleandro\ex\toolchains\avr-gcc\avr\include\util\delay.h **** 	_delay_loop_2(__ticks);
 209:c:\d\ifsc\vscodeleandro\ex\toolchains\avr-gcc\avr\include\util\delay.h **** #endif
 210:c:\d\ifsc\vscodeleandro\ex\toolchains\avr-gcc\avr\include\util\delay.h **** }
 211:c:\d\ifsc\vscodeleandro\ex\toolchains\avr-gcc\avr\include\util\delay.h **** 
 212:c:\d\ifsc\vscodeleandro\ex\toolchains\avr-gcc\avr\include\util\delay.h **** /**
 213:c:\d\ifsc\vscodeleandro\ex\toolchains\avr-gcc\avr\include\util\delay.h ****    \ingroup util_delay
 214:c:\d\ifsc\vscodeleandro\ex\toolchains\avr-gcc\avr\include\util\delay.h **** 
 215:c:\d\ifsc\vscodeleandro\ex\toolchains\avr-gcc\avr\include\util\delay.h ****    Perform a delay of \c __us microseconds, using _delay_loop_1().
 216:c:\d\ifsc\vscodeleandro\ex\toolchains\avr-gcc\avr\include\util\delay.h **** 
 217:c:\d\ifsc\vscodeleandro\ex\toolchains\avr-gcc\avr\include\util\delay.h ****    The macro F_CPU is supposed to be defined to a
 218:c:\d\ifsc\vscodeleandro\ex\toolchains\avr-gcc\avr\include\util\delay.h ****    constant defining the CPU clock frequency (in Hertz).
 219:c:\d\ifsc\vscodeleandro\ex\toolchains\avr-gcc\avr\include\util\delay.h **** 
GAS LISTING C:\Users\kenne\AppData\Local\Temp\ccH82gYi.s 			page 44


 220:c:\d\ifsc\vscodeleandro\ex\toolchains\avr-gcc\avr\include\util\delay.h ****    The maximal possible delay is 768 us / F_CPU in MHz.
 221:c:\d\ifsc\vscodeleandro\ex\toolchains\avr-gcc\avr\include\util\delay.h **** 
 222:c:\d\ifsc\vscodeleandro\ex\toolchains\avr-gcc\avr\include\util\delay.h ****    If the user requests a delay greater than the maximal possible one,
 223:c:\d\ifsc\vscodeleandro\ex\toolchains\avr-gcc\avr\include\util\delay.h ****    _delay_us() will automatically call _delay_ms() instead.  The user
 224:c:\d\ifsc\vscodeleandro\ex\toolchains\avr-gcc\avr\include\util\delay.h ****    will not be informed about this case.
 225:c:\d\ifsc\vscodeleandro\ex\toolchains\avr-gcc\avr\include\util\delay.h **** 
 226:c:\d\ifsc\vscodeleandro\ex\toolchains\avr-gcc\avr\include\util\delay.h ****    If the avr-gcc toolchain has __builtin_avr_delay_cycles()
 227:c:\d\ifsc\vscodeleandro\ex\toolchains\avr-gcc\avr\include\util\delay.h ****    support, maximal possible delay is 4294967.295 us/ F_CPU in MHz. For
 228:c:\d\ifsc\vscodeleandro\ex\toolchains\avr-gcc\avr\include\util\delay.h ****    values greater than the maximal possible delay, overflow results in
 229:c:\d\ifsc\vscodeleandro\ex\toolchains\avr-gcc\avr\include\util\delay.h ****    no delay i.e., 0us.
 230:c:\d\ifsc\vscodeleandro\ex\toolchains\avr-gcc\avr\include\util\delay.h **** 
 231:c:\d\ifsc\vscodeleandro\ex\toolchains\avr-gcc\avr\include\util\delay.h ****    Conversion of \c __us into clock cycles may not always result in
 232:c:\d\ifsc\vscodeleandro\ex\toolchains\avr-gcc\avr\include\util\delay.h ****    integer.  By default, the clock cycles rounded up to next
 233:c:\d\ifsc\vscodeleandro\ex\toolchains\avr-gcc\avr\include\util\delay.h ****    integer. This ensures that the user gets at least \c __us
 234:c:\d\ifsc\vscodeleandro\ex\toolchains\avr-gcc\avr\include\util\delay.h ****    microseconds of delay.
 235:c:\d\ifsc\vscodeleandro\ex\toolchains\avr-gcc\avr\include\util\delay.h **** 
 236:c:\d\ifsc\vscodeleandro\ex\toolchains\avr-gcc\avr\include\util\delay.h ****    Alternatively, by defining the macro \c __DELAY_ROUND_DOWN__, or
 237:c:\d\ifsc\vscodeleandro\ex\toolchains\avr-gcc\avr\include\util\delay.h ****    \c __DELAY_ROUND_CLOSEST__, before including this header file, the
 238:c:\d\ifsc\vscodeleandro\ex\toolchains\avr-gcc\avr\include\util\delay.h ****    algorithm can be made to round down, or round to closest integer,
 239:c:\d\ifsc\vscodeleandro\ex\toolchains\avr-gcc\avr\include\util\delay.h ****    respectively.
 240:c:\d\ifsc\vscodeleandro\ex\toolchains\avr-gcc\avr\include\util\delay.h **** 
 241:c:\d\ifsc\vscodeleandro\ex\toolchains\avr-gcc\avr\include\util\delay.h ****    \note
 242:c:\d\ifsc\vscodeleandro\ex\toolchains\avr-gcc\avr\include\util\delay.h **** 
 243:c:\d\ifsc\vscodeleandro\ex\toolchains\avr-gcc\avr\include\util\delay.h ****    The implementation of _delay_ms() based on
 244:c:\d\ifsc\vscodeleandro\ex\toolchains\avr-gcc\avr\include\util\delay.h ****    __builtin_avr_delay_cycles() is not backward compatible with older
 245:c:\d\ifsc\vscodeleandro\ex\toolchains\avr-gcc\avr\include\util\delay.h ****    implementations.  In order to get functionality backward compatible
 246:c:\d\ifsc\vscodeleandro\ex\toolchains\avr-gcc\avr\include\util\delay.h ****    with previous versions, the macro \c __DELAY_BACKWARD_COMPATIBLE__
 247:c:\d\ifsc\vscodeleandro\ex\toolchains\avr-gcc\avr\include\util\delay.h ****    must be defined before including this header file. Also, the
 248:c:\d\ifsc\vscodeleandro\ex\toolchains\avr-gcc\avr\include\util\delay.h ****    backward compatible algorithm will be chosen if the code is
 249:c:\d\ifsc\vscodeleandro\ex\toolchains\avr-gcc\avr\include\util\delay.h ****    compiled in a <em>freestanding environment</em> (GCC option
 250:c:\d\ifsc\vscodeleandro\ex\toolchains\avr-gcc\avr\include\util\delay.h ****    \c -ffreestanding), as the math functions required for rounding are
 251:c:\d\ifsc\vscodeleandro\ex\toolchains\avr-gcc\avr\include\util\delay.h ****    not available to the compiler then.
 252:c:\d\ifsc\vscodeleandro\ex\toolchains\avr-gcc\avr\include\util\delay.h **** 
 253:c:\d\ifsc\vscodeleandro\ex\toolchains\avr-gcc\avr\include\util\delay.h ****  */
 254:c:\d\ifsc\vscodeleandro\ex\toolchains\avr-gcc\avr\include\util\delay.h **** void
 255:c:\d\ifsc\vscodeleandro\ex\toolchains\avr-gcc\avr\include\util\delay.h **** _delay_us(double __us)
 784               		.loc 3 255 1 view .LVU217
 785               	.LBB52:
 256:c:\d\ifsc\vscodeleandro\ex\toolchains\avr-gcc\avr\include\util\delay.h **** {
 257:c:\d\ifsc\vscodeleandro\ex\toolchains\avr-gcc\avr\include\util\delay.h **** 	double __tmp ;
 786               		.loc 3 257 2 view .LVU218
 258:c:\d\ifsc\vscodeleandro\ex\toolchains\avr-gcc\avr\include\util\delay.h **** #if __HAS_DELAY_CYCLES && defined(__OPTIMIZE__) && \
 259:c:\d\ifsc\vscodeleandro\ex\toolchains\avr-gcc\avr\include\util\delay.h ****   !defined(__DELAY_BACKWARD_COMPATIBLE__) &&	   \
 260:c:\d\ifsc\vscodeleandro\ex\toolchains\avr-gcc\avr\include\util\delay.h ****   __STDC_HOSTED__
 261:c:\d\ifsc\vscodeleandro\ex\toolchains\avr-gcc\avr\include\util\delay.h **** 	uint32_t __ticks_dc;
 787               		.loc 3 261 2 view .LVU219
 262:c:\d\ifsc\vscodeleandro\ex\toolchains\avr-gcc\avr\include\util\delay.h **** 	extern void __builtin_avr_delay_cycles(unsigned long);
 788               		.loc 3 262 2 view .LVU220
 263:c:\d\ifsc\vscodeleandro\ex\toolchains\avr-gcc\avr\include\util\delay.h **** 	__tmp = ((F_CPU) / 1e6) * __us;
 789               		.loc 3 263 2 view .LVU221
 264:c:\d\ifsc\vscodeleandro\ex\toolchains\avr-gcc\avr\include\util\delay.h **** 
 265:c:\d\ifsc\vscodeleandro\ex\toolchains\avr-gcc\avr\include\util\delay.h **** 	#if defined(__DELAY_ROUND_DOWN__)
 266:c:\d\ifsc\vscodeleandro\ex\toolchains\avr-gcc\avr\include\util\delay.h **** 		__ticks_dc = (uint32_t)fabs(__tmp);
 267:c:\d\ifsc\vscodeleandro\ex\toolchains\avr-gcc\avr\include\util\delay.h **** 
 268:c:\d\ifsc\vscodeleandro\ex\toolchains\avr-gcc\avr\include\util\delay.h **** 	#elif defined(__DELAY_ROUND_CLOSEST__)
 269:c:\d\ifsc\vscodeleandro\ex\toolchains\avr-gcc\avr\include\util\delay.h **** 		__ticks_dc = (uint32_t)(fabs(__tmp)+0.5);
 270:c:\d\ifsc\vscodeleandro\ex\toolchains\avr-gcc\avr\include\util\delay.h **** 
GAS LISTING C:\Users\kenne\AppData\Local\Temp\ccH82gYi.s 			page 45


 271:c:\d\ifsc\vscodeleandro\ex\toolchains\avr-gcc\avr\include\util\delay.h **** 	#else
 272:c:\d\ifsc\vscodeleandro\ex\toolchains\avr-gcc\avr\include\util\delay.h **** 		//round up by default
 273:c:\d\ifsc\vscodeleandro\ex\toolchains\avr-gcc\avr\include\util\delay.h **** 		__ticks_dc = (uint32_t)(ceil(fabs(__tmp)));
 790               		.loc 3 273 3 view .LVU222
 274:c:\d\ifsc\vscodeleandro\ex\toolchains\avr-gcc\avr\include\util\delay.h **** 	#endif
 275:c:\d\ifsc\vscodeleandro\ex\toolchains\avr-gcc\avr\include\util\delay.h **** 
 276:c:\d\ifsc\vscodeleandro\ex\toolchains\avr-gcc\avr\include\util\delay.h **** 	__builtin_avr_delay_cycles(__ticks_dc);
 791               		.loc 3 276 2 view .LVU223
 792               		.loc 3 276 28 is_stmt 0 view .LVU224
 793 00da 75E0      		ldi r23,lo8(5)
 794 00dc 7A95      	1:	dec r23
 795 00de 01F4      		brne 1b
 796 00e0 0000      		nop
 797               	.LVL26:
 798               		.loc 3 276 28 view .LVU225
 799               	.LBE52:
 800               	.LBE51:
 618:funsape/device/hd44780.cpp ****     clrBit(*(this->_controlPout), this->_controlE);         // Enable pulse end
 801               		.loc 2 618 5 is_stmt 1 view .LVU226
 802 00e2 A281      		ldd r26,Z+2
 803 00e4 B381      		ldd r27,Z+3
 804 00e6 9C91      		ld r25,X
 805 00e8 8481      		ldd r24,Z+4
 806 00ea 8770      		andi r24,lo8(7)
 807 00ec 00C0      		rjmp 2f
 808               		1:
 809 00ee 220F      		lsl r18
 810 00f0 331F      		rol r19
 811               		2:
 812 00f2 8A95      		dec r24
 813 00f4 02F4      		brpl 1b
 814 00f6 2095      		com r18
 815 00f8 2923      		and r18,r25
 816 00fa 2C93      		st X,r18
 619:funsape/device/hd44780.cpp ****     delayUs(1);
 817               		.loc 2 619 5 view .LVU227
 818               	.LVL27:
 819               	.LBB53:
 820               	.LBI53:
 255:c:\d\ifsc\vscodeleandro\ex\toolchains\avr-gcc\avr\include\util\delay.h **** {
 821               		.loc 3 255 1 view .LVU228
 822               	.LBB54:
 257:c:\d\ifsc\vscodeleandro\ex\toolchains\avr-gcc\avr\include\util\delay.h **** #if __HAS_DELAY_CYCLES && defined(__OPTIMIZE__) && \
 823               		.loc 3 257 2 view .LVU229
 261:c:\d\ifsc\vscodeleandro\ex\toolchains\avr-gcc\avr\include\util\delay.h **** 	extern void __builtin_avr_delay_cycles(unsigned long);
 824               		.loc 3 261 2 view .LVU230
 262:c:\d\ifsc\vscodeleandro\ex\toolchains\avr-gcc\avr\include\util\delay.h **** 	__tmp = ((F_CPU) / 1e6) * __us;
 825               		.loc 3 262 2 view .LVU231
 263:c:\d\ifsc\vscodeleandro\ex\toolchains\avr-gcc\avr\include\util\delay.h **** 
 826               		.loc 3 263 2 view .LVU232
 273:c:\d\ifsc\vscodeleandro\ex\toolchains\avr-gcc\avr\include\util\delay.h **** 	#endif
 827               		.loc 3 273 3 view .LVU233
 828               		.loc 3 276 2 view .LVU234
 829               		.loc 3 276 28 is_stmt 0 view .LVU235
 830 00fc 85E0      		ldi r24,lo8(5)
 831 00fe 8A95      	1:	dec r24
 832 0100 01F4      		brne 1b
GAS LISTING C:\Users\kenne\AppData\Local\Temp\ccH82gYi.s 			page 46


 833 0102 0000      		nop
 834               	.LVL28:
 835               		.loc 3 276 28 view .LVU236
 836               	.LBE54:
 837               	.LBE53:
 620:funsape/device/hd44780.cpp ****     if((!this->_useBusyFlag) || (!this->_isBusyInitialized)) {
 838               		.loc 2 620 5 is_stmt 1 view .LVU237
 839               		.loc 2 620 16 is_stmt 0 view .LVU238
 840 0104 8485      		ldd r24,Z+12
 841               		.loc 2 620 5 view .LVU239
 842 0106 84FF      		sbrs r24,4
 843 0108 00C0      		rjmp .L24
 844               		.loc 2 620 41 discriminator 1 view .LVU240
 845 010a 8785      		ldd r24,Z+15
 846               		.loc 2 620 30 discriminator 1 view .LVU241
 847 010c 83FD      		sbrc r24,3
 848 010e 00C0      		rjmp .L25
 849               	.L24:
 621:funsape/device/hd44780.cpp ****         delayUs(40);
 850               		.loc 2 621 9 is_stmt 1 view .LVU242
 851               	.LVL29:
 852               	.LBB55:
 853               	.LBI55:
 255:c:\d\ifsc\vscodeleandro\ex\toolchains\avr-gcc\avr\include\util\delay.h **** {
 854               		.loc 3 255 1 view .LVU243
 855               	.LBB56:
 257:c:\d\ifsc\vscodeleandro\ex\toolchains\avr-gcc\avr\include\util\delay.h **** #if __HAS_DELAY_CYCLES && defined(__OPTIMIZE__) && \
 856               		.loc 3 257 2 view .LVU244
 261:c:\d\ifsc\vscodeleandro\ex\toolchains\avr-gcc\avr\include\util\delay.h **** 	extern void __builtin_avr_delay_cycles(unsigned long);
 857               		.loc 3 261 2 view .LVU245
 262:c:\d\ifsc\vscodeleandro\ex\toolchains\avr-gcc\avr\include\util\delay.h **** 	__tmp = ((F_CPU) / 1e6) * __us;
 858               		.loc 3 262 2 view .LVU246
 263:c:\d\ifsc\vscodeleandro\ex\toolchains\avr-gcc\avr\include\util\delay.h **** 
 859               		.loc 3 263 2 view .LVU247
 273:c:\d\ifsc\vscodeleandro\ex\toolchains\avr-gcc\avr\include\util\delay.h **** 	#endif
 860               		.loc 3 273 3 view .LVU248
 861               		.loc 3 276 2 view .LVU249
 862               		.loc 3 276 28 is_stmt 0 view .LVU250
 863 0110 C5ED      		ldi r28,lo8(-43)
 864 0112 CA95      	1:	dec r28
 865 0114 01F4      		brne 1b
 866 0116 0000      		nop
 867               	.LVL30:
 868               	.L25:
 869               		.loc 3 276 28 view .LVU251
 870               	.LBE56:
 871               	.LBE55:
 622:funsape/device/hd44780.cpp ****     }
 623:funsape/device/hd44780.cpp **** 
 624:funsape/device/hd44780.cpp ****     // Returns successfully
 625:funsape/device/hd44780.cpp ****     return true;
 872               		.loc 2 625 5 is_stmt 1 view .LVU252
 626:funsape/device/hd44780.cpp **** }
 873               		.loc 2 626 1 is_stmt 0 view .LVU253
 874 0118 81E0      		ldi r24,lo8(1)
 875               	/* epilogue start */
 876 011a DF91      		pop r29
GAS LISTING C:\Users\kenne\AppData\Local\Temp\ccH82gYi.s 			page 47


 877 011c CF91      		pop r28
 878 011e 0895      		ret
 879               		.cfi_endproc
 880               	.LFE54:
 882               		.section	.text._ZN7Hd4478015_waitUntilReadyEv,"ax",@progbits
 883               	.global	_ZN7Hd4478015_waitUntilReadyEv
 885               	_ZN7Hd4478015_waitUntilReadyEv:
 886               	.LVL31:
 887               	.LFB56:
 627:funsape/device/hd44780.cpp **** 
 628:funsape/device/hd44780.cpp **** bool_t Hd44780::_writeCommand(uint8_t command_p)
 629:funsape/device/hd44780.cpp **** {
 630:funsape/device/hd44780.cpp ****     if(this->_useBusyFlag) {
 631:funsape/device/hd44780.cpp ****         if(this->_isBusyInitialized) {
 632:funsape/device/hd44780.cpp ****             this->_waitUntilReady();
 633:funsape/device/hd44780.cpp ****         }
 634:funsape/device/hd44780.cpp ****         clrBit(*(this->_controlPout), this->_controlRw);    // LCD in write mode
 635:funsape/device/hd44780.cpp ****     }
 636:funsape/device/hd44780.cpp ****     clrBit(*(this->_controlPout), this->_controlRs);    // LCD in command mode
 637:funsape/device/hd44780.cpp ****     clrBit(*(this->_controlPout), this->_controlE);     // Makes sure enable is LOW
 638:funsape/device/hd44780.cpp ****     if(this->_use4LinesData) {
 639:funsape/device/hd44780.cpp ****         clrMaskOffset(*(this->_dataPout), 0x0F, this->_dataFirst);    // Writes data (higher nibble
 640:funsape/device/hd44780.cpp ****         *(this->_dataPout) |= ((command_p >> 4) << this->_dataFirst);
 641:funsape/device/hd44780.cpp ****         setBit(*(this->_controlPout), this->_controlE);         // Enable pulse start
 642:funsape/device/hd44780.cpp ****         delayUs(1);
 643:funsape/device/hd44780.cpp ****         clrBit(*(this->_controlPout), this->_controlE);         // Enable pulse end
 644:funsape/device/hd44780.cpp ****         delayUs(1);
 645:funsape/device/hd44780.cpp ****         clrMaskOffset(*(this->_dataPout), 0x0F, this->_dataFirst);    // Writes data (lower nibble)
 646:funsape/device/hd44780.cpp ****         *(this->_dataPout) |= ((command_p & 0x0F) << this->_dataFirst);
 647:funsape/device/hd44780.cpp ****     } else {
 648:funsape/device/hd44780.cpp ****         *(this->_dataPout) = command_p;                       // Writes data
 649:funsape/device/hd44780.cpp ****     }
 650:funsape/device/hd44780.cpp ****     setBit(*(this->_controlPout), this->_controlE);     // Enable pulse start
 651:funsape/device/hd44780.cpp ****     delayUs(1);
 652:funsape/device/hd44780.cpp ****     clrBit(*(this->_controlPout), this->_controlE);     // Enable pulse end
 653:funsape/device/hd44780.cpp ****     delayUs(1);
 654:funsape/device/hd44780.cpp ****     if(!this->_useBusyFlag) {
 655:funsape/device/hd44780.cpp ****         if((command_p == LCD_CLEAR_DISPLAY) || (command_p == LCD_RETURN_HOME)) {
 656:funsape/device/hd44780.cpp ****             delayMs(2);
 657:funsape/device/hd44780.cpp ****         } else {
 658:funsape/device/hd44780.cpp ****             delayUs(40);
 659:funsape/device/hd44780.cpp ****         }
 660:funsape/device/hd44780.cpp ****     }
 661:funsape/device/hd44780.cpp **** 
 662:funsape/device/hd44780.cpp ****     // Returns successfully
 663:funsape/device/hd44780.cpp ****     return true;
 664:funsape/device/hd44780.cpp **** }
 665:funsape/device/hd44780.cpp **** 
 666:funsape/device/hd44780.cpp **** bool_t Hd44780::_waitUntilReady(void)
 667:funsape/device/hd44780.cpp **** {
 888               		.loc 2 667 1 is_stmt 1 view -0
 889               		.cfi_startproc
 890               	/* prologue: function */
 891               	/* frame size = 0 */
 892               	/* stack size = 0 */
 893               	.L__stack_usage = 0
 894               		.loc 2 667 1 is_stmt 0 view .LVU255
GAS LISTING C:\Users\kenne\AppData\Local\Temp\ccH82gYi.s 			page 48


 895 0000 E82F      		mov r30,r24
 896 0002 F92F      		mov r31,r25
 668:funsape/device/hd44780.cpp ****     uint8_t auxBusyFlag = 0;
 897               		.loc 2 668 5 is_stmt 1 view .LVU256
 898               	.LVL32:
 669:funsape/device/hd44780.cpp **** 
 670:funsape/device/hd44780.cpp ****     if(this->_use4LinesData) {
 899               		.loc 2 670 5 view .LVU257
 900               		.loc 2 670 14 is_stmt 0 view .LVU258
 901 0004 8485      		ldd r24,Z+12
 902               	.LVL33:
 903               		.loc 2 670 5 view .LVU259
 904 0006 83FF      		sbrs r24,3
 905 0008 00C0      		rjmp .L27
 671:funsape/device/hd44780.cpp ****         clrMaskOffset(*(this->_dataPout), 0x0F, this->_dataFirst);
 906               		.loc 2 671 9 is_stmt 1 view .LVU260
 907 000a A085      		ldd r26,Z+8
 908 000c B185      		ldd r27,Z+9
 909 000e 4C91      		ld r20,X
 910 0010 8770      		andi r24,lo8(7)
 911 0012 2FE0      		ldi r18,lo8(15)
 912 0014 30E0      		ldi r19,0
 913 0016 B901      		movw r22,r18
 914 0018 00C0      		rjmp 2f
 915               		1:
 916 001a 660F      		lsl r22
 917 001c 771F      		rol r23
 918               		2:
 919 001e 8A95      		dec r24
 920 0020 02F4      		brpl 1b
 921 0022 CB01      		movw r24,r22
 922 0024 8095      		com r24
 923 0026 8423      		and r24,r20
 924 0028 8C93      		st X,r24
 672:funsape/device/hd44780.cpp ****         clrMaskOffset(*(this->_dataDir), 0x0F, this->_dataFirst);
 925               		.loc 2 672 9 view .LVU261
 926 002a A681      		ldd r26,Z+6
 927 002c B781      		ldd r27,Z+7
 928 002e 9C91      		ld r25,X
 929 0030 8485      		ldd r24,Z+12
 930 0032 8770      		andi r24,lo8(7)
 931 0034 00C0      		rjmp 2f
 932               		1:
 933 0036 220F      		lsl r18
 934 0038 331F      		rol r19
 935               		2:
 936 003a 8A95      		dec r24
 937 003c 02F4      		brpl 1b
 938 003e 2095      		com r18
 939 0040 2923      		and r18,r25
 940 0042 2C93      		st X,r18
 941               	.L28:
 673:funsape/device/hd44780.cpp ****     } else {
 674:funsape/device/hd44780.cpp ****         *(this->_dataPout) = 0x00;
 675:funsape/device/hd44780.cpp ****         *(this->_dataDir) = 0x00;
 676:funsape/device/hd44780.cpp ****     }
 677:funsape/device/hd44780.cpp ****     clrBit(*(this->_controlPout), this->_controlRs);    // LCD in command mode
GAS LISTING C:\Users\kenne\AppData\Local\Temp\ccH82gYi.s 			page 49


 942               		.loc 2 677 5 view .LVU262
 943 0044 A281      		ldd r26,Z+2
 944 0046 B381      		ldd r27,Z+3
 945 0048 4C91      		ld r20,X
 946 004a 8481      		ldd r24,Z+4
 947 004c 8695      		lsr r24
 948 004e 8695      		lsr r24
 949 0050 8695      		lsr r24
 950 0052 8770      		andi r24,lo8(7)
 951 0054 21E0      		ldi r18,lo8(1)
 952 0056 30E0      		ldi r19,0
 953 0058 B901      		movw r22,r18
 954 005a 00C0      		rjmp 2f
 955               		1:
 956 005c 660F      		lsl r22
 957 005e 771F      		rol r23
 958               		2:
 959 0060 8A95      		dec r24
 960 0062 02F4      		brpl 1b
 961 0064 CB01      		movw r24,r22
 962 0066 8095      		com r24
 963 0068 8423      		and r24,r20
 964 006a 8C93      		st X,r24
 678:funsape/device/hd44780.cpp ****     setBit(*(this->_controlPout), this->_controlRw);    // LCD in write mode
 965               		.loc 2 678 5 view .LVU263
 966 006c A281      		ldd r26,Z+2
 967 006e B381      		ldd r27,Z+3
 968 0070 4C91      		ld r20,X
 969 0072 9481      		ldd r25,Z+4
 970 0074 9295      		swap r25
 971 0076 9695      		lsr r25
 972 0078 9695      		lsr r25
 973 007a 9370      		andi r25,lo8(3)
 974 007c 8581      		ldd r24,Z+5
 975 007e 8170      		andi r24,lo8(1)
 976 0080 880F      		lsl r24
 977 0082 880F      		lsl r24
 978 0084 892B      		or r24,r25
 979 0086 B901      		movw r22,r18
 980 0088 00C0      		rjmp 2f
 981               		1:
 982 008a 660F      		lsl r22
 983 008c 771F      		rol r23
 984               		2:
 985 008e 8A95      		dec r24
 986 0090 02F4      		brpl 1b
 987 0092 CB01      		movw r24,r22
 988 0094 842B      		or r24,r20
 989 0096 8C93      		st X,r24
 679:funsape/device/hd44780.cpp ****     clrBit(*(this->_controlPout), this->_controlE);     // Makes sure enable is LOW
 990               		.loc 2 679 5 view .LVU264
 991 0098 A281      		ldd r26,Z+2
 992 009a B381      		ldd r27,Z+3
 993 009c 9C91      		ld r25,X
 994 009e 8481      		ldd r24,Z+4
 995 00a0 8770      		andi r24,lo8(7)
 996 00a2 00C0      		rjmp 2f
GAS LISTING C:\Users\kenne\AppData\Local\Temp\ccH82gYi.s 			page 50


 997               		1:
 998 00a4 220F      		lsl r18
 999 00a6 331F      		rol r19
 1000               		2:
 1001 00a8 8A95      		dec r24
 1002 00aa 02F4      		brpl 1b
 1003 00ac 2095      		com r18
 1004 00ae 2923      		and r18,r25
 1005 00b0 2C93      		st X,r18
 1006 00b2 00C0      		rjmp .L32
 1007               	.L27:
 674:funsape/device/hd44780.cpp ****         *(this->_dataDir) = 0x00;
 1008               		.loc 2 674 9 view .LVU265
 674:funsape/device/hd44780.cpp ****         *(this->_dataDir) = 0x00;
 1009               		.loc 2 674 17 is_stmt 0 view .LVU266
 1010 00b4 A085      		ldd r26,Z+8
 1011 00b6 B185      		ldd r27,Z+9
 674:funsape/device/hd44780.cpp ****         *(this->_dataDir) = 0x00;
 1012               		.loc 2 674 28 view .LVU267
 1013 00b8 1C92      		st X,__zero_reg__
 675:funsape/device/hd44780.cpp ****     }
 1014               		.loc 2 675 9 is_stmt 1 view .LVU268
 675:funsape/device/hd44780.cpp ****     }
 1015               		.loc 2 675 17 is_stmt 0 view .LVU269
 1016 00ba A681      		ldd r26,Z+6
 1017 00bc B781      		ldd r27,Z+7
 675:funsape/device/hd44780.cpp ****     }
 1018               		.loc 2 675 27 view .LVU270
 1019 00be 1C92      		st X,__zero_reg__
 1020 00c0 00C0      		rjmp .L28
 1021               	.LVL34:
 1022               	.L29:
 680:funsape/device/hd44780.cpp **** 
 681:funsape/device/hd44780.cpp ****     do {
 682:funsape/device/hd44780.cpp ****         auxBusyFlag = 0;
 683:funsape/device/hd44780.cpp ****         setBit(*(this->_controlPout), this->_controlE); // Enable pulse start
 684:funsape/device/hd44780.cpp ****         delayUs(1);
 685:funsape/device/hd44780.cpp ****         auxBusyFlag = *(this->_dataPin);
 686:funsape/device/hd44780.cpp ****         if(this->_use4LinesData) {
 687:funsape/device/hd44780.cpp ****             auxBusyFlag &= (0x08 << this->_dataFirst);
 688:funsape/device/hd44780.cpp ****         } else {
 689:funsape/device/hd44780.cpp ****             auxBusyFlag &= 0x80;
 1023               		.loc 2 689 13 is_stmt 1 view .LVU271
 1024               		.loc 2 689 25 is_stmt 0 view .LVU272
 1025 00c2 2078      		andi r18,lo8(-128)
 1026               	.LVL35:
 1027               		.loc 2 689 25 view .LVU273
 1028 00c4 00C0      		rjmp .L30
 1029               	.L36:
 690:funsape/device/hd44780.cpp ****         }
 691:funsape/device/hd44780.cpp ****         clrBit(*(this->_controlPout), this->_controlE); // Enable pulse end
 692:funsape/device/hd44780.cpp ****         delayUs(1);
 693:funsape/device/hd44780.cpp ****         if(this->_use4LinesData) {
 694:funsape/device/hd44780.cpp ****             setBit(*(this->_controlPout), this->_controlE);     // Enable pulse start
 1030               		.loc 2 694 13 is_stmt 1 view .LVU274
 1031 00c6 A281      		ldd r26,Z+2
 1032 00c8 B381      		ldd r27,Z+3
GAS LISTING C:\Users\kenne\AppData\Local\Temp\ccH82gYi.s 			page 51


 1033 00ca 3C91      		ld r19,X
 1034 00cc 4481      		ldd r20,Z+4
 1035 00ce 4770      		andi r20,lo8(7)
 1036 00d0 81E0      		ldi r24,lo8(1)
 1037 00d2 90E0      		ldi r25,0
 1038 00d4 BC01      		movw r22,r24
 1039 00d6 00C0      		rjmp 2f
 1040               		1:
 1041 00d8 660F      		lsl r22
 1042 00da 771F      		rol r23
 1043               		2:
 1044 00dc 4A95      		dec r20
 1045 00de 02F4      		brpl 1b
 1046 00e0 362B      		or r19,r22
 1047 00e2 3C93      		st X,r19
 695:funsape/device/hd44780.cpp ****             delayUs(1);
 1048               		.loc 2 695 13 view .LVU275
 1049               	.LVL36:
 1050               	.LBB57:
 1051               	.LBI57:
 255:c:\d\ifsc\vscodeleandro\ex\toolchains\avr-gcc\avr\include\util\delay.h **** {
 1052               		.loc 3 255 1 view .LVU276
 1053               	.LBB58:
 257:c:\d\ifsc\vscodeleandro\ex\toolchains\avr-gcc\avr\include\util\delay.h **** #if __HAS_DELAY_CYCLES && defined(__OPTIMIZE__) && \
 1054               		.loc 3 257 2 view .LVU277
 261:c:\d\ifsc\vscodeleandro\ex\toolchains\avr-gcc\avr\include\util\delay.h **** 	extern void __builtin_avr_delay_cycles(unsigned long);
 1055               		.loc 3 261 2 view .LVU278
 262:c:\d\ifsc\vscodeleandro\ex\toolchains\avr-gcc\avr\include\util\delay.h **** 	__tmp = ((F_CPU) / 1e6) * __us;
 1056               		.loc 3 262 2 view .LVU279
 263:c:\d\ifsc\vscodeleandro\ex\toolchains\avr-gcc\avr\include\util\delay.h **** 
 1057               		.loc 3 263 2 view .LVU280
 273:c:\d\ifsc\vscodeleandro\ex\toolchains\avr-gcc\avr\include\util\delay.h **** 	#endif
 1058               		.loc 3 273 3 view .LVU281
 1059               		.loc 3 276 2 view .LVU282
 1060               		.loc 3 276 28 is_stmt 0 view .LVU283
 1061 00e4 75E0      		ldi r23,lo8(5)
 1062 00e6 7A95      	1:	dec r23
 1063 00e8 01F4      		brne 1b
 1064 00ea 0000      		nop
 1065               	.LVL37:
 1066               		.loc 3 276 28 view .LVU284
 1067               	.LBE58:
 1068               	.LBE57:
 696:funsape/device/hd44780.cpp ****             clrBit(*(this->_controlPout), this->_controlE);     // Enable pulse end
 1069               		.loc 2 696 13 is_stmt 1 view .LVU285
 1070 00ec A281      		ldd r26,Z+2
 1071 00ee B381      		ldd r27,Z+3
 1072 00f0 4C91      		ld r20,X
 1073 00f2 3481      		ldd r19,Z+4
 1074 00f4 3770      		andi r19,lo8(7)
 1075 00f6 00C0      		rjmp 2f
 1076               		1:
 1077 00f8 880F      		lsl r24
 1078 00fa 991F      		rol r25
 1079               		2:
 1080 00fc 3A95      		dec r19
 1081 00fe 02F4      		brpl 1b
GAS LISTING C:\Users\kenne\AppData\Local\Temp\ccH82gYi.s 			page 52


 1082 0100 8095      		com r24
 1083 0102 8423      		and r24,r20
 1084 0104 8C93      		st X,r24
 697:funsape/device/hd44780.cpp ****             delayUs(1);
 1085               		.loc 2 697 13 view .LVU286
 1086               	.LVL38:
 1087               	.LBB59:
 1088               	.LBI59:
 255:c:\d\ifsc\vscodeleandro\ex\toolchains\avr-gcc\avr\include\util\delay.h **** {
 1089               		.loc 3 255 1 view .LVU287
 1090               	.LBB60:
 257:c:\d\ifsc\vscodeleandro\ex\toolchains\avr-gcc\avr\include\util\delay.h **** #if __HAS_DELAY_CYCLES && defined(__OPTIMIZE__) && \
 1091               		.loc 3 257 2 view .LVU288
 261:c:\d\ifsc\vscodeleandro\ex\toolchains\avr-gcc\avr\include\util\delay.h **** 	extern void __builtin_avr_delay_cycles(unsigned long);
 1092               		.loc 3 261 2 view .LVU289
 262:c:\d\ifsc\vscodeleandro\ex\toolchains\avr-gcc\avr\include\util\delay.h **** 	__tmp = ((F_CPU) / 1e6) * __us;
 1093               		.loc 3 262 2 view .LVU290
 263:c:\d\ifsc\vscodeleandro\ex\toolchains\avr-gcc\avr\include\util\delay.h **** 
 1094               		.loc 3 263 2 view .LVU291
 273:c:\d\ifsc\vscodeleandro\ex\toolchains\avr-gcc\avr\include\util\delay.h **** 	#endif
 1095               		.loc 3 273 3 view .LVU292
 1096               		.loc 3 276 2 view .LVU293
 1097               		.loc 3 276 28 is_stmt 0 view .LVU294
 1098 0106 85E0      		ldi r24,lo8(5)
 1099 0108 8A95      	1:	dec r24
 1100 010a 01F4      		brne 1b
 1101 010c 0000      		nop
 1102               	.LVL39:
 1103               	.L31:
 1104               		.loc 3 276 28 view .LVU295
 1105               	.LBE60:
 1106               	.LBE59:
 698:funsape/device/hd44780.cpp ****         }
 699:funsape/device/hd44780.cpp ****     } while(auxBusyFlag);
 1107               		.loc 2 699 13 is_stmt 1 view .LVU296
 1108 010e 2223      		tst r18
 1109 0110 01F0      		breq .L35
 1110               	.LVL40:
 1111               	.L32:
 681:funsape/device/hd44780.cpp ****         auxBusyFlag = 0;
 1112               		.loc 2 681 5 view .LVU297
 682:funsape/device/hd44780.cpp ****         setBit(*(this->_controlPout), this->_controlE); // Enable pulse start
 1113               		.loc 2 682 9 view .LVU298
 683:funsape/device/hd44780.cpp ****         delayUs(1);
 1114               		.loc 2 683 9 view .LVU299
 1115 0112 A281      		ldd r26,Z+2
 1116 0114 B381      		ldd r27,Z+3
 1117 0116 8C91      		ld r24,X
 1118 0118 9481      		ldd r25,Z+4
 1119 011a 9770      		andi r25,lo8(7)
 1120 011c 21E0      		ldi r18,lo8(1)
 1121 011e 30E0      		ldi r19,0
 1122 0120 00C0      		rjmp 2f
 1123               		1:
 1124 0122 220F      		lsl r18
 1125 0124 331F      		rol r19
 1126               		2:
GAS LISTING C:\Users\kenne\AppData\Local\Temp\ccH82gYi.s 			page 53


 1127 0126 9A95      		dec r25
 1128 0128 02F4      		brpl 1b
 1129 012a 822B      		or r24,r18
 1130 012c 8C93      		st X,r24
 684:funsape/device/hd44780.cpp ****         auxBusyFlag = *(this->_dataPin);
 1131               		.loc 2 684 9 view .LVU300
 1132               	.LVL41:
 1133               	.LBB61:
 1134               	.LBI61:
 255:c:\d\ifsc\vscodeleandro\ex\toolchains\avr-gcc\avr\include\util\delay.h **** {
 1135               		.loc 3 255 1 view .LVU301
 1136               	.LBB62:
 257:c:\d\ifsc\vscodeleandro\ex\toolchains\avr-gcc\avr\include\util\delay.h **** #if __HAS_DELAY_CYCLES && defined(__OPTIMIZE__) && \
 1137               		.loc 3 257 2 view .LVU302
 261:c:\d\ifsc\vscodeleandro\ex\toolchains\avr-gcc\avr\include\util\delay.h **** 	extern void __builtin_avr_delay_cycles(unsigned long);
 1138               		.loc 3 261 2 view .LVU303
 262:c:\d\ifsc\vscodeleandro\ex\toolchains\avr-gcc\avr\include\util\delay.h **** 	__tmp = ((F_CPU) / 1e6) * __us;
 1139               		.loc 3 262 2 view .LVU304
 263:c:\d\ifsc\vscodeleandro\ex\toolchains\avr-gcc\avr\include\util\delay.h **** 
 1140               		.loc 3 263 2 view .LVU305
 273:c:\d\ifsc\vscodeleandro\ex\toolchains\avr-gcc\avr\include\util\delay.h **** 	#endif
 1141               		.loc 3 273 3 view .LVU306
 1142               		.loc 3 276 2 view .LVU307
 1143               		.loc 3 276 28 is_stmt 0 view .LVU308
 1144 012e 75E0      		ldi r23,lo8(5)
 1145 0130 7A95      	1:	dec r23
 1146 0132 01F4      		brne 1b
 1147 0134 0000      		nop
 1148               	.LVL42:
 1149               		.loc 3 276 28 view .LVU309
 1150               	.LBE62:
 1151               	.LBE61:
 685:funsape/device/hd44780.cpp ****         if(this->_use4LinesData) {
 1152               		.loc 2 685 9 is_stmt 1 view .LVU310
 685:funsape/device/hd44780.cpp ****         if(this->_use4LinesData) {
 1153               		.loc 2 685 31 is_stmt 0 view .LVU311
 1154 0136 A285      		ldd r26,Z+10
 1155 0138 B385      		ldd r27,Z+11
 685:funsape/device/hd44780.cpp ****         if(this->_use4LinesData) {
 1156               		.loc 2 685 21 view .LVU312
 1157 013a 2C91      		ld r18,X
 1158               	.LVL43:
 686:funsape/device/hd44780.cpp ****             auxBusyFlag &= (0x08 << this->_dataFirst);
 1159               		.loc 2 686 9 is_stmt 1 view .LVU313
 686:funsape/device/hd44780.cpp ****             auxBusyFlag &= (0x08 << this->_dataFirst);
 1160               		.loc 2 686 18 is_stmt 0 view .LVU314
 1161 013c 8485      		ldd r24,Z+12
 686:funsape/device/hd44780.cpp ****             auxBusyFlag &= (0x08 << this->_dataFirst);
 1162               		.loc 2 686 9 view .LVU315
 1163 013e 83FF      		sbrs r24,3
 1164 0140 00C0      		rjmp .L29
 687:funsape/device/hd44780.cpp ****         } else {
 1165               		.loc 2 687 13 is_stmt 1 view .LVU316
 687:funsape/device/hd44780.cpp ****         } else {
 1166               		.loc 2 687 43 is_stmt 0 view .LVU317
 1167 0142 382F      		mov r19,r24
 1168 0144 3770      		andi r19,lo8(7)
GAS LISTING C:\Users\kenne\AppData\Local\Temp\ccH82gYi.s 			page 54


 687:funsape/device/hd44780.cpp ****         } else {
 1169               		.loc 2 687 34 view .LVU318
 1170 0146 88E0      		ldi r24,lo8(8)
 1171 0148 90E0      		ldi r25,0
 1172 014a 00C0      		rjmp 2f
 1173               		1:
 1174 014c 880F      		lsl r24
 1175 014e 991F      		rol r25
 1176               		2:
 1177 0150 3A95      		dec r19
 1178 0152 02F4      		brpl 1b
 687:funsape/device/hd44780.cpp ****         } else {
 1179               		.loc 2 687 25 view .LVU319
 1180 0154 2823      		and r18,r24
 1181               	.LVL44:
 1182               	.L30:
 691:funsape/device/hd44780.cpp ****         delayUs(1);
 1183               		.loc 2 691 9 is_stmt 1 view .LVU320
 1184 0156 A281      		ldd r26,Z+2
 1185 0158 B381      		ldd r27,Z+3
 1186 015a 4C91      		ld r20,X
 1187 015c 3481      		ldd r19,Z+4
 1188 015e 3770      		andi r19,lo8(7)
 1189 0160 81E0      		ldi r24,lo8(1)
 1190 0162 90E0      		ldi r25,0
 1191 0164 00C0      		rjmp 2f
 1192               		1:
 1193 0166 880F      		lsl r24
 1194 0168 991F      		rol r25
 1195               		2:
 1196 016a 3A95      		dec r19
 1197 016c 02F4      		brpl 1b
 1198 016e 8095      		com r24
 1199 0170 8423      		and r24,r20
 1200 0172 8C93      		st X,r24
 692:funsape/device/hd44780.cpp ****         if(this->_use4LinesData) {
 1201               		.loc 2 692 9 view .LVU321
 1202               	.LVL45:
 1203               	.LBB63:
 1204               	.LBI63:
 255:c:\d\ifsc\vscodeleandro\ex\toolchains\avr-gcc\avr\include\util\delay.h **** {
 1205               		.loc 3 255 1 view .LVU322
 1206               	.LBB64:
 257:c:\d\ifsc\vscodeleandro\ex\toolchains\avr-gcc\avr\include\util\delay.h **** #if __HAS_DELAY_CYCLES && defined(__OPTIMIZE__) && \
 1207               		.loc 3 257 2 view .LVU323
 261:c:\d\ifsc\vscodeleandro\ex\toolchains\avr-gcc\avr\include\util\delay.h **** 	extern void __builtin_avr_delay_cycles(unsigned long);
 1208               		.loc 3 261 2 view .LVU324
 262:c:\d\ifsc\vscodeleandro\ex\toolchains\avr-gcc\avr\include\util\delay.h **** 	__tmp = ((F_CPU) / 1e6) * __us;
 1209               		.loc 3 262 2 view .LVU325
 263:c:\d\ifsc\vscodeleandro\ex\toolchains\avr-gcc\avr\include\util\delay.h **** 
 1210               		.loc 3 263 2 view .LVU326
 273:c:\d\ifsc\vscodeleandro\ex\toolchains\avr-gcc\avr\include\util\delay.h **** 	#endif
 1211               		.loc 3 273 3 view .LVU327
 1212               		.loc 3 276 2 view .LVU328
 1213               		.loc 3 276 28 is_stmt 0 view .LVU329
 1214 0174 85E0      		ldi r24,lo8(5)
 1215 0176 8A95      	1:	dec r24
GAS LISTING C:\Users\kenne\AppData\Local\Temp\ccH82gYi.s 			page 55


 1216 0178 01F4      		brne 1b
 1217 017a 0000      		nop
 1218               	.LVL46:
 1219               		.loc 3 276 28 view .LVU330
 1220               	.LBE64:
 1221               	.LBE63:
 693:funsape/device/hd44780.cpp ****             setBit(*(this->_controlPout), this->_controlE);     // Enable pulse start
 1222               		.loc 2 693 9 is_stmt 1 view .LVU331
 693:funsape/device/hd44780.cpp ****             setBit(*(this->_controlPout), this->_controlE);     // Enable pulse start
 1223               		.loc 2 693 18 is_stmt 0 view .LVU332
 1224 017c 8485      		ldd r24,Z+12
 693:funsape/device/hd44780.cpp ****             setBit(*(this->_controlPout), this->_controlE);     // Enable pulse start
 1225               		.loc 2 693 9 view .LVU333
 1226 017e 83FF      		sbrs r24,3
 1227 0180 00C0      		rjmp .L31
 693:funsape/device/hd44780.cpp ****             setBit(*(this->_controlPout), this->_controlE);     // Enable pulse start
 1228               		.loc 2 693 9 view .LVU334
 1229 0182 00C0      		rjmp .L36
 1230               	.L35:
 700:funsape/device/hd44780.cpp **** 
 701:funsape/device/hd44780.cpp ****     clrBit(*(this->_controlPout), this->_controlRw);    // LCD in write mode
 1231               		.loc 2 701 5 is_stmt 1 view .LVU335
 1232 0184 A281      		ldd r26,Z+2
 1233 0186 B381      		ldd r27,Z+3
 1234 0188 3C91      		ld r19,X
 1235 018a 8481      		ldd r24,Z+4
 1236 018c 8295      		swap r24
 1237 018e 8695      		lsr r24
 1238 0190 8695      		lsr r24
 1239 0192 8370      		andi r24,lo8(3)
 1240 0194 2581      		ldd r18,Z+5
 1241               	.LVL47:
 1242               		.loc 2 701 5 is_stmt 0 view .LVU336
 1243 0196 2170      		andi r18,lo8(1)
 1244 0198 220F      		lsl r18
 1245 019a 220F      		lsl r18
 1246 019c 282B      		or r18,r24
 1247 019e 81E0      		ldi r24,lo8(1)
 1248 01a0 90E0      		ldi r25,0
 1249 01a2 00C0      		rjmp 2f
 1250               		1:
 1251 01a4 880F      		lsl r24
 1252 01a6 991F      		rol r25
 1253               		2:
 1254 01a8 2A95      		dec r18
 1255 01aa 02F4      		brpl 1b
 1256 01ac 8095      		com r24
 1257 01ae 8323      		and r24,r19
 1258 01b0 8C93      		st X,r24
 702:funsape/device/hd44780.cpp ****     if(this->_use4LinesData) {
 1259               		.loc 2 702 5 is_stmt 1 view .LVU337
 1260               		.loc 2 702 14 is_stmt 0 view .LVU338
 1261 01b2 8485      		ldd r24,Z+12
 1262               		.loc 2 702 5 view .LVU339
 1263 01b4 83FF      		sbrs r24,3
 1264 01b6 00C0      		rjmp .L33
 703:funsape/device/hd44780.cpp ****         clrMaskOffset(*(this->_dataPout), 0x0F, this->_dataFirst);
GAS LISTING C:\Users\kenne\AppData\Local\Temp\ccH82gYi.s 			page 56


 1265               		.loc 2 703 9 is_stmt 1 view .LVU340
 1266 01b8 A085      		ldd r26,Z+8
 1267 01ba B185      		ldd r27,Z+9
 1268 01bc 4C91      		ld r20,X
 1269 01be 8770      		andi r24,lo8(7)
 1270 01c0 2FE0      		ldi r18,lo8(15)
 1271 01c2 30E0      		ldi r19,0
 1272 01c4 B901      		movw r22,r18
 1273 01c6 00C0      		rjmp 2f
 1274               		1:
 1275 01c8 660F      		lsl r22
 1276 01ca 771F      		rol r23
 1277               		2:
 1278 01cc 8A95      		dec r24
 1279 01ce 02F4      		brpl 1b
 1280 01d0 CB01      		movw r24,r22
 1281 01d2 8095      		com r24
 1282 01d4 8423      		and r24,r20
 1283 01d6 8C93      		st X,r24
 704:funsape/device/hd44780.cpp ****         setMaskOffset(*(this->_dataDir), 0x0F, this->_dataFirst);
 1284               		.loc 2 704 9 view .LVU341
 1285 01d8 A681      		ldd r26,Z+6
 1286 01da B781      		ldd r27,Z+7
 1287 01dc 8C91      		ld r24,X
 1288 01de 9485      		ldd r25,Z+12
 1289 01e0 9770      		andi r25,lo8(7)
 1290 01e2 00C0      		rjmp 2f
 1291               		1:
 1292 01e4 220F      		lsl r18
 1293 01e6 331F      		rol r19
 1294               		2:
 1295 01e8 9A95      		dec r25
 1296 01ea 02F4      		brpl 1b
 1297 01ec 822B      		or r24,r18
 1298 01ee 8C93      		st X,r24
 1299               	.L34:
 705:funsape/device/hd44780.cpp ****     } else {
 706:funsape/device/hd44780.cpp ****         *(this->_dataPout) = 0x00;
 707:funsape/device/hd44780.cpp ****         *(this->_dataDir) = 0xFF;
 708:funsape/device/hd44780.cpp ****     }
 709:funsape/device/hd44780.cpp **** 
 710:funsape/device/hd44780.cpp ****     // Returns successfully
 711:funsape/device/hd44780.cpp ****     return true;
 1300               		.loc 2 711 5 view .LVU342
 712:funsape/device/hd44780.cpp **** }
 1301               		.loc 2 712 1 is_stmt 0 view .LVU343
 1302 01f0 81E0      		ldi r24,lo8(1)
 1303               	/* epilogue start */
 1304 01f2 0895      		ret
 1305               	.L33:
 706:funsape/device/hd44780.cpp ****         *(this->_dataDir) = 0xFF;
 1306               		.loc 2 706 9 is_stmt 1 view .LVU344
 706:funsape/device/hd44780.cpp ****         *(this->_dataDir) = 0xFF;
 1307               		.loc 2 706 17 is_stmt 0 view .LVU345
 1308 01f4 A085      		ldd r26,Z+8
 1309 01f6 B185      		ldd r27,Z+9
 706:funsape/device/hd44780.cpp ****         *(this->_dataDir) = 0xFF;
GAS LISTING C:\Users\kenne\AppData\Local\Temp\ccH82gYi.s 			page 57


 1310               		.loc 2 706 28 view .LVU346
 1311 01f8 1C92      		st X,__zero_reg__
 707:funsape/device/hd44780.cpp ****     }
 1312               		.loc 2 707 9 is_stmt 1 view .LVU347
 707:funsape/device/hd44780.cpp ****     }
 1313               		.loc 2 707 17 is_stmt 0 view .LVU348
 1314 01fa 0680      		ldd __tmp_reg__,Z+6
 1315 01fc F781      		ldd r31,Z+7
 1316 01fe E02D      		mov r30,__tmp_reg__
 707:funsape/device/hd44780.cpp ****     }
 1317               		.loc 2 707 27 view .LVU349
 1318 0200 8FEF      		ldi r24,lo8(-1)
 1319 0202 8083      		st Z,r24
 1320 0204 00C0      		rjmp .L34
 1321               		.cfi_endproc
 1322               	.LFE56:
 1324               		.section	.text._ZN7Hd4478013_writeCommandEh,"ax",@progbits
 1325               	.global	_ZN7Hd4478013_writeCommandEh
 1327               	_ZN7Hd4478013_writeCommandEh:
 1328               	.LVL48:
 1329               	.LFB55:
 629:funsape/device/hd44780.cpp ****     if(this->_useBusyFlag) {
 1330               		.loc 2 629 1 is_stmt 1 view -0
 1331               		.cfi_startproc
 629:funsape/device/hd44780.cpp ****     if(this->_useBusyFlag) {
 1332               		.loc 2 629 1 is_stmt 0 view .LVU351
 1333 0000 1F93      		push r17
 1334               		.cfi_def_cfa_offset 3
 1335               		.cfi_offset 17, -2
 1336 0002 CF93      		push r28
 1337               		.cfi_def_cfa_offset 4
 1338               		.cfi_offset 28, -3
 1339 0004 DF93      		push r29
 1340               		.cfi_def_cfa_offset 5
 1341               		.cfi_offset 29, -4
 1342               	/* prologue: function */
 1343               	/* frame size = 0 */
 1344               	/* stack size = 3 */
 1345               	.L__stack_usage = 3
 1346 0006 C82F      		mov r28,r24
 1347 0008 D92F      		mov r29,r25
 1348 000a 162F      		mov r17,r22
 630:funsape/device/hd44780.cpp ****         if(this->_isBusyInitialized) {
 1349               		.loc 2 630 5 is_stmt 1 view .LVU352
 630:funsape/device/hd44780.cpp ****         if(this->_isBusyInitialized) {
 1350               		.loc 2 630 14 is_stmt 0 view .LVU353
 1351 000c 8C85      		ldd r24,Y+12
 1352               	.LVL49:
 630:funsape/device/hd44780.cpp ****         if(this->_isBusyInitialized) {
 1353               		.loc 2 630 5 view .LVU354
 1354 000e 84FF      		sbrs r24,4
 1355 0010 00C0      		rjmp .L38
 631:funsape/device/hd44780.cpp ****             this->_waitUntilReady();
 1356               		.loc 2 631 9 is_stmt 1 view .LVU355
 631:funsape/device/hd44780.cpp ****             this->_waitUntilReady();
 1357               		.loc 2 631 18 is_stmt 0 view .LVU356
 1358 0012 8F85      		ldd r24,Y+15
GAS LISTING C:\Users\kenne\AppData\Local\Temp\ccH82gYi.s 			page 58


 631:funsape/device/hd44780.cpp ****             this->_waitUntilReady();
 1359               		.loc 2 631 9 view .LVU357
 1360 0014 83FD      		sbrc r24,3
 1361 0016 00C0      		rjmp .L44
 1362               	.LVL50:
 1363               	.L39:
 634:funsape/device/hd44780.cpp ****     }
 1364               		.loc 2 634 9 is_stmt 1 view .LVU358
 1365 0018 EA81      		ldd r30,Y+2
 1366 001a FB81      		ldd r31,Y+3
 1367 001c 3081      		ld r19,Z
 1368 001e 8C81      		ldd r24,Y+4
 1369 0020 8295      		swap r24
 1370 0022 8695      		lsr r24
 1371 0024 8695      		lsr r24
 1372 0026 8370      		andi r24,lo8(3)
 1373 0028 2D81      		ldd r18,Y+5
 1374 002a 2170      		andi r18,lo8(1)
 1375 002c 220F      		lsl r18
 1376 002e 220F      		lsl r18
 1377 0030 282B      		or r18,r24
 1378 0032 81E0      		ldi r24,lo8(1)
 1379 0034 90E0      		ldi r25,0
 1380 0036 00C0      		rjmp 2f
 1381               		1:
 1382 0038 880F      		lsl r24
 1383 003a 991F      		rol r25
 1384               		2:
 1385 003c 2A95      		dec r18
 1386 003e 02F4      		brpl 1b
 1387 0040 8095      		com r24
 1388 0042 8323      		and r24,r19
 1389 0044 8083      		st Z,r24
 1390               	.L38:
 636:funsape/device/hd44780.cpp ****     clrBit(*(this->_controlPout), this->_controlE);     // Makes sure enable is LOW
 1391               		.loc 2 636 5 view .LVU359
 1392 0046 EA81      		ldd r30,Y+2
 1393 0048 FB81      		ldd r31,Y+3
 1394 004a 4081      		ld r20,Z
 1395 004c 8C81      		ldd r24,Y+4
 1396 004e 8695      		lsr r24
 1397 0050 8695      		lsr r24
 1398 0052 8695      		lsr r24
 1399 0054 8770      		andi r24,lo8(7)
 1400 0056 21E0      		ldi r18,lo8(1)
 1401 0058 30E0      		ldi r19,0
 1402 005a B901      		movw r22,r18
 1403 005c 00C0      		rjmp 2f
 1404               		1:
 1405 005e 660F      		lsl r22
 1406 0060 771F      		rol r23
 1407               		2:
 1408 0062 8A95      		dec r24
 1409 0064 02F4      		brpl 1b
 1410 0066 CB01      		movw r24,r22
 1411 0068 8095      		com r24
 1412 006a 8423      		and r24,r20
GAS LISTING C:\Users\kenne\AppData\Local\Temp\ccH82gYi.s 			page 59


 1413 006c 8083      		st Z,r24
 637:funsape/device/hd44780.cpp ****     if(this->_use4LinesData) {
 1414               		.loc 2 637 5 view .LVU360
 1415 006e EA81      		ldd r30,Y+2
 1416 0070 FB81      		ldd r31,Y+3
 1417 0072 9081      		ld r25,Z
 1418 0074 8C81      		ldd r24,Y+4
 1419 0076 8770      		andi r24,lo8(7)
 1420 0078 00C0      		rjmp 2f
 1421               		1:
 1422 007a 220F      		lsl r18
 1423 007c 331F      		rol r19
 1424               		2:
 1425 007e 8A95      		dec r24
 1426 0080 02F4      		brpl 1b
 1427 0082 2095      		com r18
 1428 0084 2923      		and r18,r25
 1429 0086 2083      		st Z,r18
 638:funsape/device/hd44780.cpp ****         clrMaskOffset(*(this->_dataPout), 0x0F, this->_dataFirst);    // Writes data (higher nibble
 1430               		.loc 2 638 5 view .LVU361
 638:funsape/device/hd44780.cpp ****         clrMaskOffset(*(this->_dataPout), 0x0F, this->_dataFirst);    // Writes data (higher nibble
 1431               		.loc 2 638 14 is_stmt 0 view .LVU362
 1432 0088 8C85      		ldd r24,Y+12
 638:funsape/device/hd44780.cpp ****         clrMaskOffset(*(this->_dataPout), 0x0F, this->_dataFirst);    // Writes data (higher nibble
 1433               		.loc 2 638 5 view .LVU363
 1434 008a 83FF      		sbrs r24,3
 1435 008c 00C0      		rjmp .L40
 639:funsape/device/hd44780.cpp ****         *(this->_dataPout) |= ((command_p >> 4) << this->_dataFirst);
 1436               		.loc 2 639 9 is_stmt 1 view .LVU364
 1437 008e E885      		ldd r30,Y+8
 1438 0090 F985      		ldd r31,Y+9
 1439 0092 4081      		ld r20,Z
 1440 0094 8770      		andi r24,lo8(7)
 1441 0096 2FE0      		ldi r18,lo8(15)
 1442 0098 30E0      		ldi r19,0
 1443 009a D901      		movw r26,r18
 1444 009c 00C0      		rjmp 2f
 1445               		1:
 1446 009e AA0F      		lsl r26
 1447 00a0 BB1F      		rol r27
 1448               		2:
 1449 00a2 8A95      		dec r24
 1450 00a4 02F4      		brpl 1b
 1451 00a6 CD01      		movw r24,r26
 1452 00a8 8095      		com r24
 1453 00aa 8423      		and r24,r20
 1454 00ac 8083      		st Z,r24
 640:funsape/device/hd44780.cpp ****         setBit(*(this->_controlPout), this->_controlE);         // Enable pulse start
 1455               		.loc 2 640 9 view .LVU365
 640:funsape/device/hd44780.cpp ****         setBit(*(this->_controlPout), this->_controlE);         // Enable pulse start
 1456               		.loc 2 640 17 is_stmt 0 view .LVU366
 1457 00ae E885      		ldd r30,Y+8
 1458 00b0 F985      		ldd r31,Y+9
 640:funsape/device/hd44780.cpp ****         setBit(*(this->_controlPout), this->_controlE);         // Enable pulse start
 1459               		.loc 2 640 9 view .LVU367
 1460 00b2 4081      		ld r20,Z
 640:funsape/device/hd44780.cpp ****         setBit(*(this->_controlPout), this->_controlE);         // Enable pulse start
GAS LISTING C:\Users\kenne\AppData\Local\Temp\ccH82gYi.s 			page 60


 1461               		.loc 2 640 43 view .LVU368
 1462 00b4 812F      		mov r24,r17
 1463 00b6 8295      		swap r24
 1464 00b8 8F70      		andi r24,lo8(15)
 1465 00ba 90E0      		ldi r25,0
 640:funsape/device/hd44780.cpp ****         setBit(*(this->_controlPout), this->_controlE);         // Enable pulse start
 1466               		.loc 2 640 58 view .LVU369
 1467 00bc 5C85      		ldd r21,Y+12
 1468 00be 5770      		andi r21,lo8(7)
 640:funsape/device/hd44780.cpp ****         setBit(*(this->_controlPout), this->_controlE);         // Enable pulse start
 1469               		.loc 2 640 49 view .LVU370
 1470 00c0 00C0      		rjmp 2f
 1471               		1:
 1472 00c2 880F      		lsl r24
 1473 00c4 991F      		rol r25
 1474               		2:
 1475 00c6 5A95      		dec r21
 1476 00c8 02F4      		brpl 1b
 640:funsape/device/hd44780.cpp ****         setBit(*(this->_controlPout), this->_controlE);         // Enable pulse start
 1477               		.loc 2 640 28 view .LVU371
 1478 00ca 842B      		or r24,r20
 1479 00cc 8083      		st Z,r24
 641:funsape/device/hd44780.cpp ****         delayUs(1);
 1480               		.loc 2 641 9 is_stmt 1 view .LVU372
 1481 00ce EA81      		ldd r30,Y+2
 1482 00d0 FB81      		ldd r31,Y+3
 1483 00d2 6081      		ld r22,Z
 1484 00d4 4C81      		ldd r20,Y+4
 1485 00d6 4770      		andi r20,lo8(7)
 1486 00d8 81E0      		ldi r24,lo8(1)
 1487 00da 90E0      		ldi r25,0
 1488 00dc DC01      		movw r26,r24
 1489 00de 00C0      		rjmp 2f
 1490               		1:
 1491 00e0 AA0F      		lsl r26
 1492 00e2 BB1F      		rol r27
 1493               		2:
 1494 00e4 4A95      		dec r20
 1495 00e6 02F4      		brpl 1b
 1496 00e8 AD01      		movw r20,r26
 1497 00ea 462B      		or r20,r22
 1498 00ec 4083      		st Z,r20
 642:funsape/device/hd44780.cpp ****         clrBit(*(this->_controlPout), this->_controlE);         // Enable pulse end
 1499               		.loc 2 642 9 view .LVU373
 1500               	.LVL51:
 1501               	.LBB65:
 1502               	.LBI65:
 255:c:\d\ifsc\vscodeleandro\ex\toolchains\avr-gcc\avr\include\util\delay.h **** {
 1503               		.loc 3 255 1 view .LVU374
 1504               	.LBB66:
 257:c:\d\ifsc\vscodeleandro\ex\toolchains\avr-gcc\avr\include\util\delay.h **** #if __HAS_DELAY_CYCLES && defined(__OPTIMIZE__) && \
 1505               		.loc 3 257 2 view .LVU375
 261:c:\d\ifsc\vscodeleandro\ex\toolchains\avr-gcc\avr\include\util\delay.h **** 	extern void __builtin_avr_delay_cycles(unsigned long);
 1506               		.loc 3 261 2 view .LVU376
 262:c:\d\ifsc\vscodeleandro\ex\toolchains\avr-gcc\avr\include\util\delay.h **** 	__tmp = ((F_CPU) / 1e6) * __us;
 1507               		.loc 3 262 2 view .LVU377
 263:c:\d\ifsc\vscodeleandro\ex\toolchains\avr-gcc\avr\include\util\delay.h **** 
GAS LISTING C:\Users\kenne\AppData\Local\Temp\ccH82gYi.s 			page 61


 1508               		.loc 3 263 2 view .LVU378
 273:c:\d\ifsc\vscodeleandro\ex\toolchains\avr-gcc\avr\include\util\delay.h **** 	#endif
 1509               		.loc 3 273 3 view .LVU379
 1510               		.loc 3 276 2 view .LVU380
 1511               		.loc 3 276 28 is_stmt 0 view .LVU381
 1512 00ee B5E0      		ldi r27,lo8(5)
 1513 00f0 BA95      	1:	dec r27
 1514 00f2 01F4      		brne 1b
 1515 00f4 0000      		nop
 1516               	.LVL52:
 1517               		.loc 3 276 28 view .LVU382
 1518               	.LBE66:
 1519               	.LBE65:
 643:funsape/device/hd44780.cpp ****         delayUs(1);
 1520               		.loc 2 643 9 is_stmt 1 view .LVU383
 1521 00f6 EA81      		ldd r30,Y+2
 1522 00f8 FB81      		ldd r31,Y+3
 1523 00fa 5081      		ld r21,Z
 1524 00fc 4C81      		ldd r20,Y+4
 1525 00fe 4770      		andi r20,lo8(7)
 1526 0100 00C0      		rjmp 2f
 1527               		1:
 1528 0102 880F      		lsl r24
 1529 0104 991F      		rol r25
 1530               		2:
 1531 0106 4A95      		dec r20
 1532 0108 02F4      		brpl 1b
 1533 010a 8095      		com r24
 1534 010c 8523      		and r24,r21
 1535 010e 8083      		st Z,r24
 644:funsape/device/hd44780.cpp ****         clrMaskOffset(*(this->_dataPout), 0x0F, this->_dataFirst);    // Writes data (lower nibble)
 1536               		.loc 2 644 9 view .LVU384
 1537               	.LVL53:
 1538               	.LBB67:
 1539               	.LBI67:
 255:c:\d\ifsc\vscodeleandro\ex\toolchains\avr-gcc\avr\include\util\delay.h **** {
 1540               		.loc 3 255 1 view .LVU385
 1541               	.LBB68:
 257:c:\d\ifsc\vscodeleandro\ex\toolchains\avr-gcc\avr\include\util\delay.h **** #if __HAS_DELAY_CYCLES && defined(__OPTIMIZE__) && \
 1542               		.loc 3 257 2 view .LVU386
 261:c:\d\ifsc\vscodeleandro\ex\toolchains\avr-gcc\avr\include\util\delay.h **** 	extern void __builtin_avr_delay_cycles(unsigned long);
 1543               		.loc 3 261 2 view .LVU387
 262:c:\d\ifsc\vscodeleandro\ex\toolchains\avr-gcc\avr\include\util\delay.h **** 	__tmp = ((F_CPU) / 1e6) * __us;
 1544               		.loc 3 262 2 view .LVU388
 263:c:\d\ifsc\vscodeleandro\ex\toolchains\avr-gcc\avr\include\util\delay.h **** 
 1545               		.loc 3 263 2 view .LVU389
 273:c:\d\ifsc\vscodeleandro\ex\toolchains\avr-gcc\avr\include\util\delay.h **** 	#endif
 1546               		.loc 3 273 3 view .LVU390
 1547               		.loc 3 276 2 view .LVU391
 1548               		.loc 3 276 28 is_stmt 0 view .LVU392
 1549 0110 45E0      		ldi r20,lo8(5)
 1550 0112 4A95      	1:	dec r20
 1551 0114 01F4      		brne 1b
 1552 0116 0000      		nop
 1553               	.LVL54:
 1554               		.loc 3 276 28 view .LVU393
 1555               	.LBE68:
GAS LISTING C:\Users\kenne\AppData\Local\Temp\ccH82gYi.s 			page 62


 1556               	.LBE67:
 645:funsape/device/hd44780.cpp ****         *(this->_dataPout) |= ((command_p & 0x0F) << this->_dataFirst);
 1557               		.loc 2 645 9 is_stmt 1 view .LVU394
 1558 0118 E885      		ldd r30,Y+8
 1559 011a F985      		ldd r31,Y+9
 1560 011c 9081      		ld r25,Z
 1561 011e 8C85      		ldd r24,Y+12
 1562 0120 8770      		andi r24,lo8(7)
 1563 0122 00C0      		rjmp 2f
 1564               		1:
 1565 0124 220F      		lsl r18
 1566 0126 331F      		rol r19
 1567               		2:
 1568 0128 8A95      		dec r24
 1569 012a 02F4      		brpl 1b
 1570 012c 2095      		com r18
 1571 012e 2923      		and r18,r25
 1572 0130 2083      		st Z,r18
 646:funsape/device/hd44780.cpp ****     } else {
 1573               		.loc 2 646 9 view .LVU395
 646:funsape/device/hd44780.cpp ****     } else {
 1574               		.loc 2 646 17 is_stmt 0 view .LVU396
 1575 0132 E885      		ldd r30,Y+8
 1576 0134 F985      		ldd r31,Y+9
 646:funsape/device/hd44780.cpp ****     } else {
 1577               		.loc 2 646 9 view .LVU397
 1578 0136 2081      		ld r18,Z
 646:funsape/device/hd44780.cpp ****     } else {
 1579               		.loc 2 646 43 view .LVU398
 1580 0138 812F      		mov r24,r17
 1581 013a 8F70      		andi r24,lo8(15)
 1582 013c 90E0      		ldi r25,0
 646:funsape/device/hd44780.cpp ****     } else {
 1583               		.loc 2 646 60 view .LVU399
 1584 013e 3C85      		ldd r19,Y+12
 1585 0140 3770      		andi r19,lo8(7)
 646:funsape/device/hd44780.cpp ****     } else {
 1586               		.loc 2 646 51 view .LVU400
 1587 0142 00C0      		rjmp 2f
 1588               		1:
 1589 0144 880F      		lsl r24
 1590 0146 991F      		rol r25
 1591               		2:
 1592 0148 3A95      		dec r19
 1593 014a 02F4      		brpl 1b
 646:funsape/device/hd44780.cpp ****     } else {
 1594               		.loc 2 646 28 view .LVU401
 1595 014c 822B      		or r24,r18
 1596 014e 8083      		st Z,r24
 1597               	.L41:
 650:funsape/device/hd44780.cpp ****     delayUs(1);
 1598               		.loc 2 650 5 is_stmt 1 view .LVU402
 1599 0150 EA81      		ldd r30,Y+2
 1600 0152 FB81      		ldd r31,Y+3
 1601 0154 4081      		ld r20,Z
 1602 0156 2C81      		ldd r18,Y+4
 1603 0158 2770      		andi r18,lo8(7)
GAS LISTING C:\Users\kenne\AppData\Local\Temp\ccH82gYi.s 			page 63


 1604 015a 81E0      		ldi r24,lo8(1)
 1605 015c 90E0      		ldi r25,0
 1606 015e BC01      		movw r22,r24
 1607 0160 00C0      		rjmp 2f
 1608               		1:
 1609 0162 660F      		lsl r22
 1610 0164 771F      		rol r23
 1611               		2:
 1612 0166 2A95      		dec r18
 1613 0168 02F4      		brpl 1b
 1614 016a 9B01      		movw r18,r22
 1615 016c 242B      		or r18,r20
 1616 016e 2083      		st Z,r18
 651:funsape/device/hd44780.cpp ****     clrBit(*(this->_controlPout), this->_controlE);     // Enable pulse end
 1617               		.loc 2 651 5 view .LVU403
 1618               	.LVL55:
 1619               	.LBB69:
 1620               	.LBI69:
 255:c:\d\ifsc\vscodeleandro\ex\toolchains\avr-gcc\avr\include\util\delay.h **** {
 1621               		.loc 3 255 1 view .LVU404
 1622               	.LBB70:
 257:c:\d\ifsc\vscodeleandro\ex\toolchains\avr-gcc\avr\include\util\delay.h **** #if __HAS_DELAY_CYCLES && defined(__OPTIMIZE__) && \
 1623               		.loc 3 257 2 view .LVU405
 261:c:\d\ifsc\vscodeleandro\ex\toolchains\avr-gcc\avr\include\util\delay.h **** 	extern void __builtin_avr_delay_cycles(unsigned long);
 1624               		.loc 3 261 2 view .LVU406
 262:c:\d\ifsc\vscodeleandro\ex\toolchains\avr-gcc\avr\include\util\delay.h **** 	__tmp = ((F_CPU) / 1e6) * __us;
 1625               		.loc 3 262 2 view .LVU407
 263:c:\d\ifsc\vscodeleandro\ex\toolchains\avr-gcc\avr\include\util\delay.h **** 
 1626               		.loc 3 263 2 view .LVU408
 273:c:\d\ifsc\vscodeleandro\ex\toolchains\avr-gcc\avr\include\util\delay.h **** 	#endif
 1627               		.loc 3 273 3 view .LVU409
 1628               		.loc 3 276 2 view .LVU410
 1629               		.loc 3 276 28 is_stmt 0 view .LVU411
 1630 0170 75E0      		ldi r23,lo8(5)
 1631 0172 7A95      	1:	dec r23
 1632 0174 01F4      		brne 1b
 1633 0176 0000      		nop
 1634               	.LVL56:
 1635               		.loc 3 276 28 view .LVU412
 1636               	.LBE70:
 1637               	.LBE69:
 652:funsape/device/hd44780.cpp ****     delayUs(1);
 1638               		.loc 2 652 5 is_stmt 1 view .LVU413
 1639 0178 EA81      		ldd r30,Y+2
 1640 017a FB81      		ldd r31,Y+3
 1641 017c 3081      		ld r19,Z
 1642 017e 2C81      		ldd r18,Y+4
 1643 0180 2770      		andi r18,lo8(7)
 1644 0182 00C0      		rjmp 2f
 1645               		1:
 1646 0184 880F      		lsl r24
 1647 0186 991F      		rol r25
 1648               		2:
 1649 0188 2A95      		dec r18
 1650 018a 02F4      		brpl 1b
 1651 018c 8095      		com r24
 1652 018e 8323      		and r24,r19
GAS LISTING C:\Users\kenne\AppData\Local\Temp\ccH82gYi.s 			page 64


 1653 0190 8083      		st Z,r24
 653:funsape/device/hd44780.cpp ****     if(!this->_useBusyFlag) {
 1654               		.loc 2 653 5 view .LVU414
 1655               	.LVL57:
 1656               	.LBB71:
 1657               	.LBI71:
 255:c:\d\ifsc\vscodeleandro\ex\toolchains\avr-gcc\avr\include\util\delay.h **** {
 1658               		.loc 3 255 1 view .LVU415
 1659               	.LBB72:
 257:c:\d\ifsc\vscodeleandro\ex\toolchains\avr-gcc\avr\include\util\delay.h **** #if __HAS_DELAY_CYCLES && defined(__OPTIMIZE__) && \
 1660               		.loc 3 257 2 view .LVU416
 261:c:\d\ifsc\vscodeleandro\ex\toolchains\avr-gcc\avr\include\util\delay.h **** 	extern void __builtin_avr_delay_cycles(unsigned long);
 1661               		.loc 3 261 2 view .LVU417
 262:c:\d\ifsc\vscodeleandro\ex\toolchains\avr-gcc\avr\include\util\delay.h **** 	__tmp = ((F_CPU) / 1e6) * __us;
 1662               		.loc 3 262 2 view .LVU418
 263:c:\d\ifsc\vscodeleandro\ex\toolchains\avr-gcc\avr\include\util\delay.h **** 
 1663               		.loc 3 263 2 view .LVU419
 273:c:\d\ifsc\vscodeleandro\ex\toolchains\avr-gcc\avr\include\util\delay.h **** 	#endif
 1664               		.loc 3 273 3 view .LVU420
 1665               		.loc 3 276 2 view .LVU421
 1666               		.loc 3 276 28 is_stmt 0 view .LVU422
 1667 0192 85E0      		ldi r24,lo8(5)
 1668 0194 8A95      	1:	dec r24
 1669 0196 01F4      		brne 1b
 1670 0198 0000      		nop
 1671               	.LVL58:
 1672               		.loc 3 276 28 view .LVU423
 1673               	.LBE72:
 1674               	.LBE71:
 654:funsape/device/hd44780.cpp ****         if((command_p == LCD_CLEAR_DISPLAY) || (command_p == LCD_RETURN_HOME)) {
 1675               		.loc 2 654 5 is_stmt 1 view .LVU424
 654:funsape/device/hd44780.cpp ****         if((command_p == LCD_CLEAR_DISPLAY) || (command_p == LCD_RETURN_HOME)) {
 1676               		.loc 2 654 15 is_stmt 0 view .LVU425
 1677 019a 8C85      		ldd r24,Y+12
 654:funsape/device/hd44780.cpp ****         if((command_p == LCD_CLEAR_DISPLAY) || (command_p == LCD_RETURN_HOME)) {
 1678               		.loc 2 654 5 view .LVU426
 1679 019c 84FD      		sbrc r24,4
 1680 019e 00C0      		rjmp .L42
 655:funsape/device/hd44780.cpp ****             delayMs(2);
 1681               		.loc 2 655 9 is_stmt 1 view .LVU427
 655:funsape/device/hd44780.cpp ****             delayMs(2);
 1682               		.loc 2 655 45 is_stmt 0 view .LVU428
 1683 01a0 1150      		subi r17,lo8(-(-1))
 1684               	.LVL59:
 655:funsape/device/hd44780.cpp ****             delayMs(2);
 1685               		.loc 2 655 9 view .LVU429
 1686 01a2 1230      		cpi r17,lo8(2)
 1687 01a4 00F0      		brlo .L45
 658:funsape/device/hd44780.cpp ****         }
 1688               		.loc 2 658 13 is_stmt 1 view .LVU430
 1689               	.LVL60:
 1690               	.LBB73:
 1691               	.LBI73:
 255:c:\d\ifsc\vscodeleandro\ex\toolchains\avr-gcc\avr\include\util\delay.h **** {
 1692               		.loc 3 255 1 view .LVU431
 1693               	.LBB74:
 257:c:\d\ifsc\vscodeleandro\ex\toolchains\avr-gcc\avr\include\util\delay.h **** #if __HAS_DELAY_CYCLES && defined(__OPTIMIZE__) && \
GAS LISTING C:\Users\kenne\AppData\Local\Temp\ccH82gYi.s 			page 65


 1694               		.loc 3 257 2 view .LVU432
 261:c:\d\ifsc\vscodeleandro\ex\toolchains\avr-gcc\avr\include\util\delay.h **** 	extern void __builtin_avr_delay_cycles(unsigned long);
 1695               		.loc 3 261 2 view .LVU433
 262:c:\d\ifsc\vscodeleandro\ex\toolchains\avr-gcc\avr\include\util\delay.h **** 	__tmp = ((F_CPU) / 1e6) * __us;
 1696               		.loc 3 262 2 view .LVU434
 263:c:\d\ifsc\vscodeleandro\ex\toolchains\avr-gcc\avr\include\util\delay.h **** 
 1697               		.loc 3 263 2 view .LVU435
 273:c:\d\ifsc\vscodeleandro\ex\toolchains\avr-gcc\avr\include\util\delay.h **** 	#endif
 1698               		.loc 3 273 3 view .LVU436
 1699               		.loc 3 276 2 view .LVU437
 1700               		.loc 3 276 28 is_stmt 0 view .LVU438
 1701 01a6 B5ED      		ldi r27,lo8(-43)
 1702 01a8 BA95      	1:	dec r27
 1703 01aa 01F4      		brne 1b
 1704 01ac 0000      		nop
 1705               	.LVL61:
 1706               	.L42:
 1707               		.loc 3 276 28 view .LVU439
 1708               	.LBE74:
 1709               	.LBE73:
 663:funsape/device/hd44780.cpp **** }
 1710               		.loc 2 663 5 is_stmt 1 view .LVU440
 664:funsape/device/hd44780.cpp **** 
 1711               		.loc 2 664 1 is_stmt 0 view .LVU441
 1712 01ae 81E0      		ldi r24,lo8(1)
 1713               	/* epilogue start */
 1714 01b0 DF91      		pop r29
 1715 01b2 CF91      		pop r28
 1716 01b4 1F91      		pop r17
 1717 01b6 0895      		ret
 1718               	.LVL62:
 1719               	.L44:
 632:funsape/device/hd44780.cpp ****         }
 1720               		.loc 2 632 13 is_stmt 1 view .LVU442
 632:funsape/device/hd44780.cpp ****         }
 1721               		.loc 2 632 34 is_stmt 0 view .LVU443
 1722 01b8 CE01      		movw r24,r28
 1723 01ba 0E94 0000 		call _ZN7Hd4478015_waitUntilReadyEv
 1724               	.LVL63:
 1725 01be 00C0      		rjmp .L39
 1726               	.L40:
 648:funsape/device/hd44780.cpp ****     }
 1727               		.loc 2 648 9 is_stmt 1 view .LVU444
 648:funsape/device/hd44780.cpp ****     }
 1728               		.loc 2 648 17 is_stmt 0 view .LVU445
 1729 01c0 E885      		ldd r30,Y+8
 1730 01c2 F985      		ldd r31,Y+9
 648:funsape/device/hd44780.cpp ****     }
 1731               		.loc 2 648 28 view .LVU446
 1732 01c4 1083      		st Z,r17
 1733 01c6 00C0      		rjmp .L41
 1734               	.LVL64:
 1735               	.L45:
 656:funsape/device/hd44780.cpp ****         } else {
 1736               		.loc 2 656 13 is_stmt 1 view .LVU447
 1737               	.LBB75:
 1738               	.LBI75:
GAS LISTING C:\Users\kenne\AppData\Local\Temp\ccH82gYi.s 			page 66


 166:c:\d\ifsc\vscodeleandro\ex\toolchains\avr-gcc\avr\include\util\delay.h **** {
 1739               		.loc 3 166 1 view .LVU448
 1740               	.LBB76:
 168:c:\d\ifsc\vscodeleandro\ex\toolchains\avr-gcc\avr\include\util\delay.h **** #if __HAS_DELAY_CYCLES && defined(__OPTIMIZE__) && \
 1741               		.loc 3 168 2 view .LVU449
 172:c:\d\ifsc\vscodeleandro\ex\toolchains\avr-gcc\avr\include\util\delay.h **** 	extern void __builtin_avr_delay_cycles(unsigned long);
 1742               		.loc 3 172 2 view .LVU450
 173:c:\d\ifsc\vscodeleandro\ex\toolchains\avr-gcc\avr\include\util\delay.h **** 	__tmp = ((F_CPU) / 1e3) * __ms;
 1743               		.loc 3 173 2 view .LVU451
 174:c:\d\ifsc\vscodeleandro\ex\toolchains\avr-gcc\avr\include\util\delay.h **** 
 1744               		.loc 3 174 2 view .LVU452
 184:c:\d\ifsc\vscodeleandro\ex\toolchains\avr-gcc\avr\include\util\delay.h **** 	#endif
 1745               		.loc 3 184 3 view .LVU453
 187:c:\d\ifsc\vscodeleandro\ex\toolchains\avr-gcc\avr\include\util\delay.h **** 
 1746               		.loc 3 187 2 view .LVU454
 187:c:\d\ifsc\vscodeleandro\ex\toolchains\avr-gcc\avr\include\util\delay.h **** 
 1747               		.loc 3 187 28 is_stmt 0 view .LVU455
 1748 01c8 AFE3      		ldi r26,lo8(7999)
 1749 01ca BFE1      		ldi r27,hi8(7999)
 1750 01cc 1197      	1:	sbiw r26,1
 1751 01ce 01F4      		brne 1b
 1752 01d0 00C0      		rjmp .
 1753 01d2 0000      		nop
 210:c:\d\ifsc\vscodeleandro\ex\toolchains\avr-gcc\avr\include\util\delay.h **** 
 1754               		.loc 3 210 1 view .LVU456
 1755 01d4 00C0      		rjmp .L42
 1756               	.LBE76:
 1757               	.LBE75:
 1758               		.cfi_endproc
 1759               	.LFE55:
 1761               		.section	.text._ZN7Hd447804initENS_4SizeENS_4FontEbb,"ax",@progbits
 1762               	.global	_ZN7Hd447804initENS_4SizeENS_4FontEbb
 1764               	_ZN7Hd447804initENS_4SizeENS_4FontEbb:
 1765               	.LVL65:
 1766               	.LFB39:
 147:funsape/device/hd44780.cpp ****     // Mark passage for debugging purpose
 1767               		.loc 2 147 1 is_stmt 1 view -0
 1768               		.cfi_startproc
 147:funsape/device/hd44780.cpp ****     // Mark passage for debugging purpose
 1769               		.loc 2 147 1 is_stmt 0 view .LVU458
 1770 0000 EF92      		push r14
 1771               		.cfi_def_cfa_offset 3
 1772               		.cfi_offset 14, -2
 1773 0002 FF92      		push r15
 1774               		.cfi_def_cfa_offset 4
 1775               		.cfi_offset 15, -3
 1776 0004 0F93      		push r16
 1777               		.cfi_def_cfa_offset 5
 1778               		.cfi_offset 16, -4
 1779 0006 1F93      		push r17
 1780               		.cfi_def_cfa_offset 6
 1781               		.cfi_offset 17, -5
 1782 0008 CF93      		push r28
 1783               		.cfi_def_cfa_offset 7
 1784               		.cfi_offset 28, -6
 1785 000a DF93      		push r29
 1786               		.cfi_def_cfa_offset 8
GAS LISTING C:\Users\kenne\AppData\Local\Temp\ccH82gYi.s 			page 67


 1787               		.cfi_offset 29, -7
 1788               	/* prologue: function */
 1789               	/* frame size = 0 */
 1790               	/* stack size = 6 */
 1791               	.L__stack_usage = 6
 1792 000c C82F      		mov r28,r24
 1793 000e D92F      		mov r29,r25
 1794 0010 162F      		mov r17,r22
 1795 0012 E42E      		mov r14,r20
 1796 0014 F22E      		mov r15,r18
 149:funsape/device/hd44780.cpp **** 
 1797               		.loc 2 149 5 is_stmt 1 view .LVU459
 149:funsape/device/hd44780.cpp **** 
 1798               		.loc 2 149 88 view .LVU460
 151:funsape/device/hd44780.cpp **** 
 1799               		.loc 2 151 5 view .LVU461
 1800               	.LVL66:
 154:funsape/device/hd44780.cpp ****     this->_use4LinesData = interface4Bits_p;
 1801               		.loc 2 154 5 view .LVU462
 154:funsape/device/hd44780.cpp ****     this->_use4LinesData = interface4Bits_p;
 1802               		.loc 2 154 24 is_stmt 0 view .LVU463
 1803 0016 8C85      		ldd r24,Y+12
 1804               	.LVL67:
 154:funsape/device/hd44780.cpp ****     this->_use4LinesData = interface4Bits_p;
 1805               		.loc 2 154 24 view .LVU464
 1806 0018 00FB      		bst r16,0
 1807 001a 84F9      		bld r24,4
 1808 001c 8C87      		std Y+12,r24
 155:funsape/device/hd44780.cpp ****     this->_isBusyInitialized = false;
 1809               		.loc 2 155 5 is_stmt 1 view .LVU465
 155:funsape/device/hd44780.cpp ****     this->_isBusyInitialized = false;
 1810               		.loc 2 155 26 is_stmt 0 view .LVU466
 1811 001e 20FB      		bst r18,0
 1812 0020 83F9      		bld r24,3
 1813 0022 8C87      		std Y+12,r24
 156:funsape/device/hd44780.cpp ****     this->_isInterfaceInitialized = false;
 1814               		.loc 2 156 5 is_stmt 1 view .LVU467
 156:funsape/device/hd44780.cpp ****     this->_isInterfaceInitialized = false;
 1815               		.loc 2 156 30 is_stmt 0 view .LVU468
 1816 0024 8F85      		ldd r24,Y+15
 1817 0026 877F      		andi r24,lo8(~(1<<3))
 1818 0028 8F87      		std Y+15,r24
 157:funsape/device/hd44780.cpp ****     this->_font = font_p;
 1819               		.loc 2 157 5 is_stmt 1 view .LVU469
 157:funsape/device/hd44780.cpp ****     this->_font = font_p;
 1820               		.loc 2 157 35 is_stmt 0 view .LVU470
 1821 002a 8F7E      		andi r24,lo8(~(1<<4))
 1822 002c 8F87      		std Y+15,r24
 158:funsape/device/hd44780.cpp **** 
 1823               		.loc 2 158 5 is_stmt 1 view .LVU471
 158:funsape/device/hd44780.cpp **** 
 1824               		.loc 2 158 17 is_stmt 0 view .LVU472
 1825 002e 8D85      		ldd r24,Y+13
 1826 0030 40FB      		bst r20,0
 1827 0032 85F9      		bld r24,5
 1828               	.LVL68:
 158:funsape/device/hd44780.cpp **** 
GAS LISTING C:\Users\kenne\AppData\Local\Temp\ccH82gYi.s 			page 68


 1829               		.loc 2 158 17 view .LVU473
 1830 0034 8D87      		std Y+13,r24
 161:funsape/device/hd44780.cpp ****         clrMaskOffset(*(this->_dataPout), 0x0F, this->_dataFirst);
 1831               		.loc 2 161 5 is_stmt 1 view .LVU474
 1832 0036 2223      		tst r18
 1833 0038 01F4      		brne .+2
 1834 003a 00C0      		rjmp .L47
 162:funsape/device/hd44780.cpp ****         setMaskOffset(*(this->_dataDir), 0x0F, this->_dataFirst);
 1835               		.loc 2 162 9 view .LVU475
 1836 003c E885      		ldd r30,Y+8
 1837 003e F985      		ldd r31,Y+9
 1838 0040 4081      		ld r20,Z
 1839 0042 8C85      		ldd r24,Y+12
 1840 0044 8770      		andi r24,lo8(7)
 1841 0046 2FE0      		ldi r18,lo8(15)
 1842 0048 30E0      		ldi r19,0
 1843               	.LVL69:
 162:funsape/device/hd44780.cpp ****         setMaskOffset(*(this->_dataDir), 0x0F, this->_dataFirst);
 1844               		.loc 2 162 9 is_stmt 0 view .LVU476
 1845 004a B901      		movw r22,r18
 1846               	.LVL70:
 162:funsape/device/hd44780.cpp ****         setMaskOffset(*(this->_dataDir), 0x0F, this->_dataFirst);
 1847               		.loc 2 162 9 view .LVU477
 1848 004c 00C0      		rjmp 2f
 1849               		1:
 1850 004e 660F      		lsl r22
 1851 0050 771F      		rol r23
 1852               		2:
 1853 0052 8A95      		dec r24
 1854 0054 02F4      		brpl 1b
 1855 0056 CB01      		movw r24,r22
 1856 0058 8095      		com r24
 1857 005a 8423      		and r24,r20
 1858 005c 8083      		st Z,r24
 163:funsape/device/hd44780.cpp ****     } else {
 1859               		.loc 2 163 9 is_stmt 1 view .LVU478
 1860 005e EE81      		ldd r30,Y+6
 1861 0060 FF81      		ldd r31,Y+7
 1862 0062 8081      		ld r24,Z
 1863 0064 9C85      		ldd r25,Y+12
 1864 0066 9770      		andi r25,lo8(7)
 1865 0068 00C0      		rjmp 2f
 1866               		1:
 1867 006a 220F      		lsl r18
 1868 006c 331F      		rol r19
 1869               		2:
 1870 006e 9A95      		dec r25
 1871 0070 02F4      		brpl 1b
 1872 0072 822B      		or r24,r18
 1873 0074 8083      		st Z,r24
 1874               	.L48:
 168:funsape/device/hd44780.cpp ****     setBit(*(this->_controlDir), this->_controlE);
 1875               		.loc 2 168 5 view .LVU479
 1876 0076 EA81      		ldd r30,Y+2
 1877 0078 FB81      		ldd r31,Y+3
 1878 007a 4081      		ld r20,Z
 1879 007c 8C81      		ldd r24,Y+4
GAS LISTING C:\Users\kenne\AppData\Local\Temp\ccH82gYi.s 			page 69


 1880 007e 8770      		andi r24,lo8(7)
 1881 0080 21E0      		ldi r18,lo8(1)
 1882 0082 30E0      		ldi r19,0
 1883 0084 B901      		movw r22,r18
 1884 0086 00C0      		rjmp 2f
 1885               		1:
 1886 0088 660F      		lsl r22
 1887 008a 771F      		rol r23
 1888               		2:
 1889 008c 8A95      		dec r24
 1890 008e 02F4      		brpl 1b
 1891 0090 CB01      		movw r24,r22
 1892 0092 8095      		com r24
 1893 0094 8423      		and r24,r20
 1894 0096 8083      		st Z,r24
 169:funsape/device/hd44780.cpp ****     clrBit(*(this->_controlPout), this->_controlRs);
 1895               		.loc 2 169 5 view .LVU480
 1896 0098 E881      		ld r30,Y
 1897 009a F981      		ldd r31,Y+1
 1898 009c 4081      		ld r20,Z
 1899 009e 8C81      		ldd r24,Y+4
 1900 00a0 8770      		andi r24,lo8(7)
 1901 00a2 B901      		movw r22,r18
 1902 00a4 00C0      		rjmp 2f
 1903               		1:
 1904 00a6 660F      		lsl r22
 1905 00a8 771F      		rol r23
 1906               		2:
 1907 00aa 8A95      		dec r24
 1908 00ac 02F4      		brpl 1b
 1909 00ae CB01      		movw r24,r22
 1910 00b0 842B      		or r24,r20
 1911 00b2 8083      		st Z,r24
 170:funsape/device/hd44780.cpp ****     setBit(*(this->_controlDir), this->_controlRs);
 1912               		.loc 2 170 5 view .LVU481
 1913 00b4 AA81      		ldd r26,Y+2
 1914 00b6 BB81      		ldd r27,Y+3
 1915 00b8 8C91      		ld r24,X
 1916 00ba EC81      		ldd r30,Y+4
 1917 00bc E695      		lsr r30
 1918 00be E695      		lsr r30
 1919 00c0 E695      		lsr r30
 1920 00c2 E770      		andi r30,lo8(7)
 1921 00c4 A901      		movw r20,r18
 1922 00c6 00C0      		rjmp 2f
 1923               		1:
 1924 00c8 440F      		lsl r20
 1925 00ca 551F      		rol r21
 1926               		2:
 1927 00cc EA95      		dec r30
 1928 00ce 02F4      		brpl 1b
 1929 00d0 FA01      		movw r30,r20
 1930 00d2 E095      		com r30
 1931 00d4 E823      		and r30,r24
 1932 00d6 EC93      		st X,r30
 171:funsape/device/hd44780.cpp ****     if(useBusyFlag_p) {
 1933               		.loc 2 171 5 view .LVU482
GAS LISTING C:\Users\kenne\AppData\Local\Temp\ccH82gYi.s 			page 70


 1934 00d8 E881      		ld r30,Y
 1935 00da F981      		ldd r31,Y+1
 1936 00dc 9081      		ld r25,Z
 1937 00de 8C81      		ldd r24,Y+4
 1938 00e0 8695      		lsr r24
 1939 00e2 8695      		lsr r24
 1940 00e4 8695      		lsr r24
 1941 00e6 8770      		andi r24,lo8(7)
 1942 00e8 00C0      		rjmp 2f
 1943               		1:
 1944 00ea 220F      		lsl r18
 1945 00ec 331F      		rol r19
 1946               		2:
 1947 00ee 8A95      		dec r24
 1948 00f0 02F4      		brpl 1b
 1949 00f2 892F      		mov r24,r25
 1950 00f4 822B      		or r24,r18
 1951 00f6 8083      		st Z,r24
 172:funsape/device/hd44780.cpp ****         clrBit(*(this->_controlPout), this->_controlRw);
 1952               		.loc 2 172 5 view .LVU483
 1953 00f8 0023      		tst r16
 1954 00fa 01F0      		breq .L49
 173:funsape/device/hd44780.cpp ****         setBit(*(this->_controlDir), this->_controlRw);
 1955               		.loc 2 173 9 view .LVU484
 1956 00fc EA81      		ldd r30,Y+2
 1957 00fe FB81      		ldd r31,Y+3
 1958 0100 4081      		ld r20,Z
 1959 0102 9C81      		ldd r25,Y+4
 1960 0104 9295      		swap r25
 1961 0106 9695      		lsr r25
 1962 0108 9695      		lsr r25
 1963 010a 9370      		andi r25,lo8(3)
 1964 010c 8D81      		ldd r24,Y+5
 1965 010e 8170      		andi r24,lo8(1)
 1966 0110 880F      		lsl r24
 1967 0112 880F      		lsl r24
 1968 0114 892B      		or r24,r25
 1969 0116 21E0      		ldi r18,lo8(1)
 1970 0118 30E0      		ldi r19,0
 1971 011a B901      		movw r22,r18
 1972 011c 00C0      		rjmp 2f
 1973               		1:
 1974 011e 660F      		lsl r22
 1975 0120 771F      		rol r23
 1976               		2:
 1977 0122 8A95      		dec r24
 1978 0124 02F4      		brpl 1b
 1979 0126 CB01      		movw r24,r22
 1980 0128 8095      		com r24
 1981 012a 8423      		and r24,r20
 1982 012c 8083      		st Z,r24
 174:funsape/device/hd44780.cpp ****     }
 1983               		.loc 2 174 9 view .LVU485
 1984 012e E881      		ld r30,Y
 1985 0130 F981      		ldd r31,Y+1
 1986 0132 9081      		ld r25,Z
 1987 0134 4C81      		ldd r20,Y+4
GAS LISTING C:\Users\kenne\AppData\Local\Temp\ccH82gYi.s 			page 71


 1988 0136 4295      		swap r20
 1989 0138 4695      		lsr r20
 1990 013a 4695      		lsr r20
 1991 013c 4370      		andi r20,lo8(3)
 1992 013e 8D81      		ldd r24,Y+5
 1993 0140 8170      		andi r24,lo8(1)
 1994 0142 880F      		lsl r24
 1995 0144 880F      		lsl r24
 1996 0146 842B      		or r24,r20
 1997 0148 00C0      		rjmp 2f
 1998               		1:
 1999 014a 220F      		lsl r18
 2000 014c 331F      		rol r19
 2001               		2:
 2002 014e 8A95      		dec r24
 2003 0150 02F4      		brpl 1b
 2004 0152 892F      		mov r24,r25
 2005 0154 822B      		or r24,r18
 2006 0156 8083      		st Z,r24
 2007               	.L49:
 178:funsape/device/hd44780.cpp ****     if(interface4Bits_p) {
 2008               		.loc 2 178 5 view .LVU486
 2009               	.LVL71:
 2010               	.LBB77:
 2011               	.LBI77:
 166:c:\d\ifsc\vscodeleandro\ex\toolchains\avr-gcc\avr\include\util\delay.h **** {
 2012               		.loc 3 166 1 view .LVU487
 2013               	.LBB78:
 168:c:\d\ifsc\vscodeleandro\ex\toolchains\avr-gcc\avr\include\util\delay.h **** #if __HAS_DELAY_CYCLES && defined(__OPTIMIZE__) && \
 2014               		.loc 3 168 2 view .LVU488
 172:c:\d\ifsc\vscodeleandro\ex\toolchains\avr-gcc\avr\include\util\delay.h **** 	extern void __builtin_avr_delay_cycles(unsigned long);
 2015               		.loc 3 172 2 view .LVU489
 173:c:\d\ifsc\vscodeleandro\ex\toolchains\avr-gcc\avr\include\util\delay.h **** 	__tmp = ((F_CPU) / 1e3) * __ms;
 2016               		.loc 3 173 2 view .LVU490
 174:c:\d\ifsc\vscodeleandro\ex\toolchains\avr-gcc\avr\include\util\delay.h **** 
 2017               		.loc 3 174 2 view .LVU491
 184:c:\d\ifsc\vscodeleandro\ex\toolchains\avr-gcc\avr\include\util\delay.h **** 	#endif
 2018               		.loc 3 184 3 view .LVU492
 187:c:\d\ifsc\vscodeleandro\ex\toolchains\avr-gcc\avr\include\util\delay.h **** 
 2019               		.loc 3 187 2 view .LVU493
 187:c:\d\ifsc\vscodeleandro\ex\toolchains\avr-gcc\avr\include\util\delay.h **** 
 2020               		.loc 3 187 28 is_stmt 0 view .LVU494
 2021 0158 8FE5      		ldi r24,lo8(-5537)
 2022 015a 9AEE      		ldi r25,hi8(-5537)
 2023 015c 0197      	1:	sbiw r24,1
 2024 015e 01F4      		brne 1b
 2025 0160 00C0      		rjmp .
 2026 0162 0000      		nop
 2027               	.LVL72:
 187:c:\d\ifsc\vscodeleandro\ex\toolchains\avr-gcc\avr\include\util\delay.h **** 
 2028               		.loc 3 187 28 view .LVU495
 2029               	.LBE78:
 2030               	.LBE77:
 179:funsape/device/hd44780.cpp ****         this->_functionSet8Bits(LCD_FUNCTION_SET | LCD_FUNCTION_SET_8_BITS_INTERFACE);
 2031               		.loc 2 179 5 is_stmt 1 view .LVU496
 2032 0164 FF20      		tst r15
 2033 0166 01F4      		brne .+2
GAS LISTING C:\Users\kenne\AppData\Local\Temp\ccH82gYi.s 			page 72


 2034 0168 00C0      		rjmp .L50
 180:funsape/device/hd44780.cpp ****         delayMs(5);
 2035               		.loc 2 180 9 view .LVU497
 180:funsape/device/hd44780.cpp ****         delayMs(5);
 2036               		.loc 2 180 32 is_stmt 0 view .LVU498
 2037 016a 60E3      		ldi r22,lo8(48)
 2038 016c CE01      		movw r24,r28
 2039 016e 0E94 0000 		call _ZN7Hd4478017_functionSet8BitsEh
 2040               	.LVL73:
 181:funsape/device/hd44780.cpp ****         this->_functionSet8Bits(LCD_FUNCTION_SET | LCD_FUNCTION_SET_8_BITS_INTERFACE);
 2041               		.loc 2 181 9 is_stmt 1 view .LVU499
 2042               	.LBB79:
 2043               	.LBI79:
 166:c:\d\ifsc\vscodeleandro\ex\toolchains\avr-gcc\avr\include\util\delay.h **** {
 2044               		.loc 3 166 1 view .LVU500
 2045               	.LBB80:
 168:c:\d\ifsc\vscodeleandro\ex\toolchains\avr-gcc\avr\include\util\delay.h **** #if __HAS_DELAY_CYCLES && defined(__OPTIMIZE__) && \
 2046               		.loc 3 168 2 view .LVU501
 172:c:\d\ifsc\vscodeleandro\ex\toolchains\avr-gcc\avr\include\util\delay.h **** 	extern void __builtin_avr_delay_cycles(unsigned long);
 2047               		.loc 3 172 2 view .LVU502
 173:c:\d\ifsc\vscodeleandro\ex\toolchains\avr-gcc\avr\include\util\delay.h **** 	__tmp = ((F_CPU) / 1e3) * __ms;
 2048               		.loc 3 173 2 view .LVU503
 174:c:\d\ifsc\vscodeleandro\ex\toolchains\avr-gcc\avr\include\util\delay.h **** 
 2049               		.loc 3 174 2 view .LVU504
 184:c:\d\ifsc\vscodeleandro\ex\toolchains\avr-gcc\avr\include\util\delay.h **** 	#endif
 2050               		.loc 3 184 3 view .LVU505
 187:c:\d\ifsc\vscodeleandro\ex\toolchains\avr-gcc\avr\include\util\delay.h **** 
 2051               		.loc 3 187 2 view .LVU506
 187:c:\d\ifsc\vscodeleandro\ex\toolchains\avr-gcc\avr\include\util\delay.h **** 
 2052               		.loc 3 187 28 is_stmt 0 view .LVU507
 2053 0172 8FE1      		ldi r24,lo8(19999)
 2054 0174 9EE4      		ldi r25,hi8(19999)
 2055 0176 0197      	1:	sbiw r24,1
 2056 0178 01F4      		brne 1b
 2057 017a 00C0      		rjmp .
 2058 017c 0000      		nop
 2059               	.LVL74:
 187:c:\d\ifsc\vscodeleandro\ex\toolchains\avr-gcc\avr\include\util\delay.h **** 
 2060               		.loc 3 187 28 view .LVU508
 2061               	.LBE80:
 2062               	.LBE79:
 182:funsape/device/hd44780.cpp ****         delayUs(100);
 2063               		.loc 2 182 9 is_stmt 1 view .LVU509
 182:funsape/device/hd44780.cpp ****         delayUs(100);
 2064               		.loc 2 182 32 is_stmt 0 view .LVU510
 2065 017e 60E3      		ldi r22,lo8(48)
 2066 0180 CE01      		movw r24,r28
 2067 0182 0E94 0000 		call _ZN7Hd4478017_functionSet8BitsEh
 2068               	.LVL75:
 183:funsape/device/hd44780.cpp ****         this->_functionSet8Bits(LCD_FUNCTION_SET | LCD_FUNCTION_SET_8_BITS_INTERFACE);
 2069               		.loc 2 183 9 is_stmt 1 view .LVU511
 2070               	.LBB81:
 2071               	.LBI81:
 255:c:\d\ifsc\vscodeleandro\ex\toolchains\avr-gcc\avr\include\util\delay.h **** {
 2072               		.loc 3 255 1 view .LVU512
 2073               	.LBB82:
 257:c:\d\ifsc\vscodeleandro\ex\toolchains\avr-gcc\avr\include\util\delay.h **** #if __HAS_DELAY_CYCLES && defined(__OPTIMIZE__) && \
GAS LISTING C:\Users\kenne\AppData\Local\Temp\ccH82gYi.s 			page 73


 2074               		.loc 3 257 2 view .LVU513
 261:c:\d\ifsc\vscodeleandro\ex\toolchains\avr-gcc\avr\include\util\delay.h **** 	extern void __builtin_avr_delay_cycles(unsigned long);
 2075               		.loc 3 261 2 view .LVU514
 262:c:\d\ifsc\vscodeleandro\ex\toolchains\avr-gcc\avr\include\util\delay.h **** 	__tmp = ((F_CPU) / 1e6) * __us;
 2076               		.loc 3 262 2 view .LVU515
 263:c:\d\ifsc\vscodeleandro\ex\toolchains\avr-gcc\avr\include\util\delay.h **** 
 2077               		.loc 3 263 2 view .LVU516
 273:c:\d\ifsc\vscodeleandro\ex\toolchains\avr-gcc\avr\include\util\delay.h **** 	#endif
 2078               		.loc 3 273 3 view .LVU517
 2079               		.loc 3 276 2 view .LVU518
 2080               		.loc 3 276 28 is_stmt 0 view .LVU519
 2081 0186 8FE8      		ldi r24,lo8(399)
 2082 0188 91E0      		ldi r25,hi8(399)
 2083 018a 0197      	1:	sbiw r24,1
 2084 018c 01F4      		brne 1b
 2085 018e 00C0      		rjmp .
 2086 0190 0000      		nop
 2087               	.LVL76:
 2088               		.loc 3 276 28 view .LVU520
 2089               	.LBE82:
 2090               	.LBE81:
 184:funsape/device/hd44780.cpp ****     } else {
 2091               		.loc 2 184 9 is_stmt 1 view .LVU521
 184:funsape/device/hd44780.cpp ****     } else {
 2092               		.loc 2 184 32 is_stmt 0 view .LVU522
 2093 0192 60E3      		ldi r22,lo8(48)
 2094 0194 CE01      		movw r24,r28
 2095 0196 0E94 0000 		call _ZN7Hd4478017_functionSet8BitsEh
 2096               	.LVL77:
 2097               	.L51:
 192:funsape/device/hd44780.cpp **** 
 2098               		.loc 2 192 5 is_stmt 1 view .LVU523
 2099               	.LBB83:
 2100               	.LBI83:
 255:c:\d\ifsc\vscodeleandro\ex\toolchains\avr-gcc\avr\include\util\delay.h **** {
 2101               		.loc 3 255 1 view .LVU524
 2102               	.LBB84:
 257:c:\d\ifsc\vscodeleandro\ex\toolchains\avr-gcc\avr\include\util\delay.h **** #if __HAS_DELAY_CYCLES && defined(__OPTIMIZE__) && \
 2103               		.loc 3 257 2 view .LVU525
 261:c:\d\ifsc\vscodeleandro\ex\toolchains\avr-gcc\avr\include\util\delay.h **** 	extern void __builtin_avr_delay_cycles(unsigned long);
 2104               		.loc 3 261 2 view .LVU526
 262:c:\d\ifsc\vscodeleandro\ex\toolchains\avr-gcc\avr\include\util\delay.h **** 	__tmp = ((F_CPU) / 1e6) * __us;
 2105               		.loc 3 262 2 view .LVU527
 263:c:\d\ifsc\vscodeleandro\ex\toolchains\avr-gcc\avr\include\util\delay.h **** 
 2106               		.loc 3 263 2 view .LVU528
 273:c:\d\ifsc\vscodeleandro\ex\toolchains\avr-gcc\avr\include\util\delay.h **** 	#endif
 2107               		.loc 3 273 3 view .LVU529
 2108               		.loc 3 276 2 view .LVU530
 2109               		.loc 3 276 28 is_stmt 0 view .LVU531
 2110 019a 8FE8      		ldi r24,lo8(399)
 2111 019c 91E0      		ldi r25,hi8(399)
 2112 019e 0197      	1:	sbiw r24,1
 2113 01a0 01F4      		brne 1b
 2114 01a2 00C0      		rjmp .
 2115 01a4 0000      		nop
 2116               	.LVL78:
 2117               		.loc 3 276 28 view .LVU532
GAS LISTING C:\Users\kenne\AppData\Local\Temp\ccH82gYi.s 			page 74


 2118               	.LBE84:
 2119               	.LBE83:
 195:funsape/device/hd44780.cpp ****         this->_functionSet8Bits(LCD_FUNCTION_SET | LCD_FUNCTION_SET_4_BITS_INTERFACE);
 2120               		.loc 2 195 5 is_stmt 1 view .LVU533
 2121 01a6 F110      		cpse r15,__zero_reg__
 2122 01a8 00C0      		rjmp .L61
 202:funsape/device/hd44780.cpp ****     auxCmd |= (font_p == Font::FONT_5X8) ? LCD_FUNCTION_SET_5x8_FONT : LCD_FUNCTION_SET_5x10_FONT;
 2123               		.loc 2 202 12 is_stmt 0 view .LVU534
 2124 01aa 60E1      		ldi r22,lo8(16)
 2125               	.LVL79:
 2126               	.L52:
 202:funsape/device/hd44780.cpp ****     auxCmd |= (font_p == Font::FONT_5X8) ? LCD_FUNCTION_SET_5x8_FONT : LCD_FUNCTION_SET_5x10_FONT;
 2127               		.loc 2 202 12 discriminator 4 view .LVU535
 2128 01ac 6062      		ori r22,lo8(32)
 2129               	.LVL80:
 203:funsape/device/hd44780.cpp ****     this->_font = font_p;
 2130               		.loc 2 203 5 is_stmt 1 discriminator 4 view .LVU536
 203:funsape/device/hd44780.cpp ****     this->_font = font_p;
 2131               		.loc 2 203 12 is_stmt 0 discriminator 4 view .LVU537
 2132 01ae EE20      		tst r14
 2133 01b0 01F4      		brne .+2
 2134 01b2 00C0      		rjmp .L58
 203:funsape/device/hd44780.cpp ****     this->_font = font_p;
 2135               		.loc 2 203 12 view .LVU538
 2136 01b4 84E0      		ldi r24,lo8(4)
 2137               	.L53:
 203:funsape/device/hd44780.cpp ****     this->_font = font_p;
 2138               		.loc 2 203 12 discriminator 4 view .LVU539
 2139 01b6 682B      		or r22,r24
 2140               	.LVL81:
 204:funsape/device/hd44780.cpp ****     auxCmd |= (((uint8_t)size_p) < 100) ? LCD_FUNCTION_SET_1_LINE : LCD_FUNCTION_SET_2_LINES;
 2141               		.loc 2 204 5 is_stmt 1 discriminator 4 view .LVU540
 204:funsape/device/hd44780.cpp ****     auxCmd |= (((uint8_t)size_p) < 100) ? LCD_FUNCTION_SET_1_LINE : LCD_FUNCTION_SET_2_LINES;
 2142               		.loc 2 204 17 is_stmt 0 discriminator 4 view .LVU541
 2143 01b8 8D85      		ldd r24,Y+13
 2144 01ba E0FA      		bst r14,0
 2145 01bc 85F9      		bld r24,5
 2146 01be 8D87      		std Y+13,r24
 205:funsape/device/hd44780.cpp ****     this->_writeCommand(auxCmd);
 2147               		.loc 2 205 5 is_stmt 1 discriminator 4 view .LVU542
 205:funsape/device/hd44780.cpp ****     this->_writeCommand(auxCmd);
 2148               		.loc 2 205 12 is_stmt 0 discriminator 4 view .LVU543
 2149 01c0 1436      		cpi r17,lo8(100)
 2150 01c2 00F0      		brlo .+2
 2151 01c4 00C0      		rjmp .L59
 205:funsape/device/hd44780.cpp ****     this->_writeCommand(auxCmd);
 2152               		.loc 2 205 12 view .LVU544
 2153 01c6 80E0      		ldi r24,0
 2154               	.L54:
 205:funsape/device/hd44780.cpp ****     this->_writeCommand(auxCmd);
 2155               		.loc 2 205 12 discriminator 4 view .LVU545
 2156 01c8 682B      		or r22,r24
 2157               	.LVL82:
 206:funsape/device/hd44780.cpp ****     this->_isBusyInitialized = true;
 2158               		.loc 2 206 5 is_stmt 1 discriminator 4 view .LVU546
 206:funsape/device/hd44780.cpp ****     this->_isBusyInitialized = true;
 2159               		.loc 2 206 24 is_stmt 0 discriminator 4 view .LVU547
GAS LISTING C:\Users\kenne\AppData\Local\Temp\ccH82gYi.s 			page 75


 2160 01ca CE01      		movw r24,r28
 2161 01cc 0E94 0000 		call _ZN7Hd4478013_writeCommandEh
 2162               	.LVL83:
 207:funsape/device/hd44780.cpp ****     this->_writeCommand(LCD_DISPLAY_CONTROL | LCD_DISPLAY_CONTROL_DISPLAY_OFF);
 2163               		.loc 2 207 5 is_stmt 1 discriminator 4 view .LVU548
 207:funsape/device/hd44780.cpp ****     this->_writeCommand(LCD_DISPLAY_CONTROL | LCD_DISPLAY_CONTROL_DISPLAY_OFF);
 2164               		.loc 2 207 30 is_stmt 0 discriminator 4 view .LVU549
 2165 01d0 8F85      		ldd r24,Y+15
 2166 01d2 8860      		ori r24,lo8(1<<3)
 2167 01d4 8F87      		std Y+15,r24
 208:funsape/device/hd44780.cpp ****     this->_writeCommand(LCD_CLEAR_DISPLAY);
 2168               		.loc 2 208 5 is_stmt 1 discriminator 4 view .LVU550
 208:funsape/device/hd44780.cpp ****     this->_writeCommand(LCD_CLEAR_DISPLAY);
 2169               		.loc 2 208 24 is_stmt 0 discriminator 4 view .LVU551
 2170 01d6 68E0      		ldi r22,lo8(8)
 2171 01d8 CE01      		movw r24,r28
 2172 01da 0E94 0000 		call _ZN7Hd4478013_writeCommandEh
 2173               	.LVL84:
 209:funsape/device/hd44780.cpp **** 
 2174               		.loc 2 209 5 is_stmt 1 discriminator 4 view .LVU552
 209:funsape/device/hd44780.cpp **** 
 2175               		.loc 2 209 24 is_stmt 0 discriminator 4 view .LVU553
 2176 01de 61E0      		ldi r22,lo8(1)
 2177 01e0 CE01      		movw r24,r28
 2178 01e2 0E94 0000 		call _ZN7Hd4478013_writeCommandEh
 2179               	.LVL85:
 211:funsape/device/hd44780.cpp ****     if(this->_entryIncDec == Step::INCREMENT) {
 2180               		.loc 2 211 5 is_stmt 1 discriminator 4 view .LVU554
 212:funsape/device/hd44780.cpp ****         auxCmd |= LCD_ENTRY_MODE_SET_INCREMENT;
 2181               		.loc 2 212 5 discriminator 4 view .LVU555
 212:funsape/device/hd44780.cpp ****         auxCmd |= LCD_ENTRY_MODE_SET_INCREMENT;
 2182               		.loc 2 212 27 is_stmt 0 discriminator 4 view .LVU556
 2183 01e6 8D85      		ldd r24,Y+13
 212:funsape/device/hd44780.cpp ****         auxCmd |= LCD_ENTRY_MODE_SET_INCREMENT;
 2184               		.loc 2 212 5 discriminator 4 view .LVU557
 2185 01e8 86FF      		sbrs r24,6
 2186 01ea 00C0      		rjmp .L60
 213:funsape/device/hd44780.cpp ****     } else {
 2187               		.loc 2 213 16 view .LVU558
 2188 01ec 66E0      		ldi r22,lo8(6)
 2189               	.L55:
 2190               	.LVL86:
 217:funsape/device/hd44780.cpp ****         auxCmd |= LCD_ENTRY_MODE_SET_SHIFT;
 2191               		.loc 2 217 5 is_stmt 1 view .LVU559
 2192 01ee 8823      		tst r24
 2193 01f0 04F4      		brge .+2
 2194 01f2 00C0      		rjmp .L62
 2195               	.L56:
 222:funsape/device/hd44780.cpp **** 
 2196               		.loc 2 222 5 view .LVU560
 222:funsape/device/hd44780.cpp **** 
 2197               		.loc 2 222 24 is_stmt 0 view .LVU561
 2198 01f4 CE01      		movw r24,r28
 2199 01f6 0E94 0000 		call _ZN7Hd4478013_writeCommandEh
 2200               	.LVL87:
 224:funsape/device/hd44780.cpp **** 
 2201               		.loc 2 224 5 is_stmt 1 view .LVU562
GAS LISTING C:\Users\kenne\AppData\Local\Temp\ccH82gYi.s 			page 76


 224:funsape/device/hd44780.cpp **** 
 2202               		.loc 2 224 24 is_stmt 0 view .LVU563
 2203 01fa 6CE0      		ldi r22,lo8(12)
 2204 01fc CE01      		movw r24,r28
 2205 01fe 0E94 0000 		call _ZN7Hd4478013_writeCommandEh
 2206               	.LVL88:
 227:funsape/device/hd44780.cpp ****     this->_cursorOn = false;
 2207               		.loc 2 227 5 is_stmt 1 view .LVU564
 227:funsape/device/hd44780.cpp ****     this->_cursorOn = false;
 2208               		.loc 2 227 22 is_stmt 0 view .LVU565
 2209 0202 8F85      		ldd r24,Y+15
 2210 0204 8460      		ori r24,lo8(1<<2)
 2211 0206 8F87      		std Y+15,r24
 228:funsape/device/hd44780.cpp ****     this->_cursorBlink = false;
 2212               		.loc 2 228 5 is_stmt 1 view .LVU566
 228:funsape/device/hd44780.cpp ****     this->_cursorBlink = false;
 2213               		.loc 2 228 21 is_stmt 0 view .LVU567
 2214 0208 8D7F      		andi r24,lo8(~(1<<1))
 2215 020a 8F87      		std Y+15,r24
 229:funsape/device/hd44780.cpp ****     this->_cursorLine = 0;
 2216               		.loc 2 229 5 is_stmt 1 view .LVU568
 229:funsape/device/hd44780.cpp ****     this->_cursorLine = 0;
 2217               		.loc 2 229 24 is_stmt 0 view .LVU569
 2218 020c 9E85      		ldd r25,Y+14
 2219 020e 9E7F      		andi r25,lo8(~(1<<0))
 2220 0210 9E87      		std Y+14,r25
 230:funsape/device/hd44780.cpp ****     this->_cursorColumn = 0;
 2221               		.loc 2 230 5 is_stmt 1 view .LVU570
 230:funsape/device/hd44780.cpp ****     this->_cursorColumn = 0;
 2222               		.loc 2 230 23 is_stmt 0 view .LVU571
 2223 0212 292F      		mov r18,r25
 2224 0214 2F77      		andi r18,lo8(127)
 2225 0216 2E87      		std Y+14,r18
 2226 0218 8E7F      		andi r24,lo8(-2)
 2227 021a 8F87      		std Y+15,r24
 231:funsape/device/hd44780.cpp ****     this->_lines = ((((uint8_t)size_p) * 2) / 100) - 1;
 2228               		.loc 2 231 5 is_stmt 1 view .LVU572
 231:funsape/device/hd44780.cpp ****     this->_lines = ((((uint8_t)size_p) * 2) / 100) - 1;
 2229               		.loc 2 231 25 is_stmt 0 view .LVU573
 2230 021c 9170      		andi r25,lo8(1)
 2231 021e 9E87      		std Y+14,r25
 232:funsape/device/hd44780.cpp ****     this->_columns = ((((uint8_t)size_p) * 2) % 100) - 1;
 2232               		.loc 2 232 5 is_stmt 1 view .LVU574
 232:funsape/device/hd44780.cpp ****     this->_columns = ((((uint8_t)size_p) * 2) % 100) - 1;
 2233               		.loc 2 232 23 is_stmt 0 view .LVU575
 2234 0220 E12F      		mov r30,r17
 2235 0222 F0E0      		ldi r31,0
 232:funsape/device/hd44780.cpp ****     this->_columns = ((((uint8_t)size_p) * 2) % 100) - 1;
 2236               		.loc 2 232 52 view .LVU576
 2237 0224 CF01      		movw r24,r30
 2238 0226 62E3      		ldi r22,lo8(50)
 2239 0228 70E0      		ldi r23,0
 2240 022a 0E94 0000 		call __divmodhi4
 2241 022e 2FEF      		ldi r18,lo8(-1)
 2242 0230 260F      		add r18,r22
 232:funsape/device/hd44780.cpp ****     this->_columns = ((((uint8_t)size_p) * 2) % 100) - 1;
 2243               		.loc 2 232 18 view .LVU577
GAS LISTING C:\Users\kenne\AppData\Local\Temp\ccH82gYi.s 			page 77


 2244 0232 2370      		andi r18,lo8(3)
 2245 0234 220F      		lsl r18
 2246 0236 220F      		lsl r18
 2247 0238 220F      		lsl r18
 2248 023a 8D85      		ldd r24,Y+13
 2249 023c 877E      		andi r24,lo8(-25)
 2250 023e 282B      		or r18,r24
 2251 0240 2D87      		std Y+13,r18
 233:funsape/device/hd44780.cpp **** 
 2252               		.loc 2 233 5 is_stmt 1 view .LVU578
 233:funsape/device/hd44780.cpp **** 
 2253               		.loc 2 233 42 is_stmt 0 view .LVU579
 2254 0242 CF01      		movw r24,r30
 2255 0244 880F      		lsl r24
 2256 0246 991F      		rol r25
 233:funsape/device/hd44780.cpp **** 
 2257               		.loc 2 233 47 view .LVU580
 2258 0248 64E6      		ldi r22,lo8(100)
 2259 024a 70E0      		ldi r23,0
 2260 024c 0E94 0000 		call __divmodhi4
 233:funsape/device/hd44780.cpp **** 
 2261               		.loc 2 233 54 view .LVU581
 2262 0250 8150      		subi r24,lo8(-(-1))
 233:funsape/device/hd44780.cpp **** 
 2263               		.loc 2 233 20 view .LVU582
 2264 0252 982F      		mov r25,r24
 2265 0254 9295      		swap r25
 2266 0256 990F      		lsl r25
 2267 0258 907E      		andi r25,lo8(-32)
 2268 025a 3C85      		ldd r19,Y+12
 2269 025c 3F71      		andi r19,lo8(31)
 2270 025e 932B      		or r25,r19
 2271 0260 9C87      		std Y+12,r25
 2272 0262 8695      		lsr r24
 2273 0264 8695      		lsr r24
 2274 0266 8695      		lsr r24
 2275 0268 8770      		andi r24,lo8(7)
 2276 026a 287F      		andi r18,lo8(-8)
 2277 026c 282B      		or r18,r24
 2278 026e 2D87      		std Y+13,r18
 236:funsape/device/hd44780.cpp ****     debugMessage(Error::NONE, DEBUG_HD44780);
 2279               		.loc 2 236 5 is_stmt 1 view .LVU583
 236:funsape/device/hd44780.cpp ****     debugMessage(Error::NONE, DEBUG_HD44780);
 2280               		.loc 2 236 22 is_stmt 0 view .LVU584
 2281 0270 198A      		std Y+17,__zero_reg__
 2282 0272 188A      		std Y+16,__zero_reg__
 237:funsape/device/hd44780.cpp ****     return true;
 2283               		.loc 2 237 5 is_stmt 1 view .LVU585
 237:funsape/device/hd44780.cpp ****     return true;
 2284               		.loc 2 237 45 view .LVU586
 238:funsape/device/hd44780.cpp **** }
 2285               		.loc 2 238 5 view .LVU587
 239:funsape/device/hd44780.cpp **** 
 2286               		.loc 2 239 1 is_stmt 0 view .LVU588
 2287 0274 81E0      		ldi r24,lo8(1)
 2288               	/* epilogue start */
 2289 0276 DF91      		pop r29
GAS LISTING C:\Users\kenne\AppData\Local\Temp\ccH82gYi.s 			page 78


 2290 0278 CF91      		pop r28
 2291 027a 1F91      		pop r17
 2292               	.LVL89:
 239:funsape/device/hd44780.cpp **** 
 2293               		.loc 2 239 1 view .LVU589
 2294 027c 0F91      		pop r16
 2295               	.LVL90:
 239:funsape/device/hd44780.cpp **** 
 2296               		.loc 2 239 1 view .LVU590
 2297 027e FF90      		pop r15
 2298               	.LVL91:
 239:funsape/device/hd44780.cpp **** 
 2299               		.loc 2 239 1 view .LVU591
 2300 0280 EF90      		pop r14
 2301 0282 0895      		ret
 2302               	.LVL92:
 2303               	.L47:
 165:funsape/device/hd44780.cpp ****         *(this->_dataDir) = 0xFF;
 2304               		.loc 2 165 9 is_stmt 1 view .LVU592
 165:funsape/device/hd44780.cpp ****         *(this->_dataDir) = 0xFF;
 2305               		.loc 2 165 17 is_stmt 0 view .LVU593
 2306 0284 E885      		ldd r30,Y+8
 2307 0286 F985      		ldd r31,Y+9
 165:funsape/device/hd44780.cpp ****         *(this->_dataDir) = 0xFF;
 2308               		.loc 2 165 28 view .LVU594
 2309 0288 1082      		st Z,__zero_reg__
 166:funsape/device/hd44780.cpp ****     }
 2310               		.loc 2 166 9 is_stmt 1 view .LVU595
 166:funsape/device/hd44780.cpp ****     }
 2311               		.loc 2 166 17 is_stmt 0 view .LVU596
 2312 028a EE81      		ldd r30,Y+6
 2313 028c FF81      		ldd r31,Y+7
 166:funsape/device/hd44780.cpp ****     }
 2314               		.loc 2 166 27 view .LVU597
 2315 028e 8FEF      		ldi r24,lo8(-1)
 2316 0290 8083      		st Z,r24
 2317 0292 00C0      		rjmp .L48
 2318               	.L50:
 186:funsape/device/hd44780.cpp ****         delayMs(5);
 2319               		.loc 2 186 9 is_stmt 1 view .LVU598
 186:funsape/device/hd44780.cpp ****         delayMs(5);
 2320               		.loc 2 186 28 is_stmt 0 view .LVU599
 2321 0294 60E3      		ldi r22,lo8(48)
 2322 0296 CE01      		movw r24,r28
 2323 0298 0E94 0000 		call _ZN7Hd4478013_writeCommandEh
 2324               	.LVL93:
 187:funsape/device/hd44780.cpp ****         this->_writeCommand(LCD_FUNCTION_SET | LCD_FUNCTION_SET_8_BITS_INTERFACE);
 2325               		.loc 2 187 9 is_stmt 1 view .LVU600
 2326               	.LBB85:
 2327               	.LBI85:
 166:c:\d\ifsc\vscodeleandro\ex\toolchains\avr-gcc\avr\include\util\delay.h **** {
 2328               		.loc 3 166 1 view .LVU601
 2329               	.LBB86:
 168:c:\d\ifsc\vscodeleandro\ex\toolchains\avr-gcc\avr\include\util\delay.h **** #if __HAS_DELAY_CYCLES && defined(__OPTIMIZE__) && \
 2330               		.loc 3 168 2 view .LVU602
 172:c:\d\ifsc\vscodeleandro\ex\toolchains\avr-gcc\avr\include\util\delay.h **** 	extern void __builtin_avr_delay_cycles(unsigned long);
 2331               		.loc 3 172 2 view .LVU603
GAS LISTING C:\Users\kenne\AppData\Local\Temp\ccH82gYi.s 			page 79


 173:c:\d\ifsc\vscodeleandro\ex\toolchains\avr-gcc\avr\include\util\delay.h **** 	__tmp = ((F_CPU) / 1e3) * __ms;
 2332               		.loc 3 173 2 view .LVU604
 174:c:\d\ifsc\vscodeleandro\ex\toolchains\avr-gcc\avr\include\util\delay.h **** 
 2333               		.loc 3 174 2 view .LVU605
 184:c:\d\ifsc\vscodeleandro\ex\toolchains\avr-gcc\avr\include\util\delay.h **** 	#endif
 2334               		.loc 3 184 3 view .LVU606
 187:c:\d\ifsc\vscodeleandro\ex\toolchains\avr-gcc\avr\include\util\delay.h **** 
 2335               		.loc 3 187 2 view .LVU607
 187:c:\d\ifsc\vscodeleandro\ex\toolchains\avr-gcc\avr\include\util\delay.h **** 
 2336               		.loc 3 187 28 is_stmt 0 view .LVU608
 2337 029c 8FE1      		ldi r24,lo8(19999)
 2338 029e 9EE4      		ldi r25,hi8(19999)
 2339 02a0 0197      	1:	sbiw r24,1
 2340 02a2 01F4      		brne 1b
 2341 02a4 00C0      		rjmp .
 2342 02a6 0000      		nop
 2343               	.LVL94:
 187:c:\d\ifsc\vscodeleandro\ex\toolchains\avr-gcc\avr\include\util\delay.h **** 
 2344               		.loc 3 187 28 view .LVU609
 2345               	.LBE86:
 2346               	.LBE85:
 188:funsape/device/hd44780.cpp ****         delayUs(100);
 2347               		.loc 2 188 9 is_stmt 1 view .LVU610
 188:funsape/device/hd44780.cpp ****         delayUs(100);
 2348               		.loc 2 188 28 is_stmt 0 view .LVU611
 2349 02a8 60E3      		ldi r22,lo8(48)
 2350 02aa CE01      		movw r24,r28
 2351 02ac 0E94 0000 		call _ZN7Hd4478013_writeCommandEh
 2352               	.LVL95:
 189:funsape/device/hd44780.cpp ****         this->_writeCommand(LCD_FUNCTION_SET | LCD_FUNCTION_SET_8_BITS_INTERFACE);
 2353               		.loc 2 189 9 is_stmt 1 view .LVU612
 2354               	.LBB87:
 2355               	.LBI87:
 255:c:\d\ifsc\vscodeleandro\ex\toolchains\avr-gcc\avr\include\util\delay.h **** {
 2356               		.loc 3 255 1 view .LVU613
 2357               	.LBB88:
 257:c:\d\ifsc\vscodeleandro\ex\toolchains\avr-gcc\avr\include\util\delay.h **** #if __HAS_DELAY_CYCLES && defined(__OPTIMIZE__) && \
 2358               		.loc 3 257 2 view .LVU614
 261:c:\d\ifsc\vscodeleandro\ex\toolchains\avr-gcc\avr\include\util\delay.h **** 	extern void __builtin_avr_delay_cycles(unsigned long);
 2359               		.loc 3 261 2 view .LVU615
 262:c:\d\ifsc\vscodeleandro\ex\toolchains\avr-gcc\avr\include\util\delay.h **** 	__tmp = ((F_CPU) / 1e6) * __us;
 2360               		.loc 3 262 2 view .LVU616
 263:c:\d\ifsc\vscodeleandro\ex\toolchains\avr-gcc\avr\include\util\delay.h **** 
 2361               		.loc 3 263 2 view .LVU617
 273:c:\d\ifsc\vscodeleandro\ex\toolchains\avr-gcc\avr\include\util\delay.h **** 	#endif
 2362               		.loc 3 273 3 view .LVU618
 2363               		.loc 3 276 2 view .LVU619
 2364               		.loc 3 276 28 is_stmt 0 view .LVU620
 2365 02b0 8FE8      		ldi r24,lo8(399)
 2366 02b2 91E0      		ldi r25,hi8(399)
 2367 02b4 0197      	1:	sbiw r24,1
 2368 02b6 01F4      		brne 1b
 2369 02b8 00C0      		rjmp .
 2370 02ba 0000      		nop
 2371               	.LVL96:
 2372               		.loc 3 276 28 view .LVU621
 2373               	.LBE88:
GAS LISTING C:\Users\kenne\AppData\Local\Temp\ccH82gYi.s 			page 80


 2374               	.LBE87:
 190:funsape/device/hd44780.cpp ****     }
 2375               		.loc 2 190 9 is_stmt 1 view .LVU622
 190:funsape/device/hd44780.cpp ****     }
 2376               		.loc 2 190 28 is_stmt 0 view .LVU623
 2377 02bc 60E3      		ldi r22,lo8(48)
 2378 02be CE01      		movw r24,r28
 2379 02c0 0E94 0000 		call _ZN7Hd4478013_writeCommandEh
 2380               	.LVL97:
 2381 02c4 00C0      		rjmp .L51
 2382               	.L61:
 196:funsape/device/hd44780.cpp ****         delayUs(100);
 2383               		.loc 2 196 9 is_stmt 1 view .LVU624
 196:funsape/device/hd44780.cpp ****         delayUs(100);
 2384               		.loc 2 196 32 is_stmt 0 view .LVU625
 2385 02c6 60E2      		ldi r22,lo8(32)
 2386 02c8 CE01      		movw r24,r28
 2387 02ca 0E94 0000 		call _ZN7Hd4478017_functionSet8BitsEh
 2388               	.LVL98:
 197:funsape/device/hd44780.cpp ****     }
 2389               		.loc 2 197 9 is_stmt 1 view .LVU626
 2390               	.LBB89:
 2391               	.LBI89:
 255:c:\d\ifsc\vscodeleandro\ex\toolchains\avr-gcc\avr\include\util\delay.h **** {
 2392               		.loc 3 255 1 view .LVU627
 2393               	.LBB90:
 257:c:\d\ifsc\vscodeleandro\ex\toolchains\avr-gcc\avr\include\util\delay.h **** #if __HAS_DELAY_CYCLES && defined(__OPTIMIZE__) && \
 2394               		.loc 3 257 2 view .LVU628
 261:c:\d\ifsc\vscodeleandro\ex\toolchains\avr-gcc\avr\include\util\delay.h **** 	extern void __builtin_avr_delay_cycles(unsigned long);
 2395               		.loc 3 261 2 view .LVU629
 262:c:\d\ifsc\vscodeleandro\ex\toolchains\avr-gcc\avr\include\util\delay.h **** 	__tmp = ((F_CPU) / 1e6) * __us;
 2396               		.loc 3 262 2 view .LVU630
 263:c:\d\ifsc\vscodeleandro\ex\toolchains\avr-gcc\avr\include\util\delay.h **** 
 2397               		.loc 3 263 2 view .LVU631
 273:c:\d\ifsc\vscodeleandro\ex\toolchains\avr-gcc\avr\include\util\delay.h **** 	#endif
 2398               		.loc 3 273 3 view .LVU632
 2399               		.loc 3 276 2 view .LVU633
 2400               		.loc 3 276 28 is_stmt 0 view .LVU634
 2401 02ce 8FE8      		ldi r24,lo8(399)
 2402 02d0 91E0      		ldi r25,hi8(399)
 2403 02d2 0197      	1:	sbiw r24,1
 2404 02d4 01F4      		brne 1b
 2405 02d6 00C0      		rjmp .
 2406 02d8 0000      		nop
 2407               	.LVL99:
 2408               		.loc 3 276 28 view .LVU635
 2409               	.LBE90:
 2410               	.LBE89:
 201:funsape/device/hd44780.cpp ****     auxCmd |= (interface4Bits_p) ? LCD_FUNCTION_SET_4_BITS_INTERFACE : LCD_FUNCTION_SET_8_BITS_INTE
 2411               		.loc 2 201 5 is_stmt 1 view .LVU636
 202:funsape/device/hd44780.cpp ****     auxCmd |= (font_p == Font::FONT_5X8) ? LCD_FUNCTION_SET_5x8_FONT : LCD_FUNCTION_SET_5x10_FONT;
 2412               		.loc 2 202 5 view .LVU637
 202:funsape/device/hd44780.cpp ****     auxCmd |= (font_p == Font::FONT_5X8) ? LCD_FUNCTION_SET_5x8_FONT : LCD_FUNCTION_SET_5x10_FONT;
 2413               		.loc 2 202 12 is_stmt 0 view .LVU638
 2414 02da 60E0      		ldi r22,0
 2415 02dc 00C0      		rjmp .L52
 2416               	.LVL100:
GAS LISTING C:\Users\kenne\AppData\Local\Temp\ccH82gYi.s 			page 81


 2417               	.L58:
 203:funsape/device/hd44780.cpp ****     this->_font = font_p;
 2418               		.loc 2 203 12 view .LVU639
 2419 02de 80E0      		ldi r24,0
 2420 02e0 00C0      		rjmp .L53
 2421               	.L59:
 205:funsape/device/hd44780.cpp ****     this->_writeCommand(auxCmd);
 2422               		.loc 2 205 12 view .LVU640
 2423 02e2 88E0      		ldi r24,lo8(8)
 2424 02e4 00C0      		rjmp .L54
 2425               	.LVL101:
 2426               	.L60:
 215:funsape/device/hd44780.cpp ****     }
 2427               		.loc 2 215 16 view .LVU641
 2428 02e6 64E0      		ldi r22,lo8(4)
 2429 02e8 00C0      		rjmp .L55
 2430               	.LVL102:
 2431               	.L62:
 218:funsape/device/hd44780.cpp ****     } else {
 2432               		.loc 2 218 9 is_stmt 1 view .LVU642
 218:funsape/device/hd44780.cpp ****     } else {
 2433               		.loc 2 218 16 is_stmt 0 view .LVU643
 2434 02ea 6160      		ori r22,lo8(1)
 2435               	.LVL103:
 218:funsape/device/hd44780.cpp ****     } else {
 2436               		.loc 2 218 16 view .LVU644
 2437 02ec 00C0      		rjmp .L56
 2438               		.cfi_endproc
 2439               	.LFE39:
 2441               		.section	.text._ZN7Hd4478011clearScreenEv,"ax",@progbits
 2442               	.global	_ZN7Hd4478011clearScreenEv
 2444               	_ZN7Hd4478011clearScreenEv:
 2445               	.LVL104:
 2446               	.LFB42:
 325:funsape/device/hd44780.cpp ****     // Mark passage for debugging purpose
 2447               		.loc 2 325 1 is_stmt 1 view -0
 2448               		.cfi_startproc
 325:funsape/device/hd44780.cpp ****     // Mark passage for debugging purpose
 2449               		.loc 2 325 1 is_stmt 0 view .LVU646
 2450 0000 CF93      		push r28
 2451               		.cfi_def_cfa_offset 3
 2452               		.cfi_offset 28, -2
 2453 0002 DF93      		push r29
 2454               		.cfi_def_cfa_offset 4
 2455               		.cfi_offset 29, -3
 2456               	/* prologue: function */
 2457               	/* frame size = 0 */
 2458               	/* stack size = 2 */
 2459               	.L__stack_usage = 2
 2460 0004 C82F      		mov r28,r24
 2461 0006 D92F      		mov r29,r25
 327:funsape/device/hd44780.cpp **** 
 2462               		.loc 2 327 5 is_stmt 1 view .LVU647
 327:funsape/device/hd44780.cpp **** 
 2463               		.loc 2 327 59 view .LVU648
 330:funsape/device/hd44780.cpp ****         // Returns error
 2464               		.loc 2 330 5 view .LVU649
GAS LISTING C:\Users\kenne\AppData\Local\Temp\ccH82gYi.s 			page 82


 330:funsape/device/hd44780.cpp ****         // Returns error
 2465               		.loc 2 330 28 is_stmt 0 view .LVU650
 2466 0008 61E0      		ldi r22,lo8(1)
 2467 000a CE01      		movw r24,r28
 2468               	.LVL105:
 330:funsape/device/hd44780.cpp ****         // Returns error
 2469               		.loc 2 330 28 view .LVU651
 2470 000c 0E94 0000 		call _ZN7Hd4478013_writeCommandEh
 2471               	.LVL106:
 330:funsape/device/hd44780.cpp ****         // Returns error
 2472               		.loc 2 330 5 view .LVU652
 2473 0010 8823      		tst r24
 2474 0012 01F0      		breq .L63
 335:funsape/device/hd44780.cpp ****     this->_cursorColumn = 0;
 2475               		.loc 2 335 5 is_stmt 1 view .LVU653
 335:funsape/device/hd44780.cpp ****     this->_cursorColumn = 0;
 2476               		.loc 2 335 23 is_stmt 0 view .LVU654
 2477 0014 9E85      		ldd r25,Y+14
 2478 0016 292F      		mov r18,r25
 2479 0018 2F77      		andi r18,lo8(127)
 2480 001a 2E87      		std Y+14,r18
 2481 001c 2F85      		ldd r18,Y+15
 2482 001e 2E7F      		andi r18,lo8(-2)
 2483 0020 2F87      		std Y+15,r18
 336:funsape/device/hd44780.cpp **** 
 2484               		.loc 2 336 5 is_stmt 1 view .LVU655
 336:funsape/device/hd44780.cpp **** 
 2485               		.loc 2 336 25 is_stmt 0 view .LVU656
 2486 0022 9170      		andi r25,lo8(1)
 2487 0024 9E87      		std Y+14,r25
 339:funsape/device/hd44780.cpp ****     debugMessage(Error::NONE, DEBUG_HD44780);
 2488               		.loc 2 339 5 is_stmt 1 view .LVU657
 339:funsape/device/hd44780.cpp ****     debugMessage(Error::NONE, DEBUG_HD44780);
 2489               		.loc 2 339 22 is_stmt 0 view .LVU658
 2490 0026 198A      		std Y+17,__zero_reg__
 2491 0028 188A      		std Y+16,__zero_reg__
 340:funsape/device/hd44780.cpp ****     return true;
 2492               		.loc 2 340 5 is_stmt 1 view .LVU659
 340:funsape/device/hd44780.cpp ****     return true;
 2493               		.loc 2 340 45 view .LVU660
 341:funsape/device/hd44780.cpp **** }
 2494               		.loc 2 341 5 view .LVU661
 2495               	.L63:
 2496               	/* epilogue start */
 342:funsape/device/hd44780.cpp **** 
 2497               		.loc 2 342 1 is_stmt 0 view .LVU662
 2498 002a DF91      		pop r29
 2499 002c CF91      		pop r28
 2500 002e 0895      		ret
 2501               		.cfi_endproc
 2502               	.LFE42:
 2504               		.section	.text._ZN7Hd4478010cursorGoToEhh,"ax",@progbits
 2505               	.global	_ZN7Hd4478010cursorGoToEhh
 2507               	_ZN7Hd4478010cursorGoToEhh:
 2508               	.LVL107:
 2509               	.LFB43:
 345:funsape/device/hd44780.cpp ****     // Mark passage for debugging purpose
GAS LISTING C:\Users\kenne\AppData\Local\Temp\ccH82gYi.s 			page 83


 2510               		.loc 2 345 1 is_stmt 1 view -0
 2511               		.cfi_startproc
 345:funsape/device/hd44780.cpp ****     // Mark passage for debugging purpose
 2512               		.loc 2 345 1 is_stmt 0 view .LVU664
 2513 0000 CF93      		push r28
 2514               		.cfi_def_cfa_offset 3
 2515               		.cfi_offset 28, -2
 2516 0002 DF93      		push r29
 2517               		.cfi_def_cfa_offset 4
 2518               		.cfi_offset 29, -3
 2519               	/* prologue: function */
 2520               	/* frame size = 0 */
 2521               	/* stack size = 2 */
 2522               	.L__stack_usage = 2
 2523 0004 C82F      		mov r28,r24
 2524 0006 D92F      		mov r29,r25
 347:funsape/device/hd44780.cpp **** 
 2525               		.loc 2 347 5 is_stmt 1 view .LVU665
 347:funsape/device/hd44780.cpp **** 
 2526               		.loc 2 347 72 view .LVU666
 350:funsape/device/hd44780.cpp **** 
 2527               		.loc 2 350 5 view .LVU667
 2528               	.LVL108:
 352:funsape/device/hd44780.cpp ****     case 0:     // Go to line 0
 2529               		.loc 2 352 5 view .LVU668
 2530 0008 6230      		cpi r22,lo8(2)
 2531 000a 01F0      		breq .L66
 2532 000c 00F4      		brsh .L67
 2533 000e 6623      		tst r22
 2534 0010 01F4      		brne .+2
 2535 0012 00C0      		rjmp .L76
 2536 0014 6130      		cpi r22,lo8(1)
 2537 0016 01F0      		breq .+2
 2538 0018 00C0      		rjmp .L70
 356:funsape/device/hd44780.cpp ****         address = (this->_lines >= 1) ? (0x40 + column_p) : 0xFF;
 2539               		.loc 2 356 5 view .LVU669
 357:funsape/device/hd44780.cpp ****         break;
 2540               		.loc 2 357 9 view .LVU670
 357:funsape/device/hd44780.cpp ****         break;
 2541               		.loc 2 357 33 is_stmt 0 view .LVU671
 2542 001a 8D85      		ldd r24,Y+13
 2543               	.LVL109:
 357:funsape/device/hd44780.cpp ****         break;
 2544               		.loc 2 357 33 view .LVU672
 2545 001c 8871      		andi r24,lo8(24)
 357:funsape/device/hd44780.cpp ****         break;
 2546               		.loc 2 357 17 view .LVU673
 2547 001e 8823      		tst r24
 2548 0020 01F4      		brne .+2
 2549 0022 00C0      		rjmp .L70
 357:funsape/device/hd44780.cpp ****         break;
 2550               		.loc 2 357 17 discriminator 1 view .LVU674
 2551 0024 90E4      		ldi r25,lo8(64)
 2552 0026 940F      		add r25,r20
 2553               	.LVL110:
 358:funsape/device/hd44780.cpp ****     case 2:     // Go to line 2
 2554               		.loc 2 358 9 is_stmt 1 discriminator 1 view .LVU675
GAS LISTING C:\Users\kenne\AppData\Local\Temp\ccH82gYi.s 			page 84


 2555 0028 00C0      		rjmp .L68
 2556               	.LVL111:
 2557               	.L67:
 352:funsape/device/hd44780.cpp ****     case 0:     // Go to line 0
 2558               		.loc 2 352 5 is_stmt 0 view .LVU676
 2559 002a 6330      		cpi r22,lo8(3)
 2560 002c 01F0      		breq .+2
 2561 002e 00C0      		rjmp .L70
 368:funsape/device/hd44780.cpp ****         if((this->_lines == 3) && (this->_columns == 11)) {             // Display 12x4
 2562               		.loc 2 368 5 is_stmt 1 view .LVU677
 369:funsape/device/hd44780.cpp ****             address = 0x4C + column_p;
 2563               		.loc 2 369 9 view .LVU678
 369:funsape/device/hd44780.cpp ****             address = 0x4C + column_p;
 2564               		.loc 2 369 26 is_stmt 0 view .LVU679
 2565 0030 8D85      		ldd r24,Y+13
 2566               	.LVL112:
 369:funsape/device/hd44780.cpp ****             address = 0x4C + column_p;
 2567               		.loc 2 369 26 view .LVU680
 2568 0032 8871      		andi r24,lo8(24)
 369:funsape/device/hd44780.cpp ****             address = 0x4C + column_p;
 2569               		.loc 2 369 9 view .LVU681
 2570 0034 8831      		cpi r24,lo8(24)
 2571 0036 01F4      		brne .+2
 2572 0038 00C0      		rjmp .L77
 2573               	.L74:
 371:funsape/device/hd44780.cpp ****             address = 0x50 + column_p;
 2574               		.loc 2 371 16 is_stmt 1 view .LVU682
 2575 003a 8831      		cpi r24,lo8(24)
 2576 003c 01F4      		brne .+2
 2577 003e 00C0      		rjmp .L78
 2578               	.L75:
 373:funsape/device/hd44780.cpp ****             address = 0x54 + column_p;
 2579               		.loc 2 373 16 view .LVU683
 2580 0040 8831      		cpi r24,lo8(24)
 2581 0042 01F0      		breq .+2
 2582 0044 00C0      		rjmp .L70
 373:funsape/device/hd44780.cpp ****             address = 0x54 + column_p;
 2583               		.loc 2 373 49 is_stmt 0 discriminator 1 view .LVU684
 2584 0046 9C85      		ldd r25,Y+12
 2585 0048 9295      		swap r25
 2586 004a 9695      		lsr r25
 2587 004c 9770      		andi r25,lo8(7)
 2588 004e 8D85      		ldd r24,Y+13
 2589 0050 8770      		andi r24,lo8(7)
 2590 0052 880F      		lsl r24
 2591 0054 880F      		lsl r24
 2592 0056 880F      		lsl r24
 2593 0058 892B      		or r24,r25
 373:funsape/device/hd44780.cpp ****             address = 0x54 + column_p;
 2594               		.loc 2 373 39 discriminator 1 view .LVU685
 2595 005a 8331      		cpi r24,lo8(19)
 2596 005c 01F0      		breq .+2
 2597 005e 00C0      		rjmp .L70
 374:funsape/device/hd44780.cpp ****         }
 2598               		.loc 2 374 13 is_stmt 1 view .LVU686
 374:funsape/device/hd44780.cpp ****         }
 2599               		.loc 2 374 21 is_stmt 0 view .LVU687
GAS LISTING C:\Users\kenne\AppData\Local\Temp\ccH82gYi.s 			page 85


 2600 0060 94E5      		ldi r25,lo8(84)
 2601 0062 940F      		add r25,r20
 2602               	.LVL113:
 374:funsape/device/hd44780.cpp ****         }
 2603               		.loc 2 374 21 view .LVU688
 2604 0064 00C0      		rjmp .L68
 2605               	.LVL114:
 2606               	.L66:
 359:funsape/device/hd44780.cpp ****         if((this->_lines == 3) && (this->_columns == 11)) {             // Display 12x4
 2607               		.loc 2 359 5 is_stmt 1 view .LVU689
 360:funsape/device/hd44780.cpp ****             address = 0x0C + column_p;
 2608               		.loc 2 360 9 view .LVU690
 360:funsape/device/hd44780.cpp ****             address = 0x0C + column_p;
 2609               		.loc 2 360 26 is_stmt 0 view .LVU691
 2610 0066 8D85      		ldd r24,Y+13
 2611               	.LVL115:
 360:funsape/device/hd44780.cpp ****             address = 0x0C + column_p;
 2612               		.loc 2 360 26 view .LVU692
 2613 0068 8871      		andi r24,lo8(24)
 360:funsape/device/hd44780.cpp ****             address = 0x0C + column_p;
 2614               		.loc 2 360 9 view .LVU693
 2615 006a 8831      		cpi r24,lo8(24)
 2616 006c 01F0      		breq .L79
 2617               	.L72:
 362:funsape/device/hd44780.cpp ****             address = 0x10 + column_p;
 2618               		.loc 2 362 16 is_stmt 1 view .LVU694
 2619 006e 8831      		cpi r24,lo8(24)
 2620 0070 01F0      		breq .L80
 2621               	.L73:
 364:funsape/device/hd44780.cpp ****             address = 0x14 + column_p;
 2622               		.loc 2 364 16 view .LVU695
 2623 0072 8831      		cpi r24,lo8(24)
 2624 0074 01F0      		breq .+2
 2625 0076 00C0      		rjmp .L70
 364:funsape/device/hd44780.cpp ****             address = 0x14 + column_p;
 2626               		.loc 2 364 49 is_stmt 0 discriminator 1 view .LVU696
 2627 0078 9C85      		ldd r25,Y+12
 2628 007a 9295      		swap r25
 2629 007c 9695      		lsr r25
 2630 007e 9770      		andi r25,lo8(7)
 2631 0080 8D85      		ldd r24,Y+13
 2632 0082 8770      		andi r24,lo8(7)
 2633 0084 880F      		lsl r24
 2634 0086 880F      		lsl r24
 2635 0088 880F      		lsl r24
 2636 008a 892B      		or r24,r25
 364:funsape/device/hd44780.cpp ****             address = 0x14 + column_p;
 2637               		.loc 2 364 39 discriminator 1 view .LVU697
 2638 008c 8331      		cpi r24,lo8(19)
 2639 008e 01F0      		breq .+2
 2640 0090 00C0      		rjmp .L70
 365:funsape/device/hd44780.cpp ****         }
 2641               		.loc 2 365 13 is_stmt 1 view .LVU698
 365:funsape/device/hd44780.cpp ****         }
 2642               		.loc 2 365 21 is_stmt 0 view .LVU699
 2643 0092 94E1      		ldi r25,lo8(20)
 2644 0094 940F      		add r25,r20
GAS LISTING C:\Users\kenne\AppData\Local\Temp\ccH82gYi.s 			page 86


 2645               	.LVL116:
 365:funsape/device/hd44780.cpp ****         }
 2646               		.loc 2 365 21 view .LVU700
 2647 0096 00C0      		rjmp .L68
 2648               	.LVL117:
 2649               	.L79:
 360:funsape/device/hd44780.cpp ****             address = 0x0C + column_p;
 2650               		.loc 2 360 42 discriminator 1 view .LVU701
 2651 0098 2C85      		ldd r18,Y+12
 2652 009a 2295      		swap r18
 2653 009c 2695      		lsr r18
 2654 009e 2770      		andi r18,lo8(7)
 2655 00a0 9D85      		ldd r25,Y+13
 2656 00a2 9770      		andi r25,lo8(7)
 2657 00a4 990F      		lsl r25
 2658 00a6 990F      		lsl r25
 2659 00a8 990F      		lsl r25
 2660 00aa 922B      		or r25,r18
 360:funsape/device/hd44780.cpp ****             address = 0x0C + column_p;
 2661               		.loc 2 360 32 discriminator 1 view .LVU702
 2662 00ac 9B30      		cpi r25,lo8(11)
 2663 00ae 01F4      		brne .L72
 361:funsape/device/hd44780.cpp ****         } else if((this->_lines == 3) && (this->_columns == 15)) {      // Display 16x4
 2664               		.loc 2 361 13 is_stmt 1 view .LVU703
 361:funsape/device/hd44780.cpp ****         } else if((this->_lines == 3) && (this->_columns == 15)) {      // Display 16x4
 2665               		.loc 2 361 21 is_stmt 0 view .LVU704
 2666 00b0 9CE0      		ldi r25,lo8(12)
 2667 00b2 940F      		add r25,r20
 2668               	.LVL118:
 361:funsape/device/hd44780.cpp ****         } else if((this->_lines == 3) && (this->_columns == 15)) {      // Display 16x4
 2669               		.loc 2 361 21 view .LVU705
 2670 00b4 00C0      		rjmp .L68
 2671               	.LVL119:
 2672               	.L80:
 362:funsape/device/hd44780.cpp ****             address = 0x10 + column_p;
 2673               		.loc 2 362 49 discriminator 1 view .LVU706
 2674 00b6 2C85      		ldd r18,Y+12
 2675 00b8 2295      		swap r18
 2676 00ba 2695      		lsr r18
 2677 00bc 2770      		andi r18,lo8(7)
 2678 00be 9D85      		ldd r25,Y+13
 2679 00c0 9770      		andi r25,lo8(7)
 2680 00c2 990F      		lsl r25
 2681 00c4 990F      		lsl r25
 2682 00c6 990F      		lsl r25
 2683 00c8 922B      		or r25,r18
 362:funsape/device/hd44780.cpp ****             address = 0x10 + column_p;
 2684               		.loc 2 362 39 discriminator 1 view .LVU707
 2685 00ca 9F30      		cpi r25,lo8(15)
 2686 00cc 01F4      		brne .L73
 363:funsape/device/hd44780.cpp ****         } else if((this->_lines == 3) && (this->_columns == 19)) {      // Display 20x4
 2687               		.loc 2 363 13 is_stmt 1 view .LVU708
 363:funsape/device/hd44780.cpp ****         } else if((this->_lines == 3) && (this->_columns == 19)) {      // Display 20x4
 2688               		.loc 2 363 21 is_stmt 0 view .LVU709
 2689 00ce 90E1      		ldi r25,lo8(16)
 2690 00d0 940F      		add r25,r20
 2691               	.LVL120:
GAS LISTING C:\Users\kenne\AppData\Local\Temp\ccH82gYi.s 			page 87


 363:funsape/device/hd44780.cpp ****         } else if((this->_lines == 3) && (this->_columns == 19)) {      // Display 20x4
 2692               		.loc 2 363 21 view .LVU710
 2693 00d2 00C0      		rjmp .L68
 2694               	.LVL121:
 2695               	.L77:
 369:funsape/device/hd44780.cpp ****             address = 0x4C + column_p;
 2696               		.loc 2 369 42 discriminator 1 view .LVU711
 2697 00d4 2C85      		ldd r18,Y+12
 2698 00d6 2295      		swap r18
 2699 00d8 2695      		lsr r18
 2700 00da 2770      		andi r18,lo8(7)
 2701 00dc 9D85      		ldd r25,Y+13
 2702 00de 9770      		andi r25,lo8(7)
 2703 00e0 990F      		lsl r25
 2704 00e2 990F      		lsl r25
 2705 00e4 990F      		lsl r25
 2706 00e6 922B      		or r25,r18
 369:funsape/device/hd44780.cpp ****             address = 0x4C + column_p;
 2707               		.loc 2 369 32 discriminator 1 view .LVU712
 2708 00e8 9B30      		cpi r25,lo8(11)
 2709 00ea 01F0      		breq .+2
 2710 00ec 00C0      		rjmp .L74
 370:funsape/device/hd44780.cpp ****         } else if((this->_lines == 3) && (this->_columns == 15)) {      // Display 16x4
 2711               		.loc 2 370 13 is_stmt 1 view .LVU713
 370:funsape/device/hd44780.cpp ****         } else if((this->_lines == 3) && (this->_columns == 15)) {      // Display 16x4
 2712               		.loc 2 370 21 is_stmt 0 view .LVU714
 2713 00ee 9CE4      		ldi r25,lo8(76)
 2714 00f0 940F      		add r25,r20
 2715               	.LVL122:
 370:funsape/device/hd44780.cpp ****         } else if((this->_lines == 3) && (this->_columns == 15)) {      // Display 16x4
 2716               		.loc 2 370 21 view .LVU715
 2717 00f2 00C0      		rjmp .L68
 2718               	.LVL123:
 2719               	.L78:
 371:funsape/device/hd44780.cpp ****             address = 0x50 + column_p;
 2720               		.loc 2 371 49 discriminator 1 view .LVU716
 2721 00f4 2C85      		ldd r18,Y+12
 2722 00f6 2295      		swap r18
 2723 00f8 2695      		lsr r18
 2724 00fa 2770      		andi r18,lo8(7)
 2725 00fc 9D85      		ldd r25,Y+13
 2726 00fe 9770      		andi r25,lo8(7)
 2727 0100 990F      		lsl r25
 2728 0102 990F      		lsl r25
 2729 0104 990F      		lsl r25
 2730 0106 922B      		or r25,r18
 371:funsape/device/hd44780.cpp ****             address = 0x50 + column_p;
 2731               		.loc 2 371 39 discriminator 1 view .LVU717
 2732 0108 9F30      		cpi r25,lo8(15)
 2733 010a 01F0      		breq .+2
 2734 010c 00C0      		rjmp .L75
 372:funsape/device/hd44780.cpp ****         } else if((this->_lines == 3) && (this->_columns == 19)) {      // Display 20x4
 2735               		.loc 2 372 13 is_stmt 1 view .LVU718
 372:funsape/device/hd44780.cpp ****         } else if((this->_lines == 3) && (this->_columns == 19)) {      // Display 20x4
 2736               		.loc 2 372 21 is_stmt 0 view .LVU719
 2737 010e 90E5      		ldi r25,lo8(80)
 2738 0110 940F      		add r25,r20
GAS LISTING C:\Users\kenne\AppData\Local\Temp\ccH82gYi.s 			page 88


 2739               	.LVL124:
 372:funsape/device/hd44780.cpp ****         } else if((this->_lines == 3) && (this->_columns == 19)) {      // Display 20x4
 2740               		.loc 2 372 21 view .LVU720
 2741 0112 00C0      		rjmp .L68
 2742               	.LVL125:
 2743               	.L76:
 352:funsape/device/hd44780.cpp ****     case 0:     // Go to line 0
 2744               		.loc 2 352 5 view .LVU721
 2745 0114 942F      		mov r25,r20
 2746               	.LVL126:
 2747               	.L68:
 379:funsape/device/hd44780.cpp ****         this->_cursorLine = line_p;
 2748               		.loc 2 379 5 is_stmt 1 view .LVU722
 2749 0116 9F3F      		cpi r25,lo8(-1)
 2750 0118 01F4      		brne .L81
 2751               	.LVL127:
 2752               	.L70:
 386:funsape/device/hd44780.cpp ****     debugMessage(Error::NONE, DEBUG_HD44780);
 2753               		.loc 2 386 5 view .LVU723
 386:funsape/device/hd44780.cpp ****     debugMessage(Error::NONE, DEBUG_HD44780);
 2754               		.loc 2 386 22 is_stmt 0 view .LVU724
 2755 011a 198A      		std Y+17,__zero_reg__
 2756 011c 188A      		std Y+16,__zero_reg__
 387:funsape/device/hd44780.cpp ****     return true;
 2757               		.loc 2 387 5 is_stmt 1 view .LVU725
 387:funsape/device/hd44780.cpp ****     return true;
 2758               		.loc 2 387 45 view .LVU726
 388:funsape/device/hd44780.cpp **** 
 2759               		.loc 2 388 5 view .LVU727
 390:funsape/device/hd44780.cpp **** 
 2760               		.loc 2 390 1 is_stmt 0 view .LVU728
 2761 011e 81E0      		ldi r24,lo8(1)
 2762               	/* epilogue start */
 2763 0120 DF91      		pop r29
 2764 0122 CF91      		pop r28
 2765 0124 0895      		ret
 2766               	.LVL128:
 2767               	.L81:
 380:funsape/device/hd44780.cpp ****         this->_cursorColumn = column_p;
 2768               		.loc 2 380 9 is_stmt 1 view .LVU729
 380:funsape/device/hd44780.cpp ****         this->_cursorColumn = column_p;
 2769               		.loc 2 380 27 is_stmt 0 view .LVU730
 2770 0126 262F      		mov r18,r22
 2771 0128 2795      		ror r18
 2772 012a 2227      		clr r18
 2773 012c 2795      		ror r18
 2774 012e 8E85      		ldd r24,Y+14
 2775 0130 8F77      		andi r24,lo8(127)
 2776 0132 282B      		or r18,r24
 2777 0134 2E87      		std Y+14,r18
 2778 0136 61FB      		bst r22,1
 2779 0138 8827      		clr r24
 2780 013a 80F9      		bld r24,0
 2781 013c 3F85      		ldd r19,Y+15
 2782 013e 3E7F      		andi r19,lo8(-2)
 2783 0140 832B      		or r24,r19
 2784 0142 8F87      		std Y+15,r24
GAS LISTING C:\Users\kenne\AppData\Local\Temp\ccH82gYi.s 			page 89


 381:funsape/device/hd44780.cpp ****         this->_writeCommand((LCD_DDRAM_ADDRESS_SET | address));
 2785               		.loc 2 381 9 is_stmt 1 view .LVU731
 381:funsape/device/hd44780.cpp ****         this->_writeCommand((LCD_DDRAM_ADDRESS_SET | address));
 2786               		.loc 2 381 31 is_stmt 0 view .LVU732
 2787 0144 4F73      		andi r20,lo8(63)
 2788               	.LVL129:
 381:funsape/device/hd44780.cpp ****         this->_writeCommand((LCD_DDRAM_ADDRESS_SET | address));
 2789               		.loc 2 381 29 view .LVU733
 2790 0146 440F      		lsl r20
 2791 0148 2178      		andi r18,lo8(-127)
 2792 014a 422B      		or r20,r18
 2793 014c 4E87      		std Y+14,r20
 382:funsape/device/hd44780.cpp ****     }
 2794               		.loc 2 382 9 is_stmt 1 view .LVU734
 382:funsape/device/hd44780.cpp ****     }
 2795               		.loc 2 382 28 is_stmt 0 view .LVU735
 2796 014e 692F      		mov r22,r25
 2797               	.LVL130:
 382:funsape/device/hd44780.cpp ****     }
 2798               		.loc 2 382 28 view .LVU736
 2799 0150 6068      		ori r22,lo8(-128)
 2800 0152 CE01      		movw r24,r28
 2801 0154 0E94 0000 		call _ZN7Hd4478013_writeCommandEh
 2802               	.LVL131:
 382:funsape/device/hd44780.cpp ****     }
 2803               		.loc 2 382 28 view .LVU737
 2804 0158 00C0      		rjmp .L70
 2805               		.cfi_endproc
 2806               	.LFE43:
 2808               		.section	.text._ZN7Hd4478018cursorMoveNextLineEv,"ax",@progbits
 2809               	.global	_ZN7Hd4478018cursorMoveNextLineEv
 2811               	_ZN7Hd4478018cursorMoveNextLineEv:
 2812               	.LVL132:
 2813               	.LFB47:
 453:funsape/device/hd44780.cpp ****     // Mark passage for debugging purpose
 2814               		.loc 2 453 1 is_stmt 1 view -0
 2815               		.cfi_startproc
 453:funsape/device/hd44780.cpp ****     // Mark passage for debugging purpose
 2816               		.loc 2 453 1 is_stmt 0 view .LVU739
 2817 0000 CF93      		push r28
 2818               		.cfi_def_cfa_offset 3
 2819               		.cfi_offset 28, -2
 2820 0002 DF93      		push r29
 2821               		.cfi_def_cfa_offset 4
 2822               		.cfi_offset 29, -3
 2823               	/* prologue: function */
 2824               	/* frame size = 0 */
 2825               	/* stack size = 2 */
 2826               	.L__stack_usage = 2
 2827 0004 C82F      		mov r28,r24
 2828 0006 D92F      		mov r29,r25
 455:funsape/device/hd44780.cpp **** 
 2829               		.loc 2 455 5 is_stmt 1 view .LVU740
 455:funsape/device/hd44780.cpp **** 
 2830               		.loc 2 455 66 view .LVU741
 458:funsape/device/hd44780.cpp **** 
 2831               		.loc 2 458 5 view .LVU742
GAS LISTING C:\Users\kenne\AppData\Local\Temp\ccH82gYi.s 			page 90


 458:funsape/device/hd44780.cpp **** 
 2832               		.loc 2 458 34 is_stmt 0 view .LVU743
 2833 0008 9E85      		ldd r25,Y+14
 2834 000a 991F      		rol r25
 2835 000c 9927      		clr r25
 2836 000e 991F      		rol r25
 2837 0010 8F85      		ldd r24,Y+15
 2838               	.LVL133:
 458:funsape/device/hd44780.cpp **** 
 2839               		.loc 2 458 34 view .LVU744
 2840 0012 8170      		andi r24,lo8(1)
 2841 0014 880F      		lsl r24
 2842 0016 892B      		or r24,r25
 458:funsape/device/hd44780.cpp **** 
 2843               		.loc 2 458 13 view .LVU745
 2844 0018 8F5F      		subi r24,lo8(-(1))
 2845               	.LVL134:
 460:funsape/device/hd44780.cpp ****     if(!this->cursorGoTo(currentLine, 0)) {
 2846               		.loc 2 460 5 is_stmt 1 view .LVU746
 460:funsape/device/hd44780.cpp ****     if(!this->cursorGoTo(currentLine, 0)) {
 2847               		.loc 2 460 27 is_stmt 0 view .LVU747
 2848 001a 6D85      		ldd r22,Y+13
 2849 001c 6695      		lsr r22
 2850 001e 6695      		lsr r22
 2851 0020 6695      		lsr r22
 2852 0022 6370      		andi r22,lo8(3)
 2853 0024 70E0      		ldi r23,0
 460:funsape/device/hd44780.cpp ****     if(!this->cursorGoTo(currentLine, 0)) {
 2854               		.loc 2 460 34 view .LVU748
 2855 0026 6F5F      		subi r22,-1
 2856 0028 7F4F      		sbci r23,-1
 460:funsape/device/hd44780.cpp ****     if(!this->cursorGoTo(currentLine, 0)) {
 2857               		.loc 2 460 17 view .LVU749
 2858 002a 90E0      		ldi r25,0
 2859 002c 0E94 0000 		call __divmodhi4
 2860               	.LVL135:
 461:funsape/device/hd44780.cpp ****         // Returns error
 2861               		.loc 2 461 5 is_stmt 1 view .LVU750
 461:funsape/device/hd44780.cpp ****         // Returns error
 2862               		.loc 2 461 25 is_stmt 0 view .LVU751
 2863 0030 40E0      		ldi r20,0
 2864 0032 682F      		mov r22,r24
 2865 0034 CE01      		movw r24,r28
 2866               	.LVL136:
 461:funsape/device/hd44780.cpp ****         // Returns error
 2867               		.loc 2 461 25 view .LVU752
 2868 0036 0E94 0000 		call _ZN7Hd4478010cursorGoToEhh
 2869               	.LVL137:
 461:funsape/device/hd44780.cpp ****         // Returns error
 2870               		.loc 2 461 5 view .LVU753
 2871 003a 8823      		tst r24
 2872 003c 01F0      		breq .L82
 467:funsape/device/hd44780.cpp ****     debugMessage(Error::NONE, DEBUG_HD44780);
 2873               		.loc 2 467 5 is_stmt 1 view .LVU754
 467:funsape/device/hd44780.cpp ****     debugMessage(Error::NONE, DEBUG_HD44780);
 2874               		.loc 2 467 22 is_stmt 0 view .LVU755
 2875 003e 198A      		std Y+17,__zero_reg__
GAS LISTING C:\Users\kenne\AppData\Local\Temp\ccH82gYi.s 			page 91


 2876 0040 188A      		std Y+16,__zero_reg__
 468:funsape/device/hd44780.cpp ****     return true;
 2877               		.loc 2 468 5 is_stmt 1 view .LVU756
 468:funsape/device/hd44780.cpp ****     return true;
 2878               		.loc 2 468 45 view .LVU757
 469:funsape/device/hd44780.cpp **** }
 2879               		.loc 2 469 5 view .LVU758
 2880               	.L82:
 2881               	/* epilogue start */
 470:funsape/device/hd44780.cpp **** 
 2882               		.loc 2 470 1 is_stmt 0 view .LVU759
 2883 0042 DF91      		pop r29
 2884 0044 CF91      		pop r28
 2885 0046 0895      		ret
 2886               		.cfi_endproc
 2887               	.LFE47:
 2889               		.section	.text._ZN7Hd4478010cursorHomeEv,"ax",@progbits
 2890               	.global	_ZN7Hd4478010cursorHomeEv
 2892               	_ZN7Hd4478010cursorHomeEv:
 2893               	.LVL138:
 2894               	.LFB44:
 393:funsape/device/hd44780.cpp ****     // Mark passage for debugging purpose
 2895               		.loc 2 393 1 is_stmt 1 view -0
 2896               		.cfi_startproc
 393:funsape/device/hd44780.cpp ****     // Mark passage for debugging purpose
 2897               		.loc 2 393 1 is_stmt 0 view .LVU761
 2898 0000 CF93      		push r28
 2899               		.cfi_def_cfa_offset 3
 2900               		.cfi_offset 28, -2
 2901 0002 DF93      		push r29
 2902               		.cfi_def_cfa_offset 4
 2903               		.cfi_offset 29, -3
 2904               	/* prologue: function */
 2905               	/* frame size = 0 */
 2906               	/* stack size = 2 */
 2907               	.L__stack_usage = 2
 2908 0004 C82F      		mov r28,r24
 2909 0006 D92F      		mov r29,r25
 395:funsape/device/hd44780.cpp **** 
 2910               		.loc 2 395 5 is_stmt 1 view .LVU762
 395:funsape/device/hd44780.cpp **** 
 2911               		.loc 2 395 58 view .LVU763
 397:funsape/device/hd44780.cpp ****         // Returns error
 2912               		.loc 2 397 5 view .LVU764
 397:funsape/device/hd44780.cpp ****         // Returns error
 2913               		.loc 2 397 28 is_stmt 0 view .LVU765
 2914 0008 62E0      		ldi r22,lo8(2)
 2915 000a CE01      		movw r24,r28
 2916               	.LVL139:
 397:funsape/device/hd44780.cpp ****         // Returns error
 2917               		.loc 2 397 28 view .LVU766
 2918 000c 0E94 0000 		call _ZN7Hd4478013_writeCommandEh
 2919               	.LVL140:
 397:funsape/device/hd44780.cpp ****         // Returns error
 2920               		.loc 2 397 5 view .LVU767
 2921 0010 8823      		tst r24
 2922 0012 01F0      		breq .L84
GAS LISTING C:\Users\kenne\AppData\Local\Temp\ccH82gYi.s 			page 92


 402:funsape/device/hd44780.cpp ****     this->_cursorColumn = 0;
 2923               		.loc 2 402 5 is_stmt 1 view .LVU768
 402:funsape/device/hd44780.cpp ****     this->_cursorColumn = 0;
 2924               		.loc 2 402 23 is_stmt 0 view .LVU769
 2925 0014 9E85      		ldd r25,Y+14
 2926 0016 292F      		mov r18,r25
 2927 0018 2F77      		andi r18,lo8(127)
 2928 001a 2E87      		std Y+14,r18
 2929 001c 2F85      		ldd r18,Y+15
 2930 001e 2E7F      		andi r18,lo8(-2)
 2931 0020 2F87      		std Y+15,r18
 403:funsape/device/hd44780.cpp **** 
 2932               		.loc 2 403 5 is_stmt 1 view .LVU770
 403:funsape/device/hd44780.cpp **** 
 2933               		.loc 2 403 25 is_stmt 0 view .LVU771
 2934 0022 9170      		andi r25,lo8(1)
 2935 0024 9E87      		std Y+14,r25
 406:funsape/device/hd44780.cpp ****     debugMessage(Error::NONE, DEBUG_HD44780);
 2936               		.loc 2 406 5 is_stmt 1 view .LVU772
 406:funsape/device/hd44780.cpp ****     debugMessage(Error::NONE, DEBUG_HD44780);
 2937               		.loc 2 406 22 is_stmt 0 view .LVU773
 2938 0026 198A      		std Y+17,__zero_reg__
 2939 0028 188A      		std Y+16,__zero_reg__
 407:funsape/device/hd44780.cpp ****     return true;
 2940               		.loc 2 407 5 is_stmt 1 view .LVU774
 407:funsape/device/hd44780.cpp ****     return true;
 2941               		.loc 2 407 45 view .LVU775
 408:funsape/device/hd44780.cpp **** }
 2942               		.loc 2 408 5 view .LVU776
 2943               	.L84:
 2944               	/* epilogue start */
 409:funsape/device/hd44780.cpp **** 
 2945               		.loc 2 409 1 is_stmt 0 view .LVU777
 2946 002a DF91      		pop r29
 2947 002c CF91      		pop r28
 2948 002e 0895      		ret
 2949               		.cfi_endproc
 2950               	.LFE44:
 2952               		.section	.text._ZN7Hd4478010cursorMoveE9Direction,"ax",@progbits
 2953               	.global	_ZN7Hd4478010cursorMoveE9Direction
 2955               	_ZN7Hd4478010cursorMoveE9Direction:
 2956               	.LVL141:
 2957               	.LFB45:
 412:funsape/device/hd44780.cpp ****     // Mark passage for debugging purpose
 2958               		.loc 2 412 1 is_stmt 1 view -0
 2959               		.cfi_startproc
 412:funsape/device/hd44780.cpp ****     // Mark passage for debugging purpose
 2960               		.loc 2 412 1 is_stmt 0 view .LVU779
 2961 0000 CF93      		push r28
 2962               		.cfi_def_cfa_offset 3
 2963               		.cfi_offset 28, -2
 2964 0002 DF93      		push r29
 2965               		.cfi_def_cfa_offset 4
 2966               		.cfi_offset 29, -3
 2967               	/* prologue: function */
 2968               	/* frame size = 0 */
 2969               	/* stack size = 2 */
GAS LISTING C:\Users\kenne\AppData\Local\Temp\ccH82gYi.s 			page 93


 2970               	.L__stack_usage = 2
 2971 0004 C82F      		mov r28,r24
 2972 0006 D92F      		mov r29,r25
 2973 0008 862F      		mov r24,r22
 2974               	.LVL142:
 414:funsape/device/hd44780.cpp **** 
 2975               		.loc 2 414 5 is_stmt 1 view .LVU780
 414:funsape/device/hd44780.cpp **** 
 2976               		.loc 2 414 69 view .LVU781
 417:funsape/device/hd44780.cpp **** 
 2977               		.loc 2 417 5 view .LVU782
 419:funsape/device/hd44780.cpp ****     if(direction_p == Direction::LEFT) {
 2978               		.loc 2 419 5 view .LVU783
 419:funsape/device/hd44780.cpp ****     if(direction_p == Direction::LEFT) {
 2979               		.loc 2 419 16 is_stmt 0 view .LVU784
 2980 000a 6111      		cpse r22,__zero_reg__
 2981 000c 00C0      		rjmp .L90
 2982 000e 60E0      		ldi r22,0
 2983               	.LVL143:
 2984               	.L87:
 419:funsape/device/hd44780.cpp ****     if(direction_p == Direction::LEFT) {
 2985               		.loc 2 419 16 discriminator 4 view .LVU785
 2986 0010 6061      		ori r22,lo8(16)
 2987               	.LVL144:
 420:funsape/device/hd44780.cpp ****         this->_cursorColumn--;
 2988               		.loc 2 420 5 is_stmt 1 discriminator 4 view .LVU786
 2989 0012 8111      		cpse r24,__zero_reg__
 2990 0014 00C0      		rjmp .L88
 421:funsape/device/hd44780.cpp ****     } else {
 2991               		.loc 2 421 9 view .LVU787
 421:funsape/device/hd44780.cpp ****     } else {
 2992               		.loc 2 421 15 is_stmt 0 view .LVU788
 2993 0016 9E85      		ldd r25,Y+14
 2994 0018 892F      		mov r24,r25
 2995               	.LVL145:
 421:funsape/device/hd44780.cpp ****     } else {
 2996               		.loc 2 421 15 view .LVU789
 2997 001a 8695      		lsr r24
 2998 001c 8F73      		andi r24,lo8(63)
 421:funsape/device/hd44780.cpp ****     } else {
 2999               		.loc 2 421 28 view .LVU790
 3000 001e 815C      		subi r24,lo8(-(63))
 3001 0020 8F73      		andi r24,lo8(63)
 3002 0022 880F      		lsl r24
 3003 0024 9178      		andi r25,lo8(-127)
 3004 0026 892B      		or r24,r25
 3005 0028 8E87      		std Y+14,r24
 3006               	.L89:
 425:funsape/device/hd44780.cpp **** 
 3007               		.loc 2 425 5 is_stmt 1 view .LVU791
 425:funsape/device/hd44780.cpp **** 
 3008               		.loc 2 425 24 is_stmt 0 view .LVU792
 3009 002a CE01      		movw r24,r28
 3010 002c 0E94 0000 		call _ZN7Hd4478013_writeCommandEh
 3011               	.LVL146:
 428:funsape/device/hd44780.cpp ****     debugMessage(Error::NONE, DEBUG_HD44780);
 3012               		.loc 2 428 5 is_stmt 1 view .LVU793
GAS LISTING C:\Users\kenne\AppData\Local\Temp\ccH82gYi.s 			page 94


 428:funsape/device/hd44780.cpp ****     debugMessage(Error::NONE, DEBUG_HD44780);
 3013               		.loc 2 428 22 is_stmt 0 view .LVU794
 3014 0030 198A      		std Y+17,__zero_reg__
 3015 0032 188A      		std Y+16,__zero_reg__
 429:funsape/device/hd44780.cpp ****     return true;
 3016               		.loc 2 429 5 is_stmt 1 view .LVU795
 429:funsape/device/hd44780.cpp ****     return true;
 3017               		.loc 2 429 45 view .LVU796
 430:funsape/device/hd44780.cpp **** }
 3018               		.loc 2 430 5 view .LVU797
 431:funsape/device/hd44780.cpp **** 
 3019               		.loc 2 431 1 is_stmt 0 view .LVU798
 3020 0034 81E0      		ldi r24,lo8(1)
 3021               	/* epilogue start */
 3022 0036 DF91      		pop r29
 3023 0038 CF91      		pop r28
 3024 003a 0895      		ret
 3025               	.LVL147:
 3026               	.L90:
 419:funsape/device/hd44780.cpp ****     if(direction_p == Direction::LEFT) {
 3027               		.loc 2 419 16 view .LVU799
 3028 003c 60E4      		ldi r22,lo8(64)
 3029               	.LVL148:
 419:funsape/device/hd44780.cpp ****     if(direction_p == Direction::LEFT) {
 3030               		.loc 2 419 16 view .LVU800
 3031 003e 00C0      		rjmp .L87
 3032               	.LVL149:
 3033               	.L88:
 423:funsape/device/hd44780.cpp ****     }
 3034               		.loc 2 423 9 is_stmt 1 view .LVU801
 423:funsape/device/hd44780.cpp ****     }
 3035               		.loc 2 423 15 is_stmt 0 view .LVU802
 3036 0040 9E85      		ldd r25,Y+14
 3037 0042 892F      		mov r24,r25
 3038               	.LVL150:
 423:funsape/device/hd44780.cpp ****     }
 3039               		.loc 2 423 15 view .LVU803
 3040 0044 8695      		lsr r24
 3041 0046 8F73      		andi r24,lo8(63)
 423:funsape/device/hd44780.cpp ****     }
 3042               		.loc 2 423 28 view .LVU804
 3043 0048 8F5F      		subi r24,lo8(-(1))
 3044 004a 8F73      		andi r24,lo8(63)
 3045 004c 880F      		lsl r24
 3046 004e 9178      		andi r25,lo8(-127)
 3047 0050 892B      		or r24,r25
 3048 0052 8E87      		std Y+14,r24
 3049 0054 00C0      		rjmp .L89
 3050               		.cfi_endproc
 3051               	.LFE45:
 3053               		.section	.text._ZN7Hd4478019cursorMoveFirstLineEv,"ax",@progbits
 3054               	.global	_ZN7Hd4478019cursorMoveFirstLineEv
 3056               	_ZN7Hd4478019cursorMoveFirstLineEv:
 3057               	.LVL151:
 3058               	.LFB46:
 434:funsape/device/hd44780.cpp ****     // Mark passage for debugging purpose
 3059               		.loc 2 434 1 is_stmt 1 view -0
GAS LISTING C:\Users\kenne\AppData\Local\Temp\ccH82gYi.s 			page 95


 3060               		.cfi_startproc
 434:funsape/device/hd44780.cpp ****     // Mark passage for debugging purpose
 3061               		.loc 2 434 1 is_stmt 0 view .LVU806
 3062 0000 CF93      		push r28
 3063               		.cfi_def_cfa_offset 3
 3064               		.cfi_offset 28, -2
 3065 0002 DF93      		push r29
 3066               		.cfi_def_cfa_offset 4
 3067               		.cfi_offset 29, -3
 3068               	/* prologue: function */
 3069               	/* frame size = 0 */
 3070               	/* stack size = 2 */
 3071               	.L__stack_usage = 2
 3072 0004 C82F      		mov r28,r24
 3073 0006 D92F      		mov r29,r25
 436:funsape/device/hd44780.cpp **** 
 3074               		.loc 2 436 5 is_stmt 1 view .LVU807
 436:funsape/device/hd44780.cpp **** 
 3075               		.loc 2 436 67 view .LVU808
 438:funsape/device/hd44780.cpp ****         // Returns error
 3076               		.loc 2 438 5 view .LVU809
 438:funsape/device/hd44780.cpp ****         // Returns error
 3077               		.loc 2 438 28 is_stmt 0 view .LVU810
 3078 0008 62E0      		ldi r22,lo8(2)
 3079 000a CE01      		movw r24,r28
 3080               	.LVL152:
 438:funsape/device/hd44780.cpp ****         // Returns error
 3081               		.loc 2 438 28 view .LVU811
 3082 000c 0E94 0000 		call _ZN7Hd4478013_writeCommandEh
 3083               	.LVL153:
 438:funsape/device/hd44780.cpp ****         // Returns error
 3084               		.loc 2 438 5 view .LVU812
 3085 0010 8823      		tst r24
 3086 0012 01F0      		breq .L91
 443:funsape/device/hd44780.cpp ****     this->_cursorColumn = 0;
 3087               		.loc 2 443 5 is_stmt 1 view .LVU813
 443:funsape/device/hd44780.cpp ****     this->_cursorColumn = 0;
 3088               		.loc 2 443 23 is_stmt 0 view .LVU814
 3089 0014 9E85      		ldd r25,Y+14
 3090 0016 292F      		mov r18,r25
 3091 0018 2F77      		andi r18,lo8(127)
 3092 001a 2E87      		std Y+14,r18
 3093 001c 2F85      		ldd r18,Y+15
 3094 001e 2E7F      		andi r18,lo8(-2)
 3095 0020 2F87      		std Y+15,r18
 444:funsape/device/hd44780.cpp **** 
 3096               		.loc 2 444 5 is_stmt 1 view .LVU815
 444:funsape/device/hd44780.cpp **** 
 3097               		.loc 2 444 25 is_stmt 0 view .LVU816
 3098 0022 9170      		andi r25,lo8(1)
 3099 0024 9E87      		std Y+14,r25
 447:funsape/device/hd44780.cpp ****     debugMessage(Error::NONE, DEBUG_HD44780);
 3100               		.loc 2 447 5 is_stmt 1 view .LVU817
 447:funsape/device/hd44780.cpp ****     debugMessage(Error::NONE, DEBUG_HD44780);
 3101               		.loc 2 447 22 is_stmt 0 view .LVU818
 3102 0026 198A      		std Y+17,__zero_reg__
 3103 0028 188A      		std Y+16,__zero_reg__
GAS LISTING C:\Users\kenne\AppData\Local\Temp\ccH82gYi.s 			page 96


 448:funsape/device/hd44780.cpp ****     return true;
 3104               		.loc 2 448 5 is_stmt 1 view .LVU819
 448:funsape/device/hd44780.cpp ****     return true;
 3105               		.loc 2 448 45 view .LVU820
 449:funsape/device/hd44780.cpp **** }
 3106               		.loc 2 449 5 view .LVU821
 3107               	.L91:
 3108               	/* epilogue start */
 450:funsape/device/hd44780.cpp **** 
 3109               		.loc 2 450 1 is_stmt 0 view .LVU822
 3110 002a DF91      		pop r29
 3111 002c CF91      		pop r28
 3112 002e 0895      		ret
 3113               		.cfi_endproc
 3114               	.LFE46:
 3116               		.section	.text._ZN7Hd4478015displayStateSetENS_12DisplayStateE,"ax",@progbits
 3117               	.global	_ZN7Hd4478015displayStateSetENS_12DisplayStateE
 3119               	_ZN7Hd4478015displayStateSetENS_12DisplayStateE:
 3120               	.LVL154:
 3121               	.LFB48:
 473:funsape/device/hd44780.cpp ****     // Mark passage for debugging purpose
 3122               		.loc 2 473 1 is_stmt 1 view -0
 3123               		.cfi_startproc
 473:funsape/device/hd44780.cpp ****     // Mark passage for debugging purpose
 3124               		.loc 2 473 1 is_stmt 0 view .LVU824
 3125 0000 FF92      		push r15
 3126               		.cfi_def_cfa_offset 3
 3127               		.cfi_offset 15, -2
 3128 0002 0F93      		push r16
 3129               		.cfi_def_cfa_offset 4
 3130               		.cfi_offset 16, -3
 3131 0004 1F93      		push r17
 3132               		.cfi_def_cfa_offset 5
 3133               		.cfi_offset 17, -4
 3134 0006 CF93      		push r28
 3135               		.cfi_def_cfa_offset 6
 3136               		.cfi_offset 28, -5
 3137 0008 DF93      		push r29
 3138               		.cfi_def_cfa_offset 7
 3139               		.cfi_offset 29, -6
 3140               	/* prologue: function */
 3141               	/* frame size = 0 */
 3142               	/* stack size = 5 */
 3143               	.L__stack_usage = 5
 3144 000a C82F      		mov r28,r24
 3145 000c D92F      		mov r29,r25
 3146 000e 862F      		mov r24,r22
 3147               	.LVL155:
 473:funsape/device/hd44780.cpp ****     // Mark passage for debugging purpose
 3148               		.loc 2 473 1 view .LVU825
 3149 0010 972F      		mov r25,r23
 475:funsape/device/hd44780.cpp **** 
 3150               		.loc 2 475 5 is_stmt 1 view .LVU826
 475:funsape/device/hd44780.cpp **** 
 3151               		.loc 2 475 77 view .LVU827
 478:funsape/device/hd44780.cpp ****     bool_t auxDisplayOn = false;
 3152               		.loc 2 478 5 view .LVU828
GAS LISTING C:\Users\kenne\AppData\Local\Temp\ccH82gYi.s 			page 97


 3153               	.LVL156:
 479:funsape/device/hd44780.cpp ****     bool_t auxCursorOn = false;
 3154               		.loc 2 479 5 view .LVU829
 480:funsape/device/hd44780.cpp ****     bool_t auxBlinkOn = false;
 3155               		.loc 2 480 5 view .LVU830
 481:funsape/device/hd44780.cpp **** 
 3156               		.loc 2 481 5 view .LVU831
 484:funsape/device/hd44780.cpp ****     case DisplayState::BLINK_ON:    auxDisplayOn = true;    auxCursorOn = true;     auxBlinkOn = tr
 3157               		.loc 2 484 5 view .LVU832
 3158 0012 8230      		cpi r24,2
 3159 0014 9105      		cpc r25,__zero_reg__
 3160 0016 01F0      		breq .L98
 3161 0018 8330      		cpi r24,3
 3162 001a 9105      		cpc r25,__zero_reg__
 3163 001c 01F0      		breq .L99
 3164 001e 0197      		sbiw r24,1
 3165 0020 01F0      		breq .L104
 3166 0022 F12C      		mov r15,__zero_reg__
 3167 0024 00E0      		ldi r16,0
 3168 0026 10E0      		ldi r17,0
 3169               	.L94:
 3170               	.LVL157:
 492:funsape/device/hd44780.cpp ****     auxCommand |= (auxDisplayOn) ? LCD_DISPLAY_CONTROL_DISPLAY_ON : LCD_DISPLAY_CONTROL_DISPLAY_OFF
 3171               		.loc 2 492 5 view .LVU833
 493:funsape/device/hd44780.cpp ****     auxCommand |= (auxCursorOn) ? LCD_DISPLAY_CONTROL_CURSOR_ON : LCD_DISPLAY_CONTROL_CURSOR_OFF;
 3172               		.loc 2 493 5 view .LVU834
 493:funsape/device/hd44780.cpp ****     auxCommand |= (auxCursorOn) ? LCD_DISPLAY_CONTROL_CURSOR_ON : LCD_DISPLAY_CONTROL_CURSOR_OFF;
 3173               		.loc 2 493 16 is_stmt 0 view .LVU835
 3174 0028 1123      		tst r17
 3175 002a 01F0      		breq .L101
 3176 002c 64E0      		ldi r22,lo8(4)
 3177               	.LVL158:
 3178               	.L95:
 493:funsape/device/hd44780.cpp ****     auxCommand |= (auxCursorOn) ? LCD_DISPLAY_CONTROL_CURSOR_ON : LCD_DISPLAY_CONTROL_CURSOR_OFF;
 3179               		.loc 2 493 16 discriminator 4 view .LVU836
 3180 002e 6860      		ori r22,lo8(8)
 3181               	.LVL159:
 494:funsape/device/hd44780.cpp ****     auxCommand |= (auxBlinkOn) ? LCD_DISPLAY_CONTROL_CURSOR_BLINK_ON : LCD_DISPLAY_CONTROL_CURSOR_B
 3182               		.loc 2 494 5 is_stmt 1 discriminator 4 view .LVU837
 494:funsape/device/hd44780.cpp ****     auxCommand |= (auxBlinkOn) ? LCD_DISPLAY_CONTROL_CURSOR_BLINK_ON : LCD_DISPLAY_CONTROL_CURSOR_B
 3183               		.loc 2 494 16 is_stmt 0 discriminator 4 view .LVU838
 3184 0030 0023      		tst r16
 3185 0032 01F0      		breq .L102
 494:funsape/device/hd44780.cpp ****     auxCommand |= (auxBlinkOn) ? LCD_DISPLAY_CONTROL_CURSOR_BLINK_ON : LCD_DISPLAY_CONTROL_CURSOR_B
 3186               		.loc 2 494 16 view .LVU839
 3187 0034 82E0      		ldi r24,lo8(2)
 3188               	.L96:
 494:funsape/device/hd44780.cpp ****     auxCommand |= (auxBlinkOn) ? LCD_DISPLAY_CONTROL_CURSOR_BLINK_ON : LCD_DISPLAY_CONTROL_CURSOR_B
 3189               		.loc 2 494 16 discriminator 4 view .LVU840
 3190 0036 682B      		or r22,r24
 3191               	.LVL160:
 495:funsape/device/hd44780.cpp ****     this->_writeCommand(auxCommand);
 3192               		.loc 2 495 5 is_stmt 1 discriminator 4 view .LVU841
 495:funsape/device/hd44780.cpp ****     this->_writeCommand(auxCommand);
 3193               		.loc 2 495 16 is_stmt 0 discriminator 4 view .LVU842
 3194 0038 FF20      		tst r15
 3195 003a 01F0      		breq .L103
GAS LISTING C:\Users\kenne\AppData\Local\Temp\ccH82gYi.s 			page 98


 495:funsape/device/hd44780.cpp ****     this->_writeCommand(auxCommand);
 3196               		.loc 2 495 16 view .LVU843
 3197 003c 81E0      		ldi r24,lo8(1)
 3198               	.L97:
 495:funsape/device/hd44780.cpp ****     this->_writeCommand(auxCommand);
 3199               		.loc 2 495 16 discriminator 4 view .LVU844
 3200 003e 682B      		or r22,r24
 3201               	.LVL161:
 496:funsape/device/hd44780.cpp **** 
 3202               		.loc 2 496 5 is_stmt 1 discriminator 4 view .LVU845
 496:funsape/device/hd44780.cpp **** 
 3203               		.loc 2 496 24 is_stmt 0 discriminator 4 view .LVU846
 3204 0040 CE01      		movw r24,r28
 3205 0042 0E94 0000 		call _ZN7Hd4478013_writeCommandEh
 3206               	.LVL162:
 499:funsape/device/hd44780.cpp ****     this->_cursorOn = auxCursorOn;
 3207               		.loc 2 499 5 is_stmt 1 discriminator 4 view .LVU847
 499:funsape/device/hd44780.cpp ****     this->_cursorOn = auxCursorOn;
 3208               		.loc 2 499 24 is_stmt 0 discriminator 4 view .LVU848
 3209 0046 8E85      		ldd r24,Y+14
 3210 0048 F0FA      		bst r15,0
 3211 004a 80F9      		bld r24,0
 3212               	.LVL163:
 499:funsape/device/hd44780.cpp ****     this->_cursorOn = auxCursorOn;
 3213               		.loc 2 499 24 discriminator 4 view .LVU849
 3214 004c 8E87      		std Y+14,r24
 500:funsape/device/hd44780.cpp ****     this->_displayOn = auxDisplayOn;
 3215               		.loc 2 500 5 is_stmt 1 discriminator 4 view .LVU850
 500:funsape/device/hd44780.cpp ****     this->_displayOn = auxDisplayOn;
 3216               		.loc 2 500 21 is_stmt 0 discriminator 4 view .LVU851
 3217 004e 8F85      		ldd r24,Y+15
 3218 0050 00FB      		bst r16,0
 3219 0052 81F9      		bld r24,1
 3220               	.LVL164:
 500:funsape/device/hd44780.cpp ****     this->_displayOn = auxDisplayOn;
 3221               		.loc 2 500 21 discriminator 4 view .LVU852
 3222 0054 8F87      		std Y+15,r24
 501:funsape/device/hd44780.cpp **** 
 3223               		.loc 2 501 5 is_stmt 1 discriminator 4 view .LVU853
 501:funsape/device/hd44780.cpp **** 
 3224               		.loc 2 501 22 is_stmt 0 discriminator 4 view .LVU854
 3225 0056 10FB      		bst r17,0
 3226 0058 82F9      		bld r24,2
 3227               	.LVL165:
 501:funsape/device/hd44780.cpp **** 
 3228               		.loc 2 501 22 discriminator 4 view .LVU855
 3229 005a 8F87      		std Y+15,r24
 504:funsape/device/hd44780.cpp ****     debugMessage(Error::NONE, DEBUG_HD44780);
 3230               		.loc 2 504 5 is_stmt 1 discriminator 4 view .LVU856
 504:funsape/device/hd44780.cpp ****     debugMessage(Error::NONE, DEBUG_HD44780);
 3231               		.loc 2 504 22 is_stmt 0 discriminator 4 view .LVU857
 3232 005c 198A      		std Y+17,__zero_reg__
 3233 005e 188A      		std Y+16,__zero_reg__
 505:funsape/device/hd44780.cpp ****     return true;
 3234               		.loc 2 505 5 is_stmt 1 discriminator 4 view .LVU858
 505:funsape/device/hd44780.cpp ****     return true;
 3235               		.loc 2 505 45 discriminator 4 view .LVU859
GAS LISTING C:\Users\kenne\AppData\Local\Temp\ccH82gYi.s 			page 99


 506:funsape/device/hd44780.cpp **** }
 3236               		.loc 2 506 5 discriminator 4 view .LVU860
 507:funsape/device/hd44780.cpp **** 
 3237               		.loc 2 507 1 is_stmt 0 discriminator 4 view .LVU861
 3238 0060 81E0      		ldi r24,lo8(1)
 3239               	/* epilogue start */
 3240 0062 DF91      		pop r29
 3241 0064 CF91      		pop r28
 3242 0066 1F91      		pop r17
 3243 0068 0F91      		pop r16
 3244 006a FF90      		pop r15
 3245 006c 0895      		ret
 3246               	.LVL166:
 3247               	.L104:
 487:funsape/device/hd44780.cpp ****     case DisplayState::DISPLAY_OFF: auxDisplayOn = false;   auxCursorOn = false;    auxBlinkOn = fa
 3248               		.loc 2 487 96 view .LVU862
 3249 006e F12C      		mov r15,__zero_reg__
 487:funsape/device/hd44780.cpp ****     case DisplayState::DISPLAY_OFF: auxDisplayOn = false;   auxCursorOn = false;    auxBlinkOn = fa
 3250               		.loc 2 487 73 view .LVU863
 3251 0070 00E0      		ldi r16,0
 487:funsape/device/hd44780.cpp ****     case DisplayState::DISPLAY_OFF: auxDisplayOn = false;   auxCursorOn = false;    auxBlinkOn = fa
 3252               		.loc 2 487 50 view .LVU864
 3253 0072 11E0      		ldi r17,lo8(1)
 3254 0074 00C0      		rjmp .L94
 3255               	.L98:
 486:funsape/device/hd44780.cpp ****     case DisplayState::CURSOR_OFF:  auxDisplayOn = true;    auxCursorOn = false;    auxBlinkOn = fa
 3256               		.loc 2 486 96 view .LVU865
 3257 0076 F12C      		mov r15,__zero_reg__
 486:funsape/device/hd44780.cpp ****     case DisplayState::CURSOR_OFF:  auxDisplayOn = true;    auxCursorOn = false;    auxBlinkOn = fa
 3258               		.loc 2 486 73 view .LVU866
 3259 0078 01E0      		ldi r16,lo8(1)
 486:funsape/device/hd44780.cpp ****     case DisplayState::CURSOR_OFF:  auxDisplayOn = true;    auxCursorOn = false;    auxBlinkOn = fa
 3260               		.loc 2 486 50 view .LVU867
 3261 007a 11E0      		ldi r17,lo8(1)
 3262 007c 00C0      		rjmp .L94
 3263               	.L99:
 485:funsape/device/hd44780.cpp ****     case DisplayState::CURSOR_ON:   auxDisplayOn = true;    auxCursorOn = true;     auxBlinkOn = fa
 3264               		.loc 2 485 96 view .LVU868
 3265 007e FF24      		clr r15
 3266 0080 F394      		inc r15
 485:funsape/device/hd44780.cpp ****     case DisplayState::CURSOR_ON:   auxDisplayOn = true;    auxCursorOn = true;     auxBlinkOn = fa
 3267               		.loc 2 485 73 view .LVU869
 3268 0082 01E0      		ldi r16,lo8(1)
 485:funsape/device/hd44780.cpp ****     case DisplayState::CURSOR_ON:   auxDisplayOn = true;    auxCursorOn = true;     auxBlinkOn = fa
 3269               		.loc 2 485 50 view .LVU870
 3270 0084 11E0      		ldi r17,lo8(1)
 3271 0086 00C0      		rjmp .L94
 3272               	.LVL167:
 3273               	.L101:
 493:funsape/device/hd44780.cpp ****     auxCommand |= (auxCursorOn) ? LCD_DISPLAY_CONTROL_CURSOR_ON : LCD_DISPLAY_CONTROL_CURSOR_OFF;
 3274               		.loc 2 493 16 view .LVU871
 3275 0088 60E0      		ldi r22,0
 3276               	.LVL168:
 493:funsape/device/hd44780.cpp ****     auxCommand |= (auxCursorOn) ? LCD_DISPLAY_CONTROL_CURSOR_ON : LCD_DISPLAY_CONTROL_CURSOR_OFF;
 3277               		.loc 2 493 16 view .LVU872
 3278 008a 00C0      		rjmp .L95
 3279               	.LVL169:
GAS LISTING C:\Users\kenne\AppData\Local\Temp\ccH82gYi.s 			page 100


 3280               	.L102:
 494:funsape/device/hd44780.cpp ****     auxCommand |= (auxBlinkOn) ? LCD_DISPLAY_CONTROL_CURSOR_BLINK_ON : LCD_DISPLAY_CONTROL_CURSOR_B
 3281               		.loc 2 494 16 view .LVU873
 3282 008c 80E0      		ldi r24,0
 3283 008e 00C0      		rjmp .L96
 3284               	.L103:
 495:funsape/device/hd44780.cpp ****     this->_writeCommand(auxCommand);
 3285               		.loc 2 495 16 view .LVU874
 3286 0090 80E0      		ldi r24,0
 3287 0092 00C0      		rjmp .L97
 3288               		.cfi_endproc
 3289               	.LFE48:
 3291               		.section	.text._ZN7Hd4478012displayShiftE9Direction,"ax",@progbits
 3292               	.global	_ZN7Hd4478012displayShiftE9Direction
 3294               	_ZN7Hd4478012displayShiftE9Direction:
 3295               	.LVL170:
 3296               	.LFB49:
 510:funsape/device/hd44780.cpp ****     // Mark passage for debugging purpose
 3297               		.loc 2 510 1 is_stmt 1 view -0
 3298               		.cfi_startproc
 510:funsape/device/hd44780.cpp ****     // Mark passage for debugging purpose
 3299               		.loc 2 510 1 is_stmt 0 view .LVU876
 3300 0000 CF93      		push r28
 3301               		.cfi_def_cfa_offset 3
 3302               		.cfi_offset 28, -2
 3303 0002 DF93      		push r29
 3304               		.cfi_def_cfa_offset 4
 3305               		.cfi_offset 29, -3
 3306               	/* prologue: function */
 3307               	/* frame size = 0 */
 3308               	/* stack size = 2 */
 3309               	.L__stack_usage = 2
 3310 0004 C82F      		mov r28,r24
 3311 0006 D92F      		mov r29,r25
 3312 0008 862F      		mov r24,r22
 3313               	.LVL171:
 512:funsape/device/hd44780.cpp **** 
 3314               		.loc 2 512 5 is_stmt 1 view .LVU877
 512:funsape/device/hd44780.cpp **** 
 3315               		.loc 2 512 71 view .LVU878
 515:funsape/device/hd44780.cpp **** 
 3316               		.loc 2 515 5 view .LVU879
 517:funsape/device/hd44780.cpp ****     if(direction_p == Direction::LEFT) {
 3317               		.loc 2 517 5 view .LVU880
 517:funsape/device/hd44780.cpp ****     if(direction_p == Direction::LEFT) {
 3318               		.loc 2 517 16 is_stmt 0 view .LVU881
 3319 000a 6111      		cpse r22,__zero_reg__
 3320 000c 00C0      		rjmp .L109
 3321 000e 60E0      		ldi r22,0
 3322               	.LVL172:
 3323               	.L106:
 517:funsape/device/hd44780.cpp ****     if(direction_p == Direction::LEFT) {
 3324               		.loc 2 517 16 discriminator 4 view .LVU882
 3325 0010 6069      		ori r22,lo8(-112)
 3326               	.LVL173:
 518:funsape/device/hd44780.cpp ****         this->_cursorColumn--;
 3327               		.loc 2 518 5 is_stmt 1 discriminator 4 view .LVU883
GAS LISTING C:\Users\kenne\AppData\Local\Temp\ccH82gYi.s 			page 101


 3328 0012 8111      		cpse r24,__zero_reg__
 3329 0014 00C0      		rjmp .L107
 519:funsape/device/hd44780.cpp ****     } else {
 3330               		.loc 2 519 9 view .LVU884
 519:funsape/device/hd44780.cpp ****     } else {
 3331               		.loc 2 519 15 is_stmt 0 view .LVU885
 3332 0016 9E85      		ldd r25,Y+14
 3333 0018 892F      		mov r24,r25
 3334               	.LVL174:
 519:funsape/device/hd44780.cpp ****     } else {
 3335               		.loc 2 519 15 view .LVU886
 3336 001a 8695      		lsr r24
 3337 001c 8F73      		andi r24,lo8(63)
 519:funsape/device/hd44780.cpp ****     } else {
 3338               		.loc 2 519 28 view .LVU887
 3339 001e 815C      		subi r24,lo8(-(63))
 3340 0020 8F73      		andi r24,lo8(63)
 3341 0022 880F      		lsl r24
 3342 0024 9178      		andi r25,lo8(-127)
 3343 0026 892B      		or r24,r25
 3344 0028 8E87      		std Y+14,r24
 3345               	.L108:
 523:funsape/device/hd44780.cpp **** 
 3346               		.loc 2 523 5 is_stmt 1 view .LVU888
 523:funsape/device/hd44780.cpp **** 
 3347               		.loc 2 523 24 is_stmt 0 view .LVU889
 3348 002a CE01      		movw r24,r28
 3349 002c 0E94 0000 		call _ZN7Hd4478013_writeCommandEh
 3350               	.LVL175:
 526:funsape/device/hd44780.cpp ****     debugMessage(Error::NONE, DEBUG_HD44780);
 3351               		.loc 2 526 5 is_stmt 1 view .LVU890
 526:funsape/device/hd44780.cpp ****     debugMessage(Error::NONE, DEBUG_HD44780);
 3352               		.loc 2 526 22 is_stmt 0 view .LVU891
 3353 0030 198A      		std Y+17,__zero_reg__
 3354 0032 188A      		std Y+16,__zero_reg__
 527:funsape/device/hd44780.cpp ****     return true;
 3355               		.loc 2 527 5 is_stmt 1 view .LVU892
 527:funsape/device/hd44780.cpp ****     return true;
 3356               		.loc 2 527 45 view .LVU893
 528:funsape/device/hd44780.cpp **** }
 3357               		.loc 2 528 5 view .LVU894
 529:funsape/device/hd44780.cpp **** 
 3358               		.loc 2 529 1 is_stmt 0 view .LVU895
 3359 0034 81E0      		ldi r24,lo8(1)
 3360               	/* epilogue start */
 3361 0036 DF91      		pop r29
 3362 0038 CF91      		pop r28
 3363 003a 0895      		ret
 3364               	.LVL176:
 3365               	.L109:
 517:funsape/device/hd44780.cpp ****     if(direction_p == Direction::LEFT) {
 3366               		.loc 2 517 16 view .LVU896
 3367 003c 60E4      		ldi r22,lo8(64)
 3368               	.LVL177:
 517:funsape/device/hd44780.cpp ****     if(direction_p == Direction::LEFT) {
 3369               		.loc 2 517 16 view .LVU897
 3370 003e 00C0      		rjmp .L106
GAS LISTING C:\Users\kenne\AppData\Local\Temp\ccH82gYi.s 			page 102


 3371               	.LVL178:
 3372               	.L107:
 521:funsape/device/hd44780.cpp ****     }
 3373               		.loc 2 521 9 is_stmt 1 view .LVU898
 521:funsape/device/hd44780.cpp ****     }
 3374               		.loc 2 521 15 is_stmt 0 view .LVU899
 3375 0040 9E85      		ldd r25,Y+14
 3376 0042 892F      		mov r24,r25
 3377               	.LVL179:
 521:funsape/device/hd44780.cpp ****     }
 3378               		.loc 2 521 15 view .LVU900
 3379 0044 8695      		lsr r24
 3380 0046 8F73      		andi r24,lo8(63)
 521:funsape/device/hd44780.cpp ****     }
 3381               		.loc 2 521 28 view .LVU901
 3382 0048 8F5F      		subi r24,lo8(-(1))
 3383 004a 8F73      		andi r24,lo8(63)
 3384 004c 880F      		lsl r24
 3385 004e 9178      		andi r25,lo8(-127)
 3386 0050 892B      		or r24,r25
 3387 0052 8E87      		std Y+14,r24
 3388 0054 00C0      		rjmp .L108
 3389               		.cfi_endproc
 3390               	.LFE49:
 3392               		.section	.text._ZN7Hd4478012entryModeSetENS_4StepENS_11DisplayModeE,"ax",@progbits
 3393               	.global	_ZN7Hd4478012entryModeSetENS_4StepENS_11DisplayModeE
 3395               	_ZN7Hd4478012entryModeSetENS_4StepENS_11DisplayModeE:
 3396               	.LVL180:
 3397               	.LFB50:
 532:funsape/device/hd44780.cpp ****     // Mark passage for debugging purpose
 3398               		.loc 2 532 1 is_stmt 1 view -0
 3399               		.cfi_startproc
 532:funsape/device/hd44780.cpp ****     // Mark passage for debugging purpose
 3400               		.loc 2 532 1 is_stmt 0 view .LVU903
 3401 0000 0F93      		push r16
 3402               		.cfi_def_cfa_offset 3
 3403               		.cfi_offset 16, -2
 3404 0002 1F93      		push r17
 3405               		.cfi_def_cfa_offset 4
 3406               		.cfi_offset 17, -3
 3407 0004 CF93      		push r28
 3408               		.cfi_def_cfa_offset 5
 3409               		.cfi_offset 28, -4
 3410 0006 DF93      		push r29
 3411               		.cfi_def_cfa_offset 6
 3412               		.cfi_offset 29, -5
 3413               	/* prologue: function */
 3414               	/* frame size = 0 */
 3415               	/* stack size = 4 */
 3416               	.L__stack_usage = 4
 3417 0008 C82F      		mov r28,r24
 3418 000a D92F      		mov r29,r25
 3419 000c 062F      		mov r16,r22
 3420 000e 142F      		mov r17,r20
 534:funsape/device/hd44780.cpp **** 
 3421               		.loc 2 534 5 is_stmt 1 view .LVU904
 534:funsape/device/hd44780.cpp **** 
GAS LISTING C:\Users\kenne\AppData\Local\Temp\ccH82gYi.s 			page 103


 3422               		.loc 2 534 85 view .LVU905
 537:funsape/device/hd44780.cpp **** 
 3423               		.loc 2 537 5 view .LVU906
 3424               	.LVL181:
 539:funsape/device/hd44780.cpp ****     auxCommand |= (this->_entryShiftDisplay == DisplayMode::SHIFT) ? LCD_ENTRY_MODE_SET_SHIFT :
 3425               		.loc 2 539 5 view .LVU907
 539:funsape/device/hd44780.cpp ****     auxCommand |= (this->_entryShiftDisplay == DisplayMode::SHIFT) ? LCD_ENTRY_MODE_SET_SHIFT :
 3426               		.loc 2 539 39 is_stmt 0 view .LVU908
 3427 0010 8D85      		ldd r24,Y+13
 3428               	.LVL182:
 539:funsape/device/hd44780.cpp ****     auxCommand |= (this->_entryShiftDisplay == DisplayMode::SHIFT) ? LCD_ENTRY_MODE_SET_SHIFT :
 3429               		.loc 2 539 59 view .LVU909
 3430 0012 982F      		mov r25,r24
 3431 0014 9295      		swap r25
 3432 0016 9695      		lsr r25
 3433 0018 9770      		andi r25,lo8(7)
 3434               	.LVL183:
 540:funsape/device/hd44780.cpp ****             LCD_ENTRY_MODE_SET_OVERWRITE;
 3435               		.loc 2 540 5 is_stmt 1 view .LVU910
 540:funsape/device/hd44780.cpp ****             LCD_ENTRY_MODE_SET_OVERWRITE;
 3436               		.loc 2 540 68 is_stmt 0 view .LVU911
 3437 001a 881F      		rol r24
 3438 001c 8827      		clr r24
 3439 001e 881F      		rol r24
 3440               	.LVL184:
 542:funsape/device/hd44780.cpp **** 
 3441               		.loc 2 542 5 is_stmt 1 view .LVU912
 542:funsape/device/hd44780.cpp **** 
 3442               		.loc 2 542 24 is_stmt 0 view .LVU913
 3443 0020 9270      		andi r25,lo8(2)
 3444               	.LVL185:
 542:funsape/device/hd44780.cpp **** 
 3445               		.loc 2 542 24 view .LVU914
 3446 0022 9460      		ori r25,lo8(4)
 3447 0024 692F      		mov r22,r25
 3448               	.LVL186:
 542:funsape/device/hd44780.cpp **** 
 3449               		.loc 2 542 24 view .LVU915
 3450 0026 682B      		or r22,r24
 3451 0028 CE01      		movw r24,r28
 3452               	.LVL187:
 542:funsape/device/hd44780.cpp **** 
 3453               		.loc 2 542 24 view .LVU916
 3454 002a 0E94 0000 		call _ZN7Hd4478013_writeCommandEh
 3455               	.LVL188:
 544:funsape/device/hd44780.cpp ****     this->_entryShiftDisplay = mode_p;
 3456               		.loc 2 544 5 is_stmt 1 view .LVU917
 544:funsape/device/hd44780.cpp ****     this->_entryShiftDisplay = mode_p;
 3457               		.loc 2 544 24 is_stmt 0 view .LVU918
 3458 002e 8D85      		ldd r24,Y+13
 3459 0030 00FB      		bst r16,0
 3460 0032 86F9      		bld r24,6
 3461               	.LVL189:
 544:funsape/device/hd44780.cpp ****     this->_entryShiftDisplay = mode_p;
 3462               		.loc 2 544 24 view .LVU919
 3463 0034 8D87      		std Y+13,r24
 545:funsape/device/hd44780.cpp **** 
GAS LISTING C:\Users\kenne\AppData\Local\Temp\ccH82gYi.s 			page 104


 3464               		.loc 2 545 5 is_stmt 1 view .LVU920
 545:funsape/device/hd44780.cpp **** 
 3465               		.loc 2 545 30 is_stmt 0 view .LVU921
 3466 0036 10FB      		bst r17,0
 3467 0038 87F9      		bld r24,7
 3468               	.LVL190:
 545:funsape/device/hd44780.cpp **** 
 3469               		.loc 2 545 30 view .LVU922
 3470 003a 8D87      		std Y+13,r24
 548:funsape/device/hd44780.cpp ****     debugMessage(Error::NONE, DEBUG_HD44780);
 3471               		.loc 2 548 5 is_stmt 1 view .LVU923
 548:funsape/device/hd44780.cpp ****     debugMessage(Error::NONE, DEBUG_HD44780);
 3472               		.loc 2 548 22 is_stmt 0 view .LVU924
 3473 003c 198A      		std Y+17,__zero_reg__
 3474 003e 188A      		std Y+16,__zero_reg__
 549:funsape/device/hd44780.cpp ****     return true;
 3475               		.loc 2 549 5 is_stmt 1 view .LVU925
 549:funsape/device/hd44780.cpp ****     return true;
 3476               		.loc 2 549 45 view .LVU926
 550:funsape/device/hd44780.cpp **** }
 3477               		.loc 2 550 5 view .LVU927
 551:funsape/device/hd44780.cpp **** 
 3478               		.loc 2 551 1 is_stmt 0 view .LVU928
 3479 0040 81E0      		ldi r24,lo8(1)
 3480               	/* epilogue start */
 3481 0042 DF91      		pop r29
 3482 0044 CF91      		pop r28
 3483 0046 1F91      		pop r17
 3484 0048 0F91      		pop r16
 3485 004a 0895      		ret
 3486               		.cfi_endproc
 3487               	.LFE50:
 3489               		.section	.text._ZN7Hd4478015_writeCharacterEhb,"ax",@progbits
 3490               	.global	_ZN7Hd4478015_writeCharacterEhb
 3492               	_ZN7Hd4478015_writeCharacterEhb:
 3493               	.LVL191:
 3494               	.LFB57:
 713:funsape/device/hd44780.cpp **** 
 714:funsape/device/hd44780.cpp **** bool_t Hd44780::_writeCharacter(uint8_t character_p, bool_t ddramChar_p)
 715:funsape/device/hd44780.cpp **** {
 3495               		.loc 2 715 1 is_stmt 1 view -0
 3496               		.cfi_startproc
 3497               		.loc 2 715 1 is_stmt 0 view .LVU930
 3498 0000 0F93      		push r16
 3499               		.cfi_def_cfa_offset 3
 3500               		.cfi_offset 16, -2
 3501 0002 1F93      		push r17
 3502               		.cfi_def_cfa_offset 4
 3503               		.cfi_offset 17, -3
 3504 0004 CF93      		push r28
 3505               		.cfi_def_cfa_offset 5
 3506               		.cfi_offset 28, -4
 3507 0006 DF93      		push r29
 3508               		.cfi_def_cfa_offset 6
 3509               		.cfi_offset 29, -5
 3510               	/* prologue: function */
 3511               	/* frame size = 0 */
GAS LISTING C:\Users\kenne\AppData\Local\Temp\ccH82gYi.s 			page 105


 3512               	/* stack size = 4 */
 3513               	.L__stack_usage = 4
 3514 0008 C82F      		mov r28,r24
 3515 000a D92F      		mov r29,r25
 3516 000c 162F      		mov r17,r22
 3517 000e 042F      		mov r16,r20
 716:funsape/device/hd44780.cpp ****     if((this->_cursorColumn < 40) || (!ddramChar_p)) {
 3518               		.loc 2 716 5 is_stmt 1 view .LVU931
 3519               		.loc 2 716 15 is_stmt 0 view .LVU932
 3520 0010 8E85      		ldd r24,Y+14
 3521               	.LVL192:
 3522               		.loc 2 716 15 view .LVU933
 3523 0012 8695      		lsr r24
 3524 0014 8F73      		andi r24,lo8(63)
 3525               		.loc 2 716 5 view .LVU934
 3526 0016 8832      		cpi r24,lo8(40)
 3527 0018 00F0      		brlo .L112
 3528               		.loc 2 716 35 discriminator 1 view .LVU935
 3529 001a 4111      		cpse r20,__zero_reg__
 3530 001c 00C0      		rjmp .L113
 3531               	.L112:
 717:funsape/device/hd44780.cpp ****         if(this->_useBusyFlag) {
 3532               		.loc 2 717 9 is_stmt 1 view .LVU936
 3533               		.loc 2 717 18 is_stmt 0 view .LVU937
 3534 001e 8C85      		ldd r24,Y+12
 3535               		.loc 2 717 9 view .LVU938
 3536 0020 84FD      		sbrc r24,4
 3537 0022 00C0      		rjmp .L118
 3538               	.LVL193:
 3539               	.L114:
 718:funsape/device/hd44780.cpp ****             this->_waitUntilReady();
 719:funsape/device/hd44780.cpp ****             clrBit(*(this->_controlPout), this->_controlRw);    // LCD in write mode
 720:funsape/device/hd44780.cpp ****         }
 721:funsape/device/hd44780.cpp ****         setBit(*(this->_controlPout), this->_controlRs);    // LCD in command mode
 3540               		.loc 2 721 9 is_stmt 1 view .LVU939
 3541 0024 EA81      		ldd r30,Y+2
 3542 0026 FB81      		ldd r31,Y+3
 3543 0028 4081      		ld r20,Z
 3544 002a 2C81      		ldd r18,Y+4
 3545 002c 2695      		lsr r18
 3546 002e 2695      		lsr r18
 3547 0030 2695      		lsr r18
 3548 0032 2770      		andi r18,lo8(7)
 3549 0034 81E0      		ldi r24,lo8(1)
 3550 0036 90E0      		ldi r25,0
 3551 0038 BC01      		movw r22,r24
 3552 003a 00C0      		rjmp 2f
 3553               		1:
 3554 003c 660F      		lsl r22
 3555 003e 771F      		rol r23
 3556               		2:
 3557 0040 2A95      		dec r18
 3558 0042 02F4      		brpl 1b
 3559 0044 9B01      		movw r18,r22
 3560 0046 242B      		or r18,r20
 3561 0048 2083      		st Z,r18
 722:funsape/device/hd44780.cpp ****         clrBit(*(this->_controlPout), this->_controlE);     // Makes sure enable is LOW
GAS LISTING C:\Users\kenne\AppData\Local\Temp\ccH82gYi.s 			page 106


 3562               		.loc 2 722 9 view .LVU940
 3563 004a EA81      		ldd r30,Y+2
 3564 004c FB81      		ldd r31,Y+3
 3565 004e 3081      		ld r19,Z
 3566 0050 2C81      		ldd r18,Y+4
 3567 0052 2770      		andi r18,lo8(7)
 3568 0054 00C0      		rjmp 2f
 3569               		1:
 3570 0056 880F      		lsl r24
 3571 0058 991F      		rol r25
 3572               		2:
 3573 005a 2A95      		dec r18
 3574 005c 02F4      		brpl 1b
 3575 005e 8095      		com r24
 3576 0060 8323      		and r24,r19
 3577 0062 8083      		st Z,r24
 723:funsape/device/hd44780.cpp ****         if(this->_use4LinesData) {
 3578               		.loc 2 723 9 view .LVU941
 3579               		.loc 2 723 18 is_stmt 0 view .LVU942
 3580 0064 8C85      		ldd r24,Y+12
 3581               		.loc 2 723 9 view .LVU943
 3582 0066 83FF      		sbrs r24,3
 3583 0068 00C0      		rjmp .L115
 724:funsape/device/hd44780.cpp ****             clrMaskOffset(*(this->_dataPout), 0x0F, this->_dataFirst);    // Writes data (higher ni
 3584               		.loc 2 724 13 is_stmt 1 view .LVU944
 3585 006a E885      		ldd r30,Y+8
 3586 006c F985      		ldd r31,Y+9
 3587 006e 4081      		ld r20,Z
 3588 0070 8770      		andi r24,lo8(7)
 3589 0072 2FE0      		ldi r18,lo8(15)
 3590 0074 30E0      		ldi r19,0
 3591 0076 D901      		movw r26,r18
 3592 0078 00C0      		rjmp 2f
 3593               		1:
 3594 007a AA0F      		lsl r26
 3595 007c BB1F      		rol r27
 3596               		2:
 3597 007e 8A95      		dec r24
 3598 0080 02F4      		brpl 1b
 3599 0082 CD01      		movw r24,r26
 3600 0084 8095      		com r24
 3601 0086 8423      		and r24,r20
 3602 0088 8083      		st Z,r24
 725:funsape/device/hd44780.cpp ****             *(this->_dataPout) |= ((character_p >> 4) << this->_dataFirst);
 3603               		.loc 2 725 13 view .LVU945
 3604               		.loc 2 725 21 is_stmt 0 view .LVU946
 3605 008a E885      		ldd r30,Y+8
 3606 008c F985      		ldd r31,Y+9
 3607               		.loc 2 725 13 view .LVU947
 3608 008e 4081      		ld r20,Z
 3609               		.loc 2 725 49 view .LVU948
 3610 0090 812F      		mov r24,r17
 3611 0092 8295      		swap r24
 3612 0094 8F70      		andi r24,lo8(15)
 3613 0096 90E0      		ldi r25,0
 3614               		.loc 2 725 64 view .LVU949
 3615 0098 5C85      		ldd r21,Y+12
GAS LISTING C:\Users\kenne\AppData\Local\Temp\ccH82gYi.s 			page 107


 3616 009a 5770      		andi r21,lo8(7)
 3617               		.loc 2 725 55 view .LVU950
 3618 009c 00C0      		rjmp 2f
 3619               		1:
 3620 009e 880F      		lsl r24
 3621 00a0 991F      		rol r25
 3622               		2:
 3623 00a2 5A95      		dec r21
 3624 00a4 02F4      		brpl 1b
 3625               		.loc 2 725 32 view .LVU951
 3626 00a6 842B      		or r24,r20
 3627 00a8 8083      		st Z,r24
 726:funsape/device/hd44780.cpp ****             setBit(*(this->_controlPout), this->_controlE);         // Enable pulse start
 3628               		.loc 2 726 13 is_stmt 1 view .LVU952
 3629 00aa EA81      		ldd r30,Y+2
 3630 00ac FB81      		ldd r31,Y+3
 3631 00ae 6081      		ld r22,Z
 3632 00b0 4C81      		ldd r20,Y+4
 3633 00b2 4770      		andi r20,lo8(7)
 3634 00b4 81E0      		ldi r24,lo8(1)
 3635 00b6 90E0      		ldi r25,0
 3636 00b8 DC01      		movw r26,r24
 3637 00ba 00C0      		rjmp 2f
 3638               		1:
 3639 00bc AA0F      		lsl r26
 3640 00be BB1F      		rol r27
 3641               		2:
 3642 00c0 4A95      		dec r20
 3643 00c2 02F4      		brpl 1b
 3644 00c4 AD01      		movw r20,r26
 3645 00c6 462B      		or r20,r22
 3646 00c8 4083      		st Z,r20
 727:funsape/device/hd44780.cpp ****             delayUs(1);
 3647               		.loc 2 727 13 view .LVU953
 3648               	.LVL194:
 3649               	.LBB91:
 3650               	.LBI91:
 255:c:\d\ifsc\vscodeleandro\ex\toolchains\avr-gcc\avr\include\util\delay.h **** {
 3651               		.loc 3 255 1 view .LVU954
 3652               	.LBB92:
 257:c:\d\ifsc\vscodeleandro\ex\toolchains\avr-gcc\avr\include\util\delay.h **** #if __HAS_DELAY_CYCLES && defined(__OPTIMIZE__) && \
 3653               		.loc 3 257 2 view .LVU955
 261:c:\d\ifsc\vscodeleandro\ex\toolchains\avr-gcc\avr\include\util\delay.h **** 	extern void __builtin_avr_delay_cycles(unsigned long);
 3654               		.loc 3 261 2 view .LVU956
 262:c:\d\ifsc\vscodeleandro\ex\toolchains\avr-gcc\avr\include\util\delay.h **** 	__tmp = ((F_CPU) / 1e6) * __us;
 3655               		.loc 3 262 2 view .LVU957
 263:c:\d\ifsc\vscodeleandro\ex\toolchains\avr-gcc\avr\include\util\delay.h **** 
 3656               		.loc 3 263 2 view .LVU958
 273:c:\d\ifsc\vscodeleandro\ex\toolchains\avr-gcc\avr\include\util\delay.h **** 	#endif
 3657               		.loc 3 273 3 view .LVU959
 3658               		.loc 3 276 2 view .LVU960
 3659               		.loc 3 276 28 is_stmt 0 view .LVU961
 3660 00ca B5E0      		ldi r27,lo8(5)
 3661 00cc BA95      	1:	dec r27
 3662 00ce 01F4      		brne 1b
 3663 00d0 0000      		nop
 3664               	.LVL195:
GAS LISTING C:\Users\kenne\AppData\Local\Temp\ccH82gYi.s 			page 108


 3665               		.loc 3 276 28 view .LVU962
 3666               	.LBE92:
 3667               	.LBE91:
 728:funsape/device/hd44780.cpp ****             clrBit(*(this->_controlPout), this->_controlE);         // Enable pulse end
 3668               		.loc 2 728 13 is_stmt 1 view .LVU963
 3669 00d2 EA81      		ldd r30,Y+2
 3670 00d4 FB81      		ldd r31,Y+3
 3671 00d6 5081      		ld r21,Z
 3672 00d8 4C81      		ldd r20,Y+4
 3673 00da 4770      		andi r20,lo8(7)
 3674 00dc 00C0      		rjmp 2f
 3675               		1:
 3676 00de 880F      		lsl r24
 3677 00e0 991F      		rol r25
 3678               		2:
 3679 00e2 4A95      		dec r20
 3680 00e4 02F4      		brpl 1b
 3681 00e6 8095      		com r24
 3682 00e8 8523      		and r24,r21
 3683 00ea 8083      		st Z,r24
 729:funsape/device/hd44780.cpp ****             delayUs(1);
 3684               		.loc 2 729 13 view .LVU964
 3685               	.LVL196:
 3686               	.LBB93:
 3687               	.LBI93:
 255:c:\d\ifsc\vscodeleandro\ex\toolchains\avr-gcc\avr\include\util\delay.h **** {
 3688               		.loc 3 255 1 view .LVU965
 3689               	.LBB94:
 257:c:\d\ifsc\vscodeleandro\ex\toolchains\avr-gcc\avr\include\util\delay.h **** #if __HAS_DELAY_CYCLES && defined(__OPTIMIZE__) && \
 3690               		.loc 3 257 2 view .LVU966
 261:c:\d\ifsc\vscodeleandro\ex\toolchains\avr-gcc\avr\include\util\delay.h **** 	extern void __builtin_avr_delay_cycles(unsigned long);
 3691               		.loc 3 261 2 view .LVU967
 262:c:\d\ifsc\vscodeleandro\ex\toolchains\avr-gcc\avr\include\util\delay.h **** 	__tmp = ((F_CPU) / 1e6) * __us;
 3692               		.loc 3 262 2 view .LVU968
 263:c:\d\ifsc\vscodeleandro\ex\toolchains\avr-gcc\avr\include\util\delay.h **** 
 3693               		.loc 3 263 2 view .LVU969
 273:c:\d\ifsc\vscodeleandro\ex\toolchains\avr-gcc\avr\include\util\delay.h **** 	#endif
 3694               		.loc 3 273 3 view .LVU970
 3695               		.loc 3 276 2 view .LVU971
 3696               		.loc 3 276 28 is_stmt 0 view .LVU972
 3697 00ec 45E0      		ldi r20,lo8(5)
 3698 00ee 4A95      	1:	dec r20
 3699 00f0 01F4      		brne 1b
 3700 00f2 0000      		nop
 3701               	.LVL197:
 3702               		.loc 3 276 28 view .LVU973
 3703               	.LBE94:
 3704               	.LBE93:
 730:funsape/device/hd44780.cpp ****             clrMaskOffset(*(this->_dataPout), 0x0F, this->_dataFirst);    // Writes data (lower nib
 3705               		.loc 2 730 13 is_stmt 1 view .LVU974
 3706 00f4 E885      		ldd r30,Y+8
 3707 00f6 F985      		ldd r31,Y+9
 3708 00f8 9081      		ld r25,Z
 3709 00fa 8C85      		ldd r24,Y+12
 3710 00fc 8770      		andi r24,lo8(7)
 3711 00fe 00C0      		rjmp 2f
 3712               		1:
GAS LISTING C:\Users\kenne\AppData\Local\Temp\ccH82gYi.s 			page 109


 3713 0100 220F      		lsl r18
 3714 0102 331F      		rol r19
 3715               		2:
 3716 0104 8A95      		dec r24
 3717 0106 02F4      		brpl 1b
 3718 0108 2095      		com r18
 3719 010a 2923      		and r18,r25
 3720 010c 2083      		st Z,r18
 731:funsape/device/hd44780.cpp ****             *(this->_dataPout) |= ((character_p & 0x0F) << this->_dataFirst);
 3721               		.loc 2 731 13 view .LVU975
 3722               		.loc 2 731 21 is_stmt 0 view .LVU976
 3723 010e E885      		ldd r30,Y+8
 3724 0110 F985      		ldd r31,Y+9
 3725               		.loc 2 731 13 view .LVU977
 3726 0112 2081      		ld r18,Z
 3727               		.loc 2 731 49 view .LVU978
 3728 0114 1F70      		andi r17,lo8(15)
 3729               	.LVL198:
 3730               		.loc 2 731 49 view .LVU979
 3731 0116 812F      		mov r24,r17
 3732 0118 90E0      		ldi r25,0
 3733               		.loc 2 731 66 view .LVU980
 3734 011a 3C85      		ldd r19,Y+12
 3735 011c 3770      		andi r19,lo8(7)
 3736               		.loc 2 731 57 view .LVU981
 3737 011e 00C0      		rjmp 2f
 3738               		1:
 3739 0120 880F      		lsl r24
 3740 0122 991F      		rol r25
 3741               		2:
 3742 0124 3A95      		dec r19
 3743 0126 02F4      		brpl 1b
 3744               		.loc 2 731 32 view .LVU982
 3745 0128 822B      		or r24,r18
 3746 012a 8083      		st Z,r24
 3747               	.L116:
 732:funsape/device/hd44780.cpp ****         } else {
 733:funsape/device/hd44780.cpp ****             *(this->_dataPout) = character_p;                   // Writes data
 734:funsape/device/hd44780.cpp ****         }
 735:funsape/device/hd44780.cpp ****         setBit(*(this->_controlPout), this->_controlE);     // Enable pulse start
 3748               		.loc 2 735 9 is_stmt 1 view .LVU983
 3749 012c EA81      		ldd r30,Y+2
 3750 012e FB81      		ldd r31,Y+3
 3751 0130 4081      		ld r20,Z
 3752 0132 2C81      		ldd r18,Y+4
 3753 0134 2770      		andi r18,lo8(7)
 3754 0136 81E0      		ldi r24,lo8(1)
 3755 0138 90E0      		ldi r25,0
 3756 013a BC01      		movw r22,r24
 3757 013c 00C0      		rjmp 2f
 3758               		1:
 3759 013e 660F      		lsl r22
 3760 0140 771F      		rol r23
 3761               		2:
 3762 0142 2A95      		dec r18
 3763 0144 02F4      		brpl 1b
 3764 0146 9B01      		movw r18,r22
GAS LISTING C:\Users\kenne\AppData\Local\Temp\ccH82gYi.s 			page 110


 3765 0148 242B      		or r18,r20
 3766 014a 2083      		st Z,r18
 736:funsape/device/hd44780.cpp ****         delayUs(1);
 3767               		.loc 2 736 9 view .LVU984
 3768               	.LVL199:
 3769               	.LBB95:
 3770               	.LBI95:
 255:c:\d\ifsc\vscodeleandro\ex\toolchains\avr-gcc\avr\include\util\delay.h **** {
 3771               		.loc 3 255 1 view .LVU985
 3772               	.LBB96:
 257:c:\d\ifsc\vscodeleandro\ex\toolchains\avr-gcc\avr\include\util\delay.h **** #if __HAS_DELAY_CYCLES && defined(__OPTIMIZE__) && \
 3773               		.loc 3 257 2 view .LVU986
 261:c:\d\ifsc\vscodeleandro\ex\toolchains\avr-gcc\avr\include\util\delay.h **** 	extern void __builtin_avr_delay_cycles(unsigned long);
 3774               		.loc 3 261 2 view .LVU987
 262:c:\d\ifsc\vscodeleandro\ex\toolchains\avr-gcc\avr\include\util\delay.h **** 	__tmp = ((F_CPU) / 1e6) * __us;
 3775               		.loc 3 262 2 view .LVU988
 263:c:\d\ifsc\vscodeleandro\ex\toolchains\avr-gcc\avr\include\util\delay.h **** 
 3776               		.loc 3 263 2 view .LVU989
 273:c:\d\ifsc\vscodeleandro\ex\toolchains\avr-gcc\avr\include\util\delay.h **** 	#endif
 3777               		.loc 3 273 3 view .LVU990
 3778               		.loc 3 276 2 view .LVU991
 3779               		.loc 3 276 28 is_stmt 0 view .LVU992
 3780 014c 75E0      		ldi r23,lo8(5)
 3781 014e 7A95      	1:	dec r23
 3782 0150 01F4      		brne 1b
 3783 0152 0000      		nop
 3784               	.LVL200:
 3785               		.loc 3 276 28 view .LVU993
 3786               	.LBE96:
 3787               	.LBE95:
 737:funsape/device/hd44780.cpp ****         clrBit(*(this->_controlPout), this->_controlE);     // Enable pulse end
 3788               		.loc 2 737 9 is_stmt 1 view .LVU994
 3789 0154 EA81      		ldd r30,Y+2
 3790 0156 FB81      		ldd r31,Y+3
 3791 0158 3081      		ld r19,Z
 3792 015a 2C81      		ldd r18,Y+4
 3793 015c 2770      		andi r18,lo8(7)
 3794 015e 00C0      		rjmp 2f
 3795               		1:
 3796 0160 880F      		lsl r24
 3797 0162 991F      		rol r25
 3798               		2:
 3799 0164 2A95      		dec r18
 3800 0166 02F4      		brpl 1b
 3801 0168 8095      		com r24
 3802 016a 8323      		and r24,r19
 3803 016c 8083      		st Z,r24
 738:funsape/device/hd44780.cpp ****         if(!this->_useBusyFlag) {
 3804               		.loc 2 738 9 view .LVU995
 3805               		.loc 2 738 19 is_stmt 0 view .LVU996
 3806 016e 8C85      		ldd r24,Y+12
 3807               		.loc 2 738 9 view .LVU997
 3808 0170 84FD      		sbrc r24,4
 3809 0172 00C0      		rjmp .L117
 739:funsape/device/hd44780.cpp ****             delayUs(40);
 3810               		.loc 2 739 13 is_stmt 1 view .LVU998
 3811               	.LVL201:
GAS LISTING C:\Users\kenne\AppData\Local\Temp\ccH82gYi.s 			page 111


 3812               	.LBB97:
 3813               	.LBI97:
 255:c:\d\ifsc\vscodeleandro\ex\toolchains\avr-gcc\avr\include\util\delay.h **** {
 3814               		.loc 3 255 1 view .LVU999
 3815               	.LBB98:
 257:c:\d\ifsc\vscodeleandro\ex\toolchains\avr-gcc\avr\include\util\delay.h **** #if __HAS_DELAY_CYCLES && defined(__OPTIMIZE__) && \
 3816               		.loc 3 257 2 view .LVU1000
 261:c:\d\ifsc\vscodeleandro\ex\toolchains\avr-gcc\avr\include\util\delay.h **** 	extern void __builtin_avr_delay_cycles(unsigned long);
 3817               		.loc 3 261 2 view .LVU1001
 262:c:\d\ifsc\vscodeleandro\ex\toolchains\avr-gcc\avr\include\util\delay.h **** 	__tmp = ((F_CPU) / 1e6) * __us;
 3818               		.loc 3 262 2 view .LVU1002
 263:c:\d\ifsc\vscodeleandro\ex\toolchains\avr-gcc\avr\include\util\delay.h **** 
 3819               		.loc 3 263 2 view .LVU1003
 273:c:\d\ifsc\vscodeleandro\ex\toolchains\avr-gcc\avr\include\util\delay.h **** 	#endif
 3820               		.loc 3 273 3 view .LVU1004
 3821               		.loc 3 276 2 view .LVU1005
 3822               		.loc 3 276 28 is_stmt 0 view .LVU1006
 3823 0174 85ED      		ldi r24,lo8(-43)
 3824 0176 8A95      	1:	dec r24
 3825 0178 01F4      		brne 1b
 3826 017a 0000      		nop
 3827               	.LVL202:
 3828               	.L117:
 3829               		.loc 3 276 28 view .LVU1007
 3830               	.LBE98:
 3831               	.LBE97:
 740:funsape/device/hd44780.cpp ****         }
 741:funsape/device/hd44780.cpp ****         if(ddramChar_p) {
 3832               		.loc 2 741 9 is_stmt 1 view .LVU1008
 3833 017c 0023      		tst r16
 3834 017e 01F0      		breq .L113
 742:funsape/device/hd44780.cpp ****             this->_cursorColumn++;
 3835               		.loc 2 742 13 view .LVU1009
 3836               		.loc 2 742 19 is_stmt 0 view .LVU1010
 3837 0180 9E85      		ldd r25,Y+14
 3838 0182 892F      		mov r24,r25
 3839 0184 8695      		lsr r24
 3840 0186 8F73      		andi r24,lo8(63)
 3841               		.loc 2 742 32 view .LVU1011
 3842 0188 8F5F      		subi r24,lo8(-(1))
 3843 018a 8F73      		andi r24,lo8(63)
 3844 018c 880F      		lsl r24
 3845 018e 9178      		andi r25,lo8(-127)
 3846 0190 892B      		or r24,r25
 3847 0192 8E87      		std Y+14,r24
 3848               	.L113:
 743:funsape/device/hd44780.cpp ****         }
 744:funsape/device/hd44780.cpp ****     }
 745:funsape/device/hd44780.cpp **** 
 746:funsape/device/hd44780.cpp ****     // Returns successfully
 747:funsape/device/hd44780.cpp ****     return true;
 3849               		.loc 2 747 5 is_stmt 1 view .LVU1012
 748:funsape/device/hd44780.cpp **** }
 3850               		.loc 2 748 1 is_stmt 0 view .LVU1013
 3851 0194 81E0      		ldi r24,lo8(1)
 3852               	/* epilogue start */
 3853 0196 DF91      		pop r29
GAS LISTING C:\Users\kenne\AppData\Local\Temp\ccH82gYi.s 			page 112


 3854 0198 CF91      		pop r28
 3855 019a 1F91      		pop r17
 3856 019c 0F91      		pop r16
 3857               	.LVL203:
 3858               		.loc 2 748 1 view .LVU1014
 3859 019e 0895      		ret
 3860               	.LVL204:
 3861               	.L118:
 718:funsape/device/hd44780.cpp ****             clrBit(*(this->_controlPout), this->_controlRw);    // LCD in write mode
 3862               		.loc 2 718 13 is_stmt 1 view .LVU1015
 718:funsape/device/hd44780.cpp ****             clrBit(*(this->_controlPout), this->_controlRw);    // LCD in write mode
 3863               		.loc 2 718 34 is_stmt 0 view .LVU1016
 3864 01a0 CE01      		movw r24,r28
 3865 01a2 0E94 0000 		call _ZN7Hd4478015_waitUntilReadyEv
 3866               	.LVL205:
 719:funsape/device/hd44780.cpp ****         }
 3867               		.loc 2 719 13 is_stmt 1 view .LVU1017
 3868 01a6 EA81      		ldd r30,Y+2
 3869 01a8 FB81      		ldd r31,Y+3
 3870 01aa 3081      		ld r19,Z
 3871 01ac 8C81      		ldd r24,Y+4
 3872 01ae 8295      		swap r24
 3873 01b0 8695      		lsr r24
 3874 01b2 8695      		lsr r24
 3875 01b4 8370      		andi r24,lo8(3)
 3876 01b6 2D81      		ldd r18,Y+5
 3877 01b8 2170      		andi r18,lo8(1)
 3878 01ba 220F      		lsl r18
 3879 01bc 220F      		lsl r18
 3880 01be 282B      		or r18,r24
 3881 01c0 81E0      		ldi r24,lo8(1)
 3882 01c2 90E0      		ldi r25,0
 3883 01c4 00C0      		rjmp 2f
 3884               		1:
 3885 01c6 880F      		lsl r24
 3886 01c8 991F      		rol r25
 3887               		2:
 3888 01ca 2A95      		dec r18
 3889 01cc 02F4      		brpl 1b
 3890 01ce 8095      		com r24
 3891 01d0 8323      		and r24,r19
 3892 01d2 8083      		st Z,r24
 3893 01d4 00C0      		rjmp .L114
 3894               	.L115:
 733:funsape/device/hd44780.cpp ****         }
 3895               		.loc 2 733 13 view .LVU1018
 733:funsape/device/hd44780.cpp ****         }
 3896               		.loc 2 733 21 is_stmt 0 view .LVU1019
 3897 01d6 E885      		ldd r30,Y+8
 3898 01d8 F985      		ldd r31,Y+9
 733:funsape/device/hd44780.cpp ****         }
 3899               		.loc 2 733 32 view .LVU1020
 3900 01da 1083      		st Z,r17
 3901 01dc 00C0      		rjmp .L116
 3902               		.cfi_endproc
 3903               	.LFE57:
 3905               		.section	.text._ZL11lcdWriteStdcP6__file,"ax",@progbits
GAS LISTING C:\Users\kenne\AppData\Local\Temp\ccH82gYi.s 			page 113


 3907               	_ZL11lcdWriteStdcP6__file:
 3908               	.LVL206:
 3909               	.LFB58:
 749:funsape/device/hd44780.cpp **** 
 750:funsape/device/hd44780.cpp **** // =============================================================================
 751:funsape/device/hd44780.cpp **** // Class protected methods
 752:funsape/device/hd44780.cpp **** // =============================================================================
 753:funsape/device/hd44780.cpp **** 
 754:funsape/device/hd44780.cpp **** // NONE
 755:funsape/device/hd44780.cpp **** 
 756:funsape/device/hd44780.cpp **** // =============================================================================
 757:funsape/device/hd44780.cpp **** // Static functions definitions
 758:funsape/device/hd44780.cpp **** // =============================================================================
 759:funsape/device/hd44780.cpp **** 
 760:funsape/device/hd44780.cpp **** static int lcdWriteStd(char character, FILE *stream)
 761:funsape/device/hd44780.cpp **** {
 3910               		.loc 2 761 1 is_stmt 1 view -0
 3911               		.cfi_startproc
 3912               		.loc 2 761 1 is_stmt 0 view .LVU1022
 3913 0000 CF93      		push r28
 3914               		.cfi_def_cfa_offset 3
 3915               		.cfi_offset 28, -2
 3916 0002 DF93      		push r29
 3917               		.cfi_def_cfa_offset 4
 3918               		.cfi_offset 29, -3
 3919               	/* prologue: function */
 3920               	/* frame size = 0 */
 3921               	/* stack size = 2 */
 3922               	.L__stack_usage = 2
 3923 0004 682F      		mov r22,r24
 3924               	.LVL207:
 762:funsape/device/hd44780.cpp ****     uint8_t columns = defaultDisplay->_columns + 1;
 3925               		.loc 2 762 5 is_stmt 1 view .LVU1023
 3926               		.loc 2 762 39 is_stmt 0 view .LVU1024
 3927 0006 E091 0000 		lds r30,defaultDisplay
 3928 000a F091 0000 		lds r31,defaultDisplay+1
 3929 000e 8485      		ldd r24,Z+12
 3930               	.LVL208:
 3931               		.loc 2 762 39 view .LVU1025
 3932 0010 8295      		swap r24
 3933 0012 8695      		lsr r24
 3934 0014 8770      		andi r24,lo8(7)
 3935 0016 D585      		ldd r29,Z+13
 3936 0018 D770      		andi r29,lo8(7)
 3937 001a DD0F      		lsl r29
 3938 001c DD0F      		lsl r29
 3939 001e DD0F      		lsl r29
 3940 0020 D82B      		or r29,r24
 3941               		.loc 2 762 13 view .LVU1026
 3942 0022 DF5F      		subi r29,lo8(-(1))
 3943               	.LVL209:
 763:funsape/device/hd44780.cpp ****     uint8_t i = 0;
 3944               		.loc 2 763 5 is_stmt 1 view .LVU1027
 764:funsape/device/hd44780.cpp **** 
 765:funsape/device/hd44780.cpp ****     if(character == '\n') {
 3945               		.loc 2 765 5 view .LVU1028
 3946 0024 6A30      		cpi r22,lo8(10)
GAS LISTING C:\Users\kenne\AppData\Local\Temp\ccH82gYi.s 			page 114


 3947 0026 01F4      		brne .L120
 766:funsape/device/hd44780.cpp ****         for(i = defaultDisplay->_cursorColumn; i < columns; i++) {
 3948               		.loc 2 766 9 view .LVU1029
 3949               		.loc 2 766 33 is_stmt 0 view .LVU1030
 3950 0028 C685      		ldd r28,Z+14
 3951 002a C695      		lsr r28
 3952 002c CF73      		andi r28,lo8(63)
 3953               	.LVL210:
 3954               		.loc 2 766 9 view .LVU1031
 3955 002e 00C0      		rjmp .L121
 3956               	.LVL211:
 3957               	.L122:
 767:funsape/device/hd44780.cpp ****             defaultDisplay->_writeCharacter(' ', true);
 3958               		.loc 2 767 13 is_stmt 1 discriminator 3 view .LVU1032
 3959               		.loc 2 767 44 is_stmt 0 discriminator 3 view .LVU1033
 3960 0030 41E0      		ldi r20,lo8(1)
 3961 0032 60E2      		ldi r22,lo8(32)
 3962 0034 8091 0000 		lds r24,defaultDisplay
 3963 0038 9091 0000 		lds r25,defaultDisplay+1
 3964 003c 0E94 0000 		call _ZN7Hd4478015_writeCharacterEhb
 3965               	.LVL212:
 766:funsape/device/hd44780.cpp ****         for(i = defaultDisplay->_cursorColumn; i < columns; i++) {
 3966               		.loc 2 766 9 is_stmt 1 discriminator 3 view .LVU1034
 3967 0040 CF5F      		subi r28,lo8(-(1))
 3968               	.LVL213:
 3969               	.L121:
 766:funsape/device/hd44780.cpp ****         for(i = defaultDisplay->_cursorColumn; i < columns; i++) {
 3970               		.loc 2 766 50 discriminator 1 view .LVU1035
 3971 0042 CD17      		cp r28,r29
 3972 0044 00F0      		brlo .L122
 768:funsape/device/hd44780.cpp ****         }
 769:funsape/device/hd44780.cpp ****         defaultDisplay->cursorMoveNextLine();
 3973               		.loc 2 769 9 view .LVU1036
 3974               		.loc 2 769 43 is_stmt 0 view .LVU1037
 3975 0046 8091 0000 		lds r24,defaultDisplay
 3976 004a 9091 0000 		lds r25,defaultDisplay+1
 3977 004e 0E94 0000 		call _ZN7Hd4478018cursorMoveNextLineEv
 3978               	.LVL214:
 3979               	.L123:
 770:funsape/device/hd44780.cpp ****     } else {
 771:funsape/device/hd44780.cpp ****         defaultDisplay->_writeCharacter(character, true);
 772:funsape/device/hd44780.cpp ****     }
 773:funsape/device/hd44780.cpp **** 
 774:funsape/device/hd44780.cpp ****     return 0;
 3980               		.loc 2 774 5 is_stmt 1 view .LVU1038
 775:funsape/device/hd44780.cpp **** }
 3981               		.loc 2 775 1 is_stmt 0 view .LVU1039
 3982 0052 80E0      		ldi r24,0
 3983 0054 90E0      		ldi r25,0
 3984               	/* epilogue start */
 3985 0056 DF91      		pop r29
 3986               	.LVL215:
 3987               		.loc 2 775 1 view .LVU1040
 3988 0058 CF91      		pop r28
 3989 005a 0895      		ret
 3990               	.LVL216:
 3991               	.L120:
GAS LISTING C:\Users\kenne\AppData\Local\Temp\ccH82gYi.s 			page 115


 771:funsape/device/hd44780.cpp ****     }
 3992               		.loc 2 771 9 is_stmt 1 view .LVU1041
 771:funsape/device/hd44780.cpp ****     }
 3993               		.loc 2 771 40 is_stmt 0 view .LVU1042
 3994 005c 41E0      		ldi r20,lo8(1)
 3995 005e CF01      		movw r24,r30
 3996 0060 0E94 0000 		call _ZN7Hd4478015_writeCharacterEhb
 3997               	.LVL217:
 771:funsape/device/hd44780.cpp ****     }
 3998               		.loc 2 771 40 view .LVU1043
 3999 0064 00C0      		rjmp .L123
 4000               		.cfi_endproc
 4001               	.LFE58:
 4003               		.section	.text._ZN7Hd4478018customCharacterSetEhPKh,"ax",@progbits
 4004               	.global	_ZN7Hd4478018customCharacterSetEhPKh
 4006               	_ZN7Hd4478018customCharacterSetEhPKh:
 4007               	.LVL218:
 4008               	.LFB52:
 569:funsape/device/hd44780.cpp ****     // Mark passage for debugging purpose
 4009               		.loc 2 569 1 is_stmt 1 view -0
 4010               		.cfi_startproc
 569:funsape/device/hd44780.cpp ****     // Mark passage for debugging purpose
 4011               		.loc 2 569 1 is_stmt 0 view .LVU1045
 4012 0000 EF92      		push r14
 4013               		.cfi_def_cfa_offset 3
 4014               		.cfi_offset 14, -2
 4015 0002 FF92      		push r15
 4016               		.cfi_def_cfa_offset 4
 4017               		.cfi_offset 15, -3
 4018 0004 0F93      		push r16
 4019               		.cfi_def_cfa_offset 5
 4020               		.cfi_offset 16, -4
 4021 0006 1F93      		push r17
 4022               		.cfi_def_cfa_offset 6
 4023               		.cfi_offset 17, -5
 4024 0008 CF93      		push r28
 4025               		.cfi_def_cfa_offset 7
 4026               		.cfi_offset 28, -6
 4027               	/* prologue: function */
 4028               	/* frame size = 0 */
 4029               	/* stack size = 5 */
 4030               	.L__stack_usage = 5
 4031 000a 082F      		mov r16,r24
 4032 000c 192F      		mov r17,r25
 4033 000e E42E      		mov r14,r20
 4034 0010 F52E      		mov r15,r21
 571:funsape/device/hd44780.cpp **** 
 4035               		.loc 2 571 5 is_stmt 1 view .LVU1046
 571:funsape/device/hd44780.cpp **** 
 4036               		.loc 2 571 82 view .LVU1047
 573:funsape/device/hd44780.cpp ****         if(charAddress_p > 7) {
 4037               		.loc 2 573 5 view .LVU1048
 4038               	.LBB99:
 573:funsape/device/hd44780.cpp ****         if(charAddress_p > 7) {
 4039               		.loc 2 573 20 is_stmt 0 view .LVU1049
 4040 0012 F801      		movw r30,r16
 4041 0014 C585      		ldd r28,Z+13
GAS LISTING C:\Users\kenne\AppData\Local\Temp\ccH82gYi.s 			page 116


 4042 0016 C072      		andi r28,lo8(32)
 573:funsape/device/hd44780.cpp ****         if(charAddress_p > 7) {
 4043               		.loc 2 573 5 view .LVU1050
 4044 0018 C111      		cpse r28,__zero_reg__
 4045 001a 00C0      		rjmp .L125
 4046               	.LBB100:
 574:funsape/device/hd44780.cpp ****             return false;
 4047               		.loc 2 574 9 is_stmt 1 view .LVU1051
 4048 001c 6830      		cpi r22,lo8(8)
 4049 001e 00F0      		brlo .L134
 575:funsape/device/hd44780.cpp ****         }
 4050               		.loc 2 575 20 is_stmt 0 view .LVU1052
 4051 0020 80E0      		ldi r24,0
 4052               	.LVL219:
 575:funsape/device/hd44780.cpp ****         }
 4053               		.loc 2 575 20 view .LVU1053
 4054 0022 00C0      		rjmp .L124
 4055               	.LVL220:
 4056               	.L134:
 577:funsape/device/hd44780.cpp ****         for(uint8_t i = 0; i < 8; i++) {
 4057               		.loc 2 577 9 is_stmt 1 view .LVU1054
 577:funsape/device/hd44780.cpp ****         for(uint8_t i = 0; i < 8; i++) {
 4058               		.loc 2 577 51 is_stmt 0 view .LVU1055
 4059 0024 660F      		lsl r22
 4060 0026 660F      		lsl r22
 4061 0028 660F      		lsl r22
 4062               	.LVL221:
 577:funsape/device/hd44780.cpp ****         for(uint8_t i = 0; i < 8; i++) {
 4063               		.loc 2 577 28 view .LVU1056
 4064 002a 6064      		ori r22,lo8(64)
 4065 002c C801      		movw r24,r16
 4066               	.LVL222:
 577:funsape/device/hd44780.cpp ****         for(uint8_t i = 0; i < 8; i++) {
 4067               		.loc 2 577 28 view .LVU1057
 4068 002e 0E94 0000 		call _ZN7Hd4478013_writeCommandEh
 4069               	.LVL223:
 578:funsape/device/hd44780.cpp ****             this->_writeCharacter(charData_p[i], false);
 4070               		.loc 2 578 9 is_stmt 1 view .LVU1058
 4071               	.LBB101:
 578:funsape/device/hd44780.cpp ****             this->_writeCharacter(charData_p[i], false);
 4072               		.loc 2 578 9 is_stmt 0 view .LVU1059
 4073 0032 00C0      		rjmp .L127
 4074               	.LVL224:
 4075               	.L128:
 579:funsape/device/hd44780.cpp ****         }
 4076               		.loc 2 579 13 is_stmt 1 discriminator 3 view .LVU1060
 579:funsape/device/hd44780.cpp ****         }
 4077               		.loc 2 579 47 is_stmt 0 discriminator 3 view .LVU1061
 4078 0034 F701      		movw r30,r14
 4079 0036 EC0F      		add r30,r28
 4080 0038 F11D      		adc r31,__zero_reg__
 579:funsape/device/hd44780.cpp ****         }
 4081               		.loc 2 579 34 discriminator 3 view .LVU1062
 4082 003a 40E0      		ldi r20,0
 4083 003c 6081      		ld r22,Z
 4084 003e C801      		movw r24,r16
 4085 0040 0E94 0000 		call _ZN7Hd4478015_writeCharacterEhb
GAS LISTING C:\Users\kenne\AppData\Local\Temp\ccH82gYi.s 			page 117


 4086               	.LVL225:
 578:funsape/device/hd44780.cpp ****             this->_writeCharacter(charData_p[i], false);
 4087               		.loc 2 578 9 is_stmt 1 discriminator 3 view .LVU1063
 4088 0044 CF5F      		subi r28,lo8(-(1))
 4089               	.LVL226:
 4090               	.L127:
 578:funsape/device/hd44780.cpp ****             this->_writeCharacter(charData_p[i], false);
 4091               		.loc 2 578 30 discriminator 1 view .LVU1064
 4092 0046 C830      		cpi r28,lo8(8)
 4093 0048 00F0      		brlo .L128
 4094               	.LVL227:
 4095               	.L129:
 578:funsape/device/hd44780.cpp ****             this->_writeCharacter(charData_p[i], false);
 4096               		.loc 2 578 30 is_stmt 0 discriminator 1 view .LVU1065
 4097               	.LBE101:
 4098               	.LBE100:
 4099               	.LBE99:
 592:funsape/device/hd44780.cpp ****     debugMessage(Error::NONE, DEBUG_HD44780);
 4100               		.loc 2 592 5 is_stmt 1 view .LVU1066
 592:funsape/device/hd44780.cpp ****     debugMessage(Error::NONE, DEBUG_HD44780);
 4101               		.loc 2 592 22 is_stmt 0 view .LVU1067
 4102 004a F801      		movw r30,r16
 4103 004c 118A      		std Z+17,__zero_reg__
 4104 004e 108A      		std Z+16,__zero_reg__
 593:funsape/device/hd44780.cpp ****     return true;
 4105               		.loc 2 593 5 is_stmt 1 view .LVU1068
 593:funsape/device/hd44780.cpp ****     return true;
 4106               		.loc 2 593 45 view .LVU1069
 594:funsape/device/hd44780.cpp **** }
 4107               		.loc 2 594 5 view .LVU1070
 594:funsape/device/hd44780.cpp **** }
 4108               		.loc 2 594 12 is_stmt 0 view .LVU1071
 4109 0050 81E0      		ldi r24,lo8(1)
 4110               	.L124:
 4111               	/* epilogue start */
 595:funsape/device/hd44780.cpp **** 
 4112               		.loc 2 595 1 view .LVU1072
 4113 0052 CF91      		pop r28
 4114 0054 1F91      		pop r17
 4115 0056 0F91      		pop r16
 4116 0058 FF90      		pop r15
 4117 005a EF90      		pop r14
 4118 005c 0895      		ret
 4119               	.LVL228:
 4120               	.L125:
 4121               	.LBB104:
 4122               	.LBB102:
 582:funsape/device/hd44780.cpp ****             return false;
 4123               		.loc 2 582 9 is_stmt 1 view .LVU1073
 4124 005e 6430      		cpi r22,lo8(4)
 4125 0060 00F0      		brlo .L135
 583:funsape/device/hd44780.cpp ****         }
 4126               		.loc 2 583 20 is_stmt 0 view .LVU1074
 4127 0062 80E0      		ldi r24,0
 4128               	.LVL229:
 583:funsape/device/hd44780.cpp ****         }
 4129               		.loc 2 583 20 view .LVU1075
GAS LISTING C:\Users\kenne\AppData\Local\Temp\ccH82gYi.s 			page 118


 4130 0064 00C0      		rjmp .L124
 4131               	.LVL230:
 4132               	.L135:
 585:funsape/device/hd44780.cpp ****         for(uint8_t i = 0; i < 10; i++) {
 4133               		.loc 2 585 9 is_stmt 1 view .LVU1076
 585:funsape/device/hd44780.cpp ****         for(uint8_t i = 0; i < 10; i++) {
 4134               		.loc 2 585 51 is_stmt 0 view .LVU1077
 4135 0066 862F      		mov r24,r22
 4136               	.LVL231:
 585:funsape/device/hd44780.cpp ****         for(uint8_t i = 0; i < 10; i++) {
 4137               		.loc 2 585 51 view .LVU1078
 4138 0068 880F      		lsl r24
 4139 006a 880F      		lsl r24
 4140 006c 680F      		add r22,r24
 4141               	.LVL232:
 585:funsape/device/hd44780.cpp ****         for(uint8_t i = 0; i < 10; i++) {
 4142               		.loc 2 585 51 view .LVU1079
 4143 006e 660F      		lsl r22
 585:funsape/device/hd44780.cpp ****         for(uint8_t i = 0; i < 10; i++) {
 4144               		.loc 2 585 28 view .LVU1080
 4145 0070 6064      		ori r22,lo8(64)
 4146 0072 C801      		movw r24,r16
 4147 0074 0E94 0000 		call _ZN7Hd4478013_writeCommandEh
 4148               	.LVL233:
 586:funsape/device/hd44780.cpp ****             this->_writeCharacter(charData_p[i], false);
 4149               		.loc 2 586 9 is_stmt 1 view .LVU1081
 4150               	.LBB103:
 586:funsape/device/hd44780.cpp ****             this->_writeCharacter(charData_p[i], false);
 4151               		.loc 2 586 21 is_stmt 0 view .LVU1082
 4152 0078 C0E0      		ldi r28,0
 586:funsape/device/hd44780.cpp ****             this->_writeCharacter(charData_p[i], false);
 4153               		.loc 2 586 9 view .LVU1083
 4154 007a 00C0      		rjmp .L130
 4155               	.LVL234:
 4156               	.L131:
 587:funsape/device/hd44780.cpp ****         }
 4157               		.loc 2 587 13 is_stmt 1 discriminator 3 view .LVU1084
 587:funsape/device/hd44780.cpp ****         }
 4158               		.loc 2 587 47 is_stmt 0 discriminator 3 view .LVU1085
 4159 007c F701      		movw r30,r14
 4160 007e EC0F      		add r30,r28
 4161 0080 F11D      		adc r31,__zero_reg__
 587:funsape/device/hd44780.cpp ****         }
 4162               		.loc 2 587 34 discriminator 3 view .LVU1086
 4163 0082 40E0      		ldi r20,0
 4164 0084 6081      		ld r22,Z
 4165 0086 C801      		movw r24,r16
 4166 0088 0E94 0000 		call _ZN7Hd4478015_writeCharacterEhb
 4167               	.LVL235:
 586:funsape/device/hd44780.cpp ****             this->_writeCharacter(charData_p[i], false);
 4168               		.loc 2 586 9 is_stmt 1 discriminator 3 view .LVU1087
 4169 008c CF5F      		subi r28,lo8(-(1))
 4170               	.LVL236:
 4171               	.L130:
 586:funsape/device/hd44780.cpp ****             this->_writeCharacter(charData_p[i], false);
 4172               		.loc 2 586 30 discriminator 1 view .LVU1088
 4173 008e CA30      		cpi r28,lo8(10)
GAS LISTING C:\Users\kenne\AppData\Local\Temp\ccH82gYi.s 			page 119


 4174 0090 00F0      		brlo .L131
 4175 0092 00C0      		rjmp .L129
 4176               	.LBE103:
 4177               	.LBE102:
 4178               	.LBE104:
 4179               		.cfi_endproc
 4180               	.LFE52:
 4182               	.global	defaultDisplay
 4183               		.section	.bss.defaultDisplay,"aw",@nobits
 4186               	defaultDisplay:
 4187 0000 0000      		.zero	2
 4188               	.global	lcdStream
 4189               		.section	.bss.lcdStream,"aw",@nobits
 4192               	lcdStream:
 4193 0000 0000 0000 		.zero	14
 4193      0000 0000 
 4193      0000 0000 
 4193      0000 
 4194               		.text
 4195               	.Letext0:
 4196               		.file 4 "c:\\d\\ifsc\\vscodeleandro\\ex\\toolchains\\avr-gcc\\avr\\include\\stdint.h"
 4197               		.file 5 "c:\\d\\ifsc\\vscodeleandro\\ex\\toolchains\\avr-gcc\\avr\\include\\stdio.h"
 4198               		.file 6 "funsape/device/hd44780.hpp"
 4199               		.file 7 "c:\\d\\ifsc\\vscodeleandro\\ex\\toolchains\\avr-gcc\\avr\\include\\math.h"
GAS LISTING C:\Users\kenne\AppData\Local\Temp\ccH82gYi.s 			page 120


DEFINED SYMBOLS
                            *ABS*:00000000 hd44780.cpp
C:\Users\kenne\AppData\Local\Temp\ccH82gYi.s:2      *ABS*:0000003e __SP_H__
C:\Users\kenne\AppData\Local\Temp\ccH82gYi.s:3      *ABS*:0000003d __SP_L__
C:\Users\kenne\AppData\Local\Temp\ccH82gYi.s:4      *ABS*:0000003f __SREG__
C:\Users\kenne\AppData\Local\Temp\ccH82gYi.s:5      *ABS*:00000000 __tmp_reg__
C:\Users\kenne\AppData\Local\Temp\ccH82gYi.s:6      *ABS*:00000001 __zero_reg__
C:\Users\kenne\AppData\Local\Temp\ccH82gYi.s:14     .text._Z7getTickv:00000000 _Z7getTickv
C:\Users\kenne\AppData\Local\Temp\ccH82gYi.s:17     .text._Z7getTickv:00000000 .Loc.0
C:\Users\kenne\AppData\Local\Temp\ccH82gYi.s:18     .text._Z7getTickv:00000000 L0
C:\Users\kenne\AppData\Local\Temp\ccH82gYi.s:23     .text._Z7getTickv:00000000 .Loc.1
C:\Users\kenne\AppData\Local\Temp\ccH82gYi.s:24     .text._Z7getTickv:00000000 .Loc.2
C:\Users\kenne\AppData\Local\Temp\ccH82gYi.s:30     .text._Z7getTickv:00000008 L0
C:\Users\kenne\AppData\Local\Temp\ccH82gYi.s:36     .text._ZN7Hd44780C2Ev:00000000 _ZN7Hd44780C2Ev
C:\Users\kenne\AppData\Local\Temp\ccH82gYi.s:40     .text._ZN7Hd44780C2Ev:00000000 .Loc.3
C:\Users\kenne\AppData\Local\Temp\ccH82gYi.s:41     .text._ZN7Hd44780C2Ev:00000000 L0
C:\Users\kenne\AppData\Local\Temp\ccH82gYi.s:46     .text._ZN7Hd44780C2Ev:00000000 .Loc.4
C:\Users\kenne\AppData\Local\Temp\ccH82gYi.s:50     .text._ZN7Hd44780C2Ev:00000004 .Loc.5
C:\Users\kenne\AppData\Local\Temp\ccH82gYi.s:51     .text._ZN7Hd44780C2Ev:00000004 .Loc.6
C:\Users\kenne\AppData\Local\Temp\ccH82gYi.s:52     .text._ZN7Hd44780C2Ev:00000004 .Loc.7
C:\Users\kenne\AppData\Local\Temp\ccH82gYi.s:53     .text._ZN7Hd44780C2Ev:00000004 .Loc.8
C:\Users\kenne\AppData\Local\Temp\ccH82gYi.s:4192   .bss.lcdStream:00000000 lcdStream
C:\Users\kenne\AppData\Local\Temp\ccH82gYi.s:3907   .text._ZL11lcdWriteStdcP6__file:00000000 _ZL11lcdWriteStdcP6__file
C:\Users\kenne\AppData\Local\Temp\ccH82gYi.s:59     .text._ZN7Hd44780C2Ev:0000000c .Loc.9
C:\Users\kenne\AppData\Local\Temp\ccH82gYi.s:64     .text._ZN7Hd44780C2Ev:00000014 .Loc.10
C:\Users\kenne\AppData\Local\Temp\ccH82gYi.s:69     .text._ZN7Hd44780C2Ev:0000001c .Loc.11
C:\Users\kenne\AppData\Local\Temp\ccH82gYi.s:74     .text._ZN7Hd44780C2Ev:00000024 .Loc.12
C:\Users\kenne\AppData\Local\Temp\ccH82gYi.s:79     .text._ZN7Hd44780C2Ev:0000002c .Loc.13
C:\Users\kenne\AppData\Local\Temp\ccH82gYi.s:80     .text._ZN7Hd44780C2Ev:0000002c .Loc.14
C:\Users\kenne\AppData\Local\Temp\ccH82gYi.s:81     .text._ZN7Hd44780C2Ev:0000002c .Loc.15
C:\Users\kenne\AppData\Local\Temp\ccH82gYi.s:84     .text._ZN7Hd44780C2Ev:00000030 .Loc.16
C:\Users\kenne\AppData\Local\Temp\ccH82gYi.s:85     .text._ZN7Hd44780C2Ev:00000030 .Loc.17
C:\Users\kenne\AppData\Local\Temp\ccH82gYi.s:88     .text._ZN7Hd44780C2Ev:00000034 .Loc.18
C:\Users\kenne\AppData\Local\Temp\ccH82gYi.s:89     .text._ZN7Hd44780C2Ev:00000034 .Loc.19
C:\Users\kenne\AppData\Local\Temp\ccH82gYi.s:94     .text._ZN7Hd44780C2Ev:0000003c .Loc.20
C:\Users\kenne\AppData\Local\Temp\ccH82gYi.s:95     .text._ZN7Hd44780C2Ev:0000003c .Loc.21
C:\Users\kenne\AppData\Local\Temp\ccH82gYi.s:98     .text._ZN7Hd44780C2Ev:00000040 .Loc.22
C:\Users\kenne\AppData\Local\Temp\ccH82gYi.s:99     .text._ZN7Hd44780C2Ev:00000040 .Loc.23
C:\Users\kenne\AppData\Local\Temp\ccH82gYi.s:104    .text._ZN7Hd44780C2Ev:00000048 .Loc.24
C:\Users\kenne\AppData\Local\Temp\ccH82gYi.s:105    .text._ZN7Hd44780C2Ev:00000048 .Loc.25
C:\Users\kenne\AppData\Local\Temp\ccH82gYi.s:108    .text._ZN7Hd44780C2Ev:0000004c .Loc.26
C:\Users\kenne\AppData\Local\Temp\ccH82gYi.s:109    .text._ZN7Hd44780C2Ev:0000004c .Loc.27
C:\Users\kenne\AppData\Local\Temp\ccH82gYi.s:112    .text._ZN7Hd44780C2Ev:00000050 .Loc.28
C:\Users\kenne\AppData\Local\Temp\ccH82gYi.s:113    .text._ZN7Hd44780C2Ev:00000050 .Loc.29
C:\Users\kenne\AppData\Local\Temp\ccH82gYi.s:116    .text._ZN7Hd44780C2Ev:00000054 .Loc.30
C:\Users\kenne\AppData\Local\Temp\ccH82gYi.s:117    .text._ZN7Hd44780C2Ev:00000054 .Loc.31
C:\Users\kenne\AppData\Local\Temp\ccH82gYi.s:121    .text._ZN7Hd44780C2Ev:0000005a .Loc.32
C:\Users\kenne\AppData\Local\Temp\ccH82gYi.s:122    .text._ZN7Hd44780C2Ev:0000005a .Loc.33
C:\Users\kenne\AppData\Local\Temp\ccH82gYi.s:125    .text._ZN7Hd44780C2Ev:0000005e .Loc.34
C:\Users\kenne\AppData\Local\Temp\ccH82gYi.s:126    .text._ZN7Hd44780C2Ev:0000005e .Loc.35
C:\Users\kenne\AppData\Local\Temp\ccH82gYi.s:129    .text._ZN7Hd44780C2Ev:00000062 .Loc.36
C:\Users\kenne\AppData\Local\Temp\ccH82gYi.s:130    .text._ZN7Hd44780C2Ev:00000062 .Loc.37
C:\Users\kenne\AppData\Local\Temp\ccH82gYi.s:137    .text._ZN7Hd44780C2Ev:0000006e .Loc.38
C:\Users\kenne\AppData\Local\Temp\ccH82gYi.s:138    .text._ZN7Hd44780C2Ev:0000006e .Loc.39
C:\Users\kenne\AppData\Local\Temp\ccH82gYi.s:141    .text._ZN7Hd44780C2Ev:00000072 .Loc.40
C:\Users\kenne\AppData\Local\Temp\ccH82gYi.s:142    .text._ZN7Hd44780C2Ev:00000072 .Loc.41
C:\Users\kenne\AppData\Local\Temp\ccH82gYi.s:145    .text._ZN7Hd44780C2Ev:00000076 .Loc.42
GAS LISTING C:\Users\kenne\AppData\Local\Temp\ccH82gYi.s 			page 121


C:\Users\kenne\AppData\Local\Temp\ccH82gYi.s:146    .text._ZN7Hd44780C2Ev:00000076 .Loc.43
C:\Users\kenne\AppData\Local\Temp\ccH82gYi.s:149    .text._ZN7Hd44780C2Ev:0000007a .Loc.44
C:\Users\kenne\AppData\Local\Temp\ccH82gYi.s:150    .text._ZN7Hd44780C2Ev:0000007a .Loc.45
C:\Users\kenne\AppData\Local\Temp\ccH82gYi.s:153    .text._ZN7Hd44780C2Ev:0000007e .Loc.46
C:\Users\kenne\AppData\Local\Temp\ccH82gYi.s:154    .text._ZN7Hd44780C2Ev:0000007e .Loc.47
C:\Users\kenne\AppData\Local\Temp\ccH82gYi.s:158    .text._ZN7Hd44780C2Ev:00000084 .Loc.48
C:\Users\kenne\AppData\Local\Temp\ccH82gYi.s:159    .text._ZN7Hd44780C2Ev:00000084 .Loc.49
C:\Users\kenne\AppData\Local\Temp\ccH82gYi.s:163    .text._ZN7Hd44780C2Ev:0000008a .Loc.50
C:\Users\kenne\AppData\Local\Temp\ccH82gYi.s:164    .text._ZN7Hd44780C2Ev:0000008a .Loc.51
C:\Users\kenne\AppData\Local\Temp\ccH82gYi.s:170    .text._ZN7Hd44780C2Ev:00000094 .Loc.52
C:\Users\kenne\AppData\Local\Temp\ccH82gYi.s:171    .text._ZN7Hd44780C2Ev:00000094 .Loc.53
C:\Users\kenne\AppData\Local\Temp\ccH82gYi.s:174    .text._ZN7Hd44780C2Ev:00000098 .Loc.54
C:\Users\kenne\AppData\Local\Temp\ccH82gYi.s:175    .text._ZN7Hd44780C2Ev:00000098 .Loc.55
C:\Users\kenne\AppData\Local\Temp\ccH82gYi.s:178    .text._ZN7Hd44780C2Ev:0000009c .Loc.56
C:\Users\kenne\AppData\Local\Temp\ccH82gYi.s:179    .text._ZN7Hd44780C2Ev:0000009c .Loc.57
C:\Users\kenne\AppData\Local\Temp\ccH82gYi.s:182    .text._ZN7Hd44780C2Ev:000000a0 .Loc.58
C:\Users\kenne\AppData\Local\Temp\ccH82gYi.s:183    .text._ZN7Hd44780C2Ev:000000a0 .Loc.59
C:\Users\kenne\AppData\Local\Temp\ccH82gYi.s:186    .text._ZN7Hd44780C2Ev:000000a4 .Loc.60
C:\Users\kenne\AppData\Local\Temp\ccH82gYi.s:187    .text._ZN7Hd44780C2Ev:000000a4 .Loc.61
C:\Users\kenne\AppData\Local\Temp\ccH82gYi.s:190    .text._ZN7Hd44780C2Ev:000000a8 .Loc.62
C:\Users\kenne\AppData\Local\Temp\ccH82gYi.s:191    .text._ZN7Hd44780C2Ev:000000a8 .Loc.63
C:\Users\kenne\AppData\Local\Temp\ccH82gYi.s:194    .text._ZN7Hd44780C2Ev:000000ac .Loc.64
C:\Users\kenne\AppData\Local\Temp\ccH82gYi.s:195    .text._ZN7Hd44780C2Ev:000000ac .Loc.65
C:\Users\kenne\AppData\Local\Temp\ccH82gYi.s:198    .text._ZN7Hd44780C2Ev:000000b0 .Loc.66
C:\Users\kenne\AppData\Local\Temp\ccH82gYi.s:199    .text._ZN7Hd44780C2Ev:000000b0 .Loc.67
C:\Users\kenne\AppData\Local\Temp\ccH82gYi.s:200    .text._ZN7Hd44780C2Ev:000000b0 .Loc.68
C:\Users\kenne\AppData\Local\Temp\ccH82gYi.s:203    .text._ZN7Hd44780C2Ev:000000b0 .Loc.69
C:\Users\kenne\AppData\Local\Temp\ccH82gYi.s:205    .text._ZN7Hd44780C2Ev:000000b2 L0
C:\Users\kenne\AppData\Local\Temp\ccH82gYi.s:36     .text._ZN7Hd44780C2Ev:00000000 _ZN7Hd44780C1Ev
C:\Users\kenne\AppData\Local\Temp\ccH82gYi.s:213    .text._ZN7Hd44780D2Ev:00000000 _ZN7Hd44780D2Ev
C:\Users\kenne\AppData\Local\Temp\ccH82gYi.s:216    .text._ZN7Hd44780D2Ev:00000000 .Loc.70
C:\Users\kenne\AppData\Local\Temp\ccH82gYi.s:217    .text._ZN7Hd44780D2Ev:00000000 L0
C:\Users\kenne\AppData\Local\Temp\ccH82gYi.s:222    .text._ZN7Hd44780D2Ev:00000000 .Loc.71
C:\Users\kenne\AppData\Local\Temp\ccH82gYi.s:223    .text._ZN7Hd44780D2Ev:00000000 .Loc.72
C:\Users\kenne\AppData\Local\Temp\ccH82gYi.s:224    .text._ZN7Hd44780D2Ev:00000000 .Loc.73
C:\Users\kenne\AppData\Local\Temp\ccH82gYi.s:226    .text._ZN7Hd44780D2Ev:00000000 .Loc.74
C:\Users\kenne\AppData\Local\Temp\ccH82gYi.s:228    .text._ZN7Hd44780D2Ev:00000002 L0
C:\Users\kenne\AppData\Local\Temp\ccH82gYi.s:213    .text._ZN7Hd44780D2Ev:00000000 _ZN7Hd44780D1Ev
C:\Users\kenne\AppData\Local\Temp\ccH82gYi.s:236    .text._ZN7Hd4478014controlPortSetEPVhhhh:00000000 _ZN7Hd4478014controlPortSetEPVhhhh
C:\Users\kenne\AppData\Local\Temp\ccH82gYi.s:239    .text._ZN7Hd4478014controlPortSetEPVhhhh:00000000 .Loc.75
C:\Users\kenne\AppData\Local\Temp\ccH82gYi.s:240    .text._ZN7Hd4478014controlPortSetEPVhhhh:00000000 L0
C:\Users\kenne\AppData\Local\Temp\ccH82gYi.s:241    .text._ZN7Hd4478014controlPortSetEPVhhhh:00000000 .Loc.76
C:\Users\kenne\AppData\Local\Temp\ccH82gYi.s:253    .text._ZN7Hd4478014controlPortSetEPVhhhh:00000008 .Loc.77
C:\Users\kenne\AppData\Local\Temp\ccH82gYi.s:256    .text._ZN7Hd4478014controlPortSetEPVhhhh:0000000c .Loc.78
C:\Users\kenne\AppData\Local\Temp\ccH82gYi.s:257    .text._ZN7Hd4478014controlPortSetEPVhhhh:0000000c .Loc.79
C:\Users\kenne\AppData\Local\Temp\ccH82gYi.s:258    .text._ZN7Hd4478014controlPortSetEPVhhhh:0000000c .Loc.80
C:\Users\kenne\AppData\Local\Temp\ccH82gYi.s:259    .text._ZN7Hd4478014controlPortSetEPVhhhh:0000000c .Loc.81
C:\Users\kenne\AppData\Local\Temp\ccH82gYi.s:262    .text._ZN7Hd4478014controlPortSetEPVhhhh:0000000e .Loc.82
C:\Users\kenne\AppData\Local\Temp\ccH82gYi.s:265    .text._ZN7Hd4478014controlPortSetEPVhhhh:00000012 .Loc.83
C:\Users\kenne\AppData\Local\Temp\ccH82gYi.s:268    .text._ZN7Hd4478014controlPortSetEPVhhhh:00000018 L0
C:\Users\kenne\AppData\Local\Temp\ccH82gYi.s:270    .text._ZN7Hd4478014controlPortSetEPVhhhh:0000001a .Loc.84
C:\Users\kenne\AppData\Local\Temp\ccH82gYi.s:272    .text._ZN7Hd4478014controlPortSetEPVhhhh:0000001e L0
C:\Users\kenne\AppData\Local\Temp\ccH82gYi.s:274    .text._ZN7Hd4478014controlPortSetEPVhhhh:00000020 .Loc.85
C:\Users\kenne\AppData\Local\Temp\ccH82gYi.s:276    .text._ZN7Hd4478014controlPortSetEPVhhhh:00000024 L0
C:\Users\kenne\AppData\Local\Temp\ccH82gYi.s:278    .text._ZN7Hd4478014controlPortSetEPVhhhh:00000026 .Loc.86
C:\Users\kenne\AppData\Local\Temp\ccH82gYi.s:280    .text._ZN7Hd4478014controlPortSetEPVhhhh:0000002a L0
C:\Users\kenne\AppData\Local\Temp\ccH82gYi.s:282    .text._ZN7Hd4478014controlPortSetEPVhhhh:0000002c .Loc.87
GAS LISTING C:\Users\kenne\AppData\Local\Temp\ccH82gYi.s 			page 122


C:\Users\kenne\AppData\Local\Temp\ccH82gYi.s:283    .text._ZN7Hd4478014controlPortSetEPVhhhh:0000002c .Loc.88
C:\Users\kenne\AppData\Local\Temp\ccH82gYi.s:286    .text._ZN7Hd4478014controlPortSetEPVhhhh:0000002e .Loc.89
C:\Users\kenne\AppData\Local\Temp\ccH82gYi.s:301    .text._ZN7Hd4478014controlPortSetEPVhhhh:0000004c .Loc.90
C:\Users\kenne\AppData\Local\Temp\ccH82gYi.s:304    .text._ZN7Hd4478014controlPortSetEPVhhhh:00000050 .Loc.91
C:\Users\kenne\AppData\Local\Temp\ccH82gYi.s:305    .text._ZN7Hd4478014controlPortSetEPVhhhh:00000050 .Loc.92
C:\Users\kenne\AppData\Local\Temp\ccH82gYi.s:307    .text._ZN7Hd4478014controlPortSetEPVhhhh:00000052 .Loc.93
C:\Users\kenne\AppData\Local\Temp\ccH82gYi.s:310    .text._ZN7Hd4478014controlPortSetEPVhhhh:00000056 .Loc.94
C:\Users\kenne\AppData\Local\Temp\ccH82gYi.s:311    .text._ZN7Hd4478014controlPortSetEPVhhhh:00000056 .Loc.95
C:\Users\kenne\AppData\Local\Temp\ccH82gYi.s:314    .text._ZN7Hd4478014controlPortSetEPVhhhh:00000058 .Loc.96
C:\Users\kenne\AppData\Local\Temp\ccH82gYi.s:319    .text._ZN7Hd4478014controlPortSetEPVhhhh:00000060 .Loc.97
C:\Users\kenne\AppData\Local\Temp\ccH82gYi.s:320    .text._ZN7Hd4478014controlPortSetEPVhhhh:00000060 .Loc.98
C:\Users\kenne\AppData\Local\Temp\ccH82gYi.s:323    .text._ZN7Hd4478014controlPortSetEPVhhhh:00000062 .Loc.99
C:\Users\kenne\AppData\Local\Temp\ccH82gYi.s:331    .text._ZN7Hd4478014controlPortSetEPVhhhh:00000070 .Loc.100
C:\Users\kenne\AppData\Local\Temp\ccH82gYi.s:332    .text._ZN7Hd4478014controlPortSetEPVhhhh:00000070 .Loc.101
C:\Users\kenne\AppData\Local\Temp\ccH82gYi.s:345    .text._ZN7Hd4478014controlPortSetEPVhhhh:00000086 .Loc.102
C:\Users\kenne\AppData\Local\Temp\ccH82gYi.s:350    .text._ZN7Hd4478014controlPortSetEPVhhhh:0000008e .Loc.103
C:\Users\kenne\AppData\Local\Temp\ccH82gYi.s:351    .text._ZN7Hd4478014controlPortSetEPVhhhh:0000008e .Loc.104
C:\Users\kenne\AppData\Local\Temp\ccH82gYi.s:355    .text._ZN7Hd4478014controlPortSetEPVhhhh:00000094 .Loc.105
C:\Users\kenne\AppData\Local\Temp\ccH82gYi.s:356    .text._ZN7Hd4478014controlPortSetEPVhhhh:00000094 .Loc.106
C:\Users\kenne\AppData\Local\Temp\ccH82gYi.s:359    .text._ZN7Hd4478014controlPortSetEPVhhhh:00000098 .Loc.107
C:\Users\kenne\AppData\Local\Temp\ccH82gYi.s:360    .text._ZN7Hd4478014controlPortSetEPVhhhh:00000098 .Loc.108
C:\Users\kenne\AppData\Local\Temp\ccH82gYi.s:361    .text._ZN7Hd4478014controlPortSetEPVhhhh:00000098 .Loc.109
C:\Users\kenne\AppData\Local\Temp\ccH82gYi.s:362    .text._ZN7Hd4478014controlPortSetEPVhhhh:00000098 .Loc.110
C:\Users\kenne\AppData\Local\Temp\ccH82gYi.s:367    .text._ZN7Hd4478014controlPortSetEPVhhhh:0000009c .Loc.111
C:\Users\kenne\AppData\Local\Temp\ccH82gYi.s:368    .text._ZN7Hd4478014controlPortSetEPVhhhh:0000009c .Loc.112
C:\Users\kenne\AppData\Local\Temp\ccH82gYi.s:373    .text._ZN7Hd4478014controlPortSetEPVhhhh:000000a4 .Loc.113
C:\Users\kenne\AppData\Local\Temp\ccH82gYi.s:374    .text._ZN7Hd4478014controlPortSetEPVhhhh:000000a4 .Loc.114
C:\Users\kenne\AppData\Local\Temp\ccH82gYi.s:375    .text._ZN7Hd4478014controlPortSetEPVhhhh:000000a4 .Loc.115
C:\Users\kenne\AppData\Local\Temp\ccH82gYi.s:376    .text._ZN7Hd4478014controlPortSetEPVhhhh:000000a4 .Loc.116
C:\Users\kenne\AppData\Local\Temp\ccH82gYi.s:381    .text._ZN7Hd4478014controlPortSetEPVhhhh:000000a6 .Loc.117
C:\Users\kenne\AppData\Local\Temp\ccH82gYi.s:386    .text._ZN7Hd4478014controlPortSetEPVhhhh:000000aa .Loc.118
C:\Users\kenne\AppData\Local\Temp\ccH82gYi.s:387    .text._ZN7Hd4478014controlPortSetEPVhhhh:000000aa .Loc.119
C:\Users\kenne\AppData\Local\Temp\ccH82gYi.s:392    .text._ZN7Hd4478014controlPortSetEPVhhhh:000000b2 .Loc.120
C:\Users\kenne\AppData\Local\Temp\ccH82gYi.s:393    .text._ZN7Hd4478014controlPortSetEPVhhhh:000000b2 .Loc.121
C:\Users\kenne\AppData\Local\Temp\ccH82gYi.s:394    .text._ZN7Hd4478014controlPortSetEPVhhhh:000000b2 .Loc.122
C:\Users\kenne\AppData\Local\Temp\ccH82gYi.s:395    .text._ZN7Hd4478014controlPortSetEPVhhhh:000000b2 .Loc.123
C:\Users\kenne\AppData\Local\Temp\ccH82gYi.s:399    .text._ZN7Hd4478014controlPortSetEPVhhhh:000000b6 .Loc.124
C:\Users\kenne\AppData\Local\Temp\ccH82gYi.s:400    .text._ZN7Hd4478014controlPortSetEPVhhhh:000000b6 .Loc.125
C:\Users\kenne\AppData\Local\Temp\ccH82gYi.s:405    .text._ZN7Hd4478014controlPortSetEPVhhhh:000000be .Loc.126
C:\Users\kenne\AppData\Local\Temp\ccH82gYi.s:406    .text._ZN7Hd4478014controlPortSetEPVhhhh:000000be .Loc.127
C:\Users\kenne\AppData\Local\Temp\ccH82gYi.s:407    .text._ZN7Hd4478014controlPortSetEPVhhhh:000000be .Loc.128
C:\Users\kenne\AppData\Local\Temp\ccH82gYi.s:408    .text._ZN7Hd4478014controlPortSetEPVhhhh:000000be .Loc.129
C:\Users\kenne\AppData\Local\Temp\ccH82gYi.s:412    .text._ZN7Hd4478014controlPortSetEPVhhhh:000000c2 .Loc.130
C:\Users\kenne\AppData\Local\Temp\ccH82gYi.s:413    .text._ZN7Hd4478014controlPortSetEPVhhhh:000000c2 .Loc.131
C:\Users\kenne\AppData\Local\Temp\ccH82gYi.s:418    .text._ZN7Hd4478014controlPortSetEPVhhhh:000000ca .Loc.132
C:\Users\kenne\AppData\Local\Temp\ccH82gYi.s:419    .text._ZN7Hd4478014controlPortSetEPVhhhh:000000ca .Loc.133
C:\Users\kenne\AppData\Local\Temp\ccH82gYi.s:420    .text._ZN7Hd4478014controlPortSetEPVhhhh:000000ca .Loc.134
C:\Users\kenne\AppData\Local\Temp\ccH82gYi.s:421    .text._ZN7Hd4478014controlPortSetEPVhhhh:000000ca .Loc.135
C:\Users\kenne\AppData\Local\Temp\ccH82gYi.s:424    .text._ZN7Hd4478014controlPortSetEPVhhhh:000000ce L0
C:\Users\kenne\AppData\Local\Temp\ccH82gYi.s:430    .text._ZN7Hd4478011dataPortSetEPVhh:00000000 _ZN7Hd4478011dataPortSetEPVhh
C:\Users\kenne\AppData\Local\Temp\ccH82gYi.s:433    .text._ZN7Hd4478011dataPortSetEPVhh:00000000 .Loc.136
C:\Users\kenne\AppData\Local\Temp\ccH82gYi.s:434    .text._ZN7Hd4478011dataPortSetEPVhh:00000000 L0
C:\Users\kenne\AppData\Local\Temp\ccH82gYi.s:439    .text._ZN7Hd4478011dataPortSetEPVhh:00000000 .Loc.137
C:\Users\kenne\AppData\Local\Temp\ccH82gYi.s:444    .text._ZN7Hd4478011dataPortSetEPVhh:00000008 .Loc.138
C:\Users\kenne\AppData\Local\Temp\ccH82gYi.s:445    .text._ZN7Hd4478011dataPortSetEPVhh:00000008 .Loc.139
C:\Users\kenne\AppData\Local\Temp\ccH82gYi.s:446    .text._ZN7Hd4478011dataPortSetEPVhh:00000008 .Loc.140
C:\Users\kenne\AppData\Local\Temp\ccH82gYi.s:447    .text._ZN7Hd4478011dataPortSetEPVhh:00000008 .Loc.141
GAS LISTING C:\Users\kenne\AppData\Local\Temp\ccH82gYi.s 			page 123


C:\Users\kenne\AppData\Local\Temp\ccH82gYi.s:450    .text._ZN7Hd4478011dataPortSetEPVhh:0000000a .Loc.142
C:\Users\kenne\AppData\Local\Temp\ccH82gYi.s:452    .text._ZN7Hd4478011dataPortSetEPVhh:0000000c .Loc.143
C:\Users\kenne\AppData\Local\Temp\ccH82gYi.s:455    .text._ZN7Hd4478011dataPortSetEPVhh:00000010 .Loc.144
C:\Users\kenne\AppData\Local\Temp\ccH82gYi.s:458    .text._ZN7Hd4478011dataPortSetEPVhh:00000014 .Loc.145
C:\Users\kenne\AppData\Local\Temp\ccH82gYi.s:459    .text._ZN7Hd4478011dataPortSetEPVhh:00000014 .Loc.146
C:\Users\kenne\AppData\Local\Temp\ccH82gYi.s:466    .text._ZN7Hd4478011dataPortSetEPVhh:00000020 .Loc.147
C:\Users\kenne\AppData\Local\Temp\ccH82gYi.s:476    .text._ZN7Hd4478011dataPortSetEPVhh:00000032 .Loc.148
C:\Users\kenne\AppData\Local\Temp\ccH82gYi.s:479    .text._ZN7Hd4478011dataPortSetEPVhh:00000036 .Loc.149
C:\Users\kenne\AppData\Local\Temp\ccH82gYi.s:480    .text._ZN7Hd4478011dataPortSetEPVhh:00000036 .Loc.150
C:\Users\kenne\AppData\Local\Temp\ccH82gYi.s:483    .text._ZN7Hd4478011dataPortSetEPVhh:0000003a .Loc.151
C:\Users\kenne\AppData\Local\Temp\ccH82gYi.s:486    .text._ZN7Hd4478011dataPortSetEPVhh:0000003e .Loc.152
C:\Users\kenne\AppData\Local\Temp\ccH82gYi.s:487    .text._ZN7Hd4478011dataPortSetEPVhh:0000003e .Loc.153
C:\Users\kenne\AppData\Local\Temp\ccH82gYi.s:489    .text._ZN7Hd4478011dataPortSetEPVhh:00000040 .Loc.154
C:\Users\kenne\AppData\Local\Temp\ccH82gYi.s:492    .text._ZN7Hd4478011dataPortSetEPVhh:00000044 .Loc.155
C:\Users\kenne\AppData\Local\Temp\ccH82gYi.s:493    .text._ZN7Hd4478011dataPortSetEPVhh:00000044 .Loc.156
C:\Users\kenne\AppData\Local\Temp\ccH82gYi.s:496    .text._ZN7Hd4478011dataPortSetEPVhh:00000046 .Loc.157
C:\Users\kenne\AppData\Local\Temp\ccH82gYi.s:501    .text._ZN7Hd4478011dataPortSetEPVhh:0000004e .Loc.158
C:\Users\kenne\AppData\Local\Temp\ccH82gYi.s:502    .text._ZN7Hd4478011dataPortSetEPVhh:0000004e .Loc.159
C:\Users\kenne\AppData\Local\Temp\ccH82gYi.s:505    .text._ZN7Hd4478011dataPortSetEPVhh:00000052 .Loc.160
C:\Users\kenne\AppData\Local\Temp\ccH82gYi.s:506    .text._ZN7Hd4478011dataPortSetEPVhh:00000052 .Loc.161
C:\Users\kenne\AppData\Local\Temp\ccH82gYi.s:507    .text._ZN7Hd4478011dataPortSetEPVhh:00000052 .Loc.162
C:\Users\kenne\AppData\Local\Temp\ccH82gYi.s:508    .text._ZN7Hd4478011dataPortSetEPVhh:00000052 .Loc.163
C:\Users\kenne\AppData\Local\Temp\ccH82gYi.s:511    .text._ZN7Hd4478011dataPortSetEPVhh:00000054 .Loc.164
C:\Users\kenne\AppData\Local\Temp\ccH82gYi.s:515    .text._ZN7Hd4478011dataPortSetEPVhh:00000056 .Loc.165
C:\Users\kenne\AppData\Local\Temp\ccH82gYi.s:516    .text._ZN7Hd4478011dataPortSetEPVhh:00000056 .Loc.166
C:\Users\kenne\AppData\Local\Temp\ccH82gYi.s:521    .text._ZN7Hd4478011dataPortSetEPVhh:0000005e .Loc.167
C:\Users\kenne\AppData\Local\Temp\ccH82gYi.s:522    .text._ZN7Hd4478011dataPortSetEPVhh:0000005e .Loc.168
C:\Users\kenne\AppData\Local\Temp\ccH82gYi.s:523    .text._ZN7Hd4478011dataPortSetEPVhh:0000005e .Loc.169
C:\Users\kenne\AppData\Local\Temp\ccH82gYi.s:524    .text._ZN7Hd4478011dataPortSetEPVhh:0000005e .Loc.170
C:\Users\kenne\AppData\Local\Temp\ccH82gYi.s:528    .text._ZN7Hd4478011dataPortSetEPVhh:00000062 .Loc.171
C:\Users\kenne\AppData\Local\Temp\ccH82gYi.s:529    .text._ZN7Hd4478011dataPortSetEPVhh:00000062 .Loc.172
C:\Users\kenne\AppData\Local\Temp\ccH82gYi.s:534    .text._ZN7Hd4478011dataPortSetEPVhh:0000006a .Loc.173
C:\Users\kenne\AppData\Local\Temp\ccH82gYi.s:535    .text._ZN7Hd4478011dataPortSetEPVhh:0000006a .Loc.174
C:\Users\kenne\AppData\Local\Temp\ccH82gYi.s:536    .text._ZN7Hd4478011dataPortSetEPVhh:0000006a .Loc.175
C:\Users\kenne\AppData\Local\Temp\ccH82gYi.s:537    .text._ZN7Hd4478011dataPortSetEPVhh:0000006a .Loc.176
C:\Users\kenne\AppData\Local\Temp\ccH82gYi.s:540    .text._ZN7Hd4478011dataPortSetEPVhh:0000006e L0
C:\Users\kenne\AppData\Local\Temp\ccH82gYi.s:546    .text._ZN7Hd447805stdioEv:00000000 _ZN7Hd447805stdioEv
C:\Users\kenne\AppData\Local\Temp\ccH82gYi.s:549    .text._ZN7Hd447805stdioEv:00000000 .Loc.177
C:\Users\kenne\AppData\Local\Temp\ccH82gYi.s:550    .text._ZN7Hd447805stdioEv:00000000 L0
C:\Users\kenne\AppData\Local\Temp\ccH82gYi.s:555    .text._ZN7Hd447805stdioEv:00000000 .Loc.178
C:\Users\kenne\AppData\Local\Temp\ccH82gYi.s:558    .text._ZN7Hd447805stdioEv:00000004 .Loc.179
C:\Users\kenne\AppData\Local\Temp\ccH82gYi.s:559    .text._ZN7Hd447805stdioEv:00000004 .Loc.180
C:\Users\kenne\AppData\Local\Temp\ccH82gYi.s:560    .text._ZN7Hd447805stdioEv:00000004 .Loc.181
C:\Users\kenne\AppData\Local\Temp\ccH82gYi.s:561    .text._ZN7Hd447805stdioEv:00000004 .Loc.182
C:\Users\kenne\AppData\Local\Temp\ccH82gYi.s:567    .text._ZN7Hd447805stdioEv:0000000c .Loc.183
C:\Users\kenne\AppData\Local\Temp\ccH82gYi.s:572    .text._ZN7Hd447805stdioEv:00000014 .Loc.184
C:\Users\kenne\AppData\Local\Temp\ccH82gYi.s:577    .text._ZN7Hd447805stdioEv:0000001c .Loc.185
C:\Users\kenne\AppData\Local\Temp\ccH82gYi.s:580    .text._ZN7Hd447805stdioEv:00000020 .Loc.186
C:\Users\kenne\AppData\Local\Temp\ccH82gYi.s:581    .text._ZN7Hd447805stdioEv:00000020 .Loc.187
C:\Users\kenne\AppData\Local\Temp\ccH82gYi.s:4186   .bss.defaultDisplay:00000000 defaultDisplay
C:\Users\kenne\AppData\Local\Temp\ccH82gYi.s:584    .text._ZN7Hd447805stdioEv:00000028 .Loc.188
C:\Users\kenne\AppData\Local\Temp\ccH82gYi.s:585    .text._ZN7Hd447805stdioEv:00000028 .Loc.189
C:\Users\kenne\AppData\Local\Temp\ccH82gYi.s:588    .text._ZN7Hd447805stdioEv:0000002c .Loc.190
C:\Users\kenne\AppData\Local\Temp\ccH82gYi.s:589    .text._ZN7Hd447805stdioEv:0000002c .Loc.191
C:\Users\kenne\AppData\Local\Temp\ccH82gYi.s:590    .text._ZN7Hd447805stdioEv:0000002c .Loc.192
C:\Users\kenne\AppData\Local\Temp\ccH82gYi.s:591    .text._ZN7Hd447805stdioEv:0000002c .Loc.193
C:\Users\kenne\AppData\Local\Temp\ccH82gYi.s:595    .text._ZN7Hd447805stdioEv:00000030 L0
GAS LISTING C:\Users\kenne\AppData\Local\Temp\ccH82gYi.s 			page 124


C:\Users\kenne\AppData\Local\Temp\ccH82gYi.s:601    .text._ZN7Hd4478012getLastErrorEv:00000000 _ZN7Hd4478012getLastErrorEv
C:\Users\kenne\AppData\Local\Temp\ccH82gYi.s:604    .text._ZN7Hd4478012getLastErrorEv:00000000 .Loc.194
C:\Users\kenne\AppData\Local\Temp\ccH82gYi.s:605    .text._ZN7Hd4478012getLastErrorEv:00000000 L0
C:\Users\kenne\AppData\Local\Temp\ccH82gYi.s:610    .text._ZN7Hd4478012getLastErrorEv:00000000 .Loc.195
C:\Users\kenne\AppData\Local\Temp\ccH82gYi.s:611    .text._ZN7Hd4478012getLastErrorEv:00000000 .Loc.196
C:\Users\kenne\AppData\Local\Temp\ccH82gYi.s:617    .text._ZN7Hd4478012getLastErrorEv:00000006 .Loc.197
C:\Users\kenne\AppData\Local\Temp\ccH82gYi.s:619    .text._ZN7Hd4478012getLastErrorEv:00000008 L0
C:\Users\kenne\AppData\Local\Temp\ccH82gYi.s:625    .text._ZN7Hd4478017_functionSet8BitsEh:00000000 _ZN7Hd4478017_functionSet8BitsEh
C:\Users\kenne\AppData\Local\Temp\ccH82gYi.s:628    .text._ZN7Hd4478017_functionSet8BitsEh:00000000 .Loc.198
C:\Users\kenne\AppData\Local\Temp\ccH82gYi.s:629    .text._ZN7Hd4478017_functionSet8BitsEh:00000000 L0
C:\Users\kenne\AppData\Local\Temp\ccH82gYi.s:630    .text._ZN7Hd4478017_functionSet8BitsEh:00000000 .Loc.199
C:\Users\kenne\AppData\Local\Temp\ccH82gYi.s:643    .text._ZN7Hd4478017_functionSet8BitsEh:00000008 .Loc.200
C:\Users\kenne\AppData\Local\Temp\ccH82gYi.s:644    .text._ZN7Hd4478017_functionSet8BitsEh:00000008 .Loc.201
C:\Users\kenne\AppData\Local\Temp\ccH82gYi.s:647    .text._ZN7Hd4478017_functionSet8BitsEh:0000000a .Loc.202
C:\Users\kenne\AppData\Local\Temp\ccH82gYi.s:650    .text._ZN7Hd4478017_functionSet8BitsEh:0000000e .Loc.203
C:\Users\kenne\AppData\Local\Temp\ccH82gYi.s:677    .text._ZN7Hd4478017_functionSet8BitsEh:0000003c .Loc.204
C:\Users\kenne\AppData\Local\Temp\ccH82gYi.s:700    .text._ZN7Hd4478017_functionSet8BitsEh:00000064 .Loc.205
C:\Users\kenne\AppData\Local\Temp\ccH82gYi.s:718    .text._ZN7Hd4478017_functionSet8BitsEh:00000082 .Loc.206
C:\Users\kenne\AppData\Local\Temp\ccH82gYi.s:736    .text._ZN7Hd4478017_functionSet8BitsEh:000000a0 .Loc.207
C:\Users\kenne\AppData\Local\Temp\ccH82gYi.s:737    .text._ZN7Hd4478017_functionSet8BitsEh:000000a0 .Loc.208
C:\Users\kenne\AppData\Local\Temp\ccH82gYi.s:740    .text._ZN7Hd4478017_functionSet8BitsEh:000000a4 .Loc.209
C:\Users\kenne\AppData\Local\Temp\ccH82gYi.s:742    .text._ZN7Hd4478017_functionSet8BitsEh:000000a6 .Loc.210
C:\Users\kenne\AppData\Local\Temp\ccH82gYi.s:745    .text._ZN7Hd4478017_functionSet8BitsEh:000000a8 .Loc.211
C:\Users\kenne\AppData\Local\Temp\ccH82gYi.s:748    .text._ZN7Hd4478017_functionSet8BitsEh:000000ac .Loc.212
C:\Users\kenne\AppData\Local\Temp\ccH82gYi.s:751    .text._ZN7Hd4478017_functionSet8BitsEh:000000b0 .Loc.213
C:\Users\kenne\AppData\Local\Temp\ccH82gYi.s:759    .text._ZN7Hd4478017_functionSet8BitsEh:000000ba .Loc.214
C:\Users\kenne\AppData\Local\Temp\ccH82gYi.s:762    .text._ZN7Hd4478017_functionSet8BitsEh:000000be .Loc.215
C:\Users\kenne\AppData\Local\Temp\ccH82gYi.s:779    .text._ZN7Hd4478017_functionSet8BitsEh:000000da .Loc.216
C:\Users\kenne\AppData\Local\Temp\ccH82gYi.s:784    .text._ZN7Hd4478017_functionSet8BitsEh:000000da .Loc.217
C:\Users\kenne\AppData\Local\Temp\ccH82gYi.s:786    .text._ZN7Hd4478017_functionSet8BitsEh:000000da .Loc.218
C:\Users\kenne\AppData\Local\Temp\ccH82gYi.s:787    .text._ZN7Hd4478017_functionSet8BitsEh:000000da .Loc.219
C:\Users\kenne\AppData\Local\Temp\ccH82gYi.s:788    .text._ZN7Hd4478017_functionSet8BitsEh:000000da .Loc.220
C:\Users\kenne\AppData\Local\Temp\ccH82gYi.s:789    .text._ZN7Hd4478017_functionSet8BitsEh:000000da .Loc.221
C:\Users\kenne\AppData\Local\Temp\ccH82gYi.s:790    .text._ZN7Hd4478017_functionSet8BitsEh:000000da .Loc.222
C:\Users\kenne\AppData\Local\Temp\ccH82gYi.s:791    .text._ZN7Hd4478017_functionSet8BitsEh:000000da .Loc.223
C:\Users\kenne\AppData\Local\Temp\ccH82gYi.s:792    .text._ZN7Hd4478017_functionSet8BitsEh:000000da .Loc.224
C:\Users\kenne\AppData\Local\Temp\ccH82gYi.s:798    .text._ZN7Hd4478017_functionSet8BitsEh:000000e2 .Loc.225
C:\Users\kenne\AppData\Local\Temp\ccH82gYi.s:801    .text._ZN7Hd4478017_functionSet8BitsEh:000000e2 .Loc.226
C:\Users\kenne\AppData\Local\Temp\ccH82gYi.s:817    .text._ZN7Hd4478017_functionSet8BitsEh:000000fc .Loc.227
C:\Users\kenne\AppData\Local\Temp\ccH82gYi.s:821    .text._ZN7Hd4478017_functionSet8BitsEh:000000fc .Loc.228
C:\Users\kenne\AppData\Local\Temp\ccH82gYi.s:823    .text._ZN7Hd4478017_functionSet8BitsEh:000000fc .Loc.229
C:\Users\kenne\AppData\Local\Temp\ccH82gYi.s:824    .text._ZN7Hd4478017_functionSet8BitsEh:000000fc .Loc.230
C:\Users\kenne\AppData\Local\Temp\ccH82gYi.s:825    .text._ZN7Hd4478017_functionSet8BitsEh:000000fc .Loc.231
C:\Users\kenne\AppData\Local\Temp\ccH82gYi.s:826    .text._ZN7Hd4478017_functionSet8BitsEh:000000fc .Loc.232
C:\Users\kenne\AppData\Local\Temp\ccH82gYi.s:827    .text._ZN7Hd4478017_functionSet8BitsEh:000000fc .Loc.233
C:\Users\kenne\AppData\Local\Temp\ccH82gYi.s:828    .text._ZN7Hd4478017_functionSet8BitsEh:000000fc .Loc.234
C:\Users\kenne\AppData\Local\Temp\ccH82gYi.s:829    .text._ZN7Hd4478017_functionSet8BitsEh:000000fc .Loc.235
C:\Users\kenne\AppData\Local\Temp\ccH82gYi.s:835    .text._ZN7Hd4478017_functionSet8BitsEh:00000104 .Loc.236
C:\Users\kenne\AppData\Local\Temp\ccH82gYi.s:838    .text._ZN7Hd4478017_functionSet8BitsEh:00000104 .Loc.237
C:\Users\kenne\AppData\Local\Temp\ccH82gYi.s:839    .text._ZN7Hd4478017_functionSet8BitsEh:00000104 .Loc.238
C:\Users\kenne\AppData\Local\Temp\ccH82gYi.s:841    .text._ZN7Hd4478017_functionSet8BitsEh:00000106 .Loc.239
C:\Users\kenne\AppData\Local\Temp\ccH82gYi.s:844    .text._ZN7Hd4478017_functionSet8BitsEh:0000010a .Loc.240
C:\Users\kenne\AppData\Local\Temp\ccH82gYi.s:846    .text._ZN7Hd4478017_functionSet8BitsEh:0000010c .Loc.241
C:\Users\kenne\AppData\Local\Temp\ccH82gYi.s:850    .text._ZN7Hd4478017_functionSet8BitsEh:00000110 .Loc.242
C:\Users\kenne\AppData\Local\Temp\ccH82gYi.s:854    .text._ZN7Hd4478017_functionSet8BitsEh:00000110 .Loc.243
C:\Users\kenne\AppData\Local\Temp\ccH82gYi.s:856    .text._ZN7Hd4478017_functionSet8BitsEh:00000110 .Loc.244
C:\Users\kenne\AppData\Local\Temp\ccH82gYi.s:857    .text._ZN7Hd4478017_functionSet8BitsEh:00000110 .Loc.245
GAS LISTING C:\Users\kenne\AppData\Local\Temp\ccH82gYi.s 			page 125


C:\Users\kenne\AppData\Local\Temp\ccH82gYi.s:858    .text._ZN7Hd4478017_functionSet8BitsEh:00000110 .Loc.246
C:\Users\kenne\AppData\Local\Temp\ccH82gYi.s:859    .text._ZN7Hd4478017_functionSet8BitsEh:00000110 .Loc.247
C:\Users\kenne\AppData\Local\Temp\ccH82gYi.s:860    .text._ZN7Hd4478017_functionSet8BitsEh:00000110 .Loc.248
C:\Users\kenne\AppData\Local\Temp\ccH82gYi.s:861    .text._ZN7Hd4478017_functionSet8BitsEh:00000110 .Loc.249
C:\Users\kenne\AppData\Local\Temp\ccH82gYi.s:862    .text._ZN7Hd4478017_functionSet8BitsEh:00000110 .Loc.250
C:\Users\kenne\AppData\Local\Temp\ccH82gYi.s:869    .text._ZN7Hd4478017_functionSet8BitsEh:00000118 .Loc.251
C:\Users\kenne\AppData\Local\Temp\ccH82gYi.s:872    .text._ZN7Hd4478017_functionSet8BitsEh:00000118 .Loc.252
C:\Users\kenne\AppData\Local\Temp\ccH82gYi.s:873    .text._ZN7Hd4478017_functionSet8BitsEh:00000118 .Loc.253
C:\Users\kenne\AppData\Local\Temp\ccH82gYi.s:879    .text._ZN7Hd4478017_functionSet8BitsEh:00000120 L0
C:\Users\kenne\AppData\Local\Temp\ccH82gYi.s:885    .text._ZN7Hd4478015_waitUntilReadyEv:00000000 _ZN7Hd4478015_waitUntilReadyEv
C:\Users\kenne\AppData\Local\Temp\ccH82gYi.s:888    .text._ZN7Hd4478015_waitUntilReadyEv:00000000 .Loc.254
C:\Users\kenne\AppData\Local\Temp\ccH82gYi.s:889    .text._ZN7Hd4478015_waitUntilReadyEv:00000000 L0
C:\Users\kenne\AppData\Local\Temp\ccH82gYi.s:894    .text._ZN7Hd4478015_waitUntilReadyEv:00000000 .Loc.255
C:\Users\kenne\AppData\Local\Temp\ccH82gYi.s:897    .text._ZN7Hd4478015_waitUntilReadyEv:00000004 .Loc.256
C:\Users\kenne\AppData\Local\Temp\ccH82gYi.s:899    .text._ZN7Hd4478015_waitUntilReadyEv:00000004 .Loc.257
C:\Users\kenne\AppData\Local\Temp\ccH82gYi.s:900    .text._ZN7Hd4478015_waitUntilReadyEv:00000004 .Loc.258
C:\Users\kenne\AppData\Local\Temp\ccH82gYi.s:903    .text._ZN7Hd4478015_waitUntilReadyEv:00000006 .Loc.259
C:\Users\kenne\AppData\Local\Temp\ccH82gYi.s:906    .text._ZN7Hd4478015_waitUntilReadyEv:0000000a .Loc.260
C:\Users\kenne\AppData\Local\Temp\ccH82gYi.s:925    .text._ZN7Hd4478015_waitUntilReadyEv:0000002a .Loc.261
C:\Users\kenne\AppData\Local\Temp\ccH82gYi.s:942    .text._ZN7Hd4478015_waitUntilReadyEv:00000044 .Loc.262
C:\Users\kenne\AppData\Local\Temp\ccH82gYi.s:965    .text._ZN7Hd4478015_waitUntilReadyEv:0000006c .Loc.263
C:\Users\kenne\AppData\Local\Temp\ccH82gYi.s:990    .text._ZN7Hd4478015_waitUntilReadyEv:00000098 .Loc.264
C:\Users\kenne\AppData\Local\Temp\ccH82gYi.s:1008   .text._ZN7Hd4478015_waitUntilReadyEv:000000b4 .Loc.265
C:\Users\kenne\AppData\Local\Temp\ccH82gYi.s:1009   .text._ZN7Hd4478015_waitUntilReadyEv:000000b4 .Loc.266
C:\Users\kenne\AppData\Local\Temp\ccH82gYi.s:1012   .text._ZN7Hd4478015_waitUntilReadyEv:000000b8 .Loc.267
C:\Users\kenne\AppData\Local\Temp\ccH82gYi.s:1014   .text._ZN7Hd4478015_waitUntilReadyEv:000000ba .Loc.268
C:\Users\kenne\AppData\Local\Temp\ccH82gYi.s:1015   .text._ZN7Hd4478015_waitUntilReadyEv:000000ba .Loc.269
C:\Users\kenne\AppData\Local\Temp\ccH82gYi.s:1018   .text._ZN7Hd4478015_waitUntilReadyEv:000000be .Loc.270
C:\Users\kenne\AppData\Local\Temp\ccH82gYi.s:1023   .text._ZN7Hd4478015_waitUntilReadyEv:000000c2 .Loc.271
C:\Users\kenne\AppData\Local\Temp\ccH82gYi.s:1024   .text._ZN7Hd4478015_waitUntilReadyEv:000000c2 .Loc.272
C:\Users\kenne\AppData\Local\Temp\ccH82gYi.s:1027   .text._ZN7Hd4478015_waitUntilReadyEv:000000c4 .Loc.273
C:\Users\kenne\AppData\Local\Temp\ccH82gYi.s:1030   .text._ZN7Hd4478015_waitUntilReadyEv:000000c6 .Loc.274
C:\Users\kenne\AppData\Local\Temp\ccH82gYi.s:1048   .text._ZN7Hd4478015_waitUntilReadyEv:000000e4 .Loc.275
C:\Users\kenne\AppData\Local\Temp\ccH82gYi.s:1052   .text._ZN7Hd4478015_waitUntilReadyEv:000000e4 .Loc.276
C:\Users\kenne\AppData\Local\Temp\ccH82gYi.s:1054   .text._ZN7Hd4478015_waitUntilReadyEv:000000e4 .Loc.277
C:\Users\kenne\AppData\Local\Temp\ccH82gYi.s:1055   .text._ZN7Hd4478015_waitUntilReadyEv:000000e4 .Loc.278
C:\Users\kenne\AppData\Local\Temp\ccH82gYi.s:1056   .text._ZN7Hd4478015_waitUntilReadyEv:000000e4 .Loc.279
C:\Users\kenne\AppData\Local\Temp\ccH82gYi.s:1057   .text._ZN7Hd4478015_waitUntilReadyEv:000000e4 .Loc.280
C:\Users\kenne\AppData\Local\Temp\ccH82gYi.s:1058   .text._ZN7Hd4478015_waitUntilReadyEv:000000e4 .Loc.281
C:\Users\kenne\AppData\Local\Temp\ccH82gYi.s:1059   .text._ZN7Hd4478015_waitUntilReadyEv:000000e4 .Loc.282
C:\Users\kenne\AppData\Local\Temp\ccH82gYi.s:1060   .text._ZN7Hd4478015_waitUntilReadyEv:000000e4 .Loc.283
C:\Users\kenne\AppData\Local\Temp\ccH82gYi.s:1066   .text._ZN7Hd4478015_waitUntilReadyEv:000000ec .Loc.284
C:\Users\kenne\AppData\Local\Temp\ccH82gYi.s:1069   .text._ZN7Hd4478015_waitUntilReadyEv:000000ec .Loc.285
C:\Users\kenne\AppData\Local\Temp\ccH82gYi.s:1085   .text._ZN7Hd4478015_waitUntilReadyEv:00000106 .Loc.286
C:\Users\kenne\AppData\Local\Temp\ccH82gYi.s:1089   .text._ZN7Hd4478015_waitUntilReadyEv:00000106 .Loc.287
C:\Users\kenne\AppData\Local\Temp\ccH82gYi.s:1091   .text._ZN7Hd4478015_waitUntilReadyEv:00000106 .Loc.288
C:\Users\kenne\AppData\Local\Temp\ccH82gYi.s:1092   .text._ZN7Hd4478015_waitUntilReadyEv:00000106 .Loc.289
C:\Users\kenne\AppData\Local\Temp\ccH82gYi.s:1093   .text._ZN7Hd4478015_waitUntilReadyEv:00000106 .Loc.290
C:\Users\kenne\AppData\Local\Temp\ccH82gYi.s:1094   .text._ZN7Hd4478015_waitUntilReadyEv:00000106 .Loc.291
C:\Users\kenne\AppData\Local\Temp\ccH82gYi.s:1095   .text._ZN7Hd4478015_waitUntilReadyEv:00000106 .Loc.292
C:\Users\kenne\AppData\Local\Temp\ccH82gYi.s:1096   .text._ZN7Hd4478015_waitUntilReadyEv:00000106 .Loc.293
C:\Users\kenne\AppData\Local\Temp\ccH82gYi.s:1097   .text._ZN7Hd4478015_waitUntilReadyEv:00000106 .Loc.294
C:\Users\kenne\AppData\Local\Temp\ccH82gYi.s:1104   .text._ZN7Hd4478015_waitUntilReadyEv:0000010e .Loc.295
C:\Users\kenne\AppData\Local\Temp\ccH82gYi.s:1107   .text._ZN7Hd4478015_waitUntilReadyEv:0000010e .Loc.296
C:\Users\kenne\AppData\Local\Temp\ccH82gYi.s:1112   .text._ZN7Hd4478015_waitUntilReadyEv:00000112 .Loc.297
C:\Users\kenne\AppData\Local\Temp\ccH82gYi.s:1113   .text._ZN7Hd4478015_waitUntilReadyEv:00000112 .Loc.298
C:\Users\kenne\AppData\Local\Temp\ccH82gYi.s:1114   .text._ZN7Hd4478015_waitUntilReadyEv:00000112 .Loc.299
GAS LISTING C:\Users\kenne\AppData\Local\Temp\ccH82gYi.s 			page 126


C:\Users\kenne\AppData\Local\Temp\ccH82gYi.s:1131   .text._ZN7Hd4478015_waitUntilReadyEv:0000012e .Loc.300
C:\Users\kenne\AppData\Local\Temp\ccH82gYi.s:1135   .text._ZN7Hd4478015_waitUntilReadyEv:0000012e .Loc.301
C:\Users\kenne\AppData\Local\Temp\ccH82gYi.s:1137   .text._ZN7Hd4478015_waitUntilReadyEv:0000012e .Loc.302
C:\Users\kenne\AppData\Local\Temp\ccH82gYi.s:1138   .text._ZN7Hd4478015_waitUntilReadyEv:0000012e .Loc.303
C:\Users\kenne\AppData\Local\Temp\ccH82gYi.s:1139   .text._ZN7Hd4478015_waitUntilReadyEv:0000012e .Loc.304
C:\Users\kenne\AppData\Local\Temp\ccH82gYi.s:1140   .text._ZN7Hd4478015_waitUntilReadyEv:0000012e .Loc.305
C:\Users\kenne\AppData\Local\Temp\ccH82gYi.s:1141   .text._ZN7Hd4478015_waitUntilReadyEv:0000012e .Loc.306
C:\Users\kenne\AppData\Local\Temp\ccH82gYi.s:1142   .text._ZN7Hd4478015_waitUntilReadyEv:0000012e .Loc.307
C:\Users\kenne\AppData\Local\Temp\ccH82gYi.s:1143   .text._ZN7Hd4478015_waitUntilReadyEv:0000012e .Loc.308
C:\Users\kenne\AppData\Local\Temp\ccH82gYi.s:1149   .text._ZN7Hd4478015_waitUntilReadyEv:00000136 .Loc.309
C:\Users\kenne\AppData\Local\Temp\ccH82gYi.s:1152   .text._ZN7Hd4478015_waitUntilReadyEv:00000136 .Loc.310
C:\Users\kenne\AppData\Local\Temp\ccH82gYi.s:1153   .text._ZN7Hd4478015_waitUntilReadyEv:00000136 .Loc.311
C:\Users\kenne\AppData\Local\Temp\ccH82gYi.s:1156   .text._ZN7Hd4478015_waitUntilReadyEv:0000013a .Loc.312
C:\Users\kenne\AppData\Local\Temp\ccH82gYi.s:1159   .text._ZN7Hd4478015_waitUntilReadyEv:0000013c .Loc.313
C:\Users\kenne\AppData\Local\Temp\ccH82gYi.s:1160   .text._ZN7Hd4478015_waitUntilReadyEv:0000013c .Loc.314
C:\Users\kenne\AppData\Local\Temp\ccH82gYi.s:1162   .text._ZN7Hd4478015_waitUntilReadyEv:0000013e .Loc.315
C:\Users\kenne\AppData\Local\Temp\ccH82gYi.s:1165   .text._ZN7Hd4478015_waitUntilReadyEv:00000142 .Loc.316
C:\Users\kenne\AppData\Local\Temp\ccH82gYi.s:1166   .text._ZN7Hd4478015_waitUntilReadyEv:00000142 .Loc.317
C:\Users\kenne\AppData\Local\Temp\ccH82gYi.s:1169   .text._ZN7Hd4478015_waitUntilReadyEv:00000146 .Loc.318
C:\Users\kenne\AppData\Local\Temp\ccH82gYi.s:1179   .text._ZN7Hd4478015_waitUntilReadyEv:00000154 .Loc.319
C:\Users\kenne\AppData\Local\Temp\ccH82gYi.s:1183   .text._ZN7Hd4478015_waitUntilReadyEv:00000156 .Loc.320
C:\Users\kenne\AppData\Local\Temp\ccH82gYi.s:1201   .text._ZN7Hd4478015_waitUntilReadyEv:00000174 .Loc.321
C:\Users\kenne\AppData\Local\Temp\ccH82gYi.s:1205   .text._ZN7Hd4478015_waitUntilReadyEv:00000174 .Loc.322
C:\Users\kenne\AppData\Local\Temp\ccH82gYi.s:1207   .text._ZN7Hd4478015_waitUntilReadyEv:00000174 .Loc.323
C:\Users\kenne\AppData\Local\Temp\ccH82gYi.s:1208   .text._ZN7Hd4478015_waitUntilReadyEv:00000174 .Loc.324
C:\Users\kenne\AppData\Local\Temp\ccH82gYi.s:1209   .text._ZN7Hd4478015_waitUntilReadyEv:00000174 .Loc.325
C:\Users\kenne\AppData\Local\Temp\ccH82gYi.s:1210   .text._ZN7Hd4478015_waitUntilReadyEv:00000174 .Loc.326
C:\Users\kenne\AppData\Local\Temp\ccH82gYi.s:1211   .text._ZN7Hd4478015_waitUntilReadyEv:00000174 .Loc.327
C:\Users\kenne\AppData\Local\Temp\ccH82gYi.s:1212   .text._ZN7Hd4478015_waitUntilReadyEv:00000174 .Loc.328
C:\Users\kenne\AppData\Local\Temp\ccH82gYi.s:1213   .text._ZN7Hd4478015_waitUntilReadyEv:00000174 .Loc.329
C:\Users\kenne\AppData\Local\Temp\ccH82gYi.s:1219   .text._ZN7Hd4478015_waitUntilReadyEv:0000017c .Loc.330
C:\Users\kenne\AppData\Local\Temp\ccH82gYi.s:1222   .text._ZN7Hd4478015_waitUntilReadyEv:0000017c .Loc.331
C:\Users\kenne\AppData\Local\Temp\ccH82gYi.s:1223   .text._ZN7Hd4478015_waitUntilReadyEv:0000017c .Loc.332
C:\Users\kenne\AppData\Local\Temp\ccH82gYi.s:1225   .text._ZN7Hd4478015_waitUntilReadyEv:0000017e .Loc.333
C:\Users\kenne\AppData\Local\Temp\ccH82gYi.s:1228   .text._ZN7Hd4478015_waitUntilReadyEv:00000182 .Loc.334
C:\Users\kenne\AppData\Local\Temp\ccH82gYi.s:1231   .text._ZN7Hd4478015_waitUntilReadyEv:00000184 .Loc.335
C:\Users\kenne\AppData\Local\Temp\ccH82gYi.s:1242   .text._ZN7Hd4478015_waitUntilReadyEv:00000196 .Loc.336
C:\Users\kenne\AppData\Local\Temp\ccH82gYi.s:1259   .text._ZN7Hd4478015_waitUntilReadyEv:000001b2 .Loc.337
C:\Users\kenne\AppData\Local\Temp\ccH82gYi.s:1260   .text._ZN7Hd4478015_waitUntilReadyEv:000001b2 .Loc.338
C:\Users\kenne\AppData\Local\Temp\ccH82gYi.s:1262   .text._ZN7Hd4478015_waitUntilReadyEv:000001b4 .Loc.339
C:\Users\kenne\AppData\Local\Temp\ccH82gYi.s:1265   .text._ZN7Hd4478015_waitUntilReadyEv:000001b8 .Loc.340
C:\Users\kenne\AppData\Local\Temp\ccH82gYi.s:1284   .text._ZN7Hd4478015_waitUntilReadyEv:000001d8 .Loc.341
C:\Users\kenne\AppData\Local\Temp\ccH82gYi.s:1300   .text._ZN7Hd4478015_waitUntilReadyEv:000001f0 .Loc.342
C:\Users\kenne\AppData\Local\Temp\ccH82gYi.s:1301   .text._ZN7Hd4478015_waitUntilReadyEv:000001f0 .Loc.343
C:\Users\kenne\AppData\Local\Temp\ccH82gYi.s:1306   .text._ZN7Hd4478015_waitUntilReadyEv:000001f4 .Loc.344
C:\Users\kenne\AppData\Local\Temp\ccH82gYi.s:1307   .text._ZN7Hd4478015_waitUntilReadyEv:000001f4 .Loc.345
C:\Users\kenne\AppData\Local\Temp\ccH82gYi.s:1310   .text._ZN7Hd4478015_waitUntilReadyEv:000001f8 .Loc.346
C:\Users\kenne\AppData\Local\Temp\ccH82gYi.s:1312   .text._ZN7Hd4478015_waitUntilReadyEv:000001fa .Loc.347
C:\Users\kenne\AppData\Local\Temp\ccH82gYi.s:1313   .text._ZN7Hd4478015_waitUntilReadyEv:000001fa .Loc.348
C:\Users\kenne\AppData\Local\Temp\ccH82gYi.s:1317   .text._ZN7Hd4478015_waitUntilReadyEv:00000200 .Loc.349
C:\Users\kenne\AppData\Local\Temp\ccH82gYi.s:1321   .text._ZN7Hd4478015_waitUntilReadyEv:00000206 L0
C:\Users\kenne\AppData\Local\Temp\ccH82gYi.s:1327   .text._ZN7Hd4478013_writeCommandEh:00000000 _ZN7Hd4478013_writeCommandEh
C:\Users\kenne\AppData\Local\Temp\ccH82gYi.s:1330   .text._ZN7Hd4478013_writeCommandEh:00000000 .Loc.350
C:\Users\kenne\AppData\Local\Temp\ccH82gYi.s:1331   .text._ZN7Hd4478013_writeCommandEh:00000000 L0
C:\Users\kenne\AppData\Local\Temp\ccH82gYi.s:1332   .text._ZN7Hd4478013_writeCommandEh:00000000 .Loc.351
C:\Users\kenne\AppData\Local\Temp\ccH82gYi.s:1349   .text._ZN7Hd4478013_writeCommandEh:0000000c .Loc.352
C:\Users\kenne\AppData\Local\Temp\ccH82gYi.s:1350   .text._ZN7Hd4478013_writeCommandEh:0000000c .Loc.353
GAS LISTING C:\Users\kenne\AppData\Local\Temp\ccH82gYi.s 			page 127


C:\Users\kenne\AppData\Local\Temp\ccH82gYi.s:1353   .text._ZN7Hd4478013_writeCommandEh:0000000e .Loc.354
C:\Users\kenne\AppData\Local\Temp\ccH82gYi.s:1356   .text._ZN7Hd4478013_writeCommandEh:00000012 .Loc.355
C:\Users\kenne\AppData\Local\Temp\ccH82gYi.s:1357   .text._ZN7Hd4478013_writeCommandEh:00000012 .Loc.356
C:\Users\kenne\AppData\Local\Temp\ccH82gYi.s:1359   .text._ZN7Hd4478013_writeCommandEh:00000014 .Loc.357
C:\Users\kenne\AppData\Local\Temp\ccH82gYi.s:1364   .text._ZN7Hd4478013_writeCommandEh:00000018 .Loc.358
C:\Users\kenne\AppData\Local\Temp\ccH82gYi.s:1391   .text._ZN7Hd4478013_writeCommandEh:00000046 .Loc.359
C:\Users\kenne\AppData\Local\Temp\ccH82gYi.s:1414   .text._ZN7Hd4478013_writeCommandEh:0000006e .Loc.360
C:\Users\kenne\AppData\Local\Temp\ccH82gYi.s:1430   .text._ZN7Hd4478013_writeCommandEh:00000088 .Loc.361
C:\Users\kenne\AppData\Local\Temp\ccH82gYi.s:1431   .text._ZN7Hd4478013_writeCommandEh:00000088 .Loc.362
C:\Users\kenne\AppData\Local\Temp\ccH82gYi.s:1433   .text._ZN7Hd4478013_writeCommandEh:0000008a .Loc.363
C:\Users\kenne\AppData\Local\Temp\ccH82gYi.s:1436   .text._ZN7Hd4478013_writeCommandEh:0000008e .Loc.364
C:\Users\kenne\AppData\Local\Temp\ccH82gYi.s:1455   .text._ZN7Hd4478013_writeCommandEh:000000ae .Loc.365
C:\Users\kenne\AppData\Local\Temp\ccH82gYi.s:1456   .text._ZN7Hd4478013_writeCommandEh:000000ae .Loc.366
C:\Users\kenne\AppData\Local\Temp\ccH82gYi.s:1459   .text._ZN7Hd4478013_writeCommandEh:000000b2 .Loc.367
C:\Users\kenne\AppData\Local\Temp\ccH82gYi.s:1461   .text._ZN7Hd4478013_writeCommandEh:000000b4 .Loc.368
C:\Users\kenne\AppData\Local\Temp\ccH82gYi.s:1466   .text._ZN7Hd4478013_writeCommandEh:000000bc .Loc.369
C:\Users\kenne\AppData\Local\Temp\ccH82gYi.s:1469   .text._ZN7Hd4478013_writeCommandEh:000000c0 .Loc.370
C:\Users\kenne\AppData\Local\Temp\ccH82gYi.s:1477   .text._ZN7Hd4478013_writeCommandEh:000000ca .Loc.371
C:\Users\kenne\AppData\Local\Temp\ccH82gYi.s:1480   .text._ZN7Hd4478013_writeCommandEh:000000ce .Loc.372
C:\Users\kenne\AppData\Local\Temp\ccH82gYi.s:1499   .text._ZN7Hd4478013_writeCommandEh:000000ee .Loc.373
C:\Users\kenne\AppData\Local\Temp\ccH82gYi.s:1503   .text._ZN7Hd4478013_writeCommandEh:000000ee .Loc.374
C:\Users\kenne\AppData\Local\Temp\ccH82gYi.s:1505   .text._ZN7Hd4478013_writeCommandEh:000000ee .Loc.375
C:\Users\kenne\AppData\Local\Temp\ccH82gYi.s:1506   .text._ZN7Hd4478013_writeCommandEh:000000ee .Loc.376
C:\Users\kenne\AppData\Local\Temp\ccH82gYi.s:1507   .text._ZN7Hd4478013_writeCommandEh:000000ee .Loc.377
C:\Users\kenne\AppData\Local\Temp\ccH82gYi.s:1508   .text._ZN7Hd4478013_writeCommandEh:000000ee .Loc.378
C:\Users\kenne\AppData\Local\Temp\ccH82gYi.s:1509   .text._ZN7Hd4478013_writeCommandEh:000000ee .Loc.379
C:\Users\kenne\AppData\Local\Temp\ccH82gYi.s:1510   .text._ZN7Hd4478013_writeCommandEh:000000ee .Loc.380
C:\Users\kenne\AppData\Local\Temp\ccH82gYi.s:1511   .text._ZN7Hd4478013_writeCommandEh:000000ee .Loc.381
C:\Users\kenne\AppData\Local\Temp\ccH82gYi.s:1517   .text._ZN7Hd4478013_writeCommandEh:000000f6 .Loc.382
C:\Users\kenne\AppData\Local\Temp\ccH82gYi.s:1520   .text._ZN7Hd4478013_writeCommandEh:000000f6 .Loc.383
C:\Users\kenne\AppData\Local\Temp\ccH82gYi.s:1536   .text._ZN7Hd4478013_writeCommandEh:00000110 .Loc.384
C:\Users\kenne\AppData\Local\Temp\ccH82gYi.s:1540   .text._ZN7Hd4478013_writeCommandEh:00000110 .Loc.385
C:\Users\kenne\AppData\Local\Temp\ccH82gYi.s:1542   .text._ZN7Hd4478013_writeCommandEh:00000110 .Loc.386
C:\Users\kenne\AppData\Local\Temp\ccH82gYi.s:1543   .text._ZN7Hd4478013_writeCommandEh:00000110 .Loc.387
C:\Users\kenne\AppData\Local\Temp\ccH82gYi.s:1544   .text._ZN7Hd4478013_writeCommandEh:00000110 .Loc.388
C:\Users\kenne\AppData\Local\Temp\ccH82gYi.s:1545   .text._ZN7Hd4478013_writeCommandEh:00000110 .Loc.389
C:\Users\kenne\AppData\Local\Temp\ccH82gYi.s:1546   .text._ZN7Hd4478013_writeCommandEh:00000110 .Loc.390
C:\Users\kenne\AppData\Local\Temp\ccH82gYi.s:1547   .text._ZN7Hd4478013_writeCommandEh:00000110 .Loc.391
C:\Users\kenne\AppData\Local\Temp\ccH82gYi.s:1548   .text._ZN7Hd4478013_writeCommandEh:00000110 .Loc.392
C:\Users\kenne\AppData\Local\Temp\ccH82gYi.s:1554   .text._ZN7Hd4478013_writeCommandEh:00000118 .Loc.393
C:\Users\kenne\AppData\Local\Temp\ccH82gYi.s:1557   .text._ZN7Hd4478013_writeCommandEh:00000118 .Loc.394
C:\Users\kenne\AppData\Local\Temp\ccH82gYi.s:1573   .text._ZN7Hd4478013_writeCommandEh:00000132 .Loc.395
C:\Users\kenne\AppData\Local\Temp\ccH82gYi.s:1574   .text._ZN7Hd4478013_writeCommandEh:00000132 .Loc.396
C:\Users\kenne\AppData\Local\Temp\ccH82gYi.s:1577   .text._ZN7Hd4478013_writeCommandEh:00000136 .Loc.397
C:\Users\kenne\AppData\Local\Temp\ccH82gYi.s:1579   .text._ZN7Hd4478013_writeCommandEh:00000138 .Loc.398
C:\Users\kenne\AppData\Local\Temp\ccH82gYi.s:1583   .text._ZN7Hd4478013_writeCommandEh:0000013e .Loc.399
C:\Users\kenne\AppData\Local\Temp\ccH82gYi.s:1586   .text._ZN7Hd4478013_writeCommandEh:00000142 .Loc.400
C:\Users\kenne\AppData\Local\Temp\ccH82gYi.s:1594   .text._ZN7Hd4478013_writeCommandEh:0000014c .Loc.401
C:\Users\kenne\AppData\Local\Temp\ccH82gYi.s:1598   .text._ZN7Hd4478013_writeCommandEh:00000150 .Loc.402
C:\Users\kenne\AppData\Local\Temp\ccH82gYi.s:1617   .text._ZN7Hd4478013_writeCommandEh:00000170 .Loc.403
C:\Users\kenne\AppData\Local\Temp\ccH82gYi.s:1621   .text._ZN7Hd4478013_writeCommandEh:00000170 .Loc.404
C:\Users\kenne\AppData\Local\Temp\ccH82gYi.s:1623   .text._ZN7Hd4478013_writeCommandEh:00000170 .Loc.405
C:\Users\kenne\AppData\Local\Temp\ccH82gYi.s:1624   .text._ZN7Hd4478013_writeCommandEh:00000170 .Loc.406
C:\Users\kenne\AppData\Local\Temp\ccH82gYi.s:1625   .text._ZN7Hd4478013_writeCommandEh:00000170 .Loc.407
C:\Users\kenne\AppData\Local\Temp\ccH82gYi.s:1626   .text._ZN7Hd4478013_writeCommandEh:00000170 .Loc.408
C:\Users\kenne\AppData\Local\Temp\ccH82gYi.s:1627   .text._ZN7Hd4478013_writeCommandEh:00000170 .Loc.409
C:\Users\kenne\AppData\Local\Temp\ccH82gYi.s:1628   .text._ZN7Hd4478013_writeCommandEh:00000170 .Loc.410
GAS LISTING C:\Users\kenne\AppData\Local\Temp\ccH82gYi.s 			page 128


C:\Users\kenne\AppData\Local\Temp\ccH82gYi.s:1629   .text._ZN7Hd4478013_writeCommandEh:00000170 .Loc.411
C:\Users\kenne\AppData\Local\Temp\ccH82gYi.s:1635   .text._ZN7Hd4478013_writeCommandEh:00000178 .Loc.412
C:\Users\kenne\AppData\Local\Temp\ccH82gYi.s:1638   .text._ZN7Hd4478013_writeCommandEh:00000178 .Loc.413
C:\Users\kenne\AppData\Local\Temp\ccH82gYi.s:1654   .text._ZN7Hd4478013_writeCommandEh:00000192 .Loc.414
C:\Users\kenne\AppData\Local\Temp\ccH82gYi.s:1658   .text._ZN7Hd4478013_writeCommandEh:00000192 .Loc.415
C:\Users\kenne\AppData\Local\Temp\ccH82gYi.s:1660   .text._ZN7Hd4478013_writeCommandEh:00000192 .Loc.416
C:\Users\kenne\AppData\Local\Temp\ccH82gYi.s:1661   .text._ZN7Hd4478013_writeCommandEh:00000192 .Loc.417
C:\Users\kenne\AppData\Local\Temp\ccH82gYi.s:1662   .text._ZN7Hd4478013_writeCommandEh:00000192 .Loc.418
C:\Users\kenne\AppData\Local\Temp\ccH82gYi.s:1663   .text._ZN7Hd4478013_writeCommandEh:00000192 .Loc.419
C:\Users\kenne\AppData\Local\Temp\ccH82gYi.s:1664   .text._ZN7Hd4478013_writeCommandEh:00000192 .Loc.420
C:\Users\kenne\AppData\Local\Temp\ccH82gYi.s:1665   .text._ZN7Hd4478013_writeCommandEh:00000192 .Loc.421
C:\Users\kenne\AppData\Local\Temp\ccH82gYi.s:1666   .text._ZN7Hd4478013_writeCommandEh:00000192 .Loc.422
C:\Users\kenne\AppData\Local\Temp\ccH82gYi.s:1672   .text._ZN7Hd4478013_writeCommandEh:0000019a .Loc.423
C:\Users\kenne\AppData\Local\Temp\ccH82gYi.s:1675   .text._ZN7Hd4478013_writeCommandEh:0000019a .Loc.424
C:\Users\kenne\AppData\Local\Temp\ccH82gYi.s:1676   .text._ZN7Hd4478013_writeCommandEh:0000019a .Loc.425
C:\Users\kenne\AppData\Local\Temp\ccH82gYi.s:1678   .text._ZN7Hd4478013_writeCommandEh:0000019c .Loc.426
C:\Users\kenne\AppData\Local\Temp\ccH82gYi.s:1681   .text._ZN7Hd4478013_writeCommandEh:000001a0 .Loc.427
C:\Users\kenne\AppData\Local\Temp\ccH82gYi.s:1682   .text._ZN7Hd4478013_writeCommandEh:000001a0 .Loc.428
C:\Users\kenne\AppData\Local\Temp\ccH82gYi.s:1685   .text._ZN7Hd4478013_writeCommandEh:000001a2 .Loc.429
C:\Users\kenne\AppData\Local\Temp\ccH82gYi.s:1688   .text._ZN7Hd4478013_writeCommandEh:000001a6 .Loc.430
C:\Users\kenne\AppData\Local\Temp\ccH82gYi.s:1692   .text._ZN7Hd4478013_writeCommandEh:000001a6 .Loc.431
C:\Users\kenne\AppData\Local\Temp\ccH82gYi.s:1694   .text._ZN7Hd4478013_writeCommandEh:000001a6 .Loc.432
C:\Users\kenne\AppData\Local\Temp\ccH82gYi.s:1695   .text._ZN7Hd4478013_writeCommandEh:000001a6 .Loc.433
C:\Users\kenne\AppData\Local\Temp\ccH82gYi.s:1696   .text._ZN7Hd4478013_writeCommandEh:000001a6 .Loc.434
C:\Users\kenne\AppData\Local\Temp\ccH82gYi.s:1697   .text._ZN7Hd4478013_writeCommandEh:000001a6 .Loc.435
C:\Users\kenne\AppData\Local\Temp\ccH82gYi.s:1698   .text._ZN7Hd4478013_writeCommandEh:000001a6 .Loc.436
C:\Users\kenne\AppData\Local\Temp\ccH82gYi.s:1699   .text._ZN7Hd4478013_writeCommandEh:000001a6 .Loc.437
C:\Users\kenne\AppData\Local\Temp\ccH82gYi.s:1700   .text._ZN7Hd4478013_writeCommandEh:000001a6 .Loc.438
C:\Users\kenne\AppData\Local\Temp\ccH82gYi.s:1707   .text._ZN7Hd4478013_writeCommandEh:000001ae .Loc.439
C:\Users\kenne\AppData\Local\Temp\ccH82gYi.s:1710   .text._ZN7Hd4478013_writeCommandEh:000001ae .Loc.440
C:\Users\kenne\AppData\Local\Temp\ccH82gYi.s:1711   .text._ZN7Hd4478013_writeCommandEh:000001ae .Loc.441
C:\Users\kenne\AppData\Local\Temp\ccH82gYi.s:1720   .text._ZN7Hd4478013_writeCommandEh:000001b8 .Loc.442
C:\Users\kenne\AppData\Local\Temp\ccH82gYi.s:1721   .text._ZN7Hd4478013_writeCommandEh:000001b8 .Loc.443
C:\Users\kenne\AppData\Local\Temp\ccH82gYi.s:1727   .text._ZN7Hd4478013_writeCommandEh:000001c0 .Loc.444
C:\Users\kenne\AppData\Local\Temp\ccH82gYi.s:1728   .text._ZN7Hd4478013_writeCommandEh:000001c0 .Loc.445
C:\Users\kenne\AppData\Local\Temp\ccH82gYi.s:1731   .text._ZN7Hd4478013_writeCommandEh:000001c4 .Loc.446
C:\Users\kenne\AppData\Local\Temp\ccH82gYi.s:1736   .text._ZN7Hd4478013_writeCommandEh:000001c8 .Loc.447
C:\Users\kenne\AppData\Local\Temp\ccH82gYi.s:1739   .text._ZN7Hd4478013_writeCommandEh:000001c8 .Loc.448
C:\Users\kenne\AppData\Local\Temp\ccH82gYi.s:1741   .text._ZN7Hd4478013_writeCommandEh:000001c8 .Loc.449
C:\Users\kenne\AppData\Local\Temp\ccH82gYi.s:1742   .text._ZN7Hd4478013_writeCommandEh:000001c8 .Loc.450
C:\Users\kenne\AppData\Local\Temp\ccH82gYi.s:1743   .text._ZN7Hd4478013_writeCommandEh:000001c8 .Loc.451
C:\Users\kenne\AppData\Local\Temp\ccH82gYi.s:1744   .text._ZN7Hd4478013_writeCommandEh:000001c8 .Loc.452
C:\Users\kenne\AppData\Local\Temp\ccH82gYi.s:1745   .text._ZN7Hd4478013_writeCommandEh:000001c8 .Loc.453
C:\Users\kenne\AppData\Local\Temp\ccH82gYi.s:1746   .text._ZN7Hd4478013_writeCommandEh:000001c8 .Loc.454
C:\Users\kenne\AppData\Local\Temp\ccH82gYi.s:1747   .text._ZN7Hd4478013_writeCommandEh:000001c8 .Loc.455
C:\Users\kenne\AppData\Local\Temp\ccH82gYi.s:1752   .text._ZN7Hd4478013_writeCommandEh:000001d2 L0
C:\Users\kenne\AppData\Local\Temp\ccH82gYi.s:1754   .text._ZN7Hd4478013_writeCommandEh:000001d4 .Loc.456
C:\Users\kenne\AppData\Local\Temp\ccH82gYi.s:1758   .text._ZN7Hd4478013_writeCommandEh:000001d6 L0
C:\Users\kenne\AppData\Local\Temp\ccH82gYi.s:1764   .text._ZN7Hd447804initENS_4SizeENS_4FontEbb:00000000 _ZN7Hd447804initENS_4SizeENS_4FontEbb
C:\Users\kenne\AppData\Local\Temp\ccH82gYi.s:1767   .text._ZN7Hd447804initENS_4SizeENS_4FontEbb:00000000 .Loc.457
C:\Users\kenne\AppData\Local\Temp\ccH82gYi.s:1768   .text._ZN7Hd447804initENS_4SizeENS_4FontEbb:00000000 L0
C:\Users\kenne\AppData\Local\Temp\ccH82gYi.s:1769   .text._ZN7Hd447804initENS_4SizeENS_4FontEbb:00000000 .Loc.458
C:\Users\kenne\AppData\Local\Temp\ccH82gYi.s:1797   .text._ZN7Hd447804initENS_4SizeENS_4FontEbb:00000016 .Loc.459
C:\Users\kenne\AppData\Local\Temp\ccH82gYi.s:1798   .text._ZN7Hd447804initENS_4SizeENS_4FontEbb:00000016 .Loc.460
C:\Users\kenne\AppData\Local\Temp\ccH82gYi.s:1799   .text._ZN7Hd447804initENS_4SizeENS_4FontEbb:00000016 .Loc.461
C:\Users\kenne\AppData\Local\Temp\ccH82gYi.s:1801   .text._ZN7Hd447804initENS_4SizeENS_4FontEbb:00000016 .Loc.462
C:\Users\kenne\AppData\Local\Temp\ccH82gYi.s:1802   .text._ZN7Hd447804initENS_4SizeENS_4FontEbb:00000016 .Loc.463
GAS LISTING C:\Users\kenne\AppData\Local\Temp\ccH82gYi.s 			page 129


C:\Users\kenne\AppData\Local\Temp\ccH82gYi.s:1805   .text._ZN7Hd447804initENS_4SizeENS_4FontEbb:00000018 .Loc.464
C:\Users\kenne\AppData\Local\Temp\ccH82gYi.s:1809   .text._ZN7Hd447804initENS_4SizeENS_4FontEbb:0000001e .Loc.465
C:\Users\kenne\AppData\Local\Temp\ccH82gYi.s:1810   .text._ZN7Hd447804initENS_4SizeENS_4FontEbb:0000001e .Loc.466
C:\Users\kenne\AppData\Local\Temp\ccH82gYi.s:1814   .text._ZN7Hd447804initENS_4SizeENS_4FontEbb:00000024 .Loc.467
C:\Users\kenne\AppData\Local\Temp\ccH82gYi.s:1815   .text._ZN7Hd447804initENS_4SizeENS_4FontEbb:00000024 .Loc.468
C:\Users\kenne\AppData\Local\Temp\ccH82gYi.s:1819   .text._ZN7Hd447804initENS_4SizeENS_4FontEbb:0000002a .Loc.469
C:\Users\kenne\AppData\Local\Temp\ccH82gYi.s:1820   .text._ZN7Hd447804initENS_4SizeENS_4FontEbb:0000002a .Loc.470
C:\Users\kenne\AppData\Local\Temp\ccH82gYi.s:1823   .text._ZN7Hd447804initENS_4SizeENS_4FontEbb:0000002e .Loc.471
C:\Users\kenne\AppData\Local\Temp\ccH82gYi.s:1824   .text._ZN7Hd447804initENS_4SizeENS_4FontEbb:0000002e .Loc.472
C:\Users\kenne\AppData\Local\Temp\ccH82gYi.s:1829   .text._ZN7Hd447804initENS_4SizeENS_4FontEbb:00000034 .Loc.473
C:\Users\kenne\AppData\Local\Temp\ccH82gYi.s:1831   .text._ZN7Hd447804initENS_4SizeENS_4FontEbb:00000036 .Loc.474
C:\Users\kenne\AppData\Local\Temp\ccH82gYi.s:1833   .text._ZN7Hd447804initENS_4SizeENS_4FontEbb:0000003a L0
C:\Users\kenne\AppData\Local\Temp\ccH82gYi.s:1835   .text._ZN7Hd447804initENS_4SizeENS_4FontEbb:0000003c .Loc.475
C:\Users\kenne\AppData\Local\Temp\ccH82gYi.s:1844   .text._ZN7Hd447804initENS_4SizeENS_4FontEbb:0000004a .Loc.476
C:\Users\kenne\AppData\Local\Temp\ccH82gYi.s:1847   .text._ZN7Hd447804initENS_4SizeENS_4FontEbb:0000004c .Loc.477
C:\Users\kenne\AppData\Local\Temp\ccH82gYi.s:1859   .text._ZN7Hd447804initENS_4SizeENS_4FontEbb:0000005e .Loc.478
C:\Users\kenne\AppData\Local\Temp\ccH82gYi.s:1875   .text._ZN7Hd447804initENS_4SizeENS_4FontEbb:00000076 .Loc.479
C:\Users\kenne\AppData\Local\Temp\ccH82gYi.s:1895   .text._ZN7Hd447804initENS_4SizeENS_4FontEbb:00000098 .Loc.480
C:\Users\kenne\AppData\Local\Temp\ccH82gYi.s:1912   .text._ZN7Hd447804initENS_4SizeENS_4FontEbb:000000b4 .Loc.481
C:\Users\kenne\AppData\Local\Temp\ccH82gYi.s:1933   .text._ZN7Hd447804initENS_4SizeENS_4FontEbb:000000d8 .Loc.482
C:\Users\kenne\AppData\Local\Temp\ccH82gYi.s:1952   .text._ZN7Hd447804initENS_4SizeENS_4FontEbb:000000f8 .Loc.483
C:\Users\kenne\AppData\Local\Temp\ccH82gYi.s:1955   .text._ZN7Hd447804initENS_4SizeENS_4FontEbb:000000fc .Loc.484
C:\Users\kenne\AppData\Local\Temp\ccH82gYi.s:1983   .text._ZN7Hd447804initENS_4SizeENS_4FontEbb:0000012e .Loc.485
C:\Users\kenne\AppData\Local\Temp\ccH82gYi.s:2008   .text._ZN7Hd447804initENS_4SizeENS_4FontEbb:00000158 .Loc.486
C:\Users\kenne\AppData\Local\Temp\ccH82gYi.s:2012   .text._ZN7Hd447804initENS_4SizeENS_4FontEbb:00000158 .Loc.487
C:\Users\kenne\AppData\Local\Temp\ccH82gYi.s:2014   .text._ZN7Hd447804initENS_4SizeENS_4FontEbb:00000158 .Loc.488
C:\Users\kenne\AppData\Local\Temp\ccH82gYi.s:2015   .text._ZN7Hd447804initENS_4SizeENS_4FontEbb:00000158 .Loc.489
C:\Users\kenne\AppData\Local\Temp\ccH82gYi.s:2016   .text._ZN7Hd447804initENS_4SizeENS_4FontEbb:00000158 .Loc.490
C:\Users\kenne\AppData\Local\Temp\ccH82gYi.s:2017   .text._ZN7Hd447804initENS_4SizeENS_4FontEbb:00000158 .Loc.491
C:\Users\kenne\AppData\Local\Temp\ccH82gYi.s:2018   .text._ZN7Hd447804initENS_4SizeENS_4FontEbb:00000158 .Loc.492
C:\Users\kenne\AppData\Local\Temp\ccH82gYi.s:2019   .text._ZN7Hd447804initENS_4SizeENS_4FontEbb:00000158 .Loc.493
C:\Users\kenne\AppData\Local\Temp\ccH82gYi.s:2020   .text._ZN7Hd447804initENS_4SizeENS_4FontEbb:00000158 .Loc.494
C:\Users\kenne\AppData\Local\Temp\ccH82gYi.s:2025   .text._ZN7Hd447804initENS_4SizeENS_4FontEbb:00000162 L0
C:\Users\kenne\AppData\Local\Temp\ccH82gYi.s:2028   .text._ZN7Hd447804initENS_4SizeENS_4FontEbb:00000164 .Loc.495
C:\Users\kenne\AppData\Local\Temp\ccH82gYi.s:2031   .text._ZN7Hd447804initENS_4SizeENS_4FontEbb:00000164 .Loc.496
C:\Users\kenne\AppData\Local\Temp\ccH82gYi.s:2033   .text._ZN7Hd447804initENS_4SizeENS_4FontEbb:00000168 L0
C:\Users\kenne\AppData\Local\Temp\ccH82gYi.s:2035   .text._ZN7Hd447804initENS_4SizeENS_4FontEbb:0000016a .Loc.497
C:\Users\kenne\AppData\Local\Temp\ccH82gYi.s:2036   .text._ZN7Hd447804initENS_4SizeENS_4FontEbb:0000016a .Loc.498
C:\Users\kenne\AppData\Local\Temp\ccH82gYi.s:2041   .text._ZN7Hd447804initENS_4SizeENS_4FontEbb:00000172 .Loc.499
C:\Users\kenne\AppData\Local\Temp\ccH82gYi.s:2044   .text._ZN7Hd447804initENS_4SizeENS_4FontEbb:00000172 .Loc.500
C:\Users\kenne\AppData\Local\Temp\ccH82gYi.s:2046   .text._ZN7Hd447804initENS_4SizeENS_4FontEbb:00000172 .Loc.501
C:\Users\kenne\AppData\Local\Temp\ccH82gYi.s:2047   .text._ZN7Hd447804initENS_4SizeENS_4FontEbb:00000172 .Loc.502
C:\Users\kenne\AppData\Local\Temp\ccH82gYi.s:2048   .text._ZN7Hd447804initENS_4SizeENS_4FontEbb:00000172 .Loc.503
C:\Users\kenne\AppData\Local\Temp\ccH82gYi.s:2049   .text._ZN7Hd447804initENS_4SizeENS_4FontEbb:00000172 .Loc.504
C:\Users\kenne\AppData\Local\Temp\ccH82gYi.s:2050   .text._ZN7Hd447804initENS_4SizeENS_4FontEbb:00000172 .Loc.505
C:\Users\kenne\AppData\Local\Temp\ccH82gYi.s:2051   .text._ZN7Hd447804initENS_4SizeENS_4FontEbb:00000172 .Loc.506
C:\Users\kenne\AppData\Local\Temp\ccH82gYi.s:2052   .text._ZN7Hd447804initENS_4SizeENS_4FontEbb:00000172 .Loc.507
C:\Users\kenne\AppData\Local\Temp\ccH82gYi.s:2057   .text._ZN7Hd447804initENS_4SizeENS_4FontEbb:0000017c L0
C:\Users\kenne\AppData\Local\Temp\ccH82gYi.s:2060   .text._ZN7Hd447804initENS_4SizeENS_4FontEbb:0000017e .Loc.508
C:\Users\kenne\AppData\Local\Temp\ccH82gYi.s:2063   .text._ZN7Hd447804initENS_4SizeENS_4FontEbb:0000017e .Loc.509
C:\Users\kenne\AppData\Local\Temp\ccH82gYi.s:2064   .text._ZN7Hd447804initENS_4SizeENS_4FontEbb:0000017e .Loc.510
C:\Users\kenne\AppData\Local\Temp\ccH82gYi.s:2069   .text._ZN7Hd447804initENS_4SizeENS_4FontEbb:00000186 .Loc.511
C:\Users\kenne\AppData\Local\Temp\ccH82gYi.s:2072   .text._ZN7Hd447804initENS_4SizeENS_4FontEbb:00000186 .Loc.512
C:\Users\kenne\AppData\Local\Temp\ccH82gYi.s:2074   .text._ZN7Hd447804initENS_4SizeENS_4FontEbb:00000186 .Loc.513
C:\Users\kenne\AppData\Local\Temp\ccH82gYi.s:2075   .text._ZN7Hd447804initENS_4SizeENS_4FontEbb:00000186 .Loc.514
C:\Users\kenne\AppData\Local\Temp\ccH82gYi.s:2076   .text._ZN7Hd447804initENS_4SizeENS_4FontEbb:00000186 .Loc.515
C:\Users\kenne\AppData\Local\Temp\ccH82gYi.s:2077   .text._ZN7Hd447804initENS_4SizeENS_4FontEbb:00000186 .Loc.516
GAS LISTING C:\Users\kenne\AppData\Local\Temp\ccH82gYi.s 			page 130


C:\Users\kenne\AppData\Local\Temp\ccH82gYi.s:2078   .text._ZN7Hd447804initENS_4SizeENS_4FontEbb:00000186 .Loc.517
C:\Users\kenne\AppData\Local\Temp\ccH82gYi.s:2079   .text._ZN7Hd447804initENS_4SizeENS_4FontEbb:00000186 .Loc.518
C:\Users\kenne\AppData\Local\Temp\ccH82gYi.s:2080   .text._ZN7Hd447804initENS_4SizeENS_4FontEbb:00000186 .Loc.519
C:\Users\kenne\AppData\Local\Temp\ccH82gYi.s:2085   .text._ZN7Hd447804initENS_4SizeENS_4FontEbb:00000190 L0
C:\Users\kenne\AppData\Local\Temp\ccH82gYi.s:2088   .text._ZN7Hd447804initENS_4SizeENS_4FontEbb:00000192 .Loc.520
C:\Users\kenne\AppData\Local\Temp\ccH82gYi.s:2091   .text._ZN7Hd447804initENS_4SizeENS_4FontEbb:00000192 .Loc.521
C:\Users\kenne\AppData\Local\Temp\ccH82gYi.s:2092   .text._ZN7Hd447804initENS_4SizeENS_4FontEbb:00000192 .Loc.522
C:\Users\kenne\AppData\Local\Temp\ccH82gYi.s:2098   .text._ZN7Hd447804initENS_4SizeENS_4FontEbb:0000019a .Loc.523
C:\Users\kenne\AppData\Local\Temp\ccH82gYi.s:2101   .text._ZN7Hd447804initENS_4SizeENS_4FontEbb:0000019a .Loc.524
C:\Users\kenne\AppData\Local\Temp\ccH82gYi.s:2103   .text._ZN7Hd447804initENS_4SizeENS_4FontEbb:0000019a .Loc.525
C:\Users\kenne\AppData\Local\Temp\ccH82gYi.s:2104   .text._ZN7Hd447804initENS_4SizeENS_4FontEbb:0000019a .Loc.526
C:\Users\kenne\AppData\Local\Temp\ccH82gYi.s:2105   .text._ZN7Hd447804initENS_4SizeENS_4FontEbb:0000019a .Loc.527
C:\Users\kenne\AppData\Local\Temp\ccH82gYi.s:2106   .text._ZN7Hd447804initENS_4SizeENS_4FontEbb:0000019a .Loc.528
C:\Users\kenne\AppData\Local\Temp\ccH82gYi.s:2107   .text._ZN7Hd447804initENS_4SizeENS_4FontEbb:0000019a .Loc.529
C:\Users\kenne\AppData\Local\Temp\ccH82gYi.s:2108   .text._ZN7Hd447804initENS_4SizeENS_4FontEbb:0000019a .Loc.530
C:\Users\kenne\AppData\Local\Temp\ccH82gYi.s:2109   .text._ZN7Hd447804initENS_4SizeENS_4FontEbb:0000019a .Loc.531
C:\Users\kenne\AppData\Local\Temp\ccH82gYi.s:2114   .text._ZN7Hd447804initENS_4SizeENS_4FontEbb:000001a4 L0
C:\Users\kenne\AppData\Local\Temp\ccH82gYi.s:2117   .text._ZN7Hd447804initENS_4SizeENS_4FontEbb:000001a6 .Loc.532
C:\Users\kenne\AppData\Local\Temp\ccH82gYi.s:2120   .text._ZN7Hd447804initENS_4SizeENS_4FontEbb:000001a6 .Loc.533
C:\Users\kenne\AppData\Local\Temp\ccH82gYi.s:2123   .text._ZN7Hd447804initENS_4SizeENS_4FontEbb:000001aa .Loc.534
C:\Users\kenne\AppData\Local\Temp\ccH82gYi.s:2127   .text._ZN7Hd447804initENS_4SizeENS_4FontEbb:000001ac .Loc.535
C:\Users\kenne\AppData\Local\Temp\ccH82gYi.s:2130   .text._ZN7Hd447804initENS_4SizeENS_4FontEbb:000001ae .Loc.536
C:\Users\kenne\AppData\Local\Temp\ccH82gYi.s:2131   .text._ZN7Hd447804initENS_4SizeENS_4FontEbb:000001ae .Loc.537
C:\Users\kenne\AppData\Local\Temp\ccH82gYi.s:2133   .text._ZN7Hd447804initENS_4SizeENS_4FontEbb:000001b2 L0
C:\Users\kenne\AppData\Local\Temp\ccH82gYi.s:2135   .text._ZN7Hd447804initENS_4SizeENS_4FontEbb:000001b4 .Loc.538
C:\Users\kenne\AppData\Local\Temp\ccH82gYi.s:2138   .text._ZN7Hd447804initENS_4SizeENS_4FontEbb:000001b6 .Loc.539
C:\Users\kenne\AppData\Local\Temp\ccH82gYi.s:2141   .text._ZN7Hd447804initENS_4SizeENS_4FontEbb:000001b8 .Loc.540
C:\Users\kenne\AppData\Local\Temp\ccH82gYi.s:2142   .text._ZN7Hd447804initENS_4SizeENS_4FontEbb:000001b8 .Loc.541
C:\Users\kenne\AppData\Local\Temp\ccH82gYi.s:2147   .text._ZN7Hd447804initENS_4SizeENS_4FontEbb:000001c0 .Loc.542
C:\Users\kenne\AppData\Local\Temp\ccH82gYi.s:2148   .text._ZN7Hd447804initENS_4SizeENS_4FontEbb:000001c0 .Loc.543
C:\Users\kenne\AppData\Local\Temp\ccH82gYi.s:2150   .text._ZN7Hd447804initENS_4SizeENS_4FontEbb:000001c4 L0
C:\Users\kenne\AppData\Local\Temp\ccH82gYi.s:2152   .text._ZN7Hd447804initENS_4SizeENS_4FontEbb:000001c6 .Loc.544
C:\Users\kenne\AppData\Local\Temp\ccH82gYi.s:2155   .text._ZN7Hd447804initENS_4SizeENS_4FontEbb:000001c8 .Loc.545
C:\Users\kenne\AppData\Local\Temp\ccH82gYi.s:2158   .text._ZN7Hd447804initENS_4SizeENS_4FontEbb:000001ca .Loc.546
C:\Users\kenne\AppData\Local\Temp\ccH82gYi.s:2159   .text._ZN7Hd447804initENS_4SizeENS_4FontEbb:000001ca .Loc.547
C:\Users\kenne\AppData\Local\Temp\ccH82gYi.s:2163   .text._ZN7Hd447804initENS_4SizeENS_4FontEbb:000001d0 .Loc.548
C:\Users\kenne\AppData\Local\Temp\ccH82gYi.s:2164   .text._ZN7Hd447804initENS_4SizeENS_4FontEbb:000001d0 .Loc.549
C:\Users\kenne\AppData\Local\Temp\ccH82gYi.s:2168   .text._ZN7Hd447804initENS_4SizeENS_4FontEbb:000001d6 .Loc.550
C:\Users\kenne\AppData\Local\Temp\ccH82gYi.s:2169   .text._ZN7Hd447804initENS_4SizeENS_4FontEbb:000001d6 .Loc.551
C:\Users\kenne\AppData\Local\Temp\ccH82gYi.s:2174   .text._ZN7Hd447804initENS_4SizeENS_4FontEbb:000001de .Loc.552
C:\Users\kenne\AppData\Local\Temp\ccH82gYi.s:2175   .text._ZN7Hd447804initENS_4SizeENS_4FontEbb:000001de .Loc.553
C:\Users\kenne\AppData\Local\Temp\ccH82gYi.s:2180   .text._ZN7Hd447804initENS_4SizeENS_4FontEbb:000001e6 .Loc.554
C:\Users\kenne\AppData\Local\Temp\ccH82gYi.s:2181   .text._ZN7Hd447804initENS_4SizeENS_4FontEbb:000001e6 .Loc.555
C:\Users\kenne\AppData\Local\Temp\ccH82gYi.s:2182   .text._ZN7Hd447804initENS_4SizeENS_4FontEbb:000001e6 .Loc.556
C:\Users\kenne\AppData\Local\Temp\ccH82gYi.s:2184   .text._ZN7Hd447804initENS_4SizeENS_4FontEbb:000001e8 .Loc.557
C:\Users\kenne\AppData\Local\Temp\ccH82gYi.s:2187   .text._ZN7Hd447804initENS_4SizeENS_4FontEbb:000001ec .Loc.558
C:\Users\kenne\AppData\Local\Temp\ccH82gYi.s:2191   .text._ZN7Hd447804initENS_4SizeENS_4FontEbb:000001ee .Loc.559
C:\Users\kenne\AppData\Local\Temp\ccH82gYi.s:2193   .text._ZN7Hd447804initENS_4SizeENS_4FontEbb:000001f2 L0
C:\Users\kenne\AppData\Local\Temp\ccH82gYi.s:2196   .text._ZN7Hd447804initENS_4SizeENS_4FontEbb:000001f4 .Loc.560
C:\Users\kenne\AppData\Local\Temp\ccH82gYi.s:2197   .text._ZN7Hd447804initENS_4SizeENS_4FontEbb:000001f4 .Loc.561
C:\Users\kenne\AppData\Local\Temp\ccH82gYi.s:2201   .text._ZN7Hd447804initENS_4SizeENS_4FontEbb:000001fa .Loc.562
C:\Users\kenne\AppData\Local\Temp\ccH82gYi.s:2202   .text._ZN7Hd447804initENS_4SizeENS_4FontEbb:000001fa .Loc.563
C:\Users\kenne\AppData\Local\Temp\ccH82gYi.s:2207   .text._ZN7Hd447804initENS_4SizeENS_4FontEbb:00000202 .Loc.564
C:\Users\kenne\AppData\Local\Temp\ccH82gYi.s:2208   .text._ZN7Hd447804initENS_4SizeENS_4FontEbb:00000202 .Loc.565
C:\Users\kenne\AppData\Local\Temp\ccH82gYi.s:2212   .text._ZN7Hd447804initENS_4SizeENS_4FontEbb:00000208 .Loc.566
C:\Users\kenne\AppData\Local\Temp\ccH82gYi.s:2213   .text._ZN7Hd447804initENS_4SizeENS_4FontEbb:00000208 .Loc.567
C:\Users\kenne\AppData\Local\Temp\ccH82gYi.s:2216   .text._ZN7Hd447804initENS_4SizeENS_4FontEbb:0000020c .Loc.568
GAS LISTING C:\Users\kenne\AppData\Local\Temp\ccH82gYi.s 			page 131


C:\Users\kenne\AppData\Local\Temp\ccH82gYi.s:2217   .text._ZN7Hd447804initENS_4SizeENS_4FontEbb:0000020c .Loc.569
C:\Users\kenne\AppData\Local\Temp\ccH82gYi.s:2221   .text._ZN7Hd447804initENS_4SizeENS_4FontEbb:00000212 .Loc.570
C:\Users\kenne\AppData\Local\Temp\ccH82gYi.s:2222   .text._ZN7Hd447804initENS_4SizeENS_4FontEbb:00000212 .Loc.571
C:\Users\kenne\AppData\Local\Temp\ccH82gYi.s:2228   .text._ZN7Hd447804initENS_4SizeENS_4FontEbb:0000021c .Loc.572
C:\Users\kenne\AppData\Local\Temp\ccH82gYi.s:2229   .text._ZN7Hd447804initENS_4SizeENS_4FontEbb:0000021c .Loc.573
C:\Users\kenne\AppData\Local\Temp\ccH82gYi.s:2232   .text._ZN7Hd447804initENS_4SizeENS_4FontEbb:00000220 .Loc.574
C:\Users\kenne\AppData\Local\Temp\ccH82gYi.s:2233   .text._ZN7Hd447804initENS_4SizeENS_4FontEbb:00000220 .Loc.575
C:\Users\kenne\AppData\Local\Temp\ccH82gYi.s:2236   .text._ZN7Hd447804initENS_4SizeENS_4FontEbb:00000224 .Loc.576
C:\Users\kenne\AppData\Local\Temp\ccH82gYi.s:2243   .text._ZN7Hd447804initENS_4SizeENS_4FontEbb:00000232 .Loc.577
C:\Users\kenne\AppData\Local\Temp\ccH82gYi.s:2252   .text._ZN7Hd447804initENS_4SizeENS_4FontEbb:00000242 .Loc.578
C:\Users\kenne\AppData\Local\Temp\ccH82gYi.s:2253   .text._ZN7Hd447804initENS_4SizeENS_4FontEbb:00000242 .Loc.579
C:\Users\kenne\AppData\Local\Temp\ccH82gYi.s:2257   .text._ZN7Hd447804initENS_4SizeENS_4FontEbb:00000248 .Loc.580
C:\Users\kenne\AppData\Local\Temp\ccH82gYi.s:2261   .text._ZN7Hd447804initENS_4SizeENS_4FontEbb:00000250 .Loc.581
C:\Users\kenne\AppData\Local\Temp\ccH82gYi.s:2263   .text._ZN7Hd447804initENS_4SizeENS_4FontEbb:00000252 .Loc.582
C:\Users\kenne\AppData\Local\Temp\ccH82gYi.s:2279   .text._ZN7Hd447804initENS_4SizeENS_4FontEbb:00000270 .Loc.583
C:\Users\kenne\AppData\Local\Temp\ccH82gYi.s:2280   .text._ZN7Hd447804initENS_4SizeENS_4FontEbb:00000270 .Loc.584
C:\Users\kenne\AppData\Local\Temp\ccH82gYi.s:2283   .text._ZN7Hd447804initENS_4SizeENS_4FontEbb:00000274 .Loc.585
C:\Users\kenne\AppData\Local\Temp\ccH82gYi.s:2284   .text._ZN7Hd447804initENS_4SizeENS_4FontEbb:00000274 .Loc.586
C:\Users\kenne\AppData\Local\Temp\ccH82gYi.s:2285   .text._ZN7Hd447804initENS_4SizeENS_4FontEbb:00000274 .Loc.587
C:\Users\kenne\AppData\Local\Temp\ccH82gYi.s:2286   .text._ZN7Hd447804initENS_4SizeENS_4FontEbb:00000274 .Loc.588
C:\Users\kenne\AppData\Local\Temp\ccH82gYi.s:2293   .text._ZN7Hd447804initENS_4SizeENS_4FontEbb:0000027c .Loc.589
C:\Users\kenne\AppData\Local\Temp\ccH82gYi.s:2296   .text._ZN7Hd447804initENS_4SizeENS_4FontEbb:0000027e .Loc.590
C:\Users\kenne\AppData\Local\Temp\ccH82gYi.s:2299   .text._ZN7Hd447804initENS_4SizeENS_4FontEbb:00000280 .Loc.591
C:\Users\kenne\AppData\Local\Temp\ccH82gYi.s:2304   .text._ZN7Hd447804initENS_4SizeENS_4FontEbb:00000284 .Loc.592
C:\Users\kenne\AppData\Local\Temp\ccH82gYi.s:2305   .text._ZN7Hd447804initENS_4SizeENS_4FontEbb:00000284 .Loc.593
C:\Users\kenne\AppData\Local\Temp\ccH82gYi.s:2308   .text._ZN7Hd447804initENS_4SizeENS_4FontEbb:00000288 .Loc.594
C:\Users\kenne\AppData\Local\Temp\ccH82gYi.s:2310   .text._ZN7Hd447804initENS_4SizeENS_4FontEbb:0000028a .Loc.595
C:\Users\kenne\AppData\Local\Temp\ccH82gYi.s:2311   .text._ZN7Hd447804initENS_4SizeENS_4FontEbb:0000028a .Loc.596
C:\Users\kenne\AppData\Local\Temp\ccH82gYi.s:2314   .text._ZN7Hd447804initENS_4SizeENS_4FontEbb:0000028e .Loc.597
C:\Users\kenne\AppData\Local\Temp\ccH82gYi.s:2319   .text._ZN7Hd447804initENS_4SizeENS_4FontEbb:00000294 .Loc.598
C:\Users\kenne\AppData\Local\Temp\ccH82gYi.s:2320   .text._ZN7Hd447804initENS_4SizeENS_4FontEbb:00000294 .Loc.599
C:\Users\kenne\AppData\Local\Temp\ccH82gYi.s:2325   .text._ZN7Hd447804initENS_4SizeENS_4FontEbb:0000029c .Loc.600
C:\Users\kenne\AppData\Local\Temp\ccH82gYi.s:2328   .text._ZN7Hd447804initENS_4SizeENS_4FontEbb:0000029c .Loc.601
C:\Users\kenne\AppData\Local\Temp\ccH82gYi.s:2330   .text._ZN7Hd447804initENS_4SizeENS_4FontEbb:0000029c .Loc.602
C:\Users\kenne\AppData\Local\Temp\ccH82gYi.s:2331   .text._ZN7Hd447804initENS_4SizeENS_4FontEbb:0000029c .Loc.603
C:\Users\kenne\AppData\Local\Temp\ccH82gYi.s:2332   .text._ZN7Hd447804initENS_4SizeENS_4FontEbb:0000029c .Loc.604
C:\Users\kenne\AppData\Local\Temp\ccH82gYi.s:2333   .text._ZN7Hd447804initENS_4SizeENS_4FontEbb:0000029c .Loc.605
C:\Users\kenne\AppData\Local\Temp\ccH82gYi.s:2334   .text._ZN7Hd447804initENS_4SizeENS_4FontEbb:0000029c .Loc.606
C:\Users\kenne\AppData\Local\Temp\ccH82gYi.s:2335   .text._ZN7Hd447804initENS_4SizeENS_4FontEbb:0000029c .Loc.607
C:\Users\kenne\AppData\Local\Temp\ccH82gYi.s:2336   .text._ZN7Hd447804initENS_4SizeENS_4FontEbb:0000029c .Loc.608
C:\Users\kenne\AppData\Local\Temp\ccH82gYi.s:2341   .text._ZN7Hd447804initENS_4SizeENS_4FontEbb:000002a6 L0
C:\Users\kenne\AppData\Local\Temp\ccH82gYi.s:2344   .text._ZN7Hd447804initENS_4SizeENS_4FontEbb:000002a8 .Loc.609
C:\Users\kenne\AppData\Local\Temp\ccH82gYi.s:2347   .text._ZN7Hd447804initENS_4SizeENS_4FontEbb:000002a8 .Loc.610
C:\Users\kenne\AppData\Local\Temp\ccH82gYi.s:2348   .text._ZN7Hd447804initENS_4SizeENS_4FontEbb:000002a8 .Loc.611
C:\Users\kenne\AppData\Local\Temp\ccH82gYi.s:2353   .text._ZN7Hd447804initENS_4SizeENS_4FontEbb:000002b0 .Loc.612
C:\Users\kenne\AppData\Local\Temp\ccH82gYi.s:2356   .text._ZN7Hd447804initENS_4SizeENS_4FontEbb:000002b0 .Loc.613
C:\Users\kenne\AppData\Local\Temp\ccH82gYi.s:2358   .text._ZN7Hd447804initENS_4SizeENS_4FontEbb:000002b0 .Loc.614
C:\Users\kenne\AppData\Local\Temp\ccH82gYi.s:2359   .text._ZN7Hd447804initENS_4SizeENS_4FontEbb:000002b0 .Loc.615
C:\Users\kenne\AppData\Local\Temp\ccH82gYi.s:2360   .text._ZN7Hd447804initENS_4SizeENS_4FontEbb:000002b0 .Loc.616
C:\Users\kenne\AppData\Local\Temp\ccH82gYi.s:2361   .text._ZN7Hd447804initENS_4SizeENS_4FontEbb:000002b0 .Loc.617
C:\Users\kenne\AppData\Local\Temp\ccH82gYi.s:2362   .text._ZN7Hd447804initENS_4SizeENS_4FontEbb:000002b0 .Loc.618
C:\Users\kenne\AppData\Local\Temp\ccH82gYi.s:2363   .text._ZN7Hd447804initENS_4SizeENS_4FontEbb:000002b0 .Loc.619
C:\Users\kenne\AppData\Local\Temp\ccH82gYi.s:2364   .text._ZN7Hd447804initENS_4SizeENS_4FontEbb:000002b0 .Loc.620
C:\Users\kenne\AppData\Local\Temp\ccH82gYi.s:2369   .text._ZN7Hd447804initENS_4SizeENS_4FontEbb:000002ba L0
C:\Users\kenne\AppData\Local\Temp\ccH82gYi.s:2372   .text._ZN7Hd447804initENS_4SizeENS_4FontEbb:000002bc .Loc.621
C:\Users\kenne\AppData\Local\Temp\ccH82gYi.s:2375   .text._ZN7Hd447804initENS_4SizeENS_4FontEbb:000002bc .Loc.622
C:\Users\kenne\AppData\Local\Temp\ccH82gYi.s:2376   .text._ZN7Hd447804initENS_4SizeENS_4FontEbb:000002bc .Loc.623
GAS LISTING C:\Users\kenne\AppData\Local\Temp\ccH82gYi.s 			page 132


C:\Users\kenne\AppData\Local\Temp\ccH82gYi.s:2383   .text._ZN7Hd447804initENS_4SizeENS_4FontEbb:000002c6 .Loc.624
C:\Users\kenne\AppData\Local\Temp\ccH82gYi.s:2384   .text._ZN7Hd447804initENS_4SizeENS_4FontEbb:000002c6 .Loc.625
C:\Users\kenne\AppData\Local\Temp\ccH82gYi.s:2389   .text._ZN7Hd447804initENS_4SizeENS_4FontEbb:000002ce .Loc.626
C:\Users\kenne\AppData\Local\Temp\ccH82gYi.s:2392   .text._ZN7Hd447804initENS_4SizeENS_4FontEbb:000002ce .Loc.627
C:\Users\kenne\AppData\Local\Temp\ccH82gYi.s:2394   .text._ZN7Hd447804initENS_4SizeENS_4FontEbb:000002ce .Loc.628
C:\Users\kenne\AppData\Local\Temp\ccH82gYi.s:2395   .text._ZN7Hd447804initENS_4SizeENS_4FontEbb:000002ce .Loc.629
C:\Users\kenne\AppData\Local\Temp\ccH82gYi.s:2396   .text._ZN7Hd447804initENS_4SizeENS_4FontEbb:000002ce .Loc.630
C:\Users\kenne\AppData\Local\Temp\ccH82gYi.s:2397   .text._ZN7Hd447804initENS_4SizeENS_4FontEbb:000002ce .Loc.631
C:\Users\kenne\AppData\Local\Temp\ccH82gYi.s:2398   .text._ZN7Hd447804initENS_4SizeENS_4FontEbb:000002ce .Loc.632
C:\Users\kenne\AppData\Local\Temp\ccH82gYi.s:2399   .text._ZN7Hd447804initENS_4SizeENS_4FontEbb:000002ce .Loc.633
C:\Users\kenne\AppData\Local\Temp\ccH82gYi.s:2400   .text._ZN7Hd447804initENS_4SizeENS_4FontEbb:000002ce .Loc.634
C:\Users\kenne\AppData\Local\Temp\ccH82gYi.s:2405   .text._ZN7Hd447804initENS_4SizeENS_4FontEbb:000002d8 L0
C:\Users\kenne\AppData\Local\Temp\ccH82gYi.s:2408   .text._ZN7Hd447804initENS_4SizeENS_4FontEbb:000002da .Loc.635
C:\Users\kenne\AppData\Local\Temp\ccH82gYi.s:2411   .text._ZN7Hd447804initENS_4SizeENS_4FontEbb:000002da .Loc.636
C:\Users\kenne\AppData\Local\Temp\ccH82gYi.s:2412   .text._ZN7Hd447804initENS_4SizeENS_4FontEbb:000002da .Loc.637
C:\Users\kenne\AppData\Local\Temp\ccH82gYi.s:2413   .text._ZN7Hd447804initENS_4SizeENS_4FontEbb:000002da .Loc.638
C:\Users\kenne\AppData\Local\Temp\ccH82gYi.s:2418   .text._ZN7Hd447804initENS_4SizeENS_4FontEbb:000002de .Loc.639
C:\Users\kenne\AppData\Local\Temp\ccH82gYi.s:2422   .text._ZN7Hd447804initENS_4SizeENS_4FontEbb:000002e2 .Loc.640
C:\Users\kenne\AppData\Local\Temp\ccH82gYi.s:2427   .text._ZN7Hd447804initENS_4SizeENS_4FontEbb:000002e6 .Loc.641
C:\Users\kenne\AppData\Local\Temp\ccH82gYi.s:2432   .text._ZN7Hd447804initENS_4SizeENS_4FontEbb:000002ea .Loc.642
C:\Users\kenne\AppData\Local\Temp\ccH82gYi.s:2433   .text._ZN7Hd447804initENS_4SizeENS_4FontEbb:000002ea .Loc.643
C:\Users\kenne\AppData\Local\Temp\ccH82gYi.s:2436   .text._ZN7Hd447804initENS_4SizeENS_4FontEbb:000002ec .Loc.644
C:\Users\kenne\AppData\Local\Temp\ccH82gYi.s:2438   .text._ZN7Hd447804initENS_4SizeENS_4FontEbb:000002ee L0
C:\Users\kenne\AppData\Local\Temp\ccH82gYi.s:2444   .text._ZN7Hd4478011clearScreenEv:00000000 _ZN7Hd4478011clearScreenEv
C:\Users\kenne\AppData\Local\Temp\ccH82gYi.s:2447   .text._ZN7Hd4478011clearScreenEv:00000000 .Loc.645
C:\Users\kenne\AppData\Local\Temp\ccH82gYi.s:2448   .text._ZN7Hd4478011clearScreenEv:00000000 L0
C:\Users\kenne\AppData\Local\Temp\ccH82gYi.s:2449   .text._ZN7Hd4478011clearScreenEv:00000000 .Loc.646
C:\Users\kenne\AppData\Local\Temp\ccH82gYi.s:2462   .text._ZN7Hd4478011clearScreenEv:00000008 .Loc.647
C:\Users\kenne\AppData\Local\Temp\ccH82gYi.s:2463   .text._ZN7Hd4478011clearScreenEv:00000008 .Loc.648
C:\Users\kenne\AppData\Local\Temp\ccH82gYi.s:2464   .text._ZN7Hd4478011clearScreenEv:00000008 .Loc.649
C:\Users\kenne\AppData\Local\Temp\ccH82gYi.s:2465   .text._ZN7Hd4478011clearScreenEv:00000008 .Loc.650
C:\Users\kenne\AppData\Local\Temp\ccH82gYi.s:2469   .text._ZN7Hd4478011clearScreenEv:0000000c .Loc.651
C:\Users\kenne\AppData\Local\Temp\ccH82gYi.s:2472   .text._ZN7Hd4478011clearScreenEv:00000010 .Loc.652
C:\Users\kenne\AppData\Local\Temp\ccH82gYi.s:2475   .text._ZN7Hd4478011clearScreenEv:00000014 .Loc.653
C:\Users\kenne\AppData\Local\Temp\ccH82gYi.s:2476   .text._ZN7Hd4478011clearScreenEv:00000014 .Loc.654
C:\Users\kenne\AppData\Local\Temp\ccH82gYi.s:2484   .text._ZN7Hd4478011clearScreenEv:00000022 .Loc.655
C:\Users\kenne\AppData\Local\Temp\ccH82gYi.s:2485   .text._ZN7Hd4478011clearScreenEv:00000022 .Loc.656
C:\Users\kenne\AppData\Local\Temp\ccH82gYi.s:2488   .text._ZN7Hd4478011clearScreenEv:00000026 .Loc.657
C:\Users\kenne\AppData\Local\Temp\ccH82gYi.s:2489   .text._ZN7Hd4478011clearScreenEv:00000026 .Loc.658
C:\Users\kenne\AppData\Local\Temp\ccH82gYi.s:2492   .text._ZN7Hd4478011clearScreenEv:0000002a .Loc.659
C:\Users\kenne\AppData\Local\Temp\ccH82gYi.s:2493   .text._ZN7Hd4478011clearScreenEv:0000002a .Loc.660
C:\Users\kenne\AppData\Local\Temp\ccH82gYi.s:2494   .text._ZN7Hd4478011clearScreenEv:0000002a .Loc.661
C:\Users\kenne\AppData\Local\Temp\ccH82gYi.s:2497   .text._ZN7Hd4478011clearScreenEv:0000002a .Loc.662
C:\Users\kenne\AppData\Local\Temp\ccH82gYi.s:2501   .text._ZN7Hd4478011clearScreenEv:00000030 L0
C:\Users\kenne\AppData\Local\Temp\ccH82gYi.s:2507   .text._ZN7Hd4478010cursorGoToEhh:00000000 _ZN7Hd4478010cursorGoToEhh
C:\Users\kenne\AppData\Local\Temp\ccH82gYi.s:2510   .text._ZN7Hd4478010cursorGoToEhh:00000000 .Loc.663
C:\Users\kenne\AppData\Local\Temp\ccH82gYi.s:2511   .text._ZN7Hd4478010cursorGoToEhh:00000000 L0
C:\Users\kenne\AppData\Local\Temp\ccH82gYi.s:2512   .text._ZN7Hd4478010cursorGoToEhh:00000000 .Loc.664
C:\Users\kenne\AppData\Local\Temp\ccH82gYi.s:2525   .text._ZN7Hd4478010cursorGoToEhh:00000008 .Loc.665
C:\Users\kenne\AppData\Local\Temp\ccH82gYi.s:2526   .text._ZN7Hd4478010cursorGoToEhh:00000008 .Loc.666
C:\Users\kenne\AppData\Local\Temp\ccH82gYi.s:2527   .text._ZN7Hd4478010cursorGoToEhh:00000008 .Loc.667
C:\Users\kenne\AppData\Local\Temp\ccH82gYi.s:2529   .text._ZN7Hd4478010cursorGoToEhh:00000008 .Loc.668
C:\Users\kenne\AppData\Local\Temp\ccH82gYi.s:2534   .text._ZN7Hd4478010cursorGoToEhh:00000012 L0
C:\Users\kenne\AppData\Local\Temp\ccH82gYi.s:2537   .text._ZN7Hd4478010cursorGoToEhh:00000018 L0
C:\Users\kenne\AppData\Local\Temp\ccH82gYi.s:2539   .text._ZN7Hd4478010cursorGoToEhh:0000001a .Loc.669
C:\Users\kenne\AppData\Local\Temp\ccH82gYi.s:2540   .text._ZN7Hd4478010cursorGoToEhh:0000001a .Loc.670
C:\Users\kenne\AppData\Local\Temp\ccH82gYi.s:2541   .text._ZN7Hd4478010cursorGoToEhh:0000001a .Loc.671
GAS LISTING C:\Users\kenne\AppData\Local\Temp\ccH82gYi.s 			page 133


C:\Users\kenne\AppData\Local\Temp\ccH82gYi.s:2544   .text._ZN7Hd4478010cursorGoToEhh:0000001c .Loc.672
C:\Users\kenne\AppData\Local\Temp\ccH82gYi.s:2546   .text._ZN7Hd4478010cursorGoToEhh:0000001e .Loc.673
C:\Users\kenne\AppData\Local\Temp\ccH82gYi.s:2548   .text._ZN7Hd4478010cursorGoToEhh:00000022 L0
C:\Users\kenne\AppData\Local\Temp\ccH82gYi.s:2550   .text._ZN7Hd4478010cursorGoToEhh:00000024 .Loc.674
C:\Users\kenne\AppData\Local\Temp\ccH82gYi.s:2554   .text._ZN7Hd4478010cursorGoToEhh:00000028 .Loc.675
C:\Users\kenne\AppData\Local\Temp\ccH82gYi.s:2558   .text._ZN7Hd4478010cursorGoToEhh:0000002a .Loc.676
C:\Users\kenne\AppData\Local\Temp\ccH82gYi.s:2560   .text._ZN7Hd4478010cursorGoToEhh:0000002e L0
C:\Users\kenne\AppData\Local\Temp\ccH82gYi.s:2562   .text._ZN7Hd4478010cursorGoToEhh:00000030 .Loc.677
C:\Users\kenne\AppData\Local\Temp\ccH82gYi.s:2563   .text._ZN7Hd4478010cursorGoToEhh:00000030 .Loc.678
C:\Users\kenne\AppData\Local\Temp\ccH82gYi.s:2564   .text._ZN7Hd4478010cursorGoToEhh:00000030 .Loc.679
C:\Users\kenne\AppData\Local\Temp\ccH82gYi.s:2567   .text._ZN7Hd4478010cursorGoToEhh:00000032 .Loc.680
C:\Users\kenne\AppData\Local\Temp\ccH82gYi.s:2569   .text._ZN7Hd4478010cursorGoToEhh:00000034 .Loc.681
C:\Users\kenne\AppData\Local\Temp\ccH82gYi.s:2571   .text._ZN7Hd4478010cursorGoToEhh:00000038 L0
C:\Users\kenne\AppData\Local\Temp\ccH82gYi.s:2574   .text._ZN7Hd4478010cursorGoToEhh:0000003a .Loc.682
C:\Users\kenne\AppData\Local\Temp\ccH82gYi.s:2576   .text._ZN7Hd4478010cursorGoToEhh:0000003e L0
C:\Users\kenne\AppData\Local\Temp\ccH82gYi.s:2579   .text._ZN7Hd4478010cursorGoToEhh:00000040 .Loc.683
C:\Users\kenne\AppData\Local\Temp\ccH82gYi.s:2581   .text._ZN7Hd4478010cursorGoToEhh:00000044 L0
C:\Users\kenne\AppData\Local\Temp\ccH82gYi.s:2583   .text._ZN7Hd4478010cursorGoToEhh:00000046 .Loc.684
C:\Users\kenne\AppData\Local\Temp\ccH82gYi.s:2594   .text._ZN7Hd4478010cursorGoToEhh:0000005a .Loc.685
C:\Users\kenne\AppData\Local\Temp\ccH82gYi.s:2596   .text._ZN7Hd4478010cursorGoToEhh:0000005e L0
C:\Users\kenne\AppData\Local\Temp\ccH82gYi.s:2598   .text._ZN7Hd4478010cursorGoToEhh:00000060 .Loc.686
C:\Users\kenne\AppData\Local\Temp\ccH82gYi.s:2599   .text._ZN7Hd4478010cursorGoToEhh:00000060 .Loc.687
C:\Users\kenne\AppData\Local\Temp\ccH82gYi.s:2603   .text._ZN7Hd4478010cursorGoToEhh:00000064 .Loc.688
C:\Users\kenne\AppData\Local\Temp\ccH82gYi.s:2607   .text._ZN7Hd4478010cursorGoToEhh:00000066 .Loc.689
C:\Users\kenne\AppData\Local\Temp\ccH82gYi.s:2608   .text._ZN7Hd4478010cursorGoToEhh:00000066 .Loc.690
C:\Users\kenne\AppData\Local\Temp\ccH82gYi.s:2609   .text._ZN7Hd4478010cursorGoToEhh:00000066 .Loc.691
C:\Users\kenne\AppData\Local\Temp\ccH82gYi.s:2612   .text._ZN7Hd4478010cursorGoToEhh:00000068 .Loc.692
C:\Users\kenne\AppData\Local\Temp\ccH82gYi.s:2614   .text._ZN7Hd4478010cursorGoToEhh:0000006a .Loc.693
C:\Users\kenne\AppData\Local\Temp\ccH82gYi.s:2618   .text._ZN7Hd4478010cursorGoToEhh:0000006e .Loc.694
C:\Users\kenne\AppData\Local\Temp\ccH82gYi.s:2622   .text._ZN7Hd4478010cursorGoToEhh:00000072 .Loc.695
C:\Users\kenne\AppData\Local\Temp\ccH82gYi.s:2624   .text._ZN7Hd4478010cursorGoToEhh:00000076 L0
C:\Users\kenne\AppData\Local\Temp\ccH82gYi.s:2626   .text._ZN7Hd4478010cursorGoToEhh:00000078 .Loc.696
C:\Users\kenne\AppData\Local\Temp\ccH82gYi.s:2637   .text._ZN7Hd4478010cursorGoToEhh:0000008c .Loc.697
C:\Users\kenne\AppData\Local\Temp\ccH82gYi.s:2639   .text._ZN7Hd4478010cursorGoToEhh:00000090 L0
C:\Users\kenne\AppData\Local\Temp\ccH82gYi.s:2641   .text._ZN7Hd4478010cursorGoToEhh:00000092 .Loc.698
C:\Users\kenne\AppData\Local\Temp\ccH82gYi.s:2642   .text._ZN7Hd4478010cursorGoToEhh:00000092 .Loc.699
C:\Users\kenne\AppData\Local\Temp\ccH82gYi.s:2646   .text._ZN7Hd4478010cursorGoToEhh:00000096 .Loc.700
C:\Users\kenne\AppData\Local\Temp\ccH82gYi.s:2650   .text._ZN7Hd4478010cursorGoToEhh:00000098 .Loc.701
C:\Users\kenne\AppData\Local\Temp\ccH82gYi.s:2661   .text._ZN7Hd4478010cursorGoToEhh:000000ac .Loc.702
C:\Users\kenne\AppData\Local\Temp\ccH82gYi.s:2664   .text._ZN7Hd4478010cursorGoToEhh:000000b0 .Loc.703
C:\Users\kenne\AppData\Local\Temp\ccH82gYi.s:2665   .text._ZN7Hd4478010cursorGoToEhh:000000b0 .Loc.704
C:\Users\kenne\AppData\Local\Temp\ccH82gYi.s:2669   .text._ZN7Hd4478010cursorGoToEhh:000000b4 .Loc.705
C:\Users\kenne\AppData\Local\Temp\ccH82gYi.s:2673   .text._ZN7Hd4478010cursorGoToEhh:000000b6 .Loc.706
C:\Users\kenne\AppData\Local\Temp\ccH82gYi.s:2684   .text._ZN7Hd4478010cursorGoToEhh:000000ca .Loc.707
C:\Users\kenne\AppData\Local\Temp\ccH82gYi.s:2687   .text._ZN7Hd4478010cursorGoToEhh:000000ce .Loc.708
C:\Users\kenne\AppData\Local\Temp\ccH82gYi.s:2688   .text._ZN7Hd4478010cursorGoToEhh:000000ce .Loc.709
C:\Users\kenne\AppData\Local\Temp\ccH82gYi.s:2692   .text._ZN7Hd4478010cursorGoToEhh:000000d2 .Loc.710
C:\Users\kenne\AppData\Local\Temp\ccH82gYi.s:2696   .text._ZN7Hd4478010cursorGoToEhh:000000d4 .Loc.711
C:\Users\kenne\AppData\Local\Temp\ccH82gYi.s:2707   .text._ZN7Hd4478010cursorGoToEhh:000000e8 .Loc.712
C:\Users\kenne\AppData\Local\Temp\ccH82gYi.s:2709   .text._ZN7Hd4478010cursorGoToEhh:000000ec L0
C:\Users\kenne\AppData\Local\Temp\ccH82gYi.s:2711   .text._ZN7Hd4478010cursorGoToEhh:000000ee .Loc.713
C:\Users\kenne\AppData\Local\Temp\ccH82gYi.s:2712   .text._ZN7Hd4478010cursorGoToEhh:000000ee .Loc.714
C:\Users\kenne\AppData\Local\Temp\ccH82gYi.s:2716   .text._ZN7Hd4478010cursorGoToEhh:000000f2 .Loc.715
C:\Users\kenne\AppData\Local\Temp\ccH82gYi.s:2720   .text._ZN7Hd4478010cursorGoToEhh:000000f4 .Loc.716
C:\Users\kenne\AppData\Local\Temp\ccH82gYi.s:2731   .text._ZN7Hd4478010cursorGoToEhh:00000108 .Loc.717
C:\Users\kenne\AppData\Local\Temp\ccH82gYi.s:2733   .text._ZN7Hd4478010cursorGoToEhh:0000010c L0
C:\Users\kenne\AppData\Local\Temp\ccH82gYi.s:2735   .text._ZN7Hd4478010cursorGoToEhh:0000010e .Loc.718
GAS LISTING C:\Users\kenne\AppData\Local\Temp\ccH82gYi.s 			page 134


C:\Users\kenne\AppData\Local\Temp\ccH82gYi.s:2736   .text._ZN7Hd4478010cursorGoToEhh:0000010e .Loc.719
C:\Users\kenne\AppData\Local\Temp\ccH82gYi.s:2740   .text._ZN7Hd4478010cursorGoToEhh:00000112 .Loc.720
C:\Users\kenne\AppData\Local\Temp\ccH82gYi.s:2744   .text._ZN7Hd4478010cursorGoToEhh:00000114 .Loc.721
C:\Users\kenne\AppData\Local\Temp\ccH82gYi.s:2748   .text._ZN7Hd4478010cursorGoToEhh:00000116 .Loc.722
C:\Users\kenne\AppData\Local\Temp\ccH82gYi.s:2753   .text._ZN7Hd4478010cursorGoToEhh:0000011a .Loc.723
C:\Users\kenne\AppData\Local\Temp\ccH82gYi.s:2754   .text._ZN7Hd4478010cursorGoToEhh:0000011a .Loc.724
C:\Users\kenne\AppData\Local\Temp\ccH82gYi.s:2757   .text._ZN7Hd4478010cursorGoToEhh:0000011e .Loc.725
C:\Users\kenne\AppData\Local\Temp\ccH82gYi.s:2758   .text._ZN7Hd4478010cursorGoToEhh:0000011e .Loc.726
C:\Users\kenne\AppData\Local\Temp\ccH82gYi.s:2759   .text._ZN7Hd4478010cursorGoToEhh:0000011e .Loc.727
C:\Users\kenne\AppData\Local\Temp\ccH82gYi.s:2760   .text._ZN7Hd4478010cursorGoToEhh:0000011e .Loc.728
C:\Users\kenne\AppData\Local\Temp\ccH82gYi.s:2768   .text._ZN7Hd4478010cursorGoToEhh:00000126 .Loc.729
C:\Users\kenne\AppData\Local\Temp\ccH82gYi.s:2769   .text._ZN7Hd4478010cursorGoToEhh:00000126 .Loc.730
C:\Users\kenne\AppData\Local\Temp\ccH82gYi.s:2785   .text._ZN7Hd4478010cursorGoToEhh:00000144 .Loc.731
C:\Users\kenne\AppData\Local\Temp\ccH82gYi.s:2786   .text._ZN7Hd4478010cursorGoToEhh:00000144 .Loc.732
C:\Users\kenne\AppData\Local\Temp\ccH82gYi.s:2789   .text._ZN7Hd4478010cursorGoToEhh:00000146 .Loc.733
C:\Users\kenne\AppData\Local\Temp\ccH82gYi.s:2794   .text._ZN7Hd4478010cursorGoToEhh:0000014e .Loc.734
C:\Users\kenne\AppData\Local\Temp\ccH82gYi.s:2795   .text._ZN7Hd4478010cursorGoToEhh:0000014e .Loc.735
C:\Users\kenne\AppData\Local\Temp\ccH82gYi.s:2798   .text._ZN7Hd4478010cursorGoToEhh:00000150 .Loc.736
C:\Users\kenne\AppData\Local\Temp\ccH82gYi.s:2803   .text._ZN7Hd4478010cursorGoToEhh:00000158 .Loc.737
C:\Users\kenne\AppData\Local\Temp\ccH82gYi.s:2805   .text._ZN7Hd4478010cursorGoToEhh:0000015a L0
C:\Users\kenne\AppData\Local\Temp\ccH82gYi.s:2811   .text._ZN7Hd4478018cursorMoveNextLineEv:00000000 _ZN7Hd4478018cursorMoveNextLineEv
C:\Users\kenne\AppData\Local\Temp\ccH82gYi.s:2814   .text._ZN7Hd4478018cursorMoveNextLineEv:00000000 .Loc.738
C:\Users\kenne\AppData\Local\Temp\ccH82gYi.s:2815   .text._ZN7Hd4478018cursorMoveNextLineEv:00000000 L0
C:\Users\kenne\AppData\Local\Temp\ccH82gYi.s:2816   .text._ZN7Hd4478018cursorMoveNextLineEv:00000000 .Loc.739
C:\Users\kenne\AppData\Local\Temp\ccH82gYi.s:2829   .text._ZN7Hd4478018cursorMoveNextLineEv:00000008 .Loc.740
C:\Users\kenne\AppData\Local\Temp\ccH82gYi.s:2830   .text._ZN7Hd4478018cursorMoveNextLineEv:00000008 .Loc.741
C:\Users\kenne\AppData\Local\Temp\ccH82gYi.s:2831   .text._ZN7Hd4478018cursorMoveNextLineEv:00000008 .Loc.742
C:\Users\kenne\AppData\Local\Temp\ccH82gYi.s:2832   .text._ZN7Hd4478018cursorMoveNextLineEv:00000008 .Loc.743
C:\Users\kenne\AppData\Local\Temp\ccH82gYi.s:2839   .text._ZN7Hd4478018cursorMoveNextLineEv:00000012 .Loc.744
C:\Users\kenne\AppData\Local\Temp\ccH82gYi.s:2843   .text._ZN7Hd4478018cursorMoveNextLineEv:00000018 .Loc.745
C:\Users\kenne\AppData\Local\Temp\ccH82gYi.s:2846   .text._ZN7Hd4478018cursorMoveNextLineEv:0000001a .Loc.746
C:\Users\kenne\AppData\Local\Temp\ccH82gYi.s:2847   .text._ZN7Hd4478018cursorMoveNextLineEv:0000001a .Loc.747
C:\Users\kenne\AppData\Local\Temp\ccH82gYi.s:2854   .text._ZN7Hd4478018cursorMoveNextLineEv:00000026 .Loc.748
C:\Users\kenne\AppData\Local\Temp\ccH82gYi.s:2857   .text._ZN7Hd4478018cursorMoveNextLineEv:0000002a .Loc.749
C:\Users\kenne\AppData\Local\Temp\ccH82gYi.s:2861   .text._ZN7Hd4478018cursorMoveNextLineEv:00000030 .Loc.750
C:\Users\kenne\AppData\Local\Temp\ccH82gYi.s:2862   .text._ZN7Hd4478018cursorMoveNextLineEv:00000030 .Loc.751
C:\Users\kenne\AppData\Local\Temp\ccH82gYi.s:2867   .text._ZN7Hd4478018cursorMoveNextLineEv:00000036 .Loc.752
C:\Users\kenne\AppData\Local\Temp\ccH82gYi.s:2870   .text._ZN7Hd4478018cursorMoveNextLineEv:0000003a .Loc.753
C:\Users\kenne\AppData\Local\Temp\ccH82gYi.s:2873   .text._ZN7Hd4478018cursorMoveNextLineEv:0000003e .Loc.754
C:\Users\kenne\AppData\Local\Temp\ccH82gYi.s:2874   .text._ZN7Hd4478018cursorMoveNextLineEv:0000003e .Loc.755
C:\Users\kenne\AppData\Local\Temp\ccH82gYi.s:2877   .text._ZN7Hd4478018cursorMoveNextLineEv:00000042 .Loc.756
C:\Users\kenne\AppData\Local\Temp\ccH82gYi.s:2878   .text._ZN7Hd4478018cursorMoveNextLineEv:00000042 .Loc.757
C:\Users\kenne\AppData\Local\Temp\ccH82gYi.s:2879   .text._ZN7Hd4478018cursorMoveNextLineEv:00000042 .Loc.758
C:\Users\kenne\AppData\Local\Temp\ccH82gYi.s:2882   .text._ZN7Hd4478018cursorMoveNextLineEv:00000042 .Loc.759
C:\Users\kenne\AppData\Local\Temp\ccH82gYi.s:2886   .text._ZN7Hd4478018cursorMoveNextLineEv:00000048 L0
C:\Users\kenne\AppData\Local\Temp\ccH82gYi.s:2892   .text._ZN7Hd4478010cursorHomeEv:00000000 _ZN7Hd4478010cursorHomeEv
C:\Users\kenne\AppData\Local\Temp\ccH82gYi.s:2895   .text._ZN7Hd4478010cursorHomeEv:00000000 .Loc.760
C:\Users\kenne\AppData\Local\Temp\ccH82gYi.s:2896   .text._ZN7Hd4478010cursorHomeEv:00000000 L0
C:\Users\kenne\AppData\Local\Temp\ccH82gYi.s:2897   .text._ZN7Hd4478010cursorHomeEv:00000000 .Loc.761
C:\Users\kenne\AppData\Local\Temp\ccH82gYi.s:2910   .text._ZN7Hd4478010cursorHomeEv:00000008 .Loc.762
C:\Users\kenne\AppData\Local\Temp\ccH82gYi.s:2911   .text._ZN7Hd4478010cursorHomeEv:00000008 .Loc.763
C:\Users\kenne\AppData\Local\Temp\ccH82gYi.s:2912   .text._ZN7Hd4478010cursorHomeEv:00000008 .Loc.764
C:\Users\kenne\AppData\Local\Temp\ccH82gYi.s:2913   .text._ZN7Hd4478010cursorHomeEv:00000008 .Loc.765
C:\Users\kenne\AppData\Local\Temp\ccH82gYi.s:2917   .text._ZN7Hd4478010cursorHomeEv:0000000c .Loc.766
C:\Users\kenne\AppData\Local\Temp\ccH82gYi.s:2920   .text._ZN7Hd4478010cursorHomeEv:00000010 .Loc.767
C:\Users\kenne\AppData\Local\Temp\ccH82gYi.s:2923   .text._ZN7Hd4478010cursorHomeEv:00000014 .Loc.768
C:\Users\kenne\AppData\Local\Temp\ccH82gYi.s:2924   .text._ZN7Hd4478010cursorHomeEv:00000014 .Loc.769
GAS LISTING C:\Users\kenne\AppData\Local\Temp\ccH82gYi.s 			page 135


C:\Users\kenne\AppData\Local\Temp\ccH82gYi.s:2932   .text._ZN7Hd4478010cursorHomeEv:00000022 .Loc.770
C:\Users\kenne\AppData\Local\Temp\ccH82gYi.s:2933   .text._ZN7Hd4478010cursorHomeEv:00000022 .Loc.771
C:\Users\kenne\AppData\Local\Temp\ccH82gYi.s:2936   .text._ZN7Hd4478010cursorHomeEv:00000026 .Loc.772
C:\Users\kenne\AppData\Local\Temp\ccH82gYi.s:2937   .text._ZN7Hd4478010cursorHomeEv:00000026 .Loc.773
C:\Users\kenne\AppData\Local\Temp\ccH82gYi.s:2940   .text._ZN7Hd4478010cursorHomeEv:0000002a .Loc.774
C:\Users\kenne\AppData\Local\Temp\ccH82gYi.s:2941   .text._ZN7Hd4478010cursorHomeEv:0000002a .Loc.775
C:\Users\kenne\AppData\Local\Temp\ccH82gYi.s:2942   .text._ZN7Hd4478010cursorHomeEv:0000002a .Loc.776
C:\Users\kenne\AppData\Local\Temp\ccH82gYi.s:2945   .text._ZN7Hd4478010cursorHomeEv:0000002a .Loc.777
C:\Users\kenne\AppData\Local\Temp\ccH82gYi.s:2949   .text._ZN7Hd4478010cursorHomeEv:00000030 L0
C:\Users\kenne\AppData\Local\Temp\ccH82gYi.s:2955   .text._ZN7Hd4478010cursorMoveE9Direction:00000000 _ZN7Hd4478010cursorMoveE9Direction
C:\Users\kenne\AppData\Local\Temp\ccH82gYi.s:2958   .text._ZN7Hd4478010cursorMoveE9Direction:00000000 .Loc.778
C:\Users\kenne\AppData\Local\Temp\ccH82gYi.s:2959   .text._ZN7Hd4478010cursorMoveE9Direction:00000000 L0
C:\Users\kenne\AppData\Local\Temp\ccH82gYi.s:2960   .text._ZN7Hd4478010cursorMoveE9Direction:00000000 .Loc.779
C:\Users\kenne\AppData\Local\Temp\ccH82gYi.s:2975   .text._ZN7Hd4478010cursorMoveE9Direction:0000000a .Loc.780
C:\Users\kenne\AppData\Local\Temp\ccH82gYi.s:2976   .text._ZN7Hd4478010cursorMoveE9Direction:0000000a .Loc.781
C:\Users\kenne\AppData\Local\Temp\ccH82gYi.s:2977   .text._ZN7Hd4478010cursorMoveE9Direction:0000000a .Loc.782
C:\Users\kenne\AppData\Local\Temp\ccH82gYi.s:2978   .text._ZN7Hd4478010cursorMoveE9Direction:0000000a .Loc.783
C:\Users\kenne\AppData\Local\Temp\ccH82gYi.s:2979   .text._ZN7Hd4478010cursorMoveE9Direction:0000000a .Loc.784
C:\Users\kenne\AppData\Local\Temp\ccH82gYi.s:2985   .text._ZN7Hd4478010cursorMoveE9Direction:00000010 .Loc.785
C:\Users\kenne\AppData\Local\Temp\ccH82gYi.s:2988   .text._ZN7Hd4478010cursorMoveE9Direction:00000012 .Loc.786
C:\Users\kenne\AppData\Local\Temp\ccH82gYi.s:2991   .text._ZN7Hd4478010cursorMoveE9Direction:00000016 .Loc.787
C:\Users\kenne\AppData\Local\Temp\ccH82gYi.s:2992   .text._ZN7Hd4478010cursorMoveE9Direction:00000016 .Loc.788
C:\Users\kenne\AppData\Local\Temp\ccH82gYi.s:2996   .text._ZN7Hd4478010cursorMoveE9Direction:0000001a .Loc.789
C:\Users\kenne\AppData\Local\Temp\ccH82gYi.s:2999   .text._ZN7Hd4478010cursorMoveE9Direction:0000001e .Loc.790
C:\Users\kenne\AppData\Local\Temp\ccH82gYi.s:3007   .text._ZN7Hd4478010cursorMoveE9Direction:0000002a .Loc.791
C:\Users\kenne\AppData\Local\Temp\ccH82gYi.s:3008   .text._ZN7Hd4478010cursorMoveE9Direction:0000002a .Loc.792
C:\Users\kenne\AppData\Local\Temp\ccH82gYi.s:3012   .text._ZN7Hd4478010cursorMoveE9Direction:00000030 .Loc.793
C:\Users\kenne\AppData\Local\Temp\ccH82gYi.s:3013   .text._ZN7Hd4478010cursorMoveE9Direction:00000030 .Loc.794
C:\Users\kenne\AppData\Local\Temp\ccH82gYi.s:3016   .text._ZN7Hd4478010cursorMoveE9Direction:00000034 .Loc.795
C:\Users\kenne\AppData\Local\Temp\ccH82gYi.s:3017   .text._ZN7Hd4478010cursorMoveE9Direction:00000034 .Loc.796
C:\Users\kenne\AppData\Local\Temp\ccH82gYi.s:3018   .text._ZN7Hd4478010cursorMoveE9Direction:00000034 .Loc.797
C:\Users\kenne\AppData\Local\Temp\ccH82gYi.s:3019   .text._ZN7Hd4478010cursorMoveE9Direction:00000034 .Loc.798
C:\Users\kenne\AppData\Local\Temp\ccH82gYi.s:3027   .text._ZN7Hd4478010cursorMoveE9Direction:0000003c .Loc.799
C:\Users\kenne\AppData\Local\Temp\ccH82gYi.s:3030   .text._ZN7Hd4478010cursorMoveE9Direction:0000003e .Loc.800
C:\Users\kenne\AppData\Local\Temp\ccH82gYi.s:3034   .text._ZN7Hd4478010cursorMoveE9Direction:00000040 .Loc.801
C:\Users\kenne\AppData\Local\Temp\ccH82gYi.s:3035   .text._ZN7Hd4478010cursorMoveE9Direction:00000040 .Loc.802
C:\Users\kenne\AppData\Local\Temp\ccH82gYi.s:3039   .text._ZN7Hd4478010cursorMoveE9Direction:00000044 .Loc.803
C:\Users\kenne\AppData\Local\Temp\ccH82gYi.s:3042   .text._ZN7Hd4478010cursorMoveE9Direction:00000048 .Loc.804
C:\Users\kenne\AppData\Local\Temp\ccH82gYi.s:3050   .text._ZN7Hd4478010cursorMoveE9Direction:00000056 L0
C:\Users\kenne\AppData\Local\Temp\ccH82gYi.s:3056   .text._ZN7Hd4478019cursorMoveFirstLineEv:00000000 _ZN7Hd4478019cursorMoveFirstLineEv
C:\Users\kenne\AppData\Local\Temp\ccH82gYi.s:3059   .text._ZN7Hd4478019cursorMoveFirstLineEv:00000000 .Loc.805
C:\Users\kenne\AppData\Local\Temp\ccH82gYi.s:3060   .text._ZN7Hd4478019cursorMoveFirstLineEv:00000000 L0
C:\Users\kenne\AppData\Local\Temp\ccH82gYi.s:3061   .text._ZN7Hd4478019cursorMoveFirstLineEv:00000000 .Loc.806
C:\Users\kenne\AppData\Local\Temp\ccH82gYi.s:3074   .text._ZN7Hd4478019cursorMoveFirstLineEv:00000008 .Loc.807
C:\Users\kenne\AppData\Local\Temp\ccH82gYi.s:3075   .text._ZN7Hd4478019cursorMoveFirstLineEv:00000008 .Loc.808
C:\Users\kenne\AppData\Local\Temp\ccH82gYi.s:3076   .text._ZN7Hd4478019cursorMoveFirstLineEv:00000008 .Loc.809
C:\Users\kenne\AppData\Local\Temp\ccH82gYi.s:3077   .text._ZN7Hd4478019cursorMoveFirstLineEv:00000008 .Loc.810
C:\Users\kenne\AppData\Local\Temp\ccH82gYi.s:3081   .text._ZN7Hd4478019cursorMoveFirstLineEv:0000000c .Loc.811
C:\Users\kenne\AppData\Local\Temp\ccH82gYi.s:3084   .text._ZN7Hd4478019cursorMoveFirstLineEv:00000010 .Loc.812
C:\Users\kenne\AppData\Local\Temp\ccH82gYi.s:3087   .text._ZN7Hd4478019cursorMoveFirstLineEv:00000014 .Loc.813
C:\Users\kenne\AppData\Local\Temp\ccH82gYi.s:3088   .text._ZN7Hd4478019cursorMoveFirstLineEv:00000014 .Loc.814
C:\Users\kenne\AppData\Local\Temp\ccH82gYi.s:3096   .text._ZN7Hd4478019cursorMoveFirstLineEv:00000022 .Loc.815
C:\Users\kenne\AppData\Local\Temp\ccH82gYi.s:3097   .text._ZN7Hd4478019cursorMoveFirstLineEv:00000022 .Loc.816
C:\Users\kenne\AppData\Local\Temp\ccH82gYi.s:3100   .text._ZN7Hd4478019cursorMoveFirstLineEv:00000026 .Loc.817
C:\Users\kenne\AppData\Local\Temp\ccH82gYi.s:3101   .text._ZN7Hd4478019cursorMoveFirstLineEv:00000026 .Loc.818
C:\Users\kenne\AppData\Local\Temp\ccH82gYi.s:3104   .text._ZN7Hd4478019cursorMoveFirstLineEv:0000002a .Loc.819
C:\Users\kenne\AppData\Local\Temp\ccH82gYi.s:3105   .text._ZN7Hd4478019cursorMoveFirstLineEv:0000002a .Loc.820
GAS LISTING C:\Users\kenne\AppData\Local\Temp\ccH82gYi.s 			page 136


C:\Users\kenne\AppData\Local\Temp\ccH82gYi.s:3106   .text._ZN7Hd4478019cursorMoveFirstLineEv:0000002a .Loc.821
C:\Users\kenne\AppData\Local\Temp\ccH82gYi.s:3109   .text._ZN7Hd4478019cursorMoveFirstLineEv:0000002a .Loc.822
C:\Users\kenne\AppData\Local\Temp\ccH82gYi.s:3113   .text._ZN7Hd4478019cursorMoveFirstLineEv:00000030 L0
C:\Users\kenne\AppData\Local\Temp\ccH82gYi.s:3119   .text._ZN7Hd4478015displayStateSetENS_12DisplayStateE:00000000 _ZN7Hd4478015displayStateSetENS_12DisplayStateE
C:\Users\kenne\AppData\Local\Temp\ccH82gYi.s:3122   .text._ZN7Hd4478015displayStateSetENS_12DisplayStateE:00000000 .Loc.823
C:\Users\kenne\AppData\Local\Temp\ccH82gYi.s:3123   .text._ZN7Hd4478015displayStateSetENS_12DisplayStateE:00000000 L0
C:\Users\kenne\AppData\Local\Temp\ccH82gYi.s:3124   .text._ZN7Hd4478015displayStateSetENS_12DisplayStateE:00000000 .Loc.824
C:\Users\kenne\AppData\Local\Temp\ccH82gYi.s:3148   .text._ZN7Hd4478015displayStateSetENS_12DisplayStateE:00000010 .Loc.825
C:\Users\kenne\AppData\Local\Temp\ccH82gYi.s:3150   .text._ZN7Hd4478015displayStateSetENS_12DisplayStateE:00000012 .Loc.826
C:\Users\kenne\AppData\Local\Temp\ccH82gYi.s:3151   .text._ZN7Hd4478015displayStateSetENS_12DisplayStateE:00000012 .Loc.827
C:\Users\kenne\AppData\Local\Temp\ccH82gYi.s:3152   .text._ZN7Hd4478015displayStateSetENS_12DisplayStateE:00000012 .Loc.828
C:\Users\kenne\AppData\Local\Temp\ccH82gYi.s:3154   .text._ZN7Hd4478015displayStateSetENS_12DisplayStateE:00000012 .Loc.829
C:\Users\kenne\AppData\Local\Temp\ccH82gYi.s:3155   .text._ZN7Hd4478015displayStateSetENS_12DisplayStateE:00000012 .Loc.830
C:\Users\kenne\AppData\Local\Temp\ccH82gYi.s:3156   .text._ZN7Hd4478015displayStateSetENS_12DisplayStateE:00000012 .Loc.831
C:\Users\kenne\AppData\Local\Temp\ccH82gYi.s:3157   .text._ZN7Hd4478015displayStateSetENS_12DisplayStateE:00000012 .Loc.832
C:\Users\kenne\AppData\Local\Temp\ccH82gYi.s:3171   .text._ZN7Hd4478015displayStateSetENS_12DisplayStateE:00000028 .Loc.833
C:\Users\kenne\AppData\Local\Temp\ccH82gYi.s:3172   .text._ZN7Hd4478015displayStateSetENS_12DisplayStateE:00000028 .Loc.834
C:\Users\kenne\AppData\Local\Temp\ccH82gYi.s:3173   .text._ZN7Hd4478015displayStateSetENS_12DisplayStateE:00000028 .Loc.835
C:\Users\kenne\AppData\Local\Temp\ccH82gYi.s:3179   .text._ZN7Hd4478015displayStateSetENS_12DisplayStateE:0000002e .Loc.836
C:\Users\kenne\AppData\Local\Temp\ccH82gYi.s:3182   .text._ZN7Hd4478015displayStateSetENS_12DisplayStateE:00000030 .Loc.837
C:\Users\kenne\AppData\Local\Temp\ccH82gYi.s:3183   .text._ZN7Hd4478015displayStateSetENS_12DisplayStateE:00000030 .Loc.838
C:\Users\kenne\AppData\Local\Temp\ccH82gYi.s:3186   .text._ZN7Hd4478015displayStateSetENS_12DisplayStateE:00000034 .Loc.839
C:\Users\kenne\AppData\Local\Temp\ccH82gYi.s:3189   .text._ZN7Hd4478015displayStateSetENS_12DisplayStateE:00000036 .Loc.840
C:\Users\kenne\AppData\Local\Temp\ccH82gYi.s:3192   .text._ZN7Hd4478015displayStateSetENS_12DisplayStateE:00000038 .Loc.841
C:\Users\kenne\AppData\Local\Temp\ccH82gYi.s:3193   .text._ZN7Hd4478015displayStateSetENS_12DisplayStateE:00000038 .Loc.842
C:\Users\kenne\AppData\Local\Temp\ccH82gYi.s:3196   .text._ZN7Hd4478015displayStateSetENS_12DisplayStateE:0000003c .Loc.843
C:\Users\kenne\AppData\Local\Temp\ccH82gYi.s:3199   .text._ZN7Hd4478015displayStateSetENS_12DisplayStateE:0000003e .Loc.844
C:\Users\kenne\AppData\Local\Temp\ccH82gYi.s:3202   .text._ZN7Hd4478015displayStateSetENS_12DisplayStateE:00000040 .Loc.845
C:\Users\kenne\AppData\Local\Temp\ccH82gYi.s:3203   .text._ZN7Hd4478015displayStateSetENS_12DisplayStateE:00000040 .Loc.846
C:\Users\kenne\AppData\Local\Temp\ccH82gYi.s:3207   .text._ZN7Hd4478015displayStateSetENS_12DisplayStateE:00000046 .Loc.847
C:\Users\kenne\AppData\Local\Temp\ccH82gYi.s:3208   .text._ZN7Hd4478015displayStateSetENS_12DisplayStateE:00000046 .Loc.848
C:\Users\kenne\AppData\Local\Temp\ccH82gYi.s:3213   .text._ZN7Hd4478015displayStateSetENS_12DisplayStateE:0000004c .Loc.849
C:\Users\kenne\AppData\Local\Temp\ccH82gYi.s:3215   .text._ZN7Hd4478015displayStateSetENS_12DisplayStateE:0000004e .Loc.850
C:\Users\kenne\AppData\Local\Temp\ccH82gYi.s:3216   .text._ZN7Hd4478015displayStateSetENS_12DisplayStateE:0000004e .Loc.851
C:\Users\kenne\AppData\Local\Temp\ccH82gYi.s:3221   .text._ZN7Hd4478015displayStateSetENS_12DisplayStateE:00000054 .Loc.852
C:\Users\kenne\AppData\Local\Temp\ccH82gYi.s:3223   .text._ZN7Hd4478015displayStateSetENS_12DisplayStateE:00000056 .Loc.853
C:\Users\kenne\AppData\Local\Temp\ccH82gYi.s:3224   .text._ZN7Hd4478015displayStateSetENS_12DisplayStateE:00000056 .Loc.854
C:\Users\kenne\AppData\Local\Temp\ccH82gYi.s:3228   .text._ZN7Hd4478015displayStateSetENS_12DisplayStateE:0000005a .Loc.855
C:\Users\kenne\AppData\Local\Temp\ccH82gYi.s:3230   .text._ZN7Hd4478015displayStateSetENS_12DisplayStateE:0000005c .Loc.856
C:\Users\kenne\AppData\Local\Temp\ccH82gYi.s:3231   .text._ZN7Hd4478015displayStateSetENS_12DisplayStateE:0000005c .Loc.857
C:\Users\kenne\AppData\Local\Temp\ccH82gYi.s:3234   .text._ZN7Hd4478015displayStateSetENS_12DisplayStateE:00000060 .Loc.858
C:\Users\kenne\AppData\Local\Temp\ccH82gYi.s:3235   .text._ZN7Hd4478015displayStateSetENS_12DisplayStateE:00000060 .Loc.859
C:\Users\kenne\AppData\Local\Temp\ccH82gYi.s:3236   .text._ZN7Hd4478015displayStateSetENS_12DisplayStateE:00000060 .Loc.860
C:\Users\kenne\AppData\Local\Temp\ccH82gYi.s:3237   .text._ZN7Hd4478015displayStateSetENS_12DisplayStateE:00000060 .Loc.861
C:\Users\kenne\AppData\Local\Temp\ccH82gYi.s:3248   .text._ZN7Hd4478015displayStateSetENS_12DisplayStateE:0000006e .Loc.862
C:\Users\kenne\AppData\Local\Temp\ccH82gYi.s:3250   .text._ZN7Hd4478015displayStateSetENS_12DisplayStateE:00000070 .Loc.863
C:\Users\kenne\AppData\Local\Temp\ccH82gYi.s:3252   .text._ZN7Hd4478015displayStateSetENS_12DisplayStateE:00000072 .Loc.864
C:\Users\kenne\AppData\Local\Temp\ccH82gYi.s:3256   .text._ZN7Hd4478015displayStateSetENS_12DisplayStateE:00000076 .Loc.865
C:\Users\kenne\AppData\Local\Temp\ccH82gYi.s:3258   .text._ZN7Hd4478015displayStateSetENS_12DisplayStateE:00000078 .Loc.866
C:\Users\kenne\AppData\Local\Temp\ccH82gYi.s:3260   .text._ZN7Hd4478015displayStateSetENS_12DisplayStateE:0000007a .Loc.867
C:\Users\kenne\AppData\Local\Temp\ccH82gYi.s:3264   .text._ZN7Hd4478015displayStateSetENS_12DisplayStateE:0000007e .Loc.868
C:\Users\kenne\AppData\Local\Temp\ccH82gYi.s:3267   .text._ZN7Hd4478015displayStateSetENS_12DisplayStateE:00000082 .Loc.869
C:\Users\kenne\AppData\Local\Temp\ccH82gYi.s:3269   .text._ZN7Hd4478015displayStateSetENS_12DisplayStateE:00000084 .Loc.870
C:\Users\kenne\AppData\Local\Temp\ccH82gYi.s:3274   .text._ZN7Hd4478015displayStateSetENS_12DisplayStateE:00000088 .Loc.871
C:\Users\kenne\AppData\Local\Temp\ccH82gYi.s:3277   .text._ZN7Hd4478015displayStateSetENS_12DisplayStateE:0000008a .Loc.872
C:\Users\kenne\AppData\Local\Temp\ccH82gYi.s:3281   .text._ZN7Hd4478015displayStateSetENS_12DisplayStateE:0000008c .Loc.873
C:\Users\kenne\AppData\Local\Temp\ccH82gYi.s:3285   .text._ZN7Hd4478015displayStateSetENS_12DisplayStateE:00000090 .Loc.874
GAS LISTING C:\Users\kenne\AppData\Local\Temp\ccH82gYi.s 			page 137


C:\Users\kenne\AppData\Local\Temp\ccH82gYi.s:3288   .text._ZN7Hd4478015displayStateSetENS_12DisplayStateE:00000094 L0
C:\Users\kenne\AppData\Local\Temp\ccH82gYi.s:3294   .text._ZN7Hd4478012displayShiftE9Direction:00000000 _ZN7Hd4478012displayShiftE9Direction
C:\Users\kenne\AppData\Local\Temp\ccH82gYi.s:3297   .text._ZN7Hd4478012displayShiftE9Direction:00000000 .Loc.875
C:\Users\kenne\AppData\Local\Temp\ccH82gYi.s:3298   .text._ZN7Hd4478012displayShiftE9Direction:00000000 L0
C:\Users\kenne\AppData\Local\Temp\ccH82gYi.s:3299   .text._ZN7Hd4478012displayShiftE9Direction:00000000 .Loc.876
C:\Users\kenne\AppData\Local\Temp\ccH82gYi.s:3314   .text._ZN7Hd4478012displayShiftE9Direction:0000000a .Loc.877
C:\Users\kenne\AppData\Local\Temp\ccH82gYi.s:3315   .text._ZN7Hd4478012displayShiftE9Direction:0000000a .Loc.878
C:\Users\kenne\AppData\Local\Temp\ccH82gYi.s:3316   .text._ZN7Hd4478012displayShiftE9Direction:0000000a .Loc.879
C:\Users\kenne\AppData\Local\Temp\ccH82gYi.s:3317   .text._ZN7Hd4478012displayShiftE9Direction:0000000a .Loc.880
C:\Users\kenne\AppData\Local\Temp\ccH82gYi.s:3318   .text._ZN7Hd4478012displayShiftE9Direction:0000000a .Loc.881
C:\Users\kenne\AppData\Local\Temp\ccH82gYi.s:3324   .text._ZN7Hd4478012displayShiftE9Direction:00000010 .Loc.882
C:\Users\kenne\AppData\Local\Temp\ccH82gYi.s:3327   .text._ZN7Hd4478012displayShiftE9Direction:00000012 .Loc.883
C:\Users\kenne\AppData\Local\Temp\ccH82gYi.s:3330   .text._ZN7Hd4478012displayShiftE9Direction:00000016 .Loc.884
C:\Users\kenne\AppData\Local\Temp\ccH82gYi.s:3331   .text._ZN7Hd4478012displayShiftE9Direction:00000016 .Loc.885
C:\Users\kenne\AppData\Local\Temp\ccH82gYi.s:3335   .text._ZN7Hd4478012displayShiftE9Direction:0000001a .Loc.886
C:\Users\kenne\AppData\Local\Temp\ccH82gYi.s:3338   .text._ZN7Hd4478012displayShiftE9Direction:0000001e .Loc.887
C:\Users\kenne\AppData\Local\Temp\ccH82gYi.s:3346   .text._ZN7Hd4478012displayShiftE9Direction:0000002a .Loc.888
C:\Users\kenne\AppData\Local\Temp\ccH82gYi.s:3347   .text._ZN7Hd4478012displayShiftE9Direction:0000002a .Loc.889
C:\Users\kenne\AppData\Local\Temp\ccH82gYi.s:3351   .text._ZN7Hd4478012displayShiftE9Direction:00000030 .Loc.890
C:\Users\kenne\AppData\Local\Temp\ccH82gYi.s:3352   .text._ZN7Hd4478012displayShiftE9Direction:00000030 .Loc.891
C:\Users\kenne\AppData\Local\Temp\ccH82gYi.s:3355   .text._ZN7Hd4478012displayShiftE9Direction:00000034 .Loc.892
C:\Users\kenne\AppData\Local\Temp\ccH82gYi.s:3356   .text._ZN7Hd4478012displayShiftE9Direction:00000034 .Loc.893
C:\Users\kenne\AppData\Local\Temp\ccH82gYi.s:3357   .text._ZN7Hd4478012displayShiftE9Direction:00000034 .Loc.894
C:\Users\kenne\AppData\Local\Temp\ccH82gYi.s:3358   .text._ZN7Hd4478012displayShiftE9Direction:00000034 .Loc.895
C:\Users\kenne\AppData\Local\Temp\ccH82gYi.s:3366   .text._ZN7Hd4478012displayShiftE9Direction:0000003c .Loc.896
C:\Users\kenne\AppData\Local\Temp\ccH82gYi.s:3369   .text._ZN7Hd4478012displayShiftE9Direction:0000003e .Loc.897
C:\Users\kenne\AppData\Local\Temp\ccH82gYi.s:3373   .text._ZN7Hd4478012displayShiftE9Direction:00000040 .Loc.898
C:\Users\kenne\AppData\Local\Temp\ccH82gYi.s:3374   .text._ZN7Hd4478012displayShiftE9Direction:00000040 .Loc.899
C:\Users\kenne\AppData\Local\Temp\ccH82gYi.s:3378   .text._ZN7Hd4478012displayShiftE9Direction:00000044 .Loc.900
C:\Users\kenne\AppData\Local\Temp\ccH82gYi.s:3381   .text._ZN7Hd4478012displayShiftE9Direction:00000048 .Loc.901
C:\Users\kenne\AppData\Local\Temp\ccH82gYi.s:3389   .text._ZN7Hd4478012displayShiftE9Direction:00000056 L0
C:\Users\kenne\AppData\Local\Temp\ccH82gYi.s:3395   .text._ZN7Hd4478012entryModeSetENS_4StepENS_11DisplayModeE:00000000 _ZN7Hd4478012entryModeSetENS_4StepENS_11DisplayModeE
C:\Users\kenne\AppData\Local\Temp\ccH82gYi.s:3398   .text._ZN7Hd4478012entryModeSetENS_4StepENS_11DisplayModeE:00000000 .Loc.902
C:\Users\kenne\AppData\Local\Temp\ccH82gYi.s:3399   .text._ZN7Hd4478012entryModeSetENS_4StepENS_11DisplayModeE:00000000 L0
C:\Users\kenne\AppData\Local\Temp\ccH82gYi.s:3400   .text._ZN7Hd4478012entryModeSetENS_4StepENS_11DisplayModeE:00000000 .Loc.903
C:\Users\kenne\AppData\Local\Temp\ccH82gYi.s:3421   .text._ZN7Hd4478012entryModeSetENS_4StepENS_11DisplayModeE:00000010 .Loc.904
C:\Users\kenne\AppData\Local\Temp\ccH82gYi.s:3422   .text._ZN7Hd4478012entryModeSetENS_4StepENS_11DisplayModeE:00000010 .Loc.905
C:\Users\kenne\AppData\Local\Temp\ccH82gYi.s:3423   .text._ZN7Hd4478012entryModeSetENS_4StepENS_11DisplayModeE:00000010 .Loc.906
C:\Users\kenne\AppData\Local\Temp\ccH82gYi.s:3425   .text._ZN7Hd4478012entryModeSetENS_4StepENS_11DisplayModeE:00000010 .Loc.907
C:\Users\kenne\AppData\Local\Temp\ccH82gYi.s:3426   .text._ZN7Hd4478012entryModeSetENS_4StepENS_11DisplayModeE:00000010 .Loc.908
C:\Users\kenne\AppData\Local\Temp\ccH82gYi.s:3429   .text._ZN7Hd4478012entryModeSetENS_4StepENS_11DisplayModeE:00000012 .Loc.909
C:\Users\kenne\AppData\Local\Temp\ccH82gYi.s:3435   .text._ZN7Hd4478012entryModeSetENS_4StepENS_11DisplayModeE:0000001a .Loc.910
C:\Users\kenne\AppData\Local\Temp\ccH82gYi.s:3436   .text._ZN7Hd4478012entryModeSetENS_4StepENS_11DisplayModeE:0000001a .Loc.911
C:\Users\kenne\AppData\Local\Temp\ccH82gYi.s:3441   .text._ZN7Hd4478012entryModeSetENS_4StepENS_11DisplayModeE:00000020 .Loc.912
C:\Users\kenne\AppData\Local\Temp\ccH82gYi.s:3442   .text._ZN7Hd4478012entryModeSetENS_4StepENS_11DisplayModeE:00000020 .Loc.913
C:\Users\kenne\AppData\Local\Temp\ccH82gYi.s:3445   .text._ZN7Hd4478012entryModeSetENS_4StepENS_11DisplayModeE:00000022 .Loc.914
C:\Users\kenne\AppData\Local\Temp\ccH82gYi.s:3449   .text._ZN7Hd4478012entryModeSetENS_4StepENS_11DisplayModeE:00000026 .Loc.915
C:\Users\kenne\AppData\Local\Temp\ccH82gYi.s:3453   .text._ZN7Hd4478012entryModeSetENS_4StepENS_11DisplayModeE:0000002a .Loc.916
C:\Users\kenne\AppData\Local\Temp\ccH82gYi.s:3456   .text._ZN7Hd4478012entryModeSetENS_4StepENS_11DisplayModeE:0000002e .Loc.917
C:\Users\kenne\AppData\Local\Temp\ccH82gYi.s:3457   .text._ZN7Hd4478012entryModeSetENS_4StepENS_11DisplayModeE:0000002e .Loc.918
C:\Users\kenne\AppData\Local\Temp\ccH82gYi.s:3462   .text._ZN7Hd4478012entryModeSetENS_4StepENS_11DisplayModeE:00000034 .Loc.919
C:\Users\kenne\AppData\Local\Temp\ccH82gYi.s:3464   .text._ZN7Hd4478012entryModeSetENS_4StepENS_11DisplayModeE:00000036 .Loc.920
C:\Users\kenne\AppData\Local\Temp\ccH82gYi.s:3465   .text._ZN7Hd4478012entryModeSetENS_4StepENS_11DisplayModeE:00000036 .Loc.921
C:\Users\kenne\AppData\Local\Temp\ccH82gYi.s:3469   .text._ZN7Hd4478012entryModeSetENS_4StepENS_11DisplayModeE:0000003a .Loc.922
C:\Users\kenne\AppData\Local\Temp\ccH82gYi.s:3471   .text._ZN7Hd4478012entryModeSetENS_4StepENS_11DisplayModeE:0000003c .Loc.923
C:\Users\kenne\AppData\Local\Temp\ccH82gYi.s:3472   .text._ZN7Hd4478012entryModeSetENS_4StepENS_11DisplayModeE:0000003c .Loc.924
C:\Users\kenne\AppData\Local\Temp\ccH82gYi.s:3475   .text._ZN7Hd4478012entryModeSetENS_4StepENS_11DisplayModeE:00000040 .Loc.925
GAS LISTING C:\Users\kenne\AppData\Local\Temp\ccH82gYi.s 			page 138


C:\Users\kenne\AppData\Local\Temp\ccH82gYi.s:3476   .text._ZN7Hd4478012entryModeSetENS_4StepENS_11DisplayModeE:00000040 .Loc.926
C:\Users\kenne\AppData\Local\Temp\ccH82gYi.s:3477   .text._ZN7Hd4478012entryModeSetENS_4StepENS_11DisplayModeE:00000040 .Loc.927
C:\Users\kenne\AppData\Local\Temp\ccH82gYi.s:3478   .text._ZN7Hd4478012entryModeSetENS_4StepENS_11DisplayModeE:00000040 .Loc.928
C:\Users\kenne\AppData\Local\Temp\ccH82gYi.s:3486   .text._ZN7Hd4478012entryModeSetENS_4StepENS_11DisplayModeE:0000004c L0
C:\Users\kenne\AppData\Local\Temp\ccH82gYi.s:3492   .text._ZN7Hd4478015_writeCharacterEhb:00000000 _ZN7Hd4478015_writeCharacterEhb
C:\Users\kenne\AppData\Local\Temp\ccH82gYi.s:3495   .text._ZN7Hd4478015_writeCharacterEhb:00000000 .Loc.929
C:\Users\kenne\AppData\Local\Temp\ccH82gYi.s:3496   .text._ZN7Hd4478015_writeCharacterEhb:00000000 L0
C:\Users\kenne\AppData\Local\Temp\ccH82gYi.s:3497   .text._ZN7Hd4478015_writeCharacterEhb:00000000 .Loc.930
C:\Users\kenne\AppData\Local\Temp\ccH82gYi.s:3518   .text._ZN7Hd4478015_writeCharacterEhb:00000010 .Loc.931
C:\Users\kenne\AppData\Local\Temp\ccH82gYi.s:3519   .text._ZN7Hd4478015_writeCharacterEhb:00000010 .Loc.932
C:\Users\kenne\AppData\Local\Temp\ccH82gYi.s:3522   .text._ZN7Hd4478015_writeCharacterEhb:00000012 .Loc.933
C:\Users\kenne\AppData\Local\Temp\ccH82gYi.s:3525   .text._ZN7Hd4478015_writeCharacterEhb:00000016 .Loc.934
C:\Users\kenne\AppData\Local\Temp\ccH82gYi.s:3528   .text._ZN7Hd4478015_writeCharacterEhb:0000001a .Loc.935
C:\Users\kenne\AppData\Local\Temp\ccH82gYi.s:3532   .text._ZN7Hd4478015_writeCharacterEhb:0000001e .Loc.936
C:\Users\kenne\AppData\Local\Temp\ccH82gYi.s:3533   .text._ZN7Hd4478015_writeCharacterEhb:0000001e .Loc.937
C:\Users\kenne\AppData\Local\Temp\ccH82gYi.s:3535   .text._ZN7Hd4478015_writeCharacterEhb:00000020 .Loc.938
C:\Users\kenne\AppData\Local\Temp\ccH82gYi.s:3540   .text._ZN7Hd4478015_writeCharacterEhb:00000024 .Loc.939
C:\Users\kenne\AppData\Local\Temp\ccH82gYi.s:3562   .text._ZN7Hd4478015_writeCharacterEhb:0000004a .Loc.940
C:\Users\kenne\AppData\Local\Temp\ccH82gYi.s:3578   .text._ZN7Hd4478015_writeCharacterEhb:00000064 .Loc.941
C:\Users\kenne\AppData\Local\Temp\ccH82gYi.s:3579   .text._ZN7Hd4478015_writeCharacterEhb:00000064 .Loc.942
C:\Users\kenne\AppData\Local\Temp\ccH82gYi.s:3581   .text._ZN7Hd4478015_writeCharacterEhb:00000066 .Loc.943
C:\Users\kenne\AppData\Local\Temp\ccH82gYi.s:3584   .text._ZN7Hd4478015_writeCharacterEhb:0000006a .Loc.944
C:\Users\kenne\AppData\Local\Temp\ccH82gYi.s:3603   .text._ZN7Hd4478015_writeCharacterEhb:0000008a .Loc.945
C:\Users\kenne\AppData\Local\Temp\ccH82gYi.s:3604   .text._ZN7Hd4478015_writeCharacterEhb:0000008a .Loc.946
C:\Users\kenne\AppData\Local\Temp\ccH82gYi.s:3607   .text._ZN7Hd4478015_writeCharacterEhb:0000008e .Loc.947
C:\Users\kenne\AppData\Local\Temp\ccH82gYi.s:3609   .text._ZN7Hd4478015_writeCharacterEhb:00000090 .Loc.948
C:\Users\kenne\AppData\Local\Temp\ccH82gYi.s:3614   .text._ZN7Hd4478015_writeCharacterEhb:00000098 .Loc.949
C:\Users\kenne\AppData\Local\Temp\ccH82gYi.s:3617   .text._ZN7Hd4478015_writeCharacterEhb:0000009c .Loc.950
C:\Users\kenne\AppData\Local\Temp\ccH82gYi.s:3625   .text._ZN7Hd4478015_writeCharacterEhb:000000a6 .Loc.951
C:\Users\kenne\AppData\Local\Temp\ccH82gYi.s:3628   .text._ZN7Hd4478015_writeCharacterEhb:000000aa .Loc.952
C:\Users\kenne\AppData\Local\Temp\ccH82gYi.s:3647   .text._ZN7Hd4478015_writeCharacterEhb:000000ca .Loc.953
C:\Users\kenne\AppData\Local\Temp\ccH82gYi.s:3651   .text._ZN7Hd4478015_writeCharacterEhb:000000ca .Loc.954
C:\Users\kenne\AppData\Local\Temp\ccH82gYi.s:3653   .text._ZN7Hd4478015_writeCharacterEhb:000000ca .Loc.955
C:\Users\kenne\AppData\Local\Temp\ccH82gYi.s:3654   .text._ZN7Hd4478015_writeCharacterEhb:000000ca .Loc.956
C:\Users\kenne\AppData\Local\Temp\ccH82gYi.s:3655   .text._ZN7Hd4478015_writeCharacterEhb:000000ca .Loc.957
C:\Users\kenne\AppData\Local\Temp\ccH82gYi.s:3656   .text._ZN7Hd4478015_writeCharacterEhb:000000ca .Loc.958
C:\Users\kenne\AppData\Local\Temp\ccH82gYi.s:3657   .text._ZN7Hd4478015_writeCharacterEhb:000000ca .Loc.959
C:\Users\kenne\AppData\Local\Temp\ccH82gYi.s:3658   .text._ZN7Hd4478015_writeCharacterEhb:000000ca .Loc.960
C:\Users\kenne\AppData\Local\Temp\ccH82gYi.s:3659   .text._ZN7Hd4478015_writeCharacterEhb:000000ca .Loc.961
C:\Users\kenne\AppData\Local\Temp\ccH82gYi.s:3665   .text._ZN7Hd4478015_writeCharacterEhb:000000d2 .Loc.962
C:\Users\kenne\AppData\Local\Temp\ccH82gYi.s:3668   .text._ZN7Hd4478015_writeCharacterEhb:000000d2 .Loc.963
C:\Users\kenne\AppData\Local\Temp\ccH82gYi.s:3684   .text._ZN7Hd4478015_writeCharacterEhb:000000ec .Loc.964
C:\Users\kenne\AppData\Local\Temp\ccH82gYi.s:3688   .text._ZN7Hd4478015_writeCharacterEhb:000000ec .Loc.965
C:\Users\kenne\AppData\Local\Temp\ccH82gYi.s:3690   .text._ZN7Hd4478015_writeCharacterEhb:000000ec .Loc.966
C:\Users\kenne\AppData\Local\Temp\ccH82gYi.s:3691   .text._ZN7Hd4478015_writeCharacterEhb:000000ec .Loc.967
C:\Users\kenne\AppData\Local\Temp\ccH82gYi.s:3692   .text._ZN7Hd4478015_writeCharacterEhb:000000ec .Loc.968
C:\Users\kenne\AppData\Local\Temp\ccH82gYi.s:3693   .text._ZN7Hd4478015_writeCharacterEhb:000000ec .Loc.969
C:\Users\kenne\AppData\Local\Temp\ccH82gYi.s:3694   .text._ZN7Hd4478015_writeCharacterEhb:000000ec .Loc.970
C:\Users\kenne\AppData\Local\Temp\ccH82gYi.s:3695   .text._ZN7Hd4478015_writeCharacterEhb:000000ec .Loc.971
C:\Users\kenne\AppData\Local\Temp\ccH82gYi.s:3696   .text._ZN7Hd4478015_writeCharacterEhb:000000ec .Loc.972
C:\Users\kenne\AppData\Local\Temp\ccH82gYi.s:3702   .text._ZN7Hd4478015_writeCharacterEhb:000000f4 .Loc.973
C:\Users\kenne\AppData\Local\Temp\ccH82gYi.s:3705   .text._ZN7Hd4478015_writeCharacterEhb:000000f4 .Loc.974
C:\Users\kenne\AppData\Local\Temp\ccH82gYi.s:3721   .text._ZN7Hd4478015_writeCharacterEhb:0000010e .Loc.975
C:\Users\kenne\AppData\Local\Temp\ccH82gYi.s:3722   .text._ZN7Hd4478015_writeCharacterEhb:0000010e .Loc.976
C:\Users\kenne\AppData\Local\Temp\ccH82gYi.s:3725   .text._ZN7Hd4478015_writeCharacterEhb:00000112 .Loc.977
C:\Users\kenne\AppData\Local\Temp\ccH82gYi.s:3727   .text._ZN7Hd4478015_writeCharacterEhb:00000114 .Loc.978
C:\Users\kenne\AppData\Local\Temp\ccH82gYi.s:3730   .text._ZN7Hd4478015_writeCharacterEhb:00000116 .Loc.979
GAS LISTING C:\Users\kenne\AppData\Local\Temp\ccH82gYi.s 			page 139


C:\Users\kenne\AppData\Local\Temp\ccH82gYi.s:3733   .text._ZN7Hd4478015_writeCharacterEhb:0000011a .Loc.980
C:\Users\kenne\AppData\Local\Temp\ccH82gYi.s:3736   .text._ZN7Hd4478015_writeCharacterEhb:0000011e .Loc.981
C:\Users\kenne\AppData\Local\Temp\ccH82gYi.s:3744   .text._ZN7Hd4478015_writeCharacterEhb:00000128 .Loc.982
C:\Users\kenne\AppData\Local\Temp\ccH82gYi.s:3748   .text._ZN7Hd4478015_writeCharacterEhb:0000012c .Loc.983
C:\Users\kenne\AppData\Local\Temp\ccH82gYi.s:3767   .text._ZN7Hd4478015_writeCharacterEhb:0000014c .Loc.984
C:\Users\kenne\AppData\Local\Temp\ccH82gYi.s:3771   .text._ZN7Hd4478015_writeCharacterEhb:0000014c .Loc.985
C:\Users\kenne\AppData\Local\Temp\ccH82gYi.s:3773   .text._ZN7Hd4478015_writeCharacterEhb:0000014c .Loc.986
C:\Users\kenne\AppData\Local\Temp\ccH82gYi.s:3774   .text._ZN7Hd4478015_writeCharacterEhb:0000014c .Loc.987
C:\Users\kenne\AppData\Local\Temp\ccH82gYi.s:3775   .text._ZN7Hd4478015_writeCharacterEhb:0000014c .Loc.988
C:\Users\kenne\AppData\Local\Temp\ccH82gYi.s:3776   .text._ZN7Hd4478015_writeCharacterEhb:0000014c .Loc.989
C:\Users\kenne\AppData\Local\Temp\ccH82gYi.s:3777   .text._ZN7Hd4478015_writeCharacterEhb:0000014c .Loc.990
C:\Users\kenne\AppData\Local\Temp\ccH82gYi.s:3778   .text._ZN7Hd4478015_writeCharacterEhb:0000014c .Loc.991
C:\Users\kenne\AppData\Local\Temp\ccH82gYi.s:3779   .text._ZN7Hd4478015_writeCharacterEhb:0000014c .Loc.992
C:\Users\kenne\AppData\Local\Temp\ccH82gYi.s:3785   .text._ZN7Hd4478015_writeCharacterEhb:00000154 .Loc.993
C:\Users\kenne\AppData\Local\Temp\ccH82gYi.s:3788   .text._ZN7Hd4478015_writeCharacterEhb:00000154 .Loc.994
C:\Users\kenne\AppData\Local\Temp\ccH82gYi.s:3804   .text._ZN7Hd4478015_writeCharacterEhb:0000016e .Loc.995
C:\Users\kenne\AppData\Local\Temp\ccH82gYi.s:3805   .text._ZN7Hd4478015_writeCharacterEhb:0000016e .Loc.996
C:\Users\kenne\AppData\Local\Temp\ccH82gYi.s:3807   .text._ZN7Hd4478015_writeCharacterEhb:00000170 .Loc.997
C:\Users\kenne\AppData\Local\Temp\ccH82gYi.s:3810   .text._ZN7Hd4478015_writeCharacterEhb:00000174 .Loc.998
C:\Users\kenne\AppData\Local\Temp\ccH82gYi.s:3814   .text._ZN7Hd4478015_writeCharacterEhb:00000174 .Loc.999
C:\Users\kenne\AppData\Local\Temp\ccH82gYi.s:3816   .text._ZN7Hd4478015_writeCharacterEhb:00000174 .Loc.1000
C:\Users\kenne\AppData\Local\Temp\ccH82gYi.s:3817   .text._ZN7Hd4478015_writeCharacterEhb:00000174 .Loc.1001
C:\Users\kenne\AppData\Local\Temp\ccH82gYi.s:3818   .text._ZN7Hd4478015_writeCharacterEhb:00000174 .Loc.1002
C:\Users\kenne\AppData\Local\Temp\ccH82gYi.s:3819   .text._ZN7Hd4478015_writeCharacterEhb:00000174 .Loc.1003
C:\Users\kenne\AppData\Local\Temp\ccH82gYi.s:3820   .text._ZN7Hd4478015_writeCharacterEhb:00000174 .Loc.1004
C:\Users\kenne\AppData\Local\Temp\ccH82gYi.s:3821   .text._ZN7Hd4478015_writeCharacterEhb:00000174 .Loc.1005
C:\Users\kenne\AppData\Local\Temp\ccH82gYi.s:3822   .text._ZN7Hd4478015_writeCharacterEhb:00000174 .Loc.1006
C:\Users\kenne\AppData\Local\Temp\ccH82gYi.s:3829   .text._ZN7Hd4478015_writeCharacterEhb:0000017c .Loc.1007
C:\Users\kenne\AppData\Local\Temp\ccH82gYi.s:3832   .text._ZN7Hd4478015_writeCharacterEhb:0000017c .Loc.1008
C:\Users\kenne\AppData\Local\Temp\ccH82gYi.s:3835   .text._ZN7Hd4478015_writeCharacterEhb:00000180 .Loc.1009
C:\Users\kenne\AppData\Local\Temp\ccH82gYi.s:3836   .text._ZN7Hd4478015_writeCharacterEhb:00000180 .Loc.1010
C:\Users\kenne\AppData\Local\Temp\ccH82gYi.s:3841   .text._ZN7Hd4478015_writeCharacterEhb:00000188 .Loc.1011
C:\Users\kenne\AppData\Local\Temp\ccH82gYi.s:3849   .text._ZN7Hd4478015_writeCharacterEhb:00000194 .Loc.1012
C:\Users\kenne\AppData\Local\Temp\ccH82gYi.s:3850   .text._ZN7Hd4478015_writeCharacterEhb:00000194 .Loc.1013
C:\Users\kenne\AppData\Local\Temp\ccH82gYi.s:3858   .text._ZN7Hd4478015_writeCharacterEhb:0000019e .Loc.1014
C:\Users\kenne\AppData\Local\Temp\ccH82gYi.s:3862   .text._ZN7Hd4478015_writeCharacterEhb:000001a0 .Loc.1015
C:\Users\kenne\AppData\Local\Temp\ccH82gYi.s:3863   .text._ZN7Hd4478015_writeCharacterEhb:000001a0 .Loc.1016
C:\Users\kenne\AppData\Local\Temp\ccH82gYi.s:3867   .text._ZN7Hd4478015_writeCharacterEhb:000001a6 .Loc.1017
C:\Users\kenne\AppData\Local\Temp\ccH82gYi.s:3895   .text._ZN7Hd4478015_writeCharacterEhb:000001d6 .Loc.1018
C:\Users\kenne\AppData\Local\Temp\ccH82gYi.s:3896   .text._ZN7Hd4478015_writeCharacterEhb:000001d6 .Loc.1019
C:\Users\kenne\AppData\Local\Temp\ccH82gYi.s:3899   .text._ZN7Hd4478015_writeCharacterEhb:000001da .Loc.1020
C:\Users\kenne\AppData\Local\Temp\ccH82gYi.s:3902   .text._ZN7Hd4478015_writeCharacterEhb:000001de L0
C:\Users\kenne\AppData\Local\Temp\ccH82gYi.s:3910   .text._ZL11lcdWriteStdcP6__file:00000000 .Loc.1021
C:\Users\kenne\AppData\Local\Temp\ccH82gYi.s:3911   .text._ZL11lcdWriteStdcP6__file:00000000 L0
C:\Users\kenne\AppData\Local\Temp\ccH82gYi.s:3912   .text._ZL11lcdWriteStdcP6__file:00000000 .Loc.1022
C:\Users\kenne\AppData\Local\Temp\ccH82gYi.s:3925   .text._ZL11lcdWriteStdcP6__file:00000006 .Loc.1023
C:\Users\kenne\AppData\Local\Temp\ccH82gYi.s:3926   .text._ZL11lcdWriteStdcP6__file:00000006 .Loc.1024
C:\Users\kenne\AppData\Local\Temp\ccH82gYi.s:3931   .text._ZL11lcdWriteStdcP6__file:00000010 .Loc.1025
C:\Users\kenne\AppData\Local\Temp\ccH82gYi.s:3941   .text._ZL11lcdWriteStdcP6__file:00000022 .Loc.1026
C:\Users\kenne\AppData\Local\Temp\ccH82gYi.s:3944   .text._ZL11lcdWriteStdcP6__file:00000024 .Loc.1027
C:\Users\kenne\AppData\Local\Temp\ccH82gYi.s:3945   .text._ZL11lcdWriteStdcP6__file:00000024 .Loc.1028
C:\Users\kenne\AppData\Local\Temp\ccH82gYi.s:3948   .text._ZL11lcdWriteStdcP6__file:00000028 .Loc.1029
C:\Users\kenne\AppData\Local\Temp\ccH82gYi.s:3949   .text._ZL11lcdWriteStdcP6__file:00000028 .Loc.1030
C:\Users\kenne\AppData\Local\Temp\ccH82gYi.s:3954   .text._ZL11lcdWriteStdcP6__file:0000002e .Loc.1031
C:\Users\kenne\AppData\Local\Temp\ccH82gYi.s:3958   .text._ZL11lcdWriteStdcP6__file:00000030 .Loc.1032
C:\Users\kenne\AppData\Local\Temp\ccH82gYi.s:3959   .text._ZL11lcdWriteStdcP6__file:00000030 .Loc.1033
C:\Users\kenne\AppData\Local\Temp\ccH82gYi.s:3966   .text._ZL11lcdWriteStdcP6__file:00000040 .Loc.1034
GAS LISTING C:\Users\kenne\AppData\Local\Temp\ccH82gYi.s 			page 140


C:\Users\kenne\AppData\Local\Temp\ccH82gYi.s:3970   .text._ZL11lcdWriteStdcP6__file:00000042 .Loc.1035
C:\Users\kenne\AppData\Local\Temp\ccH82gYi.s:3973   .text._ZL11lcdWriteStdcP6__file:00000046 .Loc.1036
C:\Users\kenne\AppData\Local\Temp\ccH82gYi.s:3974   .text._ZL11lcdWriteStdcP6__file:00000046 .Loc.1037
C:\Users\kenne\AppData\Local\Temp\ccH82gYi.s:3980   .text._ZL11lcdWriteStdcP6__file:00000052 .Loc.1038
C:\Users\kenne\AppData\Local\Temp\ccH82gYi.s:3981   .text._ZL11lcdWriteStdcP6__file:00000052 .Loc.1039
C:\Users\kenne\AppData\Local\Temp\ccH82gYi.s:3987   .text._ZL11lcdWriteStdcP6__file:00000058 .Loc.1040
C:\Users\kenne\AppData\Local\Temp\ccH82gYi.s:3992   .text._ZL11lcdWriteStdcP6__file:0000005c .Loc.1041
C:\Users\kenne\AppData\Local\Temp\ccH82gYi.s:3993   .text._ZL11lcdWriteStdcP6__file:0000005c .Loc.1042
C:\Users\kenne\AppData\Local\Temp\ccH82gYi.s:3998   .text._ZL11lcdWriteStdcP6__file:00000064 .Loc.1043
C:\Users\kenne\AppData\Local\Temp\ccH82gYi.s:4000   .text._ZL11lcdWriteStdcP6__file:00000066 L0
C:\Users\kenne\AppData\Local\Temp\ccH82gYi.s:4006   .text._ZN7Hd4478018customCharacterSetEhPKh:00000000 _ZN7Hd4478018customCharacterSetEhPKh
C:\Users\kenne\AppData\Local\Temp\ccH82gYi.s:4009   .text._ZN7Hd4478018customCharacterSetEhPKh:00000000 .Loc.1044
C:\Users\kenne\AppData\Local\Temp\ccH82gYi.s:4010   .text._ZN7Hd4478018customCharacterSetEhPKh:00000000 L0
C:\Users\kenne\AppData\Local\Temp\ccH82gYi.s:4011   .text._ZN7Hd4478018customCharacterSetEhPKh:00000000 .Loc.1045
C:\Users\kenne\AppData\Local\Temp\ccH82gYi.s:4035   .text._ZN7Hd4478018customCharacterSetEhPKh:00000012 .Loc.1046
C:\Users\kenne\AppData\Local\Temp\ccH82gYi.s:4036   .text._ZN7Hd4478018customCharacterSetEhPKh:00000012 .Loc.1047
C:\Users\kenne\AppData\Local\Temp\ccH82gYi.s:4037   .text._ZN7Hd4478018customCharacterSetEhPKh:00000012 .Loc.1048
C:\Users\kenne\AppData\Local\Temp\ccH82gYi.s:4039   .text._ZN7Hd4478018customCharacterSetEhPKh:00000012 .Loc.1049
C:\Users\kenne\AppData\Local\Temp\ccH82gYi.s:4043   .text._ZN7Hd4478018customCharacterSetEhPKh:00000018 .Loc.1050
C:\Users\kenne\AppData\Local\Temp\ccH82gYi.s:4047   .text._ZN7Hd4478018customCharacterSetEhPKh:0000001c .Loc.1051
C:\Users\kenne\AppData\Local\Temp\ccH82gYi.s:4050   .text._ZN7Hd4478018customCharacterSetEhPKh:00000020 .Loc.1052
C:\Users\kenne\AppData\Local\Temp\ccH82gYi.s:4053   .text._ZN7Hd4478018customCharacterSetEhPKh:00000022 .Loc.1053
C:\Users\kenne\AppData\Local\Temp\ccH82gYi.s:4057   .text._ZN7Hd4478018customCharacterSetEhPKh:00000024 .Loc.1054
C:\Users\kenne\AppData\Local\Temp\ccH82gYi.s:4058   .text._ZN7Hd4478018customCharacterSetEhPKh:00000024 .Loc.1055
C:\Users\kenne\AppData\Local\Temp\ccH82gYi.s:4063   .text._ZN7Hd4478018customCharacterSetEhPKh:0000002a .Loc.1056
C:\Users\kenne\AppData\Local\Temp\ccH82gYi.s:4067   .text._ZN7Hd4478018customCharacterSetEhPKh:0000002e .Loc.1057
C:\Users\kenne\AppData\Local\Temp\ccH82gYi.s:4070   .text._ZN7Hd4478018customCharacterSetEhPKh:00000032 .Loc.1058
C:\Users\kenne\AppData\Local\Temp\ccH82gYi.s:4072   .text._ZN7Hd4478018customCharacterSetEhPKh:00000032 .Loc.1059
C:\Users\kenne\AppData\Local\Temp\ccH82gYi.s:4076   .text._ZN7Hd4478018customCharacterSetEhPKh:00000034 .Loc.1060
C:\Users\kenne\AppData\Local\Temp\ccH82gYi.s:4077   .text._ZN7Hd4478018customCharacterSetEhPKh:00000034 .Loc.1061
C:\Users\kenne\AppData\Local\Temp\ccH82gYi.s:4081   .text._ZN7Hd4478018customCharacterSetEhPKh:0000003a .Loc.1062
C:\Users\kenne\AppData\Local\Temp\ccH82gYi.s:4087   .text._ZN7Hd4478018customCharacterSetEhPKh:00000044 .Loc.1063
C:\Users\kenne\AppData\Local\Temp\ccH82gYi.s:4091   .text._ZN7Hd4478018customCharacterSetEhPKh:00000046 .Loc.1064
C:\Users\kenne\AppData\Local\Temp\ccH82gYi.s:4096   .text._ZN7Hd4478018customCharacterSetEhPKh:0000004a .Loc.1065
C:\Users\kenne\AppData\Local\Temp\ccH82gYi.s:4100   .text._ZN7Hd4478018customCharacterSetEhPKh:0000004a .Loc.1066
C:\Users\kenne\AppData\Local\Temp\ccH82gYi.s:4101   .text._ZN7Hd4478018customCharacterSetEhPKh:0000004a .Loc.1067
C:\Users\kenne\AppData\Local\Temp\ccH82gYi.s:4105   .text._ZN7Hd4478018customCharacterSetEhPKh:00000050 .Loc.1068
C:\Users\kenne\AppData\Local\Temp\ccH82gYi.s:4106   .text._ZN7Hd4478018customCharacterSetEhPKh:00000050 .Loc.1069
C:\Users\kenne\AppData\Local\Temp\ccH82gYi.s:4107   .text._ZN7Hd4478018customCharacterSetEhPKh:00000050 .Loc.1070
C:\Users\kenne\AppData\Local\Temp\ccH82gYi.s:4108   .text._ZN7Hd4478018customCharacterSetEhPKh:00000050 .Loc.1071
C:\Users\kenne\AppData\Local\Temp\ccH82gYi.s:4112   .text._ZN7Hd4478018customCharacterSetEhPKh:00000052 .Loc.1072
C:\Users\kenne\AppData\Local\Temp\ccH82gYi.s:4123   .text._ZN7Hd4478018customCharacterSetEhPKh:0000005e .Loc.1073
C:\Users\kenne\AppData\Local\Temp\ccH82gYi.s:4126   .text._ZN7Hd4478018customCharacterSetEhPKh:00000062 .Loc.1074
C:\Users\kenne\AppData\Local\Temp\ccH82gYi.s:4129   .text._ZN7Hd4478018customCharacterSetEhPKh:00000064 .Loc.1075
C:\Users\kenne\AppData\Local\Temp\ccH82gYi.s:4133   .text._ZN7Hd4478018customCharacterSetEhPKh:00000066 .Loc.1076
C:\Users\kenne\AppData\Local\Temp\ccH82gYi.s:4134   .text._ZN7Hd4478018customCharacterSetEhPKh:00000066 .Loc.1077
C:\Users\kenne\AppData\Local\Temp\ccH82gYi.s:4137   .text._ZN7Hd4478018customCharacterSetEhPKh:00000068 .Loc.1078
C:\Users\kenne\AppData\Local\Temp\ccH82gYi.s:4142   .text._ZN7Hd4478018customCharacterSetEhPKh:0000006e .Loc.1079
C:\Users\kenne\AppData\Local\Temp\ccH82gYi.s:4144   .text._ZN7Hd4478018customCharacterSetEhPKh:00000070 .Loc.1080
C:\Users\kenne\AppData\Local\Temp\ccH82gYi.s:4149   .text._ZN7Hd4478018customCharacterSetEhPKh:00000078 .Loc.1081
C:\Users\kenne\AppData\Local\Temp\ccH82gYi.s:4151   .text._ZN7Hd4478018customCharacterSetEhPKh:00000078 .Loc.1082
C:\Users\kenne\AppData\Local\Temp\ccH82gYi.s:4153   .text._ZN7Hd4478018customCharacterSetEhPKh:0000007a .Loc.1083
C:\Users\kenne\AppData\Local\Temp\ccH82gYi.s:4157   .text._ZN7Hd4478018customCharacterSetEhPKh:0000007c .Loc.1084
C:\Users\kenne\AppData\Local\Temp\ccH82gYi.s:4158   .text._ZN7Hd4478018customCharacterSetEhPKh:0000007c .Loc.1085
C:\Users\kenne\AppData\Local\Temp\ccH82gYi.s:4162   .text._ZN7Hd4478018customCharacterSetEhPKh:00000082 .Loc.1086
C:\Users\kenne\AppData\Local\Temp\ccH82gYi.s:4168   .text._ZN7Hd4478018customCharacterSetEhPKh:0000008c .Loc.1087
C:\Users\kenne\AppData\Local\Temp\ccH82gYi.s:4172   .text._ZN7Hd4478018customCharacterSetEhPKh:0000008e .Loc.1088
GAS LISTING C:\Users\kenne\AppData\Local\Temp\ccH82gYi.s 			page 141


C:\Users\kenne\AppData\Local\Temp\ccH82gYi.s:4179   .text._ZN7Hd4478018customCharacterSetEhPKh:00000094 L0
C:\Users\kenne\AppData\Local\Temp\ccH82gYi.s:33     .text._Z7getTickv:00000008 L0
C:\Users\kenne\AppData\Local\Temp\ccH82gYi.s:210    .text._ZN7Hd44780C2Ev:000000b2 L0
C:\Users\kenne\AppData\Local\Temp\ccH82gYi.s:233    .text._ZN7Hd44780D2Ev:00000002 L0
C:\Users\kenne\AppData\Local\Temp\ccH82gYi.s:427    .text._ZN7Hd4478014controlPortSetEPVhhhh:000000ce L0
C:\Users\kenne\AppData\Local\Temp\ccH82gYi.s:543    .text._ZN7Hd4478011dataPortSetEPVhh:0000006e L0
C:\Users\kenne\AppData\Local\Temp\ccH82gYi.s:598    .text._ZN7Hd447805stdioEv:00000030 L0
C:\Users\kenne\AppData\Local\Temp\ccH82gYi.s:622    .text._ZN7Hd4478012getLastErrorEv:00000008 L0
C:\Users\kenne\AppData\Local\Temp\ccH82gYi.s:882    .text._ZN7Hd4478017_functionSet8BitsEh:00000120 L0
C:\Users\kenne\AppData\Local\Temp\ccH82gYi.s:1324   .text._ZN7Hd4478015_waitUntilReadyEv:00000206 L0
C:\Users\kenne\AppData\Local\Temp\ccH82gYi.s:1761   .text._ZN7Hd4478013_writeCommandEh:000001d6 L0
C:\Users\kenne\AppData\Local\Temp\ccH82gYi.s:2441   .text._ZN7Hd447804initENS_4SizeENS_4FontEbb:000002ee L0
C:\Users\kenne\AppData\Local\Temp\ccH82gYi.s:2504   .text._ZN7Hd4478011clearScreenEv:00000030 L0
C:\Users\kenne\AppData\Local\Temp\ccH82gYi.s:2808   .text._ZN7Hd4478010cursorGoToEhh:0000015a L0
C:\Users\kenne\AppData\Local\Temp\ccH82gYi.s:2889   .text._ZN7Hd4478018cursorMoveNextLineEv:00000048 L0
C:\Users\kenne\AppData\Local\Temp\ccH82gYi.s:2952   .text._ZN7Hd4478010cursorHomeEv:00000030 L0
C:\Users\kenne\AppData\Local\Temp\ccH82gYi.s:3053   .text._ZN7Hd4478010cursorMoveE9Direction:00000056 L0
C:\Users\kenne\AppData\Local\Temp\ccH82gYi.s:3116   .text._ZN7Hd4478019cursorMoveFirstLineEv:00000030 L0
C:\Users\kenne\AppData\Local\Temp\ccH82gYi.s:3291   .text._ZN7Hd4478015displayStateSetENS_12DisplayStateE:00000094 L0
C:\Users\kenne\AppData\Local\Temp\ccH82gYi.s:3392   .text._ZN7Hd4478012displayShiftE9Direction:00000056 L0
C:\Users\kenne\AppData\Local\Temp\ccH82gYi.s:3489   .text._ZN7Hd4478012entryModeSetENS_4StepENS_11DisplayModeE:0000004c L0
C:\Users\kenne\AppData\Local\Temp\ccH82gYi.s:3905   .text._ZN7Hd4478015_writeCharacterEhb:000001de L0
C:\Users\kenne\AppData\Local\Temp\ccH82gYi.s:4003   .text._ZL11lcdWriteStdcP6__file:00000066 L0
C:\Users\kenne\AppData\Local\Temp\ccH82gYi.s:4183   .text._ZN7Hd4478018customCharacterSetEhPKh:00000094 L0
                     .debug_frame:00000000 L0
C:\Users\kenne\AppData\Local\Temp\ccH82gYi.s:366    .text._ZN7Hd4478014controlPortSetEPVhhhh:0000009c .L10
C:\Users\kenne\AppData\Local\Temp\ccH82gYi.s:385    .text._ZN7Hd4478014controlPortSetEPVhhhh:000000aa .L11
C:\Users\kenne\AppData\Local\Temp\ccH82gYi.s:398    .text._ZN7Hd4478014controlPortSetEPVhhhh:000000b6 .L12
C:\Users\kenne\AppData\Local\Temp\ccH82gYi.s:411    .text._ZN7Hd4478014controlPortSetEPVhhhh:000000c2 .L13
C:\Users\kenne\AppData\Local\Temp\ccH82gYi.s:379    .text._ZN7Hd4478014controlPortSetEPVhhhh:000000a6 .L4
C:\Users\kenne\AppData\Local\Temp\ccH82gYi.s:514    .text._ZN7Hd4478011dataPortSetEPVhh:00000056 .L18
C:\Users\kenne\AppData\Local\Temp\ccH82gYi.s:527    .text._ZN7Hd4478011dataPortSetEPVhh:00000062 .L19
C:\Users\kenne\AppData\Local\Temp\ccH82gYi.s:676    .text._ZN7Hd4478017_functionSet8BitsEh:0000003c .L23
C:\Users\kenne\AppData\Local\Temp\ccH82gYi.s:670    .text._ZN7Hd4478017_functionSet8BitsEh:00000032 .L21
C:\Users\kenne\AppData\Local\Temp\ccH82gYi.s:667    .text._ZN7Hd4478017_functionSet8BitsEh:0000002e .L11
C:\Users\kenne\AppData\Local\Temp\ccH82gYi.s:693    .text._ZN7Hd4478017_functionSet8BitsEh:00000058 .L22
C:\Users\kenne\AppData\Local\Temp\ccH82gYi.s:690    .text._ZN7Hd4478017_functionSet8BitsEh:00000054 .L12
C:\Users\kenne\AppData\Local\Temp\ccH82gYi.s:711    .text._ZN7Hd4478017_functionSet8BitsEh:00000076 .L23
C:\Users\kenne\AppData\Local\Temp\ccH82gYi.s:708    .text._ZN7Hd4478017_functionSet8BitsEh:00000072 .L13
C:\Users\kenne\AppData\Local\Temp\ccH82gYi.s:730    .text._ZN7Hd4478017_functionSet8BitsEh:00000096 .L24
C:\Users\kenne\AppData\Local\Temp\ccH82gYi.s:727    .text._ZN7Hd4478017_functionSet8BitsEh:00000092 .L14
C:\Users\kenne\AppData\Local\Temp\ccH82gYi.s:756    .text._ZN7Hd4478017_functionSet8BitsEh:000000b6 .L25
C:\Users\kenne\AppData\Local\Temp\ccH82gYi.s:753    .text._ZN7Hd4478017_functionSet8BitsEh:000000b2 .L15
C:\Users\kenne\AppData\Local\Temp\ccH82gYi.s:773    .text._ZN7Hd4478017_functionSet8BitsEh:000000d0 .L26
C:\Users\kenne\AppData\Local\Temp\ccH82gYi.s:770    .text._ZN7Hd4478017_functionSet8BitsEh:000000cc .L16
C:\Users\kenne\AppData\Local\Temp\ccH82gYi.s:794    .text._ZN7Hd4478017_functionSet8BitsEh:000000dc .L17
C:\Users\kenne\AppData\Local\Temp\ccH82gYi.s:811    .text._ZN7Hd4478017_functionSet8BitsEh:000000f2 .L27
C:\Users\kenne\AppData\Local\Temp\ccH82gYi.s:808    .text._ZN7Hd4478017_functionSet8BitsEh:000000ee .L18
C:\Users\kenne\AppData\Local\Temp\ccH82gYi.s:831    .text._ZN7Hd4478017_functionSet8BitsEh:000000fe .L19
C:\Users\kenne\AppData\Local\Temp\ccH82gYi.s:849    .text._ZN7Hd4478017_functionSet8BitsEh:00000110 .L24
C:\Users\kenne\AppData\Local\Temp\ccH82gYi.s:868    .text._ZN7Hd4478017_functionSet8BitsEh:00000118 .L25
C:\Users\kenne\AppData\Local\Temp\ccH82gYi.s:864    .text._ZN7Hd4478017_functionSet8BitsEh:00000112 .L110
C:\Users\kenne\AppData\Local\Temp\ccH82gYi.s:1007   .text._ZN7Hd4478015_waitUntilReadyEv:000000b4 .L27
C:\Users\kenne\AppData\Local\Temp\ccH82gYi.s:918    .text._ZN7Hd4478015_waitUntilReadyEv:0000001e .L28
C:\Users\kenne\AppData\Local\Temp\ccH82gYi.s:915    .text._ZN7Hd4478015_waitUntilReadyEv:0000001a .L111
C:\Users\kenne\AppData\Local\Temp\ccH82gYi.s:935    .text._ZN7Hd4478015_waitUntilReadyEv:0000003a .L29
C:\Users\kenne\AppData\Local\Temp\ccH82gYi.s:932    .text._ZN7Hd4478015_waitUntilReadyEv:00000036 .L112
GAS LISTING C:\Users\kenne\AppData\Local\Temp\ccH82gYi.s 			page 142


C:\Users\kenne\AppData\Local\Temp\ccH82gYi.s:958    .text._ZN7Hd4478015_waitUntilReadyEv:00000060 .L210
C:\Users\kenne\AppData\Local\Temp\ccH82gYi.s:955    .text._ZN7Hd4478015_waitUntilReadyEv:0000005c .L113
C:\Users\kenne\AppData\Local\Temp\ccH82gYi.s:984    .text._ZN7Hd4478015_waitUntilReadyEv:0000008e .L211
C:\Users\kenne\AppData\Local\Temp\ccH82gYi.s:981    .text._ZN7Hd4478015_waitUntilReadyEv:0000008a .L114
C:\Users\kenne\AppData\Local\Temp\ccH82gYi.s:1000   .text._ZN7Hd4478015_waitUntilReadyEv:000000a8 .L212
C:\Users\kenne\AppData\Local\Temp\ccH82gYi.s:997    .text._ZN7Hd4478015_waitUntilReadyEv:000000a4 .L115
C:\Users\kenne\AppData\Local\Temp\ccH82gYi.s:1111   .text._ZN7Hd4478015_waitUntilReadyEv:00000112 .L32
C:\Users\kenne\AppData\Local\Temp\ccH82gYi.s:941    .text._ZN7Hd4478015_waitUntilReadyEv:00000044 .L28
C:\Users\kenne\AppData\Local\Temp\ccH82gYi.s:1182   .text._ZN7Hd4478015_waitUntilReadyEv:00000156 .L30
C:\Users\kenne\AppData\Local\Temp\ccH82gYi.s:1043   .text._ZN7Hd4478015_waitUntilReadyEv:000000dc .L213
C:\Users\kenne\AppData\Local\Temp\ccH82gYi.s:1040   .text._ZN7Hd4478015_waitUntilReadyEv:000000d8 .L116
C:\Users\kenne\AppData\Local\Temp\ccH82gYi.s:1062   .text._ZN7Hd4478015_waitUntilReadyEv:000000e6 .L117
C:\Users\kenne\AppData\Local\Temp\ccH82gYi.s:1079   .text._ZN7Hd4478015_waitUntilReadyEv:000000fc .L214
C:\Users\kenne\AppData\Local\Temp\ccH82gYi.s:1076   .text._ZN7Hd4478015_waitUntilReadyEv:000000f8 .L118
C:\Users\kenne\AppData\Local\Temp\ccH82gYi.s:1099   .text._ZN7Hd4478015_waitUntilReadyEv:00000108 .L119
C:\Users\kenne\AppData\Local\Temp\ccH82gYi.s:1230   .text._ZN7Hd4478015_waitUntilReadyEv:00000184 .L35
C:\Users\kenne\AppData\Local\Temp\ccH82gYi.s:1126   .text._ZN7Hd4478015_waitUntilReadyEv:00000126 .L215
C:\Users\kenne\AppData\Local\Temp\ccH82gYi.s:1123   .text._ZN7Hd4478015_waitUntilReadyEv:00000122 .L120
C:\Users\kenne\AppData\Local\Temp\ccH82gYi.s:1145   .text._ZN7Hd4478015_waitUntilReadyEv:00000130 .L121
C:\Users\kenne\AppData\Local\Temp\ccH82gYi.s:1022   .text._ZN7Hd4478015_waitUntilReadyEv:000000c2 .L29
C:\Users\kenne\AppData\Local\Temp\ccH82gYi.s:1176   .text._ZN7Hd4478015_waitUntilReadyEv:00000150 .L216
C:\Users\kenne\AppData\Local\Temp\ccH82gYi.s:1173   .text._ZN7Hd4478015_waitUntilReadyEv:0000014c .L122
C:\Users\kenne\AppData\Local\Temp\ccH82gYi.s:1195   .text._ZN7Hd4478015_waitUntilReadyEv:0000016a .L217
C:\Users\kenne\AppData\Local\Temp\ccH82gYi.s:1192   .text._ZN7Hd4478015_waitUntilReadyEv:00000166 .L123
C:\Users\kenne\AppData\Local\Temp\ccH82gYi.s:1215   .text._ZN7Hd4478015_waitUntilReadyEv:00000176 .L124
C:\Users\kenne\AppData\Local\Temp\ccH82gYi.s:1103   .text._ZN7Hd4478015_waitUntilReadyEv:0000010e .L31
C:\Users\kenne\AppData\Local\Temp\ccH82gYi.s:1029   .text._ZN7Hd4478015_waitUntilReadyEv:000000c6 .L36
C:\Users\kenne\AppData\Local\Temp\ccH82gYi.s:1253   .text._ZN7Hd4478015_waitUntilReadyEv:000001a8 .L218
C:\Users\kenne\AppData\Local\Temp\ccH82gYi.s:1250   .text._ZN7Hd4478015_waitUntilReadyEv:000001a4 .L125
C:\Users\kenne\AppData\Local\Temp\ccH82gYi.s:1305   .text._ZN7Hd4478015_waitUntilReadyEv:000001f4 .L33
C:\Users\kenne\AppData\Local\Temp\ccH82gYi.s:1277   .text._ZN7Hd4478015_waitUntilReadyEv:000001cc .L219
C:\Users\kenne\AppData\Local\Temp\ccH82gYi.s:1274   .text._ZN7Hd4478015_waitUntilReadyEv:000001c8 .L126
C:\Users\kenne\AppData\Local\Temp\ccH82gYi.s:1294   .text._ZN7Hd4478015_waitUntilReadyEv:000001e8 .L220
C:\Users\kenne\AppData\Local\Temp\ccH82gYi.s:1291   .text._ZN7Hd4478015_waitUntilReadyEv:000001e4 .L127
C:\Users\kenne\AppData\Local\Temp\ccH82gYi.s:1299   .text._ZN7Hd4478015_waitUntilReadyEv:000001f0 .L34
C:\Users\kenne\AppData\Local\Temp\ccH82gYi.s:1390   .text._ZN7Hd4478013_writeCommandEh:00000046 .L38
C:\Users\kenne\AppData\Local\Temp\ccH82gYi.s:1719   .text._ZN7Hd4478013_writeCommandEh:000001b8 .L44
C:\Users\kenne\AppData\Local\Temp\ccH82gYi.s:1384   .text._ZN7Hd4478013_writeCommandEh:0000003c .L221
C:\Users\kenne\AppData\Local\Temp\ccH82gYi.s:1381   .text._ZN7Hd4478013_writeCommandEh:00000038 .L128
C:\Users\kenne\AppData\Local\Temp\ccH82gYi.s:1407   .text._ZN7Hd4478013_writeCommandEh:00000062 .L222
C:\Users\kenne\AppData\Local\Temp\ccH82gYi.s:1404   .text._ZN7Hd4478013_writeCommandEh:0000005e .L129
C:\Users\kenne\AppData\Local\Temp\ccH82gYi.s:1424   .text._ZN7Hd4478013_writeCommandEh:0000007e .L223
C:\Users\kenne\AppData\Local\Temp\ccH82gYi.s:1421   .text._ZN7Hd4478013_writeCommandEh:0000007a .L130
C:\Users\kenne\AppData\Local\Temp\ccH82gYi.s:1726   .text._ZN7Hd4478013_writeCommandEh:000001c0 .L40
C:\Users\kenne\AppData\Local\Temp\ccH82gYi.s:1448   .text._ZN7Hd4478013_writeCommandEh:000000a2 .L224
C:\Users\kenne\AppData\Local\Temp\ccH82gYi.s:1445   .text._ZN7Hd4478013_writeCommandEh:0000009e .L131
C:\Users\kenne\AppData\Local\Temp\ccH82gYi.s:1474   .text._ZN7Hd4478013_writeCommandEh:000000c6 .L225
C:\Users\kenne\AppData\Local\Temp\ccH82gYi.s:1471   .text._ZN7Hd4478013_writeCommandEh:000000c2 .L132
C:\Users\kenne\AppData\Local\Temp\ccH82gYi.s:1493   .text._ZN7Hd4478013_writeCommandEh:000000e4 .L226
C:\Users\kenne\AppData\Local\Temp\ccH82gYi.s:1490   .text._ZN7Hd4478013_writeCommandEh:000000e0 .L133
C:\Users\kenne\AppData\Local\Temp\ccH82gYi.s:1513   .text._ZN7Hd4478013_writeCommandEh:000000f0 .L134
C:\Users\kenne\AppData\Local\Temp\ccH82gYi.s:1530   .text._ZN7Hd4478013_writeCommandEh:00000106 .L227
C:\Users\kenne\AppData\Local\Temp\ccH82gYi.s:1527   .text._ZN7Hd4478013_writeCommandEh:00000102 .L135
C:\Users\kenne\AppData\Local\Temp\ccH82gYi.s:1550   .text._ZN7Hd4478013_writeCommandEh:00000112 .L136
C:\Users\kenne\AppData\Local\Temp\ccH82gYi.s:1567   .text._ZN7Hd4478013_writeCommandEh:00000128 .L228
C:\Users\kenne\AppData\Local\Temp\ccH82gYi.s:1564   .text._ZN7Hd4478013_writeCommandEh:00000124 .L137
C:\Users\kenne\AppData\Local\Temp\ccH82gYi.s:1591   .text._ZN7Hd4478013_writeCommandEh:00000148 .L229
GAS LISTING C:\Users\kenne\AppData\Local\Temp\ccH82gYi.s 			page 143


C:\Users\kenne\AppData\Local\Temp\ccH82gYi.s:1588   .text._ZN7Hd4478013_writeCommandEh:00000144 .L138
C:\Users\kenne\AppData\Local\Temp\ccH82gYi.s:1611   .text._ZN7Hd4478013_writeCommandEh:00000166 .L230
C:\Users\kenne\AppData\Local\Temp\ccH82gYi.s:1608   .text._ZN7Hd4478013_writeCommandEh:00000162 .L139
C:\Users\kenne\AppData\Local\Temp\ccH82gYi.s:1631   .text._ZN7Hd4478013_writeCommandEh:00000172 .L140
C:\Users\kenne\AppData\Local\Temp\ccH82gYi.s:1648   .text._ZN7Hd4478013_writeCommandEh:00000188 .L231
C:\Users\kenne\AppData\Local\Temp\ccH82gYi.s:1645   .text._ZN7Hd4478013_writeCommandEh:00000184 .L141
C:\Users\kenne\AppData\Local\Temp\ccH82gYi.s:1668   .text._ZN7Hd4478013_writeCommandEh:00000194 .L142
C:\Users\kenne\AppData\Local\Temp\ccH82gYi.s:1706   .text._ZN7Hd4478013_writeCommandEh:000001ae .L42
C:\Users\kenne\AppData\Local\Temp\ccH82gYi.s:1735   .text._ZN7Hd4478013_writeCommandEh:000001c8 .L45
C:\Users\kenne\AppData\Local\Temp\ccH82gYi.s:1702   .text._ZN7Hd4478013_writeCommandEh:000001a8 .L143
C:\Users\kenne\AppData\Local\Temp\ccH82gYi.s:1363   .text._ZN7Hd4478013_writeCommandEh:00000018 .L39
C:\Users\kenne\AppData\Local\Temp\ccH82gYi.s:1597   .text._ZN7Hd4478013_writeCommandEh:00000150 .L41
C:\Users\kenne\AppData\Local\Temp\ccH82gYi.s:1750   .text._ZN7Hd4478013_writeCommandEh:000001cc .L144
C:\Users\kenne\AppData\Local\Temp\ccH82gYi.s:2303   .text._ZN7Hd447804initENS_4SizeENS_4FontEbb:00000284 .L47
C:\Users\kenne\AppData\Local\Temp\ccH82gYi.s:1852   .text._ZN7Hd447804initENS_4SizeENS_4FontEbb:00000052 .L232
C:\Users\kenne\AppData\Local\Temp\ccH82gYi.s:1849   .text._ZN7Hd447804initENS_4SizeENS_4FontEbb:0000004e .L145
C:\Users\kenne\AppData\Local\Temp\ccH82gYi.s:1869   .text._ZN7Hd447804initENS_4SizeENS_4FontEbb:0000006e .L233
C:\Users\kenne\AppData\Local\Temp\ccH82gYi.s:1866   .text._ZN7Hd447804initENS_4SizeENS_4FontEbb:0000006a .L146
C:\Users\kenne\AppData\Local\Temp\ccH82gYi.s:1888   .text._ZN7Hd447804initENS_4SizeENS_4FontEbb:0000008c .L234
C:\Users\kenne\AppData\Local\Temp\ccH82gYi.s:1885   .text._ZN7Hd447804initENS_4SizeENS_4FontEbb:00000088 .L147
C:\Users\kenne\AppData\Local\Temp\ccH82gYi.s:1906   .text._ZN7Hd447804initENS_4SizeENS_4FontEbb:000000aa .L235
C:\Users\kenne\AppData\Local\Temp\ccH82gYi.s:1903   .text._ZN7Hd447804initENS_4SizeENS_4FontEbb:000000a6 .L148
C:\Users\kenne\AppData\Local\Temp\ccH82gYi.s:1926   .text._ZN7Hd447804initENS_4SizeENS_4FontEbb:000000cc .L236
C:\Users\kenne\AppData\Local\Temp\ccH82gYi.s:1923   .text._ZN7Hd447804initENS_4SizeENS_4FontEbb:000000c8 .L149
C:\Users\kenne\AppData\Local\Temp\ccH82gYi.s:1946   .text._ZN7Hd447804initENS_4SizeENS_4FontEbb:000000ee .L237
C:\Users\kenne\AppData\Local\Temp\ccH82gYi.s:1943   .text._ZN7Hd447804initENS_4SizeENS_4FontEbb:000000ea .L150
C:\Users\kenne\AppData\Local\Temp\ccH82gYi.s:2007   .text._ZN7Hd447804initENS_4SizeENS_4FontEbb:00000158 .L49
C:\Users\kenne\AppData\Local\Temp\ccH82gYi.s:1976   .text._ZN7Hd447804initENS_4SizeENS_4FontEbb:00000122 .L238
C:\Users\kenne\AppData\Local\Temp\ccH82gYi.s:1973   .text._ZN7Hd447804initENS_4SizeENS_4FontEbb:0000011e .L151
C:\Users\kenne\AppData\Local\Temp\ccH82gYi.s:2001   .text._ZN7Hd447804initENS_4SizeENS_4FontEbb:0000014e .L239
C:\Users\kenne\AppData\Local\Temp\ccH82gYi.s:1998   .text._ZN7Hd447804initENS_4SizeENS_4FontEbb:0000014a .L152
C:\Users\kenne\AppData\Local\Temp\ccH82gYi.s:2023   .text._ZN7Hd447804initENS_4SizeENS_4FontEbb:0000015c .L153
C:\Users\kenne\AppData\Local\Temp\ccH82gYi.s:2318   .text._ZN7Hd447804initENS_4SizeENS_4FontEbb:00000294 .L50
C:\Users\kenne\AppData\Local\Temp\ccH82gYi.s:2055   .text._ZN7Hd447804initENS_4SizeENS_4FontEbb:00000176 .L154
C:\Users\kenne\AppData\Local\Temp\ccH82gYi.s:2083   .text._ZN7Hd447804initENS_4SizeENS_4FontEbb:0000018a .L155
C:\Users\kenne\AppData\Local\Temp\ccH82gYi.s:2112   .text._ZN7Hd447804initENS_4SizeENS_4FontEbb:0000019e .L156
C:\Users\kenne\AppData\Local\Temp\ccH82gYi.s:2382   .text._ZN7Hd447804initENS_4SizeENS_4FontEbb:000002c6 .L61
C:\Users\kenne\AppData\Local\Temp\ccH82gYi.s:2417   .text._ZN7Hd447804initENS_4SizeENS_4FontEbb:000002de .L58
C:\Users\kenne\AppData\Local\Temp\ccH82gYi.s:2421   .text._ZN7Hd447804initENS_4SizeENS_4FontEbb:000002e2 .L59
C:\Users\kenne\AppData\Local\Temp\ccH82gYi.s:2426   .text._ZN7Hd447804initENS_4SizeENS_4FontEbb:000002e6 .L60
C:\Users\kenne\AppData\Local\Temp\ccH82gYi.s:2431   .text._ZN7Hd447804initENS_4SizeENS_4FontEbb:000002ea .L62
C:\Users\kenne\AppData\Local\Temp\ccH82gYi.s:1874   .text._ZN7Hd447804initENS_4SizeENS_4FontEbb:00000076 .L48
C:\Users\kenne\AppData\Local\Temp\ccH82gYi.s:2339   .text._ZN7Hd447804initENS_4SizeENS_4FontEbb:000002a0 .L157
C:\Users\kenne\AppData\Local\Temp\ccH82gYi.s:2367   .text._ZN7Hd447804initENS_4SizeENS_4FontEbb:000002b4 .L158
C:\Users\kenne\AppData\Local\Temp\ccH82gYi.s:2097   .text._ZN7Hd447804initENS_4SizeENS_4FontEbb:0000019a .L51
C:\Users\kenne\AppData\Local\Temp\ccH82gYi.s:2403   .text._ZN7Hd447804initENS_4SizeENS_4FontEbb:000002d2 .L159
C:\Users\kenne\AppData\Local\Temp\ccH82gYi.s:2126   .text._ZN7Hd447804initENS_4SizeENS_4FontEbb:000001ac .L52
C:\Users\kenne\AppData\Local\Temp\ccH82gYi.s:2137   .text._ZN7Hd447804initENS_4SizeENS_4FontEbb:000001b6 .L53
C:\Users\kenne\AppData\Local\Temp\ccH82gYi.s:2154   .text._ZN7Hd447804initENS_4SizeENS_4FontEbb:000001c8 .L54
C:\Users\kenne\AppData\Local\Temp\ccH82gYi.s:2189   .text._ZN7Hd447804initENS_4SizeENS_4FontEbb:000001ee .L55
C:\Users\kenne\AppData\Local\Temp\ccH82gYi.s:2195   .text._ZN7Hd447804initENS_4SizeENS_4FontEbb:000001f4 .L56
C:\Users\kenne\AppData\Local\Temp\ccH82gYi.s:2495   .text._ZN7Hd4478011clearScreenEv:0000002a .L63
C:\Users\kenne\AppData\Local\Temp\ccH82gYi.s:2606   .text._ZN7Hd4478010cursorGoToEhh:00000066 .L66
C:\Users\kenne\AppData\Local\Temp\ccH82gYi.s:2557   .text._ZN7Hd4478010cursorGoToEhh:0000002a .L67
C:\Users\kenne\AppData\Local\Temp\ccH82gYi.s:2743   .text._ZN7Hd4478010cursorGoToEhh:00000114 .L76
C:\Users\kenne\AppData\Local\Temp\ccH82gYi.s:2752   .text._ZN7Hd4478010cursorGoToEhh:0000011a .L70
C:\Users\kenne\AppData\Local\Temp\ccH82gYi.s:2747   .text._ZN7Hd4478010cursorGoToEhh:00000116 .L68
GAS LISTING C:\Users\kenne\AppData\Local\Temp\ccH82gYi.s 			page 144


C:\Users\kenne\AppData\Local\Temp\ccH82gYi.s:2695   .text._ZN7Hd4478010cursorGoToEhh:000000d4 .L77
C:\Users\kenne\AppData\Local\Temp\ccH82gYi.s:2719   .text._ZN7Hd4478010cursorGoToEhh:000000f4 .L78
C:\Users\kenne\AppData\Local\Temp\ccH82gYi.s:2649   .text._ZN7Hd4478010cursorGoToEhh:00000098 .L79
C:\Users\kenne\AppData\Local\Temp\ccH82gYi.s:2672   .text._ZN7Hd4478010cursorGoToEhh:000000b6 .L80
C:\Users\kenne\AppData\Local\Temp\ccH82gYi.s:2617   .text._ZN7Hd4478010cursorGoToEhh:0000006e .L72
C:\Users\kenne\AppData\Local\Temp\ccH82gYi.s:2621   .text._ZN7Hd4478010cursorGoToEhh:00000072 .L73
C:\Users\kenne\AppData\Local\Temp\ccH82gYi.s:2573   .text._ZN7Hd4478010cursorGoToEhh:0000003a .L74
C:\Users\kenne\AppData\Local\Temp\ccH82gYi.s:2578   .text._ZN7Hd4478010cursorGoToEhh:00000040 .L75
C:\Users\kenne\AppData\Local\Temp\ccH82gYi.s:2767   .text._ZN7Hd4478010cursorGoToEhh:00000126 .L81
C:\Users\kenne\AppData\Local\Temp\ccH82gYi.s:2880   .text._ZN7Hd4478018cursorMoveNextLineEv:00000042 .L82
C:\Users\kenne\AppData\Local\Temp\ccH82gYi.s:2943   .text._ZN7Hd4478010cursorHomeEv:0000002a .L84
C:\Users\kenne\AppData\Local\Temp\ccH82gYi.s:3026   .text._ZN7Hd4478010cursorMoveE9Direction:0000003c .L90
C:\Users\kenne\AppData\Local\Temp\ccH82gYi.s:3033   .text._ZN7Hd4478010cursorMoveE9Direction:00000040 .L88
C:\Users\kenne\AppData\Local\Temp\ccH82gYi.s:2984   .text._ZN7Hd4478010cursorMoveE9Direction:00000010 .L87
C:\Users\kenne\AppData\Local\Temp\ccH82gYi.s:3006   .text._ZN7Hd4478010cursorMoveE9Direction:0000002a .L89
C:\Users\kenne\AppData\Local\Temp\ccH82gYi.s:3107   .text._ZN7Hd4478019cursorMoveFirstLineEv:0000002a .L91
C:\Users\kenne\AppData\Local\Temp\ccH82gYi.s:3255   .text._ZN7Hd4478015displayStateSetENS_12DisplayStateE:00000076 .L98
C:\Users\kenne\AppData\Local\Temp\ccH82gYi.s:3263   .text._ZN7Hd4478015displayStateSetENS_12DisplayStateE:0000007e .L99
C:\Users\kenne\AppData\Local\Temp\ccH82gYi.s:3247   .text._ZN7Hd4478015displayStateSetENS_12DisplayStateE:0000006e .L104
C:\Users\kenne\AppData\Local\Temp\ccH82gYi.s:3273   .text._ZN7Hd4478015displayStateSetENS_12DisplayStateE:00000088 .L101
C:\Users\kenne\AppData\Local\Temp\ccH82gYi.s:3280   .text._ZN7Hd4478015displayStateSetENS_12DisplayStateE:0000008c .L102
C:\Users\kenne\AppData\Local\Temp\ccH82gYi.s:3284   .text._ZN7Hd4478015displayStateSetENS_12DisplayStateE:00000090 .L103
C:\Users\kenne\AppData\Local\Temp\ccH82gYi.s:3169   .text._ZN7Hd4478015displayStateSetENS_12DisplayStateE:00000028 .L94
C:\Users\kenne\AppData\Local\Temp\ccH82gYi.s:3178   .text._ZN7Hd4478015displayStateSetENS_12DisplayStateE:0000002e .L95
C:\Users\kenne\AppData\Local\Temp\ccH82gYi.s:3188   .text._ZN7Hd4478015displayStateSetENS_12DisplayStateE:00000036 .L96
C:\Users\kenne\AppData\Local\Temp\ccH82gYi.s:3198   .text._ZN7Hd4478015displayStateSetENS_12DisplayStateE:0000003e .L97
C:\Users\kenne\AppData\Local\Temp\ccH82gYi.s:3365   .text._ZN7Hd4478012displayShiftE9Direction:0000003c .L109
C:\Users\kenne\AppData\Local\Temp\ccH82gYi.s:3372   .text._ZN7Hd4478012displayShiftE9Direction:00000040 .L107
C:\Users\kenne\AppData\Local\Temp\ccH82gYi.s:3323   .text._ZN7Hd4478012displayShiftE9Direction:00000010 .L106
C:\Users\kenne\AppData\Local\Temp\ccH82gYi.s:3345   .text._ZN7Hd4478012displayShiftE9Direction:0000002a .L108
C:\Users\kenne\AppData\Local\Temp\ccH82gYi.s:3531   .text._ZN7Hd4478015_writeCharacterEhb:0000001e .L112
C:\Users\kenne\AppData\Local\Temp\ccH82gYi.s:3848   .text._ZN7Hd4478015_writeCharacterEhb:00000194 .L113
C:\Users\kenne\AppData\Local\Temp\ccH82gYi.s:3861   .text._ZN7Hd4478015_writeCharacterEhb:000001a0 .L118
C:\Users\kenne\AppData\Local\Temp\ccH82gYi.s:3556   .text._ZN7Hd4478015_writeCharacterEhb:00000040 .L240
C:\Users\kenne\AppData\Local\Temp\ccH82gYi.s:3553   .text._ZN7Hd4478015_writeCharacterEhb:0000003c .L160
C:\Users\kenne\AppData\Local\Temp\ccH82gYi.s:3572   .text._ZN7Hd4478015_writeCharacterEhb:0000005a .L241
C:\Users\kenne\AppData\Local\Temp\ccH82gYi.s:3569   .text._ZN7Hd4478015_writeCharacterEhb:00000056 .L161
C:\Users\kenne\AppData\Local\Temp\ccH82gYi.s:3894   .text._ZN7Hd4478015_writeCharacterEhb:000001d6 .L115
C:\Users\kenne\AppData\Local\Temp\ccH82gYi.s:3596   .text._ZN7Hd4478015_writeCharacterEhb:0000007e .L242
C:\Users\kenne\AppData\Local\Temp\ccH82gYi.s:3593   .text._ZN7Hd4478015_writeCharacterEhb:0000007a .L162
C:\Users\kenne\AppData\Local\Temp\ccH82gYi.s:3622   .text._ZN7Hd4478015_writeCharacterEhb:000000a2 .L243
C:\Users\kenne\AppData\Local\Temp\ccH82gYi.s:3619   .text._ZN7Hd4478015_writeCharacterEhb:0000009e .L163
C:\Users\kenne\AppData\Local\Temp\ccH82gYi.s:3641   .text._ZN7Hd4478015_writeCharacterEhb:000000c0 .L244
C:\Users\kenne\AppData\Local\Temp\ccH82gYi.s:3638   .text._ZN7Hd4478015_writeCharacterEhb:000000bc .L164
C:\Users\kenne\AppData\Local\Temp\ccH82gYi.s:3661   .text._ZN7Hd4478015_writeCharacterEhb:000000cc .L165
C:\Users\kenne\AppData\Local\Temp\ccH82gYi.s:3678   .text._ZN7Hd4478015_writeCharacterEhb:000000e2 .L245
C:\Users\kenne\AppData\Local\Temp\ccH82gYi.s:3675   .text._ZN7Hd4478015_writeCharacterEhb:000000de .L166
C:\Users\kenne\AppData\Local\Temp\ccH82gYi.s:3698   .text._ZN7Hd4478015_writeCharacterEhb:000000ee .L167
C:\Users\kenne\AppData\Local\Temp\ccH82gYi.s:3715   .text._ZN7Hd4478015_writeCharacterEhb:00000104 .L246
C:\Users\kenne\AppData\Local\Temp\ccH82gYi.s:3712   .text._ZN7Hd4478015_writeCharacterEhb:00000100 .L168
C:\Users\kenne\AppData\Local\Temp\ccH82gYi.s:3741   .text._ZN7Hd4478015_writeCharacterEhb:00000124 .L247
C:\Users\kenne\AppData\Local\Temp\ccH82gYi.s:3738   .text._ZN7Hd4478015_writeCharacterEhb:00000120 .L169
C:\Users\kenne\AppData\Local\Temp\ccH82gYi.s:3761   .text._ZN7Hd4478015_writeCharacterEhb:00000142 .L248
C:\Users\kenne\AppData\Local\Temp\ccH82gYi.s:3758   .text._ZN7Hd4478015_writeCharacterEhb:0000013e .L170
C:\Users\kenne\AppData\Local\Temp\ccH82gYi.s:3781   .text._ZN7Hd4478015_writeCharacterEhb:0000014e .L171
C:\Users\kenne\AppData\Local\Temp\ccH82gYi.s:3798   .text._ZN7Hd4478015_writeCharacterEhb:00000164 .L249
C:\Users\kenne\AppData\Local\Temp\ccH82gYi.s:3795   .text._ZN7Hd4478015_writeCharacterEhb:00000160 .L172
GAS LISTING C:\Users\kenne\AppData\Local\Temp\ccH82gYi.s 			page 145


C:\Users\kenne\AppData\Local\Temp\ccH82gYi.s:3828   .text._ZN7Hd4478015_writeCharacterEhb:0000017c .L117
C:\Users\kenne\AppData\Local\Temp\ccH82gYi.s:3824   .text._ZN7Hd4478015_writeCharacterEhb:00000176 .L173
C:\Users\kenne\AppData\Local\Temp\ccH82gYi.s:3887   .text._ZN7Hd4478015_writeCharacterEhb:000001ca .L250
C:\Users\kenne\AppData\Local\Temp\ccH82gYi.s:3884   .text._ZN7Hd4478015_writeCharacterEhb:000001c6 .L174
C:\Users\kenne\AppData\Local\Temp\ccH82gYi.s:3539   .text._ZN7Hd4478015_writeCharacterEhb:00000024 .L114
C:\Users\kenne\AppData\Local\Temp\ccH82gYi.s:3747   .text._ZN7Hd4478015_writeCharacterEhb:0000012c .L116
C:\Users\kenne\AppData\Local\Temp\ccH82gYi.s:3991   .text._ZL11lcdWriteStdcP6__file:0000005c .L120
C:\Users\kenne\AppData\Local\Temp\ccH82gYi.s:3969   .text._ZL11lcdWriteStdcP6__file:00000042 .L121
C:\Users\kenne\AppData\Local\Temp\ccH82gYi.s:3957   .text._ZL11lcdWriteStdcP6__file:00000030 .L122
C:\Users\kenne\AppData\Local\Temp\ccH82gYi.s:3979   .text._ZL11lcdWriteStdcP6__file:00000052 .L123
C:\Users\kenne\AppData\Local\Temp\ccH82gYi.s:4120   .text._ZN7Hd4478018customCharacterSetEhPKh:0000005e .L125
C:\Users\kenne\AppData\Local\Temp\ccH82gYi.s:4056   .text._ZN7Hd4478018customCharacterSetEhPKh:00000024 .L134
C:\Users\kenne\AppData\Local\Temp\ccH82gYi.s:4110   .text._ZN7Hd4478018customCharacterSetEhPKh:00000052 .L124
C:\Users\kenne\AppData\Local\Temp\ccH82gYi.s:4090   .text._ZN7Hd4478018customCharacterSetEhPKh:00000046 .L127
C:\Users\kenne\AppData\Local\Temp\ccH82gYi.s:4075   .text._ZN7Hd4478018customCharacterSetEhPKh:00000034 .L128
C:\Users\kenne\AppData\Local\Temp\ccH82gYi.s:4132   .text._ZN7Hd4478018customCharacterSetEhPKh:00000066 .L135
C:\Users\kenne\AppData\Local\Temp\ccH82gYi.s:4171   .text._ZN7Hd4478018customCharacterSetEhPKh:0000008e .L130
C:\Users\kenne\AppData\Local\Temp\ccH82gYi.s:4156   .text._ZN7Hd4478018customCharacterSetEhPKh:0000007c .L131
C:\Users\kenne\AppData\Local\Temp\ccH82gYi.s:4095   .text._ZN7Hd4478018customCharacterSetEhPKh:0000004a .L129
C:\Users\kenne\AppData\Local\Temp\ccH82gYi.s:6935   .debug_abbrev:00000000 .Ldebug_abbrev0
C:\Users\kenne\AppData\Local\Temp\ccH82gYi.s:11252  .debug_rnglists:0000000c .LLRL129
C:\Users\kenne\AppData\Local\Temp\ccH82gYi.s:11325  .debug_line:00000000 .Ldebug_line0
C:\Users\kenne\AppData\Local\Temp\ccH82gYi.s:3909   .text._ZL11lcdWriteStdcP6__file:00000000 .LFB58
C:\Users\kenne\AppData\Local\Temp\ccH82gYi.s:4001   .text._ZL11lcdWriteStdcP6__file:00000066 .LFE58
C:\Users\kenne\AppData\Local\Temp\ccH82gYi.s:8076   .debug_loclists:00000016 .LLST120
C:\Users\kenne\AppData\Local\Temp\ccH82gYi.s:8065   .debug_loclists:0000000c .LVUS120
C:\Users\kenne\AppData\Local\Temp\ccH82gYi.s:8116   .debug_loclists:0000003f .LLST121
C:\Users\kenne\AppData\Local\Temp\ccH82gYi.s:8111   .debug_loclists:0000003b .LVUS121
C:\Users\kenne\AppData\Local\Temp\ccH82gYi.s:8143   .debug_loclists:0000005b .LLST122
C:\Users\kenne\AppData\Local\Temp\ccH82gYi.s:8138   .debug_loclists:00000057 .LVUS122
C:\Users\kenne\AppData\Local\Temp\ccH82gYi.s:8164   .debug_loclists:00000071 .LLST123
C:\Users\kenne\AppData\Local\Temp\ccH82gYi.s:8157   .debug_loclists:0000006b .LVUS123
C:\Users\kenne\AppData\Local\Temp\ccH82gYi.s:3965   .text._ZL11lcdWriteStdcP6__file:00000040 .LVL212
C:\Users\kenne\AppData\Local\Temp\ccH82gYi.s:3978   .text._ZL11lcdWriteStdcP6__file:00000052 .LVL214
C:\Users\kenne\AppData\Local\Temp\ccH82gYi.s:3997   .text._ZL11lcdWriteStdcP6__file:00000064 .LVL217
C:\Users\kenne\AppData\Local\Temp\ccH82gYi.s:3494   .text._ZN7Hd4478015_writeCharacterEhb:00000000 .LFB57
C:\Users\kenne\AppData\Local\Temp\ccH82gYi.s:3903   .text._ZN7Hd4478015_writeCharacterEhb:000001de .LFE57
C:\Users\kenne\AppData\Local\Temp\ccH82gYi.s:8190   .debug_loclists:0000008c .LLST105
C:\Users\kenne\AppData\Local\Temp\ccH82gYi.s:8185   .debug_loclists:00000088 .LVUS105
C:\Users\kenne\AppData\Local\Temp\ccH82gYi.s:8221   .debug_loclists:000000ad .LLST106
C:\Users\kenne\AppData\Local\Temp\ccH82gYi.s:8212   .debug_loclists:000000a5 .LVUS106
C:\Users\kenne\AppData\Local\Temp\ccH82gYi.s:8257   .debug_loclists:000000d7 .LLST107
C:\Users\kenne\AppData\Local\Temp\ccH82gYi.s:8248   .debug_loclists:000000cf .LVUS107
C:\Users\kenne\AppData\Local\Temp\ccH82gYi.s:3650   .text._ZN7Hd4478015_writeCharacterEhb:000000ca .LBI91
C:\Users\kenne\AppData\Local\Temp\ccH82gYi.s:3649   .text._ZN7Hd4478015_writeCharacterEhb:000000ca .LBB91
C:\Users\kenne\AppData\Local\Temp\ccH82gYi.s:3667   .text._ZN7Hd4478015_writeCharacterEhb:000000d2 .LBE91
C:\Users\kenne\AppData\Local\Temp\ccH82gYi.s:8287   .debug_loclists:000000fb .LLST108
C:\Users\kenne\AppData\Local\Temp\ccH82gYi.s:8284   .debug_loclists:000000f9 .LVUS108
C:\Users\kenne\AppData\Local\Temp\ccH82gYi.s:8299   .debug_loclists:0000010b .LLST109
C:\Users\kenne\AppData\Local\Temp\ccH82gYi.s:8296   .debug_loclists:00000109 .LVUS109
C:\Users\kenne\AppData\Local\Temp\ccH82gYi.s:8311   .debug_loclists:0000011b .LLST110
C:\Users\kenne\AppData\Local\Temp\ccH82gYi.s:8308   .debug_loclists:00000119 .LVUS110
C:\Users\kenne\AppData\Local\Temp\ccH82gYi.s:3687   .text._ZN7Hd4478015_writeCharacterEhb:000000ec .LBI93
C:\Users\kenne\AppData\Local\Temp\ccH82gYi.s:3686   .text._ZN7Hd4478015_writeCharacterEhb:000000ec .LBB93
C:\Users\kenne\AppData\Local\Temp\ccH82gYi.s:3704   .text._ZN7Hd4478015_writeCharacterEhb:000000f4 .LBE93
C:\Users\kenne\AppData\Local\Temp\ccH82gYi.s:8322   .debug_loclists:00000127 .LLST111
C:\Users\kenne\AppData\Local\Temp\ccH82gYi.s:8319   .debug_loclists:00000125 .LVUS111
GAS LISTING C:\Users\kenne\AppData\Local\Temp\ccH82gYi.s 			page 146


C:\Users\kenne\AppData\Local\Temp\ccH82gYi.s:8334   .debug_loclists:00000137 .LLST112
C:\Users\kenne\AppData\Local\Temp\ccH82gYi.s:8331   .debug_loclists:00000135 .LVUS112
C:\Users\kenne\AppData\Local\Temp\ccH82gYi.s:8346   .debug_loclists:00000147 .LLST113
C:\Users\kenne\AppData\Local\Temp\ccH82gYi.s:8343   .debug_loclists:00000145 .LVUS113
C:\Users\kenne\AppData\Local\Temp\ccH82gYi.s:3770   .text._ZN7Hd4478015_writeCharacterEhb:0000014c .LBI95
C:\Users\kenne\AppData\Local\Temp\ccH82gYi.s:3769   .text._ZN7Hd4478015_writeCharacterEhb:0000014c .LBB95
C:\Users\kenne\AppData\Local\Temp\ccH82gYi.s:3787   .text._ZN7Hd4478015_writeCharacterEhb:00000154 .LBE95
C:\Users\kenne\AppData\Local\Temp\ccH82gYi.s:8357   .debug_loclists:00000153 .LLST114
C:\Users\kenne\AppData\Local\Temp\ccH82gYi.s:8354   .debug_loclists:00000151 .LVUS114
C:\Users\kenne\AppData\Local\Temp\ccH82gYi.s:8369   .debug_loclists:00000163 .LLST115
C:\Users\kenne\AppData\Local\Temp\ccH82gYi.s:8366   .debug_loclists:00000161 .LVUS115
C:\Users\kenne\AppData\Local\Temp\ccH82gYi.s:8381   .debug_loclists:00000173 .LLST116
C:\Users\kenne\AppData\Local\Temp\ccH82gYi.s:8378   .debug_loclists:00000171 .LVUS116
C:\Users\kenne\AppData\Local\Temp\ccH82gYi.s:3813   .text._ZN7Hd4478015_writeCharacterEhb:00000174 .LBI97
C:\Users\kenne\AppData\Local\Temp\ccH82gYi.s:3812   .text._ZN7Hd4478015_writeCharacterEhb:00000174 .LBB97
C:\Users\kenne\AppData\Local\Temp\ccH82gYi.s:3831   .text._ZN7Hd4478015_writeCharacterEhb:0000017c .LBE97
C:\Users\kenne\AppData\Local\Temp\ccH82gYi.s:8392   .debug_loclists:0000017f .LLST117
C:\Users\kenne\AppData\Local\Temp\ccH82gYi.s:8389   .debug_loclists:0000017d .LVUS117
C:\Users\kenne\AppData\Local\Temp\ccH82gYi.s:8404   .debug_loclists:0000018f .LLST118
C:\Users\kenne\AppData\Local\Temp\ccH82gYi.s:8401   .debug_loclists:0000018d .LVUS118
C:\Users\kenne\AppData\Local\Temp\ccH82gYi.s:8416   .debug_loclists:0000019f .LLST119
C:\Users\kenne\AppData\Local\Temp\ccH82gYi.s:8413   .debug_loclists:0000019d .LVUS119
C:\Users\kenne\AppData\Local\Temp\ccH82gYi.s:3866   .text._ZN7Hd4478015_writeCharacterEhb:000001a6 .LVL205
C:\Users\kenne\AppData\Local\Temp\ccH82gYi.s:887    .text._ZN7Hd4478015_waitUntilReadyEv:00000000 .LFB56
C:\Users\kenne\AppData\Local\Temp\ccH82gYi.s:1322   .text._ZN7Hd4478015_waitUntilReadyEv:00000206 .LFE56
C:\Users\kenne\AppData\Local\Temp\ccH82gYi.s:8430   .debug_loclists:000001af .LLST22
C:\Users\kenne\AppData\Local\Temp\ccH82gYi.s:8425   .debug_loclists:000001ab .LVUS22
C:\Users\kenne\AppData\Local\Temp\ccH82gYi.s:8461   .debug_loclists:000001d0 .LLST23
C:\Users\kenne\AppData\Local\Temp\ccH82gYi.s:8452   .debug_loclists:000001c8 .LVUS23
C:\Users\kenne\AppData\Local\Temp\ccH82gYi.s:1051   .text._ZN7Hd4478015_waitUntilReadyEv:000000e4 .LBI57
C:\Users\kenne\AppData\Local\Temp\ccH82gYi.s:1050   .text._ZN7Hd4478015_waitUntilReadyEv:000000e4 .LBB57
C:\Users\kenne\AppData\Local\Temp\ccH82gYi.s:1068   .text._ZN7Hd4478015_waitUntilReadyEv:000000ec .LBE57
C:\Users\kenne\AppData\Local\Temp\ccH82gYi.s:8490   .debug_loclists:000001f5 .LLST24
C:\Users\kenne\AppData\Local\Temp\ccH82gYi.s:8487   .debug_loclists:000001f3 .LVUS24
C:\Users\kenne\AppData\Local\Temp\ccH82gYi.s:8502   .debug_loclists:00000205 .LLST25
C:\Users\kenne\AppData\Local\Temp\ccH82gYi.s:8499   .debug_loclists:00000203 .LVUS25
C:\Users\kenne\AppData\Local\Temp\ccH82gYi.s:8514   .debug_loclists:00000215 .LLST26
C:\Users\kenne\AppData\Local\Temp\ccH82gYi.s:8511   .debug_loclists:00000213 .LVUS26
C:\Users\kenne\AppData\Local\Temp\ccH82gYi.s:1088   .text._ZN7Hd4478015_waitUntilReadyEv:00000106 .LBI59
C:\Users\kenne\AppData\Local\Temp\ccH82gYi.s:1087   .text._ZN7Hd4478015_waitUntilReadyEv:00000106 .LBB59
C:\Users\kenne\AppData\Local\Temp\ccH82gYi.s:1106   .text._ZN7Hd4478015_waitUntilReadyEv:0000010e .LBE59
C:\Users\kenne\AppData\Local\Temp\ccH82gYi.s:8525   .debug_loclists:00000221 .LLST27
C:\Users\kenne\AppData\Local\Temp\ccH82gYi.s:8522   .debug_loclists:0000021f .LVUS27
C:\Users\kenne\AppData\Local\Temp\ccH82gYi.s:8537   .debug_loclists:00000231 .LLST28
C:\Users\kenne\AppData\Local\Temp\ccH82gYi.s:8534   .debug_loclists:0000022f .LVUS28
C:\Users\kenne\AppData\Local\Temp\ccH82gYi.s:8549   .debug_loclists:00000241 .LLST29
C:\Users\kenne\AppData\Local\Temp\ccH82gYi.s:8546   .debug_loclists:0000023f .LVUS29
C:\Users\kenne\AppData\Local\Temp\ccH82gYi.s:1134   .text._ZN7Hd4478015_waitUntilReadyEv:0000012e .LBI61
C:\Users\kenne\AppData\Local\Temp\ccH82gYi.s:1133   .text._ZN7Hd4478015_waitUntilReadyEv:0000012e .LBB61
C:\Users\kenne\AppData\Local\Temp\ccH82gYi.s:1151   .text._ZN7Hd4478015_waitUntilReadyEv:00000136 .LBE61
C:\Users\kenne\AppData\Local\Temp\ccH82gYi.s:8560   .debug_loclists:0000024d .LLST30
C:\Users\kenne\AppData\Local\Temp\ccH82gYi.s:8557   .debug_loclists:0000024b .LVUS30
C:\Users\kenne\AppData\Local\Temp\ccH82gYi.s:8572   .debug_loclists:0000025d .LLST31
C:\Users\kenne\AppData\Local\Temp\ccH82gYi.s:8569   .debug_loclists:0000025b .LVUS31
C:\Users\kenne\AppData\Local\Temp\ccH82gYi.s:8584   .debug_loclists:0000026d .LLST32
C:\Users\kenne\AppData\Local\Temp\ccH82gYi.s:8581   .debug_loclists:0000026b .LVUS32
C:\Users\kenne\AppData\Local\Temp\ccH82gYi.s:1204   .text._ZN7Hd4478015_waitUntilReadyEv:00000174 .LBI63
GAS LISTING C:\Users\kenne\AppData\Local\Temp\ccH82gYi.s 			page 147


C:\Users\kenne\AppData\Local\Temp\ccH82gYi.s:1203   .text._ZN7Hd4478015_waitUntilReadyEv:00000174 .LBB63
C:\Users\kenne\AppData\Local\Temp\ccH82gYi.s:1221   .text._ZN7Hd4478015_waitUntilReadyEv:0000017c .LBE63
C:\Users\kenne\AppData\Local\Temp\ccH82gYi.s:8595   .debug_loclists:00000279 .LLST33
C:\Users\kenne\AppData\Local\Temp\ccH82gYi.s:8592   .debug_loclists:00000277 .LVUS33
C:\Users\kenne\AppData\Local\Temp\ccH82gYi.s:8607   .debug_loclists:00000289 .LLST34
C:\Users\kenne\AppData\Local\Temp\ccH82gYi.s:8604   .debug_loclists:00000287 .LVUS34
C:\Users\kenne\AppData\Local\Temp\ccH82gYi.s:8619   .debug_loclists:00000299 .LLST35
C:\Users\kenne\AppData\Local\Temp\ccH82gYi.s:8616   .debug_loclists:00000297 .LVUS35
C:\Users\kenne\AppData\Local\Temp\ccH82gYi.s:1329   .text._ZN7Hd4478013_writeCommandEh:00000000 .LFB55
C:\Users\kenne\AppData\Local\Temp\ccH82gYi.s:1759   .text._ZN7Hd4478013_writeCommandEh:000001d6 .LFE55
C:\Users\kenne\AppData\Local\Temp\ccH82gYi.s:8632   .debug_loclists:000002a7 .LLST36
C:\Users\kenne\AppData\Local\Temp\ccH82gYi.s:8627   .debug_loclists:000002a3 .LVUS36
C:\Users\kenne\AppData\Local\Temp\ccH82gYi.s:8667   .debug_loclists:000002cc .LLST37
C:\Users\kenne\AppData\Local\Temp\ccH82gYi.s:8654   .debug_loclists:000002c0 .LVUS37
C:\Users\kenne\AppData\Local\Temp\ccH82gYi.s:1502   .text._ZN7Hd4478013_writeCommandEh:000000ee .LBI65
C:\Users\kenne\AppData\Local\Temp\ccH82gYi.s:1501   .text._ZN7Hd4478013_writeCommandEh:000000ee .LBB65
C:\Users\kenne\AppData\Local\Temp\ccH82gYi.s:1519   .text._ZN7Hd4478013_writeCommandEh:000000f6 .LBE65
C:\Users\kenne\AppData\Local\Temp\ccH82gYi.s:8711   .debug_loclists:00000302 .LLST38
C:\Users\kenne\AppData\Local\Temp\ccH82gYi.s:8708   .debug_loclists:00000300 .LVUS38
C:\Users\kenne\AppData\Local\Temp\ccH82gYi.s:8723   .debug_loclists:00000312 .LLST39
C:\Users\kenne\AppData\Local\Temp\ccH82gYi.s:8720   .debug_loclists:00000310 .LVUS39
C:\Users\kenne\AppData\Local\Temp\ccH82gYi.s:8735   .debug_loclists:00000322 .LLST40
C:\Users\kenne\AppData\Local\Temp\ccH82gYi.s:8732   .debug_loclists:00000320 .LVUS40
C:\Users\kenne\AppData\Local\Temp\ccH82gYi.s:1539   .text._ZN7Hd4478013_writeCommandEh:00000110 .LBI67
C:\Users\kenne\AppData\Local\Temp\ccH82gYi.s:1538   .text._ZN7Hd4478013_writeCommandEh:00000110 .LBB67
C:\Users\kenne\AppData\Local\Temp\ccH82gYi.s:1556   .text._ZN7Hd4478013_writeCommandEh:00000118 .LBE67
C:\Users\kenne\AppData\Local\Temp\ccH82gYi.s:8746   .debug_loclists:0000032e .LLST41
C:\Users\kenne\AppData\Local\Temp\ccH82gYi.s:8743   .debug_loclists:0000032c .LVUS41
C:\Users\kenne\AppData\Local\Temp\ccH82gYi.s:8758   .debug_loclists:0000033e .LLST42
C:\Users\kenne\AppData\Local\Temp\ccH82gYi.s:8755   .debug_loclists:0000033c .LVUS42
C:\Users\kenne\AppData\Local\Temp\ccH82gYi.s:8770   .debug_loclists:0000034e .LLST43
C:\Users\kenne\AppData\Local\Temp\ccH82gYi.s:8767   .debug_loclists:0000034c .LVUS43
C:\Users\kenne\AppData\Local\Temp\ccH82gYi.s:1620   .text._ZN7Hd4478013_writeCommandEh:00000170 .LBI69
C:\Users\kenne\AppData\Local\Temp\ccH82gYi.s:1619   .text._ZN7Hd4478013_writeCommandEh:00000170 .LBB69
C:\Users\kenne\AppData\Local\Temp\ccH82gYi.s:1637   .text._ZN7Hd4478013_writeCommandEh:00000178 .LBE69
C:\Users\kenne\AppData\Local\Temp\ccH82gYi.s:8781   .debug_loclists:0000035a .LLST44
C:\Users\kenne\AppData\Local\Temp\ccH82gYi.s:8778   .debug_loclists:00000358 .LVUS44
C:\Users\kenne\AppData\Local\Temp\ccH82gYi.s:8793   .debug_loclists:0000036a .LLST45
C:\Users\kenne\AppData\Local\Temp\ccH82gYi.s:8790   .debug_loclists:00000368 .LVUS45
C:\Users\kenne\AppData\Local\Temp\ccH82gYi.s:8805   .debug_loclists:0000037a .LLST46
C:\Users\kenne\AppData\Local\Temp\ccH82gYi.s:8802   .debug_loclists:00000378 .LVUS46
C:\Users\kenne\AppData\Local\Temp\ccH82gYi.s:1657   .text._ZN7Hd4478013_writeCommandEh:00000192 .LBI71
C:\Users\kenne\AppData\Local\Temp\ccH82gYi.s:1656   .text._ZN7Hd4478013_writeCommandEh:00000192 .LBB71
C:\Users\kenne\AppData\Local\Temp\ccH82gYi.s:1674   .text._ZN7Hd4478013_writeCommandEh:0000019a .LBE71
C:\Users\kenne\AppData\Local\Temp\ccH82gYi.s:8816   .debug_loclists:00000386 .LLST47
C:\Users\kenne\AppData\Local\Temp\ccH82gYi.s:8813   .debug_loclists:00000384 .LVUS47
C:\Users\kenne\AppData\Local\Temp\ccH82gYi.s:8828   .debug_loclists:00000396 .LLST48
C:\Users\kenne\AppData\Local\Temp\ccH82gYi.s:8825   .debug_loclists:00000394 .LVUS48
C:\Users\kenne\AppData\Local\Temp\ccH82gYi.s:8840   .debug_loclists:000003a6 .LLST49
C:\Users\kenne\AppData\Local\Temp\ccH82gYi.s:8837   .debug_loclists:000003a4 .LVUS49
C:\Users\kenne\AppData\Local\Temp\ccH82gYi.s:1691   .text._ZN7Hd4478013_writeCommandEh:000001a6 .LBI73
C:\Users\kenne\AppData\Local\Temp\ccH82gYi.s:1690   .text._ZN7Hd4478013_writeCommandEh:000001a6 .LBB73
C:\Users\kenne\AppData\Local\Temp\ccH82gYi.s:1709   .text._ZN7Hd4478013_writeCommandEh:000001ae .LBE73
C:\Users\kenne\AppData\Local\Temp\ccH82gYi.s:8851   .debug_loclists:000003b2 .LLST50
C:\Users\kenne\AppData\Local\Temp\ccH82gYi.s:8848   .debug_loclists:000003b0 .LVUS50
C:\Users\kenne\AppData\Local\Temp\ccH82gYi.s:8863   .debug_loclists:000003c2 .LLST51
C:\Users\kenne\AppData\Local\Temp\ccH82gYi.s:8860   .debug_loclists:000003c0 .LVUS51
GAS LISTING C:\Users\kenne\AppData\Local\Temp\ccH82gYi.s 			page 148


C:\Users\kenne\AppData\Local\Temp\ccH82gYi.s:8875   .debug_loclists:000003d2 .LLST52
C:\Users\kenne\AppData\Local\Temp\ccH82gYi.s:8872   .debug_loclists:000003d0 .LVUS52
C:\Users\kenne\AppData\Local\Temp\ccH82gYi.s:1738   .text._ZN7Hd4478013_writeCommandEh:000001c8 .LBI75
C:\Users\kenne\AppData\Local\Temp\ccH82gYi.s:1737   .text._ZN7Hd4478013_writeCommandEh:000001c8 .LBB75
C:\Users\kenne\AppData\Local\Temp\ccH82gYi.s:1757   .text._ZN7Hd4478013_writeCommandEh:000001d6 .LBE75
C:\Users\kenne\AppData\Local\Temp\ccH82gYi.s:1724   .text._ZN7Hd4478013_writeCommandEh:000001be .LVL63
C:\Users\kenne\AppData\Local\Temp\ccH82gYi.s:627    .text._ZN7Hd4478017_functionSet8BitsEh:00000000 .LFB54
C:\Users\kenne\AppData\Local\Temp\ccH82gYi.s:880    .text._ZN7Hd4478017_functionSet8BitsEh:00000120 .LFE54
C:\Users\kenne\AppData\Local\Temp\ccH82gYi.s:8889   .debug_loclists:000003e2 .LLST11
C:\Users\kenne\AppData\Local\Temp\ccH82gYi.s:8884   .debug_loclists:000003de .LVUS11
C:\Users\kenne\AppData\Local\Temp\ccH82gYi.s:8916   .debug_loclists:000003ff .LLST12
C:\Users\kenne\AppData\Local\Temp\ccH82gYi.s:8911   .debug_loclists:000003fb .LVUS12
C:\Users\kenne\AppData\Local\Temp\ccH82gYi.s:782    .text._ZN7Hd4478017_functionSet8BitsEh:000000da .LBI51
C:\Users\kenne\AppData\Local\Temp\ccH82gYi.s:781    .text._ZN7Hd4478017_functionSet8BitsEh:000000da .LBB51
C:\Users\kenne\AppData\Local\Temp\ccH82gYi.s:800    .text._ZN7Hd4478017_functionSet8BitsEh:000000e2 .LBE51
C:\Users\kenne\AppData\Local\Temp\ccH82gYi.s:8936   .debug_loclists:00000417 .LLST13
C:\Users\kenne\AppData\Local\Temp\ccH82gYi.s:8933   .debug_loclists:00000415 .LVUS13
C:\Users\kenne\AppData\Local\Temp\ccH82gYi.s:8948   .debug_loclists:00000427 .LLST14
C:\Users\kenne\AppData\Local\Temp\ccH82gYi.s:8945   .debug_loclists:00000425 .LVUS14
C:\Users\kenne\AppData\Local\Temp\ccH82gYi.s:8960   .debug_loclists:00000437 .LLST15
C:\Users\kenne\AppData\Local\Temp\ccH82gYi.s:8957   .debug_loclists:00000435 .LVUS15
C:\Users\kenne\AppData\Local\Temp\ccH82gYi.s:820    .text._ZN7Hd4478017_functionSet8BitsEh:000000fc .LBI53
C:\Users\kenne\AppData\Local\Temp\ccH82gYi.s:819    .text._ZN7Hd4478017_functionSet8BitsEh:000000fc .LBB53
C:\Users\kenne\AppData\Local\Temp\ccH82gYi.s:837    .text._ZN7Hd4478017_functionSet8BitsEh:00000104 .LBE53
C:\Users\kenne\AppData\Local\Temp\ccH82gYi.s:8971   .debug_loclists:00000443 .LLST16
C:\Users\kenne\AppData\Local\Temp\ccH82gYi.s:8968   .debug_loclists:00000441 .LVUS16
C:\Users\kenne\AppData\Local\Temp\ccH82gYi.s:8983   .debug_loclists:00000453 .LLST17
C:\Users\kenne\AppData\Local\Temp\ccH82gYi.s:8980   .debug_loclists:00000451 .LVUS17
C:\Users\kenne\AppData\Local\Temp\ccH82gYi.s:8995   .debug_loclists:00000463 .LLST18
C:\Users\kenne\AppData\Local\Temp\ccH82gYi.s:8992   .debug_loclists:00000461 .LVUS18
C:\Users\kenne\AppData\Local\Temp\ccH82gYi.s:853    .text._ZN7Hd4478017_functionSet8BitsEh:00000110 .LBI55
C:\Users\kenne\AppData\Local\Temp\ccH82gYi.s:852    .text._ZN7Hd4478017_functionSet8BitsEh:00000110 .LBB55
C:\Users\kenne\AppData\Local\Temp\ccH82gYi.s:871    .text._ZN7Hd4478017_functionSet8BitsEh:00000118 .LBE55
C:\Users\kenne\AppData\Local\Temp\ccH82gYi.s:9006   .debug_loclists:0000046f .LLST19
C:\Users\kenne\AppData\Local\Temp\ccH82gYi.s:9003   .debug_loclists:0000046d .LVUS19
C:\Users\kenne\AppData\Local\Temp\ccH82gYi.s:9018   .debug_loclists:0000047f .LLST20
C:\Users\kenne\AppData\Local\Temp\ccH82gYi.s:9015   .debug_loclists:0000047d .LVUS20
C:\Users\kenne\AppData\Local\Temp\ccH82gYi.s:9030   .debug_loclists:0000048f .LLST21
C:\Users\kenne\AppData\Local\Temp\ccH82gYi.s:9027   .debug_loclists:0000048d .LVUS21
C:\Users\kenne\AppData\Local\Temp\ccH82gYi.s:603    .text._ZN7Hd4478012getLastErrorEv:00000000 .LFB53
C:\Users\kenne\AppData\Local\Temp\ccH82gYi.s:620    .text._ZN7Hd4478012getLastErrorEv:00000008 .LFE53
C:\Users\kenne\AppData\Local\Temp\ccH82gYi.s:9044   .debug_loclists:0000049f .LLST10
C:\Users\kenne\AppData\Local\Temp\ccH82gYi.s:9039   .debug_loclists:0000049b .LVUS10
C:\Users\kenne\AppData\Local\Temp\ccH82gYi.s:4008   .text._ZN7Hd4478018customCharacterSetEhPKh:00000000 .LFB52
C:\Users\kenne\AppData\Local\Temp\ccH82gYi.s:4180   .text._ZN7Hd4478018customCharacterSetEhPKh:00000094 .LFE52
C:\Users\kenne\AppData\Local\Temp\ccH82gYi.s:9085   .debug_loclists:000004c9 .LLST124
C:\Users\kenne\AppData\Local\Temp\ccH82gYi.s:9068   .debug_loclists:000004b9 .LVUS124
C:\Users\kenne\AppData\Local\Temp\ccH82gYi.s:9170   .debug_loclists:00000520 .LLST125
C:\Users\kenne\AppData\Local\Temp\ccH82gYi.s:9161   .debug_loclists:00000518 .LVUS125
C:\Users\kenne\AppData\Local\Temp\ccH82gYi.s:9209   .debug_loclists:00000549 .LLST126
C:\Users\kenne\AppData\Local\Temp\ccH82gYi.s:9200   .debug_loclists:00000541 .LVUS126
C:\Users\kenne\AppData\Local\Temp\ccH82gYi.s:4071   .text._ZN7Hd4478018customCharacterSetEhPKh:00000032 .LBB101
C:\Users\kenne\AppData\Local\Temp\ccH82gYi.s:4097   .text._ZN7Hd4478018customCharacterSetEhPKh:0000004a .LBE101
C:\Users\kenne\AppData\Local\Temp\ccH82gYi.s:9254   .debug_loclists:00000578 .LLST127
C:\Users\kenne\AppData\Local\Temp\ccH82gYi.s:9249   .debug_loclists:00000574 .LVUS127
C:\Users\kenne\AppData\Local\Temp\ccH82gYi.s:4086   .text._ZN7Hd4478018customCharacterSetEhPKh:00000044 .LVL225
C:\Users\kenne\AppData\Local\Temp\ccH82gYi.s:4150   .text._ZN7Hd4478018customCharacterSetEhPKh:00000078 .LBB103
GAS LISTING C:\Users\kenne\AppData\Local\Temp\ccH82gYi.s 			page 149


C:\Users\kenne\AppData\Local\Temp\ccH82gYi.s:4176   .text._ZN7Hd4478018customCharacterSetEhPKh:00000094 .LBE103
C:\Users\kenne\AppData\Local\Temp\ccH82gYi.s:9274   .debug_loclists:0000058d .LLST128
C:\Users\kenne\AppData\Local\Temp\ccH82gYi.s:9269   .debug_loclists:00000589 .LVUS128
C:\Users\kenne\AppData\Local\Temp\ccH82gYi.s:4167   .text._ZN7Hd4478018customCharacterSetEhPKh:0000008c .LVL235
C:\Users\kenne\AppData\Local\Temp\ccH82gYi.s:4069   .text._ZN7Hd4478018customCharacterSetEhPKh:00000032 .LVL223
C:\Users\kenne\AppData\Local\Temp\ccH82gYi.s:4148   .text._ZN7Hd4478018customCharacterSetEhPKh:00000078 .LVL233
C:\Users\kenne\AppData\Local\Temp\ccH82gYi.s:548    .text._ZN7Hd447805stdioEv:00000000 .LFB51
C:\Users\kenne\AppData\Local\Temp\ccH82gYi.s:596    .text._ZN7Hd447805stdioEv:00000030 .LFE51
C:\Users\kenne\AppData\Local\Temp\ccH82gYi.s:9294   .debug_loclists:000005a2 .LLST9
C:\Users\kenne\AppData\Local\Temp\ccH82gYi.s:9289   .debug_loclists:0000059e .LVUS9
C:\Users\kenne\AppData\Local\Temp\ccH82gYi.s:3397   .text._ZN7Hd4478012entryModeSetENS_4StepENS_11DisplayModeE:00000000 .LFB50
C:\Users\kenne\AppData\Local\Temp\ccH82gYi.s:3487   .text._ZN7Hd4478012entryModeSetENS_4StepENS_11DisplayModeE:0000004c .LFE50
C:\Users\kenne\AppData\Local\Temp\ccH82gYi.s:9321   .debug_loclists:000005be .LLST101
C:\Users\kenne\AppData\Local\Temp\ccH82gYi.s:9316   .debug_loclists:000005ba .LVUS101
C:\Users\kenne\AppData\Local\Temp\ccH82gYi.s:9348   .debug_loclists:000005da .LLST102
C:\Users\kenne\AppData\Local\Temp\ccH82gYi.s:9343   .debug_loclists:000005d6 .LVUS102
C:\Users\kenne\AppData\Local\Temp\ccH82gYi.s:9367   .debug_loclists:000005ee .LLST103
C:\Users\kenne\AppData\Local\Temp\ccH82gYi.s:9362   .debug_loclists:000005ea .LVUS103
C:\Users\kenne\AppData\Local\Temp\ccH82gYi.s:9392   .debug_loclists:00000608 .LLST104
C:\Users\kenne\AppData\Local\Temp\ccH82gYi.s:9381   .debug_loclists:000005fe .LVUS104
C:\Users\kenne\AppData\Local\Temp\ccH82gYi.s:3455   .text._ZN7Hd4478012entryModeSetENS_4StepENS_11DisplayModeE:0000002e .LVL188
C:\Users\kenne\AppData\Local\Temp\ccH82gYi.s:3296   .text._ZN7Hd4478012displayShiftE9Direction:00000000 .LFB49
C:\Users\kenne\AppData\Local\Temp\ccH82gYi.s:3390   .text._ZN7Hd4478012displayShiftE9Direction:00000056 .LFE49
C:\Users\kenne\AppData\Local\Temp\ccH82gYi.s:9508   .debug_loclists:0000067d .LLST98
C:\Users\kenne\AppData\Local\Temp\ccH82gYi.s:9503   .debug_loclists:00000679 .LVUS98
C:\Users\kenne\AppData\Local\Temp\ccH82gYi.s:9543   .debug_loclists:000006a1 .LLST99
C:\Users\kenne\AppData\Local\Temp\ccH82gYi.s:9530   .debug_loclists:00000695 .LVUS99
C:\Users\kenne\AppData\Local\Temp\ccH82gYi.s:9592   .debug_loclists:000006d3 .LLST100
C:\Users\kenne\AppData\Local\Temp\ccH82gYi.s:9583   .debug_loclists:000006cb .LVUS100
C:\Users\kenne\AppData\Local\Temp\ccH82gYi.s:3350   .text._ZN7Hd4478012displayShiftE9Direction:00000030 .LVL175
C:\Users\kenne\AppData\Local\Temp\ccH82gYi.s:3121   .text._ZN7Hd4478015displayStateSetENS_12DisplayStateE:00000000 .LFB48
C:\Users\kenne\AppData\Local\Temp\ccH82gYi.s:3289   .text._ZN7Hd4478015displayStateSetENS_12DisplayStateE:00000094 .LFE48
C:\Users\kenne\AppData\Local\Temp\ccH82gYi.s:9625   .debug_loclists:000006f5 .LLST92
C:\Users\kenne\AppData\Local\Temp\ccH82gYi.s:9620   .debug_loclists:000006f1 .LVUS92
C:\Users\kenne\AppData\Local\Temp\ccH82gYi.s:9656   .debug_loclists:00000716 .LLST93
C:\Users\kenne\AppData\Local\Temp\ccH82gYi.s:9647   .debug_loclists:0000070e .LVUS93
C:\Users\kenne\AppData\Local\Temp\ccH82gYi.s:9709   .debug_loclists:0000074f .LLST94
C:\Users\kenne\AppData\Local\Temp\ccH82gYi.s:9696   .debug_loclists:00000743 .LVUS94
C:\Users\kenne\AppData\Local\Temp\ccH82gYi.s:9756   .debug_loclists:00000780 .LLST95
C:\Users\kenne\AppData\Local\Temp\ccH82gYi.s:9747   .debug_loclists:00000778 .LVUS95
C:\Users\kenne\AppData\Local\Temp\ccH82gYi.s:9791   .debug_loclists:000007a5 .LLST96
C:\Users\kenne\AppData\Local\Temp\ccH82gYi.s:9782   .debug_loclists:0000079d .LVUS96
C:\Users\kenne\AppData\Local\Temp\ccH82gYi.s:9826   .debug_loclists:000007ca .LLST97
C:\Users\kenne\AppData\Local\Temp\ccH82gYi.s:9817   .debug_loclists:000007c2 .LVUS97
C:\Users\kenne\AppData\Local\Temp\ccH82gYi.s:3206   .text._ZN7Hd4478015displayStateSetENS_12DisplayStateE:00000046 .LVL162
C:\Users\kenne\AppData\Local\Temp\ccH82gYi.s:2813   .text._ZN7Hd4478018cursorMoveNextLineEv:00000000 .LFB47
C:\Users\kenne\AppData\Local\Temp\ccH82gYi.s:2887   .text._ZN7Hd4478018cursorMoveNextLineEv:00000048 .LFE47
C:\Users\kenne\AppData\Local\Temp\ccH82gYi.s:9857   .debug_loclists:000007eb .LLST85
C:\Users\kenne\AppData\Local\Temp\ccH82gYi.s:9852   .debug_loclists:000007e7 .LVUS85
C:\Users\kenne\AppData\Local\Temp\ccH82gYi.s:9884   .debug_loclists:00000807 .LLST86
C:\Users\kenne\AppData\Local\Temp\ccH82gYi.s:9879   .debug_loclists:00000803 .LVUS86
C:\Users\kenne\AppData\Local\Temp\ccH82gYi.s:2869   .text._ZN7Hd4478018cursorMoveNextLineEv:0000003a .LVL137
C:\Users\kenne\AppData\Local\Temp\ccH82gYi.s:3058   .text._ZN7Hd4478019cursorMoveFirstLineEv:00000000 .LFB46
C:\Users\kenne\AppData\Local\Temp\ccH82gYi.s:3114   .text._ZN7Hd4478019cursorMoveFirstLineEv:00000030 .LFE46
C:\Users\kenne\AppData\Local\Temp\ccH82gYi.s:9903   .debug_loclists:0000081b .LLST91
C:\Users\kenne\AppData\Local\Temp\ccH82gYi.s:9898   .debug_loclists:00000817 .LVUS91
C:\Users\kenne\AppData\Local\Temp\ccH82gYi.s:3083   .text._ZN7Hd4478019cursorMoveFirstLineEv:00000010 .LVL153
GAS LISTING C:\Users\kenne\AppData\Local\Temp\ccH82gYi.s 			page 150


C:\Users\kenne\AppData\Local\Temp\ccH82gYi.s:2957   .text._ZN7Hd4478010cursorMoveE9Direction:00000000 .LFB45
C:\Users\kenne\AppData\Local\Temp\ccH82gYi.s:3051   .text._ZN7Hd4478010cursorMoveE9Direction:00000056 .LFE45
C:\Users\kenne\AppData\Local\Temp\ccH82gYi.s:9930   .debug_loclists:00000837 .LLST88
C:\Users\kenne\AppData\Local\Temp\ccH82gYi.s:9925   .debug_loclists:00000833 .LVUS88
C:\Users\kenne\AppData\Local\Temp\ccH82gYi.s:9965   .debug_loclists:0000085b .LLST89
C:\Users\kenne\AppData\Local\Temp\ccH82gYi.s:9952   .debug_loclists:0000084f .LVUS89
C:\Users\kenne\AppData\Local\Temp\ccH82gYi.s:10014  .debug_loclists:0000088d .LLST90
C:\Users\kenne\AppData\Local\Temp\ccH82gYi.s:10005  .debug_loclists:00000885 .LVUS90
C:\Users\kenne\AppData\Local\Temp\ccH82gYi.s:3011   .text._ZN7Hd4478010cursorMoveE9Direction:00000030 .LVL146
C:\Users\kenne\AppData\Local\Temp\ccH82gYi.s:2894   .text._ZN7Hd4478010cursorHomeEv:00000000 .LFB44
C:\Users\kenne\AppData\Local\Temp\ccH82gYi.s:2950   .text._ZN7Hd4478010cursorHomeEv:00000030 .LFE44
C:\Users\kenne\AppData\Local\Temp\ccH82gYi.s:10045  .debug_loclists:000008ad .LLST87
C:\Users\kenne\AppData\Local\Temp\ccH82gYi.s:10040  .debug_loclists:000008a9 .LVUS87
C:\Users\kenne\AppData\Local\Temp\ccH82gYi.s:2919   .text._ZN7Hd4478010cursorHomeEv:00000010 .LVL140
C:\Users\kenne\AppData\Local\Temp\ccH82gYi.s:2509   .text._ZN7Hd4478010cursorGoToEhh:00000000 .LFB43
C:\Users\kenne\AppData\Local\Temp\ccH82gYi.s:2806   .text._ZN7Hd4478010cursorGoToEhh:0000015a .LFE43
C:\Users\kenne\AppData\Local\Temp\ccH82gYi.s:10084  .debug_loclists:000008d5 .LLST81
C:\Users\kenne\AppData\Local\Temp\ccH82gYi.s:10067  .debug_loclists:000008c5 .LVUS81
C:\Users\kenne\AppData\Local\Temp\ccH82gYi.s:10169  .debug_loclists:00000930 .LLST82
C:\Users\kenne\AppData\Local\Temp\ccH82gYi.s:10160  .debug_loclists:00000928 .LVUS82
C:\Users\kenne\AppData\Local\Temp\ccH82gYi.s:10208  .debug_loclists:0000095f .LLST83
C:\Users\kenne\AppData\Local\Temp\ccH82gYi.s:10199  .debug_loclists:00000957 .LVUS83
C:\Users\kenne\AppData\Local\Temp\ccH82gYi.s:10273  .debug_loclists:000009a8 .LLST84
C:\Users\kenne\AppData\Local\Temp\ccH82gYi.s:10238  .debug_loclists:00000986 .LVUS84
C:\Users\kenne\AppData\Local\Temp\ccH82gYi.s:2802   .text._ZN7Hd4478010cursorGoToEhh:00000158 .LVL131
C:\Users\kenne\AppData\Local\Temp\ccH82gYi.s:2446   .text._ZN7Hd4478011clearScreenEv:00000000 .LFB42
C:\Users\kenne\AppData\Local\Temp\ccH82gYi.s:2502   .text._ZN7Hd4478011clearScreenEv:00000030 .LFE42
C:\Users\kenne\AppData\Local\Temp\ccH82gYi.s:10383  .debug_loclists:00000a30 .LLST80
C:\Users\kenne\AppData\Local\Temp\ccH82gYi.s:10378  .debug_loclists:00000a2c .LVUS80
C:\Users\kenne\AppData\Local\Temp\ccH82gYi.s:2471   .text._ZN7Hd4478011clearScreenEv:00000010 .LVL106
C:\Users\kenne\AppData\Local\Temp\ccH82gYi.s:432    .text._ZN7Hd4478011dataPortSetEPVhh:00000000 .LFB41
C:\Users\kenne\AppData\Local\Temp\ccH82gYi.s:541    .text._ZN7Hd4478011dataPortSetEPVhh:0000006e .LFE41
C:\Users\kenne\AppData\Local\Temp\ccH82gYi.s:10410  .debug_loclists:00000a4c .LLST6
C:\Users\kenne\AppData\Local\Temp\ccH82gYi.s:10405  .debug_loclists:00000a48 .LVUS6
C:\Users\kenne\AppData\Local\Temp\ccH82gYi.s:10439  .debug_loclists:00000a6a .LLST7
C:\Users\kenne\AppData\Local\Temp\ccH82gYi.s:10432  .debug_loclists:00000a64 .LVUS7
C:\Users\kenne\AppData\Local\Temp\ccH82gYi.s:10478  .debug_loclists:00000a92 .LLST8
C:\Users\kenne\AppData\Local\Temp\ccH82gYi.s:10471  .debug_loclists:00000a8c .LVUS8
C:\Users\kenne\AppData\Local\Temp\ccH82gYi.s:238    .text._ZN7Hd4478014controlPortSetEPVhhhh:00000000 .LFB40
C:\Users\kenne\AppData\Local\Temp\ccH82gYi.s:425    .text._ZN7Hd4478014controlPortSetEPVhhhh:000000ce .LFE40
C:\Users\kenne\AppData\Local\Temp\ccH82gYi.s:10505  .debug_loclists:00000aae .LLST1
C:\Users\kenne\AppData\Local\Temp\ccH82gYi.s:10500  .debug_loclists:00000aaa .LVUS1
C:\Users\kenne\AppData\Local\Temp\ccH82gYi.s:10532  .debug_loclists:00000acb .LLST2
C:\Users\kenne\AppData\Local\Temp\ccH82gYi.s:10527  .debug_loclists:00000ac7 .LVUS2
C:\Users\kenne\AppData\Local\Temp\ccH82gYi.s:10565  .debug_loclists:00000aee .LLST3
C:\Users\kenne\AppData\Local\Temp\ccH82gYi.s:10554  .debug_loclists:00000ae4 .LVUS3
C:\Users\kenne\AppData\Local\Temp\ccH82gYi.s:10613  .debug_loclists:00000b26 .LLST4
C:\Users\kenne\AppData\Local\Temp\ccH82gYi.s:10600  .debug_loclists:00000b1a .LVUS4
C:\Users\kenne\AppData\Local\Temp\ccH82gYi.s:10664  .debug_loclists:00000b61 .LLST5
C:\Users\kenne\AppData\Local\Temp\ccH82gYi.s:10653  .debug_loclists:00000b57 .LVUS5
C:\Users\kenne\AppData\Local\Temp\ccH82gYi.s:1766   .text._ZN7Hd447804initENS_4SizeENS_4FontEbb:00000000 .LFB39
C:\Users\kenne\AppData\Local\Temp\ccH82gYi.s:2439   .text._ZN7Hd447804initENS_4SizeENS_4FontEbb:000002ee .LFE39
C:\Users\kenne\AppData\Local\Temp\ccH82gYi.s:10704  .debug_loclists:00000b93 .LLST53
C:\Users\kenne\AppData\Local\Temp\ccH82gYi.s:10699  .debug_loclists:00000b8f .LVUS53
C:\Users\kenne\AppData\Local\Temp\ccH82gYi.s:10735  .debug_loclists:00000bb4 .LLST54
C:\Users\kenne\AppData\Local\Temp\ccH82gYi.s:10726  .debug_loclists:00000bac .LVUS54
C:\Users\kenne\AppData\Local\Temp\ccH82gYi.s:10762  .debug_loclists:00000bd5 .LLST55
GAS LISTING C:\Users\kenne\AppData\Local\Temp\ccH82gYi.s 			page 151


C:\Users\kenne\AppData\Local\Temp\ccH82gYi.s:10759  .debug_loclists:00000bd3 .LVUS55
C:\Users\kenne\AppData\Local\Temp\ccH82gYi.s:10778  .debug_loclists:00000be6 .LLST56
C:\Users\kenne\AppData\Local\Temp\ccH82gYi.s:10769  .debug_loclists:00000bde .LVUS56
C:\Users\kenne\AppData\Local\Temp\ccH82gYi.s:10812  .debug_loclists:00000c0e .LLST57
C:\Users\kenne\AppData\Local\Temp\ccH82gYi.s:10805  .debug_loclists:00000c08 .LVUS57
C:\Users\kenne\AppData\Local\Temp\ccH82gYi.s:10853  .debug_loclists:00000c3d .LLST58
C:\Users\kenne\AppData\Local\Temp\ccH82gYi.s:10834  .debug_loclists:00000c2b .LVUS58
C:\Users\kenne\AppData\Local\Temp\ccH82gYi.s:2011   .text._ZN7Hd447804initENS_4SizeENS_4FontEbb:00000158 .LBI77
C:\Users\kenne\AppData\Local\Temp\ccH82gYi.s:2010   .text._ZN7Hd447804initENS_4SizeENS_4FontEbb:00000158 .LBB77
C:\Users\kenne\AppData\Local\Temp\ccH82gYi.s:2030   .text._ZN7Hd447804initENS_4SizeENS_4FontEbb:00000164 .LBE77
C:\Users\kenne\AppData\Local\Temp\ccH82gYi.s:10911  .debug_loclists:00000c89 .LLST59
C:\Users\kenne\AppData\Local\Temp\ccH82gYi.s:10908  .debug_loclists:00000c87 .LVUS59
C:\Users\kenne\AppData\Local\Temp\ccH82gYi.s:10923  .debug_loclists:00000c99 .LLST60
C:\Users\kenne\AppData\Local\Temp\ccH82gYi.s:10920  .debug_loclists:00000c97 .LVUS60
C:\Users\kenne\AppData\Local\Temp\ccH82gYi.s:10935  .debug_loclists:00000ca9 .LLST61
C:\Users\kenne\AppData\Local\Temp\ccH82gYi.s:10932  .debug_loclists:00000ca7 .LVUS61
C:\Users\kenne\AppData\Local\Temp\ccH82gYi.s:2043   .text._ZN7Hd447804initENS_4SizeENS_4FontEbb:00000172 .LBI79
C:\Users\kenne\AppData\Local\Temp\ccH82gYi.s:2042   .text._ZN7Hd447804initENS_4SizeENS_4FontEbb:00000172 .LBB79
C:\Users\kenne\AppData\Local\Temp\ccH82gYi.s:2062   .text._ZN7Hd447804initENS_4SizeENS_4FontEbb:0000017e .LBE79
C:\Users\kenne\AppData\Local\Temp\ccH82gYi.s:10947  .debug_loclists:00000cb9 .LLST62
C:\Users\kenne\AppData\Local\Temp\ccH82gYi.s:10944  .debug_loclists:00000cb7 .LVUS62
C:\Users\kenne\AppData\Local\Temp\ccH82gYi.s:10959  .debug_loclists:00000cc9 .LLST63
C:\Users\kenne\AppData\Local\Temp\ccH82gYi.s:10956  .debug_loclists:00000cc7 .LVUS63
C:\Users\kenne\AppData\Local\Temp\ccH82gYi.s:10971  .debug_loclists:00000cd9 .LLST64
C:\Users\kenne\AppData\Local\Temp\ccH82gYi.s:10968  .debug_loclists:00000cd7 .LVUS64
C:\Users\kenne\AppData\Local\Temp\ccH82gYi.s:2071   .text._ZN7Hd447804initENS_4SizeENS_4FontEbb:00000186 .LBI81
C:\Users\kenne\AppData\Local\Temp\ccH82gYi.s:2070   .text._ZN7Hd447804initENS_4SizeENS_4FontEbb:00000186 .LBB81
C:\Users\kenne\AppData\Local\Temp\ccH82gYi.s:2090   .text._ZN7Hd447804initENS_4SizeENS_4FontEbb:00000192 .LBE81
C:\Users\kenne\AppData\Local\Temp\ccH82gYi.s:10983  .debug_loclists:00000ce9 .LLST65
C:\Users\kenne\AppData\Local\Temp\ccH82gYi.s:10980  .debug_loclists:00000ce7 .LVUS65
C:\Users\kenne\AppData\Local\Temp\ccH82gYi.s:10995  .debug_loclists:00000cf9 .LLST66
C:\Users\kenne\AppData\Local\Temp\ccH82gYi.s:10992  .debug_loclists:00000cf7 .LVUS66
C:\Users\kenne\AppData\Local\Temp\ccH82gYi.s:11007  .debug_loclists:00000d09 .LLST67
C:\Users\kenne\AppData\Local\Temp\ccH82gYi.s:11004  .debug_loclists:00000d07 .LVUS67
C:\Users\kenne\AppData\Local\Temp\ccH82gYi.s:2100   .text._ZN7Hd447804initENS_4SizeENS_4FontEbb:0000019a .LBI83
C:\Users\kenne\AppData\Local\Temp\ccH82gYi.s:2099   .text._ZN7Hd447804initENS_4SizeENS_4FontEbb:0000019a .LBB83
C:\Users\kenne\AppData\Local\Temp\ccH82gYi.s:2119   .text._ZN7Hd447804initENS_4SizeENS_4FontEbb:000001a6 .LBE83
C:\Users\kenne\AppData\Local\Temp\ccH82gYi.s:11019  .debug_loclists:00000d17 .LLST68
C:\Users\kenne\AppData\Local\Temp\ccH82gYi.s:11016  .debug_loclists:00000d15 .LVUS68
C:\Users\kenne\AppData\Local\Temp\ccH82gYi.s:11031  .debug_loclists:00000d27 .LLST69
C:\Users\kenne\AppData\Local\Temp\ccH82gYi.s:11028  .debug_loclists:00000d25 .LVUS69
C:\Users\kenne\AppData\Local\Temp\ccH82gYi.s:11043  .debug_loclists:00000d37 .LLST70
C:\Users\kenne\AppData\Local\Temp\ccH82gYi.s:11040  .debug_loclists:00000d35 .LVUS70
C:\Users\kenne\AppData\Local\Temp\ccH82gYi.s:2327   .text._ZN7Hd447804initENS_4SizeENS_4FontEbb:0000029c .LBI85
C:\Users\kenne\AppData\Local\Temp\ccH82gYi.s:2326   .text._ZN7Hd447804initENS_4SizeENS_4FontEbb:0000029c .LBB85
C:\Users\kenne\AppData\Local\Temp\ccH82gYi.s:2346   .text._ZN7Hd447804initENS_4SizeENS_4FontEbb:000002a8 .LBE85
C:\Users\kenne\AppData\Local\Temp\ccH82gYi.s:11055  .debug_loclists:00000d45 .LLST71
C:\Users\kenne\AppData\Local\Temp\ccH82gYi.s:11052  .debug_loclists:00000d43 .LVUS71
C:\Users\kenne\AppData\Local\Temp\ccH82gYi.s:11067  .debug_loclists:00000d55 .LLST72
C:\Users\kenne\AppData\Local\Temp\ccH82gYi.s:11064  .debug_loclists:00000d53 .LVUS72
C:\Users\kenne\AppData\Local\Temp\ccH82gYi.s:11079  .debug_loclists:00000d65 .LLST73
C:\Users\kenne\AppData\Local\Temp\ccH82gYi.s:11076  .debug_loclists:00000d63 .LVUS73
C:\Users\kenne\AppData\Local\Temp\ccH82gYi.s:2355   .text._ZN7Hd447804initENS_4SizeENS_4FontEbb:000002b0 .LBI87
C:\Users\kenne\AppData\Local\Temp\ccH82gYi.s:2354   .text._ZN7Hd447804initENS_4SizeENS_4FontEbb:000002b0 .LBB87
C:\Users\kenne\AppData\Local\Temp\ccH82gYi.s:2374   .text._ZN7Hd447804initENS_4SizeENS_4FontEbb:000002bc .LBE87
C:\Users\kenne\AppData\Local\Temp\ccH82gYi.s:11091  .debug_loclists:00000d75 .LLST74
C:\Users\kenne\AppData\Local\Temp\ccH82gYi.s:11088  .debug_loclists:00000d73 .LVUS74
GAS LISTING C:\Users\kenne\AppData\Local\Temp\ccH82gYi.s 			page 152


C:\Users\kenne\AppData\Local\Temp\ccH82gYi.s:11103  .debug_loclists:00000d85 .LLST75
C:\Users\kenne\AppData\Local\Temp\ccH82gYi.s:11100  .debug_loclists:00000d83 .LVUS75
C:\Users\kenne\AppData\Local\Temp\ccH82gYi.s:11115  .debug_loclists:00000d95 .LLST76
C:\Users\kenne\AppData\Local\Temp\ccH82gYi.s:11112  .debug_loclists:00000d93 .LVUS76
C:\Users\kenne\AppData\Local\Temp\ccH82gYi.s:2391   .text._ZN7Hd447804initENS_4SizeENS_4FontEbb:000002ce .LBI89
C:\Users\kenne\AppData\Local\Temp\ccH82gYi.s:2390   .text._ZN7Hd447804initENS_4SizeENS_4FontEbb:000002ce .LBB89
C:\Users\kenne\AppData\Local\Temp\ccH82gYi.s:2410   .text._ZN7Hd447804initENS_4SizeENS_4FontEbb:000002da .LBE89
C:\Users\kenne\AppData\Local\Temp\ccH82gYi.s:11127  .debug_loclists:00000da3 .LLST77
C:\Users\kenne\AppData\Local\Temp\ccH82gYi.s:11124  .debug_loclists:00000da1 .LVUS77
C:\Users\kenne\AppData\Local\Temp\ccH82gYi.s:11139  .debug_loclists:00000db3 .LLST78
C:\Users\kenne\AppData\Local\Temp\ccH82gYi.s:11136  .debug_loclists:00000db1 .LVUS78
C:\Users\kenne\AppData\Local\Temp\ccH82gYi.s:11151  .debug_loclists:00000dc3 .LLST79
C:\Users\kenne\AppData\Local\Temp\ccH82gYi.s:11148  .debug_loclists:00000dc1 .LVUS79
C:\Users\kenne\AppData\Local\Temp\ccH82gYi.s:2040   .text._ZN7Hd447804initENS_4SizeENS_4FontEbb:00000172 .LVL73
C:\Users\kenne\AppData\Local\Temp\ccH82gYi.s:2068   .text._ZN7Hd447804initENS_4SizeENS_4FontEbb:00000186 .LVL75
C:\Users\kenne\AppData\Local\Temp\ccH82gYi.s:2096   .text._ZN7Hd447804initENS_4SizeENS_4FontEbb:0000019a .LVL77
C:\Users\kenne\AppData\Local\Temp\ccH82gYi.s:2162   .text._ZN7Hd447804initENS_4SizeENS_4FontEbb:000001d0 .LVL83
C:\Users\kenne\AppData\Local\Temp\ccH82gYi.s:2173   .text._ZN7Hd447804initENS_4SizeENS_4FontEbb:000001de .LVL84
C:\Users\kenne\AppData\Local\Temp\ccH82gYi.s:2179   .text._ZN7Hd447804initENS_4SizeENS_4FontEbb:000001e6 .LVL85
C:\Users\kenne\AppData\Local\Temp\ccH82gYi.s:2200   .text._ZN7Hd447804initENS_4SizeENS_4FontEbb:000001fa .LVL87
C:\Users\kenne\AppData\Local\Temp\ccH82gYi.s:2206   .text._ZN7Hd447804initENS_4SizeENS_4FontEbb:00000202 .LVL88
C:\Users\kenne\AppData\Local\Temp\ccH82gYi.s:2324   .text._ZN7Hd447804initENS_4SizeENS_4FontEbb:0000029c .LVL93
C:\Users\kenne\AppData\Local\Temp\ccH82gYi.s:2352   .text._ZN7Hd447804initENS_4SizeENS_4FontEbb:000002b0 .LVL95
C:\Users\kenne\AppData\Local\Temp\ccH82gYi.s:2380   .text._ZN7Hd447804initENS_4SizeENS_4FontEbb:000002c4 .LVL97
C:\Users\kenne\AppData\Local\Temp\ccH82gYi.s:2388   .text._ZN7Hd447804initENS_4SizeENS_4FontEbb:000002ce .LVL98
C:\Users\kenne\AppData\Local\Temp\ccH82gYi.s:215    .text._ZN7Hd44780D2Ev:00000000 .LFB37
C:\Users\kenne\AppData\Local\Temp\ccH82gYi.s:229    .text._ZN7Hd44780D2Ev:00000002 .LFE37
C:\Users\kenne\AppData\Local\Temp\ccH82gYi.s:38     .text._ZN7Hd44780C2Ev:00000000 .LFB34
C:\Users\kenne\AppData\Local\Temp\ccH82gYi.s:206    .text._ZN7Hd44780C2Ev:000000b2 .LFE34
C:\Users\kenne\AppData\Local\Temp\ccH82gYi.s:11165  .debug_loclists:00000dd3 .LLST0
C:\Users\kenne\AppData\Local\Temp\ccH82gYi.s:11160  .debug_loclists:00000dcf .LVUS0
C:\Users\kenne\AppData\Local\Temp\ccH82gYi.s:15     .text._Z7getTickv:00000000 .LFB32
C:\Users\kenne\AppData\Local\Temp\ccH82gYi.s:31     .text._Z7getTickv:00000008 .LFE32
C:\Users\kenne\AppData\Local\Temp\ccH82gYi.s:3908   .text._ZL11lcdWriteStdcP6__file:00000000 .LVL206
C:\Users\kenne\AppData\Local\Temp\ccH82gYi.s:3943   .text._ZL11lcdWriteStdcP6__file:00000024 .LVL209
C:\Users\kenne\AppData\Local\Temp\ccH82gYi.s:3493   .text._ZN7Hd4478015_writeCharacterEhb:00000000 .LVL191
C:\Users\kenne\AppData\Local\Temp\ccH82gYi.s:3648   .text._ZN7Hd4478015_writeCharacterEhb:000000ca .LVL194
C:\Users\kenne\AppData\Local\Temp\ccH82gYi.s:3685   .text._ZN7Hd4478015_writeCharacterEhb:000000ec .LVL196
C:\Users\kenne\AppData\Local\Temp\ccH82gYi.s:3768   .text._ZN7Hd4478015_writeCharacterEhb:0000014c .LVL199
C:\Users\kenne\AppData\Local\Temp\ccH82gYi.s:3811   .text._ZN7Hd4478015_writeCharacterEhb:00000174 .LVL201
C:\Users\kenne\AppData\Local\Temp\ccH82gYi.s:886    .text._ZN7Hd4478015_waitUntilReadyEv:00000000 .LVL31
C:\Users\kenne\AppData\Local\Temp\ccH82gYi.s:898    .text._ZN7Hd4478015_waitUntilReadyEv:00000004 .LVL32
C:\Users\kenne\AppData\Local\Temp\ccH82gYi.s:1049   .text._ZN7Hd4478015_waitUntilReadyEv:000000e4 .LVL36
C:\Users\kenne\AppData\Local\Temp\ccH82gYi.s:1086   .text._ZN7Hd4478015_waitUntilReadyEv:00000106 .LVL38
C:\Users\kenne\AppData\Local\Temp\ccH82gYi.s:1132   .text._ZN7Hd4478015_waitUntilReadyEv:0000012e .LVL41
C:\Users\kenne\AppData\Local\Temp\ccH82gYi.s:1202   .text._ZN7Hd4478015_waitUntilReadyEv:00000174 .LVL45
C:\Users\kenne\AppData\Local\Temp\ccH82gYi.s:1328   .text._ZN7Hd4478013_writeCommandEh:00000000 .LVL48
C:\Users\kenne\AppData\Local\Temp\ccH82gYi.s:1500   .text._ZN7Hd4478013_writeCommandEh:000000ee .LVL51
C:\Users\kenne\AppData\Local\Temp\ccH82gYi.s:1537   .text._ZN7Hd4478013_writeCommandEh:00000110 .LVL53
C:\Users\kenne\AppData\Local\Temp\ccH82gYi.s:1618   .text._ZN7Hd4478013_writeCommandEh:00000170 .LVL55
C:\Users\kenne\AppData\Local\Temp\ccH82gYi.s:1655   .text._ZN7Hd4478013_writeCommandEh:00000192 .LVL57
C:\Users\kenne\AppData\Local\Temp\ccH82gYi.s:1689   .text._ZN7Hd4478013_writeCommandEh:000001a6 .LVL60
C:\Users\kenne\AppData\Local\Temp\ccH82gYi.s:626    .text._ZN7Hd4478017_functionSet8BitsEh:00000000 .LVL22
C:\Users\kenne\AppData\Local\Temp\ccH82gYi.s:780    .text._ZN7Hd4478017_functionSet8BitsEh:000000da .LVL25
C:\Users\kenne\AppData\Local\Temp\ccH82gYi.s:818    .text._ZN7Hd4478017_functionSet8BitsEh:000000fc .LVL27
C:\Users\kenne\AppData\Local\Temp\ccH82gYi.s:851    .text._ZN7Hd4478017_functionSet8BitsEh:00000110 .LVL29
C:\Users\kenne\AppData\Local\Temp\ccH82gYi.s:602    .text._ZN7Hd4478012getLastErrorEv:00000000 .LVL20
GAS LISTING C:\Users\kenne\AppData\Local\Temp\ccH82gYi.s 			page 153


C:\Users\kenne\AppData\Local\Temp\ccH82gYi.s:4007   .text._ZN7Hd4478018customCharacterSetEhPKh:00000000 .LVL218
C:\Users\kenne\AppData\Local\Temp\ccH82gYi.s:547    .text._ZN7Hd447805stdioEv:00000000 .LVL18
C:\Users\kenne\AppData\Local\Temp\ccH82gYi.s:3396   .text._ZN7Hd4478012entryModeSetENS_4StepENS_11DisplayModeE:00000000 .LVL180
C:\Users\kenne\AppData\Local\Temp\ccH82gYi.s:3424   .text._ZN7Hd4478012entryModeSetENS_4StepENS_11DisplayModeE:00000010 .LVL181
C:\Users\kenne\AppData\Local\Temp\ccH82gYi.s:3295   .text._ZN7Hd4478012displayShiftE9Direction:00000000 .LVL170
C:\Users\kenne\AppData\Local\Temp\ccH82gYi.s:3313   .text._ZN7Hd4478012displayShiftE9Direction:0000000a .LVL171
C:\Users\kenne\AppData\Local\Temp\ccH82gYi.s:3120   .text._ZN7Hd4478015displayStateSetENS_12DisplayStateE:00000000 .LVL154
C:\Users\kenne\AppData\Local\Temp\ccH82gYi.s:3153   .text._ZN7Hd4478015displayStateSetENS_12DisplayStateE:00000012 .LVL156
C:\Users\kenne\AppData\Local\Temp\ccH82gYi.s:2812   .text._ZN7Hd4478018cursorMoveNextLineEv:00000000 .LVL132
C:\Users\kenne\AppData\Local\Temp\ccH82gYi.s:2845   .text._ZN7Hd4478018cursorMoveNextLineEv:0000001a .LVL134
C:\Users\kenne\AppData\Local\Temp\ccH82gYi.s:3057   .text._ZN7Hd4478019cursorMoveFirstLineEv:00000000 .LVL151
C:\Users\kenne\AppData\Local\Temp\ccH82gYi.s:2956   .text._ZN7Hd4478010cursorMoveE9Direction:00000000 .LVL141
C:\Users\kenne\AppData\Local\Temp\ccH82gYi.s:2974   .text._ZN7Hd4478010cursorMoveE9Direction:0000000a .LVL142
C:\Users\kenne\AppData\Local\Temp\ccH82gYi.s:2893   .text._ZN7Hd4478010cursorHomeEv:00000000 .LVL138
C:\Users\kenne\AppData\Local\Temp\ccH82gYi.s:2508   .text._ZN7Hd4478010cursorGoToEhh:00000000 .LVL107
C:\Users\kenne\AppData\Local\Temp\ccH82gYi.s:2528   .text._ZN7Hd4478010cursorGoToEhh:00000008 .LVL108
C:\Users\kenne\AppData\Local\Temp\ccH82gYi.s:2445   .text._ZN7Hd4478011clearScreenEv:00000000 .LVL104
C:\Users\kenne\AppData\Local\Temp\ccH82gYi.s:431    .text._ZN7Hd4478011dataPortSetEPVhh:00000000 .LVL13
C:\Users\kenne\AppData\Local\Temp\ccH82gYi.s:237    .text._ZN7Hd4478014controlPortSetEPVhhhh:00000000 .LVL3
C:\Users\kenne\AppData\Local\Temp\ccH82gYi.s:1765   .text._ZN7Hd447804initENS_4SizeENS_4FontEbb:00000000 .LVL65
C:\Users\kenne\AppData\Local\Temp\ccH82gYi.s:1800   .text._ZN7Hd447804initENS_4SizeENS_4FontEbb:00000016 .LVL66
C:\Users\kenne\AppData\Local\Temp\ccH82gYi.s:2009   .text._ZN7Hd447804initENS_4SizeENS_4FontEbb:00000158 .LVL71
C:\Users\kenne\AppData\Local\Temp\ccH82gYi.s:37     .text._ZN7Hd44780C2Ev:00000000 .LVL0
C:\Users\kenne\AppData\Local\Temp\ccH82gYi.s:4201   .debug_info:00000000 .Ldebug_info0

UNDEFINED SYMBOLS
__umulhisi3
__iob
__divmodhi4
__do_clear_bss
