GAS LISTING C:\Users\kenne\AppData\Local\Temp\ccfTCvCf.s 			page 1


   1               		.file	"FP_program.c"
   2               	__SP_H__ = 0x3e
   3               	__SP_L__ = 0x3d
   4               	__SREG__ = 0x3f
   5               	__tmp_reg__ = 0
   6               	__zero_reg__ = 1
   7               		.text
   8               	.Ltext0:
   9               		.cfi_sections	.debug_frame
  10               		.file 0 "C:\\D\\IFSC\\MCC\\projects\\mohamed" "src/FP_program.c"
  11               		.section	.rodata.GetID.str1.1,"aMS",@progbits,1
  12               	.LC0:
  13 0000 456E 7465 		.string	"Enter ID:"
  13      7220 4944 
  13      3A00 
  14               	.LC1:
  15 000a 2025 6420 		.string	" %d  "
  15      2000 
  16               		.section	.text.GetID,"ax",@progbits
  17               	.global	GetID
  19               	GetID:
  20               	.LFB7:
  21               		.file 1 "src/FP_program.c"
   1:src/FP_program.c **** /*
   2:src/FP_program.c ****  * fp_program.c
   3:src/FP_program.c ****  *
   4:src/FP_program.c ****  * Created: 3/31/2022 5:12:29 PM
   5:src/FP_program.c ****  *  Author: mmyra
   6:src/FP_program.c ****  */
   7:src/FP_program.c **** #define F_CPU 12000000UL
   8:src/FP_program.c **** // #include <xc.h>
   9:src/FP_program.c **** #include <util/delay.h>
  10:src/FP_program.c **** #include "../inc/FP_interface.h"
  11:src/FP_program.c **** #include "../inc/UART_interface.h"
  12:src/FP_program.c **** #include "../inc/LCD_interface.h"
  13:src/FP_program.c **** #include "../inc/keys_interface.h"
  14:src/FP_program.c **** 
  15:src/FP_program.c **** //First three Packages
  16:src/FP_program.c **** const char Header[]			= {0xEF, 0x1};
  17:src/FP_program.c **** const char Address[]		= {0xFF, 0xFF, 0xFF, 0xFF};
  18:src/FP_program.c **** const char Command[]		= {0x1, 0x00};
  19:src/FP_program.c **** 
  20:src/FP_program.c **** //commands Packages
  21:src/FP_program.c **** const char PassVfy[]		= {0x7, 0x13, 0x00, 0x00, 0x00, 0x00, 0x00, 0x1B};
  22:src/FP_program.c **** const char f_detect[]		= {0x3, 0x1, 0x0, 0x5};
  23:src/FP_program.c **** const char f_imz2ch1[]		= {0x4, 0x2, 0x1, 0x0, 0x8};
  24:src/FP_program.c **** const char f_imz2ch2[]		= {0x4, 0x2, 0x2, 0x0, 0x9};
  25:src/FP_program.c **** const char f_createModel[]	= {0x3, 0x5, 0x0, 0x9};
  26:src/FP_program.c **** char f_storeModel[]			= {0x6, 0x6, 0x1, 0x0, 0x1, 0x0, 0xE};
  27:src/FP_program.c **** const char f_search[]		= {0x8, 0x4, 0x1, 0x0, 0x0, 0x0, 0xA3, 0x0, 0xb1};
  28:src/FP_program.c **** char f_delete[]				= {0x7, 0xC, 0x0, 0x0, 0x0, 0x1, 0x0, 0x15};
  29:src/FP_program.c **** char fp_empty[]				= {0x3,0xd,0x0,0x11};
  30:src/FP_program.c **** 
  31:src/FP_program.c **** char sendcmd2fb(unsigned char order)
  32:src/FP_program.c **** {
  33:src/FP_program.c **** 	unsigned char successed = again;
  34:src/FP_program.c **** 	while (successed == again)
GAS LISTING C:\Users\kenne\AppData\Local\Temp\ccfTCvCf.s 			page 2


  35:src/FP_program.c **** 	{
  36:src/FP_program.c **** 		////////////////////////////////////////////////////////    //
  37:src/FP_program.c **** 		///////////////        First Stage         /////////////   ///
  38:src/FP_program.c **** 		/////////// First massage in first row in LCD //////////    //
  39:src/FP_program.c **** 		////////////////////////////////////////////////////////    //
  40:src/FP_program.c **** 		lcdclear();													//
  41:src/FP_program.c **** 		switch (order)											  //////
  42:src/FP_program.c **** 		{
  43:src/FP_program.c **** 			case FB_connect:
  44:src/FP_program.c **** 				lcdprint("Search 4 Module");
  45:src/FP_program.c **** 				break;
  46:src/FP_program.c **** 
  47:src/FP_program.c **** 			case F_find:
  48:src/FP_program.c **** 				lcdprint("Place UR Finger");
  49:src/FP_program.c **** 				break;
  50:src/FP_program.c **** 
  51:src/FP_program.c **** 			case F_im1:
  52:src/FP_program.c **** 				lcdprint("Processing..");
  53:src/FP_program.c **** 				break;
  54:src/FP_program.c **** 
  55:src/FP_program.c **** 			case F_im2:
  56:src/FP_program.c **** 				lcdprint("Processing..");
  57:src/FP_program.c **** 				break;
  58:src/FP_program.c **** 
  59:src/FP_program.c **** 			case F_cretModl:
  60:src/FP_program.c **** 				lcdprint("Creating Model");
  61:src/FP_program.c **** 				break;
  62:src/FP_program.c **** 
  63:src/FP_program.c **** 			case FP_empty:
  64:src/FP_program.c **** 				lcdprint("IDs Erasing");
  65:src/FP_program.c **** 				break;
  66:src/FP_program.c **** 
  67:src/FP_program.c **** 			case F_search:
  68:src/FP_program.c **** 				lcdprint("Searching...");
  69:src/FP_program.c **** 				break;
  70:src/FP_program.c **** 
  71:src/FP_program.c **** 			case F_store:
  72:src/FP_program.c **** 				lcdprint("Storing Model");
  73:src/FP_program.c **** 				break;
  74:src/FP_program.c **** 
  75:src/FP_program.c **** 			case F_delete:
  76:src/FP_program.c **** 				lcdprint("Delete Finger");
  77:src/FP_program.c **** 				break;
  78:src/FP_program.c **** 		}
  79:src/FP_program.c **** 
  80:src/FP_program.c **** 		////////////////////////////////////////////////////////    ////
  81:src/FP_program.c **** 		///////////////        Second Stage        /////////////  //   //
  82:src/FP_program.c **** 		///////////   sending Command to the Module   //////////      //
  83:src/FP_program.c **** 		////////////////////////////////////////////////////////    //
  84:src/FP_program.c **** 																  ///////
  85:src/FP_program.c **** 		//First three Packages (Common between any command)
  86:src/FP_program.c **** 		UART_Array(&Header ,2);
  87:src/FP_program.c **** 		UART_Array(&Address,4);
  88:src/FP_program.c **** 		UART_Array(&Command,2);
  89:src/FP_program.c **** 
  90:src/FP_program.c **** 		int arr_size;
  91:src/FP_program.c **** 		unsigned char ID;
GAS LISTING C:\Users\kenne\AppData\Local\Temp\ccfTCvCf.s 			page 3


  92:src/FP_program.c **** 
  93:src/FP_program.c **** 		//Commands to fingerprint module
  94:src/FP_program.c **** 		switch (order)
  95:src/FP_program.c **** 		{
  96:src/FP_program.c **** 			case FB_connect:
  97:src/FP_program.c **** 				arr_size = (sizeof(PassVfy)) / sizeof((PassVfy)[0]);
  98:src/FP_program.c **** 				UART_Array(&PassVfy,arr_size);
  99:src/FP_program.c **** 				break;
 100:src/FP_program.c **** 
 101:src/FP_program.c **** 			case F_find:
 102:src/FP_program.c **** 				arr_size = (sizeof(f_detect)) / sizeof((f_detect)[0]);
 103:src/FP_program.c **** 				UART_Array(&f_detect,arr_size);
 104:src/FP_program.c **** 				break;
 105:src/FP_program.c **** 
 106:src/FP_program.c **** 			case F_im1:
 107:src/FP_program.c **** 				arr_size = (sizeof(f_imz2ch1)) / sizeof((f_imz2ch1)[0]);
 108:src/FP_program.c **** 				UART_Array(&f_imz2ch1,arr_size);
 109:src/FP_program.c **** 				break;
 110:src/FP_program.c **** 
 111:src/FP_program.c **** 			case F_im2:
 112:src/FP_program.c **** 				arr_size = (sizeof(f_imz2ch2)) / sizeof((f_imz2ch2)[0]);
 113:src/FP_program.c **** 				UART_Array(&f_imz2ch2,arr_size);
 114:src/FP_program.c **** 				break;
 115:src/FP_program.c **** 
 116:src/FP_program.c **** 			case F_cretModl:
 117:src/FP_program.c **** 				arr_size = (sizeof(f_createModel)) / sizeof((f_createModel)[0]);
 118:src/FP_program.c **** 				UART_Array(&f_createModel,arr_size);
 119:src/FP_program.c **** 				break;
 120:src/FP_program.c **** 
 121:src/FP_program.c **** 			case FP_empty:
 122:src/FP_program.c **** 				arr_size = (sizeof(fp_empty)) / sizeof((fp_empty)[0]);
 123:src/FP_program.c **** 				UART_Array(&fp_empty,arr_size);
 124:src/FP_program.c **** 				break;
 125:src/FP_program.c **** 
 126:src/FP_program.c **** 			case F_search:
 127:src/FP_program.c **** 				arr_size = (sizeof(f_search)) / sizeof((f_search)[0]);
 128:src/FP_program.c **** 				UART_Array(&f_search,arr_size);
 129:src/FP_program.c **** 				break;
 130:src/FP_program.c **** 
 131:src/FP_program.c **** 			case F_store:
 132:src/FP_program.c **** 				ID = GetID();
 133:src/FP_program.c **** 				f_storeModel[4] = ID;
 134:src/FP_program.c **** 				f_storeModel[6] = (0xE + ID);
 135:src/FP_program.c **** 				arr_size = (sizeof(f_storeModel)) / sizeof((f_storeModel)[0]);
 136:src/FP_program.c **** 				UART_Array(&Header ,2);
 137:src/FP_program.c **** 				UART_Array(&Address,4);
 138:src/FP_program.c **** 				UART_Array(&Command,2);
 139:src/FP_program.c **** 				UART_Array(&f_storeModel,arr_size);
 140:src/FP_program.c **** 				break;
 141:src/FP_program.c **** 
 142:src/FP_program.c **** 			case F_delete:
 143:src/FP_program.c **** 				ID = GetID();
 144:src/FP_program.c **** 				f_delete[3] = ID;
 145:src/FP_program.c **** 				f_delete[7] = (0x15 + ID);
 146:src/FP_program.c **** 				arr_size = (sizeof(f_delete)) / sizeof((f_delete)[0]);
 147:src/FP_program.c **** 				UART_Array(&Header ,2);
 148:src/FP_program.c **** 				UART_Array(&Address,4);
GAS LISTING C:\Users\kenne\AppData\Local\Temp\ccfTCvCf.s 			page 4


 149:src/FP_program.c **** 				UART_Array(&Command,2);
 150:src/FP_program.c **** 				UART_Array(&f_delete,arr_size);
 151:src/FP_program.c **** 				break;
 152:src/FP_program.c **** 		}
 153:src/FP_program.c **** 		_delay_ms(1000);
 154:src/FP_program.c **** 
 155:src/FP_program.c **** 		////////////////////////////////////////////////////////     /////
 156:src/FP_program.c **** 		///////////////        third  Stage        /////////////   //    //
 157:src/FP_program.c **** 		/////////   Getting feedback from the module  //////////         //
 158:src/FP_program.c **** 		////  In case of failure: Print on LCD the reason  /////      ///
 159:src/FP_program.c **** 		////////////////////////////////////////////////////////		//
 160:src/FP_program.c **** 																  //    //
 161:src/FP_program.c **** 		//Feedback (Acknowledge) from fingerprint module			////
 162:src/FP_program.c **** 		if(cont>1)
 163:src/FP_program.c **** 		{
 164:src/FP_program.c **** 			if( rcvData[6] == 0x07 && (rcvData[8] == 0x03 || rcvData[8] == 0x07) )
 165:src/FP_program.c **** 			{
 166:src/FP_program.c **** 				lcdsecondrow();
 167:src/FP_program.c **** 
 168:src/FP_program.c **** 				if(rcvData[9] == 0)
 169:src/FP_program.c **** 				successed = success;
 170:src/FP_program.c **** 				else
 171:src/FP_program.c **** 				{
 172:src/FP_program.c **** 					successed = fail;
 173:src/FP_program.c **** 					if(rcvData[9] == 0x01)
 174:src/FP_program.c **** 					lcdprint("Rcv packet error");
 175:src/FP_program.c **** 					else if(rcvData[9] == 0x04)
 176:src/FP_program.c **** 					lcdprint("fail.  Try again");
 177:src/FP_program.c **** 					else if(rcvData[9] == 0x05)
 178:src/FP_program.c **** 					lcdprint("Fail Clean & Try");
 179:src/FP_program.c **** 					else if(rcvData[9] == 0x06)
 180:src/FP_program.c **** 					lcdprint("FailedGenerating");
 181:src/FP_program.c **** 					else if(rcvData[9] == 0x07)
 182:src/FP_program.c **** 					lcdprint("SmallFinger Area");
 183:src/FP_program.c **** 					else if(rcvData[9] == 0x09)
 184:src/FP_program.c **** 					lcdprint("ID not Found");
 185:src/FP_program.c **** 					else if(rcvData[9] == 0x0b)
 186:src/FP_program.c **** 					lcdprint("ID overload");
 187:src/FP_program.c **** 					else if(rcvData[9] == 0x18)
 188:src/FP_program.c **** 					lcdprint("FlashWritingErr");
 189:src/FP_program.c **** 					else if(rcvData[9] == 0x0a)
 190:src/FP_program.c **** 					lcdprint("Failed modeling");
 191:src/FP_program.c **** 					else if(rcvData[9] == 0x13)
 192:src/FP_program.c **** 					lcdprint("Password incorrect");
 193:src/FP_program.c **** 					else if(rcvData[9] == 0x21)
 194:src/FP_program.c **** 					lcdprint("must verify pass");
 195:src/FP_program.c **** 					else
 196:src/FP_program.c **** 					{
 197:src/FP_program.c **** 						if(rcvData[9] == 0x02)
 198:src/FP_program.c **** 						lcdprint("CantDetectFinger");
 199:src/FP_program.c **** 						else if(rcvData[9] == 0x03)
 200:src/FP_program.c **** 						lcdprint("Fail To Collect");
 201:src/FP_program.c **** 						else
 202:src/FP_program.c **** 						lcdprint("NOT DEFINED ERROR");
 203:src/FP_program.c **** 						successed = again;
 204:src/FP_program.c **** 					}
 205:src/FP_program.c **** 				}
GAS LISTING C:\Users\kenne\AppData\Local\Temp\ccfTCvCf.s 			page 5


 206:src/FP_program.c **** 			}
 207:src/FP_program.c **** 			else
 208:src/FP_program.c **** 			{
 209:src/FP_program.c **** 				lcdclear();
 210:src/FP_program.c **** 				lcdprint("FP module");
 211:src/FP_program.c **** 				lcdsecondrow();
 212:src/FP_program.c **** 				lcdprint("connection Error");
 213:src/FP_program.c **** 			}
 214:src/FP_program.c **** 		}
 215:src/FP_program.c **** 		else
 216:src/FP_program.c **** 		{
 217:src/FP_program.c **** 			lcdclear();
 218:src/FP_program.c **** 			lcdprint("FP not Found or");
 219:src/FP_program.c **** 			lcdsecondrow();
 220:src/FP_program.c **** 			lcdprint("Not Responding");
 221:src/FP_program.c **** 			_delay_ms(1000);
 222:src/FP_program.c **** 		}
 223:src/FP_program.c **** 
 224:src/FP_program.c **** 		////////////////////////////////////////////////////////     /////
 225:src/FP_program.c **** 		///////////////        Fourth Stage        /////////////    //  //
 226:src/FP_program.c **** 		/////////  Second massage in Second row in LCD  ////////   //   //
 227:src/FP_program.c **** 		/////  In case of success: Print on LCD FeedBack  //////  //    //
 228:src/FP_program.c **** 		//////////////////////////////////////////////////////// ///////////
 229:src/FP_program.c **** 		if(successed == success)										//
 230:src/FP_program.c **** 		{
 231:src/FP_program.c **** 			unsigned char String[20];
 232:src/FP_program.c **** 
 233:src/FP_program.c **** 			switch (order)
 234:src/FP_program.c **** 			{
 235:src/FP_program.c **** 				case FB_connect:
 236:src/FP_program.c **** 					lcdprint("Module Found");
 237:src/FP_program.c **** 					break;
 238:src/FP_program.c **** 
 239:src/FP_program.c **** 				case F_find:
 240:src/FP_program.c **** 					lcdprint("Finger Captured");
 241:src/FP_program.c **** 					break;
 242:src/FP_program.c **** 
 243:src/FP_program.c **** 				case F_im1:
 244:src/FP_program.c **** 					lcdprint("Done");
 245:src/FP_program.c **** 					break;
 246:src/FP_program.c **** 
 247:src/FP_program.c **** 				case F_im2:
 248:src/FP_program.c **** 					lcdprint("Done");
 249:src/FP_program.c **** 					break;
 250:src/FP_program.c **** 
 251:src/FP_program.c **** 				case F_cretModl:
 252:src/FP_program.c **** 					lcdprint("Model Created");
 253:src/FP_program.c **** 					break;
 254:src/FP_program.c **** 
 255:src/FP_program.c **** 				case FP_empty:
 256:src/FP_program.c **** 					lcdprint("Memory Erased");
 257:src/FP_program.c **** 					break;
 258:src/FP_program.c **** 
 259:src/FP_program.c **** 				case F_search:
 260:src/FP_program.c **** 					lcdprint("Found in ID: ");
 261:src/FP_program.c **** 					sprintf(String," %d  ",rcvData[11]);
 262:src/FP_program.c **** 					lcdprint(&String);
GAS LISTING C:\Users\kenne\AppData\Local\Temp\ccfTCvCf.s 			page 6


 263:src/FP_program.c **** 					break;
 264:src/FP_program.c **** 
 265:src/FP_program.c **** 				case F_store:
 266:src/FP_program.c **** 					lcdprint("Saved Successful");
 267:src/FP_program.c **** 					_delay_ms(700);
 268:src/FP_program.c **** 					break;
 269:src/FP_program.c **** 
 270:src/FP_program.c **** 				case F_delete:
 271:src/FP_program.c **** 					sprintf(String,"ID: %d Deleted",ID);
 272:src/FP_program.c **** 					lcdprint(&String);
 273:src/FP_program.c **** 					_delay_ms(700);
 274:src/FP_program.c **** 					break;
 275:src/FP_program.c **** 			}
 276:src/FP_program.c **** 		}
 277:src/FP_program.c **** 		clearArray(&rcvData);
 278:src/FP_program.c **** 		cont = 0;
 279:src/FP_program.c **** 		_delay_ms(700);
 280:src/FP_program.c **** 	}
 281:src/FP_program.c **** 	return successed;
 282:src/FP_program.c **** }
 283:src/FP_program.c **** 
 284:src/FP_program.c **** char GetID()
 285:src/FP_program.c **** {
  22               		.loc 1 285 1 view -0
  23               		.cfi_startproc
  24 0000 EF92      		push r14
  25               		.cfi_def_cfa_offset 3
  26               		.cfi_offset 14, -2
  27 0002 FF92      		push r15
  28               		.cfi_def_cfa_offset 4
  29               		.cfi_offset 15, -3
  30 0004 0F93      		push r16
  31               		.cfi_def_cfa_offset 5
  32               		.cfi_offset 16, -4
  33 0006 1F93      		push r17
  34               		.cfi_def_cfa_offset 6
  35               		.cfi_offset 17, -5
  36 0008 CF93      		push r28
  37               		.cfi_def_cfa_offset 7
  38               		.cfi_offset 28, -6
  39 000a DF93      		push r29
  40               		.cfi_def_cfa_offset 8
  41               		.cfi_offset 29, -7
  42 000c CDB7      		in r28,__SP_L__
  43 000e DEB7      		in r29,__SP_H__
  44               		.cfi_def_cfa_register 28
  45 0010 6497      		sbiw r28,20
  46               		.cfi_def_cfa_offset 28
  47 0012 0FB6      		in __tmp_reg__,__SREG__
  48 0014 F894      		cli
  49 0016 DEBF      		out __SP_H__,r29
  50 0018 0FBE      		out __SREG__,__tmp_reg__
  51 001a CDBF      		out __SP_L__,r28
  52               	/* prologue: function */
  53               	/* frame size = 20 */
  54               	/* stack size = 26 */
  55               	.L__stack_usage = 26
GAS LISTING C:\Users\kenne\AppData\Local\Temp\ccfTCvCf.s 			page 7


 286:src/FP_program.c **** 	lcdclear();
  56               		.loc 1 286 2 view .LVU1
  57 001c 0E94 0000 		call lcdclear
  58               	.LVL0:
 287:src/FP_program.c **** 	unsigned char ids = 1;
  59               		.loc 1 287 2 view .LVU2
 288:src/FP_program.c **** 	char ok = 0;
  60               		.loc 1 288 2 view .LVU3
 289:src/FP_program.c **** 	lcdprint("Enter ID:");
  61               		.loc 1 289 2 view .LVU4
  62 0020 80E0      		ldi r24,lo8(.LC0)
  63 0022 90E0      		ldi r25,hi8(.LC0)
  64 0024 0E94 0000 		call lcdprint
  65               	.LVL1:
 290:src/FP_program.c **** 	while(ok == 0)
  66               		.loc 1 290 2 view .LVU5
 288:src/FP_program.c **** 	char ok = 0;
  67               		.loc 1 288 7 is_stmt 0 view .LVU6
  68 0028 00E0      		ldi r16,0
 287:src/FP_program.c **** 	char ok = 0;
  69               		.loc 1 287 16 view .LVU7
  70 002a 11E0      		ldi r17,lo8(1)
  71               		.loc 1 290 7 view .LVU8
  72 002c 00C0      		rjmp .L2
  73               	.LVL2:
  74               	.L3:
  75               	.LBB18:
 291:src/FP_program.c **** 	{
 292:src/FP_program.c **** 		if(keys_Feedback() == keys_up)
 293:src/FP_program.c **** 		ids++;
 294:src/FP_program.c **** 		else if(keys_Feedback() == keys_down)
  76               		.loc 1 294 8 is_stmt 1 view .LVU9
  77               		.loc 1 294 11 is_stmt 0 view .LVU10
  78 002e 0E94 0000 		call keys_Feedback
  79               	.LVL3:
  80               		.loc 1 294 10 view .LVU11
  81 0032 8230      		cpi r24,lo8(2)
  82 0034 01F4      		brne .L5
 295:src/FP_program.c **** 		ids--;
  83               		.loc 1 295 3 is_stmt 1 view .LVU12
  84               		.loc 1 295 6 is_stmt 0 view .LVU13
  85 0036 1150      		subi r17,lo8(-(-1))
  86               	.LVL4:
  87               	.L4:
 296:src/FP_program.c **** 		else if(keys_Feedback() == keys_ok)
 297:src/FP_program.c **** 		ok = 1;
 298:src/FP_program.c **** 		if(ids >= 128)
  88               		.loc 1 298 3 is_stmt 1 view .LVU14
  89               		.loc 1 298 5 is_stmt 0 view .LVU15
  90 0038 1123      		tst r17
  91 003a 04F0      		brlt .L10
  92               	.LVL5:
  93               	.L6:
 299:src/FP_program.c **** 		ids = 1;
 300:src/FP_program.c **** 		unsigned char String[20];
  94               		.loc 1 300 3 is_stmt 1 view .LVU16
 301:src/FP_program.c **** 		lcdgotoxy(1,10);
GAS LISTING C:\Users\kenne\AppData\Local\Temp\ccfTCvCf.s 			page 8


  95               		.loc 1 301 3 view .LVU17
  96 003c 6AE0      		ldi r22,lo8(10)
  97 003e 70E0      		ldi r23,0
  98 0040 81E0      		ldi r24,lo8(1)
  99 0042 90E0      		ldi r25,0
 100 0044 0E94 0000 		call lcdgotoxy
 101               	.LVL6:
 302:src/FP_program.c **** 		sprintf(String," %d  ",ids);
 102               		.loc 1 302 3 view .LVU18
 103 0048 1F92      		push __zero_reg__
 104 004a 1F93      		push r17
 105 004c 80E0      		ldi r24,lo8(.LC1)
 106 004e 90E0      		ldi r25,hi8(.LC1)
 107 0050 9F93      		push r25
 108 0052 8F93      		push r24
 109 0054 CE01      		movw r24,r28
 110 0056 0196      		adiw r24,1
 111 0058 7C01      		movw r14,r24
 112 005a 9F93      		push r25
 113 005c 8F93      		push r24
 114 005e 0E94 0000 		call sprintf
 115               	.LVL7:
 303:src/FP_program.c **** 		lcdprint(&String);
 116               		.loc 1 303 3 view .LVU19
 117 0062 C701      		movw r24,r14
 118 0064 0E94 0000 		call lcdprint
 119               	.LVL8:
 304:src/FP_program.c **** 		_delay_ms(200);
 120               		.loc 1 304 3 view .LVU20
 121               	.LBB19:
 122               	.LBI19:
 123               		.file 2 "c:\\d\\ifsc\\vscodeleandro\\ex\\toolchains\\avr-gcc\\avr\\include\\util\\delay.h"
   1:c:\d\ifsc\vscodeleandro\ex\toolchains\avr-gcc\avr\include\util\delay.h **** /* Copyright (c) 2002, Marek Michalkiewicz
   2:c:\d\ifsc\vscodeleandro\ex\toolchains\avr-gcc\avr\include\util\delay.h ****    Copyright (c) 2004,2005,2007 Joerg Wunsch
   3:c:\d\ifsc\vscodeleandro\ex\toolchains\avr-gcc\avr\include\util\delay.h ****    Copyright (c) 2007  Florin-Viorel Petrov
   4:c:\d\ifsc\vscodeleandro\ex\toolchains\avr-gcc\avr\include\util\delay.h ****    All rights reserved.
   5:c:\d\ifsc\vscodeleandro\ex\toolchains\avr-gcc\avr\include\util\delay.h **** 
   6:c:\d\ifsc\vscodeleandro\ex\toolchains\avr-gcc\avr\include\util\delay.h ****    Redistribution and use in source and binary forms, with or without
   7:c:\d\ifsc\vscodeleandro\ex\toolchains\avr-gcc\avr\include\util\delay.h ****    modification, are permitted provided that the following conditions are met:
   8:c:\d\ifsc\vscodeleandro\ex\toolchains\avr-gcc\avr\include\util\delay.h **** 
   9:c:\d\ifsc\vscodeleandro\ex\toolchains\avr-gcc\avr\include\util\delay.h ****    * Redistributions of source code must retain the above copyright
  10:c:\d\ifsc\vscodeleandro\ex\toolchains\avr-gcc\avr\include\util\delay.h ****      notice, this list of conditions and the following disclaimer.
  11:c:\d\ifsc\vscodeleandro\ex\toolchains\avr-gcc\avr\include\util\delay.h **** 
  12:c:\d\ifsc\vscodeleandro\ex\toolchains\avr-gcc\avr\include\util\delay.h ****    * Redistributions in binary form must reproduce the above copyright
  13:c:\d\ifsc\vscodeleandro\ex\toolchains\avr-gcc\avr\include\util\delay.h ****      notice, this list of conditions and the following disclaimer in
  14:c:\d\ifsc\vscodeleandro\ex\toolchains\avr-gcc\avr\include\util\delay.h ****      the documentation and/or other materials provided with the
  15:c:\d\ifsc\vscodeleandro\ex\toolchains\avr-gcc\avr\include\util\delay.h ****      distribution.
  16:c:\d\ifsc\vscodeleandro\ex\toolchains\avr-gcc\avr\include\util\delay.h **** 
  17:c:\d\ifsc\vscodeleandro\ex\toolchains\avr-gcc\avr\include\util\delay.h ****    * Neither the name of the copyright holders nor the names of
  18:c:\d\ifsc\vscodeleandro\ex\toolchains\avr-gcc\avr\include\util\delay.h ****      contributors may be used to endorse or promote products derived
  19:c:\d\ifsc\vscodeleandro\ex\toolchains\avr-gcc\avr\include\util\delay.h ****      from this software without specific prior written permission.
  20:c:\d\ifsc\vscodeleandro\ex\toolchains\avr-gcc\avr\include\util\delay.h **** 
  21:c:\d\ifsc\vscodeleandro\ex\toolchains\avr-gcc\avr\include\util\delay.h ****   THIS SOFTWARE IS PROVIDED BY THE COPYRIGHT HOLDERS AND CONTRIBUTORS "AS IS"
  22:c:\d\ifsc\vscodeleandro\ex\toolchains\avr-gcc\avr\include\util\delay.h ****   AND ANY EXPRESS OR IMPLIED WARRANTIES, INCLUDING, BUT NOT LIMITED TO, THE
  23:c:\d\ifsc\vscodeleandro\ex\toolchains\avr-gcc\avr\include\util\delay.h ****   IMPLIED WARRANTIES OF MERCHANTABILITY AND FITNESS FOR A PARTICULAR PURPOSE
  24:c:\d\ifsc\vscodeleandro\ex\toolchains\avr-gcc\avr\include\util\delay.h ****   ARE DISCLAIMED. IN NO EVENT SHALL THE COPYRIGHT OWNER OR CONTRIBUTORS BE
  25:c:\d\ifsc\vscodeleandro\ex\toolchains\avr-gcc\avr\include\util\delay.h ****   LIABLE FOR ANY DIRECT, INDIRECT, INCIDENTAL, SPECIAL, EXEMPLARY, OR
GAS LISTING C:\Users\kenne\AppData\Local\Temp\ccfTCvCf.s 			page 9


  26:c:\d\ifsc\vscodeleandro\ex\toolchains\avr-gcc\avr\include\util\delay.h ****   CONSEQUENTIAL DAMAGES (INCLUDING, BUT NOT LIMITED TO, PROCUREMENT OF
  27:c:\d\ifsc\vscodeleandro\ex\toolchains\avr-gcc\avr\include\util\delay.h ****   SUBSTITUTE GOODS OR SERVICES; LOSS OF USE, DATA, OR PROFITS; OR BUSINESS
  28:c:\d\ifsc\vscodeleandro\ex\toolchains\avr-gcc\avr\include\util\delay.h ****   INTERRUPTION) HOWEVER CAUSED AND ON ANY THEORY OF LIABILITY, WHETHER IN
  29:c:\d\ifsc\vscodeleandro\ex\toolchains\avr-gcc\avr\include\util\delay.h ****   CONTRACT, STRICT LIABILITY, OR TORT (INCLUDING NEGLIGENCE OR OTHERWISE)
  30:c:\d\ifsc\vscodeleandro\ex\toolchains\avr-gcc\avr\include\util\delay.h ****   ARISING IN ANY WAY OUT OF THE USE OF THIS SOFTWARE, EVEN IF ADVISED OF THE
  31:c:\d\ifsc\vscodeleandro\ex\toolchains\avr-gcc\avr\include\util\delay.h ****   POSSIBILITY OF SUCH DAMAGE. */
  32:c:\d\ifsc\vscodeleandro\ex\toolchains\avr-gcc\avr\include\util\delay.h **** 
  33:c:\d\ifsc\vscodeleandro\ex\toolchains\avr-gcc\avr\include\util\delay.h **** /* $Id$ */
  34:c:\d\ifsc\vscodeleandro\ex\toolchains\avr-gcc\avr\include\util\delay.h **** 
  35:c:\d\ifsc\vscodeleandro\ex\toolchains\avr-gcc\avr\include\util\delay.h **** #ifndef _UTIL_DELAY_H_
  36:c:\d\ifsc\vscodeleandro\ex\toolchains\avr-gcc\avr\include\util\delay.h **** #define _UTIL_DELAY_H_ 1
  37:c:\d\ifsc\vscodeleandro\ex\toolchains\avr-gcc\avr\include\util\delay.h **** 
  38:c:\d\ifsc\vscodeleandro\ex\toolchains\avr-gcc\avr\include\util\delay.h **** #ifndef __DOXYGEN__
  39:c:\d\ifsc\vscodeleandro\ex\toolchains\avr-gcc\avr\include\util\delay.h **** #  ifndef __HAS_DELAY_CYCLES
  40:c:\d\ifsc\vscodeleandro\ex\toolchains\avr-gcc\avr\include\util\delay.h **** #    define __HAS_DELAY_CYCLES 1
  41:c:\d\ifsc\vscodeleandro\ex\toolchains\avr-gcc\avr\include\util\delay.h **** #  endif
  42:c:\d\ifsc\vscodeleandro\ex\toolchains\avr-gcc\avr\include\util\delay.h **** #endif  /* __DOXYGEN__ */
  43:c:\d\ifsc\vscodeleandro\ex\toolchains\avr-gcc\avr\include\util\delay.h **** 
  44:c:\d\ifsc\vscodeleandro\ex\toolchains\avr-gcc\avr\include\util\delay.h **** #include <inttypes.h>
  45:c:\d\ifsc\vscodeleandro\ex\toolchains\avr-gcc\avr\include\util\delay.h **** #include <util/delay_basic.h>
  46:c:\d\ifsc\vscodeleandro\ex\toolchains\avr-gcc\avr\include\util\delay.h **** #include <math.h>
  47:c:\d\ifsc\vscodeleandro\ex\toolchains\avr-gcc\avr\include\util\delay.h **** 
  48:c:\d\ifsc\vscodeleandro\ex\toolchains\avr-gcc\avr\include\util\delay.h **** /** \file */
  49:c:\d\ifsc\vscodeleandro\ex\toolchains\avr-gcc\avr\include\util\delay.h **** /** \defgroup util_delay <util/delay.h>: Convenience functions for busy-wait delay loops
  50:c:\d\ifsc\vscodeleandro\ex\toolchains\avr-gcc\avr\include\util\delay.h ****     \code
  51:c:\d\ifsc\vscodeleandro\ex\toolchains\avr-gcc\avr\include\util\delay.h ****     #define F_CPU 1000000UL  // 1 MHz
  52:c:\d\ifsc\vscodeleandro\ex\toolchains\avr-gcc\avr\include\util\delay.h ****     //#define F_CPU 14.7456E6
  53:c:\d\ifsc\vscodeleandro\ex\toolchains\avr-gcc\avr\include\util\delay.h ****     #include <util/delay.h>
  54:c:\d\ifsc\vscodeleandro\ex\toolchains\avr-gcc\avr\include\util\delay.h ****     \endcode
  55:c:\d\ifsc\vscodeleandro\ex\toolchains\avr-gcc\avr\include\util\delay.h **** 
  56:c:\d\ifsc\vscodeleandro\ex\toolchains\avr-gcc\avr\include\util\delay.h ****     \note As an alternative method, it is possible to pass the
  57:c:\d\ifsc\vscodeleandro\ex\toolchains\avr-gcc\avr\include\util\delay.h ****     F_CPU macro down to the compiler from the Makefile.
  58:c:\d\ifsc\vscodeleandro\ex\toolchains\avr-gcc\avr\include\util\delay.h ****     Obviously, in that case, no \c \#define statement should be
  59:c:\d\ifsc\vscodeleandro\ex\toolchains\avr-gcc\avr\include\util\delay.h ****     used.
  60:c:\d\ifsc\vscodeleandro\ex\toolchains\avr-gcc\avr\include\util\delay.h **** 
  61:c:\d\ifsc\vscodeleandro\ex\toolchains\avr-gcc\avr\include\util\delay.h ****     The functions in this header file are wrappers around the basic
  62:c:\d\ifsc\vscodeleandro\ex\toolchains\avr-gcc\avr\include\util\delay.h ****     busy-wait functions from <util/delay_basic.h>.  They are meant as
  63:c:\d\ifsc\vscodeleandro\ex\toolchains\avr-gcc\avr\include\util\delay.h ****     convenience functions where actual time values can be specified
  64:c:\d\ifsc\vscodeleandro\ex\toolchains\avr-gcc\avr\include\util\delay.h ****     rather than a number of cycles to wait for.  The idea behind is
  65:c:\d\ifsc\vscodeleandro\ex\toolchains\avr-gcc\avr\include\util\delay.h ****     that compile-time constant expressions will be eliminated by
  66:c:\d\ifsc\vscodeleandro\ex\toolchains\avr-gcc\avr\include\util\delay.h ****     compiler optimization so floating-point expressions can be used
  67:c:\d\ifsc\vscodeleandro\ex\toolchains\avr-gcc\avr\include\util\delay.h ****     to calculate the number of delay cycles needed based on the CPU
  68:c:\d\ifsc\vscodeleandro\ex\toolchains\avr-gcc\avr\include\util\delay.h ****     frequency passed by the macro F_CPU.
  69:c:\d\ifsc\vscodeleandro\ex\toolchains\avr-gcc\avr\include\util\delay.h **** 
  70:c:\d\ifsc\vscodeleandro\ex\toolchains\avr-gcc\avr\include\util\delay.h ****     \note In order for these functions to work as intended, compiler
  71:c:\d\ifsc\vscodeleandro\ex\toolchains\avr-gcc\avr\include\util\delay.h ****     optimizations <em>must</em> be enabled, and the delay time
  72:c:\d\ifsc\vscodeleandro\ex\toolchains\avr-gcc\avr\include\util\delay.h ****     <em>must</em> be an expression that is a known constant at
  73:c:\d\ifsc\vscodeleandro\ex\toolchains\avr-gcc\avr\include\util\delay.h ****     compile-time.  If these requirements are not met, the resulting
  74:c:\d\ifsc\vscodeleandro\ex\toolchains\avr-gcc\avr\include\util\delay.h ****     delay will be much longer (and basically unpredictable), and
  75:c:\d\ifsc\vscodeleandro\ex\toolchains\avr-gcc\avr\include\util\delay.h ****     applications that otherwise do not use floating-point calculations
  76:c:\d\ifsc\vscodeleandro\ex\toolchains\avr-gcc\avr\include\util\delay.h ****     will experience severe code bloat by the floating-point library
  77:c:\d\ifsc\vscodeleandro\ex\toolchains\avr-gcc\avr\include\util\delay.h ****     routines linked into the application.
  78:c:\d\ifsc\vscodeleandro\ex\toolchains\avr-gcc\avr\include\util\delay.h **** 
  79:c:\d\ifsc\vscodeleandro\ex\toolchains\avr-gcc\avr\include\util\delay.h ****     The functions available allow the specification of microsecond, and
  80:c:\d\ifsc\vscodeleandro\ex\toolchains\avr-gcc\avr\include\util\delay.h ****     millisecond delays directly, using the application-supplied macro
  81:c:\d\ifsc\vscodeleandro\ex\toolchains\avr-gcc\avr\include\util\delay.h ****     F_CPU as the CPU clock frequency (in Hertz).
  82:c:\d\ifsc\vscodeleandro\ex\toolchains\avr-gcc\avr\include\util\delay.h **** 
GAS LISTING C:\Users\kenne\AppData\Local\Temp\ccfTCvCf.s 			page 10


  83:c:\d\ifsc\vscodeleandro\ex\toolchains\avr-gcc\avr\include\util\delay.h **** */
  84:c:\d\ifsc\vscodeleandro\ex\toolchains\avr-gcc\avr\include\util\delay.h **** 
  85:c:\d\ifsc\vscodeleandro\ex\toolchains\avr-gcc\avr\include\util\delay.h **** #if !defined(__DOXYGEN__)
  86:c:\d\ifsc\vscodeleandro\ex\toolchains\avr-gcc\avr\include\util\delay.h **** static __inline__ void _delay_us(double __us) __attribute__((__always_inline__));
  87:c:\d\ifsc\vscodeleandro\ex\toolchains\avr-gcc\avr\include\util\delay.h **** static __inline__ void _delay_ms(double __ms) __attribute__((__always_inline__));
  88:c:\d\ifsc\vscodeleandro\ex\toolchains\avr-gcc\avr\include\util\delay.h **** #endif
  89:c:\d\ifsc\vscodeleandro\ex\toolchains\avr-gcc\avr\include\util\delay.h **** 
  90:c:\d\ifsc\vscodeleandro\ex\toolchains\avr-gcc\avr\include\util\delay.h **** #ifndef F_CPU
  91:c:\d\ifsc\vscodeleandro\ex\toolchains\avr-gcc\avr\include\util\delay.h **** /* prevent compiler error by supplying a default */
  92:c:\d\ifsc\vscodeleandro\ex\toolchains\avr-gcc\avr\include\util\delay.h **** # warning "F_CPU not defined for <util/delay.h>"
  93:c:\d\ifsc\vscodeleandro\ex\toolchains\avr-gcc\avr\include\util\delay.h **** /** \ingroup util_delay
  94:c:\d\ifsc\vscodeleandro\ex\toolchains\avr-gcc\avr\include\util\delay.h ****     \def F_CPU
  95:c:\d\ifsc\vscodeleandro\ex\toolchains\avr-gcc\avr\include\util\delay.h ****     \brief CPU frequency in Hz
  96:c:\d\ifsc\vscodeleandro\ex\toolchains\avr-gcc\avr\include\util\delay.h **** 
  97:c:\d\ifsc\vscodeleandro\ex\toolchains\avr-gcc\avr\include\util\delay.h ****     The macro F_CPU specifies the CPU frequency to be considered by
  98:c:\d\ifsc\vscodeleandro\ex\toolchains\avr-gcc\avr\include\util\delay.h ****     the delay macros.  This macro is normally supplied by the
  99:c:\d\ifsc\vscodeleandro\ex\toolchains\avr-gcc\avr\include\util\delay.h ****     environment (e.g. from within a project header, or the project's
 100:c:\d\ifsc\vscodeleandro\ex\toolchains\avr-gcc\avr\include\util\delay.h ****     Makefile).  The value 1 MHz here is only provided as a "vanilla"
 101:c:\d\ifsc\vscodeleandro\ex\toolchains\avr-gcc\avr\include\util\delay.h ****     fallback if no such user-provided definition could be found.
 102:c:\d\ifsc\vscodeleandro\ex\toolchains\avr-gcc\avr\include\util\delay.h **** 
 103:c:\d\ifsc\vscodeleandro\ex\toolchains\avr-gcc\avr\include\util\delay.h ****     In terms of the delay functions, the CPU frequency can be given as
 104:c:\d\ifsc\vscodeleandro\ex\toolchains\avr-gcc\avr\include\util\delay.h ****     a floating-point constant (e.g. 3.6864E6 for 3.6864 MHz).
 105:c:\d\ifsc\vscodeleandro\ex\toolchains\avr-gcc\avr\include\util\delay.h ****     However, the macros in <util/setbaud.h> require it to be an
 106:c:\d\ifsc\vscodeleandro\ex\toolchains\avr-gcc\avr\include\util\delay.h ****     integer value.
 107:c:\d\ifsc\vscodeleandro\ex\toolchains\avr-gcc\avr\include\util\delay.h ****  */
 108:c:\d\ifsc\vscodeleandro\ex\toolchains\avr-gcc\avr\include\util\delay.h **** # define F_CPU 1000000UL
 109:c:\d\ifsc\vscodeleandro\ex\toolchains\avr-gcc\avr\include\util\delay.h **** #endif
 110:c:\d\ifsc\vscodeleandro\ex\toolchains\avr-gcc\avr\include\util\delay.h **** 
 111:c:\d\ifsc\vscodeleandro\ex\toolchains\avr-gcc\avr\include\util\delay.h **** #ifndef __OPTIMIZE__
 112:c:\d\ifsc\vscodeleandro\ex\toolchains\avr-gcc\avr\include\util\delay.h **** # warning "Compiler optimizations disabled; functions from <util/delay.h> won't work as designed"
 113:c:\d\ifsc\vscodeleandro\ex\toolchains\avr-gcc\avr\include\util\delay.h **** #endif
 114:c:\d\ifsc\vscodeleandro\ex\toolchains\avr-gcc\avr\include\util\delay.h **** 
 115:c:\d\ifsc\vscodeleandro\ex\toolchains\avr-gcc\avr\include\util\delay.h **** #if __HAS_DELAY_CYCLES && defined(__OPTIMIZE__) && \
 116:c:\d\ifsc\vscodeleandro\ex\toolchains\avr-gcc\avr\include\util\delay.h ****   !defined(__DELAY_BACKWARD_COMPATIBLE__) &&	   \
 117:c:\d\ifsc\vscodeleandro\ex\toolchains\avr-gcc\avr\include\util\delay.h ****   __STDC_HOSTED__
 118:c:\d\ifsc\vscodeleandro\ex\toolchains\avr-gcc\avr\include\util\delay.h **** #  include <math.h>
 119:c:\d\ifsc\vscodeleandro\ex\toolchains\avr-gcc\avr\include\util\delay.h **** #endif
 120:c:\d\ifsc\vscodeleandro\ex\toolchains\avr-gcc\avr\include\util\delay.h **** 
 121:c:\d\ifsc\vscodeleandro\ex\toolchains\avr-gcc\avr\include\util\delay.h **** /**
 122:c:\d\ifsc\vscodeleandro\ex\toolchains\avr-gcc\avr\include\util\delay.h ****    \ingroup util_delay
 123:c:\d\ifsc\vscodeleandro\ex\toolchains\avr-gcc\avr\include\util\delay.h **** 
 124:c:\d\ifsc\vscodeleandro\ex\toolchains\avr-gcc\avr\include\util\delay.h ****    Perform a delay of \c __ms milliseconds, using _delay_loop_2().
 125:c:\d\ifsc\vscodeleandro\ex\toolchains\avr-gcc\avr\include\util\delay.h **** 
 126:c:\d\ifsc\vscodeleandro\ex\toolchains\avr-gcc\avr\include\util\delay.h ****    The macro F_CPU is supposed to be defined to a
 127:c:\d\ifsc\vscodeleandro\ex\toolchains\avr-gcc\avr\include\util\delay.h ****    constant defining the CPU clock frequency (in Hertz).
 128:c:\d\ifsc\vscodeleandro\ex\toolchains\avr-gcc\avr\include\util\delay.h **** 
 129:c:\d\ifsc\vscodeleandro\ex\toolchains\avr-gcc\avr\include\util\delay.h ****    The maximal possible delay is 262.14 ms / F_CPU in MHz.
 130:c:\d\ifsc\vscodeleandro\ex\toolchains\avr-gcc\avr\include\util\delay.h **** 
 131:c:\d\ifsc\vscodeleandro\ex\toolchains\avr-gcc\avr\include\util\delay.h ****    When the user request delay which exceed the maximum possible one,
 132:c:\d\ifsc\vscodeleandro\ex\toolchains\avr-gcc\avr\include\util\delay.h ****    _delay_ms() provides a decreased resolution functionality. In this
 133:c:\d\ifsc\vscodeleandro\ex\toolchains\avr-gcc\avr\include\util\delay.h ****    mode _delay_ms() will work with a resolution of 1/10 ms, providing
 134:c:\d\ifsc\vscodeleandro\ex\toolchains\avr-gcc\avr\include\util\delay.h ****    delays up to 6.5535 seconds (independent from CPU frequency).  The
 135:c:\d\ifsc\vscodeleandro\ex\toolchains\avr-gcc\avr\include\util\delay.h ****    user will not be informed about decreased resolution.
 136:c:\d\ifsc\vscodeleandro\ex\toolchains\avr-gcc\avr\include\util\delay.h **** 
 137:c:\d\ifsc\vscodeleandro\ex\toolchains\avr-gcc\avr\include\util\delay.h ****    If the avr-gcc toolchain has __builtin_avr_delay_cycles()
 138:c:\d\ifsc\vscodeleandro\ex\toolchains\avr-gcc\avr\include\util\delay.h ****    support, maximal possible delay is 4294967.295 ms/ F_CPU in MHz. For
 139:c:\d\ifsc\vscodeleandro\ex\toolchains\avr-gcc\avr\include\util\delay.h ****    values greater than the maximal possible delay, overflows results in
GAS LISTING C:\Users\kenne\AppData\Local\Temp\ccfTCvCf.s 			page 11


 140:c:\d\ifsc\vscodeleandro\ex\toolchains\avr-gcc\avr\include\util\delay.h ****    no delay i.e., 0ms.
 141:c:\d\ifsc\vscodeleandro\ex\toolchains\avr-gcc\avr\include\util\delay.h **** 
 142:c:\d\ifsc\vscodeleandro\ex\toolchains\avr-gcc\avr\include\util\delay.h ****    Conversion of \c __ms into clock cycles may not always result in
 143:c:\d\ifsc\vscodeleandro\ex\toolchains\avr-gcc\avr\include\util\delay.h ****    integer.  By default, the clock cycles rounded up to next
 144:c:\d\ifsc\vscodeleandro\ex\toolchains\avr-gcc\avr\include\util\delay.h ****    integer. This ensures that the user gets at least \c __ms
 145:c:\d\ifsc\vscodeleandro\ex\toolchains\avr-gcc\avr\include\util\delay.h ****    microseconds of delay.
 146:c:\d\ifsc\vscodeleandro\ex\toolchains\avr-gcc\avr\include\util\delay.h **** 
 147:c:\d\ifsc\vscodeleandro\ex\toolchains\avr-gcc\avr\include\util\delay.h ****    Alternatively, by defining the macro \c __DELAY_ROUND_DOWN__, or
 148:c:\d\ifsc\vscodeleandro\ex\toolchains\avr-gcc\avr\include\util\delay.h ****    \c __DELAY_ROUND_CLOSEST__, before including this header file, the
 149:c:\d\ifsc\vscodeleandro\ex\toolchains\avr-gcc\avr\include\util\delay.h ****    algorithm can be made to round down, or round to closest integer,
 150:c:\d\ifsc\vscodeleandro\ex\toolchains\avr-gcc\avr\include\util\delay.h ****    respectively.
 151:c:\d\ifsc\vscodeleandro\ex\toolchains\avr-gcc\avr\include\util\delay.h **** 
 152:c:\d\ifsc\vscodeleandro\ex\toolchains\avr-gcc\avr\include\util\delay.h ****    \note
 153:c:\d\ifsc\vscodeleandro\ex\toolchains\avr-gcc\avr\include\util\delay.h **** 
 154:c:\d\ifsc\vscodeleandro\ex\toolchains\avr-gcc\avr\include\util\delay.h ****    The implementation of _delay_ms() based on
 155:c:\d\ifsc\vscodeleandro\ex\toolchains\avr-gcc\avr\include\util\delay.h ****    __builtin_avr_delay_cycles() is not backward compatible with older
 156:c:\d\ifsc\vscodeleandro\ex\toolchains\avr-gcc\avr\include\util\delay.h ****    implementations.  In order to get functionality backward compatible
 157:c:\d\ifsc\vscodeleandro\ex\toolchains\avr-gcc\avr\include\util\delay.h ****    with previous versions, the macro \c "__DELAY_BACKWARD_COMPATIBLE__"
 158:c:\d\ifsc\vscodeleandro\ex\toolchains\avr-gcc\avr\include\util\delay.h ****    must be defined before including this header file. Also, the
 159:c:\d\ifsc\vscodeleandro\ex\toolchains\avr-gcc\avr\include\util\delay.h ****    backward compatible algorithm will be chosen if the code is
 160:c:\d\ifsc\vscodeleandro\ex\toolchains\avr-gcc\avr\include\util\delay.h ****    compiled in a <em>freestanding environment</em> (GCC option
 161:c:\d\ifsc\vscodeleandro\ex\toolchains\avr-gcc\avr\include\util\delay.h ****    \c -ffreestanding), as the math functions required for rounding are
 162:c:\d\ifsc\vscodeleandro\ex\toolchains\avr-gcc\avr\include\util\delay.h ****    not available to the compiler then.
 163:c:\d\ifsc\vscodeleandro\ex\toolchains\avr-gcc\avr\include\util\delay.h **** 
 164:c:\d\ifsc\vscodeleandro\ex\toolchains\avr-gcc\avr\include\util\delay.h ****  */
 165:c:\d\ifsc\vscodeleandro\ex\toolchains\avr-gcc\avr\include\util\delay.h **** void
 166:c:\d\ifsc\vscodeleandro\ex\toolchains\avr-gcc\avr\include\util\delay.h **** _delay_ms(double __ms)
 124               		.loc 2 166 1 view .LVU21
 125               	.LBB20:
 167:c:\d\ifsc\vscodeleandro\ex\toolchains\avr-gcc\avr\include\util\delay.h **** {
 168:c:\d\ifsc\vscodeleandro\ex\toolchains\avr-gcc\avr\include\util\delay.h **** 	double __tmp ;
 126               		.loc 2 168 2 view .LVU22
 169:c:\d\ifsc\vscodeleandro\ex\toolchains\avr-gcc\avr\include\util\delay.h **** #if __HAS_DELAY_CYCLES && defined(__OPTIMIZE__) && \
 170:c:\d\ifsc\vscodeleandro\ex\toolchains\avr-gcc\avr\include\util\delay.h ****   !defined(__DELAY_BACKWARD_COMPATIBLE__) &&	   \
 171:c:\d\ifsc\vscodeleandro\ex\toolchains\avr-gcc\avr\include\util\delay.h ****   __STDC_HOSTED__
 172:c:\d\ifsc\vscodeleandro\ex\toolchains\avr-gcc\avr\include\util\delay.h **** 	uint32_t __ticks_dc;
 127               		.loc 2 172 2 view .LVU23
 173:c:\d\ifsc\vscodeleandro\ex\toolchains\avr-gcc\avr\include\util\delay.h **** 	extern void __builtin_avr_delay_cycles(unsigned long);
 128               		.loc 2 173 2 view .LVU24
 174:c:\d\ifsc\vscodeleandro\ex\toolchains\avr-gcc\avr\include\util\delay.h **** 	__tmp = ((F_CPU) / 1e3) * __ms;
 129               		.loc 2 174 2 view .LVU25
 175:c:\d\ifsc\vscodeleandro\ex\toolchains\avr-gcc\avr\include\util\delay.h **** 
 176:c:\d\ifsc\vscodeleandro\ex\toolchains\avr-gcc\avr\include\util\delay.h **** 	#if defined(__DELAY_ROUND_DOWN__)
 177:c:\d\ifsc\vscodeleandro\ex\toolchains\avr-gcc\avr\include\util\delay.h **** 		__ticks_dc = (uint32_t)fabs(__tmp);
 178:c:\d\ifsc\vscodeleandro\ex\toolchains\avr-gcc\avr\include\util\delay.h **** 
 179:c:\d\ifsc\vscodeleandro\ex\toolchains\avr-gcc\avr\include\util\delay.h **** 	#elif defined(__DELAY_ROUND_CLOSEST__)
 180:c:\d\ifsc\vscodeleandro\ex\toolchains\avr-gcc\avr\include\util\delay.h **** 		__ticks_dc = (uint32_t)(fabs(__tmp)+0.5);
 181:c:\d\ifsc\vscodeleandro\ex\toolchains\avr-gcc\avr\include\util\delay.h **** 
 182:c:\d\ifsc\vscodeleandro\ex\toolchains\avr-gcc\avr\include\util\delay.h **** 	#else
 183:c:\d\ifsc\vscodeleandro\ex\toolchains\avr-gcc\avr\include\util\delay.h **** 		//round up by default
 184:c:\d\ifsc\vscodeleandro\ex\toolchains\avr-gcc\avr\include\util\delay.h **** 		__ticks_dc = (uint32_t)(ceil(fabs(__tmp)));
 130               		.loc 2 184 3 view .LVU26
 185:c:\d\ifsc\vscodeleandro\ex\toolchains\avr-gcc\avr\include\util\delay.h **** 	#endif
 186:c:\d\ifsc\vscodeleandro\ex\toolchains\avr-gcc\avr\include\util\delay.h **** 
 187:c:\d\ifsc\vscodeleandro\ex\toolchains\avr-gcc\avr\include\util\delay.h **** 	__builtin_avr_delay_cycles(__ticks_dc);
 131               		.loc 2 187 2 view .LVU27
 132 0068 9FEF      		ldi r25,lo8(479999)
GAS LISTING C:\Users\kenne\AppData\Local\Temp\ccfTCvCf.s 			page 12


 133 006a 22E5      		ldi r18,hi8(479999)
 134 006c 87E0      		ldi r24,hlo8(479999)
 135 006e 9150      	1:	subi r25,1
 136 0070 2040      		sbci r18,0
 137 0072 8040      		sbci r24,0
 138 0074 01F4      		brne 1b
 139 0076 00C0      		rjmp .
 140 0078 0000      		nop
 141               	.LVL9:
 142               		.loc 2 187 2 is_stmt 0 view .LVU28
 143               	.LBE20:
 144               	.LBE19:
 145 007a 0F90      		pop __tmp_reg__
 146 007c 0F90      		pop __tmp_reg__
 147 007e 0F90      		pop __tmp_reg__
 148 0080 0F90      		pop __tmp_reg__
 149 0082 0F90      		pop __tmp_reg__
 150 0084 0F90      		pop __tmp_reg__
 151               	.LVL10:
 152               	.L2:
 153               		.loc 2 187 2 view .LVU29
 154               	.LBE18:
 290:src/FP_program.c **** 	{
 155               		.loc 1 290 11 is_stmt 1 view .LVU30
 156 0086 0111      		cpse r16,__zero_reg__
 157 0088 00C0      		rjmp .L11
 158               	.LBB21:
 292:src/FP_program.c **** 		ids++;
 159               		.loc 1 292 3 view .LVU31
 292:src/FP_program.c **** 		ids++;
 160               		.loc 1 292 6 is_stmt 0 view .LVU32
 161 008a 0E94 0000 		call keys_Feedback
 162               	.LVL11:
 292:src/FP_program.c **** 		ids++;
 163               		.loc 1 292 5 view .LVU33
 164 008e 8130      		cpi r24,lo8(1)
 165 0090 01F4      		brne .L3
 293:src/FP_program.c **** 		else if(keys_Feedback() == keys_down)
 166               		.loc 1 293 3 is_stmt 1 view .LVU34
 293:src/FP_program.c **** 		else if(keys_Feedback() == keys_down)
 167               		.loc 1 293 6 is_stmt 0 view .LVU35
 168 0092 1F5F      		subi r17,lo8(-(1))
 169               	.LVL12:
 293:src/FP_program.c **** 		else if(keys_Feedback() == keys_down)
 170               		.loc 1 293 6 view .LVU36
 171 0094 00C0      		rjmp .L4
 172               	.L5:
 296:src/FP_program.c **** 		ok = 1;
 173               		.loc 1 296 8 is_stmt 1 view .LVU37
 296:src/FP_program.c **** 		ok = 1;
 174               		.loc 1 296 11 is_stmt 0 view .LVU38
 175 0096 0E94 0000 		call keys_Feedback
 176               	.LVL13:
 296:src/FP_program.c **** 		ok = 1;
 177               		.loc 1 296 10 view .LVU39
 178 009a 8330      		cpi r24,lo8(3)
 179 009c 01F4      		brne .L4
GAS LISTING C:\Users\kenne\AppData\Local\Temp\ccfTCvCf.s 			page 13


 297:src/FP_program.c **** 		if(ids >= 128)
 180               		.loc 1 297 6 view .LVU40
 181 009e 01E0      		ldi r16,lo8(1)
 182               	.LVL14:
 297:src/FP_program.c **** 		if(ids >= 128)
 183               		.loc 1 297 6 view .LVU41
 184 00a0 00C0      		rjmp .L4
 185               	.LVL15:
 186               	.L10:
 299:src/FP_program.c **** 		unsigned char String[20];
 187               		.loc 1 299 7 view .LVU42
 188 00a2 11E0      		ldi r17,lo8(1)
 189               	.LVL16:
 299:src/FP_program.c **** 		unsigned char String[20];
 190               		.loc 1 299 7 view .LVU43
 191 00a4 00C0      		rjmp .L6
 192               	.LVL17:
 193               	.L11:
 299:src/FP_program.c **** 		unsigned char String[20];
 194               		.loc 1 299 7 view .LVU44
 195               	.LBE21:
 305:src/FP_program.c **** 	}
 306:src/FP_program.c **** 	return ids;
 196               		.loc 1 306 2 is_stmt 1 view .LVU45
 307:src/FP_program.c **** }
 197               		.loc 1 307 1 is_stmt 0 view .LVU46
 198 00a6 812F      		mov r24,r17
 199               	/* epilogue start */
 200 00a8 6496      		adiw r28,20
 201 00aa 0FB6      		in __tmp_reg__,__SREG__
 202 00ac F894      		cli
 203 00ae DEBF      		out __SP_H__,r29
 204 00b0 0FBE      		out __SREG__,__tmp_reg__
 205 00b2 CDBF      		out __SP_L__,r28
 206 00b4 DF91      		pop r29
 207 00b6 CF91      		pop r28
 208 00b8 1F91      		pop r17
 209               	.LVL18:
 210               		.loc 1 307 1 view .LVU47
 211 00ba 0F91      		pop r16
 212               	.LVL19:
 213               		.loc 1 307 1 view .LVU48
 214 00bc FF90      		pop r15
 215 00be EF90      		pop r14
 216 00c0 0895      		ret
 217               		.cfi_endproc
 218               	.LFE7:
 220               		.section	.rodata.sendcmd2fb.str1.1,"aMS",@progbits,1
 221               	.LC2:
 222 0000 5365 6172 		.string	"Search 4 Module"
 222      6368 2034 
 222      204D 6F64 
 222      756C 6500 
 223               	.LC3:
 224 0010 506C 6163 		.string	"Place UR Finger"
 224      6520 5552 
 224      2046 696E 
GAS LISTING C:\Users\kenne\AppData\Local\Temp\ccfTCvCf.s 			page 14


 224      6765 7200 
 225               	.LC4:
 226 0020 5072 6F63 		.string	"Processing.."
 226      6573 7369 
 226      6E67 2E2E 
 226      00
 227               	.LC5:
 228 002d 4372 6561 		.string	"Creating Model"
 228      7469 6E67 
 228      204D 6F64 
 228      656C 00
 229               	.LC6:
 230 003c 4944 7320 		.string	"IDs Erasing"
 230      4572 6173 
 230      696E 6700 
 231               	.LC7:
 232 0048 5365 6172 		.string	"Searching..."
 232      6368 696E 
 232      672E 2E2E 
 232      00
 233               	.LC8:
 234 0055 5374 6F72 		.string	"Storing Model"
 234      696E 6720 
 234      4D6F 6465 
 234      6C00 
 235               	.LC9:
 236 0063 4465 6C65 		.string	"Delete Finger"
 236      7465 2046 
 236      696E 6765 
 236      7200 
 237               	.LC10:
 238 0071 5263 7620 		.string	"Rcv packet error"
 238      7061 636B 
 238      6574 2065 
 238      7272 6F72 
 238      00
 239               	.LC11:
 240 0082 6661 696C 		.string	"fail.  Try again"
 240      2E20 2054 
 240      7279 2061 
 240      6761 696E 
 240      00
 241               	.LC12:
 242 0093 4661 696C 		.string	"Fail Clean & Try"
 242      2043 6C65 
 242      616E 2026 
 242      2054 7279 
 242      00
 243               	.LC13:
 244 00a4 4661 696C 		.string	"FailedGenerating"
 244      6564 4765 
 244      6E65 7261 
 244      7469 6E67 
 244      00
 245               	.LC14:
 246 00b5 536D 616C 		.string	"SmallFinger Area"
 246      6C46 696E 
GAS LISTING C:\Users\kenne\AppData\Local\Temp\ccfTCvCf.s 			page 15


 246      6765 7220 
 246      4172 6561 
 246      00
 247               	.LC15:
 248 00c6 4944 206E 		.string	"ID not Found"
 248      6F74 2046 
 248      6F75 6E64 
 248      00
 249               	.LC16:
 250 00d3 4944 206F 		.string	"ID overload"
 250      7665 726C 
 250      6F61 6400 
 251               	.LC17:
 252 00df 466C 6173 		.string	"FlashWritingErr"
 252      6857 7269 
 252      7469 6E67 
 252      4572 7200 
 253               	.LC18:
 254 00ef 4661 696C 		.string	"Failed modeling"
 254      6564 206D 
 254      6F64 656C 
 254      696E 6700 
 255               	.LC19:
 256 00ff 5061 7373 		.string	"Password incorrect"
 256      776F 7264 
 256      2069 6E63 
 256      6F72 7265 
 256      6374 00
 257               	.LC20:
 258 0112 6D75 7374 		.string	"must verify pass"
 258      2076 6572 
 258      6966 7920 
 258      7061 7373 
 258      00
 259               	.LC21:
 260 0123 4361 6E74 		.string	"CantDetectFinger"
 260      4465 7465 
 260      6374 4669 
 260      6E67 6572 
 260      00
 261               	.LC22:
 262 0134 4661 696C 		.string	"Fail To Collect"
 262      2054 6F20 
 262      436F 6C6C 
 262      6563 7400 
 263               	.LC23:
 264 0144 4E4F 5420 		.string	"NOT DEFINED ERROR"
 264      4445 4649 
 264      4E45 4420 
 264      4552 524F 
 264      5200 
 265               	.LC24:
 266 0156 4650 206D 		.string	"FP module"
 266      6F64 756C 
 266      6500 
 267               	.LC25:
 268 0160 636F 6E6E 		.string	"connection Error"
GAS LISTING C:\Users\kenne\AppData\Local\Temp\ccfTCvCf.s 			page 16


 268      6563 7469 
 268      6F6E 2045 
 268      7272 6F72 
 268      00
 269               	.LC26:
 270 0171 4650 206E 		.string	"FP not Found or"
 270      6F74 2046 
 270      6F75 6E64 
 270      206F 7200 
 271               	.LC27:
 272 0181 4E6F 7420 		.string	"Not Responding"
 272      5265 7370 
 272      6F6E 6469 
 272      6E67 00
 273               	.LC28:
 274 0190 4D6F 6475 		.string	"Module Found"
 274      6C65 2046 
 274      6F75 6E64 
 274      00
 275               	.LC29:
 276 019d 4669 6E67 		.string	"Finger Captured"
 276      6572 2043 
 276      6170 7475 
 276      7265 6400 
 277               	.LC30:
 278 01ad 446F 6E65 		.string	"Done"
 278      00
 279               	.LC31:
 280 01b2 4D6F 6465 		.string	"Model Created"
 280      6C20 4372 
 280      6561 7465 
 280      6400 
 281               	.LC32:
 282 01c0 4D65 6D6F 		.string	"Memory Erased"
 282      7279 2045 
 282      7261 7365 
 282      6400 
 283               	.LC33:
 284 01ce 466F 756E 		.string	"Found in ID: "
 284      6420 696E 
 284      2049 443A 
 284      2000 
 285               	.LC34:
 286 01dc 5361 7665 		.string	"Saved Successful"
 286      6420 5375 
 286      6363 6573 
 286      7366 756C 
 286      00
 287               	.LC35:
 288 01ed 4944 3A20 		.string	"ID: %d Deleted"
 288      2564 2044 
 288      656C 6574 
 288      6564 00
 289               		.section	.text.sendcmd2fb,"ax",@progbits
 290               	.global	sendcmd2fb
 292               	sendcmd2fb:
 293               	.LVL20:
GAS LISTING C:\Users\kenne\AppData\Local\Temp\ccfTCvCf.s 			page 17


 294               	.LFB6:
  32:src/FP_program.c **** 	unsigned char successed = again;
 295               		.loc 1 32 1 is_stmt 1 view -0
 296               		.cfi_startproc
  32:src/FP_program.c **** 	unsigned char successed = again;
 297               		.loc 1 32 1 is_stmt 0 view .LVU50
 298 0000 CF92      		push r12
 299               		.cfi_def_cfa_offset 3
 300               		.cfi_offset 12, -2
 301 0002 DF92      		push r13
 302               		.cfi_def_cfa_offset 4
 303               		.cfi_offset 13, -3
 304 0004 FF92      		push r15
 305               		.cfi_def_cfa_offset 5
 306               		.cfi_offset 15, -4
 307 0006 0F93      		push r16
 308               		.cfi_def_cfa_offset 6
 309               		.cfi_offset 16, -5
 310 0008 1F93      		push r17
 311               		.cfi_def_cfa_offset 7
 312               		.cfi_offset 17, -6
 313 000a CF93      		push r28
 314               		.cfi_def_cfa_offset 8
 315               		.cfi_offset 28, -7
 316 000c DF93      		push r29
 317               		.cfi_def_cfa_offset 9
 318               		.cfi_offset 29, -8
 319 000e CDB7      		in r28,__SP_L__
 320 0010 DEB7      		in r29,__SP_H__
 321               		.cfi_def_cfa_register 28
 322 0012 6497      		sbiw r28,20
 323               		.cfi_def_cfa_offset 29
 324 0014 0FB6      		in __tmp_reg__,__SREG__
 325 0016 F894      		cli
 326 0018 DEBF      		out __SP_H__,r29
 327 001a 0FBE      		out __SREG__,__tmp_reg__
 328 001c CDBF      		out __SP_L__,r28
 329               	/* prologue: function */
 330               	/* frame size = 20 */
 331               	/* stack size = 27 */
 332               	.L__stack_usage = 27
 333 001e 182F      		mov r17,r24
  33:src/FP_program.c **** 	while (successed == again)
 334               		.loc 1 33 2 is_stmt 1 view .LVU51
 335               	.LVL21:
  34:src/FP_program.c **** 	{
 336               		.loc 1 34 2 view .LVU52
  33:src/FP_program.c **** 	while (successed == again)
 337               		.loc 1 33 16 is_stmt 0 view .LVU53
 338 0020 02E0      		ldi r16,lo8(2)
  34:src/FP_program.c **** 	{
 339               		.loc 1 34 8 view .LVU54
 340 0022 00C0      		rjmp .L13
 341               	.LVL22:
 342               	.L24:
 343               	.LBB22:
  44:src/FP_program.c **** 				break;
GAS LISTING C:\Users\kenne\AppData\Local\Temp\ccfTCvCf.s 			page 18


 344               		.loc 1 44 5 is_stmt 1 view .LVU55
 345 0024 80E0      		ldi r24,lo8(.LC2)
 346 0026 90E0      		ldi r25,hi8(.LC2)
 347 0028 0E94 0000 		call lcdprint
 348               	.LVL23:
  45:src/FP_program.c **** 
 349               		.loc 1 45 5 view .LVU56
 350               	.L14:
  86:src/FP_program.c **** 		UART_Array(&Address,4);
 351               		.loc 1 86 3 view .LVU57
 352 002c 62E0      		ldi r22,lo8(2)
 353 002e 70E0      		ldi r23,0
 354 0030 80E0      		ldi r24,lo8(Header)
 355 0032 90E0      		ldi r25,hi8(Header)
 356 0034 0E94 0000 		call UART_Array
 357               	.LVL24:
  87:src/FP_program.c **** 		UART_Array(&Command,2);
 358               		.loc 1 87 3 view .LVU58
 359 0038 64E0      		ldi r22,lo8(4)
 360 003a 70E0      		ldi r23,0
 361 003c 80E0      		ldi r24,lo8(Address)
 362 003e 90E0      		ldi r25,hi8(Address)
 363 0040 0E94 0000 		call UART_Array
 364               	.LVL25:
  88:src/FP_program.c **** 
 365               		.loc 1 88 3 view .LVU59
 366 0044 62E0      		ldi r22,lo8(2)
 367 0046 70E0      		ldi r23,0
 368 0048 80E0      		ldi r24,lo8(Command)
 369 004a 90E0      		ldi r25,hi8(Command)
 370 004c 0E94 0000 		call UART_Array
 371               	.LVL26:
  90:src/FP_program.c **** 		unsigned char ID;
 372               		.loc 1 90 3 view .LVU60
  91:src/FP_program.c **** 
 373               		.loc 1 91 3 view .LVU61
  94:src/FP_program.c **** 		{
 374               		.loc 1 94 3 view .LVU62
 375 0050 EFEF      		ldi r30,lo8(-1)
 376 0052 E10F      		add r30,r17
 377 0054 E930      		cpi r30,lo8(9)
 378 0056 00F4      		brsh .L25
 379 0058 F0E0      		ldi r31,0
 380 005a E050      		subi r30,lo8(-(gs(.L27)))
 381 005c F040      		sbci r31,hi8(-(gs(.L27)))
 382 005e 0C94 0000 		jmp __tablejump2__
 383               		.section	.jumptables.gcc.sendcmd2fb,"a",@progbits
 384               		.p2align	1
 385               	.L27:
 386 0000 0000      		.word gs(.L35)
 387 0002 0000      		.word gs(.L34)
 388 0004 0000      		.word gs(.L33)
 389 0006 0000      		.word gs(.L32)
 390 0008 0000      		.word gs(.L31)
 391 000a 0000      		.word gs(.L30)
 392 000c 0000      		.word gs(.L29)
 393 000e 0000      		.word gs(.L28)
GAS LISTING C:\Users\kenne\AppData\Local\Temp\ccfTCvCf.s 			page 19


 394 0010 0000      		.word gs(.L26)
 395               		.section	.text.sendcmd2fb
 396               	.L23:
  48:src/FP_program.c **** 				break;
 397               		.loc 1 48 5 view .LVU63
 398 0062 80E0      		ldi r24,lo8(.LC3)
 399 0064 90E0      		ldi r25,hi8(.LC3)
 400 0066 0E94 0000 		call lcdprint
 401               	.LVL27:
  49:src/FP_program.c **** 
 402               		.loc 1 49 5 view .LVU64
 403 006a 00C0      		rjmp .L14
 404               	.L22:
  52:src/FP_program.c **** 				break;
 405               		.loc 1 52 5 view .LVU65
 406 006c 80E0      		ldi r24,lo8(.LC4)
 407 006e 90E0      		ldi r25,hi8(.LC4)
 408 0070 0E94 0000 		call lcdprint
 409               	.LVL28:
  53:src/FP_program.c **** 
 410               		.loc 1 53 5 view .LVU66
 411 0074 00C0      		rjmp .L14
 412               	.L21:
  56:src/FP_program.c **** 				break;
 413               		.loc 1 56 5 view .LVU67
 414 0076 80E0      		ldi r24,lo8(.LC4)
 415 0078 90E0      		ldi r25,hi8(.LC4)
 416 007a 0E94 0000 		call lcdprint
 417               	.LVL29:
  57:src/FP_program.c **** 
 418               		.loc 1 57 5 view .LVU68
 419 007e 00C0      		rjmp .L14
 420               	.L20:
  60:src/FP_program.c **** 				break;
 421               		.loc 1 60 5 view .LVU69
 422 0080 80E0      		ldi r24,lo8(.LC5)
 423 0082 90E0      		ldi r25,hi8(.LC5)
 424 0084 0E94 0000 		call lcdprint
 425               	.LVL30:
  61:src/FP_program.c **** 
 426               		.loc 1 61 5 view .LVU70
 427 0088 00C0      		rjmp .L14
 428               	.L17:
  64:src/FP_program.c **** 				break;
 429               		.loc 1 64 5 view .LVU71
 430 008a 80E0      		ldi r24,lo8(.LC6)
 431 008c 90E0      		ldi r25,hi8(.LC6)
 432 008e 0E94 0000 		call lcdprint
 433               	.LVL31:
  65:src/FP_program.c **** 
 434               		.loc 1 65 5 view .LVU72
 435 0092 00C0      		rjmp .L14
 436               	.L15:
  68:src/FP_program.c **** 				break;
 437               		.loc 1 68 5 view .LVU73
 438 0094 80E0      		ldi r24,lo8(.LC7)
 439 0096 90E0      		ldi r25,hi8(.LC7)
GAS LISTING C:\Users\kenne\AppData\Local\Temp\ccfTCvCf.s 			page 20


 440 0098 0E94 0000 		call lcdprint
 441               	.LVL32:
  69:src/FP_program.c **** 
 442               		.loc 1 69 5 view .LVU74
 443 009c 00C0      		rjmp .L14
 444               	.L19:
  72:src/FP_program.c **** 				break;
 445               		.loc 1 72 5 view .LVU75
 446 009e 80E0      		ldi r24,lo8(.LC8)
 447 00a0 90E0      		ldi r25,hi8(.LC8)
 448 00a2 0E94 0000 		call lcdprint
 449               	.LVL33:
  73:src/FP_program.c **** 
 450               		.loc 1 73 5 view .LVU76
 451 00a6 00C0      		rjmp .L14
 452               	.L18:
  76:src/FP_program.c **** 				break;
 453               		.loc 1 76 5 view .LVU77
 454 00a8 80E0      		ldi r24,lo8(.LC9)
 455 00aa 90E0      		ldi r25,hi8(.LC9)
 456 00ac 0E94 0000 		call lcdprint
 457               	.LVL34:
  77:src/FP_program.c **** 		}
 458               		.loc 1 77 5 view .LVU78
 459 00b0 00C0      		rjmp .L14
 460               	.L35:
  97:src/FP_program.c **** 				UART_Array(&PassVfy,arr_size);
 461               		.loc 1 97 5 view .LVU79
 462               	.LVL35:
  98:src/FP_program.c **** 				break;
 463               		.loc 1 98 5 view .LVU80
 464 00b2 68E0      		ldi r22,lo8(8)
 465 00b4 70E0      		ldi r23,0
 466 00b6 80E0      		ldi r24,lo8(PassVfy)
 467 00b8 90E0      		ldi r25,hi8(PassVfy)
 468 00ba 0E94 0000 		call UART_Array
 469               	.LVL36:
  99:src/FP_program.c **** 
 470               		.loc 1 99 5 view .LVU81
 471               	.L25:
 153:src/FP_program.c **** 
 472               		.loc 1 153 3 view .LVU82
 473               	.LBB23:
 474               	.LBI23:
 166:c:\d\ifsc\vscodeleandro\ex\toolchains\avr-gcc\avr\include\util\delay.h **** {
 475               		.loc 2 166 1 view .LVU83
 476               	.LBB24:
 168:c:\d\ifsc\vscodeleandro\ex\toolchains\avr-gcc\avr\include\util\delay.h **** #if __HAS_DELAY_CYCLES && defined(__OPTIMIZE__) && \
 477               		.loc 2 168 2 view .LVU84
 172:c:\d\ifsc\vscodeleandro\ex\toolchains\avr-gcc\avr\include\util\delay.h **** 	extern void __builtin_avr_delay_cycles(unsigned long);
 478               		.loc 2 172 2 view .LVU85
 173:c:\d\ifsc\vscodeleandro\ex\toolchains\avr-gcc\avr\include\util\delay.h **** 	__tmp = ((F_CPU) / 1e3) * __ms;
 479               		.loc 2 173 2 view .LVU86
 174:c:\d\ifsc\vscodeleandro\ex\toolchains\avr-gcc\avr\include\util\delay.h **** 
 480               		.loc 2 174 2 view .LVU87
 184:c:\d\ifsc\vscodeleandro\ex\toolchains\avr-gcc\avr\include\util\delay.h **** 	#endif
 481               		.loc 2 184 3 view .LVU88
GAS LISTING C:\Users\kenne\AppData\Local\Temp\ccfTCvCf.s 			page 21


 482               		.loc 2 187 2 view .LVU89
 483 00be 2FEF      		ldi r18,lo8(2399999)
 484 00c0 8EE9      		ldi r24,hi8(2399999)
 485 00c2 94E2      		ldi r25,hlo8(2399999)
 486 00c4 2150      	1:	subi r18,1
 487 00c6 8040      		sbci r24,0
 488 00c8 9040      		sbci r25,0
 489 00ca 01F4      		brne 1b
 490 00cc 00C0      		rjmp .
 491 00ce 0000      		nop
 492               	.LVL37:
 493               		.loc 2 187 2 is_stmt 0 view .LVU90
 494               	.LBE24:
 495               	.LBE23:
 162:src/FP_program.c **** 		{
 496               		.loc 1 162 3 is_stmt 1 view .LVU91
 162:src/FP_program.c **** 		{
 497               		.loc 1 162 10 is_stmt 0 view .LVU92
 498 00d0 8091 0000 		lds r24,cont
 162:src/FP_program.c **** 		{
 499               		.loc 1 162 5 view .LVU93
 500 00d4 8230      		cpi r24,lo8(2)
 501 00d6 04F4      		brge .+2
 502 00d8 00C0      		rjmp .L36
 164:src/FP_program.c **** 			{
 503               		.loc 1 164 4 is_stmt 1 view .LVU94
 164:src/FP_program.c **** 			{
 504               		.loc 1 164 15 is_stmt 0 view .LVU95
 505 00da 8091 0000 		lds r24,rcvData+6
 164:src/FP_program.c **** 			{
 506               		.loc 1 164 6 view .LVU96
 507 00de 8730      		cpi r24,lo8(7)
 508 00e0 01F4      		brne .L37
 164:src/FP_program.c **** 			{
 509               		.loc 1 164 38 discriminator 1 view .LVU97
 510 00e2 8091 0000 		lds r24,rcvData+8
 164:src/FP_program.c **** 			{
 511               		.loc 1 164 27 discriminator 1 view .LVU98
 512 00e6 8330      		cpi r24,lo8(3)
 513 00e8 01F4      		brne .+2
 514 00ea 00C0      		rjmp .L38
 164:src/FP_program.c **** 			{
 515               		.loc 1 164 60 discriminator 2 view .LVU99
 516 00ec 8091 0000 		lds r24,rcvData+8
 164:src/FP_program.c **** 			{
 517               		.loc 1 164 50 discriminator 2 view .LVU100
 518 00f0 8730      		cpi r24,lo8(7)
 519 00f2 01F4      		brne .+2
 520 00f4 00C0      		rjmp .L38
 521               	.L37:
 209:src/FP_program.c **** 				lcdprint("FP module");
 522               		.loc 1 209 5 is_stmt 1 view .LVU101
 523 00f6 0E94 0000 		call lcdclear
 524               	.LVL38:
 210:src/FP_program.c **** 				lcdsecondrow();
 525               		.loc 1 210 5 view .LVU102
 526 00fa 80E0      		ldi r24,lo8(.LC24)
GAS LISTING C:\Users\kenne\AppData\Local\Temp\ccfTCvCf.s 			page 22


 527 00fc 90E0      		ldi r25,hi8(.LC24)
 528 00fe 0E94 0000 		call lcdprint
 529               	.LVL39:
 211:src/FP_program.c **** 				lcdprint("connection Error");
 530               		.loc 1 211 5 view .LVU103
 531 0102 0E94 0000 		call lcdsecondrow
 532               	.LVL40:
 212:src/FP_program.c **** 			}
 533               		.loc 1 212 5 view .LVU104
 534 0106 80E0      		ldi r24,lo8(.LC25)
 535 0108 90E0      		ldi r25,hi8(.LC25)
 536 010a 0E94 0000 		call lcdprint
 537               	.LVL41:
 538               	.L54:
 229:src/FP_program.c **** 		{
 539               		.loc 1 229 3 view .LVU105
 229:src/FP_program.c **** 		{
 540               		.loc 1 229 5 is_stmt 0 view .LVU106
 541 010e 0111      		cpse r16,__zero_reg__
 542 0110 00C0      		rjmp .L41
 543               	.LVL42:
 544               	.L39:
 545               	.LBB25:
 231:src/FP_program.c **** 
 546               		.loc 1 231 4 is_stmt 1 view .LVU107
 233:src/FP_program.c **** 			{
 547               		.loc 1 233 4 view .LVU108
 548 0112 EFEF      		ldi r30,lo8(-1)
 549 0114 E10F      		add r30,r17
 550 0116 E930      		cpi r30,lo8(9)
 551 0118 00F0      		brlo .+2
 552 011a 00C0      		rjmp .L41
 553 011c F0E0      		ldi r31,0
 554 011e E050      		subi r30,lo8(-(gs(.L57)))
 555 0120 F040      		sbci r31,hi8(-(gs(.L57)))
 556 0122 0C94 0000 		jmp __tablejump2__
 557               		.section	.jumptables.gcc.sendcmd2fb,"a",@progbits
 558               		.p2align	1
 559               	.L57:
 560 0012 0000      		.word gs(.L65)
 561 0014 0000      		.word gs(.L64)
 562 0016 0000      		.word gs(.L63)
 563 0018 0000      		.word gs(.L62)
 564 001a 0000      		.word gs(.L61)
 565 001c 0000      		.word gs(.L60)
 566 001e 0000      		.word gs(.L59)
 567 0020 0000      		.word gs(.L58)
 568 0022 0000      		.word gs(.L56)
 569               		.section	.text.sendcmd2fb
 570               	.LVL43:
 571               	.L34:
 233:src/FP_program.c **** 			{
 572               		.loc 1 233 4 is_stmt 0 view .LVU109
 573               	.LBE25:
 102:src/FP_program.c **** 				UART_Array(&f_detect,arr_size);
 574               		.loc 1 102 5 is_stmt 1 view .LVU110
 103:src/FP_program.c **** 				break;
GAS LISTING C:\Users\kenne\AppData\Local\Temp\ccfTCvCf.s 			page 23


 575               		.loc 1 103 5 view .LVU111
 576 0126 64E0      		ldi r22,lo8(4)
 577 0128 70E0      		ldi r23,0
 578 012a 80E0      		ldi r24,lo8(f_detect)
 579 012c 90E0      		ldi r25,hi8(f_detect)
 580 012e 0E94 0000 		call UART_Array
 581               	.LVL44:
 104:src/FP_program.c **** 
 582               		.loc 1 104 5 view .LVU112
 583 0132 00C0      		rjmp .L25
 584               	.LVL45:
 585               	.L33:
 107:src/FP_program.c **** 				UART_Array(&f_imz2ch1,arr_size);
 586               		.loc 1 107 5 view .LVU113
 108:src/FP_program.c **** 				break;
 587               		.loc 1 108 5 view .LVU114
 588 0134 65E0      		ldi r22,lo8(5)
 589 0136 70E0      		ldi r23,0
 590 0138 80E0      		ldi r24,lo8(f_imz2ch1)
 591 013a 90E0      		ldi r25,hi8(f_imz2ch1)
 592 013c 0E94 0000 		call UART_Array
 593               	.LVL46:
 109:src/FP_program.c **** 
 594               		.loc 1 109 5 view .LVU115
 595 0140 00C0      		rjmp .L25
 596               	.LVL47:
 597               	.L32:
 112:src/FP_program.c **** 				UART_Array(&f_imz2ch2,arr_size);
 598               		.loc 1 112 5 view .LVU116
 113:src/FP_program.c **** 				break;
 599               		.loc 1 113 5 view .LVU117
 600 0142 65E0      		ldi r22,lo8(5)
 601 0144 70E0      		ldi r23,0
 602 0146 80E0      		ldi r24,lo8(f_imz2ch2)
 603 0148 90E0      		ldi r25,hi8(f_imz2ch2)
 604 014a 0E94 0000 		call UART_Array
 605               	.LVL48:
 114:src/FP_program.c **** 
 606               		.loc 1 114 5 view .LVU118
 607 014e 00C0      		rjmp .L25
 608               	.LVL49:
 609               	.L31:
 117:src/FP_program.c **** 				UART_Array(&f_createModel,arr_size);
 610               		.loc 1 117 5 view .LVU119
 118:src/FP_program.c **** 				break;
 611               		.loc 1 118 5 view .LVU120
 612 0150 64E0      		ldi r22,lo8(4)
 613 0152 70E0      		ldi r23,0
 614 0154 80E0      		ldi r24,lo8(f_createModel)
 615 0156 90E0      		ldi r25,hi8(f_createModel)
 616 0158 0E94 0000 		call UART_Array
 617               	.LVL50:
 119:src/FP_program.c **** 
 618               		.loc 1 119 5 view .LVU121
 619 015c 00C0      		rjmp .L25
 620               	.LVL51:
 621               	.L28:
GAS LISTING C:\Users\kenne\AppData\Local\Temp\ccfTCvCf.s 			page 24


 122:src/FP_program.c **** 				UART_Array(&fp_empty,arr_size);
 622               		.loc 1 122 5 view .LVU122
 123:src/FP_program.c **** 				break;
 623               		.loc 1 123 5 view .LVU123
 624 015e 64E0      		ldi r22,lo8(4)
 625 0160 70E0      		ldi r23,0
 626 0162 80E0      		ldi r24,lo8(fp_empty)
 627 0164 90E0      		ldi r25,hi8(fp_empty)
 628 0166 0E94 0000 		call UART_Array
 629               	.LVL52:
 124:src/FP_program.c **** 
 630               		.loc 1 124 5 view .LVU124
 631 016a 00C0      		rjmp .L25
 632               	.LVL53:
 633               	.L26:
 127:src/FP_program.c **** 				UART_Array(&f_search,arr_size);
 634               		.loc 1 127 5 view .LVU125
 128:src/FP_program.c **** 				break;
 635               		.loc 1 128 5 view .LVU126
 636 016c 69E0      		ldi r22,lo8(9)
 637 016e 70E0      		ldi r23,0
 638 0170 80E0      		ldi r24,lo8(f_search)
 639 0172 90E0      		ldi r25,hi8(f_search)
 640 0174 0E94 0000 		call UART_Array
 641               	.LVL54:
 129:src/FP_program.c **** 
 642               		.loc 1 129 5 view .LVU127
 643 0178 00C0      		rjmp .L25
 644               	.LVL55:
 645               	.L30:
 132:src/FP_program.c **** 				f_storeModel[4] = ID;
 646               		.loc 1 132 5 view .LVU128
 132:src/FP_program.c **** 				f_storeModel[4] = ID;
 647               		.loc 1 132 10 is_stmt 0 view .LVU129
 648 017a 0E94 0000 		call GetID
 649               	.LVL56:
 650 017e F82E      		mov r15,r24
 651               	.LVL57:
 133:src/FP_program.c **** 				f_storeModel[6] = (0xE + ID);
 652               		.loc 1 133 5 is_stmt 1 view .LVU130
 133:src/FP_program.c **** 				f_storeModel[6] = (0xE + ID);
 653               		.loc 1 133 21 is_stmt 0 view .LVU131
 654 0180 E0E0      		ldi r30,lo8(f_storeModel)
 655 0182 F0E0      		ldi r31,hi8(f_storeModel)
 656 0184 8483      		std Z+4,r24
 134:src/FP_program.c **** 				arr_size = (sizeof(f_storeModel)) / sizeof((f_storeModel)[0]);
 657               		.loc 1 134 5 is_stmt 1 view .LVU132
 134:src/FP_program.c **** 				arr_size = (sizeof(f_storeModel)) / sizeof((f_storeModel)[0]);
 658               		.loc 1 134 28 is_stmt 0 view .LVU133
 659 0186 8EE0      		ldi r24,lo8(14)
 660 0188 8F0D      		add r24,r15
 134:src/FP_program.c **** 				arr_size = (sizeof(f_storeModel)) / sizeof((f_storeModel)[0]);
 661               		.loc 1 134 21 view .LVU134
 662 018a 8683      		std Z+6,r24
 135:src/FP_program.c **** 				UART_Array(&Header ,2);
 663               		.loc 1 135 5 is_stmt 1 view .LVU135
 664               	.LVL58:
GAS LISTING C:\Users\kenne\AppData\Local\Temp\ccfTCvCf.s 			page 25


 136:src/FP_program.c **** 				UART_Array(&Address,4);
 665               		.loc 1 136 5 view .LVU136
 666 018c 62E0      		ldi r22,lo8(2)
 667 018e 70E0      		ldi r23,0
 668 0190 80E0      		ldi r24,lo8(Header)
 669 0192 90E0      		ldi r25,hi8(Header)
 670 0194 0E94 0000 		call UART_Array
 671               	.LVL59:
 137:src/FP_program.c **** 				UART_Array(&Command,2);
 672               		.loc 1 137 5 view .LVU137
 673 0198 64E0      		ldi r22,lo8(4)
 674 019a 70E0      		ldi r23,0
 675 019c 80E0      		ldi r24,lo8(Address)
 676 019e 90E0      		ldi r25,hi8(Address)
 677 01a0 0E94 0000 		call UART_Array
 678               	.LVL60:
 138:src/FP_program.c **** 				UART_Array(&f_storeModel,arr_size);
 679               		.loc 1 138 5 view .LVU138
 680 01a4 62E0      		ldi r22,lo8(2)
 681 01a6 70E0      		ldi r23,0
 682 01a8 80E0      		ldi r24,lo8(Command)
 683 01aa 90E0      		ldi r25,hi8(Command)
 684 01ac 0E94 0000 		call UART_Array
 685               	.LVL61:
 139:src/FP_program.c **** 				break;
 686               		.loc 1 139 5 view .LVU139
 687 01b0 67E0      		ldi r22,lo8(7)
 688 01b2 70E0      		ldi r23,0
 689 01b4 80E0      		ldi r24,lo8(f_storeModel)
 690 01b6 90E0      		ldi r25,hi8(f_storeModel)
 691 01b8 0E94 0000 		call UART_Array
 692               	.LVL62:
 140:src/FP_program.c **** 
 693               		.loc 1 140 5 view .LVU140
 694 01bc 00C0      		rjmp .L25
 695               	.LVL63:
 696               	.L29:
 143:src/FP_program.c **** 				f_delete[3] = ID;
 697               		.loc 1 143 5 view .LVU141
 143:src/FP_program.c **** 				f_delete[3] = ID;
 698               		.loc 1 143 10 is_stmt 0 view .LVU142
 699 01be 0E94 0000 		call GetID
 700               	.LVL64:
 701 01c2 F82E      		mov r15,r24
 702               	.LVL65:
 144:src/FP_program.c **** 				f_delete[7] = (0x15 + ID);
 703               		.loc 1 144 5 is_stmt 1 view .LVU143
 144:src/FP_program.c **** 				f_delete[7] = (0x15 + ID);
 704               		.loc 1 144 17 is_stmt 0 view .LVU144
 705 01c4 E0E0      		ldi r30,lo8(f_delete)
 706 01c6 F0E0      		ldi r31,hi8(f_delete)
 707 01c8 8383      		std Z+3,r24
 145:src/FP_program.c **** 				arr_size = (sizeof(f_delete)) / sizeof((f_delete)[0]);
 708               		.loc 1 145 5 is_stmt 1 view .LVU145
 145:src/FP_program.c **** 				arr_size = (sizeof(f_delete)) / sizeof((f_delete)[0]);
 709               		.loc 1 145 25 is_stmt 0 view .LVU146
 710 01ca 85E1      		ldi r24,lo8(21)
GAS LISTING C:\Users\kenne\AppData\Local\Temp\ccfTCvCf.s 			page 26


 711 01cc 8F0D      		add r24,r15
 145:src/FP_program.c **** 				arr_size = (sizeof(f_delete)) / sizeof((f_delete)[0]);
 712               		.loc 1 145 17 view .LVU147
 713 01ce 8783      		std Z+7,r24
 146:src/FP_program.c **** 				UART_Array(&Header ,2);
 714               		.loc 1 146 5 is_stmt 1 view .LVU148
 715               	.LVL66:
 147:src/FP_program.c **** 				UART_Array(&Address,4);
 716               		.loc 1 147 5 view .LVU149
 717 01d0 62E0      		ldi r22,lo8(2)
 718 01d2 70E0      		ldi r23,0
 719 01d4 80E0      		ldi r24,lo8(Header)
 720 01d6 90E0      		ldi r25,hi8(Header)
 721 01d8 0E94 0000 		call UART_Array
 722               	.LVL67:
 148:src/FP_program.c **** 				UART_Array(&Command,2);
 723               		.loc 1 148 5 view .LVU150
 724 01dc 64E0      		ldi r22,lo8(4)
 725 01de 70E0      		ldi r23,0
 726 01e0 80E0      		ldi r24,lo8(Address)
 727 01e2 90E0      		ldi r25,hi8(Address)
 728 01e4 0E94 0000 		call UART_Array
 729               	.LVL68:
 149:src/FP_program.c **** 				UART_Array(&f_delete,arr_size);
 730               		.loc 1 149 5 view .LVU151
 731 01e8 62E0      		ldi r22,lo8(2)
 732 01ea 70E0      		ldi r23,0
 733 01ec 80E0      		ldi r24,lo8(Command)
 734 01ee 90E0      		ldi r25,hi8(Command)
 735 01f0 0E94 0000 		call UART_Array
 736               	.LVL69:
 150:src/FP_program.c **** 				break;
 737               		.loc 1 150 5 view .LVU152
 738 01f4 68E0      		ldi r22,lo8(8)
 739 01f6 70E0      		ldi r23,0
 740 01f8 80E0      		ldi r24,lo8(f_delete)
 741 01fa 90E0      		ldi r25,hi8(f_delete)
 742 01fc 0E94 0000 		call UART_Array
 743               	.LVL70:
 151:src/FP_program.c **** 		}
 744               		.loc 1 151 5 view .LVU153
 745 0200 00C0      		rjmp .L25
 746               	.LVL71:
 747               	.L38:
 166:src/FP_program.c **** 
 748               		.loc 1 166 5 view .LVU154
 749 0202 0E94 0000 		call lcdsecondrow
 750               	.LVL72:
 168:src/FP_program.c **** 				successed = success;
 751               		.loc 1 168 5 view .LVU155
 168:src/FP_program.c **** 				successed = success;
 752               		.loc 1 168 15 is_stmt 0 view .LVU156
 753 0206 8091 0000 		lds r24,rcvData+9
 168:src/FP_program.c **** 				successed = success;
 754               		.loc 1 168 7 view .LVU157
 755 020a 8823      		tst r24
 756 020c 01F4      		brne .+2
GAS LISTING C:\Users\kenne\AppData\Local\Temp\ccfTCvCf.s 			page 27


 757 020e 00C0      		rjmp .L67
 172:src/FP_program.c **** 					if(rcvData[9] == 0x01)
 758               		.loc 1 172 6 is_stmt 1 view .LVU158
 759               	.LVL73:
 173:src/FP_program.c **** 					lcdprint("Rcv packet error");
 760               		.loc 1 173 6 view .LVU159
 173:src/FP_program.c **** 					lcdprint("Rcv packet error");
 761               		.loc 1 173 16 is_stmt 0 view .LVU160
 762 0210 8091 0000 		lds r24,rcvData+9
 173:src/FP_program.c **** 					lcdprint("Rcv packet error");
 763               		.loc 1 173 8 view .LVU161
 764 0214 8130      		cpi r24,lo8(1)
 765 0216 01F4      		brne .+2
 766 0218 00C0      		rjmp .L68
 175:src/FP_program.c **** 					lcdprint("fail.  Try again");
 767               		.loc 1 175 11 is_stmt 1 view .LVU162
 175:src/FP_program.c **** 					lcdprint("fail.  Try again");
 768               		.loc 1 175 21 is_stmt 0 view .LVU163
 769 021a 8091 0000 		lds r24,rcvData+9
 175:src/FP_program.c **** 					lcdprint("fail.  Try again");
 770               		.loc 1 175 13 view .LVU164
 771 021e 8430      		cpi r24,lo8(4)
 772 0220 01F4      		brne .+2
 773 0222 00C0      		rjmp .L69
 177:src/FP_program.c **** 					lcdprint("Fail Clean & Try");
 774               		.loc 1 177 11 is_stmt 1 view .LVU165
 177:src/FP_program.c **** 					lcdprint("Fail Clean & Try");
 775               		.loc 1 177 21 is_stmt 0 view .LVU166
 776 0224 8091 0000 		lds r24,rcvData+9
 177:src/FP_program.c **** 					lcdprint("Fail Clean & Try");
 777               		.loc 1 177 13 view .LVU167
 778 0228 8530      		cpi r24,lo8(5)
 779 022a 01F4      		brne .+2
 780 022c 00C0      		rjmp .L70
 179:src/FP_program.c **** 					lcdprint("FailedGenerating");
 781               		.loc 1 179 11 is_stmt 1 view .LVU168
 179:src/FP_program.c **** 					lcdprint("FailedGenerating");
 782               		.loc 1 179 21 is_stmt 0 view .LVU169
 783 022e 8091 0000 		lds r24,rcvData+9
 179:src/FP_program.c **** 					lcdprint("FailedGenerating");
 784               		.loc 1 179 13 view .LVU170
 785 0232 8630      		cpi r24,lo8(6)
 786 0234 01F4      		brne .+2
 787 0236 00C0      		rjmp .L71
 181:src/FP_program.c **** 					lcdprint("SmallFinger Area");
 788               		.loc 1 181 11 is_stmt 1 view .LVU171
 181:src/FP_program.c **** 					lcdprint("SmallFinger Area");
 789               		.loc 1 181 21 is_stmt 0 view .LVU172
 790 0238 8091 0000 		lds r24,rcvData+9
 181:src/FP_program.c **** 					lcdprint("SmallFinger Area");
 791               		.loc 1 181 13 view .LVU173
 792 023c 8730      		cpi r24,lo8(7)
 793 023e 01F4      		brne .+2
 794 0240 00C0      		rjmp .L72
 183:src/FP_program.c **** 					lcdprint("ID not Found");
 795               		.loc 1 183 11 is_stmt 1 view .LVU174
 183:src/FP_program.c **** 					lcdprint("ID not Found");
GAS LISTING C:\Users\kenne\AppData\Local\Temp\ccfTCvCf.s 			page 28


 796               		.loc 1 183 21 is_stmt 0 view .LVU175
 797 0242 8091 0000 		lds r24,rcvData+9
 183:src/FP_program.c **** 					lcdprint("ID not Found");
 798               		.loc 1 183 13 view .LVU176
 799 0246 8930      		cpi r24,lo8(9)
 800 0248 01F4      		brne .+2
 801 024a 00C0      		rjmp .L73
 185:src/FP_program.c **** 					lcdprint("ID overload");
 802               		.loc 1 185 11 is_stmt 1 view .LVU177
 185:src/FP_program.c **** 					lcdprint("ID overload");
 803               		.loc 1 185 21 is_stmt 0 view .LVU178
 804 024c 8091 0000 		lds r24,rcvData+9
 185:src/FP_program.c **** 					lcdprint("ID overload");
 805               		.loc 1 185 13 view .LVU179
 806 0250 8B30      		cpi r24,lo8(11)
 807 0252 01F4      		brne .+2
 808 0254 00C0      		rjmp .L74
 187:src/FP_program.c **** 					lcdprint("FlashWritingErr");
 809               		.loc 1 187 11 is_stmt 1 view .LVU180
 187:src/FP_program.c **** 					lcdprint("FlashWritingErr");
 810               		.loc 1 187 21 is_stmt 0 view .LVU181
 811 0256 8091 0000 		lds r24,rcvData+9
 187:src/FP_program.c **** 					lcdprint("FlashWritingErr");
 812               		.loc 1 187 13 view .LVU182
 813 025a 8831      		cpi r24,lo8(24)
 814 025c 01F4      		brne .+2
 815 025e 00C0      		rjmp .L75
 189:src/FP_program.c **** 					lcdprint("Failed modeling");
 816               		.loc 1 189 11 is_stmt 1 view .LVU183
 189:src/FP_program.c **** 					lcdprint("Failed modeling");
 817               		.loc 1 189 21 is_stmt 0 view .LVU184
 818 0260 8091 0000 		lds r24,rcvData+9
 189:src/FP_program.c **** 					lcdprint("Failed modeling");
 819               		.loc 1 189 13 view .LVU185
 820 0264 8A30      		cpi r24,lo8(10)
 821 0266 01F4      		brne .+2
 822 0268 00C0      		rjmp .L76
 191:src/FP_program.c **** 					lcdprint("Password incorrect");
 823               		.loc 1 191 11 is_stmt 1 view .LVU186
 191:src/FP_program.c **** 					lcdprint("Password incorrect");
 824               		.loc 1 191 21 is_stmt 0 view .LVU187
 825 026a 8091 0000 		lds r24,rcvData+9
 191:src/FP_program.c **** 					lcdprint("Password incorrect");
 826               		.loc 1 191 13 view .LVU188
 827 026e 8331      		cpi r24,lo8(19)
 828 0270 01F4      		brne .+2
 829 0272 00C0      		rjmp .L77
 193:src/FP_program.c **** 					lcdprint("must verify pass");
 830               		.loc 1 193 11 is_stmt 1 view .LVU189
 193:src/FP_program.c **** 					lcdprint("must verify pass");
 831               		.loc 1 193 21 is_stmt 0 view .LVU190
 832 0274 8091 0000 		lds r24,rcvData+9
 193:src/FP_program.c **** 					lcdprint("must verify pass");
 833               		.loc 1 193 13 view .LVU191
 834 0278 8132      		cpi r24,lo8(33)
 835 027a 01F4      		brne .+2
 836 027c 00C0      		rjmp .L78
GAS LISTING C:\Users\kenne\AppData\Local\Temp\ccfTCvCf.s 			page 29


 197:src/FP_program.c **** 						lcdprint("CantDetectFinger");
 837               		.loc 1 197 7 is_stmt 1 view .LVU192
 197:src/FP_program.c **** 						lcdprint("CantDetectFinger");
 838               		.loc 1 197 17 is_stmt 0 view .LVU193
 839 027e 8091 0000 		lds r24,rcvData+9
 197:src/FP_program.c **** 						lcdprint("CantDetectFinger");
 840               		.loc 1 197 9 view .LVU194
 841 0282 8230      		cpi r24,lo8(2)
 842 0284 01F4      		brne .+2
 843 0286 00C0      		rjmp .L79
 199:src/FP_program.c **** 						lcdprint("Fail To Collect");
 844               		.loc 1 199 12 is_stmt 1 view .LVU195
 199:src/FP_program.c **** 						lcdprint("Fail To Collect");
 845               		.loc 1 199 22 is_stmt 0 view .LVU196
 846 0288 8091 0000 		lds r24,rcvData+9
 199:src/FP_program.c **** 						lcdprint("Fail To Collect");
 847               		.loc 1 199 14 view .LVU197
 848 028c 8330      		cpi r24,lo8(3)
 849 028e 01F4      		brne .+2
 850 0290 00C0      		rjmp .L80
 202:src/FP_program.c **** 						successed = again;
 851               		.loc 1 202 7 is_stmt 1 view .LVU198
 852 0292 80E0      		ldi r24,lo8(.LC23)
 853 0294 90E0      		ldi r25,hi8(.LC23)
 854 0296 0E94 0000 		call lcdprint
 855               	.LVL74:
 856 029a 00C0      		rjmp .L41
 857               	.L68:
 174:src/FP_program.c **** 					else if(rcvData[9] == 0x04)
 858               		.loc 1 174 6 view .LVU199
 859 029c 80E0      		ldi r24,lo8(.LC10)
 860 029e 90E0      		ldi r25,hi8(.LC10)
 861 02a0 0E94 0000 		call lcdprint
 862               	.LVL75:
 229:src/FP_program.c **** 		{
 863               		.loc 1 229 3 view .LVU200
 172:src/FP_program.c **** 					if(rcvData[9] == 0x01)
 864               		.loc 1 172 16 is_stmt 0 view .LVU201
 865 02a4 01E0      		ldi r16,lo8(1)
 866 02a6 00C0      		rjmp .L41
 867               	.L69:
 176:src/FP_program.c **** 					else if(rcvData[9] == 0x05)
 868               		.loc 1 176 6 is_stmt 1 view .LVU202
 869 02a8 80E0      		ldi r24,lo8(.LC11)
 870 02aa 90E0      		ldi r25,hi8(.LC11)
 871 02ac 0E94 0000 		call lcdprint
 872               	.LVL76:
 229:src/FP_program.c **** 		{
 873               		.loc 1 229 3 view .LVU203
 172:src/FP_program.c **** 					if(rcvData[9] == 0x01)
 874               		.loc 1 172 16 is_stmt 0 view .LVU204
 875 02b0 01E0      		ldi r16,lo8(1)
 876 02b2 00C0      		rjmp .L41
 877               	.L70:
 178:src/FP_program.c **** 					else if(rcvData[9] == 0x06)
 878               		.loc 1 178 6 is_stmt 1 view .LVU205
 879 02b4 80E0      		ldi r24,lo8(.LC12)
GAS LISTING C:\Users\kenne\AppData\Local\Temp\ccfTCvCf.s 			page 30


 880 02b6 90E0      		ldi r25,hi8(.LC12)
 881 02b8 0E94 0000 		call lcdprint
 882               	.LVL77:
 229:src/FP_program.c **** 		{
 883               		.loc 1 229 3 view .LVU206
 172:src/FP_program.c **** 					if(rcvData[9] == 0x01)
 884               		.loc 1 172 16 is_stmt 0 view .LVU207
 885 02bc 01E0      		ldi r16,lo8(1)
 886 02be 00C0      		rjmp .L41
 887               	.L71:
 180:src/FP_program.c **** 					else if(rcvData[9] == 0x07)
 888               		.loc 1 180 6 is_stmt 1 view .LVU208
 889 02c0 80E0      		ldi r24,lo8(.LC13)
 890 02c2 90E0      		ldi r25,hi8(.LC13)
 891 02c4 0E94 0000 		call lcdprint
 892               	.LVL78:
 229:src/FP_program.c **** 		{
 893               		.loc 1 229 3 view .LVU209
 172:src/FP_program.c **** 					if(rcvData[9] == 0x01)
 894               		.loc 1 172 16 is_stmt 0 view .LVU210
 895 02c8 01E0      		ldi r16,lo8(1)
 896 02ca 00C0      		rjmp .L41
 897               	.L72:
 182:src/FP_program.c **** 					else if(rcvData[9] == 0x09)
 898               		.loc 1 182 6 is_stmt 1 view .LVU211
 899 02cc 80E0      		ldi r24,lo8(.LC14)
 900 02ce 90E0      		ldi r25,hi8(.LC14)
 901 02d0 0E94 0000 		call lcdprint
 902               	.LVL79:
 229:src/FP_program.c **** 		{
 903               		.loc 1 229 3 view .LVU212
 172:src/FP_program.c **** 					if(rcvData[9] == 0x01)
 904               		.loc 1 172 16 is_stmt 0 view .LVU213
 905 02d4 01E0      		ldi r16,lo8(1)
 906 02d6 00C0      		rjmp .L41
 907               	.L73:
 184:src/FP_program.c **** 					else if(rcvData[9] == 0x0b)
 908               		.loc 1 184 6 is_stmt 1 view .LVU214
 909 02d8 80E0      		ldi r24,lo8(.LC15)
 910 02da 90E0      		ldi r25,hi8(.LC15)
 911 02dc 0E94 0000 		call lcdprint
 912               	.LVL80:
 229:src/FP_program.c **** 		{
 913               		.loc 1 229 3 view .LVU215
 172:src/FP_program.c **** 					if(rcvData[9] == 0x01)
 914               		.loc 1 172 16 is_stmt 0 view .LVU216
 915 02e0 01E0      		ldi r16,lo8(1)
 916 02e2 00C0      		rjmp .L41
 917               	.L74:
 186:src/FP_program.c **** 					else if(rcvData[9] == 0x18)
 918               		.loc 1 186 6 is_stmt 1 view .LVU217
 919 02e4 80E0      		ldi r24,lo8(.LC16)
 920 02e6 90E0      		ldi r25,hi8(.LC16)
 921 02e8 0E94 0000 		call lcdprint
 922               	.LVL81:
 229:src/FP_program.c **** 		{
 923               		.loc 1 229 3 view .LVU218
GAS LISTING C:\Users\kenne\AppData\Local\Temp\ccfTCvCf.s 			page 31


 172:src/FP_program.c **** 					if(rcvData[9] == 0x01)
 924               		.loc 1 172 16 is_stmt 0 view .LVU219
 925 02ec 01E0      		ldi r16,lo8(1)
 926 02ee 00C0      		rjmp .L41
 927               	.L75:
 188:src/FP_program.c **** 					else if(rcvData[9] == 0x0a)
 928               		.loc 1 188 6 is_stmt 1 view .LVU220
 929 02f0 80E0      		ldi r24,lo8(.LC17)
 930 02f2 90E0      		ldi r25,hi8(.LC17)
 931 02f4 0E94 0000 		call lcdprint
 932               	.LVL82:
 229:src/FP_program.c **** 		{
 933               		.loc 1 229 3 view .LVU221
 172:src/FP_program.c **** 					if(rcvData[9] == 0x01)
 934               		.loc 1 172 16 is_stmt 0 view .LVU222
 935 02f8 01E0      		ldi r16,lo8(1)
 936 02fa 00C0      		rjmp .L41
 937               	.L76:
 190:src/FP_program.c **** 					else if(rcvData[9] == 0x13)
 938               		.loc 1 190 6 is_stmt 1 view .LVU223
 939 02fc 80E0      		ldi r24,lo8(.LC18)
 940 02fe 90E0      		ldi r25,hi8(.LC18)
 941 0300 0E94 0000 		call lcdprint
 942               	.LVL83:
 229:src/FP_program.c **** 		{
 943               		.loc 1 229 3 view .LVU224
 172:src/FP_program.c **** 					if(rcvData[9] == 0x01)
 944               		.loc 1 172 16 is_stmt 0 view .LVU225
 945 0304 01E0      		ldi r16,lo8(1)
 946 0306 00C0      		rjmp .L41
 947               	.L77:
 192:src/FP_program.c **** 					else if(rcvData[9] == 0x21)
 948               		.loc 1 192 6 is_stmt 1 view .LVU226
 949 0308 80E0      		ldi r24,lo8(.LC19)
 950 030a 90E0      		ldi r25,hi8(.LC19)
 951 030c 0E94 0000 		call lcdprint
 952               	.LVL84:
 229:src/FP_program.c **** 		{
 953               		.loc 1 229 3 view .LVU227
 172:src/FP_program.c **** 					if(rcvData[9] == 0x01)
 954               		.loc 1 172 16 is_stmt 0 view .LVU228
 955 0310 01E0      		ldi r16,lo8(1)
 956 0312 00C0      		rjmp .L41
 957               	.L78:
 194:src/FP_program.c **** 					else
 958               		.loc 1 194 6 is_stmt 1 view .LVU229
 959 0314 80E0      		ldi r24,lo8(.LC20)
 960 0316 90E0      		ldi r25,hi8(.LC20)
 961 0318 0E94 0000 		call lcdprint
 962               	.LVL85:
 229:src/FP_program.c **** 		{
 963               		.loc 1 229 3 view .LVU230
 172:src/FP_program.c **** 					if(rcvData[9] == 0x01)
 964               		.loc 1 172 16 is_stmt 0 view .LVU231
 965 031c 01E0      		ldi r16,lo8(1)
 966 031e 00C0      		rjmp .L41
 967               	.L79:
GAS LISTING C:\Users\kenne\AppData\Local\Temp\ccfTCvCf.s 			page 32


 198:src/FP_program.c **** 						else if(rcvData[9] == 0x03)
 968               		.loc 1 198 7 is_stmt 1 view .LVU232
 969 0320 80E0      		ldi r24,lo8(.LC21)
 970 0322 90E0      		ldi r25,hi8(.LC21)
 971 0324 0E94 0000 		call lcdprint
 972               	.LVL86:
 973 0328 00C0      		rjmp .L41
 974               	.L80:
 200:src/FP_program.c **** 						else
 975               		.loc 1 200 7 view .LVU233
 976 032a 80E0      		ldi r24,lo8(.LC22)
 977 032c 90E0      		ldi r25,hi8(.LC22)
 978 032e 0E94 0000 		call lcdprint
 979               	.LVL87:
 980 0332 00C0      		rjmp .L41
 981               	.LVL88:
 982               	.L36:
 217:src/FP_program.c **** 			lcdprint("FP not Found or");
 983               		.loc 1 217 4 view .LVU234
 984 0334 0E94 0000 		call lcdclear
 985               	.LVL89:
 218:src/FP_program.c **** 			lcdsecondrow();
 986               		.loc 1 218 4 view .LVU235
 987 0338 80E0      		ldi r24,lo8(.LC26)
 988 033a 90E0      		ldi r25,hi8(.LC26)
 989 033c 0E94 0000 		call lcdprint
 990               	.LVL90:
 219:src/FP_program.c **** 			lcdprint("Not Responding");
 991               		.loc 1 219 4 view .LVU236
 992 0340 0E94 0000 		call lcdsecondrow
 993               	.LVL91:
 220:src/FP_program.c **** 			_delay_ms(1000);
 994               		.loc 1 220 4 view .LVU237
 995 0344 80E0      		ldi r24,lo8(.LC27)
 996 0346 90E0      		ldi r25,hi8(.LC27)
 997 0348 0E94 0000 		call lcdprint
 998               	.LVL92:
 221:src/FP_program.c **** 		}
 999               		.loc 1 221 4 view .LVU238
 1000               	.LBB32:
 1001               	.LBI32:
 166:c:\d\ifsc\vscodeleandro\ex\toolchains\avr-gcc\avr\include\util\delay.h **** {
 1002               		.loc 2 166 1 view .LVU239
 1003               	.LBB33:
 168:c:\d\ifsc\vscodeleandro\ex\toolchains\avr-gcc\avr\include\util\delay.h **** #if __HAS_DELAY_CYCLES && defined(__OPTIMIZE__) && \
 1004               		.loc 2 168 2 view .LVU240
 172:c:\d\ifsc\vscodeleandro\ex\toolchains\avr-gcc\avr\include\util\delay.h **** 	extern void __builtin_avr_delay_cycles(unsigned long);
 1005               		.loc 2 172 2 view .LVU241
 173:c:\d\ifsc\vscodeleandro\ex\toolchains\avr-gcc\avr\include\util\delay.h **** 	__tmp = ((F_CPU) / 1e3) * __ms;
 1006               		.loc 2 173 2 view .LVU242
 174:c:\d\ifsc\vscodeleandro\ex\toolchains\avr-gcc\avr\include\util\delay.h **** 
 1007               		.loc 2 174 2 view .LVU243
 184:c:\d\ifsc\vscodeleandro\ex\toolchains\avr-gcc\avr\include\util\delay.h **** 	#endif
 1008               		.loc 2 184 3 view .LVU244
 1009               		.loc 2 187 2 view .LVU245
 1010 034c 2FEF      		ldi r18,lo8(2399999)
 1011 034e 8EE9      		ldi r24,hi8(2399999)
GAS LISTING C:\Users\kenne\AppData\Local\Temp\ccfTCvCf.s 			page 33


 1012 0350 94E2      		ldi r25,hlo8(2399999)
 1013 0352 2150      	1:	subi r18,1
 1014 0354 8040      		sbci r24,0
 1015 0356 9040      		sbci r25,0
 1016 0358 01F4      		brne 1b
 1017 035a 00C0      		rjmp .
 1018 035c 0000      		nop
 188:c:\d\ifsc\vscodeleandro\ex\toolchains\avr-gcc\avr\include\util\delay.h **** 
 189:c:\d\ifsc\vscodeleandro\ex\toolchains\avr-gcc\avr\include\util\delay.h **** #else
 190:c:\d\ifsc\vscodeleandro\ex\toolchains\avr-gcc\avr\include\util\delay.h **** 	uint16_t __ticks;
 191:c:\d\ifsc\vscodeleandro\ex\toolchains\avr-gcc\avr\include\util\delay.h **** 	__tmp = ((F_CPU) / 4e3) * __ms;
 192:c:\d\ifsc\vscodeleandro\ex\toolchains\avr-gcc\avr\include\util\delay.h **** 	if (__tmp < 1.0)
 193:c:\d\ifsc\vscodeleandro\ex\toolchains\avr-gcc\avr\include\util\delay.h **** 		__ticks = 1;
 194:c:\d\ifsc\vscodeleandro\ex\toolchains\avr-gcc\avr\include\util\delay.h **** 	else if (__tmp > 65535)
 195:c:\d\ifsc\vscodeleandro\ex\toolchains\avr-gcc\avr\include\util\delay.h **** 	{
 196:c:\d\ifsc\vscodeleandro\ex\toolchains\avr-gcc\avr\include\util\delay.h **** 		//	__ticks = requested delay in 1/10 ms
 197:c:\d\ifsc\vscodeleandro\ex\toolchains\avr-gcc\avr\include\util\delay.h **** 		__ticks = (uint16_t) (__ms * 10.0);
 198:c:\d\ifsc\vscodeleandro\ex\toolchains\avr-gcc\avr\include\util\delay.h **** 		while(__ticks)
 199:c:\d\ifsc\vscodeleandro\ex\toolchains\avr-gcc\avr\include\util\delay.h **** 		{
 200:c:\d\ifsc\vscodeleandro\ex\toolchains\avr-gcc\avr\include\util\delay.h **** 			// wait 1/10 ms
 201:c:\d\ifsc\vscodeleandro\ex\toolchains\avr-gcc\avr\include\util\delay.h **** 			_delay_loop_2(((F_CPU) / 4e3) / 10);
 202:c:\d\ifsc\vscodeleandro\ex\toolchains\avr-gcc\avr\include\util\delay.h **** 			__ticks --;
 203:c:\d\ifsc\vscodeleandro\ex\toolchains\avr-gcc\avr\include\util\delay.h **** 		}
 204:c:\d\ifsc\vscodeleandro\ex\toolchains\avr-gcc\avr\include\util\delay.h **** 		return;
 205:c:\d\ifsc\vscodeleandro\ex\toolchains\avr-gcc\avr\include\util\delay.h **** 	}
 206:c:\d\ifsc\vscodeleandro\ex\toolchains\avr-gcc\avr\include\util\delay.h **** 	else
 207:c:\d\ifsc\vscodeleandro\ex\toolchains\avr-gcc\avr\include\util\delay.h **** 		__ticks = (uint16_t)__tmp;
 208:c:\d\ifsc\vscodeleandro\ex\toolchains\avr-gcc\avr\include\util\delay.h **** 	_delay_loop_2(__ticks);
 209:c:\d\ifsc\vscodeleandro\ex\toolchains\avr-gcc\avr\include\util\delay.h **** #endif
 210:c:\d\ifsc\vscodeleandro\ex\toolchains\avr-gcc\avr\include\util\delay.h **** }
 1019               		.loc 2 210 1 is_stmt 0 view .LVU246
 1020 035e 00C0      		rjmp .L54
 1021               	.LVL93:
 1022               	.L67:
 1023               		.loc 2 210 1 view .LVU247
 1024               	.LBE33:
 1025               	.LBE32:
 169:src/FP_program.c **** 				else
 1026               		.loc 1 169 15 view .LVU248
 1027 0360 00E0      		ldi r16,0
 1028               	.LVL94:
 169:src/FP_program.c **** 				else
 1029               		.loc 1 169 15 view .LVU249
 1030 0362 00C0      		rjmp .L39
 1031               	.LVL95:
 1032               	.L65:
 1033               	.LBB34:
 1034               	.LBB26:
 236:src/FP_program.c **** 					break;
 1035               		.loc 1 236 6 is_stmt 1 view .LVU250
 1036 0364 80E0      		ldi r24,lo8(.LC28)
 1037 0366 90E0      		ldi r25,hi8(.LC28)
 1038 0368 0E94 0000 		call lcdprint
 1039               	.LVL96:
 237:src/FP_program.c **** 
 1040               		.loc 1 237 6 view .LVU251
 1041               	.L41:
GAS LISTING C:\Users\kenne\AppData\Local\Temp\ccfTCvCf.s 			page 34


 237:src/FP_program.c **** 
 1042               		.loc 1 237 6 is_stmt 0 view .LVU252
 1043               	.LBE26:
 1044               	.LBE34:
 277:src/FP_program.c **** 		cont = 0;
 1045               		.loc 1 277 3 is_stmt 1 view .LVU253
 1046 036c 80E0      		ldi r24,lo8(rcvData)
 1047 036e 90E0      		ldi r25,hi8(rcvData)
 1048 0370 0E94 0000 		call clearArray
 1049               	.LVL97:
 278:src/FP_program.c **** 		_delay_ms(700);
 1050               		.loc 1 278 3 view .LVU254
 278:src/FP_program.c **** 		_delay_ms(700);
 1051               		.loc 1 278 8 is_stmt 0 view .LVU255
 1052 0374 1092 0000 		sts cont,__zero_reg__
 279:src/FP_program.c **** 	}
 1053               		.loc 1 279 3 is_stmt 1 view .LVU256
 1054               	.LVL98:
 1055               	.LBB35:
 1056               	.LBI35:
 166:c:\d\ifsc\vscodeleandro\ex\toolchains\avr-gcc\avr\include\util\delay.h **** {
 1057               		.loc 2 166 1 view .LVU257
 1058               	.LBB36:
 168:c:\d\ifsc\vscodeleandro\ex\toolchains\avr-gcc\avr\include\util\delay.h **** #if __HAS_DELAY_CYCLES && defined(__OPTIMIZE__) && \
 1059               		.loc 2 168 2 view .LVU258
 172:c:\d\ifsc\vscodeleandro\ex\toolchains\avr-gcc\avr\include\util\delay.h **** 	extern void __builtin_avr_delay_cycles(unsigned long);
 1060               		.loc 2 172 2 view .LVU259
 173:c:\d\ifsc\vscodeleandro\ex\toolchains\avr-gcc\avr\include\util\delay.h **** 	__tmp = ((F_CPU) / 1e3) * __ms;
 1061               		.loc 2 173 2 view .LVU260
 174:c:\d\ifsc\vscodeleandro\ex\toolchains\avr-gcc\avr\include\util\delay.h **** 
 1062               		.loc 2 174 2 view .LVU261
 184:c:\d\ifsc\vscodeleandro\ex\toolchains\avr-gcc\avr\include\util\delay.h **** 	#endif
 1063               		.loc 2 184 3 view .LVU262
 187:c:\d\ifsc\vscodeleandro\ex\toolchains\avr-gcc\avr\include\util\delay.h **** 
 1064               		.loc 2 187 2 view .LVU263
 1065 0378 9FE7      		ldi r25,lo8(1679999)
 1066 037a 22EA      		ldi r18,hi8(1679999)
 1067 037c 89E1      		ldi r24,hlo8(1679999)
 1068 037e 9150      	1:	subi r25,1
 1069 0380 2040      		sbci r18,0
 1070 0382 8040      		sbci r24,0
 1071 0384 01F4      		brne 1b
 1072 0386 00C0      		rjmp .
 1073 0388 0000      		nop
 1074               	.LVL99:
 1075               	.L13:
 187:c:\d\ifsc\vscodeleandro\ex\toolchains\avr-gcc\avr\include\util\delay.h **** 
 1076               		.loc 2 187 2 is_stmt 0 view .LVU264
 1077               	.LBE36:
 1078               	.LBE35:
 1079               	.LBE22:
  34:src/FP_program.c **** 	{
 1080               		.loc 1 34 19 is_stmt 1 view .LVU265
 1081 038a 0230      		cpi r16,lo8(2)
 1082 038c 01F0      		breq .+2
 1083 038e 00C0      		rjmp .L81
 1084               	.LBB38:
GAS LISTING C:\Users\kenne\AppData\Local\Temp\ccfTCvCf.s 			page 35


  40:src/FP_program.c **** 		switch (order)											  //////
 1085               		.loc 1 40 3 view .LVU266
 1086 0390 0E94 0000 		call lcdclear
 1087               	.LVL100:
  41:src/FP_program.c **** 		{
 1088               		.loc 1 41 3 view .LVU267
 1089 0394 EFEF      		ldi r30,lo8(-1)
 1090 0396 E10F      		add r30,r17
 1091 0398 E930      		cpi r30,lo8(9)
 1092 039a 00F0      		brlo .+2
 1093 039c 00C0      		rjmp .L14
 1094 039e F0E0      		ldi r31,0
 1095 03a0 E050      		subi r30,lo8(-(gs(.L16)))
 1096 03a2 F040      		sbci r31,hi8(-(gs(.L16)))
 1097 03a4 0C94 0000 		jmp __tablejump2__
 1098               		.section	.jumptables.gcc.sendcmd2fb,"a",@progbits
 1099               		.p2align	1
 1100               	.L16:
 1101 0024 0000      		.word gs(.L24)
 1102 0026 0000      		.word gs(.L23)
 1103 0028 0000      		.word gs(.L22)
 1104 002a 0000      		.word gs(.L21)
 1105 002c 0000      		.word gs(.L20)
 1106 002e 0000      		.word gs(.L19)
 1107 0030 0000      		.word gs(.L18)
 1108 0032 0000      		.word gs(.L17)
 1109 0034 0000      		.word gs(.L15)
 1110               		.section	.text.sendcmd2fb
 1111               	.LVL101:
 1112               	.L64:
 1113               	.LBB37:
 1114               	.LBB31:
 240:src/FP_program.c **** 					break;
 1115               		.loc 1 240 6 view .LVU268
 1116 03a8 80E0      		ldi r24,lo8(.LC29)
 1117 03aa 90E0      		ldi r25,hi8(.LC29)
 1118 03ac 0E94 0000 		call lcdprint
 1119               	.LVL102:
 241:src/FP_program.c **** 
 1120               		.loc 1 241 6 view .LVU269
 1121 03b0 00C0      		rjmp .L41
 1122               	.L63:
 244:src/FP_program.c **** 					break;
 1123               		.loc 1 244 6 view .LVU270
 1124 03b2 80E0      		ldi r24,lo8(.LC30)
 1125 03b4 90E0      		ldi r25,hi8(.LC30)
 1126 03b6 0E94 0000 		call lcdprint
 1127               	.LVL103:
 245:src/FP_program.c **** 
 1128               		.loc 1 245 6 view .LVU271
 1129 03ba 00C0      		rjmp .L41
 1130               	.L62:
 248:src/FP_program.c **** 					break;
 1131               		.loc 1 248 6 view .LVU272
 1132 03bc 80E0      		ldi r24,lo8(.LC30)
 1133 03be 90E0      		ldi r25,hi8(.LC30)
 1134 03c0 0E94 0000 		call lcdprint
GAS LISTING C:\Users\kenne\AppData\Local\Temp\ccfTCvCf.s 			page 36


 1135               	.LVL104:
 249:src/FP_program.c **** 
 1136               		.loc 1 249 6 view .LVU273
 1137 03c4 00C0      		rjmp .L41
 1138               	.L61:
 252:src/FP_program.c **** 					break;
 1139               		.loc 1 252 6 view .LVU274
 1140 03c6 80E0      		ldi r24,lo8(.LC31)
 1141 03c8 90E0      		ldi r25,hi8(.LC31)
 1142 03ca 0E94 0000 		call lcdprint
 1143               	.LVL105:
 253:src/FP_program.c **** 
 1144               		.loc 1 253 6 view .LVU275
 1145 03ce 00C0      		rjmp .L41
 1146               	.L58:
 256:src/FP_program.c **** 					break;
 1147               		.loc 1 256 6 view .LVU276
 1148 03d0 80E0      		ldi r24,lo8(.LC32)
 1149 03d2 90E0      		ldi r25,hi8(.LC32)
 1150 03d4 0E94 0000 		call lcdprint
 1151               	.LVL106:
 257:src/FP_program.c **** 
 1152               		.loc 1 257 6 view .LVU277
 1153 03d8 00C0      		rjmp .L41
 1154               	.L56:
 260:src/FP_program.c **** 					sprintf(String," %d  ",rcvData[11]);
 1155               		.loc 1 260 6 view .LVU278
 1156 03da 80E0      		ldi r24,lo8(.LC33)
 1157 03dc 90E0      		ldi r25,hi8(.LC33)
 1158 03de 0E94 0000 		call lcdprint
 1159               	.LVL107:
 261:src/FP_program.c **** 					lcdprint(&String);
 1160               		.loc 1 261 6 view .LVU279
 261:src/FP_program.c **** 					lcdprint(&String);
 1161               		.loc 1 261 36 is_stmt 0 view .LVU280
 1162 03e2 8091 0000 		lds r24,rcvData+11
 261:src/FP_program.c **** 					lcdprint(&String);
 1163               		.loc 1 261 6 view .LVU281
 1164 03e6 282F      		mov r18,r24
 1165 03e8 082E      		mov __tmp_reg__,r24
 1166 03ea 000C      		lsl r0
 1167 03ec 330B      		sbc r19,r19
 1168 03ee 3F93      		push r19
 1169 03f0 8F93      		push r24
 1170 03f2 80E0      		ldi r24,lo8(.LC1)
 1171 03f4 90E0      		ldi r25,hi8(.LC1)
 1172 03f6 9F93      		push r25
 1173 03f8 8F93      		push r24
 1174 03fa CE01      		movw r24,r28
 1175 03fc 0196      		adiw r24,1
 1176 03fe 6C01      		movw r12,r24
 1177 0400 9F93      		push r25
 1178 0402 8F93      		push r24
 1179 0404 0E94 0000 		call sprintf
 1180               	.LVL108:
 262:src/FP_program.c **** 					break;
 1181               		.loc 1 262 6 is_stmt 1 view .LVU282
GAS LISTING C:\Users\kenne\AppData\Local\Temp\ccfTCvCf.s 			page 37


 1182 0408 C601      		movw r24,r12
 1183 040a 0E94 0000 		call lcdprint
 1184               	.LVL109:
 263:src/FP_program.c **** 
 1185               		.loc 1 263 6 view .LVU283
 1186 040e 0F90      		pop __tmp_reg__
 1187 0410 0F90      		pop __tmp_reg__
 1188 0412 0F90      		pop __tmp_reg__
 1189 0414 0F90      		pop __tmp_reg__
 1190 0416 0F90      		pop __tmp_reg__
 1191 0418 0F90      		pop __tmp_reg__
 1192 041a 00C0      		rjmp .L41
 1193               	.L60:
 266:src/FP_program.c **** 					_delay_ms(700);
 1194               		.loc 1 266 6 view .LVU284
 1195 041c 80E0      		ldi r24,lo8(.LC34)
 1196 041e 90E0      		ldi r25,hi8(.LC34)
 1197 0420 0E94 0000 		call lcdprint
 1198               	.LVL110:
 267:src/FP_program.c **** 					break;
 1199               		.loc 1 267 6 view .LVU285
 1200               	.LBB27:
 1201               	.LBI27:
 166:c:\d\ifsc\vscodeleandro\ex\toolchains\avr-gcc\avr\include\util\delay.h **** {
 1202               		.loc 2 166 1 view .LVU286
 1203               	.LBB28:
 168:c:\d\ifsc\vscodeleandro\ex\toolchains\avr-gcc\avr\include\util\delay.h **** #if __HAS_DELAY_CYCLES && defined(__OPTIMIZE__) && \
 1204               		.loc 2 168 2 view .LVU287
 172:c:\d\ifsc\vscodeleandro\ex\toolchains\avr-gcc\avr\include\util\delay.h **** 	extern void __builtin_avr_delay_cycles(unsigned long);
 1205               		.loc 2 172 2 view .LVU288
 173:c:\d\ifsc\vscodeleandro\ex\toolchains\avr-gcc\avr\include\util\delay.h **** 	__tmp = ((F_CPU) / 1e3) * __ms;
 1206               		.loc 2 173 2 view .LVU289
 174:c:\d\ifsc\vscodeleandro\ex\toolchains\avr-gcc\avr\include\util\delay.h **** 
 1207               		.loc 2 174 2 view .LVU290
 184:c:\d\ifsc\vscodeleandro\ex\toolchains\avr-gcc\avr\include\util\delay.h **** 	#endif
 1208               		.loc 2 184 3 view .LVU291
 187:c:\d\ifsc\vscodeleandro\ex\toolchains\avr-gcc\avr\include\util\delay.h **** 
 1209               		.loc 2 187 2 view .LVU292
 1210 0424 9FE7      		ldi r25,lo8(1679999)
 1211 0426 22EA      		ldi r18,hi8(1679999)
 1212 0428 89E1      		ldi r24,hlo8(1679999)
 1213 042a 9150      	1:	subi r25,1
 1214 042c 2040      		sbci r18,0
 1215 042e 8040      		sbci r24,0
 1216 0430 01F4      		brne 1b
 1217 0432 00C0      		rjmp .
 1218 0434 0000      		nop
 1219               		.loc 2 210 1 is_stmt 0 view .LVU293
 1220 0436 00C0      		rjmp .L41
 1221               	.LVL111:
 1222               	.L59:
 1223               		.loc 2 210 1 view .LVU294
 1224               	.LBE28:
 1225               	.LBE27:
 271:src/FP_program.c **** 					lcdprint(&String);
 1226               		.loc 1 271 6 is_stmt 1 view .LVU295
 1227 0438 1F92      		push __zero_reg__
GAS LISTING C:\Users\kenne\AppData\Local\Temp\ccfTCvCf.s 			page 38


 1228 043a FF92      		push r15
 1229 043c 80E0      		ldi r24,lo8(.LC35)
 1230 043e 90E0      		ldi r25,hi8(.LC35)
 1231 0440 9F93      		push r25
 1232 0442 8F93      		push r24
 1233 0444 CE01      		movw r24,r28
 1234 0446 0196      		adiw r24,1
 1235 0448 6C01      		movw r12,r24
 1236 044a 9F93      		push r25
 1237 044c 8F93      		push r24
 1238 044e 0E94 0000 		call sprintf
 1239               	.LVL112:
 272:src/FP_program.c **** 					_delay_ms(700);
 1240               		.loc 1 272 6 view .LVU296
 1241 0452 C601      		movw r24,r12
 1242 0454 0E94 0000 		call lcdprint
 1243               	.LVL113:
 273:src/FP_program.c **** 					break;
 1244               		.loc 1 273 6 view .LVU297
 1245               	.LBB29:
 1246               	.LBI29:
 166:c:\d\ifsc\vscodeleandro\ex\toolchains\avr-gcc\avr\include\util\delay.h **** {
 1247               		.loc 2 166 1 view .LVU298
 1248               	.LBB30:
 168:c:\d\ifsc\vscodeleandro\ex\toolchains\avr-gcc\avr\include\util\delay.h **** #if __HAS_DELAY_CYCLES && defined(__OPTIMIZE__) && \
 1249               		.loc 2 168 2 view .LVU299
 172:c:\d\ifsc\vscodeleandro\ex\toolchains\avr-gcc\avr\include\util\delay.h **** 	extern void __builtin_avr_delay_cycles(unsigned long);
 1250               		.loc 2 172 2 view .LVU300
 173:c:\d\ifsc\vscodeleandro\ex\toolchains\avr-gcc\avr\include\util\delay.h **** 	__tmp = ((F_CPU) / 1e3) * __ms;
 1251               		.loc 2 173 2 view .LVU301
 174:c:\d\ifsc\vscodeleandro\ex\toolchains\avr-gcc\avr\include\util\delay.h **** 
 1252               		.loc 2 174 2 view .LVU302
 184:c:\d\ifsc\vscodeleandro\ex\toolchains\avr-gcc\avr\include\util\delay.h **** 	#endif
 1253               		.loc 2 184 3 view .LVU303
 187:c:\d\ifsc\vscodeleandro\ex\toolchains\avr-gcc\avr\include\util\delay.h **** 
 1254               		.loc 2 187 2 view .LVU304
 1255 0458 9FE7      		ldi r25,lo8(1679999)
 1256 045a 22EA      		ldi r18,hi8(1679999)
 1257 045c 89E1      		ldi r24,hlo8(1679999)
 1258 045e 9150      	1:	subi r25,1
 1259 0460 2040      		sbci r18,0
 1260 0462 8040      		sbci r24,0
 1261 0464 01F4      		brne 1b
 1262 0466 00C0      		rjmp .
 1263 0468 0000      		nop
 1264               		.loc 2 210 1 is_stmt 0 view .LVU305
 1265 046a 0F90      		pop __tmp_reg__
 1266 046c 0F90      		pop __tmp_reg__
 1267 046e 0F90      		pop __tmp_reg__
 1268 0470 0F90      		pop __tmp_reg__
 1269 0472 0F90      		pop __tmp_reg__
 1270 0474 0F90      		pop __tmp_reg__
 1271               	.LVL114:
 1272               		.loc 2 210 1 view .LVU306
 1273 0476 00C0      		rjmp .L41
 1274               	.LVL115:
 1275               	.L81:
GAS LISTING C:\Users\kenne\AppData\Local\Temp\ccfTCvCf.s 			page 39


 1276               		.loc 2 210 1 view .LVU307
 1277               	.LBE30:
 1278               	.LBE29:
 1279               	.LBE31:
 1280               	.LBE37:
 1281               	.LBE38:
 281:src/FP_program.c **** }
 1282               		.loc 1 281 2 is_stmt 1 view .LVU308
 282:src/FP_program.c **** 
 1283               		.loc 1 282 1 is_stmt 0 view .LVU309
 1284 0478 802F      		mov r24,r16
 1285               	/* epilogue start */
 1286 047a 6496      		adiw r28,20
 1287 047c 0FB6      		in __tmp_reg__,__SREG__
 1288 047e F894      		cli
 1289 0480 DEBF      		out __SP_H__,r29
 1290 0482 0FBE      		out __SREG__,__tmp_reg__
 1291 0484 CDBF      		out __SP_L__,r28
 1292 0486 DF91      		pop r29
 1293 0488 CF91      		pop r28
 1294 048a 1F91      		pop r17
 1295               	.LVL116:
 282:src/FP_program.c **** 
 1296               		.loc 1 282 1 view .LVU310
 1297 048c 0F91      		pop r16
 1298               	.LVL117:
 282:src/FP_program.c **** 
 1299               		.loc 1 282 1 view .LVU311
 1300 048e FF90      		pop r15
 1301               	.LVL118:
 282:src/FP_program.c **** 
 1302               		.loc 1 282 1 view .LVU312
 1303 0490 DF90      		pop r13
 1304 0492 CF90      		pop r12
 1305 0494 0895      		ret
 1306               		.cfi_endproc
 1307               	.LFE6:
 1309               		.section	.text.enroll,"ax",@progbits
 1310               	.global	enroll
 1312               	enroll:
 1313               	.LFB8:
 308:src/FP_program.c **** 
 309:src/FP_program.c **** void enroll()
 310:src/FP_program.c **** {
 1314               		.loc 1 310 1 is_stmt 1 view -0
 1315               		.cfi_startproc
 1316               	.L84:
 1317               	/* prologue: function */
 1318               	/* frame size = 0 */
 1319               	/* stack size = 0 */
 1320               	.L__stack_usage = 0
 1321               	.L83:
 311:src/FP_program.c **** 	loop:
 312:src/FP_program.c **** 	if(sendcmd2fb(F_find)) goto loop;
 1322               		.loc 1 312 2 discriminator 2 view .LVU314
 1323               		.loc 1 312 5 is_stmt 0 discriminator 2 view .LVU315
 1324 0000 82E0      		ldi r24,lo8(2)
GAS LISTING C:\Users\kenne\AppData\Local\Temp\ccfTCvCf.s 			page 40


 1325 0002 0E94 0000 		call sendcmd2fb
 1326               	.LVL119:
 1327               		.loc 1 312 4 discriminator 2 view .LVU316
 1328 0006 8111      		cpse r24,__zero_reg__
 1329 0008 00C0      		rjmp .L83
 313:src/FP_program.c **** 	if(sendcmd2fb(F_im1)) goto loop;
 1330               		.loc 1 313 2 is_stmt 1 view .LVU317
 1331               		.loc 1 313 5 is_stmt 0 view .LVU318
 1332 000a 83E0      		ldi r24,lo8(3)
 1333 000c 0E94 0000 		call sendcmd2fb
 1334               	.LVL120:
 1335               		.loc 1 313 4 view .LVU319
 1336 0010 8111      		cpse r24,__zero_reg__
 1337 0012 00C0      		rjmp .L83
 314:src/FP_program.c **** 	if(sendcmd2fb(F_find)) goto loop;
 1338               		.loc 1 314 2 is_stmt 1 view .LVU320
 1339               		.loc 1 314 5 is_stmt 0 view .LVU321
 1340 0014 82E0      		ldi r24,lo8(2)
 1341 0016 0E94 0000 		call sendcmd2fb
 1342               	.LVL121:
 1343               		.loc 1 314 4 view .LVU322
 1344 001a 8111      		cpse r24,__zero_reg__
 1345 001c 00C0      		rjmp .L83
 315:src/FP_program.c **** 	if(sendcmd2fb(F_im2)) goto loop;
 1346               		.loc 1 315 2 is_stmt 1 view .LVU323
 1347               		.loc 1 315 5 is_stmt 0 view .LVU324
 1348 001e 84E0      		ldi r24,lo8(4)
 1349 0020 0E94 0000 		call sendcmd2fb
 1350               	.LVL122:
 1351               		.loc 1 315 4 view .LVU325
 1352 0024 8111      		cpse r24,__zero_reg__
 1353 0026 00C0      		rjmp .L83
 316:src/FP_program.c **** 	if(sendcmd2fb(F_cretModl)) goto loop;
 1354               		.loc 1 316 2 is_stmt 1 view .LVU326
 1355               		.loc 1 316 5 is_stmt 0 view .LVU327
 1356 0028 85E0      		ldi r24,lo8(5)
 1357 002a 0E94 0000 		call sendcmd2fb
 1358               	.LVL123:
 1359               		.loc 1 316 4 view .LVU328
 1360 002e 8111      		cpse r24,__zero_reg__
 1361 0030 00C0      		rjmp .L83
 317:src/FP_program.c **** 	if(sendcmd2fb(F_store)) goto loop;
 1362               		.loc 1 317 2 is_stmt 1 view .LVU329
 1363               		.loc 1 317 5 is_stmt 0 view .LVU330
 1364 0032 86E0      		ldi r24,lo8(6)
 1365 0034 0E94 0000 		call sendcmd2fb
 1366               	.LVL124:
 1367               		.loc 1 317 4 view .LVU331
 1368 0038 8111      		cpse r24,__zero_reg__
 1369 003a 00C0      		rjmp .L83
 1370               	/* epilogue start */
 318:src/FP_program.c **** }
 1371               		.loc 1 318 1 view .LVU332
 1372 003c 0895      		ret
 1373               		.cfi_endproc
 1374               	.LFE8:
 1376               		.section	.text.Search,"ax",@progbits
GAS LISTING C:\Users\kenne\AppData\Local\Temp\ccfTCvCf.s 			page 41


 1377               	.global	Search
 1379               	Search:
 1380               	.LFB9:
 319:src/FP_program.c **** 
 320:src/FP_program.c **** void Search()
 321:src/FP_program.c **** {
 1381               		.loc 1 321 1 is_stmt 1 view -0
 1382               		.cfi_startproc
 1383               	.L87:
 1384               	/* prologue: function */
 1385               	/* frame size = 0 */
 1386               	/* stack size = 0 */
 1387               	.L__stack_usage = 0
 1388               	.L86:
 322:src/FP_program.c **** 	loop:
 323:src/FP_program.c **** 	if(sendcmd2fb(F_find)) goto loop;
 1389               		.loc 1 323 2 discriminator 2 view .LVU334
 1390               		.loc 1 323 5 is_stmt 0 discriminator 2 view .LVU335
 1391 0000 82E0      		ldi r24,lo8(2)
 1392 0002 0E94 0000 		call sendcmd2fb
 1393               	.LVL125:
 1394               		.loc 1 323 4 discriminator 2 view .LVU336
 1395 0006 8111      		cpse r24,__zero_reg__
 1396 0008 00C0      		rjmp .L86
 324:src/FP_program.c **** 	if(sendcmd2fb(F_im1)) goto loop;
 1397               		.loc 1 324 2 is_stmt 1 view .LVU337
 1398               		.loc 1 324 5 is_stmt 0 view .LVU338
 1399 000a 83E0      		ldi r24,lo8(3)
 1400 000c 0E94 0000 		call sendcmd2fb
 1401               	.LVL126:
 1402               		.loc 1 324 4 view .LVU339
 1403 0010 8111      		cpse r24,__zero_reg__
 1404 0012 00C0      		rjmp .L86
 325:src/FP_program.c **** 	if(sendcmd2fb(F_search)) goto loop;
 1405               		.loc 1 325 2 is_stmt 1 view .LVU340
 1406               		.loc 1 325 5 is_stmt 0 view .LVU341
 1407 0014 89E0      		ldi r24,lo8(9)
 1408 0016 0E94 0000 		call sendcmd2fb
 1409               	.LVL127:
 1410               		.loc 1 325 4 view .LVU342
 1411 001a 8111      		cpse r24,__zero_reg__
 1412 001c 00C0      		rjmp .L86
 1413               	/* epilogue start */
 326:src/FP_program.c **** }
 1414               		.loc 1 326 1 view .LVU343
 1415 001e 0895      		ret
 1416               		.cfi_endproc
 1417               	.LFE9:
 1419               	.global	fp_empty
 1420               		.section	.data.fp_empty,"aw"
 1423               	fp_empty:
 1424 0000 030D 00   		.string	"\003\r"
 1425 0003 11        		.ascii	"\021"
 1426               	.global	f_delete
 1427               		.section	.data.f_delete,"aw"
 1430               	f_delete:
 1431 0000 070C 00   		.string	"\007\f"
GAS LISTING C:\Users\kenne\AppData\Local\Temp\ccfTCvCf.s 			page 42


 1432 0003 00        		.string	""
 1433 0004 00        		.string	""
 1434 0005 0100      		.string	"\001"
 1435 0007 15        		.ascii	"\025"
 1436               	.global	f_search
 1437               		.section	.rodata.f_search,"a"
 1440               	f_search:
 1441 0000 0804 0100 		.string	"\b\004\001"
 1442 0004 00        		.string	""
 1443 0005 00        		.string	""
 1444 0006 A300      		.string	"\243"
 1445 0008 B1        		.ascii	"\261"
 1446               	.global	f_storeModel
 1447               		.section	.data.f_storeModel,"aw"
 1450               	f_storeModel:
 1451 0000 0606 0100 		.string	"\006\006\001"
 1452 0004 0100      		.string	"\001"
 1453 0006 0E        		.ascii	"\016"
 1454               	.global	f_createModel
 1455               		.section	.rodata.f_createModel,"a"
 1458               	f_createModel:
 1459 0000 0305 00   		.string	"\003\005"
 1460 0003 09        		.ascii	"\t"
 1461               	.global	f_imz2ch2
 1462               		.section	.rodata.f_imz2ch2,"a"
 1465               	f_imz2ch2:
 1466 0000 0402 0200 		.string	"\004\002\002"
 1467 0004 09        		.ascii	"\t"
 1468               	.global	f_imz2ch1
 1469               		.section	.rodata.f_imz2ch1,"a"
 1472               	f_imz2ch1:
 1473 0000 0402 0100 		.string	"\004\002\001"
 1474 0004 08        		.ascii	"\b"
 1475               	.global	f_detect
 1476               		.section	.rodata.f_detect,"a"
 1479               	f_detect:
 1480 0000 0301 00   		.string	"\003\001"
 1481 0003 05        		.ascii	"\005"
 1482               	.global	PassVfy
 1483               		.section	.rodata.PassVfy,"a"
 1486               	PassVfy:
 1487 0000 0713 00   		.string	"\007\023"
 1488 0003 00        		.string	""
 1489 0004 00        		.string	""
 1490 0005 00        		.string	""
 1491 0006 00        		.string	""
 1492 0007 1B        		.ascii	"\033"
 1493               	.global	Command
 1494               		.section	.rodata.Command,"a"
 1497               	Command:
 1498 0000 0100      		.string	"\001"
 1499               	.global	Address
 1500               		.section	.rodata.Address,"a"
 1503               	Address:
 1504 0000 FFFF FFFF 		.ascii	"\377\377\377\377"
 1505               	.global	Header
 1506               		.section	.rodata.Header,"a"
GAS LISTING C:\Users\kenne\AppData\Local\Temp\ccfTCvCf.s 			page 43


 1509               	Header:
 1510 0000 EF01      		.ascii	"\357\001"
 1511               	.global	rcvData
 1512               		.section	.bss.rcvData,"aw",@nobits
 1515               	rcvData:
 1516 0000 0000 0000 		.zero	15
 1516      0000 0000 
 1516      0000 0000 
 1516      0000 00
 1517               	.global	cont
 1518               		.section	.bss.cont,"aw",@nobits
 1521               	cont:
 1522 0000 00        		.zero	1
 1523               		.text
 1524               	.Letext0:
 1525               		.file 3 "src/../inc/UART_interface.h"
 1526               		.file 4 "src/../inc/LCD_interface.h"
 1527               		.file 5 "src/../inc/keys_interface.h"
 1528               		.file 6 "<built-in>"
 1529               		.file 7 "c:\\d\\ifsc\\vscodeleandro\\ex\\toolchains\\avr-gcc\\avr\\include\\stdint.h"
 1530               		.file 8 "c:\\d\\ifsc\\vscodeleandro\\ex\\toolchains\\avr-gcc\\avr\\include\\math.h"
GAS LISTING C:\Users\kenne\AppData\Local\Temp\ccfTCvCf.s 			page 44

