GAS LISTING C:\Users\kenne\AppData\Local\Temp\cc0aKx3b.s 			page 1


   1               		.file	"keypad.cpp"
   2               	__SP_H__ = 0x3e
   3               	__SP_L__ = 0x3d
   4               	__SREG__ = 0x3f
   5               	__tmp_reg__ = 0
   6               	__zero_reg__ = 1
   7               		.text
   8               	.Ltext0:
   9               		.cfi_sections	.debug_frame
  10               		.file 0 "C:\\D\\IFSC\\MCC\\projects\\9_Bit_Bang_serial\\codigo 1" "funsape/device/keypad.cpp"
  11               		.section	.text._Z7getTickv,"ax",@progbits
  12               		.weak	_Z7getTickv
  14               	_Z7getTickv:
  15               	.LFB32:
  16               		.file 1 "funsape/device/../globalDefines.hpp"
   1:funsape/device/../globalDefines.hpp **** //!
   2:funsape/device/../globalDefines.hpp **** //! \file           globalDefines.hpp
   3:funsape/device/../globalDefines.hpp **** //! \brief          Global definitions file
   4:funsape/device/../globalDefines.hpp **** //! \author         Leandro Schwarz (bladabuska+funsapeavr8lib@gmail.com)
   5:funsape/device/../globalDefines.hpp **** //! \date           2023-04-05
   6:funsape/device/../globalDefines.hpp **** //! \version        23.04
   7:funsape/device/../globalDefines.hpp **** //! \copyright      license
   8:funsape/device/../globalDefines.hpp **** //! \details        Global definitions file.
   9:funsape/device/../globalDefines.hpp **** //! \todo           Todo list
  10:funsape/device/../globalDefines.hpp **** //!
  11:funsape/device/../globalDefines.hpp **** 
  12:funsape/device/../globalDefines.hpp **** // =============================================================================
  13:funsape/device/../globalDefines.hpp **** // Include guard (START)
  14:funsape/device/../globalDefines.hpp **** // =============================================================================
  15:funsape/device/../globalDefines.hpp **** 
  16:funsape/device/../globalDefines.hpp **** #ifndef __GLOBAL_DEFINES_HPP
  17:funsape/device/../globalDefines.hpp **** #define __GLOBAL_DEFINES_HPP                    2304
  18:funsape/device/../globalDefines.hpp **** 
  19:funsape/device/../globalDefines.hpp **** // =============================================================================
  20:funsape/device/../globalDefines.hpp **** // Basic definitions
  21:funsape/device/../globalDefines.hpp **** // =============================================================================
  22:funsape/device/../globalDefines.hpp **** 
  23:funsape/device/../globalDefines.hpp **** #ifndef F_CPU
  24:funsape/device/../globalDefines.hpp **** #   define F_CPU    16000000UL
  25:funsape/device/../globalDefines.hpp **** #endif
  26:funsape/device/../globalDefines.hpp **** 
  27:funsape/device/../globalDefines.hpp **** // =============================================================================
  28:funsape/device/../globalDefines.hpp **** // Dependencies
  29:funsape/device/../globalDefines.hpp **** // =============================================================================
  30:funsape/device/../globalDefines.hpp **** 
  31:funsape/device/../globalDefines.hpp **** //     //////////////////     AVR STANDARD LIBRARY     //////////////////     //
  32:funsape/device/../globalDefines.hpp **** #include <avr/io.h>
  33:funsape/device/../globalDefines.hpp **** #include <avr/interrupt.h>
  34:funsape/device/../globalDefines.hpp **** #include <util/delay.h>
  35:funsape/device/../globalDefines.hpp **** #include <util/atomic.h>
  36:funsape/device/../globalDefines.hpp **** 
  37:funsape/device/../globalDefines.hpp **** //     ///////////////////     STANDARD C LIBRARY     ///////////////////     //
  38:funsape/device/../globalDefines.hpp **** #include <stddef.h>
  39:funsape/device/../globalDefines.hpp **** #include <stdint.h>
  40:funsape/device/../globalDefines.hpp **** #include <stdio.h>
  41:funsape/device/../globalDefines.hpp **** #include <stdlib.h>
  42:funsape/device/../globalDefines.hpp **** #include <string.h>
GAS LISTING C:\Users\kenne\AppData\Local\Temp\cc0aKx3b.s 			page 2


  43:funsape/device/../globalDefines.hpp **** 
  44:funsape/device/../globalDefines.hpp **** //     //////////////////     LIBRARY DEPENDENCIES     //////////////////     //
  45:funsape/device/../globalDefines.hpp **** #include "pinout.hpp"
  46:funsape/device/../globalDefines.hpp **** #if !defined(__PINOUT_HPP)
  47:funsape/device/../globalDefines.hpp **** #   error "Header file (pinout.hpp) is corrupted!"
  48:funsape/device/../globalDefines.hpp **** #elif __PINOUT_HPP != __GLOBAL_DEFINES_HPP
  49:funsape/device/../globalDefines.hpp **** #   error "Version mismatch between header file and library dependency (pinout.hpp)!"
  50:funsape/device/../globalDefines.hpp **** #endif
  51:funsape/device/../globalDefines.hpp **** 
  52:funsape/device/../globalDefines.hpp **** // =============================================================================
  53:funsape/device/../globalDefines.hpp **** // Undefining previous definitions
  54:funsape/device/../globalDefines.hpp **** // =============================================================================
  55:funsape/device/../globalDefines.hpp **** 
  56:funsape/device/../globalDefines.hpp **** // NONE
  57:funsape/device/../globalDefines.hpp **** 
  58:funsape/device/../globalDefines.hpp **** // =============================================================================
  59:funsape/device/../globalDefines.hpp **** // Constant definitions
  60:funsape/device/../globalDefines.hpp **** // =============================================================================
  61:funsape/device/../globalDefines.hpp **** 
  62:funsape/device/../globalDefines.hpp **** #define inlined                         inline __attribute__((always_inline))
  63:funsape/device/../globalDefines.hpp **** #define weakened                        __attribute__((weak))
  64:funsape/device/../globalDefines.hpp **** 
  65:funsape/device/../globalDefines.hpp **** // =============================================================================
  66:funsape/device/../globalDefines.hpp **** // New data types
  67:funsape/device/../globalDefines.hpp **** // =============================================================================
  68:funsape/device/../globalDefines.hpp **** 
  69:funsape/device/../globalDefines.hpp **** //     ////////////////////     BASIC VARIABLES     /////////////////////     //
  70:funsape/device/../globalDefines.hpp **** typedef bool                            bool_t;
  71:funsape/device/../globalDefines.hpp **** typedef char                            char_t;
  72:funsape/device/../globalDefines.hpp **** 
  73:funsape/device/../globalDefines.hpp **** //     ///////////////////     CONSTANT VARIABLES    ////////////////////     //
  74:funsape/device/../globalDefines.hpp **** typedef const bool_t                    cbool_t;
  75:funsape/device/../globalDefines.hpp **** typedef const char_t                    cchar_t;
  76:funsape/device/../globalDefines.hpp **** typedef const int8_t                    cint8_t;
  77:funsape/device/../globalDefines.hpp **** typedef const int16_t                   cint16_t;
  78:funsape/device/../globalDefines.hpp **** typedef const int32_t                   cint32_t;
  79:funsape/device/../globalDefines.hpp **** typedef const int64_t                   cint64_t;
  80:funsape/device/../globalDefines.hpp **** typedef const uint8_t                   cuint8_t;
  81:funsape/device/../globalDefines.hpp **** typedef const uint16_t                  cuint16_t;
  82:funsape/device/../globalDefines.hpp **** typedef const uint32_t                  cuint32_t;
  83:funsape/device/../globalDefines.hpp **** typedef const uint64_t                  cuint64_t;
  84:funsape/device/../globalDefines.hpp **** 
  85:funsape/device/../globalDefines.hpp **** //     ///////////////////     VOLATILE VARIABLES    ////////////////////     //
  86:funsape/device/../globalDefines.hpp **** typedef volatile bool_t                 vbool_t;
  87:funsape/device/../globalDefines.hpp **** typedef volatile char_t                 vchar_t;
  88:funsape/device/../globalDefines.hpp **** typedef volatile int8_t                 vint8_t;
  89:funsape/device/../globalDefines.hpp **** typedef volatile int16_t                vint16_t;
  90:funsape/device/../globalDefines.hpp **** typedef volatile int32_t                vint32_t;
  91:funsape/device/../globalDefines.hpp **** typedef volatile int64_t                vint64_t;
  92:funsape/device/../globalDefines.hpp **** typedef volatile uint8_t                vuint8_t;
  93:funsape/device/../globalDefines.hpp **** typedef volatile uint16_t               vuint16_t;
  94:funsape/device/../globalDefines.hpp **** typedef volatile uint32_t               vuint32_t;
  95:funsape/device/../globalDefines.hpp **** typedef volatile uint64_t               vuint64_t;
  96:funsape/device/../globalDefines.hpp **** 
  97:funsape/device/../globalDefines.hpp **** //     /////////////////     AVR PLATFORM VARIABLES    //////////////////     //
  98:funsape/device/../globalDefines.hpp **** typedef int16_t                         int_t;          // 16-bit (AVR)
  99:funsape/device/../globalDefines.hpp **** typedef uint16_t                        uint_t;         // 16-bit (AVR)
GAS LISTING C:\Users\kenne\AppData\Local\Temp\cc0aKx3b.s 			page 3


 100:funsape/device/../globalDefines.hpp **** typedef cint16_t                        cint_t;         // 16-bit (AVR)
 101:funsape/device/../globalDefines.hpp **** typedef cuint16_t                       cuint_t;        // 16-bit (AVR)
 102:funsape/device/../globalDefines.hpp **** typedef vint16_t                        vint_t;         // 16-bit (AVR)
 103:funsape/device/../globalDefines.hpp **** typedef vuint16_t                       vuint_t;        // 16-bit (AVR)
 104:funsape/device/../globalDefines.hpp **** typedef uint8_t                         ioPinIndex_t;   // 8-bit (AVR)
 105:funsape/device/../globalDefines.hpp **** typedef vuint8_t                       *ioRegAddress_t; // 8-bit address (AVR)
 106:funsape/device/../globalDefines.hpp **** 
 107:funsape/device/../globalDefines.hpp **** //     //////////////////     BINARY ENUMERATIONS     ///////////////////     //
 108:funsape/device/../globalDefines.hpp **** enum class Activation : cbool_t {
 109:funsape/device/../globalDefines.hpp ****     OFF                                 = false,
 110:funsape/device/../globalDefines.hpp ****     ON                                  = true
 111:funsape/device/../globalDefines.hpp **** };
 112:funsape/device/../globalDefines.hpp **** 
 113:funsape/device/../globalDefines.hpp **** enum class DisplayOrientation : cbool_t {
 114:funsape/device/../globalDefines.hpp ****     LANDSCAPE                           = false,
 115:funsape/device/../globalDefines.hpp ****     PORTRAIT                            = true
 116:funsape/device/../globalDefines.hpp **** };
 117:funsape/device/../globalDefines.hpp **** 
 118:funsape/device/../globalDefines.hpp **** enum class DriverMode : cbool_t {
 119:funsape/device/../globalDefines.hpp ****     PUSH_PULL                           = false,
 120:funsape/device/../globalDefines.hpp ****     OPEN_DRAIN                          = true,
 121:funsape/device/../globalDefines.hpp **** };
 122:funsape/device/../globalDefines.hpp **** 
 123:funsape/device/../globalDefines.hpp **** enum class Edge : cbool_t {
 124:funsape/device/../globalDefines.hpp ****     FALLING                             = false,
 125:funsape/device/../globalDefines.hpp ****     RISING                              = true
 126:funsape/device/../globalDefines.hpp **** };
 127:funsape/device/../globalDefines.hpp **** 
 128:funsape/device/../globalDefines.hpp **** enum class IoOperation : cbool_t {
 129:funsape/device/../globalDefines.hpp ****     WRITE                               = false,
 130:funsape/device/../globalDefines.hpp ****     READ                                = true
 131:funsape/device/../globalDefines.hpp **** };
 132:funsape/device/../globalDefines.hpp **** 
 133:funsape/device/../globalDefines.hpp **** enum class LogicLevel : cbool_t {
 134:funsape/device/../globalDefines.hpp ****     LOW                                 = false,
 135:funsape/device/../globalDefines.hpp ****     HIGH                                = true
 136:funsape/device/../globalDefines.hpp **** };
 137:funsape/device/../globalDefines.hpp **** 
 138:funsape/device/../globalDefines.hpp **** enum class PinDirection : cbool_t {
 139:funsape/device/../globalDefines.hpp ****     INPUT                               = false,
 140:funsape/device/../globalDefines.hpp ****     OUTPUT                              = true,
 141:funsape/device/../globalDefines.hpp **** };
 142:funsape/device/../globalDefines.hpp **** 
 143:funsape/device/../globalDefines.hpp **** enum class Rotation : cbool_t {
 144:funsape/device/../globalDefines.hpp ****     CLOCKWISE                           = false,
 145:funsape/device/../globalDefines.hpp ****     COUNTERCLOCKWISE                    = true
 146:funsape/device/../globalDefines.hpp **** };
 147:funsape/device/../globalDefines.hpp **** 
 148:funsape/device/../globalDefines.hpp **** enum class State : cbool_t {
 149:funsape/device/../globalDefines.hpp ****     OFF                                 = false,
 150:funsape/device/../globalDefines.hpp ****     ON                                  = true
 151:funsape/device/../globalDefines.hpp **** };
 152:funsape/device/../globalDefines.hpp **** 
 153:funsape/device/../globalDefines.hpp **** //     ///////////////////     PLAIN ENUMERATIONS    ////////////////////     //
 154:funsape/device/../globalDefines.hpp **** enum class Axis : cuint8_t {
 155:funsape/device/../globalDefines.hpp ****     //                                     Z-AXIS     Y-AXIS     X-AXIS
 156:funsape/device/../globalDefines.hpp ****     NONE                                = (0 << 2) | (0 << 1) | (0 << 0),
GAS LISTING C:\Users\kenne\AppData\Local\Temp\cc0aKx3b.s 			page 4


 157:funsape/device/../globalDefines.hpp ****     X                                   = (0 << 2) | (0 << 1) | (1 << 0),
 158:funsape/device/../globalDefines.hpp ****     Y                                   = (0 << 2) | (1 << 1) | (0 << 0),
 159:funsape/device/../globalDefines.hpp ****     XY                                  = (0 << 2) | (1 << 1) | (1 << 0),
 160:funsape/device/../globalDefines.hpp ****     Z                                   = (1 << 2) | (0 << 1) | (0 << 0),
 161:funsape/device/../globalDefines.hpp ****     XZ                                  = (1 << 2) | (0 << 1) | (1 << 0),
 162:funsape/device/../globalDefines.hpp ****     YZ                                  = (1 << 2) | (1 << 1) | (0 << 0),
 163:funsape/device/../globalDefines.hpp ****     ALL                                 = (1 << 2) | (1 << 1) | (1 << 0)
 164:funsape/device/../globalDefines.hpp **** };
 165:funsape/device/../globalDefines.hpp **** 
 166:funsape/device/../globalDefines.hpp **** inlined Axis operator|(Axis a, Axis b)
 167:funsape/device/../globalDefines.hpp **** {
 168:funsape/device/../globalDefines.hpp ****     return static_cast<Axis>(static_cast<cint8_t>(a) | static_cast<uint8_t>(b));
 169:funsape/device/../globalDefines.hpp **** }
 170:funsape/device/../globalDefines.hpp **** 
 171:funsape/device/../globalDefines.hpp **** inlined Axis &operator|=(Axis &a, Axis b)
 172:funsape/device/../globalDefines.hpp **** {
 173:funsape/device/../globalDefines.hpp ****     return a = static_cast<Axis>(static_cast<uint8_t>(a) | static_cast<uint8_t>(b));
 174:funsape/device/../globalDefines.hpp **** }
 175:funsape/device/../globalDefines.hpp **** 
 176:funsape/device/../globalDefines.hpp **** inlined Axis operator&(Axis a, Axis b)
 177:funsape/device/../globalDefines.hpp **** {
 178:funsape/device/../globalDefines.hpp ****     return static_cast<Axis>(static_cast<uint8_t>(a) & static_cast<uint8_t>(b));
 179:funsape/device/../globalDefines.hpp **** }
 180:funsape/device/../globalDefines.hpp **** 
 181:funsape/device/../globalDefines.hpp **** inlined Axis &operator&=(Axis &a, Axis b)
 182:funsape/device/../globalDefines.hpp **** {
 183:funsape/device/../globalDefines.hpp ****     return a = static_cast<Axis>(static_cast<uint8_t>(a) & static_cast<uint8_t>(b));
 184:funsape/device/../globalDefines.hpp **** }
 185:funsape/device/../globalDefines.hpp **** 
 186:funsape/device/../globalDefines.hpp **** enum class Direction : cuint8_t {
 187:funsape/device/../globalDefines.hpp ****     LEFT                                = 0,
 188:funsape/device/../globalDefines.hpp ****     RIGHT                               = 1,
 189:funsape/device/../globalDefines.hpp ****     UP                                  = 2,
 190:funsape/device/../globalDefines.hpp ****     DOWN                                = 3
 191:funsape/device/../globalDefines.hpp **** };
 192:funsape/device/../globalDefines.hpp **** 
 193:funsape/device/../globalDefines.hpp **** enum class InterfaceMode : cuint8_t {
 194:funsape/device/../globalDefines.hpp ****     BLOCKING_MODE                       = 0,
 195:funsape/device/../globalDefines.hpp ****     INTERRUPT_MODE                      = 1,
 196:funsape/device/../globalDefines.hpp ****     DMA_MODE                            = 2
 197:funsape/device/../globalDefines.hpp **** };
 198:funsape/device/../globalDefines.hpp **** 
 199:funsape/device/../globalDefines.hpp **** enum class ThermometricScale : cuint8_t {
 200:funsape/device/../globalDefines.hpp ****     CELSIUS                             = 0,
 201:funsape/device/../globalDefines.hpp ****     DELISLE                             = 1,
 202:funsape/device/../globalDefines.hpp ****     FAHRENHEIT                          = 2,
 203:funsape/device/../globalDefines.hpp ****     KELVIN                              = 3,
 204:funsape/device/../globalDefines.hpp ****     NEWTON                              = 4,
 205:funsape/device/../globalDefines.hpp ****     RANKINE                             = 5,
 206:funsape/device/../globalDefines.hpp ****     REAUMUR                             = 6,
 207:funsape/device/../globalDefines.hpp ****     ROMER                               = 7
 208:funsape/device/../globalDefines.hpp **** };
 209:funsape/device/../globalDefines.hpp **** 
 210:funsape/device/../globalDefines.hpp **** enum class Error : cuint16_t {
 211:funsape/device/../globalDefines.hpp ****     // General error codes
 212:funsape/device/../globalDefines.hpp ****     NONE                                                = 0x0000,   // Success - No errors occurred
 213:funsape/device/../globalDefines.hpp ****     AXIS_INVALID                                        = 0x0001,   // Invalid axis
GAS LISTING C:\Users\kenne\AppData\Local\Temp\cc0aKx3b.s 			page 5


 214:funsape/device/../globalDefines.hpp ****     NOT_IMPLEMENTED                                     = 0x0002,   // Not implemented yet
 215:funsape/device/../globalDefines.hpp ****     UNDER_DEVELOPMENT                                   = 0x0003,   // This part of the code is sti
 216:funsape/device/../globalDefines.hpp ****     NOT_INITIALIZED                                     = 0x0004,   // Not initialized
 217:funsape/device/../globalDefines.hpp ****     // BUSY                                                = 0x0005,   // TODO: Describe parameter
 218:funsape/device/../globalDefines.hpp ****     // DEVICE_NOT_SUPPORTED                                = 0x0006,   // Device is not currently s
 219:funsape/device/../globalDefines.hpp ****     FEATURE_NOT_SUPPORTED                               = 0x0007,   // Unsupported feature or confi
 220:funsape/device/../globalDefines.hpp ****     // FUNCTION_POINTER_NULL                               = 0x0008,   // TODO: Describe parameter
 221:funsape/device/../globalDefines.hpp ****     // INSTANCE_INVALID                                    = 0x0009,   // Invalid instance
 222:funsape/device/../globalDefines.hpp ****     // LOCKED                                              = 0x000A,   // Accessed a locked device
 223:funsape/device/../globalDefines.hpp ****     MEMORY_ALLOCATION                                   = 0x000B,   // Memory allocation failed
 224:funsape/device/../globalDefines.hpp ****     // MODE_NOT_SUPPORTED                                  = 0x000C,   // Mode is not currently sup
 225:funsape/device/../globalDefines.hpp ****     // NOT_READY                                           = 0x000D,   // TODO: Describe parameter
 226:funsape/device/../globalDefines.hpp ****     // READ_PROTECTED                                      = 0x000E,   // Tried to read a read prot
 227:funsape/device/../globalDefines.hpp ****     // WRITE_PROTECTED                                     = 0x000F,   // Tried to write a write pr
 228:funsape/device/../globalDefines.hpp **** 
 229:funsape/device/../globalDefines.hpp ****     // Function arguments related error codes
 230:funsape/device/../globalDefines.hpp ****     ARGUMENT_CANNOT_BE_ZERO                             = 0x0010,   // TODO: Describe parameter
 231:funsape/device/../globalDefines.hpp ****     ARGUMENT_POINTER_NULL                               = 0x0011,   // NULL pointer was passed as a
 232:funsape/device/../globalDefines.hpp ****     ARGUMENT_VALUE_INVALID                              = 0x0012,   // TODO: Describe parameter
 233:funsape/device/../globalDefines.hpp ****     // ARGUMENTS_MISMATCH                                  = 0x0013,   // A function was called wit
 234:funsape/device/../globalDefines.hpp ****     // ARGUMENTS_WRONG_NUMBER                              = 0x0014,   // A function was called wit
 235:funsape/device/../globalDefines.hpp ****     // ARGUMENT_GENERIC_ERROR_5                            = 0x0015,   // Generic error (use only o
 236:funsape/device/../globalDefines.hpp ****     // ARGUMENT_GENERIC_ERROR_6                            = 0x0016,   // Generic error (use only o
 237:funsape/device/../globalDefines.hpp ****     // ARGUMENT_GENERIC_ERROR_7                            = 0x0017,   // Generic error (use only o
 238:funsape/device/../globalDefines.hpp ****     // ARGUMENT_GENERIC_ERROR_8                            = 0x0018,   // Generic error (use only o
 239:funsape/device/../globalDefines.hpp ****     // ARGUMENT_GENERIC_ERROR_9                            = 0x0019,   // Generic error (use only o
 240:funsape/device/../globalDefines.hpp ****     // ARGUMENT_GENERIC_ERROR_10                           = 0x001A,   // Generic error (use only o
 241:funsape/device/../globalDefines.hpp ****     // ARGUMENT_GENERIC_ERROR_11                           = 0x001B,   // Generic error (use only o
 242:funsape/device/../globalDefines.hpp ****     // ARGUMENT_GENERIC_ERROR_12                           = 0x001C,   // Generic error (use only o
 243:funsape/device/../globalDefines.hpp ****     // ARGUMENT_GENERIC_ERROR_13                           = 0x001D,   // Generic error (use only o
 244:funsape/device/../globalDefines.hpp ****     // ARGUMENT_GENERIC_ERROR_14                           = 0x001E,   // Generic error (use only o
 245:funsape/device/../globalDefines.hpp ****     // ARGUMENT_GENERIC_ERROR                              = 0x001F,   // Generic error (use only o
 246:funsape/device/../globalDefines.hpp **** 
 247:funsape/device/../globalDefines.hpp ****     // Buffer related error codes
 248:funsape/device/../globalDefines.hpp ****     // BUFFER_EMPTY                                        = 0x0020,   // Buffer is empty
 249:funsape/device/../globalDefines.hpp ****     // BUFFER_FULL                                         = 0x0021,   // Buffer is full
 250:funsape/device/../globalDefines.hpp ****     // BUFFER_NOT_ENOUGH_ELEMENTS                          = 0x0022,   // Not enough space in buffe
 251:funsape/device/../globalDefines.hpp ****     // BUFFER_NOT_ENOUGH_SPACE                             = 0x0023,   // Not enough space in buffe
 252:funsape/device/../globalDefines.hpp ****     // BUFFER_POINTER_NULL                                 = 0x0024,   // Buffer size was set to ze
 253:funsape/device/../globalDefines.hpp ****     BUFFER_SIZE_TOO_LARGE                               = 0x0025,   // Buffer size was set to a lar
 254:funsape/device/../globalDefines.hpp ****     BUFFER_SIZE_TOO_SMALL                               = 0x0026,   // Buffer size was set to a ver
 255:funsape/device/../globalDefines.hpp ****     // BUFFER_SIZE_ZERO                                    = 0x0027,   // Buffer size was set to ze
 256:funsape/device/../globalDefines.hpp ****     // BUFFER_GENERIC_ERROR_8                              = 0x0028,   // Generic error (use only o
 257:funsape/device/../globalDefines.hpp ****     // BUFFER_GENERIC_ERROR_9                              = 0x0029,   // Generic error (use only o
 258:funsape/device/../globalDefines.hpp ****     // BUFFER_GENERIC_ERROR_10                             = 0x002A,   // Generic error (use only o
 259:funsape/device/../globalDefines.hpp ****     // BUFFER_GENERIC_ERROR_11                             = 0x002B,   // Generic error (use only o
 260:funsape/device/../globalDefines.hpp ****     // BUFFER_GENERIC_ERROR_12                             = 0x002C,   // Generic error (use only o
 261:funsape/device/../globalDefines.hpp ****     // BUFFER_GENERIC_ERROR_13                             = 0x002D,   // Generic error (use only o
 262:funsape/device/../globalDefines.hpp ****     // BUFFER_GENERIC_ERROR_14                             = 0x002E,   // Generic error (use only o
 263:funsape/device/../globalDefines.hpp ****     // BUFFER_GENERIC_ERROR_15                             = 0x002F,   // Generic error (use only o
 264:funsape/device/../globalDefines.hpp **** 
 265:funsape/device/../globalDefines.hpp ****     // Clock configuration related error codes
 266:funsape/device/../globalDefines.hpp ****     CLOCK_PRESCALER_CHANGE_FAILED                       = 0x0030,   // Clock prescaler change faile
 267:funsape/device/../globalDefines.hpp ****     CLOCK_PRESCALER_NOT_SUPPORTED                       = 0x0031,   // Clock prescaler configuratio
 268:funsape/device/../globalDefines.hpp ****     CLOCK_SPEED_TOO_HIGH                                = 0x0032,   // TODO: Describe parameter
 269:funsape/device/../globalDefines.hpp ****     CLOCK_SPEED_TOO_LOW                                 = 0x0033,   // TODO: Describe parameter
 270:funsape/device/../globalDefines.hpp ****     // CLOCK_GENERIC_ERROR_4                               = 0x0034,   // Generic error (use only o
GAS LISTING C:\Users\kenne\AppData\Local\Temp\cc0aKx3b.s 			page 6


 271:funsape/device/../globalDefines.hpp ****     // CLOCK_GENERIC_ERROR_5                               = 0x0035,   // Generic error (use only o
 272:funsape/device/../globalDefines.hpp ****     // CLOCK_GENERIC_ERROR_6                               = 0x0036,   // Generic error (use only o
 273:funsape/device/../globalDefines.hpp ****     // CLOCK_GENERIC_ERROR_7                               = 0x0037,   // Generic error (use only o
 274:funsape/device/../globalDefines.hpp ****     // CLOCK_GENERIC_ERROR_8                               = 0x0038,   // Generic error (use only o
 275:funsape/device/../globalDefines.hpp ****     // CLOCK_GENERIC_ERROR_9                               = 0x0039,   // Generic error (use only o
 276:funsape/device/../globalDefines.hpp ****     // CLOCK_GENERIC_ERROR_10                              = 0x003A,   // Generic error (use only o
 277:funsape/device/../globalDefines.hpp ****     // CLOCK_GENERIC_ERROR_11                              = 0x003B,   // Generic error (use only o
 278:funsape/device/../globalDefines.hpp ****     // CLOCK_GENERIC_ERROR_12                              = 0x003C,   // Generic error (use only o
 279:funsape/device/../globalDefines.hpp ****     // CLOCK_GENERIC_ERROR_13                              = 0x003D,   // Generic error (use only o
 280:funsape/device/../globalDefines.hpp ****     // CLOCK_GENERIC_ERROR_14                              = 0x003E,   // Generic error (use only o
 281:funsape/device/../globalDefines.hpp ****     // CLOCK_GENERIC_ERROR_15                              = 0x003F,   // Generic error (use only o
 282:funsape/device/../globalDefines.hpp **** 
 283:funsape/device/../globalDefines.hpp ****     // Communication related error codes
 284:funsape/device/../globalDefines.hpp ****     COMMUNICATION_FAILED                                = 0x0040,   // TODO: Describe parameter
 285:funsape/device/../globalDefines.hpp ****     COMMUNICATION_NO_DEVICE_SELECTED                    = 0x0041,   // TODO: Describe parameter
 286:funsape/device/../globalDefines.hpp ****     // COMMUNICATION_PORT_NOT_SET                          = 0x0042,   // TODO: Describe parameter
 287:funsape/device/../globalDefines.hpp ****     COMMUNICATION_TIMEOUT                               = 0x0043,   // The operation timed out
 288:funsape/device/../globalDefines.hpp ****     // COMMUNICATION_DEVICE_ID_MATCH_FAILED                = 0x0044,   // TODO: Describe parameter
 289:funsape/device/../globalDefines.hpp ****     // CHECKSUM_ERROR                                      = 0x0045,   // TODO: Describe parameter
 290:funsape/device/../globalDefines.hpp ****     // FRAME_ERROR                                         = 0x0046,   // TODO: Describe parameter
 291:funsape/device/../globalDefines.hpp ****     // PACKAGE_AWAITING                                    = 0x0047,   // Try to write data to a re
 292:funsape/device/../globalDefines.hpp ****     // PACKAGE_NOT_READY                                   = 0x0048,   // Try to read data from a n
 293:funsape/device/../globalDefines.hpp ****     // COMMUNICATION_GENERIC_ERROR_9                       = 0x0049,   // Generic error (use only o
 294:funsape/device/../globalDefines.hpp ****     // COMMUNICATION_GENERIC_ERROR_10                      = 0x004A,   // Generic error (use only o
 295:funsape/device/../globalDefines.hpp ****     // COMMUNICATION_GENERIC_ERROR_11                      = 0x004B,   // Generic error (use only o
 296:funsape/device/../globalDefines.hpp ****     // COMMUNICATION_GENERIC_ERROR_12                      = 0x004C,   // Generic error (use only o
 297:funsape/device/../globalDefines.hpp ****     // COMMUNICATION_GENERIC_ERROR_13                      = 0x004D,   // Generic error (use only o
 298:funsape/device/../globalDefines.hpp ****     // COMMUNICATION_GENERIC_ERROR_14                      = 0x004E,   // Generic error (use only o
 299:funsape/device/../globalDefines.hpp ****     // COMMUNICATION_GENERIC_ERROR_15                      = 0x004F,   // Generic error (use only o
 300:funsape/device/../globalDefines.hpp **** 
 301:funsape/device/../globalDefines.hpp ****     // DateTime class related error codes
 302:funsape/device/../globalDefines.hpp ****     DATE_NOT_INITIALIZED                                = 0x0050,   // TODO: Describe parameter
 303:funsape/device/../globalDefines.hpp ****     // HOUR_INVALID                                        = 0x0051,   // TODO: Describe parameter
 304:funsape/device/../globalDefines.hpp ****     // MILLISECOND_INVALID                                 = 0x0052,   // TODO: Describe parameter
 305:funsape/device/../globalDefines.hpp ****     // MINUTE_INVALID                                      = 0x0053,   // TODO: Describe parameter
 306:funsape/device/../globalDefines.hpp ****     // MONTH_DAY_INVALID                                   = 0x0054,   // TODO: Describe parameter
 307:funsape/device/../globalDefines.hpp ****     // MONTH_INVALID                                       = 0x0055,   // TODO: Describe parameter
 308:funsape/device/../globalDefines.hpp ****     // SECOND_INVALID                                      = 0x0056,   // TODO: Describe parameter
 309:funsape/device/../globalDefines.hpp ****     TIME_NOT_INITIALIZED                                = 0x0057,   // TODO: Describe parameter
 310:funsape/device/../globalDefines.hpp ****     // TIMEZONE_INVALID                                    = 0x0058,   // TODO: Describe parameter
 311:funsape/device/../globalDefines.hpp ****     // YEAR_INVALID                                        = 0x0059,   // TODO: Describe parameter
 312:funsape/device/../globalDefines.hpp ****     DATE_INVALID                                        = 0x005A,   // TODO: Describe parameter
 313:funsape/device/../globalDefines.hpp ****     TIME_INVALID                                        = 0x005B,   // TODO: Describe parameter
 314:funsape/device/../globalDefines.hpp ****     // GENERIC_ERROR_13                                    = 0x005C,   // Generic error (use only o
 315:funsape/device/../globalDefines.hpp ****     // GENERIC_ERROR_14                                    = 0x005D,   // Generic error (use only o
 316:funsape/device/../globalDefines.hpp ****     // GENERIC_ERROR_15                                    = 0x005F,   // Generic error (use only o
 317:funsape/device/../globalDefines.hpp **** 
 318:funsape/device/../globalDefines.hpp ****     // Handler related error codes
 319:funsape/device/../globalDefines.hpp ****     BUS_HANDLER_NOT_SUPPORTED                           = 0x0060,   // TODO: Describe parameter
 320:funsape/device/../globalDefines.hpp ****     BUS_HANDLER_POINTER_NULL                            = 0x0061,   // TODO: Describe parameter
 321:funsape/device/../globalDefines.hpp ****     // HANDLER_GENERIC_ERROR_2                             = 0x0062,   // Generic error (use only o
 322:funsape/device/../globalDefines.hpp ****     // HANDLER_GENERIC_ERROR_3                             = 0x0063,   // Generic error (use only o
 323:funsape/device/../globalDefines.hpp ****     // HANDLER_GENERIC_ERROR_4                             = 0x0064,   // Generic error (use only o
 324:funsape/device/../globalDefines.hpp ****     // HANDLER_GENERIC_ERROR_5                             = 0x0065,   // Generic error (use only o
 325:funsape/device/../globalDefines.hpp ****     // HANDLER_GENERIC_ERROR_6                             = 0x0066,   // Generic error (use only o
 326:funsape/device/../globalDefines.hpp ****     // HANDLER_GENERIC_ERROR_7                             = 0x0067,   // Generic error (use only o
 327:funsape/device/../globalDefines.hpp ****     // HANDLER_GENERIC_ERROR_8                             = 0x0068,   // Generic error (use only o
GAS LISTING C:\Users\kenne\AppData\Local\Temp\cc0aKx3b.s 			page 7


 328:funsape/device/../globalDefines.hpp ****     // HANDLER_GENERIC_ERROR_9                             = 0x0069,   // Generic error (use only o
 329:funsape/device/../globalDefines.hpp ****     // HANDLER_GENERIC_ERROR_10                            = 0x006A,   // Generic error (use only o
 330:funsape/device/../globalDefines.hpp ****     // HANDLER_GENERIC_ERROR_11                            = 0x006B,   // Generic error (use only o
 331:funsape/device/../globalDefines.hpp ****     // HANDLER_GENERIC_ERROR_12                            = 0x006C,   // Generic error (use only o
 332:funsape/device/../globalDefines.hpp ****     // HANDLER_GENERIC_ERROR_13                            = 0x006D,   // Generic error (use only o
 333:funsape/device/../globalDefines.hpp ****     // HANDLER_GENERIC_ERROR_14                            = 0x006E,   // Generic error (use only o
 334:funsape/device/../globalDefines.hpp ****     // HANDLER_GENERIC_ERROR_15                            = 0x006F,   // Generic error (use only o
 335:funsape/device/../globalDefines.hpp **** 
 336:funsape/device/../globalDefines.hpp ****     // External interrupts related error codes
 337:funsape/device/../globalDefines.hpp ****     // INTERRUPT_NOT_AVAILABLE                             = 0x0070,   // TODO: Describe parameter
 338:funsape/device/../globalDefines.hpp ****     // INTERRUPT_PORT_OUTPUT_MODE_NOT_SUPPORTED            = 0x0071,   // TODO: Describe parameter
 339:funsape/device/../globalDefines.hpp ****     // INTERRUPT_SENSE_MODE_NOT_SUPPORTED                  = 0x0072,   // TODO: Describe parameter
 340:funsape/device/../globalDefines.hpp ****     // INTERRUPT_GENERIC_ERROR_3                           = 0x0073,   // Generic error (use only o
 341:funsape/device/../globalDefines.hpp ****     // INTERRUPT_GENERIC_ERROR_4                           = 0x0074,   // Generic error (use only o
 342:funsape/device/../globalDefines.hpp ****     // INTERRUPT_GENERIC_ERROR_5                           = 0x0075,   // Generic error (use only o
 343:funsape/device/../globalDefines.hpp ****     // INTERRUPT_GENERIC_ERROR_6                           = 0x0076,   // Generic error (use only o
 344:funsape/device/../globalDefines.hpp ****     // INTERRUPT_GENERIC_ERROR_7                           = 0x0077,   // Generic error (use only o
 345:funsape/device/../globalDefines.hpp ****     // INTERRUPT_GENERIC_ERROR_8                           = 0x0078,   // Generic error (use only o
 346:funsape/device/../globalDefines.hpp ****     // INTERRUPT_GENERIC_ERROR_9                           = 0x0079,   // Generic error (use only o
 347:funsape/device/../globalDefines.hpp ****     // INTERRUPT_GENERIC_ERROR_10                          = 0x007A,   // Generic error (use only o
 348:funsape/device/../globalDefines.hpp ****     // INTERRUPT_GENERIC_ERROR_11                          = 0x007B,   // Generic error (use only o
 349:funsape/device/../globalDefines.hpp ****     // INTERRUPT_GENERIC_ERROR_12                          = 0x007C,   // Generic error (use only o
 350:funsape/device/../globalDefines.hpp ****     // INTERRUPT_GENERIC_ERROR_13                          = 0x007D,   // Generic error (use only o
 351:funsape/device/../globalDefines.hpp ****     // INTERRUPT_GENERIC_ERROR_14                          = 0x007E,   // Generic error (use only o
 352:funsape/device/../globalDefines.hpp ****     // INTERRUPT_GENERIC_ERROR_15                          = 0x007F,   // Generic error (use only o
 353:funsape/device/../globalDefines.hpp **** 
 354:funsape/device/../globalDefines.hpp **** 
 355:funsape/device/../globalDefines.hpp ****     // Package API class related error codes
 356:funsape/device/../globalDefines.hpp ****     // PACKAGE_API_PACKAGE_DATA_FULL                       = 0x0080,   // TODO: Describe parameter
 357:funsape/device/../globalDefines.hpp ****     // PACKAGE_API_PACKAGE_NOT_READY                       = 0x0081,   // TODO: Describe parameter
 358:funsape/device/../globalDefines.hpp ****     // PACKAGE_API_PAYLOAD_DATA_NULL                       = 0x0082,   // TODO: Describe parameter
 359:funsape/device/../globalDefines.hpp ****     // PACKAGE_API_PAYLOAD_SIZE_NULL                       = 0x0083,   // TODO: Describe parameter
 360:funsape/device/../globalDefines.hpp ****     // PACKAGE_API_SOURCE_ADDRESS_INVALID                  = 0x0084,   // TODO: Describe parameter
 361:funsape/device/../globalDefines.hpp ****     // PACKAGE_API_GENERIC_ERROR_5                         = 0x0085,   // Generic error (use only o
 362:funsape/device/../globalDefines.hpp ****     // PACKAGE_API_GENERIC_ERROR_6                         = 0x0086,   // Generic error (use only o
 363:funsape/device/../globalDefines.hpp ****     // PACKAGE_API_GENERIC_ERROR_7                         = 0x0087,   // Generic error (use only o
 364:funsape/device/../globalDefines.hpp ****     // PACKAGE_API_GENERIC_ERROR_8                         = 0x0088,   // Generic error (use only o
 365:funsape/device/../globalDefines.hpp ****     // PACKAGE_API_GENERIC_ERROR_9                         = 0x0089,   // Generic error (use only o
 366:funsape/device/../globalDefines.hpp ****     // PACKAGE_API_GENERIC_ERROR_10                        = 0x008A,   // Generic error (use only o
 367:funsape/device/../globalDefines.hpp ****     // PACKAGE_API_GENERIC_ERROR_11                        = 0x008B,   // Generic error (use only o
 368:funsape/device/../globalDefines.hpp ****     // PACKAGE_API_GENERIC_ERROR_12                        = 0x008C,   // Generic error (use only o
 369:funsape/device/../globalDefines.hpp ****     // PACKAGE_API_GENERIC_ERROR_13                        = 0x008D,   // Generic error (use only o
 370:funsape/device/../globalDefines.hpp ****     // PACKAGE_API_GENERIC_ERROR_14                        = 0x008E,   // Generic error (use only o
 371:funsape/device/../globalDefines.hpp ****     // PACKAGE_API_GENERIC_ERROR_15                        = 0x008F,   // Generic error (use only o
 372:funsape/device/../globalDefines.hpp **** 
 373:funsape/device/../globalDefines.hpp ****     // SPI related error codes
 374:funsape/device/../globalDefines.hpp ****     // SPI_BUSY_FLAG                                       = 0x0090,   // TODO: Describe parameter
 375:funsape/device/../globalDefines.hpp ****     // SPI_CRC                                             = 0x0091,   // TODO: Describe parameter
 376:funsape/device/../globalDefines.hpp ****     // SPI_DMA                                             = 0x0092,   // TODO: Describe parameter
 377:funsape/device/../globalDefines.hpp ****     // SPI_MODE_FAULT                                      = 0x0093,   // TODO: Describe parameter
 378:funsape/device/../globalDefines.hpp ****     // SPI_OVERRUN                                         = 0x0094,   // TODO: Describe parameter
 379:funsape/device/../globalDefines.hpp ****     // SPI_GENERIC_ERROR_5                                 = 0x0095,   // Generic error (use only o
 380:funsape/device/../globalDefines.hpp ****     // SPI_GENERIC_ERROR_6                                 = 0x0096,   // Generic error (use only o
 381:funsape/device/../globalDefines.hpp ****     // SPI_GENERIC_ERROR_7                                 = 0x0097,   // Generic error (use only o
 382:funsape/device/../globalDefines.hpp ****     // SPI_GENERIC_ERROR_8                                 = 0x0098,   // Generic error (use only o
 383:funsape/device/../globalDefines.hpp ****     // SPI_GENERIC_ERROR_9                                 = 0x0099,   // Generic error (use only o
 384:funsape/device/../globalDefines.hpp ****     // SPI_GENERIC_ERROR_10                                = 0x009A,   // Generic error (use only o
GAS LISTING C:\Users\kenne\AppData\Local\Temp\cc0aKx3b.s 			page 8


 385:funsape/device/../globalDefines.hpp ****     // SPI_GENERIC_ERROR_11                                = 0x009B,   // Generic error (use only o
 386:funsape/device/../globalDefines.hpp ****     // SPI_GENERIC_ERROR_12                                = 0x009C,   // Generic error (use only o
 387:funsape/device/../globalDefines.hpp ****     // SPI_GENERIC_ERROR_13                                = 0x009D,   // Generic error (use only o
 388:funsape/device/../globalDefines.hpp ****     // SPI_GENERIC_ERROR_14                                = 0x009E,   // Generic error (use only o
 389:funsape/device/../globalDefines.hpp ****     // SPI_GENERIC_ERROR_15                                = 0x009F,   // Generic error (use only o
 390:funsape/device/../globalDefines.hpp **** 
 391:funsape/device/../globalDefines.hpp ****     // TWI related error codes
 392:funsape/device/../globalDefines.hpp ****     // TWI_AF_FLAG                                         = 0x00A0,   // TWI AF flag error
 393:funsape/device/../globalDefines.hpp ****     // TWI_ARBITRATION_LOST                                = 0x00A1,   // TWI bus arbitration lost
 394:funsape/device/../globalDefines.hpp ****     // TWI_BUS_ERROR                                       = 0x00A2,   // TWI bus error
 395:funsape/device/../globalDefines.hpp ****     // TWI_DMA                                             = 0x00A3,   // DMA parameter error
 396:funsape/device/../globalDefines.hpp ****     // TWI_DMA_PARAM                                       = 0x00A4,   // DMA transfer error
 397:funsape/device/../globalDefines.hpp ****     // TWI_OVERRUN                                         = 0x00A5,   // TWI overrun
 398:funsape/device/../globalDefines.hpp ****     // TWI_SIZE_MANAGEMENT_ERROR                           = 0x00A6,   // Size management error
 399:funsape/device/../globalDefines.hpp ****     // TWI_INVALID_DEVICE_ADDRESS                          = 0x00A7,   // TODO: Describe parameter
 400:funsape/device/../globalDefines.hpp ****     // TWI_GENERIC_ERROR_8                                 = 0x00A8,   // Generic error (use only o
 401:funsape/device/../globalDefines.hpp ****     // TWI_GENERIC_ERROR_9                                 = 0x00A9,   // Generic error (use only o
 402:funsape/device/../globalDefines.hpp ****     // TWI_GENERIC_ERROR_10                                = 0x00AA,   // Generic error (use only o
 403:funsape/device/../globalDefines.hpp ****     // TWI_GENERIC_ERROR_11                                = 0x00AB,   // Generic error (use only o
 404:funsape/device/../globalDefines.hpp ****     // TWI_GENERIC_ERROR_12                                = 0x00AC,   // Generic error (use only o
 405:funsape/device/../globalDefines.hpp ****     // TWI_GENERIC_ERROR_13                                = 0x00AD,   // Generic error (use only o
 406:funsape/device/../globalDefines.hpp ****     // TWI_GENERIC_ERROR_14                                = 0x00AE,   // Generic error (use only o
 407:funsape/device/../globalDefines.hpp ****     // TWI_GENERIC_ERROR_15                                = 0x00AF,   // Generic error (use only o
 408:funsape/device/../globalDefines.hpp **** 
 409:funsape/device/../globalDefines.hpp ****     // USART related error codes
 410:funsape/device/../globalDefines.hpp ****     // USART_BAUD_RATE_NOT_SUPPORTED                       = 0x00B0,   // TODO: Describe parameter
 411:funsape/device/../globalDefines.hpp ****     // USART_CONFIGURATION_PARAMETER_WRONG                 = 0x00B1,   // TODO: Describe parameter
 412:funsape/device/../globalDefines.hpp ****     // USART_DATA_BITS_NOT_SUPPORTED                       = 0x00B2,   // TODO: Describe parameter
 413:funsape/device/../globalDefines.hpp ****     // USART_FRAME_FORMAT_NOT_SUPPORTED                    = 0x00B3,   // TODO: Describe parameter
 414:funsape/device/../globalDefines.hpp ****     // USART_PARITY_NOT_SUPPORTED                          = 0x00B4,   // TODO: Describe parameter
 415:funsape/device/../globalDefines.hpp ****     // USART_STOP_BIT_NOT_SUPPORTED                        = 0x00B5,   // TODO: Describe parameter
 416:funsape/device/../globalDefines.hpp ****     // USART_GENERIC_ERROR_6                               = 0x00B6,   // Generic error (use only o
 417:funsape/device/../globalDefines.hpp ****     // USART_GENERIC_ERROR_7                               = 0x00B7,   // Generic error (use only o
 418:funsape/device/../globalDefines.hpp ****     // USART_GENERIC_ERROR_8                               = 0x00B8,   // Generic error (use only o
 419:funsape/device/../globalDefines.hpp ****     // USART_GENERIC_ERROR_9                               = 0x00B9,   // Generic error (use only o
 420:funsape/device/../globalDefines.hpp ****     // USART_GENERIC_ERROR_10                              = 0x00BA,   // Generic error (use only o
 421:funsape/device/../globalDefines.hpp ****     // USART_GENERIC_ERROR_11                              = 0x00BB,   // Generic error (use only o
 422:funsape/device/../globalDefines.hpp ****     // USART_GENERIC_ERROR_12                              = 0x00BC,   // Generic error (use only o
 423:funsape/device/../globalDefines.hpp ****     // USART_GENERIC_ERROR_13                              = 0x00BD,   // Generic error (use only o
 424:funsape/device/../globalDefines.hpp ****     // USART_GENERIC_ERROR_14                              = 0x00BE,   // Generic error (use only o
 425:funsape/device/../globalDefines.hpp ****     // USART_GENERIC_ERROR_15                              = 0x00BF,   // Generic error (use only o
 426:funsape/device/../globalDefines.hpp **** 
 427:funsape/device/../globalDefines.hpp ****     // LCD related error codes
 428:funsape/device/../globalDefines.hpp ****     // LCD_CONTROL_PORT_NOT_SET                            = 0x00C0,   // TODO: Describe parameter
 429:funsape/device/../globalDefines.hpp ****     // LCD_CONTROL_PIN_E_INVALID                           = 0x00C1,   // TODO: Describe parameter
 430:funsape/device/../globalDefines.hpp ****     // LCD_CONTROL_PIN_RS_INVALID                          = 0x00C2,   // TODO: Describe parameter
 431:funsape/device/../globalDefines.hpp ****     // LCD_CONTROL_PIN_RW_INVALID                          = 0x00C3,   // TODO: Describe parameter
 432:funsape/device/../globalDefines.hpp ****     // LCD_DATA_PORT_NOT_SET                               = 0x00C4,   // TODO: Describe parameter
 433:funsape/device/../globalDefines.hpp ****     // LCD_DATA_PIN_INDEX_OUT_OF_BOUNDARIES                = 0x00C5,   // TODO: Describe parameter
 434:funsape/device/../globalDefines.hpp ****     // LCD_GENERIC_ERROR_6                                 = 0x00C6,   // Generic error (use only o
 435:funsape/device/../globalDefines.hpp ****     // LCD_GENERIC_ERROR_7                                 = 0x00C7,   // Generic error (use only o
 436:funsape/device/../globalDefines.hpp ****     // LCD_GENERIC_ERROR_8                                 = 0x00C8,   // Generic error (use only o
 437:funsape/device/../globalDefines.hpp ****     // LCD_GENERIC_ERROR_9                                 = 0x00C9,   // Generic error (use only o
 438:funsape/device/../globalDefines.hpp ****     // LCD_GENERIC_ERROR_10                                = 0x00CA,   // Generic error (use only o
 439:funsape/device/../globalDefines.hpp ****     // LCD_GENERIC_ERROR_11                                = 0x00CB,   // Generic error (use only o
 440:funsape/device/../globalDefines.hpp ****     // LCD_GENERIC_ERROR_12                                = 0x00CC,   // Generic error (use only o
 441:funsape/device/../globalDefines.hpp ****     // LCD_GENERIC_ERROR_13                                = 0x00CD,   // Generic error (use only o
GAS LISTING C:\Users\kenne\AppData\Local\Temp\cc0aKx3b.s 			page 9


 442:funsape/device/../globalDefines.hpp ****     // LCD_GENERIC_ERROR_14                                = 0x00CE,   // Generic error (use only o
 443:funsape/device/../globalDefines.hpp ****     // LCD_GENERIC_ERROR_15                                = 0x00CF,   // Generic error (use only o
 444:funsape/device/../globalDefines.hpp **** 
 445:funsape/device/../globalDefines.hpp ****     // GPIO related error codes
 446:funsape/device/../globalDefines.hpp ****     GPIO_PORT_NOT_SET                                   = 0x00D0,   // Gpio port was not set before
 447:funsape/device/../globalDefines.hpp ****     GPIO_DATA_PORT_NOT_SET                              = 0x00D1,   // Gpio data port was not set b
 448:funsape/device/../globalDefines.hpp ****     GPIO_CONTROL_PORT_NOT_SET                           = 0x00D2,   // Gpio control port was not se
 449:funsape/device/../globalDefines.hpp ****     GPIO_PORT_INVALID                                   = 0x00D3,   // Gpio port address is invalid
 450:funsape/device/../globalDefines.hpp ****     GPIO_DATA_PORT_INVALID                              = 0x00D4,   // Gpio data port address is in
 451:funsape/device/../globalDefines.hpp ****     GPIO_CONTROL_PORT_INVALID                           = 0x00D5,   // Gpio control port address is
 452:funsape/device/../globalDefines.hpp ****     GPIO_PIN_INDEX_INVALID                              = 0x00D6,   // Invalid GPIO Pin
 453:funsape/device/../globalDefines.hpp ****     GPIO_PIN_INDEX_OUT_OF_BOUNDARIES                    = 0x00D7,   // Gpio pin index was out of bo
 454:funsape/device/../globalDefines.hpp ****     // GPIO_NO_PIN_SET                                     = 0x00D8,   // No pin selected at Gpio p
 455:funsape/device/../globalDefines.hpp ****     // GPIO_ADDRESS_INVALID                                = 0x00D9,   // Invalid GPIO Port
 456:funsape/device/../globalDefines.hpp ****     // GPIO_PORT_LOGIC_CONTENTION                          = 0x00DA,   // TODO: Describe parameter
 457:funsape/device/../globalDefines.hpp ****     // GPIO_GENERIC_ERROR_11                               = 0x00DB,   // Generic error (use only o
 458:funsape/device/../globalDefines.hpp ****     // GPIO_GENERIC_ERROR_12                               = 0x00DC,   // Generic error (use only o
 459:funsape/device/../globalDefines.hpp ****     // GPIO_GENERIC_ERROR_13                               = 0x00DD,   // Generic error (use only o
 460:funsape/device/../globalDefines.hpp ****     // GPIO_GENERIC_ERROR_14                               = 0x00DE,   // Generic error (use only o
 461:funsape/device/../globalDefines.hpp ****     // GPIO_GENERIC_ERROR_15                               = 0x00DF,   // Generic error (use only o
 462:funsape/device/../globalDefines.hpp **** 
 463:funsape/device/../globalDefines.hpp ****     // HAL related error codes
 464:funsape/device/../globalDefines.hpp ****     // HAL_UNKNOWN_ERROR                                   = 0x00E0,   // TODO: Describe parameter
 465:funsape/device/../globalDefines.hpp ****     // HAL_STATUS_ERROR                                    = 0x00E1,   // TODO: Describe parameter
 466:funsape/device/../globalDefines.hpp ****     // HAL_STATUS_BUSY                                     = 0x00E2,   // TODO: Describe parameter
 467:funsape/device/../globalDefines.hpp ****     // HAL_STATUS_TIMEOUT                                  = 0x00E3,   // TODO: Describe parameter
 468:funsape/device/../globalDefines.hpp ****     // HAL_GENERIC_ERROR_4                                 = 0x00E4,   // Generic error (use only o
 469:funsape/device/../globalDefines.hpp ****     // HAL_GENERIC_ERROR_5                                 = 0x00E5,   // Generic error (use only o
 470:funsape/device/../globalDefines.hpp ****     // HAL_GENERIC_ERROR_6                                 = 0x00E6,   // Generic error (use only o
 471:funsape/device/../globalDefines.hpp ****     // HAL_GENERIC_ERROR_7                                 = 0x00E7,   // Generic error (use only o
 472:funsape/device/../globalDefines.hpp ****     // HAL_GENERIC_ERROR_8                                 = 0x00E8,   // Generic error (use only o
 473:funsape/device/../globalDefines.hpp ****     // HAL_GENERIC_ERROR_9                                 = 0x00E9,   // Generic error (use only o
 474:funsape/device/../globalDefines.hpp ****     // HAL_GENERIC_ERROR_10                                = 0x00EA,   // Generic error (use only o
 475:funsape/device/../globalDefines.hpp ****     // HAL_GENERIC_ERROR_11                                = 0x00EB,   // Generic error (use only o
 476:funsape/device/../globalDefines.hpp ****     // HAL_GENERIC_ERROR_12                                = 0x00EC,   // Generic error (use only o
 477:funsape/device/../globalDefines.hpp ****     // HAL_GENERIC_ERROR_13                                = 0x00ED,   // Generic error (use only o
 478:funsape/device/../globalDefines.hpp ****     // HAL_GENERIC_ERROR_14                                = 0x00EE,   // Generic error (use only o
 479:funsape/device/../globalDefines.hpp ****     // HAL_GENERIC_ERROR_15                                = 0x00EF,   // Generic error (use only o
 480:funsape/device/../globalDefines.hpp **** 
 481:funsape/device/../globalDefines.hpp ****     // System related error codes
 482:funsape/device/../globalDefines.hpp ****     // SYSTEM_US_TIMER_HANDLER_NULL                        = 0x00F0,   // TODO: Describe parameter
 483:funsape/device/../globalDefines.hpp ****     // SYSTEM_GENERIC_ERROR_1                              = 0x00F1,   // Generic error (use only o
 484:funsape/device/../globalDefines.hpp ****     // SYSTEM_GENERIC_ERROR_2                              = 0x00F2,   // Generic error (use only o
 485:funsape/device/../globalDefines.hpp ****     // SYSTEM_GENERIC_ERROR_3                              = 0x00F3,   // Generic error (use only o
 486:funsape/device/../globalDefines.hpp ****     // SYSTEM_GENERIC_ERROR_4                              = 0x00F4,   // Generic error (use only o
 487:funsape/device/../globalDefines.hpp ****     // SYSTEM_GENERIC_ERROR_5                              = 0x00F5,   // Generic error (use only o
 488:funsape/device/../globalDefines.hpp ****     // SYSTEM_GENERIC_ERROR_6                              = 0x00F6,   // Generic error (use only o
 489:funsape/device/../globalDefines.hpp ****     // SYSTEM_GENERIC_ERROR_7                              = 0x00F7,   // Generic error (use only o
 490:funsape/device/../globalDefines.hpp ****     // SYSTEM_GENERIC_ERROR_8                              = 0x00F8,   // Generic error (use only o
 491:funsape/device/../globalDefines.hpp ****     // SYSTEM_GENERIC_ERROR_9                              = 0x00F9,   // Generic error (use only o
 492:funsape/device/../globalDefines.hpp ****     // SYSTEM_GENERIC_ERROR_10                             = 0x00FA,   // Generic error (use only o
 493:funsape/device/../globalDefines.hpp ****     // SYSTEM_GENERIC_ERROR_11                             = 0x00FB,   // Generic error (use only o
 494:funsape/device/../globalDefines.hpp ****     // SYSTEM_GENERIC_ERROR_12                             = 0x00FC,   // Generic error (use only o
 495:funsape/device/../globalDefines.hpp ****     // SYSTEM_GENERIC_ERROR_13                             = 0x00FD,   // Generic error (use only o
 496:funsape/device/../globalDefines.hpp ****     // SYSTEM_GENERIC_ERROR_14                             = 0x00FE,   // Generic error (use only o
 497:funsape/device/../globalDefines.hpp ****     // SYSTEM_GENERIC_ERROR_15                             = 0x00FF,   // Generic error (use only o
 498:funsape/device/../globalDefines.hpp **** 
GAS LISTING C:\Users\kenne\AppData\Local\Temp\cc0aKx3b.s 			page 10


 499:funsape/device/../globalDefines.hpp ****     // FatFs related error codes
 500:funsape/device/../globalDefines.hpp ****     // FAT_FS_UNKNOWN_ERROR                                = 0x0100,   // TODO: Describe parameter
 501:funsape/device/../globalDefines.hpp ****     // FAT_FS_DRIVE_UNSUPPORTED                            = 0x0101,   // TODO: Describe parameter
 502:funsape/device/../globalDefines.hpp ****     // FAT_FS_DISK_NOT_INSERTED                            = 0x0102,   // TODO: Describe parameter
 503:funsape/device/../globalDefines.hpp ****     // FAT_FS_INITIALIZATION_FAILED                        = 0x0103,   // TODO: Describe parameter
 504:funsape/device/../globalDefines.hpp ****     // FAT_FS_GENERIC_ERROR_4                              = 0x0104,   // Generic error (use only o
 505:funsape/device/../globalDefines.hpp ****     // FAT_FS_GENERIC_ERROR_5                              = 0x0105,   // Generic error (use only o
 506:funsape/device/../globalDefines.hpp ****     // FAT_FS_GENERIC_ERROR_6                              = 0x0106,   // Generic error (use only o
 507:funsape/device/../globalDefines.hpp ****     // FAT_FS_GENERIC_ERROR_7                              = 0x0107,   // Generic error (use only o
 508:funsape/device/../globalDefines.hpp ****     // FAT_FS_GENERIC_ERROR_8                              = 0x0108,   // Generic error (use only o
 509:funsape/device/../globalDefines.hpp ****     // FAT_FS_GENERIC_ERROR_9                              = 0x0109,   // Generic error (use only o
 510:funsape/device/../globalDefines.hpp ****     // FAT_FS_GENERIC_ERROR_10                             = 0x010A,   // Generic error (use only o
 511:funsape/device/../globalDefines.hpp ****     // FAT_FS_GENERIC_ERROR_11                             = 0x010B,   // Generic error (use only o
 512:funsape/device/../globalDefines.hpp ****     // FAT_FS_GENERIC_ERROR_12                             = 0x010C,   // Generic error (use only o
 513:funsape/device/../globalDefines.hpp ****     // FAT_FS_GENERIC_ERROR_13                             = 0x010D,   // Generic error (use only o
 514:funsape/device/../globalDefines.hpp ****     // FAT_FS_GENERIC_ERROR_14                             = 0x010E,   // Generic error (use only o
 515:funsape/device/../globalDefines.hpp ****     // FAT_FS_GENERIC_ERROR_15                             = 0x010F,   // Generic error (use only o
 516:funsape/device/../globalDefines.hpp **** 
 517:funsape/device/../globalDefines.hpp ****     // Uncategorized error codes
 518:funsape/device/../globalDefines.hpp ****     // LCD_OUT_OF_BOUNDARIES                               = 0xFFF1,   // TODO: Describe parameter
 519:funsape/device/../globalDefines.hpp ****     // CONTROLLER_NOT_SUPPORTED                            = 0xFFF2,   // Unsupported controller
 520:funsape/device/../globalDefines.hpp ****     // DEVICE_ID_MATCH_FAILED                              = 0xFFF3,   // Device ID doesn't match
 521:funsape/device/../globalDefines.hpp ****     // DMA_NOT_SUPPORTED                                   = 0xFFF4,   // DMA interface mode is not
 522:funsape/device/../globalDefines.hpp ****     // DMA_TRANSFER_ERROR                                  = 0xFFF5,   // DMA transfer error
 523:funsape/device/../globalDefines.hpp ****     // MESSAGE_TOO_LONG                                    = 0xFFF6,   // Message is to long to be 
 524:funsape/device/../globalDefines.hpp ****     // VALID_DATA_NOT_AVAILABLE                            = 0xFFF7,   // Valid data was unavailabl
 525:funsape/device/../globalDefines.hpp ****     // PERIPHERAL_NOT_READY                                = 0xFFF8,   // TODO: Describe parameter
 526:funsape/device/../globalDefines.hpp ****     // STOPWATCH_NOT_STARTED                               = 0xFFF9,   // TODO: Describe parameter
 527:funsape/device/../globalDefines.hpp ****     // UNCATEGORIZED_GENERIC_ERROR_10                      = 0xFFFA,   // Generic error (use only o
 528:funsape/device/../globalDefines.hpp ****     // UNCATEGORIZED_GENERIC_ERROR_11                      = 0xFFFB,   // Generic error (use only o
 529:funsape/device/../globalDefines.hpp ****     // UNCATEGORIZED_GENERIC_ERROR_12                      = 0xFFFC,   // Generic error (use only o
 530:funsape/device/../globalDefines.hpp ****     // UNCATEGORIZED_GENERIC_ERROR_13                      = 0xFFFD,   // Generic error (use only o
 531:funsape/device/../globalDefines.hpp ****     // UNCATEGORIZED_GENERIC_ERROR_14                      = 0xFFFE,   // Generic error (use only o
 532:funsape/device/../globalDefines.hpp **** 
 533:funsape/device/../globalDefines.hpp ****     KEYPAD_COLUMNS_PIN_INDEX_INVALID                    = 0xFFF9,
 534:funsape/device/../globalDefines.hpp ****     KEYPAD_LINES_PIN_INDEX_INVALID                      = 0xFFFA,
 535:funsape/device/../globalDefines.hpp **** 
 536:funsape/device/../globalDefines.hpp ****     KEYPAD_LINES_GPIO_PORT_INVALID                      = 0xFFFB,
 537:funsape/device/../globalDefines.hpp ****     KEYPAD_COLUMNS_GPIO_PORT_INVALID                    = 0xFFFC,
 538:funsape/device/../globalDefines.hpp ****     KEYPAD_TYPE_UNSUPPORTED                             = 0xFFFD,
 539:funsape/device/../globalDefines.hpp ****     KEY_VALUES_NOT_SET                                  = 0xFFFE,
 540:funsape/device/../globalDefines.hpp ****     // "I don't have the slightest idea" error code
 541:funsape/device/../globalDefines.hpp ****     UNKNOWN                                             = 0xFFFF,   // Unknown error - Ops!!!!
 542:funsape/device/../globalDefines.hpp **** };
 543:funsape/device/../globalDefines.hpp **** 
 544:funsape/device/../globalDefines.hpp **** // =============================================================================
 545:funsape/device/../globalDefines.hpp **** // Macrofunctions
 546:funsape/device/../globalDefines.hpp **** // =============================================================================
 547:funsape/device/../globalDefines.hpp **** 
 548:funsape/device/../globalDefines.hpp **** //     //////////////////////     DATA VALIDITY    //////////////////////     //
 549:funsape/device/../globalDefines.hpp **** #define isGpioAddressValid(gpioPort)    (       \
 550:funsape/device/../globalDefines.hpp ****         (IS_GPIO_ALL_INSTANCE(gpioPort))        \
 551:funsape/device/../globalDefines.hpp ****         ? (bool_t)true                          \
 552:funsape/device/../globalDefines.hpp ****         : (bool_t)false)
 553:funsape/device/../globalDefines.hpp **** #define isGpioPinIndexValid(gpioPin)    (       \
 554:funsape/device/../globalDefines.hpp ****         (IS_GPIO_ALL_PIN_NUMBER(gpioPin))       \
 555:funsape/device/../globalDefines.hpp ****         ? (bool_t)true                          \
GAS LISTING C:\Users\kenne\AppData\Local\Temp\cc0aKx3b.s 			page 11


 556:funsape/device/../globalDefines.hpp ****         : (bool_t)false)
 557:funsape/device/../globalDefines.hpp **** #define isPointerValid(ptr)             (       \
 558:funsape/device/../globalDefines.hpp ****         ((void *)(ptr))                         \
 559:funsape/device/../globalDefines.hpp ****         ? (bool_t)true                          \
 560:funsape/device/../globalDefines.hpp ****         : (bool_t)false)
 561:funsape/device/../globalDefines.hpp **** 
 562:funsape/device/../globalDefines.hpp **** //     //////////////////////     BIT HANDLING     //////////////////////     //
 563:funsape/device/../globalDefines.hpp **** #ifndef setBit
 564:funsape/device/../globalDefines.hpp **** #   define setBit(reg, bit)                     ((reg) |= (1 << (bit)))
 565:funsape/device/../globalDefines.hpp **** #endif
 566:funsape/device/../globalDefines.hpp **** #ifndef clrBit
 567:funsape/device/../globalDefines.hpp **** #   define clrBit(reg, bit)                     ((reg) &= ~(1 << (bit)))
 568:funsape/device/../globalDefines.hpp **** #endif
 569:funsape/device/../globalDefines.hpp **** #ifndef cplBit
 570:funsape/device/../globalDefines.hpp **** #   define cplBit(reg, bit)                     ((reg) ^= (1 << (bit)))
 571:funsape/device/../globalDefines.hpp **** #endif
 572:funsape/device/../globalDefines.hpp **** 
 573:funsape/device/../globalDefines.hpp **** //     ///////////////////////     BIT TESTING    ///////////////////////     //
 574:funsape/device/../globalDefines.hpp **** #ifndef isBitSet
 575:funsape/device/../globalDefines.hpp **** #   define isBitSet(reg, bit)                   (((reg) >> (bit)) & 1)
 576:funsape/device/../globalDefines.hpp **** #endif
 577:funsape/device/../globalDefines.hpp **** #ifndef isBitClr
 578:funsape/device/../globalDefines.hpp **** #   define isBitClr(reg, bit)                   (!isBitSet(reg,bit))
 579:funsape/device/../globalDefines.hpp **** #endif
 580:funsape/device/../globalDefines.hpp **** 
 581:funsape/device/../globalDefines.hpp **** //     ///////////////////////     BIT LOOPING    ///////////////////////     //
 582:funsape/device/../globalDefines.hpp **** #ifndef waitUntilBitIsSet
 583:funsape/device/../globalDefines.hpp **** #   define waitUntilBitIsSet(reg, bit)          do{     \
 584:funsape/device/../globalDefines.hpp ****         doNothing();                                    \
 585:funsape/device/../globalDefines.hpp ****     } while (isBitClr((reg), (bit)))
 586:funsape/device/../globalDefines.hpp **** #endif
 587:funsape/device/../globalDefines.hpp **** #ifndef waitUntilBitIsClear
 588:funsape/device/../globalDefines.hpp **** #   define waitUntilBitIsClear(reg, bit)        do{     \
 589:funsape/device/../globalDefines.hpp ****         doNothing();                                    \
 590:funsape/device/../globalDefines.hpp ****     }while(isBitSet((reg), (bit)))
 591:funsape/device/../globalDefines.hpp **** #endif
 592:funsape/device/../globalDefines.hpp **** 
 593:funsape/device/../globalDefines.hpp **** //     ////////////////////     BIT MASK HANDLING    ////////////////////     //
 594:funsape/device/../globalDefines.hpp **** #ifndef setMask
 595:funsape/device/../globalDefines.hpp **** #   define setMask(reg, mask)                   ((reg) |= (mask))
 596:funsape/device/../globalDefines.hpp **** #endif
 597:funsape/device/../globalDefines.hpp **** #ifndef clrMask
 598:funsape/device/../globalDefines.hpp **** #   define clrMask(reg, mask)                   ((reg) &= ~(mask))
 599:funsape/device/../globalDefines.hpp **** #endif
 600:funsape/device/../globalDefines.hpp **** #ifndef cplMask
 601:funsape/device/../globalDefines.hpp **** #   define cplMask(reg, mask)                   ((reg) ^= (mask))
 602:funsape/device/../globalDefines.hpp **** #endif
 603:funsape/device/../globalDefines.hpp **** 
 604:funsape/device/../globalDefines.hpp **** //     ////////////////     BIT MASK OFFSET HANDLING     ////////////////     //
 605:funsape/device/../globalDefines.hpp **** #ifndef setMaskOffset
 606:funsape/device/../globalDefines.hpp **** #   define setMaskOffset(reg, mask, offset)     ((reg) |= ((mask) << (offset)))
 607:funsape/device/../globalDefines.hpp **** #endif
 608:funsape/device/../globalDefines.hpp **** #ifndef clrMaskOffset
 609:funsape/device/../globalDefines.hpp **** #   define clrMaskOffset(reg, mask, offset)     ((reg) &= ~((mask) << (offset)))
 610:funsape/device/../globalDefines.hpp **** #endif
 611:funsape/device/../globalDefines.hpp **** #ifndef cplMaskOffset
 612:funsape/device/../globalDefines.hpp **** #   define cplMaskOffset(reg, mask, offset)     ((reg) ^= ((mask) << (offset)))
GAS LISTING C:\Users\kenne\AppData\Local\Temp\cc0aKx3b.s 			page 12


 613:funsape/device/../globalDefines.hpp **** #endif
 614:funsape/device/../globalDefines.hpp **** 
 615:funsape/device/../globalDefines.hpp **** //     /////////////     DATA MANIPULATION (8-BITS WIDE)    /////////////     //
 616:funsape/device/../globalDefines.hpp **** #define byteGetNibble1(dataByte)        (((dataByte) >> 4) & 0x0F)
 617:funsape/device/../globalDefines.hpp **** #define byteGetNibble0(dataByte)        ((dataByte) & 0x0F)
 618:funsape/device/../globalDefines.hpp **** #define byteSwitchNibbles(dataByte)     ((byteGetNibble0(dataByte) << 4) | \
 619:funsape/device/../globalDefines.hpp ****         (byteGetNibble1(dataByte)))
 620:funsape/device/../globalDefines.hpp **** 
 621:funsape/device/../globalDefines.hpp **** //     ////////////     DATA MANIPULATION (16-BITS WIDE)     ////////////     //
 622:funsape/device/../globalDefines.hpp **** #define hwordGetByte1(dataHword)        (((dataHword) >> 8) & 0x00FF)
 623:funsape/device/../globalDefines.hpp **** #define hwordGetByte0(dataHword)        ((dataHword) & 0x00FF)
 624:funsape/device/../globalDefines.hpp **** #define hwordSwitchBytes(dataHword)     ((hwordGetByte0(dataHword) << 8) | \
 625:funsape/device/../globalDefines.hpp ****         (hwordGetByte1(dataHword)))
 626:funsape/device/../globalDefines.hpp **** 
 627:funsape/device/../globalDefines.hpp **** //     ////////////     DATA MANIPULATION (32-BITS WIDE)     ////////////     //
 628:funsape/device/../globalDefines.hpp **** #define wordGetByte3(dataWord)          (((dataWord) >> 24) & 0x000000FF)
 629:funsape/device/../globalDefines.hpp **** #define wordGetByte2(dataWord)          (((dataWord) >> 16) & 0x000000FF)
 630:funsape/device/../globalDefines.hpp **** #define wordGetByte1(dataWord)          (((dataWord) >> 8) & 0x000000FF)
 631:funsape/device/../globalDefines.hpp **** #define wordGetByte0(dataWord)          ((dataWord) & 0x000000FF)
 632:funsape/device/../globalDefines.hpp **** #define wordSwitchBytes(dataWord)       ((wordGetByte0(dataWord) << 24)  | \
 633:funsape/device/../globalDefines.hpp ****         (wordGetByte1(dataWord) << 16) | \
 634:funsape/device/../globalDefines.hpp ****         (wordGetByte2(dataWord) << 8)  | \
 635:funsape/device/../globalDefines.hpp ****         (wordGetByte3(dataWord)))
 636:funsape/device/../globalDefines.hpp **** #define wordGetHword1(dataWord)         (((dataWord) >> 16) & 0x0000FFFF)
 637:funsape/device/../globalDefines.hpp **** #define wordGetHword0(dataWord)         ((dataWord) & 0x0000FFFF)
 638:funsape/device/../globalDefines.hpp **** #define wordSwitchHwords(dataWord)      ((wordGetHword0(dataWord) << 16) | \
 639:funsape/device/../globalDefines.hpp ****         (wordGetHword1(dataWord)))
 640:funsape/device/../globalDefines.hpp **** 
 641:funsape/device/../globalDefines.hpp **** //     ////////////     DATA MANIPULATION (64-BITS WIDE)     ////////////     //
 642:funsape/device/../globalDefines.hpp **** #define dwordGetByte7(dataDword)        (((dataDword) >> 56) & 0x00000000000000FF)
 643:funsape/device/../globalDefines.hpp **** #define dwordGetByte6(dataDword)        (((dataDword) >> 48) & 0x00000000000000FF)
 644:funsape/device/../globalDefines.hpp **** #define dwordGetByte5(dataDword)        (((dataDword) >> 40) & 0x00000000000000FF)
 645:funsape/device/../globalDefines.hpp **** #define dwordGetByte4(dataDword)        (((dataDword) >> 32) & 0x00000000000000FF)
 646:funsape/device/../globalDefines.hpp **** #define dwordGetByte3(dataDword)        (((dataDword) >> 24) & 0x00000000000000FF)
 647:funsape/device/../globalDefines.hpp **** #define dwordGetByte2(dataDword)        (((dataDword) >> 16) & 0x00000000000000FF)
 648:funsape/device/../globalDefines.hpp **** #define dwordGetByte1(dataDword)        (((dataDword) >> 8) & 0x00000000000000FF)
 649:funsape/device/../globalDefines.hpp **** #define dwordGetByte0(dataDword)        ((dataDword) & 0x00000000000000FF)
 650:funsape/device/../globalDefines.hpp **** #define dwordSwitchBytes(dataDword)     ((dwordGetByte0(dataDword) << 56)  | \
 651:funsape/device/../globalDefines.hpp ****         (dwordGetByte1(dataDword) << 48) | \
 652:funsape/device/../globalDefines.hpp ****         (dwordGetByte2(dataDword) << 40) | \
 653:funsape/device/../globalDefines.hpp ****         (dwordGetByte3(dataDword) << 32) | \
 654:funsape/device/../globalDefines.hpp ****         (dwordGetByte4(dataDword) << 24) | \
 655:funsape/device/../globalDefines.hpp ****         (dwordGetByte5(dataDword) << 16) | \
 656:funsape/device/../globalDefines.hpp ****         (dwordGetByte6(dataDword) << 8)  | \
 657:funsape/device/../globalDefines.hpp ****         (dwordGetByte7(dataDword)))
 658:funsape/device/../globalDefines.hpp **** #define dwordGetHword3(dataDword)       ((dataDword >> 48) & 0x000000000000FFFF)
 659:funsape/device/../globalDefines.hpp **** #define dwordGetHword2(dataDword)       ((dataDword >> 32) & 0x000000000000FFFF)
 660:funsape/device/../globalDefines.hpp **** #define dwordGetHword1(dataDword)       ((dataDword >> 16) & 0x000000000000FFFF)
 661:funsape/device/../globalDefines.hpp **** #define dwordGetHword0(dataDword)       ((dataDword >> 0) & 0x000000000000FFFF)
 662:funsape/device/../globalDefines.hpp **** #define dwordSwitchHwords(dataDword)    ((dwordGetHword0(dataDword) << 48)  | \
 663:funsape/device/../globalDefines.hpp ****         (dwordGetHword1(dataDword) << 32) | \
 664:funsape/device/../globalDefines.hpp ****         (dwordGetHword2(dataDword) << 16) | \
 665:funsape/device/../globalDefines.hpp ****         (dwordGetHword3(dataDword)))
 666:funsape/device/../globalDefines.hpp **** #define dwordGetWord1(dataDword)         (((dataDword) >> 32) & 0x00000000FFFFFFFF)
 667:funsape/device/../globalDefines.hpp **** #define dwordGetWord0(dataDword)         ((dataDword) & 0x00000000FFFFFFFF)
 668:funsape/device/../globalDefines.hpp **** #define dwordSwitchWords(dataDword)     ((dwordGetWord0(dataDword) << 32)  | \
 669:funsape/device/../globalDefines.hpp ****         (dwordGetWord1(dataDword)))
GAS LISTING C:\Users\kenne\AppData\Local\Temp\cc0aKx3b.s 			page 13


 670:funsape/device/../globalDefines.hpp **** 
 671:funsape/device/../globalDefines.hpp **** //     /////////////////////     TRUNCATE VALUES    /////////////////////     //
 672:funsape/device/../globalDefines.hpp **** #define getMaximumOf(var1, var2)        (       \
 673:funsape/device/../globalDefines.hpp ****         ((var1) > (var2))                       \
 674:funsape/device/../globalDefines.hpp ****         ? (var1)                                \
 675:funsape/device/../globalDefines.hpp ****         : (var2))
 676:funsape/device/../globalDefines.hpp **** #define getMinimumOf(var1, var2)        (       \
 677:funsape/device/../globalDefines.hpp ****         ((var1) < (var2))                       \
 678:funsape/device/../globalDefines.hpp ****         ? (var1)                                \
 679:funsape/device/../globalDefines.hpp ****         : (var2))
 680:funsape/device/../globalDefines.hpp **** #define truncateBetween(var, min, max)  (       \
 681:funsape/device/../globalDefines.hpp ****         ((var) < (min))                         \
 682:funsape/device/../globalDefines.hpp ****         ? (min)                                 \
 683:funsape/device/../globalDefines.hpp ****         : (((var) > (max))                      \
 684:funsape/device/../globalDefines.hpp ****                 ? (max)                         \
 685:funsape/device/../globalDefines.hpp ****                 : (var)                         \
 686:funsape/device/../globalDefines.hpp ****         ))
 687:funsape/device/../globalDefines.hpp **** 
 688:funsape/device/../globalDefines.hpp **** //     //////////////////////     STRINGIFYING    ///////////////////////     //
 689:funsape/device/../globalDefines.hpp **** #define stringifyName(constant)         #constant
 690:funsape/device/../globalDefines.hpp **** #define stringifyValue(constant)        stringifyName(constant)
 691:funsape/device/../globalDefines.hpp **** 
 692:funsape/device/../globalDefines.hpp **** // =============================================================================
 693:funsape/device/../globalDefines.hpp **** // Extern global variables
 694:funsape/device/../globalDefines.hpp **** // =============================================================================
 695:funsape/device/../globalDefines.hpp **** 
 696:funsape/device/../globalDefines.hpp **** // NONE
 697:funsape/device/../globalDefines.hpp **** 
 698:funsape/device/../globalDefines.hpp **** // =============================================================================
 699:funsape/device/../globalDefines.hpp **** // Inline functions declaration
 700:funsape/device/../globalDefines.hpp **** // =============================================================================
 701:funsape/device/../globalDefines.hpp **** 
 702:funsape/device/../globalDefines.hpp **** //     ///////////////////     CHARACTER HANDLING    ////////////////////     //
 703:funsape/device/../globalDefines.hpp **** char_t inlined toLowerCase(cchar_t character_p);
 704:funsape/device/../globalDefines.hpp **** char_t inlined toUpperCase(cchar_t character_p);
 705:funsape/device/../globalDefines.hpp **** 
 706:funsape/device/../globalDefines.hpp **** //     /////////////////////     DATA VALIDITY     //////////////////////     //
 707:funsape/device/../globalDefines.hpp **** bool_t inlined isAsciiLowerCaseLetter(cchar_t character_p);
 708:funsape/device/../globalDefines.hpp **** bool_t inlined isAsciiUpperCaseLetter(cchar_t character_p);
 709:funsape/device/../globalDefines.hpp **** bool_t inlined isAsciiCommand(cchar_t character_p);
 710:funsape/device/../globalDefines.hpp **** bool_t inlined isAsciiLetter(cchar_t character_p);
 711:funsape/device/../globalDefines.hpp **** bool_t inlined isAsciiNumber(cchar_t character_p);
 712:funsape/device/../globalDefines.hpp **** bool_t inlined isAsciiSymbol(cchar_t character_p);
 713:funsape/device/../globalDefines.hpp **** 
 714:funsape/device/../globalDefines.hpp **** //     /////////////////////     SYSTEM ACTIONS    //////////////////////     //
 715:funsape/device/../globalDefines.hpp **** void inlined die(Error errorCode_p);
 716:funsape/device/../globalDefines.hpp **** void inlined doNop(void);
 717:funsape/device/../globalDefines.hpp **** void inlined doNothing(void);
 718:funsape/device/../globalDefines.hpp **** void inlined systemHalt(void (*function_p)(void) = nullptr);
 719:funsape/device/../globalDefines.hpp **** 
 720:funsape/device/../globalDefines.hpp **** // =============================================================================
 721:funsape/device/../globalDefines.hpp **** // Inline functions definitions
 722:funsape/device/../globalDefines.hpp **** // =============================================================================
 723:funsape/device/../globalDefines.hpp **** 
 724:funsape/device/../globalDefines.hpp **** //     ///////////////////     CHARACTER HANDLING    ////////////////////     //
 725:funsape/device/../globalDefines.hpp **** char_t inlined toLowerCase(cchar_t character_p)
 726:funsape/device/../globalDefines.hpp **** {
GAS LISTING C:\Users\kenne\AppData\Local\Temp\cc0aKx3b.s 			page 14


 727:funsape/device/../globalDefines.hpp ****     return ((isAsciiUpperCaseLetter(character_p)) ? (character_p + 0x20) : character_p);
 728:funsape/device/../globalDefines.hpp **** }
 729:funsape/device/../globalDefines.hpp **** 
 730:funsape/device/../globalDefines.hpp **** char_t inlined toUpperCase(cchar_t character_p)
 731:funsape/device/../globalDefines.hpp **** {
 732:funsape/device/../globalDefines.hpp ****     return ((isAsciiLowerCaseLetter(character_p)) ? (character_p - 0x20) : character_p);
 733:funsape/device/../globalDefines.hpp **** }
 734:funsape/device/../globalDefines.hpp **** 
 735:funsape/device/../globalDefines.hpp **** //     /////////////////////     DATA VALIDITY     //////////////////////     //
 736:funsape/device/../globalDefines.hpp **** bool_t inlined isAsciiLowerCaseLetter(cchar_t character_p)
 737:funsape/device/../globalDefines.hpp **** {
 738:funsape/device/../globalDefines.hpp ****     return ((bool_t)(((character_p >= 'a') && (character_p <= 'z')) ? true : false));
 739:funsape/device/../globalDefines.hpp **** }
 740:funsape/device/../globalDefines.hpp **** 
 741:funsape/device/../globalDefines.hpp **** bool_t inlined isAsciiUpperCaseLetter(cchar_t character_p)
 742:funsape/device/../globalDefines.hpp **** {
 743:funsape/device/../globalDefines.hpp ****     return ((bool_t)(((character_p >= 'A') && (character_p <= 'Z')) ? true : false));
 744:funsape/device/../globalDefines.hpp **** }
 745:funsape/device/../globalDefines.hpp **** 
 746:funsape/device/../globalDefines.hpp **** bool_t inlined isAsciiCommand(cchar_t character_p)
 747:funsape/device/../globalDefines.hpp **** {
 748:funsape/device/../globalDefines.hpp ****     return ((bool_t)((character_p < ' ') ? true : false));
 749:funsape/device/../globalDefines.hpp **** }
 750:funsape/device/../globalDefines.hpp **** 
 751:funsape/device/../globalDefines.hpp **** bool_t inlined isAsciiLetter(cchar_t character_p)
 752:funsape/device/../globalDefines.hpp **** {
 753:funsape/device/../globalDefines.hpp ****     return ((bool_t)((isAsciiLowerCaseLetter(character_p) || (isAsciiUpperCaseLetter(character_p)) 
 754:funsape/device/../globalDefines.hpp **** }
 755:funsape/device/../globalDefines.hpp **** 
 756:funsape/device/../globalDefines.hpp **** bool_t inlined isAsciiNumber(cchar_t character_p)
 757:funsape/device/../globalDefines.hpp **** {
 758:funsape/device/../globalDefines.hpp ****     return ((bool_t)(((character_p >= '0') && (character_p <= '9')) ? true : false));
 759:funsape/device/../globalDefines.hpp **** }
 760:funsape/device/../globalDefines.hpp **** 
 761:funsape/device/../globalDefines.hpp **** bool_t inlined isAsciiSymbol(cchar_t character_p)
 762:funsape/device/../globalDefines.hpp **** {
 763:funsape/device/../globalDefines.hpp ****     return ((bool_t)(((!isAsciiNumber(character_p)) && (!isAsciiCommand(character_p)) &&
 764:funsape/device/../globalDefines.hpp ****                                     (!isAsciiLetter(character_p))) ? true : false));
 765:funsape/device/../globalDefines.hpp **** }
 766:funsape/device/../globalDefines.hpp **** 
 767:funsape/device/../globalDefines.hpp **** //     /////////////////////     SYSTEM ACTIONS    //////////////////////     //
 768:funsape/device/../globalDefines.hpp **** void inlined die(Error errorCode_p)
 769:funsape/device/../globalDefines.hpp **** {
 770:funsape/device/../globalDefines.hpp ****     printf("Failed with error=%u (0x%04x).\r", (cuint16_t)errorCode_p, (cuint16_t)errorCode_p);
 771:funsape/device/../globalDefines.hpp ****     systemHalt();
 772:funsape/device/../globalDefines.hpp **** 
 773:funsape/device/../globalDefines.hpp ****     return;
 774:funsape/device/../globalDefines.hpp **** }
 775:funsape/device/../globalDefines.hpp **** 
 776:funsape/device/../globalDefines.hpp **** void inlined doNop(void)
 777:funsape/device/../globalDefines.hpp **** {
 778:funsape/device/../globalDefines.hpp ****     asm volatile("nop");
 779:funsape/device/../globalDefines.hpp **** 
 780:funsape/device/../globalDefines.hpp ****     return;
 781:funsape/device/../globalDefines.hpp **** }
 782:funsape/device/../globalDefines.hpp **** 
 783:funsape/device/../globalDefines.hpp **** void inlined doNothing(void)
GAS LISTING C:\Users\kenne\AppData\Local\Temp\cc0aKx3b.s 			page 15


 784:funsape/device/../globalDefines.hpp **** {
 785:funsape/device/../globalDefines.hpp ****     return;
 786:funsape/device/../globalDefines.hpp **** }
 787:funsape/device/../globalDefines.hpp **** 
 788:funsape/device/../globalDefines.hpp **** void inlined systemHalt(void (*function_p)(void))
 789:funsape/device/../globalDefines.hpp **** {
 790:funsape/device/../globalDefines.hpp ****     if(isPointerValid(function_p)) {
 791:funsape/device/../globalDefines.hpp ****         function_p();
 792:funsape/device/../globalDefines.hpp ****     }
 793:funsape/device/../globalDefines.hpp ****     while(1) {
 794:funsape/device/../globalDefines.hpp ****         doNothing();
 795:funsape/device/../globalDefines.hpp ****     }
 796:funsape/device/../globalDefines.hpp **** 
 797:funsape/device/../globalDefines.hpp ****     return;
 798:funsape/device/../globalDefines.hpp **** }
 799:funsape/device/../globalDefines.hpp **** 
 800:funsape/device/../globalDefines.hpp **** // =============================================================================
 801:funsape/device/../globalDefines.hpp **** // Public functions weakly defined
 802:funsape/device/../globalDefines.hpp **** // =============================================================================
 803:funsape/device/../globalDefines.hpp **** 
 804:funsape/device/../globalDefines.hpp **** #define delayMs(time_p)                 _delay_ms(time_p)
 805:funsape/device/../globalDefines.hpp **** #define delayUs(time_p)                 _delay_us(time_p)
 806:funsape/device/../globalDefines.hpp **** 
 807:funsape/device/../globalDefines.hpp **** weakened uint32_t getTick(void)
 808:funsape/device/../globalDefines.hpp **** {
  17               		.loc 1 808 1 view -0
  18               		.cfi_startproc
  19               	/* prologue: function */
  20               	/* frame size = 0 */
  21               	/* stack size = 0 */
  22               	.L__stack_usage = 0
 809:funsape/device/../globalDefines.hpp ****     // TODO
 810:funsape/device/../globalDefines.hpp ****     return 0;
  23               		.loc 1 810 5 view .LVU1
 811:funsape/device/../globalDefines.hpp **** }
  24               		.loc 1 811 1 is_stmt 0 view .LVU2
  25 0000 60E0      		ldi r22,0
  26 0002 70E0      		ldi r23,0
  27 0004 CB01      		movw r24,r22
  28               	/* epilogue start */
  29 0006 0895      		ret
  30               		.cfi_endproc
  31               	.LFE32:
  33               		.section	.text._ZN6KeypadC2Ev,"ax",@progbits
  34               	.global	_ZN6KeypadC2Ev
  36               	_ZN6KeypadC2Ev:
  37               	.LVL0:
  38               	.LFB34:
  39               		.file 2 "funsape/device/keypad.cpp"
   1:funsape/device/keypad.cpp **** //!
   2:funsape/device/keypad.cpp **** //! \file           keypad.cpp
   3:funsape/device/keypad.cpp **** //! \brief          Matrix keypad controller for the FunSAPE AVR8 Library
   4:funsape/device/keypad.cpp **** //! \author         Leandro Schwarz (bladabuska+funsapeavr8lib@gmail.com)
   5:funsape/device/keypad.cpp **** //! \date           2023-04-05
   6:funsape/device/keypad.cpp **** //! \version        23.04
   7:funsape/device/keypad.cpp **** //! \copyright      license
   8:funsape/device/keypad.cpp **** //! \details        Matrix keypad controller with support to 4x3, 4x4 and 5x3
GAS LISTING C:\Users\kenne\AppData\Local\Temp\cc0aKx3b.s 			page 16


   9:funsape/device/keypad.cpp **** //!                     keypads and configurable debounce time.
  10:funsape/device/keypad.cpp **** //! \todo           Todo list
  11:funsape/device/keypad.cpp **** //!
  12:funsape/device/keypad.cpp **** 
  13:funsape/device/keypad.cpp **** // =============================================================================
  14:funsape/device/keypad.cpp **** // System file dependencies
  15:funsape/device/keypad.cpp **** // =============================================================================
  16:funsape/device/keypad.cpp **** 
  17:funsape/device/keypad.cpp **** #include "keypad.hpp"
  18:funsape/device/keypad.cpp **** #if !defined(__KEYPAD_HPP)
  19:funsape/device/keypad.cpp **** #   error "Header file is corrupted!"
  20:funsape/device/keypad.cpp **** #elif __KEYPAD_HPP != 2304
  21:funsape/device/keypad.cpp **** #   error "Version mismatch between source and header files!"
  22:funsape/device/keypad.cpp **** #endif
  23:funsape/device/keypad.cpp **** 
  24:funsape/device/keypad.cpp **** // =============================================================================
  25:funsape/device/keypad.cpp **** // File exclusive - Constants
  26:funsape/device/keypad.cpp **** // =============================================================================
  27:funsape/device/keypad.cpp **** 
  28:funsape/device/keypad.cpp **** #define DEBUG_KEYPAD                    0xFFFF
  29:funsape/device/keypad.cpp **** 
  30:funsape/device/keypad.cpp **** // =============================================================================
  31:funsape/device/keypad.cpp **** // File exclusive - New data types
  32:funsape/device/keypad.cpp **** // =============================================================================
  33:funsape/device/keypad.cpp **** 
  34:funsape/device/keypad.cpp **** // NONE
  35:funsape/device/keypad.cpp **** 
  36:funsape/device/keypad.cpp **** // =============================================================================
  37:funsape/device/keypad.cpp **** // File exclusive - Global variables
  38:funsape/device/keypad.cpp **** // =============================================================================
  39:funsape/device/keypad.cpp **** 
  40:funsape/device/keypad.cpp **** // NONE
  41:funsape/device/keypad.cpp **** 
  42:funsape/device/keypad.cpp **** // =============================================================================
  43:funsape/device/keypad.cpp **** // File exclusive - Macro-functions
  44:funsape/device/keypad.cpp **** // =============================================================================
  45:funsape/device/keypad.cpp **** 
  46:funsape/device/keypad.cpp **** // NONE
  47:funsape/device/keypad.cpp **** 
  48:funsape/device/keypad.cpp **** // =============================================================================
  49:funsape/device/keypad.cpp **** // Class constructors
  50:funsape/device/keypad.cpp **** // =============================================================================
  51:funsape/device/keypad.cpp **** 
  52:funsape/device/keypad.cpp **** Keypad::Keypad(void)
  40               		.loc 2 52 1 is_stmt 1 view -0
  41               		.cfi_startproc
  42               	/* prologue: function */
  43               	/* frame size = 0 */
  44               	/* stack size = 0 */
  45               	.L__stack_usage = 0
  46               		.loc 2 52 1 is_stmt 0 view .LVU4
  47 0000 E82F      		mov r30,r24
  48 0002 F92F      		mov r31,r25
  49               	.LBB13:
  53:funsape/device/keypad.cpp **** {
  54:funsape/device/keypad.cpp ****     // Marks passage for debugging purpose
  55:funsape/device/keypad.cpp ****     debugMark("Keypad::Keypad(void)", DEBUG_KEYPAD);
GAS LISTING C:\Users\kenne\AppData\Local\Temp\cc0aKx3b.s 			page 17


  50               		.loc 2 55 5 is_stmt 1 view .LVU5
  51               		.loc 2 55 52 view .LVU6
  56:funsape/device/keypad.cpp **** 
  57:funsape/device/keypad.cpp ****     // Reset data members
  58:funsape/device/keypad.cpp ****     this->_linesDdr                     = nullptr;
  52               		.loc 2 58 5 view .LVU7
  53               		.loc 2 58 41 is_stmt 0 view .LVU8
  54 0004 1182      		std Z+1,__zero_reg__
  55 0006 1082      		st Z,__zero_reg__
  59:funsape/device/keypad.cpp ****     this->_linesPort                    = nullptr;
  56               		.loc 2 59 5 is_stmt 1 view .LVU9
  57               		.loc 2 59 41 is_stmt 0 view .LVU10
  58 0008 1382      		std Z+3,__zero_reg__
  59 000a 1282      		std Z+2,__zero_reg__
  60:funsape/device/keypad.cpp ****     this->_linesPin                     = nullptr;
  60               		.loc 2 60 5 is_stmt 1 view .LVU11
  61               		.loc 2 60 41 is_stmt 0 view .LVU12
  62 000c 1582      		std Z+5,__zero_reg__
  63 000e 1482      		std Z+4,__zero_reg__
  61:funsape/device/keypad.cpp ****     this->_linesFirst                   = 0;
  64               		.loc 2 61 5 is_stmt 1 view .LVU13
  65               		.loc 2 61 41 is_stmt 0 view .LVU14
  66 0010 8681      		ldd r24,Z+6
  67               	.LVL1:
  68               		.loc 2 61 41 view .LVU15
  69 0012 887F      		andi r24,lo8(-8)
  70 0014 8683      		std Z+6,r24
  62:funsape/device/keypad.cpp ****     this->_columnsDdr                   = nullptr;
  71               		.loc 2 62 5 is_stmt 1 view .LVU16
  72               		.loc 2 62 41 is_stmt 0 view .LVU17
  73 0016 1086      		std Z+8,__zero_reg__
  74 0018 1782      		std Z+7,__zero_reg__
  63:funsape/device/keypad.cpp ****     this->_columnsPort                  = nullptr;
  75               		.loc 2 63 5 is_stmt 1 view .LVU18
  76               		.loc 2 63 41 is_stmt 0 view .LVU19
  77 001a 1286      		std Z+10,__zero_reg__
  78 001c 1186      		std Z+9,__zero_reg__
  64:funsape/device/keypad.cpp ****     this->_columnsFirst                 = 0;
  79               		.loc 2 64 5 is_stmt 1 view .LVU20
  80               		.loc 2 64 41 is_stmt 0 view .LVU21
  81 001e 8385      		ldd r24,Z+11
  82 0020 887F      		andi r24,lo8(-8)
  83 0022 8387      		std Z+11,r24
  65:funsape/device/keypad.cpp ****     this->_type                         = Type::KEYPAD_4X4;
  84               		.loc 2 65 5 is_stmt 1 view .LVU22
  85               		.loc 2 65 41 is_stmt 0 view .LVU23
  86 0024 1486      		std Z+12,__zero_reg__
  66:funsape/device/keypad.cpp ****     this->_columnsMax                   = 0;
  87               		.loc 2 66 5 is_stmt 1 view .LVU24
  88               		.loc 2 66 41 is_stmt 0 view .LVU25
  89 0026 8585      		ldd r24,Z+13
  90 0028 982F      		mov r25,r24
  91 002a 987F      		andi r25,lo8(-8)
  92 002c 9587      		std Z+13,r25
  67:funsape/device/keypad.cpp ****     this->_linesMax                     = 0;
  93               		.loc 2 67 5 is_stmt 1 view .LVU26
  94               		.loc 2 67 41 is_stmt 0 view .LVU27
GAS LISTING C:\Users\kenne\AppData\Local\Temp\cc0aKx3b.s 			page 18


  95 002e 807C      		andi r24,lo8(-64)
  96 0030 8587      		std Z+13,r24
  68:funsape/device/keypad.cpp ****     this->_isPortsSet                   = false;
  97               		.loc 2 68 5 is_stmt 1 view .LVU28
  98               		.loc 2 68 41 is_stmt 0 view .LVU29
  99 0032 8F7B      		andi r24,lo8(~(1<<6))
 100 0034 8587      		std Z+13,r24
  69:funsape/device/keypad.cpp ****     this->_isKeyValuesSet               = false;
 101               		.loc 2 69 5 is_stmt 1 view .LVU30
 102               		.loc 2 69 41 is_stmt 0 view .LVU31
 103 0036 8F77      		andi r24,lo8(~(1<<7))
 104 0038 8587      		std Z+13,r24
  70:funsape/device/keypad.cpp ****     this->_isInitialized                = false;
 105               		.loc 2 70 5 is_stmt 1 view .LVU32
 106               		.loc 2 70 41 is_stmt 0 view .LVU33
 107 003a 8685      		ldd r24,Z+14
 108 003c 8E7F      		andi r24,lo8(~(1<<0))
 109 003e 8687      		std Z+14,r24
  71:funsape/device/keypad.cpp ****     this->_debounceTime                 = constDefaultDebounceTime;
 110               		.loc 2 71 5 is_stmt 1 view .LVU34
 111               		.loc 2 71 41 is_stmt 0 view .LVU35
 112 0040 8170      		andi r24,lo8(1)
 113 0042 8260      		ori r24,lo8(2)
 114 0044 8687      		std Z+14,r24
  72:funsape/device/keypad.cpp ****     this->_keyValue                     = nullptr;
 115               		.loc 2 72 5 is_stmt 1 view .LVU36
 116               		.loc 2 72 41 is_stmt 0 view .LVU37
 117 0046 108A      		std Z+16,__zero_reg__
 118 0048 1786      		std Z+15,__zero_reg__
  73:funsape/device/keypad.cpp **** 
  74:funsape/device/keypad.cpp ****     // Returns successfully
  75:funsape/device/keypad.cpp ****     this->_lastError = Error::NONE;
 119               		.loc 2 75 5 is_stmt 1 view .LVU38
 120               		.loc 2 75 22 is_stmt 0 view .LVU39
 121 004a 128A      		std Z+18,__zero_reg__
 122 004c 118A      		std Z+17,__zero_reg__
  76:funsape/device/keypad.cpp ****     debugMessage(Error::NONE, DEBUG_KEYPAD);
 123               		.loc 2 76 5 is_stmt 1 view .LVU40
 124               		.loc 2 76 44 view .LVU41
  77:funsape/device/keypad.cpp ****     return;
 125               		.loc 2 77 5 view .LVU42
 126               	/* epilogue start */
 127               	.LBE13:
  78:funsape/device/keypad.cpp **** }
 128               		.loc 2 78 1 is_stmt 0 view .LVU43
 129 004e 0895      		ret
 130               		.cfi_endproc
 131               	.LFE34:
 133               	.global	_ZN6KeypadC1Ev
 134               		.set	_ZN6KeypadC1Ev,_ZN6KeypadC2Ev
 135               		.section	.text._ZN6KeypadD2Ev,"ax",@progbits
 136               	.global	_ZN6KeypadD2Ev
 138               	_ZN6KeypadD2Ev:
 139               	.LVL2:
 140               	.LFB37:
  79:funsape/device/keypad.cpp **** 
  80:funsape/device/keypad.cpp **** Keypad::~Keypad(void)
GAS LISTING C:\Users\kenne\AppData\Local\Temp\cc0aKx3b.s 			page 19


 141               		.loc 2 80 1 is_stmt 1 view -0
 142               		.cfi_startproc
 143               		.loc 2 80 1 is_stmt 0 view .LVU45
 144 0000 CF93      		push r28
 145               		.cfi_def_cfa_offset 3
 146               		.cfi_offset 28, -2
 147 0002 DF93      		push r29
 148               		.cfi_def_cfa_offset 4
 149               		.cfi_offset 29, -3
 150               	/* prologue: function */
 151               	/* frame size = 0 */
 152               	/* stack size = 2 */
 153               	.L__stack_usage = 2
 154 0004 C82F      		mov r28,r24
 155 0006 D92F      		mov r29,r25
 156               	.LBB14:
  81:funsape/device/keypad.cpp **** {
  82:funsape/device/keypad.cpp ****     // Marks passage for debugging purpose
  83:funsape/device/keypad.cpp ****     debugMark("Keypad::~Keypad(void)", DEBUG_KEYPAD);
 157               		.loc 2 83 5 is_stmt 1 view .LVU46
 158               		.loc 2 83 53 view .LVU47
  84:funsape/device/keypad.cpp **** 
  85:funsape/device/keypad.cpp ****     // Deallocate memory
  86:funsape/device/keypad.cpp ****     if(isPointerValid(this->_keyValue)) {
 159               		.loc 2 86 5 view .LVU48
 160               		.loc 2 86 8 is_stmt 0 view .LVU49
 161 0008 8F85      		ldd r24,Y+15
 162 000a 9889      		ldd r25,Y+16
 163               	.LVL3:
 164               		.loc 2 86 8 view .LVU50
 165 000c 0097      		sbiw r24,0
 166 000e 01F0      		breq .L4
  87:funsape/device/keypad.cpp ****         free(this->_keyValue);
 167               		.loc 2 87 9 is_stmt 1 view .LVU51
 168               		.loc 2 87 13 is_stmt 0 view .LVU52
 169 0010 0E94 0000 		call free
 170               	.LVL4:
 171               	.L4:
  88:funsape/device/keypad.cpp ****     }
  89:funsape/device/keypad.cpp **** 
  90:funsape/device/keypad.cpp ****     // Returns successfully
  91:funsape/device/keypad.cpp ****     this->_lastError = Error::NONE;
 172               		.loc 2 91 5 is_stmt 1 view .LVU53
 173               		.loc 2 91 22 is_stmt 0 view .LVU54
 174 0014 1A8A      		std Y+18,__zero_reg__
 175 0016 198A      		std Y+17,__zero_reg__
  92:funsape/device/keypad.cpp ****     debugMessage(Error::NONE, DEBUG_KEYPAD);
 176               		.loc 2 92 5 is_stmt 1 view .LVU55
 177               		.loc 2 92 44 view .LVU56
  93:funsape/device/keypad.cpp ****     return;
 178               		.loc 2 93 5 view .LVU57
 179               	/* epilogue start */
 180               	.LBE14:
  94:funsape/device/keypad.cpp **** }
 181               		.loc 2 94 1 is_stmt 0 view .LVU58
 182 0018 DF91      		pop r29
 183 001a CF91      		pop r28
GAS LISTING C:\Users\kenne\AppData\Local\Temp\cc0aKx3b.s 			page 20


 184 001c 0895      		ret
 185               		.cfi_endproc
 186               	.LFE37:
 188               	.global	_ZN6KeypadD1Ev
 189               		.set	_ZN6KeypadD1Ev,_ZN6KeypadD2Ev
 190               		.section	.text._ZN6Keypad4initEh,"ax",@progbits
 191               	.global	_ZN6Keypad4initEh
 193               	_ZN6Keypad4initEh:
 194               	.LVL5:
 195               	.LFB39:
  95:funsape/device/keypad.cpp **** 
  96:funsape/device/keypad.cpp **** // =============================================================================
  97:funsape/device/keypad.cpp **** // Class public methods
  98:funsape/device/keypad.cpp **** // =============================================================================
  99:funsape/device/keypad.cpp **** 
 100:funsape/device/keypad.cpp **** bool_t Keypad::init(cuint8_t debounceTime_p)
 101:funsape/device/keypad.cpp **** {
 196               		.loc 2 101 1 is_stmt 1 view -0
 197               		.cfi_startproc
 198               		.loc 2 101 1 is_stmt 0 view .LVU60
 199 0000 CF93      		push r28
 200               		.cfi_def_cfa_offset 3
 201               		.cfi_offset 28, -2
 202 0002 DF93      		push r29
 203               		.cfi_def_cfa_offset 4
 204               		.cfi_offset 29, -3
 205               	/* prologue: function */
 206               	/* frame size = 0 */
 207               	/* stack size = 2 */
 208               	.L__stack_usage = 2
 209 0004 E82F      		mov r30,r24
 210 0006 F92F      		mov r31,r25
 102:funsape/device/keypad.cpp ****     // Marks passage for debugging purpose
 103:funsape/device/keypad.cpp ****     debugMark("Keypad::init(cuint8_t)", DEBUG_KEYPAD);
 211               		.loc 2 103 5 is_stmt 1 view .LVU61
 212               		.loc 2 103 54 view .LVU62
 104:funsape/device/keypad.cpp **** 
 105:funsape/device/keypad.cpp ****     // Check for errors - PORTS NOT SET
 106:funsape/device/keypad.cpp ****     if(!this->_isPortsSet) {
 213               		.loc 2 106 5 view .LVU63
 214               		.loc 2 106 15 is_stmt 0 view .LVU64
 215 0008 8585      		ldd r24,Z+13
 216               	.LVL6:
 217               		.loc 2 106 15 view .LVU65
 218 000a 86FB      		bst r24,6
 219 000c 8827      		clr r24
 220 000e 80F9      		bld r24,0
 221               		.loc 2 106 5 view .LVU66
 222 0010 8823      		tst r24
 223 0012 01F0      		breq .L16
 107:funsape/device/keypad.cpp ****         // Returns error
 108:funsape/device/keypad.cpp ****         this->_lastError = Error::GPIO_PORT_NOT_SET;
 109:funsape/device/keypad.cpp ****         debugMessage(Error::GPIO_PORT_NOT_SET, DEBUG_KEYPAD);
 110:funsape/device/keypad.cpp ****         return false;
 111:funsape/device/keypad.cpp ****     }
 112:funsape/device/keypad.cpp ****     // Check for errors - KEY VALUES NOT SET
 113:funsape/device/keypad.cpp ****     if(!this->_isKeyValuesSet) {
GAS LISTING C:\Users\kenne\AppData\Local\Temp\cc0aKx3b.s 			page 21


 224               		.loc 2 113 5 is_stmt 1 view .LVU67
 225               		.loc 2 113 15 is_stmt 0 view .LVU68
 226 0014 9585      		ldd r25,Z+13
 227 0016 97FB      		bst r25,7
 228 0018 8827      		clr r24
 229 001a 80F9      		bld r24,0
 230               		.loc 2 113 5 view .LVU69
 231 001c 9923      		tst r25
 232 001e 04F4      		brge .L17
 114:funsape/device/keypad.cpp ****         // Returns error
 115:funsape/device/keypad.cpp ****         this->_lastError = Error::KEY_VALUES_NOT_SET;
 116:funsape/device/keypad.cpp ****         debugMessage(Error::KEY_VALUES_NOT_SET, DEBUG_KEYPAD);
 117:funsape/device/keypad.cpp ****         return false;
 118:funsape/device/keypad.cpp ****     }
 119:funsape/device/keypad.cpp ****     // Checks for erros - I/O PIN INDEX INVALID
 120:funsape/device/keypad.cpp ****     if(!isGpioPinIndexValid(this->_columnsFirst + this->_columnsMax)) {
 233               		.loc 2 120 5 is_stmt 1 view .LVU70
 234               		.loc 2 120 9 is_stmt 0 view .LVU71
 235 0020 2385      		ldd r18,Z+11
 236 0022 2770      		andi r18,lo8(7)
 237 0024 9585      		ldd r25,Z+13
 238 0026 9770      		andi r25,lo8(7)
 239 0028 290F      		add r18,r25
 240 002a 3327      		clr r19
 241 002c 331F      		rol r19
 242               		.loc 2 120 5 view .LVU72
 243 002e 2830      		cpi r18,8
 244 0030 3105      		cpc r19,__zero_reg__
 245 0032 04F4      		brge .L18
 121:funsape/device/keypad.cpp ****         // Returns error
 122:funsape/device/keypad.cpp ****         this->_lastError = Error::KEYPAD_LINES_PIN_INDEX_INVALID;
 123:funsape/device/keypad.cpp ****         debugMessage(Error::KEYPAD_LINES_PIN_INDEX_INVALID, DEBUG_KEYPAD);
 124:funsape/device/keypad.cpp ****         return false;
 125:funsape/device/keypad.cpp ****     }
 126:funsape/device/keypad.cpp ****     if(!isGpioPinIndexValid(this->_linesFirst + this->_linesMax)) {
 246               		.loc 2 126 5 is_stmt 1 view .LVU73
 247               		.loc 2 126 9 is_stmt 0 view .LVU74
 248 0034 9681      		ldd r25,Z+6
 249 0036 9770      		andi r25,lo8(7)
 250 0038 2585      		ldd r18,Z+13
 251 003a 2695      		lsr r18
 252 003c 2695      		lsr r18
 253 003e 2695      		lsr r18
 254 0040 2770      		andi r18,lo8(7)
 255 0042 492F      		mov r20,r25
 256 0044 420F      		add r20,r18
 257 0046 5527      		clr r21
 258 0048 551F      		rol r21
 259               		.loc 2 126 5 view .LVU75
 260 004a 4830      		cpi r20,8
 261 004c 5105      		cpc r21,__zero_reg__
 262 004e 04F4      		brge .L19
 127:funsape/device/keypad.cpp ****         // Returns error
 128:funsape/device/keypad.cpp ****         this->_lastError = Error::KEYPAD_COLUMNS_PIN_INDEX_INVALID;
 129:funsape/device/keypad.cpp ****         debugMessage(Error::KEYPAD_COLUMNS_PIN_INDEX_INVALID, DEBUG_KEYPAD);
 130:funsape/device/keypad.cpp ****         return false;
 131:funsape/device/keypad.cpp ****     }
GAS LISTING C:\Users\kenne\AppData\Local\Temp\cc0aKx3b.s 			page 22


 132:funsape/device/keypad.cpp **** 
 133:funsape/device/keypad.cpp ****     // Configures GPIOs
 134:funsape/device/keypad.cpp ****     switch(this->_type) {
 263               		.loc 2 134 5 is_stmt 1 view .LVU76
 264               		.loc 2 134 18 is_stmt 0 view .LVU77
 265 0050 2485      		ldd r18,Z+12
 266               		.loc 2 134 5 view .LVU78
 267 0052 2130      		cpi r18,lo8(1)
 268 0054 01F4      		brne .+2
 269 0056 00C0      		rjmp .L11
 270 0058 2230      		cpi r18,lo8(2)
 271 005a 01F4      		brne .+2
 272 005c 00C0      		rjmp .L12
 273 005e 2223      		tst r18
 274 0060 01F0      		breq .L20
 135:funsape/device/keypad.cpp ****     case Type::KEYPAD_4X4:
 136:funsape/device/keypad.cpp ****         clrMaskOffset(*(this->_linesDdr), 0x0F, this->_linesFirst);
 137:funsape/device/keypad.cpp ****         setMaskOffset(*(this->_linesPort), 0x0F, this->_linesFirst);
 138:funsape/device/keypad.cpp ****         setMaskOffset(*(this->_columnsDdr), 0x0F, this->_columnsFirst);
 139:funsape/device/keypad.cpp ****         setMaskOffset(*(this->_columnsPort), 0x0F, this->_columnsFirst);
 140:funsape/device/keypad.cpp ****         break;
 141:funsape/device/keypad.cpp ****     case Type::KEYPAD_4X3:
 142:funsape/device/keypad.cpp ****         clrMaskOffset(*(this->_linesDdr), 0x0F, this->_linesFirst);
 143:funsape/device/keypad.cpp ****         setMaskOffset(*(this->_linesPort), 0x0F, this->_linesFirst);
 144:funsape/device/keypad.cpp ****         setMaskOffset(*(this->_columnsDdr), 0x07, this->_columnsFirst);
 145:funsape/device/keypad.cpp ****         setMaskOffset(*(this->_columnsPort), 0x07, this->_columnsFirst);
 146:funsape/device/keypad.cpp ****         break;
 147:funsape/device/keypad.cpp ****     case Type::KEYPAD_5X3:
 148:funsape/device/keypad.cpp ****         clrMaskOffset(*(this->_linesDdr), 0x1F, this->_linesFirst);
 149:funsape/device/keypad.cpp ****         setMaskOffset(*(this->_linesPort), 0x1F, this->_linesFirst);
 150:funsape/device/keypad.cpp ****         setMaskOffset(*(this->_columnsDdr), 0x07, this->_columnsFirst);
 151:funsape/device/keypad.cpp ****         setMaskOffset(*(this->_columnsPort), 0x07, this->_columnsFirst);
 152:funsape/device/keypad.cpp ****         break;
 153:funsape/device/keypad.cpp ****     default:
 275               		.loc 2 153 5 is_stmt 1 view .LVU79
 154:funsape/device/keypad.cpp ****         // Returns error
 155:funsape/device/keypad.cpp ****         this->_lastError = Error::UNKNOWN;
 276               		.loc 2 155 9 view .LVU80
 277               		.loc 2 155 26 is_stmt 0 view .LVU81
 278 0062 8FEF      		ldi r24,lo8(-1)
 279 0064 9FEF      		ldi r25,lo8(-1)
 280 0066 928B      		std Z+18,r25
 281 0068 818B      		std Z+17,r24
 156:funsape/device/keypad.cpp ****         debugMessage(Error::UNKNOWN, DEBUG_KEYPAD);
 282               		.loc 2 156 9 is_stmt 1 view .LVU82
 283               		.loc 2 156 51 view .LVU83
 157:funsape/device/keypad.cpp ****         return false;
 284               		.loc 2 157 9 view .LVU84
 285               		.loc 2 157 16 is_stmt 0 view .LVU85
 286 006a 80E0      		ldi r24,0
 287 006c 00C0      		rjmp .L5
 288               	.L16:
 108:funsape/device/keypad.cpp ****         debugMessage(Error::GPIO_PORT_NOT_SET, DEBUG_KEYPAD);
 289               		.loc 2 108 9 is_stmt 1 view .LVU86
 108:funsape/device/keypad.cpp ****         debugMessage(Error::GPIO_PORT_NOT_SET, DEBUG_KEYPAD);
 290               		.loc 2 108 26 is_stmt 0 view .LVU87
 291 006e 20ED      		ldi r18,lo8(-48)
GAS LISTING C:\Users\kenne\AppData\Local\Temp\cc0aKx3b.s 			page 23


 292 0070 30E0      		ldi r19,0
 293 0072 328B      		std Z+18,r19
 294 0074 218B      		std Z+17,r18
 109:funsape/device/keypad.cpp ****         return false;
 295               		.loc 2 109 9 is_stmt 1 view .LVU88
 109:funsape/device/keypad.cpp ****         return false;
 296               		.loc 2 109 61 view .LVU89
 110:funsape/device/keypad.cpp ****     }
 297               		.loc 2 110 9 view .LVU90
 298               	.L5:
 299               	/* epilogue start */
 158:funsape/device/keypad.cpp ****     }
 159:funsape/device/keypad.cpp **** 
 160:funsape/device/keypad.cpp ****     // Update data members
 161:funsape/device/keypad.cpp ****     this->_debounceTime = debounceTime_p;
 162:funsape/device/keypad.cpp ****     this->_isInitialized = true;
 163:funsape/device/keypad.cpp **** 
 164:funsape/device/keypad.cpp ****     // Returns successfully
 165:funsape/device/keypad.cpp ****     this->_lastError = Error::NONE;
 166:funsape/device/keypad.cpp ****     debugMessage(Error::NONE, DEBUG_KEYPAD);
 167:funsape/device/keypad.cpp ****     return true;
 168:funsape/device/keypad.cpp **** }
 300               		.loc 2 168 1 is_stmt 0 view .LVU91
 301 0076 DF91      		pop r29
 302 0078 CF91      		pop r28
 303 007a 0895      		ret
 304               	.L17:
 115:funsape/device/keypad.cpp ****         debugMessage(Error::KEY_VALUES_NOT_SET, DEBUG_KEYPAD);
 305               		.loc 2 115 9 is_stmt 1 view .LVU92
 115:funsape/device/keypad.cpp ****         debugMessage(Error::KEY_VALUES_NOT_SET, DEBUG_KEYPAD);
 306               		.loc 2 115 26 is_stmt 0 view .LVU93
 307 007c 2EEF      		ldi r18,lo8(-2)
 308 007e 3FEF      		ldi r19,lo8(-1)
 309 0080 328B      		std Z+18,r19
 310 0082 218B      		std Z+17,r18
 116:funsape/device/keypad.cpp ****         return false;
 311               		.loc 2 116 9 is_stmt 1 view .LVU94
 116:funsape/device/keypad.cpp ****         return false;
 312               		.loc 2 116 62 view .LVU95
 117:funsape/device/keypad.cpp ****     }
 313               		.loc 2 117 9 view .LVU96
 117:funsape/device/keypad.cpp ****     }
 314               		.loc 2 117 16 is_stmt 0 view .LVU97
 315 0084 00C0      		rjmp .L5
 316               	.L18:
 122:funsape/device/keypad.cpp ****         debugMessage(Error::KEYPAD_LINES_PIN_INDEX_INVALID, DEBUG_KEYPAD);
 317               		.loc 2 122 9 is_stmt 1 view .LVU98
 122:funsape/device/keypad.cpp ****         debugMessage(Error::KEYPAD_LINES_PIN_INDEX_INVALID, DEBUG_KEYPAD);
 318               		.loc 2 122 26 is_stmt 0 view .LVU99
 319 0086 8AEF      		ldi r24,lo8(-6)
 320 0088 9FEF      		ldi r25,lo8(-1)
 321 008a 928B      		std Z+18,r25
 322 008c 818B      		std Z+17,r24
 123:funsape/device/keypad.cpp ****         return false;
 323               		.loc 2 123 9 is_stmt 1 view .LVU100
 123:funsape/device/keypad.cpp ****         return false;
 324               		.loc 2 123 74 view .LVU101
GAS LISTING C:\Users\kenne\AppData\Local\Temp\cc0aKx3b.s 			page 24


 124:funsape/device/keypad.cpp ****     }
 325               		.loc 2 124 9 view .LVU102
 124:funsape/device/keypad.cpp ****     }
 326               		.loc 2 124 16 is_stmt 0 view .LVU103
 327 008e 80E0      		ldi r24,0
 328 0090 00C0      		rjmp .L5
 329               	.L19:
 128:funsape/device/keypad.cpp ****         debugMessage(Error::KEYPAD_COLUMNS_PIN_INDEX_INVALID, DEBUG_KEYPAD);
 330               		.loc 2 128 9 is_stmt 1 view .LVU104
 128:funsape/device/keypad.cpp ****         debugMessage(Error::KEYPAD_COLUMNS_PIN_INDEX_INVALID, DEBUG_KEYPAD);
 331               		.loc 2 128 26 is_stmt 0 view .LVU105
 332 0092 89EF      		ldi r24,lo8(-7)
 333 0094 9FEF      		ldi r25,lo8(-1)
 334 0096 928B      		std Z+18,r25
 335 0098 818B      		std Z+17,r24
 129:funsape/device/keypad.cpp ****         return false;
 336               		.loc 2 129 9 is_stmt 1 view .LVU106
 129:funsape/device/keypad.cpp ****         return false;
 337               		.loc 2 129 76 view .LVU107
 130:funsape/device/keypad.cpp ****     }
 338               		.loc 2 130 9 view .LVU108
 130:funsape/device/keypad.cpp ****     }
 339               		.loc 2 130 16 is_stmt 0 view .LVU109
 340 009a 80E0      		ldi r24,0
 341 009c 00C0      		rjmp .L5
 342               	.L20:
 135:funsape/device/keypad.cpp ****         clrMaskOffset(*(this->_linesDdr), 0x0F, this->_linesFirst);
 343               		.loc 2 135 5 is_stmt 1 view .LVU110
 136:funsape/device/keypad.cpp ****         setMaskOffset(*(this->_linesPort), 0x0F, this->_linesFirst);
 344               		.loc 2 136 9 view .LVU111
 345 009e A081      		ld r26,Z
 346 00a0 B181      		ldd r27,Z+1
 347 00a2 7C91      		ld r23,X
 348 00a4 4FE0      		ldi r20,lo8(15)
 349 00a6 50E0      		ldi r21,0
 350 00a8 9A01      		movw r18,r20
 351 00aa 00C0      		rjmp 2f
 352               		1:
 353 00ac 220F      		lsl r18
 354 00ae 331F      		rol r19
 355               		2:
 356 00b0 9A95      		dec r25
 357 00b2 02F4      		brpl 1b
 358 00b4 2095      		com r18
 359 00b6 2723      		and r18,r23
 360 00b8 2C93      		st X,r18
 137:funsape/device/keypad.cpp ****         setMaskOffset(*(this->_columnsDdr), 0x0F, this->_columnsFirst);
 361               		.loc 2 137 9 view .LVU112
 362 00ba A281      		ldd r26,Z+2
 363 00bc B381      		ldd r27,Z+3
 364 00be 9C91      		ld r25,X
 365 00c0 2681      		ldd r18,Z+6
 366 00c2 2770      		andi r18,lo8(7)
 367 00c4 EA01      		movw r28,r20
 368 00c6 00C0      		rjmp 2f
 369               		1:
 370 00c8 CC0F      		lsl r28
GAS LISTING C:\Users\kenne\AppData\Local\Temp\cc0aKx3b.s 			page 25


 371 00ca DD1F      		rol r29
 372               		2:
 373 00cc 2A95      		dec r18
 374 00ce 02F4      		brpl 1b
 375 00d0 9C2B      		or r25,r28
 376 00d2 9C93      		st X,r25
 138:funsape/device/keypad.cpp ****         setMaskOffset(*(this->_columnsPort), 0x0F, this->_columnsFirst);
 377               		.loc 2 138 9 view .LVU113
 378 00d4 A781      		ldd r26,Z+7
 379 00d6 B085      		ldd r27,Z+8
 380 00d8 9C91      		ld r25,X
 381 00da 2385      		ldd r18,Z+11
 382 00dc 2770      		andi r18,lo8(7)
 383 00de EA01      		movw r28,r20
 384 00e0 00C0      		rjmp 2f
 385               		1:
 386 00e2 CC0F      		lsl r28
 387 00e4 DD1F      		rol r29
 388               		2:
 389 00e6 2A95      		dec r18
 390 00e8 02F4      		brpl 1b
 391 00ea 9C2B      		or r25,r28
 392 00ec 9C93      		st X,r25
 139:funsape/device/keypad.cpp ****         break;
 393               		.loc 2 139 9 view .LVU114
 394 00ee A185      		ldd r26,Z+9
 395 00f0 B285      		ldd r27,Z+10
 396 00f2 9C91      		ld r25,X
 397 00f4 2385      		ldd r18,Z+11
 398 00f6 2770      		andi r18,lo8(7)
 399 00f8 00C0      		rjmp 2f
 400               		1:
 401 00fa 440F      		lsl r20
 402 00fc 551F      		rol r21
 403               		2:
 404 00fe 2A95      		dec r18
 405 0100 02F4      		brpl 1b
 406 0102 942B      		or r25,r20
 407 0104 9C93      		st X,r25
 140:funsape/device/keypad.cpp ****     case Type::KEYPAD_4X3:
 408               		.loc 2 140 9 view .LVU115
 409               	.L14:
 161:funsape/device/keypad.cpp ****     this->_isInitialized = true;
 410               		.loc 2 161 5 view .LVU116
 161:funsape/device/keypad.cpp ****     this->_isInitialized = true;
 411               		.loc 2 161 27 is_stmt 0 view .LVU117
 412 0106 91E0      		ldi r25,lo8(1)
 413 0108 6111      		cpse r22,__zero_reg__
 414 010a 00C0      		rjmp .L15
 415 010c 90E0      		ldi r25,0
 416               	.L15:
 161:funsape/device/keypad.cpp ****     this->_isInitialized = true;
 417               		.loc 2 161 25 view .LVU118
 418 010e 990F      		lsl r25
 419 0110 2685      		ldd r18,Z+14
 420 0112 2170      		andi r18,lo8(1)
 421 0114 922B      		or r25,r18
GAS LISTING C:\Users\kenne\AppData\Local\Temp\cc0aKx3b.s 			page 26


 422 0116 9687      		std Z+14,r25
 162:funsape/device/keypad.cpp **** 
 423               		.loc 2 162 5 is_stmt 1 view .LVU119
 162:funsape/device/keypad.cpp **** 
 424               		.loc 2 162 26 is_stmt 0 view .LVU120
 425 0118 9160      		ori r25,lo8(1<<0)
 426 011a 9687      		std Z+14,r25
 165:funsape/device/keypad.cpp ****     debugMessage(Error::NONE, DEBUG_KEYPAD);
 427               		.loc 2 165 5 is_stmt 1 view .LVU121
 165:funsape/device/keypad.cpp ****     debugMessage(Error::NONE, DEBUG_KEYPAD);
 428               		.loc 2 165 22 is_stmt 0 view .LVU122
 429 011c 128A      		std Z+18,__zero_reg__
 430 011e 118A      		std Z+17,__zero_reg__
 166:funsape/device/keypad.cpp ****     return true;
 431               		.loc 2 166 5 is_stmt 1 view .LVU123
 166:funsape/device/keypad.cpp ****     return true;
 432               		.loc 2 166 44 view .LVU124
 167:funsape/device/keypad.cpp **** }
 433               		.loc 2 167 5 view .LVU125
 167:funsape/device/keypad.cpp **** }
 434               		.loc 2 167 12 is_stmt 0 view .LVU126
 435 0120 00C0      		rjmp .L5
 436               	.L11:
 141:funsape/device/keypad.cpp ****         clrMaskOffset(*(this->_linesDdr), 0x0F, this->_linesFirst);
 437               		.loc 2 141 5 is_stmt 1 view .LVU127
 142:funsape/device/keypad.cpp ****         setMaskOffset(*(this->_linesPort), 0x0F, this->_linesFirst);
 438               		.loc 2 142 9 view .LVU128
 439 0122 A081      		ld r26,Z
 440 0124 B181      		ldd r27,Z+1
 441 0126 7C91      		ld r23,X
 442 0128 4FE0      		ldi r20,lo8(15)
 443 012a 50E0      		ldi r21,0
 444 012c 9A01      		movw r18,r20
 445 012e 00C0      		rjmp 2f
 446               		1:
 447 0130 220F      		lsl r18
 448 0132 331F      		rol r19
 449               		2:
 450 0134 9A95      		dec r25
 451 0136 02F4      		brpl 1b
 452 0138 2095      		com r18
 453 013a 2723      		and r18,r23
 454 013c 2C93      		st X,r18
 143:funsape/device/keypad.cpp ****         setMaskOffset(*(this->_columnsDdr), 0x07, this->_columnsFirst);
 455               		.loc 2 143 9 view .LVU129
 456 013e A281      		ldd r26,Z+2
 457 0140 B381      		ldd r27,Z+3
 458 0142 9C91      		ld r25,X
 459 0144 2681      		ldd r18,Z+6
 460 0146 2770      		andi r18,lo8(7)
 461 0148 00C0      		rjmp 2f
 462               		1:
 463 014a 440F      		lsl r20
 464 014c 551F      		rol r21
 465               		2:
 466 014e 2A95      		dec r18
 467 0150 02F4      		brpl 1b
GAS LISTING C:\Users\kenne\AppData\Local\Temp\cc0aKx3b.s 			page 27


 468 0152 942B      		or r25,r20
 469 0154 9C93      		st X,r25
 144:funsape/device/keypad.cpp ****         setMaskOffset(*(this->_columnsPort), 0x07, this->_columnsFirst);
 470               		.loc 2 144 9 view .LVU130
 471 0156 A781      		ldd r26,Z+7
 472 0158 B085      		ldd r27,Z+8
 473 015a 9C91      		ld r25,X
 474 015c 2385      		ldd r18,Z+11
 475 015e 2770      		andi r18,lo8(7)
 476 0160 47E0      		ldi r20,lo8(7)
 477 0162 50E0      		ldi r21,0
 478 0164 EA01      		movw r28,r20
 479 0166 00C0      		rjmp 2f
 480               		1:
 481 0168 CC0F      		lsl r28
 482 016a DD1F      		rol r29
 483               		2:
 484 016c 2A95      		dec r18
 485 016e 02F4      		brpl 1b
 486 0170 9C2B      		or r25,r28
 487 0172 9C93      		st X,r25
 145:funsape/device/keypad.cpp ****         break;
 488               		.loc 2 145 9 view .LVU131
 489 0174 A185      		ldd r26,Z+9
 490 0176 B285      		ldd r27,Z+10
 491 0178 9C91      		ld r25,X
 492 017a 2385      		ldd r18,Z+11
 493 017c 2770      		andi r18,lo8(7)
 494 017e 00C0      		rjmp 2f
 495               		1:
 496 0180 440F      		lsl r20
 497 0182 551F      		rol r21
 498               		2:
 499 0184 2A95      		dec r18
 500 0186 02F4      		brpl 1b
 501 0188 942B      		or r25,r20
 502 018a 9C93      		st X,r25
 146:funsape/device/keypad.cpp ****     case Type::KEYPAD_5X3:
 503               		.loc 2 146 9 view .LVU132
 504 018c 00C0      		rjmp .L14
 505               	.L12:
 147:funsape/device/keypad.cpp ****         clrMaskOffset(*(this->_linesDdr), 0x1F, this->_linesFirst);
 506               		.loc 2 147 5 view .LVU133
 148:funsape/device/keypad.cpp ****         setMaskOffset(*(this->_linesPort), 0x1F, this->_linesFirst);
 507               		.loc 2 148 9 view .LVU134
 508 018e A081      		ld r26,Z
 509 0190 B181      		ldd r27,Z+1
 510 0192 7C91      		ld r23,X
 511 0194 4FE1      		ldi r20,lo8(31)
 512 0196 50E0      		ldi r21,0
 513 0198 9A01      		movw r18,r20
 514 019a 00C0      		rjmp 2f
 515               		1:
 516 019c 220F      		lsl r18
 517 019e 331F      		rol r19
 518               		2:
 519 01a0 9A95      		dec r25
GAS LISTING C:\Users\kenne\AppData\Local\Temp\cc0aKx3b.s 			page 28


 520 01a2 02F4      		brpl 1b
 521 01a4 2095      		com r18
 522 01a6 2723      		and r18,r23
 523 01a8 2C93      		st X,r18
 149:funsape/device/keypad.cpp ****         setMaskOffset(*(this->_columnsDdr), 0x07, this->_columnsFirst);
 524               		.loc 2 149 9 view .LVU135
 525 01aa A281      		ldd r26,Z+2
 526 01ac B381      		ldd r27,Z+3
 527 01ae 9C91      		ld r25,X
 528 01b0 2681      		ldd r18,Z+6
 529 01b2 2770      		andi r18,lo8(7)
 530 01b4 00C0      		rjmp 2f
 531               		1:
 532 01b6 440F      		lsl r20
 533 01b8 551F      		rol r21
 534               		2:
 535 01ba 2A95      		dec r18
 536 01bc 02F4      		brpl 1b
 537 01be 942B      		or r25,r20
 538 01c0 9C93      		st X,r25
 150:funsape/device/keypad.cpp ****         setMaskOffset(*(this->_columnsPort), 0x07, this->_columnsFirst);
 539               		.loc 2 150 9 view .LVU136
 540 01c2 A781      		ldd r26,Z+7
 541 01c4 B085      		ldd r27,Z+8
 542 01c6 9C91      		ld r25,X
 543 01c8 2385      		ldd r18,Z+11
 544 01ca 2770      		andi r18,lo8(7)
 545 01cc 47E0      		ldi r20,lo8(7)
 546 01ce 50E0      		ldi r21,0
 547 01d0 EA01      		movw r28,r20
 548 01d2 00C0      		rjmp 2f
 549               		1:
 550 01d4 CC0F      		lsl r28
 551 01d6 DD1F      		rol r29
 552               		2:
 553 01d8 2A95      		dec r18
 554 01da 02F4      		brpl 1b
 555 01dc 9C2B      		or r25,r28
 556 01de 9C93      		st X,r25
 151:funsape/device/keypad.cpp ****         break;
 557               		.loc 2 151 9 view .LVU137
 558 01e0 A185      		ldd r26,Z+9
 559 01e2 B285      		ldd r27,Z+10
 560 01e4 9C91      		ld r25,X
 561 01e6 2385      		ldd r18,Z+11
 562 01e8 2770      		andi r18,lo8(7)
 563 01ea 00C0      		rjmp 2f
 564               		1:
 565 01ec 440F      		lsl r20
 566 01ee 551F      		rol r21
 567               		2:
 568 01f0 2A95      		dec r18
 569 01f2 02F4      		brpl 1b
 570 01f4 942B      		or r25,r20
 571 01f6 9C93      		st X,r25
 152:funsape/device/keypad.cpp ****     default:
 572               		.loc 2 152 9 view .LVU138
GAS LISTING C:\Users\kenne\AppData\Local\Temp\cc0aKx3b.s 			page 29


 573 01f8 00C0      		rjmp .L14
 574               		.cfi_endproc
 575               	.LFE39:
 577               		.section	.text._ZN6Keypad8setPortsEPVhhS1_h,"ax",@progbits
 578               	.global	_ZN6Keypad8setPortsEPVhhS1_h
 580               	_ZN6Keypad8setPortsEPVhhS1_h:
 581               	.LVL7:
 582               	.LFB40:
 169:funsape/device/keypad.cpp **** 
 170:funsape/device/keypad.cpp **** bool_t Keypad::setPorts(ioRegAddress_t linesRegAddress_p, ioPinIndex_t linesFirstPin_p,
 171:funsape/device/keypad.cpp ****         ioRegAddress_t columnsRegAddress_p, ioPinIndex_t columnsFirstPin_p)
 172:funsape/device/keypad.cpp **** {
 583               		.loc 2 172 1 view -0
 584               		.cfi_startproc
 585               		.loc 2 172 1 is_stmt 0 view .LVU140
 586 0000 0F93      		push r16
 587               		.cfi_def_cfa_offset 3
 588               		.cfi_offset 16, -2
 589 0002 CF93      		push r28
 590               		.cfi_def_cfa_offset 4
 591               		.cfi_offset 28, -3
 592 0004 DF93      		push r29
 593               		.cfi_def_cfa_offset 5
 594               		.cfi_offset 29, -4
 595               	/* prologue: function */
 596               	/* frame size = 0 */
 597               	/* stack size = 3 */
 598               	.L__stack_usage = 3
 599 0006 E82F      		mov r30,r24
 600 0008 F92F      		mov r31,r25
 601 000a 862F      		mov r24,r22
 602               	.LVL8:
 603               		.loc 2 172 1 view .LVU141
 604 000c 972F      		mov r25,r23
 605 000e C22F      		mov r28,r18
 606 0010 D32F      		mov r29,r19
 173:funsape/device/keypad.cpp ****     // Marks passage for debugging purpose
 174:funsape/device/keypad.cpp ****     debugMark("Keypad::setPorts(ioRegAddress_t, ioPinIndex_t, ioRegAddress_t, ioPinIndex_t)", DEBUG
 607               		.loc 2 174 5 is_stmt 1 view .LVU142
 608               		.loc 2 174 108 view .LVU143
 175:funsape/device/keypad.cpp **** 
 176:funsape/device/keypad.cpp ****     // Resets data members
 177:funsape/device/keypad.cpp ****     this->_linesDdr             = nullptr;
 609               		.loc 2 177 5 view .LVU144
 610               		.loc 2 177 33 is_stmt 0 view .LVU145
 611 0012 1182      		std Z+1,__zero_reg__
 612 0014 1082      		st Z,__zero_reg__
 178:funsape/device/keypad.cpp ****     this->_linesPort            = nullptr;
 613               		.loc 2 178 5 is_stmt 1 view .LVU146
 614               		.loc 2 178 33 is_stmt 0 view .LVU147
 615 0016 1382      		std Z+3,__zero_reg__
 616 0018 1282      		std Z+2,__zero_reg__
 179:funsape/device/keypad.cpp ****     this->_linesPin             = nullptr;
 617               		.loc 2 179 5 is_stmt 1 view .LVU148
 618               		.loc 2 179 33 is_stmt 0 view .LVU149
 619 001a 1582      		std Z+5,__zero_reg__
 620 001c 1482      		std Z+4,__zero_reg__
GAS LISTING C:\Users\kenne\AppData\Local\Temp\cc0aKx3b.s 			page 30


 180:funsape/device/keypad.cpp ****     this->_linesFirst           = 0;
 621               		.loc 2 180 5 is_stmt 1 view .LVU150
 622               		.loc 2 180 33 is_stmt 0 view .LVU151
 623 001e 2681      		ldd r18,Z+6
 624               	.LVL9:
 625               		.loc 2 180 33 view .LVU152
 626 0020 287F      		andi r18,lo8(-8)
 627 0022 2683      		std Z+6,r18
 181:funsape/device/keypad.cpp ****     this->_columnsDdr           = nullptr;
 628               		.loc 2 181 5 is_stmt 1 view .LVU153
 629               		.loc 2 181 33 is_stmt 0 view .LVU154
 630 0024 1086      		std Z+8,__zero_reg__
 631 0026 1782      		std Z+7,__zero_reg__
 182:funsape/device/keypad.cpp ****     this->_columnsPort          = nullptr;
 632               		.loc 2 182 5 is_stmt 1 view .LVU155
 633               		.loc 2 182 33 is_stmt 0 view .LVU156
 634 0028 1286      		std Z+10,__zero_reg__
 635 002a 1186      		std Z+9,__zero_reg__
 183:funsape/device/keypad.cpp ****     this->_columnsFirst         = 0;
 636               		.loc 2 183 5 is_stmt 1 view .LVU157
 637               		.loc 2 183 33 is_stmt 0 view .LVU158
 638 002c 2385      		ldd r18,Z+11
 639 002e 287F      		andi r18,lo8(-8)
 640 0030 2387      		std Z+11,r18
 184:funsape/device/keypad.cpp ****     this->_isPortsSet           = false;
 641               		.loc 2 184 5 is_stmt 1 view .LVU159
 642               		.loc 2 184 33 is_stmt 0 view .LVU160
 643 0032 2585      		ldd r18,Z+13
 644 0034 2F7B      		andi r18,lo8(~(1<<6))
 645 0036 2587      		std Z+13,r18
 185:funsape/device/keypad.cpp **** 
 186:funsape/device/keypad.cpp ****     // Check for errors
 187:funsape/device/keypad.cpp ****     if(!isGpioAddressValid(linesRegAddress_p)) {
 646               		.loc 2 187 5 is_stmt 1 view .LVU161
 647               		.loc 2 187 9 is_stmt 0 view .LVU162
 648 0038 9C01      		movw r18,r24
 649 003a 2352      		subi r18,35
 650 003c 3109      		sbc r19,__zero_reg__
 651               		.loc 2 187 5 view .LVU163
 652 003e 2930      		cpi r18,9
 653 0040 3105      		cpc r19,__zero_reg__
 654 0042 00F0      		brlo .+2
 655 0044 00C0      		rjmp .L25
 188:funsape/device/keypad.cpp ****         // Returns error
 189:funsape/device/keypad.cpp ****         this->_lastError = Error::KEYPAD_LINES_GPIO_PORT_INVALID;
 190:funsape/device/keypad.cpp ****         debugMessage(Error::KEYPAD_LINES_GPIO_PORT_INVALID, DEBUG_KEYPAD);
 191:funsape/device/keypad.cpp ****         return false;
 192:funsape/device/keypad.cpp ****     }
 193:funsape/device/keypad.cpp ****     if(!isGpioAddressValid(columnsRegAddress_p)) {
 656               		.loc 2 193 5 is_stmt 1 view .LVU164
 657               		.loc 2 193 9 is_stmt 0 view .LVU165
 658 0046 9E01      		movw r18,r28
 659 0048 2352      		subi r18,35
 660 004a 3109      		sbc r19,__zero_reg__
 661               		.loc 2 193 5 view .LVU166
 662 004c 2930      		cpi r18,9
 663 004e 3105      		cpc r19,__zero_reg__
GAS LISTING C:\Users\kenne\AppData\Local\Temp\cc0aKx3b.s 			page 31


 664 0050 00F0      		brlo .+2
 665 0052 00C0      		rjmp .L26
 194:funsape/device/keypad.cpp ****         // Returns error
 195:funsape/device/keypad.cpp ****         this->_lastError = Error::KEYPAD_COLUMNS_GPIO_PORT_INVALID;
 196:funsape/device/keypad.cpp ****         debugMessage(Error::KEYPAD_COLUMNS_GPIO_PORT_INVALID, DEBUG_KEYPAD);
 197:funsape/device/keypad.cpp ****         return false;
 198:funsape/device/keypad.cpp ****     }
 199:funsape/device/keypad.cpp **** 
 200:funsape/device/keypad.cpp ****     // Updates data members
 201:funsape/device/keypad.cpp ****     this->_linesDdr             = getGpioDdrAddress(linesRegAddress_p);
 666               		.loc 2 201 5 is_stmt 1 view .LVU167
 667               		.loc 2 201 35 is_stmt 0 view .LVU168
 668 0054 9C01      		movw r18,r24
 669 0056 2052      		subi r18,32
 670 0058 3109      		sbc r19,__zero_reg__
 671 005a ABEA      		ldi r26,lo8(-85)
 672 005c BAEA      		ldi r27,lo8(-86)
 673 005e 0E94 0000 		call __umulhisi3
 674               	.LVL10:
 675               		.loc 2 201 35 view .LVU169
 676 0062 9C01      		movw r18,r24
 677 0064 3695      		lsr r19
 678 0066 2795      		ror r18
 679 0068 8E7F      		andi r24,254
 680 006a 820F      		add r24,r18
 681 006c 931F      		adc r25,r19
 682 006e 9C01      		movw r18,r24
 683 0070 2F5D      		subi r18,-33
 684 0072 3F4F      		sbci r19,-1
 685               		.loc 2 201 33 view .LVU170
 686 0074 3183      		std Z+1,r19
 687 0076 2083      		st Z,r18
 202:funsape/device/keypad.cpp ****     this->_linesPort            = getGpioPortAddress(linesRegAddress_p);
 688               		.loc 2 202 5 is_stmt 1 view .LVU171
 689               		.loc 2 202 35 is_stmt 0 view .LVU172
 690 0078 2F5F      		subi r18,-1
 691 007a 3F4F      		sbci r19,-1
 692               		.loc 2 202 33 view .LVU173
 693 007c 3383      		std Z+3,r19
 694 007e 2283      		std Z+2,r18
 203:funsape/device/keypad.cpp ****     this->_linesPin             = getGpioPinAddress(linesRegAddress_p);
 695               		.loc 2 203 5 is_stmt 1 view .LVU174
 696               		.loc 2 203 35 is_stmt 0 view .LVU175
 697 0080 8096      		adiw r24,32
 698               		.loc 2 203 33 view .LVU176
 699 0082 9583      		std Z+5,r25
 700 0084 8483      		std Z+4,r24
 204:funsape/device/keypad.cpp ****     this->_linesFirst           = linesFirstPin_p;
 701               		.loc 2 204 5 is_stmt 1 view .LVU177
 702               		.loc 2 204 35 is_stmt 0 view .LVU178
 703 0086 4770      		andi r20,lo8(7)
 704               	.LVL11:
 705               		.loc 2 204 33 view .LVU179
 706 0088 8681      		ldd r24,Z+6
 707 008a 887F      		andi r24,lo8(-8)
 708 008c 482B      		or r20,r24
 709 008e 4683      		std Z+6,r20
GAS LISTING C:\Users\kenne\AppData\Local\Temp\cc0aKx3b.s 			page 32


 205:funsape/device/keypad.cpp ****     this->_columnsDdr           = getGpioDdrAddress(columnsRegAddress_p);
 710               		.loc 2 205 5 is_stmt 1 view .LVU180
 711               		.loc 2 205 35 is_stmt 0 view .LVU181
 712 0090 9E01      		movw r18,r28
 713 0092 2052      		subi r18,32
 714 0094 3109      		sbc r19,__zero_reg__
 715 0096 0E94 0000 		call __umulhisi3
 716 009a 9C01      		movw r18,r24
 717 009c 3695      		lsr r19
 718 009e 2795      		ror r18
 719 00a0 8E7F      		andi r24,254
 720 00a2 820F      		add r24,r18
 721 00a4 931F      		adc r25,r19
 722 00a6 9C01      		movw r18,r24
 723 00a8 2F5D      		subi r18,-33
 724 00aa 3F4F      		sbci r19,-1
 725               		.loc 2 205 33 view .LVU182
 726 00ac 3087      		std Z+8,r19
 727 00ae 2783      		std Z+7,r18
 206:funsape/device/keypad.cpp ****     this->_columnsPort          = getGpioPortAddress(columnsRegAddress_p);
 728               		.loc 2 206 5 is_stmt 1 view .LVU183
 729               		.loc 2 206 35 is_stmt 0 view .LVU184
 730 00b0 8296      		adiw r24,34
 731               		.loc 2 206 33 view .LVU185
 732 00b2 9287      		std Z+10,r25
 733 00b4 8187      		std Z+9,r24
 207:funsape/device/keypad.cpp ****     this->_columnsFirst         = columnsFirstPin_p;
 734               		.loc 2 207 5 is_stmt 1 view .LVU186
 735               		.loc 2 207 35 is_stmt 0 view .LVU187
 736 00b6 0770      		andi r16,lo8(7)
 737               	.LVL12:
 738               		.loc 2 207 33 view .LVU188
 739 00b8 8385      		ldd r24,Z+11
 740 00ba 887F      		andi r24,lo8(-8)
 741 00bc 082B      		or r16,r24
 742 00be 0387      		std Z+11,r16
 208:funsape/device/keypad.cpp ****     this->_isPortsSet           = true;
 743               		.loc 2 208 5 is_stmt 1 view .LVU189
 744               		.loc 2 208 33 is_stmt 0 view .LVU190
 745 00c0 8585      		ldd r24,Z+13
 746 00c2 8064      		ori r24,lo8(1<<6)
 747 00c4 8587      		std Z+13,r24
 209:funsape/device/keypad.cpp **** 
 210:funsape/device/keypad.cpp ****     // Returns successfully
 211:funsape/device/keypad.cpp ****     this->_lastError = Error::NONE;
 748               		.loc 2 211 5 is_stmt 1 view .LVU191
 749               		.loc 2 211 22 is_stmt 0 view .LVU192
 750 00c6 128A      		std Z+18,__zero_reg__
 751 00c8 118A      		std Z+17,__zero_reg__
 212:funsape/device/keypad.cpp ****     debugMessage(Error::NONE, DEBUG_KEYPAD);
 752               		.loc 2 212 5 is_stmt 1 view .LVU193
 753               		.loc 2 212 44 view .LVU194
 213:funsape/device/keypad.cpp ****     return true;
 754               		.loc 2 213 5 view .LVU195
 755               		.loc 2 213 12 is_stmt 0 view .LVU196
 756 00ca 81E0      		ldi r24,lo8(1)
 757               	.L21:
GAS LISTING C:\Users\kenne\AppData\Local\Temp\cc0aKx3b.s 			page 33


 758               	/* epilogue start */
 214:funsape/device/keypad.cpp **** }
 759               		.loc 2 214 1 view .LVU197
 760 00cc DF91      		pop r29
 761 00ce CF91      		pop r28
 762 00d0 0F91      		pop r16
 763 00d2 0895      		ret
 764               	.LVL13:
 765               	.L25:
 189:funsape/device/keypad.cpp ****         debugMessage(Error::KEYPAD_LINES_GPIO_PORT_INVALID, DEBUG_KEYPAD);
 766               		.loc 2 189 9 is_stmt 1 view .LVU198
 189:funsape/device/keypad.cpp ****         debugMessage(Error::KEYPAD_LINES_GPIO_PORT_INVALID, DEBUG_KEYPAD);
 767               		.loc 2 189 26 is_stmt 0 view .LVU199
 768 00d4 8BEF      		ldi r24,lo8(-5)
 769 00d6 9FEF      		ldi r25,lo8(-1)
 770 00d8 928B      		std Z+18,r25
 771 00da 818B      		std Z+17,r24
 190:funsape/device/keypad.cpp ****         return false;
 772               		.loc 2 190 9 is_stmt 1 view .LVU200
 190:funsape/device/keypad.cpp ****         return false;
 773               		.loc 2 190 74 view .LVU201
 191:funsape/device/keypad.cpp ****     }
 774               		.loc 2 191 9 view .LVU202
 191:funsape/device/keypad.cpp ****     }
 775               		.loc 2 191 16 is_stmt 0 view .LVU203
 776 00dc 80E0      		ldi r24,0
 777 00de 00C0      		rjmp .L21
 778               	.L26:
 195:funsape/device/keypad.cpp ****         debugMessage(Error::KEYPAD_COLUMNS_GPIO_PORT_INVALID, DEBUG_KEYPAD);
 779               		.loc 2 195 9 is_stmt 1 view .LVU204
 195:funsape/device/keypad.cpp ****         debugMessage(Error::KEYPAD_COLUMNS_GPIO_PORT_INVALID, DEBUG_KEYPAD);
 780               		.loc 2 195 26 is_stmt 0 view .LVU205
 781 00e0 8CEF      		ldi r24,lo8(-4)
 782 00e2 9FEF      		ldi r25,lo8(-1)
 783 00e4 928B      		std Z+18,r25
 784 00e6 818B      		std Z+17,r24
 196:funsape/device/keypad.cpp ****         return false;
 785               		.loc 2 196 9 is_stmt 1 view .LVU206
 196:funsape/device/keypad.cpp ****         return false;
 786               		.loc 2 196 76 view .LVU207
 197:funsape/device/keypad.cpp ****     }
 787               		.loc 2 197 9 view .LVU208
 197:funsape/device/keypad.cpp ****     }
 788               		.loc 2 197 16 is_stmt 0 view .LVU209
 789 00e8 80E0      		ldi r24,0
 790 00ea 00C0      		rjmp .L21
 791               		.cfi_endproc
 792               	.LFE40:
 794               		.section	.text._ZN6Keypad12setKeyValuesENS_4TypeEz,"ax",@progbits
 795               	.global	_ZN6Keypad12setKeyValuesENS_4TypeEz
 797               	_ZN6Keypad12setKeyValuesENS_4TypeEz:
 798               	.LVL14:
 799               	.LFB41:
 215:funsape/device/keypad.cpp **** 
 216:funsape/device/keypad.cpp **** bool_t Keypad::setKeyValues(Type type_p, ...)
 217:funsape/device/keypad.cpp **** {
 800               		.loc 2 217 1 is_stmt 1 view -0
GAS LISTING C:\Users\kenne\AppData\Local\Temp\cc0aKx3b.s 			page 34


 801               		.cfi_startproc
 802               		.loc 2 217 1 is_stmt 0 view .LVU211
 803 0000 DF92      		push r13
 804               		.cfi_def_cfa_offset 3
 805               		.cfi_offset 13, -2
 806 0002 EF92      		push r14
 807               		.cfi_def_cfa_offset 4
 808               		.cfi_offset 14, -3
 809 0004 FF92      		push r15
 810               		.cfi_def_cfa_offset 5
 811               		.cfi_offset 15, -4
 812 0006 0F93      		push r16
 813               		.cfi_def_cfa_offset 6
 814               		.cfi_offset 16, -5
 815 0008 1F93      		push r17
 816               		.cfi_def_cfa_offset 7
 817               		.cfi_offset 17, -6
 818 000a CF93      		push r28
 819               		.cfi_def_cfa_offset 8
 820               		.cfi_offset 28, -7
 821 000c DF93      		push r29
 822               		.cfi_def_cfa_offset 9
 823               		.cfi_offset 29, -8
 824 000e 00D0      		rcall .
 825               		.cfi_def_cfa_offset 11
 826 0010 CDB7      		in r28,__SP_L__
 827 0012 DEB7      		in r29,__SP_H__
 828               		.cfi_def_cfa_register 28
 829               	/* prologue: function */
 830               	/* frame size = 2 */
 831               	/* stack size = 9 */
 832               	.L__stack_usage = 9
 833 0014 0C85      		ldd r16,Y+12
 834 0016 1D85      		ldd r17,Y+13
 835               	.LVL15:
 836               		.loc 2 217 1 view .LVU212
 837 0018 8E85      		ldd r24,Y+14
 838               	.LVL16:
 218:funsape/device/keypad.cpp ****     // Marks passage for debugging purpose
 219:funsape/device/keypad.cpp ****     debugMark("Keypad::setKeyValues(Keypad::Type, ...)", DEBUG_KEYPAD);
 839               		.loc 2 219 5 is_stmt 1 view .LVU213
 840               		.loc 2 219 71 view .LVU214
 220:funsape/device/keypad.cpp **** 
 221:funsape/device/keypad.cpp ****     // Reset data members
 222:funsape/device/keypad.cpp ****     this->_isKeyValuesSet = false;
 841               		.loc 2 222 5 view .LVU215
 842               		.loc 2 222 27 is_stmt 0 view .LVU216
 843 001a D801      		movw r26,r16
 844 001c 1D96      		adiw r26,13
 845 001e 9C91      		ld r25,X
 846 0020 1D97      		sbiw r26,13
 847 0022 9F77      		andi r25,lo8(~(1<<7))
 848 0024 1D96      		adiw r26,13
 849 0026 9C93      		st X,r25
 850 0028 1D97      		sbiw r26,13
 223:funsape/device/keypad.cpp **** 
 224:funsape/device/keypad.cpp ****     // Keypad type
GAS LISTING C:\Users\kenne\AppData\Local\Temp\cc0aKx3b.s 			page 35


 225:funsape/device/keypad.cpp ****     switch(type_p) {
 851               		.loc 2 225 5 is_stmt 1 view .LVU217
 852 002a 8130      		cpi r24,lo8(1)
 853 002c 01F4      		brne .+2
 854 002e 00C0      		rjmp .L28
 855 0030 8230      		cpi r24,lo8(2)
 856 0032 01F4      		brne .+2
 857 0034 00C0      		rjmp .L29
 858 0036 8823      		tst r24
 859 0038 01F0      		breq .L38
 226:funsape/device/keypad.cpp ****     case Type::KEYPAD_4X4:
 227:funsape/device/keypad.cpp ****         this->_linesMax = 3;
 228:funsape/device/keypad.cpp ****         this->_columnsMax = 3;
 229:funsape/device/keypad.cpp ****         ;
 230:funsape/device/keypad.cpp ****         break;
 231:funsape/device/keypad.cpp ****     case Type::KEYPAD_4X3:
 232:funsape/device/keypad.cpp ****         this->_linesMax = 3;
 233:funsape/device/keypad.cpp ****         this->_columnsMax = 2;
 234:funsape/device/keypad.cpp ****         ;
 235:funsape/device/keypad.cpp ****         break;
 236:funsape/device/keypad.cpp ****     case Type::KEYPAD_5X3:
 237:funsape/device/keypad.cpp ****         this->_linesMax = 4;
 238:funsape/device/keypad.cpp ****         this->_columnsMax = 2;
 239:funsape/device/keypad.cpp ****         break;
 240:funsape/device/keypad.cpp ****     default:
 860               		.loc 2 240 5 view .LVU218
 241:funsape/device/keypad.cpp ****         // Returns error
 242:funsape/device/keypad.cpp ****         this->_lastError = Error::KEYPAD_TYPE_UNSUPPORTED;
 861               		.loc 2 242 9 view .LVU219
 862               		.loc 2 242 26 is_stmt 0 view .LVU220
 863 003a 8DEF      		ldi r24,lo8(-3)
 864 003c 9FEF      		ldi r25,lo8(-1)
 865               	.LVL17:
 866               		.loc 2 242 26 view .LVU221
 867 003e F801      		movw r30,r16
 868 0040 928B      		std Z+18,r25
 869 0042 818B      		std Z+17,r24
 243:funsape/device/keypad.cpp ****         debugMessage(Error::KEYPAD_TYPE_UNSUPPORTED, DEBUG_KEYPAD);
 870               		.loc 2 243 9 is_stmt 1 view .LVU222
 871               		.loc 2 243 67 view .LVU223
 244:funsape/device/keypad.cpp ****         return false;
 872               		.loc 2 244 9 view .LVU224
 873               		.loc 2 244 16 is_stmt 0 view .LVU225
 874 0044 80E0      		ldi r24,0
 875 0046 00C0      		rjmp .L27
 876               	.LVL18:
 877               	.L38:
 226:funsape/device/keypad.cpp ****         this->_linesMax = 3;
 878               		.loc 2 226 5 is_stmt 1 view .LVU226
 227:funsape/device/keypad.cpp ****         this->_columnsMax = 3;
 879               		.loc 2 227 9 view .LVU227
 227:funsape/device/keypad.cpp ****         this->_columnsMax = 3;
 880               		.loc 2 227 25 is_stmt 0 view .LVU228
 881 0048 977C      		andi r25,lo8(-57)
 882 004a 9861      		ori r25,lo8(24)
 883 004c 1D96      		adiw r26,13
 884 004e 9C93      		st X,r25
GAS LISTING C:\Users\kenne\AppData\Local\Temp\cc0aKx3b.s 			page 36


 885 0050 1D97      		sbiw r26,13
 228:funsape/device/keypad.cpp ****         ;
 886               		.loc 2 228 9 is_stmt 1 view .LVU229
 228:funsape/device/keypad.cpp ****         ;
 887               		.loc 2 228 27 is_stmt 0 view .LVU230
 888 0052 987F      		andi r25,lo8(-8)
 889 0054 9360      		ori r25,lo8(3)
 890 0056 1D96      		adiw r26,13
 891 0058 9C93      		st X,r25
 229:funsape/device/keypad.cpp ****         break;
 892               		.loc 2 229 9 is_stmt 1 view .LVU231
 230:funsape/device/keypad.cpp ****     case Type::KEYPAD_4X3:
 893               		.loc 2 230 9 view .LVU232
 894               	.L31:
 245:funsape/device/keypad.cpp ****     }
 246:funsape/device/keypad.cpp ****     this->_type = type_p;
 895               		.loc 2 246 5 view .LVU233
 896               		.loc 2 246 17 is_stmt 0 view .LVU234
 897 005a D801      		movw r26,r16
 898 005c 1C96      		adiw r26,12
 899 005e 8C93      		st X,r24
 900 0060 1C97      		sbiw r26,12
 247:funsape/device/keypad.cpp **** 
 248:funsape/device/keypad.cpp ****     // Memory allocation
 249:funsape/device/keypad.cpp ****     this->_keyValue = (uint8_t *)realloc(this->_keyValue, (this->_linesMax + 1) * (this->_columnsMa
 901               		.loc 2 249 5 is_stmt 1 view .LVU235
 902               		.loc 2 249 66 is_stmt 0 view .LVU236
 903 0062 1D96      		adiw r26,13
 904 0064 8C91      		ld r24,X
 905 0066 1D97      		sbiw r26,13
 906               	.LVL19:
 907               		.loc 2 249 66 view .LVU237
 908 0068 282F      		mov r18,r24
 909 006a 2695      		lsr r18
 910 006c 2695      		lsr r18
 911 006e 2695      		lsr r18
 912 0070 2770      		andi r18,lo8(7)
 913 0072 30E0      		ldi r19,0
 914               		.loc 2 249 76 view .LVU238
 915 0074 2F5F      		subi r18,-1
 916 0076 3F4F      		sbci r19,-1
 917               		.loc 2 249 90 view .LVU239
 918 0078 8770      		andi r24,lo8(7)
 919 007a 90E0      		ldi r25,0
 920               		.loc 2 249 102 view .LVU240
 921 007c 0196      		adiw r24,1
 922               		.loc 2 249 81 view .LVU241
 923 007e 289F      		mul r18,r24
 924 0080 B001      		movw r22,r0
 925 0082 299F      		mul r18,r25
 926 0084 700D      		add r23,r0
 927 0086 389F      		mul r19,r24
 928 0088 700D      		add r23,r0
 929 008a 1124      		clr r1
 930               		.loc 2 249 41 view .LVU242
 931 008c 1F96      		adiw r26,15
 932 008e 8D91      		ld r24,X+
GAS LISTING C:\Users\kenne\AppData\Local\Temp\cc0aKx3b.s 			page 37


 933 0090 9C91      		ld r25,X
 934 0092 0E94 0000 		call realloc
 935               	.LVL20:
 936               		.loc 2 249 41 view .LVU243
 937 0096 282F      		mov r18,r24
 938 0098 392F      		mov r19,r25
 939               		.loc 2 249 21 view .LVU244
 940 009a F801      		movw r30,r16
 941 009c 308B      		std Z+16,r19
 942 009e 2787      		std Z+15,r18
 250:funsape/device/keypad.cpp ****     if(!isPointerValid(this->_keyValue)) {
 943               		.loc 2 250 5 is_stmt 1 view .LVU245
 944 00a0 232B      		or r18,r19
 945 00a2 01F0      		breq .L39
 946               	.LVL21:
 251:funsape/device/keypad.cpp ****         // Returns error
 252:funsape/device/keypad.cpp ****         this->_lastError = Error::MEMORY_ALLOCATION;
 253:funsape/device/keypad.cpp ****         debugMessage(Error::MEMORY_ALLOCATION, DEBUG_KEYPAD);
 254:funsape/device/keypad.cpp ****         return false;
 255:funsape/device/keypad.cpp ****     }
 256:funsape/device/keypad.cpp **** 
 257:funsape/device/keypad.cpp ****     // Updates key values
 258:funsape/device/keypad.cpp ****     do {
 947               		.loc 2 258 5 view .LVU246
 948               	.LBB15:
 259:funsape/device/keypad.cpp ****         va_list auxArgs;
 949               		.loc 2 259 9 view .LVU247
 260:funsape/device/keypad.cpp ****         va_start(auxArgs, type_p);
 950               		.loc 2 260 9 view .LVU248
 951 00a4 CE01      		movw r24,r28
 952 00a6 0F96      		adiw r24,15
 953 00a8 9A83      		std Y+2,r25
 954 00aa 8983      		std Y+1,r24
 261:funsape/device/keypad.cpp ****         for(uint8_t i = 0; i < (this->_linesMax + 1); i++) {
 955               		.loc 2 261 9 view .LVU249
 956               	.LVL22:
 957               	.LBB16:
 958               		.loc 2 261 21 is_stmt 0 view .LVU250
 959 00ac D12C      		mov r13,__zero_reg__
 960               		.loc 2 261 9 view .LVU251
 961 00ae 00C0      		rjmp .L34
 962               	.LVL23:
 963               	.L28:
 964               		.loc 2 261 9 view .LVU252
 965               	.LBE16:
 966               	.LBE15:
 231:funsape/device/keypad.cpp ****         this->_linesMax = 3;
 967               		.loc 2 231 5 is_stmt 1 view .LVU253
 232:funsape/device/keypad.cpp ****         this->_columnsMax = 2;
 968               		.loc 2 232 9 view .LVU254
 232:funsape/device/keypad.cpp ****         this->_columnsMax = 2;
 969               		.loc 2 232 25 is_stmt 0 view .LVU255
 970 00b0 F801      		movw r30,r16
 971 00b2 9585      		ldd r25,Z+13
 972 00b4 977C      		andi r25,lo8(-57)
 973 00b6 9861      		ori r25,lo8(24)
 974 00b8 9587      		std Z+13,r25
GAS LISTING C:\Users\kenne\AppData\Local\Temp\cc0aKx3b.s 			page 38


 233:funsape/device/keypad.cpp ****         ;
 975               		.loc 2 233 9 is_stmt 1 view .LVU256
 233:funsape/device/keypad.cpp ****         ;
 976               		.loc 2 233 27 is_stmt 0 view .LVU257
 977 00ba 987F      		andi r25,lo8(-8)
 978 00bc 9260      		ori r25,lo8(2)
 979 00be 9587      		std Z+13,r25
 234:funsape/device/keypad.cpp ****         break;
 980               		.loc 2 234 9 is_stmt 1 view .LVU258
 235:funsape/device/keypad.cpp ****     case Type::KEYPAD_5X3:
 981               		.loc 2 235 9 view .LVU259
 982 00c0 00C0      		rjmp .L31
 983               	.L29:
 236:funsape/device/keypad.cpp ****         this->_linesMax = 4;
 984               		.loc 2 236 5 view .LVU260
 237:funsape/device/keypad.cpp ****         this->_columnsMax = 2;
 985               		.loc 2 237 9 view .LVU261
 237:funsape/device/keypad.cpp ****         this->_columnsMax = 2;
 986               		.loc 2 237 25 is_stmt 0 view .LVU262
 987 00c2 1D96      		adiw r26,13
 988 00c4 9C91      		ld r25,X
 989 00c6 1D97      		sbiw r26,13
 990 00c8 977C      		andi r25,lo8(-57)
 991 00ca 9062      		ori r25,lo8(32)
 992 00cc 1D96      		adiw r26,13
 993 00ce 9C93      		st X,r25
 994 00d0 1D97      		sbiw r26,13
 238:funsape/device/keypad.cpp ****         break;
 995               		.loc 2 238 9 is_stmt 1 view .LVU263
 238:funsape/device/keypad.cpp ****         break;
 996               		.loc 2 238 27 is_stmt 0 view .LVU264
 997 00d2 987F      		andi r25,lo8(-8)
 998 00d4 9260      		ori r25,lo8(2)
 999 00d6 1D96      		adiw r26,13
 1000 00d8 9C93      		st X,r25
 239:funsape/device/keypad.cpp ****     default:
 1001               		.loc 2 239 9 is_stmt 1 view .LVU265
 1002 00da 00C0      		rjmp .L31
 1003               	.LVL24:
 1004               	.L39:
 252:funsape/device/keypad.cpp ****         debugMessage(Error::MEMORY_ALLOCATION, DEBUG_KEYPAD);
 1005               		.loc 2 252 9 view .LVU266
 252:funsape/device/keypad.cpp ****         debugMessage(Error::MEMORY_ALLOCATION, DEBUG_KEYPAD);
 1006               		.loc 2 252 26 is_stmt 0 view .LVU267
 1007 00dc 8BE0      		ldi r24,lo8(11)
 1008 00de 90E0      		ldi r25,0
 1009 00e0 928B      		std Z+18,r25
 1010 00e2 818B      		std Z+17,r24
 253:funsape/device/keypad.cpp ****         return false;
 1011               		.loc 2 253 9 is_stmt 1 view .LVU268
 253:funsape/device/keypad.cpp ****         return false;
 1012               		.loc 2 253 61 view .LVU269
 254:funsape/device/keypad.cpp ****     }
 1013               		.loc 2 254 9 view .LVU270
 254:funsape/device/keypad.cpp ****     }
 1014               		.loc 2 254 16 is_stmt 0 view .LVU271
 1015 00e4 80E0      		ldi r24,0
GAS LISTING C:\Users\kenne\AppData\Local\Temp\cc0aKx3b.s 			page 39


 1016 00e6 00C0      		rjmp .L27
 1017               	.LVL25:
 1018               	.L35:
 1019               	.LBB20:
 1020               	.LBB19:
 1021               	.LBB17:
 262:funsape/device/keypad.cpp ****             for(uint8_t j  = 0; j < (this->_columnsMax + 1); j++) {
 263:funsape/device/keypad.cpp ****                 this->_keyValue[((this->_linesMax + 1) *  i) + j] = (uint8_t)va_arg(auxArgs, int16_
 1022               		.loc 2 263 17 is_stmt 1 view .LVU272
 1023               		.loc 2 263 78 is_stmt 0 view .LVU273
 1024 00e8 E981      		ldd r30,Y+1
 1025 00ea FA81      		ldd r31,Y+2
 1026 00ec CF01      		movw r24,r30
 1027 00ee 0296      		adiw r24,2
 1028 00f0 9A83      		std Y+2,r25
 1029 00f2 8983      		std Y+1,r24
 1030 00f4 F080      		ld r15,Z
 1031               		.loc 2 263 23 view .LVU274
 1032 00f6 D801      		movw r26,r16
 1033 00f8 1F96      		adiw r26,15
 1034 00fa ED91      		ld r30,X+
 1035 00fc FC91      		ld r31,X
 1036 00fe 5097      		sbiw r26,15+1
 1037               		.loc 2 263 41 view .LVU275
 1038 0100 1D96      		adiw r26,13
 1039 0102 8C91      		ld r24,X
 1040 0104 8695      		lsr r24
 1041 0106 8695      		lsr r24
 1042 0108 8695      		lsr r24
 1043 010a 8770      		andi r24,lo8(7)
 1044 010c 90E0      		ldi r25,0
 1045               		.loc 2 263 51 view .LVU276
 1046 010e 0196      		adiw r24,1
 1047               		.loc 2 263 56 view .LVU277
 1048 0110 829F      		mul r24,r18
 1049 0112 B001      		movw r22,r0
 1050 0114 839F      		mul r24,r19
 1051 0116 700D      		add r23,r0
 1052 0118 929F      		mul r25,r18
 1053 011a 700D      		add r23,r0
 1054 011c 1124      		clr r1
 1055               		.loc 2 263 62 view .LVU278
 1056 011e 460F      		add r20,r22
 1057 0120 571F      		adc r21,r23
 1058               		.loc 2 263 65 view .LVU279
 1059 0122 E40F      		add r30,r20
 1060 0124 F51F      		adc r31,r21
 1061               		.loc 2 263 67 view .LVU280
 1062 0126 F082      		st Z,r15
 262:funsape/device/keypad.cpp ****             for(uint8_t j  = 0; j < (this->_columnsMax + 1); j++) {
 1063               		.loc 2 262 13 is_stmt 1 view .LVU281
 1064 0128 E394      		inc r14
 1065               	.LVL26:
 1066               	.L36:
 262:funsape/device/keypad.cpp ****             for(uint8_t j  = 0; j < (this->_columnsMax + 1); j++) {
 1067               		.loc 2 262 35 discriminator 1 view .LVU282
 262:funsape/device/keypad.cpp ****             for(uint8_t j  = 0; j < (this->_columnsMax + 1); j++) {
GAS LISTING C:\Users\kenne\AppData\Local\Temp\cc0aKx3b.s 			page 40


 1068               		.loc 2 262 44 is_stmt 0 discriminator 1 view .LVU283
 1069 012a F801      		movw r30,r16
 1070 012c 8585      		ldd r24,Z+13
 1071 012e 8770      		andi r24,lo8(7)
 1072 0130 90E0      		ldi r25,0
 262:funsape/device/keypad.cpp ****             for(uint8_t j  = 0; j < (this->_columnsMax + 1); j++) {
 1073               		.loc 2 262 33 discriminator 1 view .LVU284
 1074 0132 4E2D      		mov r20,r14
 1075 0134 50E0      		ldi r21,0
 262:funsape/device/keypad.cpp ****             for(uint8_t j  = 0; j < (this->_columnsMax + 1); j++) {
 1076               		.loc 2 262 35 discriminator 1 view .LVU285
 1077 0136 8417      		cp r24,r20
 1078 0138 9507      		cpc r25,r21
 1079 013a 04F4      		brge .L35
 1080               	.LBE17:
 261:funsape/device/keypad.cpp ****             for(uint8_t j  = 0; j < (this->_columnsMax + 1); j++) {
 1081               		.loc 2 261 9 is_stmt 1 discriminator 2 view .LVU286
 1082 013c D394      		inc r13
 1083               	.LVL27:
 1084               	.L34:
 261:funsape/device/keypad.cpp ****             for(uint8_t j  = 0; j < (this->_columnsMax + 1); j++) {
 1085               		.loc 2 261 30 discriminator 1 view .LVU287
 261:funsape/device/keypad.cpp ****             for(uint8_t j  = 0; j < (this->_columnsMax + 1); j++) {
 1086               		.loc 2 261 39 is_stmt 0 discriminator 1 view .LVU288
 1087 013e D801      		movw r26,r16
 1088 0140 1D96      		adiw r26,13
 1089 0142 8C91      		ld r24,X
 1090 0144 1D97      		sbiw r26,13
 1091 0146 8695      		lsr r24
 1092 0148 8695      		lsr r24
 1093 014a 8695      		lsr r24
 1094 014c 8770      		andi r24,lo8(7)
 1095 014e 90E0      		ldi r25,0
 261:funsape/device/keypad.cpp ****             for(uint8_t j  = 0; j < (this->_columnsMax + 1); j++) {
 1096               		.loc 2 261 28 discriminator 1 view .LVU289
 1097 0150 2D2D      		mov r18,r13
 1098 0152 30E0      		ldi r19,0
 261:funsape/device/keypad.cpp ****             for(uint8_t j  = 0; j < (this->_columnsMax + 1); j++) {
 1099               		.loc 2 261 30 discriminator 1 view .LVU290
 1100 0154 8217      		cp r24,r18
 1101 0156 9307      		cpc r25,r19
 1102 0158 04F0      		brlt .L40
 1103               	.LBB18:
 262:funsape/device/keypad.cpp ****             for(uint8_t j  = 0; j < (this->_columnsMax + 1); j++) {
 1104               		.loc 2 262 25 view .LVU291
 1105 015a E12C      		mov r14,__zero_reg__
 1106 015c 00C0      		rjmp .L36
 1107               	.L40:
 1108               	.LBE18:
 1109               	.LBE19:
 264:funsape/device/keypad.cpp ****             }
 265:funsape/device/keypad.cpp ****         }
 266:funsape/device/keypad.cpp ****         va_end(auxArgs);
 1110               		.loc 2 266 9 is_stmt 1 view .LVU292
 267:funsape/device/keypad.cpp ****         this->_isKeyValuesSet = true;
 1111               		.loc 2 267 9 view .LVU293
 1112               		.loc 2 267 31 is_stmt 0 view .LVU294
GAS LISTING C:\Users\kenne\AppData\Local\Temp\cc0aKx3b.s 			page 41


 1113 015e 1D96      		adiw r26,13
 1114 0160 8C91      		ld r24,X
 1115 0162 1D97      		sbiw r26,13
 1116 0164 8068      		ori r24,lo8(1<<7)
 1117 0166 1D96      		adiw r26,13
 1118 0168 8C93      		st X,r24
 1119 016a 1D97      		sbiw r26,13
 1120               	.LBE20:
 258:funsape/device/keypad.cpp ****         va_list auxArgs;
 1121               		.loc 2 258 5 is_stmt 1 view .LVU295
 268:funsape/device/keypad.cpp ****     } while(0);
 269:funsape/device/keypad.cpp **** 
 270:funsape/device/keypad.cpp ****     // Returns successfully
 271:funsape/device/keypad.cpp ****     this->_lastError = Error::NONE;
 1122               		.loc 2 271 5 view .LVU296
 1123               		.loc 2 271 22 is_stmt 0 view .LVU297
 1124 016c 5296      		adiw r26,17+1
 1125 016e 1C92      		st X,__zero_reg__
 1126 0170 1E92      		st -X,__zero_reg__
 1127 0172 5197      		sbiw r26,17
 272:funsape/device/keypad.cpp ****     debugMessage(Error::NONE, DEBUG_KEYPAD);
 1128               		.loc 2 272 5 is_stmt 1 view .LVU298
 1129               		.loc 2 272 44 view .LVU299
 273:funsape/device/keypad.cpp ****     return true;
 1130               		.loc 2 273 5 view .LVU300
 1131               		.loc 2 273 12 is_stmt 0 view .LVU301
 1132 0174 81E0      		ldi r24,lo8(1)
 1133               	.LVL28:
 1134               	.L27:
 1135               	/* epilogue start */
 274:funsape/device/keypad.cpp **** }
 1136               		.loc 2 274 1 view .LVU302
 1137 0176 0F90      		pop __tmp_reg__
 1138 0178 0F90      		pop __tmp_reg__
 1139 017a DF91      		pop r29
 1140 017c CF91      		pop r28
 1141 017e 1F91      		pop r17
 1142 0180 0F91      		pop r16
 1143 0182 FF90      		pop r15
 1144 0184 EF90      		pop r14
 1145 0186 DF90      		pop r13
 1146 0188 0895      		ret
 1147               		.cfi_endproc
 1148               	.LFE41:
 1150               		.section	.text._ZN6Keypad14readKeyPressedEPh,"ax",@progbits
 1151               	.global	_ZN6Keypad14readKeyPressedEPh
 1153               	_ZN6Keypad14readKeyPressedEPh:
 1154               	.LVL29:
 1155               	.LFB42:
 275:funsape/device/keypad.cpp **** 
 276:funsape/device/keypad.cpp **** bool_t Keypad::readKeyPressed(uint8_t *keyPressedValue_p)
 277:funsape/device/keypad.cpp **** {
 1156               		.loc 2 277 1 is_stmt 1 view -0
 1157               		.cfi_startproc
 1158               		.loc 2 277 1 is_stmt 0 view .LVU304
 1159 0000 AF92      		push r10
 1160               		.cfi_def_cfa_offset 3
GAS LISTING C:\Users\kenne\AppData\Local\Temp\cc0aKx3b.s 			page 42


 1161               		.cfi_offset 10, -2
 1162 0002 BF92      		push r11
 1163               		.cfi_def_cfa_offset 4
 1164               		.cfi_offset 11, -3
 1165 0004 CF92      		push r12
 1166               		.cfi_def_cfa_offset 5
 1167               		.cfi_offset 12, -4
 1168 0006 DF92      		push r13
 1169               		.cfi_def_cfa_offset 6
 1170               		.cfi_offset 13, -5
 1171 0008 EF92      		push r14
 1172               		.cfi_def_cfa_offset 7
 1173               		.cfi_offset 14, -6
 1174 000a FF92      		push r15
 1175               		.cfi_def_cfa_offset 8
 1176               		.cfi_offset 15, -7
 1177 000c 0F93      		push r16
 1178               		.cfi_def_cfa_offset 9
 1179               		.cfi_offset 16, -8
 1180 000e 1F93      		push r17
 1181               		.cfi_def_cfa_offset 10
 1182               		.cfi_offset 17, -9
 1183 0010 CF93      		push r28
 1184               		.cfi_def_cfa_offset 11
 1185               		.cfi_offset 28, -10
 1186 0012 DF93      		push r29
 1187               		.cfi_def_cfa_offset 12
 1188               		.cfi_offset 29, -11
 1189               	/* prologue: function */
 1190               	/* frame size = 0 */
 1191               	/* stack size = 10 */
 1192               	.L__stack_usage = 10
 1193 0014 E82F      		mov r30,r24
 1194 0016 F92F      		mov r31,r25
 1195 0018 A62E      		mov r10,r22
 1196 001a B72E      		mov r11,r23
 278:funsape/device/keypad.cpp **** 
 279:funsape/device/keypad.cpp ****     // Local variables
 280:funsape/device/keypad.cpp ****     uint8_t auxKey = 0xFF;
 1197               		.loc 2 280 5 is_stmt 1 view .LVU305
 1198               	.LVL30:
 281:funsape/device/keypad.cpp **** 
 282:funsape/device/keypad.cpp ****     // Checks for errors
 283:funsape/device/keypad.cpp ****     if(!this->_isInitialized) {
 1199               		.loc 2 283 5 view .LVU306
 1200               		.loc 2 283 15 is_stmt 0 view .LVU307
 1201 001c 8685      		ldd r24,Z+14
 1202               	.LVL31:
 1203               		.loc 2 283 15 view .LVU308
 1204 001e 8170      		andi r24,1
 1205               		.loc 2 283 5 view .LVU309
 1206 0020 8823      		tst r24
 1207 0022 01F0      		breq .L53
 284:funsape/device/keypad.cpp ****         this->_lastError = Error::NOT_INITIALIZED;
 285:funsape/device/keypad.cpp ****         debugMessage(Error::NOT_INITIALIZED, DEBUG_KEYPAD);
 286:funsape/device/keypad.cpp ****         return false;
 287:funsape/device/keypad.cpp ****     }
GAS LISTING C:\Users\kenne\AppData\Local\Temp\cc0aKx3b.s 			page 43


 288:funsape/device/keypad.cpp ****     if(!isPointerValid(keyPressedValue_p)) {
 1208               		.loc 2 288 5 is_stmt 1 view .LVU310
 1209 0024 A114      		cp r10,__zero_reg__
 1210 0026 B104      		cpc r11,__zero_reg__
 1211 0028 01F0      		breq .L54
 1212               	.LBB21:
 289:funsape/device/keypad.cpp ****         this->_lastError = Error::ARGUMENT_POINTER_NULL;
 290:funsape/device/keypad.cpp ****         debugMessage(Error::ARGUMENT_POINTER_NULL, DEBUG_KEYPAD);
 291:funsape/device/keypad.cpp ****         return false;
 292:funsape/device/keypad.cpp ****     }
 293:funsape/device/keypad.cpp **** 
 294:funsape/device/keypad.cpp ****     for(uint8_t i = 0; i <= this->_columnsMax; i++) {                   // For each column
 1213               		.loc 2 294 17 is_stmt 0 view .LVU311
 1214 002a 00E0      		ldi r16,0
 1215               	.LBE21:
 280:funsape/device/keypad.cpp **** 
 1216               		.loc 2 280 13 view .LVU312
 1217 002c FF24      		clr r15
 1218 002e FA94      		dec r15
 1219 0030 00C0      		rjmp .L44
 1220               	.L53:
 284:funsape/device/keypad.cpp ****         this->_lastError = Error::NOT_INITIALIZED;
 1221               		.loc 2 284 9 is_stmt 1 view .LVU313
 284:funsape/device/keypad.cpp ****         this->_lastError = Error::NOT_INITIALIZED;
 1222               		.loc 2 284 26 is_stmt 0 view .LVU314
 1223 0032 24E0      		ldi r18,lo8(4)
 1224 0034 30E0      		ldi r19,0
 1225 0036 328B      		std Z+18,r19
 1226 0038 218B      		std Z+17,r18
 285:funsape/device/keypad.cpp ****         return false;
 1227               		.loc 2 285 9 is_stmt 1 view .LVU315
 285:funsape/device/keypad.cpp ****         return false;
 1228               		.loc 2 285 59 view .LVU316
 286:funsape/device/keypad.cpp ****     }
 1229               		.loc 2 286 9 view .LVU317
 286:funsape/device/keypad.cpp ****     }
 1230               		.loc 2 286 16 is_stmt 0 view .LVU318
 1231 003a 00C0      		rjmp .L41
 1232               	.L54:
 289:funsape/device/keypad.cpp ****         debugMessage(Error::ARGUMENT_POINTER_NULL, DEBUG_KEYPAD);
 1233               		.loc 2 289 9 is_stmt 1 view .LVU319
 289:funsape/device/keypad.cpp ****         debugMessage(Error::ARGUMENT_POINTER_NULL, DEBUG_KEYPAD);
 1234               		.loc 2 289 26 is_stmt 0 view .LVU320
 1235 003c 81E1      		ldi r24,lo8(17)
 1236 003e 90E0      		ldi r25,0
 1237 0040 928B      		std Z+18,r25
 1238 0042 818B      		std Z+17,r24
 290:funsape/device/keypad.cpp ****         return false;
 1239               		.loc 2 290 9 is_stmt 1 view .LVU321
 290:funsape/device/keypad.cpp ****         return false;
 1240               		.loc 2 290 65 view .LVU322
 291:funsape/device/keypad.cpp ****     }
 1241               		.loc 2 291 9 view .LVU323
 291:funsape/device/keypad.cpp ****     }
 1242               		.loc 2 291 16 is_stmt 0 view .LVU324
 1243 0044 80E0      		ldi r24,0
 1244 0046 00C0      		rjmp .L41
GAS LISTING C:\Users\kenne\AppData\Local\Temp\cc0aKx3b.s 			page 44


 1245               	.LVL32:
 1246               	.L49:
 1247               	.LBB33:
 1248               	.LBB22:
 1249               	.LBB23:
 1250               	.LBB24:
 295:funsape/device/keypad.cpp ****         clrBit(*(this->_columnsPort), (i + this->_columnsFirst));       // Clear one column
 296:funsape/device/keypad.cpp ****         __builtin_avr_delay_cycles(5);                                  // Wait for syncronization
 297:funsape/device/keypad.cpp ****         uint8_t aux8 = *(this->_linesPin) >> this->_linesFirst;
 298:funsape/device/keypad.cpp ****         for(uint8_t j = 0; j <= this->_linesMax; j++) {                         // For each line
 299:funsape/device/keypad.cpp ****             if(isBitClr(aux8, j)) {                                     // Tests if the key is pres
 300:funsape/device/keypad.cpp ****                 auxKey = this->_keyValue[((this->_linesMax + 1) * j) + i];      // Decodes the key 
 301:funsape/device/keypad.cpp ****                 for(uint8_t k = 0; k < this->_debounceTime; k++) {
 302:funsape/device/keypad.cpp ****                     _delay_ms(1);                                       // Debounce time
 303:funsape/device/keypad.cpp ****                 }
 304:funsape/device/keypad.cpp ****             }
 305:funsape/device/keypad.cpp ****             // Wait until key is released
 306:funsape/device/keypad.cpp ****             waitUntilBitIsSet(*(this->_linesPin) >> this->_linesFirst, j);
 1251               		.loc 2 306 13 is_stmt 1 discriminator 1 view .LVU325
 1252               		.loc 2 306 13 discriminator 1 view .LVU326
 1253               		.loc 2 306 13 discriminator 1 view .LVU327
 1254 0048 C481      		ldd r28,Z+4
 1255 004a D581      		ldd r29,Z+5
 1256 004c 2881      		ld r18,Y
 1257 004e 30E0      		ldi r19,0
 1258 0050 9681      		ldd r25,Z+6
 1259 0052 9770      		andi r25,lo8(7)
 1260 0054 00C0      		rjmp 2f
 1261               		1:
 1262 0056 3595      		asr r19
 1263 0058 2795      		ror r18
 1264               		2:
 1265 005a 9A95      		dec r25
 1266 005c 02F4      		brpl 1b
 1267 005e 042E      		mov r0,r20
 1268 0060 00C0      		rjmp 2f
 1269               		1:
 1270 0062 3595      		asr r19
 1271 0064 2795      		ror r18
 1272               		2:
 1273 0066 0A94      		dec r0
 1274 0068 02F4      		brpl 1b
 1275 006a 20FF      		sbrs r18,0
 1276 006c 00C0      		rjmp .L49
 1277               		.loc 2 306 13 is_stmt 0 discriminator 1 view .LVU328
 1278               	.LBE24:
 298:funsape/device/keypad.cpp ****             if(isBitClr(aux8, j)) {                                     // Tests if the key is pres
 1279               		.loc 2 298 9 is_stmt 1 discriminator 2 view .LVU329
 1280 006e 1F5F      		subi r17,lo8(-(1))
 1281               	.LVL33:
 1282               	.L45:
 298:funsape/device/keypad.cpp ****             if(isBitClr(aux8, j)) {                                     // Tests if the key is pres
 1283               		.loc 2 298 30 discriminator 1 view .LVU330
 298:funsape/device/keypad.cpp ****             if(isBitClr(aux8, j)) {                                     // Tests if the key is pres
 1284               		.loc 2 298 39 is_stmt 0 discriminator 1 view .LVU331
 1285 0070 2585      		ldd r18,Z+13
 1286 0072 2695      		lsr r18
GAS LISTING C:\Users\kenne\AppData\Local\Temp\cc0aKx3b.s 			page 45


 1287 0074 2695      		lsr r18
 1288 0076 2695      		lsr r18
 1289 0078 2770      		andi r18,lo8(7)
 298:funsape/device/keypad.cpp ****             if(isBitClr(aux8, j)) {                                     // Tests if the key is pres
 1290               		.loc 2 298 30 discriminator 1 view .LVU332
 1291 007a 2117      		cp r18,r17
 1292 007c 00F0      		brlo .L55
 1293               	.LBB30:
 299:funsape/device/keypad.cpp ****                 auxKey = this->_keyValue[((this->_linesMax + 1) * j) + i];      // Decodes the key 
 1294               		.loc 2 299 13 is_stmt 1 view .LVU333
 1295               	.LBB25:
 299:funsape/device/keypad.cpp ****                 auxKey = this->_keyValue[((this->_linesMax + 1) * j) + i];      // Decodes the key 
 1296               		.loc 2 299 16 is_stmt 0 view .LVU334
 1297 007e 412F      		mov r20,r17
 1298 0080 50E0      		ldi r21,0
 1299 0082 6B01      		movw r12,r22
 1300 0084 DD24      		clr r13
 1301 0086 012E      		mov r0,r17
 1302 0088 00C0      		rjmp 2f
 1303               		1:
 1304 008a D594      		asr r13
 1305 008c C794      		ror r12
 1306               		2:
 1307 008e 0A94      		dec r0
 1308 0090 02F4      		brpl 1b
 299:funsape/device/keypad.cpp ****                 auxKey = this->_keyValue[((this->_linesMax + 1) * j) + i];      // Decodes the key 
 1309               		.loc 2 299 13 view .LVU335
 1310 0092 C0FC      		sbrc r12,0
 1311 0094 00C0      		rjmp .L49
 1312               	.LBB26:
 300:funsape/device/keypad.cpp ****                 for(uint8_t k = 0; k < this->_debounceTime; k++) {
 1313               		.loc 2 300 17 is_stmt 1 view .LVU336
 300:funsape/device/keypad.cpp ****                 for(uint8_t k = 0; k < this->_debounceTime; k++) {
 1314               		.loc 2 300 32 is_stmt 0 view .LVU337
 1315 0096 E784      		ldd r14,Z+15
 1316 0098 F088      		ldd r15,Z+16
 300:funsape/device/keypad.cpp ****                 for(uint8_t k = 0; k < this->_debounceTime; k++) {
 1317               		.loc 2 300 50 view .LVU338
 1318 009a 30E0      		ldi r19,0
 300:funsape/device/keypad.cpp ****                 for(uint8_t k = 0; k < this->_debounceTime; k++) {
 1319               		.loc 2 300 60 view .LVU339
 1320 009c 2F5F      		subi r18,-1
 1321 009e 3F4F      		sbci r19,-1
 300:funsape/device/keypad.cpp ****                 for(uint8_t k = 0; k < this->_debounceTime; k++) {
 1322               		.loc 2 300 65 view .LVU340
 1323 00a0 429F      		mul r20,r18
 1324 00a2 6001      		movw r12,r0
 1325 00a4 439F      		mul r20,r19
 1326 00a6 D00C      		add r13,r0
 1327 00a8 529F      		mul r21,r18
 1328 00aa D00C      		add r13,r0
 1329 00ac 1124      		clr r1
 300:funsape/device/keypad.cpp ****                 for(uint8_t k = 0; k < this->_debounceTime; k++) {
 1330               		.loc 2 300 70 view .LVU341
 1331 00ae CA0E      		add r12,r26
 1332 00b0 DB1E      		adc r13,r27
 300:funsape/device/keypad.cpp ****                 for(uint8_t k = 0; k < this->_debounceTime; k++) {
GAS LISTING C:\Users\kenne\AppData\Local\Temp\cc0aKx3b.s 			page 46


 1333               		.loc 2 300 73 view .LVU342
 1334 00b2 EC0C      		add r14,r12
 1335 00b4 FD1C      		adc r15,r13
 300:funsape/device/keypad.cpp ****                 for(uint8_t k = 0; k < this->_debounceTime; k++) {
 1336               		.loc 2 300 24 view .LVU343
 1337 00b6 E701      		movw r28,r14
 1338 00b8 F880      		ld r15,Y
 1339               	.LVL34:
 301:funsape/device/keypad.cpp ****                     _delay_ms(1);                                       // Debounce time
 1340               		.loc 2 301 17 is_stmt 1 view .LVU344
 1341               	.LBB27:
 301:funsape/device/keypad.cpp ****                     _delay_ms(1);                                       // Debounce time
 1342               		.loc 2 301 29 is_stmt 0 view .LVU345
 1343 00ba 20E0      		ldi r18,0
 1344               	.LVL35:
 1345               	.L47:
 301:funsape/device/keypad.cpp ****                     _delay_ms(1);                                       // Debounce time
 1346               		.loc 2 301 38 is_stmt 1 discriminator 1 view .LVU346
 301:funsape/device/keypad.cpp ****                     _delay_ms(1);                                       // Debounce time
 1347               		.loc 2 301 46 is_stmt 0 discriminator 1 view .LVU347
 1348 00bc 9685      		ldd r25,Z+14
 1349 00be 9695      		lsr r25
 301:funsape/device/keypad.cpp ****                     _delay_ms(1);                                       // Debounce time
 1350               		.loc 2 301 38 discriminator 1 view .LVU348
 1351 00c0 2917      		cp r18,r25
 1352 00c2 00F4      		brsh .L49
 302:funsape/device/keypad.cpp ****                 }
 1353               		.loc 2 302 21 is_stmt 1 view .LVU349
 1354               	.LVL36:
 1355               	.LBB28:
 1356               	.LBI28:
 1357               		.file 3 "c:\\d\\ifsc\\vscodeleandro2\\toolchains\\avr-gcc\\avr\\include\\util\\delay.h"
   1:c:\d\ifsc\vscodeleandro2\toolchains\avr-gcc\avr\include\util\delay.h **** /* Copyright (c) 2002, Marek Michalkiewicz
   2:c:\d\ifsc\vscodeleandro2\toolchains\avr-gcc\avr\include\util\delay.h ****    Copyright (c) 2004,2005,2007 Joerg Wunsch
   3:c:\d\ifsc\vscodeleandro2\toolchains\avr-gcc\avr\include\util\delay.h ****    Copyright (c) 2007  Florin-Viorel Petrov
   4:c:\d\ifsc\vscodeleandro2\toolchains\avr-gcc\avr\include\util\delay.h ****    All rights reserved.
   5:c:\d\ifsc\vscodeleandro2\toolchains\avr-gcc\avr\include\util\delay.h **** 
   6:c:\d\ifsc\vscodeleandro2\toolchains\avr-gcc\avr\include\util\delay.h ****    Redistribution and use in source and binary forms, with or without
   7:c:\d\ifsc\vscodeleandro2\toolchains\avr-gcc\avr\include\util\delay.h ****    modification, are permitted provided that the following conditions are met:
   8:c:\d\ifsc\vscodeleandro2\toolchains\avr-gcc\avr\include\util\delay.h **** 
   9:c:\d\ifsc\vscodeleandro2\toolchains\avr-gcc\avr\include\util\delay.h ****    * Redistributions of source code must retain the above copyright
  10:c:\d\ifsc\vscodeleandro2\toolchains\avr-gcc\avr\include\util\delay.h ****      notice, this list of conditions and the following disclaimer.
  11:c:\d\ifsc\vscodeleandro2\toolchains\avr-gcc\avr\include\util\delay.h **** 
  12:c:\d\ifsc\vscodeleandro2\toolchains\avr-gcc\avr\include\util\delay.h ****    * Redistributions in binary form must reproduce the above copyright
  13:c:\d\ifsc\vscodeleandro2\toolchains\avr-gcc\avr\include\util\delay.h ****      notice, this list of conditions and the following disclaimer in
  14:c:\d\ifsc\vscodeleandro2\toolchains\avr-gcc\avr\include\util\delay.h ****      the documentation and/or other materials provided with the
  15:c:\d\ifsc\vscodeleandro2\toolchains\avr-gcc\avr\include\util\delay.h ****      distribution.
  16:c:\d\ifsc\vscodeleandro2\toolchains\avr-gcc\avr\include\util\delay.h **** 
  17:c:\d\ifsc\vscodeleandro2\toolchains\avr-gcc\avr\include\util\delay.h ****    * Neither the name of the copyright holders nor the names of
  18:c:\d\ifsc\vscodeleandro2\toolchains\avr-gcc\avr\include\util\delay.h ****      contributors may be used to endorse or promote products derived
  19:c:\d\ifsc\vscodeleandro2\toolchains\avr-gcc\avr\include\util\delay.h ****      from this software without specific prior written permission.
  20:c:\d\ifsc\vscodeleandro2\toolchains\avr-gcc\avr\include\util\delay.h **** 
  21:c:\d\ifsc\vscodeleandro2\toolchains\avr-gcc\avr\include\util\delay.h ****   THIS SOFTWARE IS PROVIDED BY THE COPYRIGHT HOLDERS AND CONTRIBUTORS "AS IS"
  22:c:\d\ifsc\vscodeleandro2\toolchains\avr-gcc\avr\include\util\delay.h ****   AND ANY EXPRESS OR IMPLIED WARRANTIES, INCLUDING, BUT NOT LIMITED TO, THE
  23:c:\d\ifsc\vscodeleandro2\toolchains\avr-gcc\avr\include\util\delay.h ****   IMPLIED WARRANTIES OF MERCHANTABILITY AND FITNESS FOR A PARTICULAR PURPOSE
  24:c:\d\ifsc\vscodeleandro2\toolchains\avr-gcc\avr\include\util\delay.h ****   ARE DISCLAIMED. IN NO EVENT SHALL THE COPYRIGHT OWNER OR CONTRIBUTORS BE
  25:c:\d\ifsc\vscodeleandro2\toolchains\avr-gcc\avr\include\util\delay.h ****   LIABLE FOR ANY DIRECT, INDIRECT, INCIDENTAL, SPECIAL, EXEMPLARY, OR
GAS LISTING C:\Users\kenne\AppData\Local\Temp\cc0aKx3b.s 			page 47


  26:c:\d\ifsc\vscodeleandro2\toolchains\avr-gcc\avr\include\util\delay.h ****   CONSEQUENTIAL DAMAGES (INCLUDING, BUT NOT LIMITED TO, PROCUREMENT OF
  27:c:\d\ifsc\vscodeleandro2\toolchains\avr-gcc\avr\include\util\delay.h ****   SUBSTITUTE GOODS OR SERVICES; LOSS OF USE, DATA, OR PROFITS; OR BUSINESS
  28:c:\d\ifsc\vscodeleandro2\toolchains\avr-gcc\avr\include\util\delay.h ****   INTERRUPTION) HOWEVER CAUSED AND ON ANY THEORY OF LIABILITY, WHETHER IN
  29:c:\d\ifsc\vscodeleandro2\toolchains\avr-gcc\avr\include\util\delay.h ****   CONTRACT, STRICT LIABILITY, OR TORT (INCLUDING NEGLIGENCE OR OTHERWISE)
  30:c:\d\ifsc\vscodeleandro2\toolchains\avr-gcc\avr\include\util\delay.h ****   ARISING IN ANY WAY OUT OF THE USE OF THIS SOFTWARE, EVEN IF ADVISED OF THE
  31:c:\d\ifsc\vscodeleandro2\toolchains\avr-gcc\avr\include\util\delay.h ****   POSSIBILITY OF SUCH DAMAGE. */
  32:c:\d\ifsc\vscodeleandro2\toolchains\avr-gcc\avr\include\util\delay.h **** 
  33:c:\d\ifsc\vscodeleandro2\toolchains\avr-gcc\avr\include\util\delay.h **** /* $Id$ */
  34:c:\d\ifsc\vscodeleandro2\toolchains\avr-gcc\avr\include\util\delay.h **** 
  35:c:\d\ifsc\vscodeleandro2\toolchains\avr-gcc\avr\include\util\delay.h **** #ifndef _UTIL_DELAY_H_
  36:c:\d\ifsc\vscodeleandro2\toolchains\avr-gcc\avr\include\util\delay.h **** #define _UTIL_DELAY_H_ 1
  37:c:\d\ifsc\vscodeleandro2\toolchains\avr-gcc\avr\include\util\delay.h **** 
  38:c:\d\ifsc\vscodeleandro2\toolchains\avr-gcc\avr\include\util\delay.h **** #ifndef __DOXYGEN__
  39:c:\d\ifsc\vscodeleandro2\toolchains\avr-gcc\avr\include\util\delay.h **** #  ifndef __HAS_DELAY_CYCLES
  40:c:\d\ifsc\vscodeleandro2\toolchains\avr-gcc\avr\include\util\delay.h **** #    define __HAS_DELAY_CYCLES 1
  41:c:\d\ifsc\vscodeleandro2\toolchains\avr-gcc\avr\include\util\delay.h **** #  endif
  42:c:\d\ifsc\vscodeleandro2\toolchains\avr-gcc\avr\include\util\delay.h **** #endif  /* __DOXYGEN__ */
  43:c:\d\ifsc\vscodeleandro2\toolchains\avr-gcc\avr\include\util\delay.h **** 
  44:c:\d\ifsc\vscodeleandro2\toolchains\avr-gcc\avr\include\util\delay.h **** #include <inttypes.h>
  45:c:\d\ifsc\vscodeleandro2\toolchains\avr-gcc\avr\include\util\delay.h **** #include <util/delay_basic.h>
  46:c:\d\ifsc\vscodeleandro2\toolchains\avr-gcc\avr\include\util\delay.h **** #include <math.h>
  47:c:\d\ifsc\vscodeleandro2\toolchains\avr-gcc\avr\include\util\delay.h **** 
  48:c:\d\ifsc\vscodeleandro2\toolchains\avr-gcc\avr\include\util\delay.h **** /** \file */
  49:c:\d\ifsc\vscodeleandro2\toolchains\avr-gcc\avr\include\util\delay.h **** /** \defgroup util_delay <util/delay.h>: Convenience functions for busy-wait delay loops
  50:c:\d\ifsc\vscodeleandro2\toolchains\avr-gcc\avr\include\util\delay.h ****     \code
  51:c:\d\ifsc\vscodeleandro2\toolchains\avr-gcc\avr\include\util\delay.h ****     #define F_CPU 1000000UL  // 1 MHz
  52:c:\d\ifsc\vscodeleandro2\toolchains\avr-gcc\avr\include\util\delay.h ****     //#define F_CPU 14.7456E6
  53:c:\d\ifsc\vscodeleandro2\toolchains\avr-gcc\avr\include\util\delay.h ****     #include <util/delay.h>
  54:c:\d\ifsc\vscodeleandro2\toolchains\avr-gcc\avr\include\util\delay.h ****     \endcode
  55:c:\d\ifsc\vscodeleandro2\toolchains\avr-gcc\avr\include\util\delay.h **** 
  56:c:\d\ifsc\vscodeleandro2\toolchains\avr-gcc\avr\include\util\delay.h ****     \note As an alternative method, it is possible to pass the
  57:c:\d\ifsc\vscodeleandro2\toolchains\avr-gcc\avr\include\util\delay.h ****     F_CPU macro down to the compiler from the Makefile.
  58:c:\d\ifsc\vscodeleandro2\toolchains\avr-gcc\avr\include\util\delay.h ****     Obviously, in that case, no \c \#define statement should be
  59:c:\d\ifsc\vscodeleandro2\toolchains\avr-gcc\avr\include\util\delay.h ****     used.
  60:c:\d\ifsc\vscodeleandro2\toolchains\avr-gcc\avr\include\util\delay.h **** 
  61:c:\d\ifsc\vscodeleandro2\toolchains\avr-gcc\avr\include\util\delay.h ****     The functions in this header file are wrappers around the basic
  62:c:\d\ifsc\vscodeleandro2\toolchains\avr-gcc\avr\include\util\delay.h ****     busy-wait functions from <util/delay_basic.h>.  They are meant as
  63:c:\d\ifsc\vscodeleandro2\toolchains\avr-gcc\avr\include\util\delay.h ****     convenience functions where actual time values can be specified
  64:c:\d\ifsc\vscodeleandro2\toolchains\avr-gcc\avr\include\util\delay.h ****     rather than a number of cycles to wait for.  The idea behind is
  65:c:\d\ifsc\vscodeleandro2\toolchains\avr-gcc\avr\include\util\delay.h ****     that compile-time constant expressions will be eliminated by
  66:c:\d\ifsc\vscodeleandro2\toolchains\avr-gcc\avr\include\util\delay.h ****     compiler optimization so floating-point expressions can be used
  67:c:\d\ifsc\vscodeleandro2\toolchains\avr-gcc\avr\include\util\delay.h ****     to calculate the number of delay cycles needed based on the CPU
  68:c:\d\ifsc\vscodeleandro2\toolchains\avr-gcc\avr\include\util\delay.h ****     frequency passed by the macro F_CPU.
  69:c:\d\ifsc\vscodeleandro2\toolchains\avr-gcc\avr\include\util\delay.h **** 
  70:c:\d\ifsc\vscodeleandro2\toolchains\avr-gcc\avr\include\util\delay.h ****     \note In order for these functions to work as intended, compiler
  71:c:\d\ifsc\vscodeleandro2\toolchains\avr-gcc\avr\include\util\delay.h ****     optimizations <em>must</em> be enabled, and the delay time
  72:c:\d\ifsc\vscodeleandro2\toolchains\avr-gcc\avr\include\util\delay.h ****     <em>must</em> be an expression that is a known constant at
  73:c:\d\ifsc\vscodeleandro2\toolchains\avr-gcc\avr\include\util\delay.h ****     compile-time.  If these requirements are not met, the resulting
  74:c:\d\ifsc\vscodeleandro2\toolchains\avr-gcc\avr\include\util\delay.h ****     delay will be much longer (and basically unpredictable), and
  75:c:\d\ifsc\vscodeleandro2\toolchains\avr-gcc\avr\include\util\delay.h ****     applications that otherwise do not use floating-point calculations
  76:c:\d\ifsc\vscodeleandro2\toolchains\avr-gcc\avr\include\util\delay.h ****     will experience severe code bloat by the floating-point library
  77:c:\d\ifsc\vscodeleandro2\toolchains\avr-gcc\avr\include\util\delay.h ****     routines linked into the application.
  78:c:\d\ifsc\vscodeleandro2\toolchains\avr-gcc\avr\include\util\delay.h **** 
  79:c:\d\ifsc\vscodeleandro2\toolchains\avr-gcc\avr\include\util\delay.h ****     The functions available allow the specification of microsecond, and
  80:c:\d\ifsc\vscodeleandro2\toolchains\avr-gcc\avr\include\util\delay.h ****     millisecond delays directly, using the application-supplied macro
  81:c:\d\ifsc\vscodeleandro2\toolchains\avr-gcc\avr\include\util\delay.h ****     F_CPU as the CPU clock frequency (in Hertz).
  82:c:\d\ifsc\vscodeleandro2\toolchains\avr-gcc\avr\include\util\delay.h **** 
GAS LISTING C:\Users\kenne\AppData\Local\Temp\cc0aKx3b.s 			page 48


  83:c:\d\ifsc\vscodeleandro2\toolchains\avr-gcc\avr\include\util\delay.h **** */
  84:c:\d\ifsc\vscodeleandro2\toolchains\avr-gcc\avr\include\util\delay.h **** 
  85:c:\d\ifsc\vscodeleandro2\toolchains\avr-gcc\avr\include\util\delay.h **** #if !defined(__DOXYGEN__)
  86:c:\d\ifsc\vscodeleandro2\toolchains\avr-gcc\avr\include\util\delay.h **** static __inline__ void _delay_us(double __us) __attribute__((__always_inline__));
  87:c:\d\ifsc\vscodeleandro2\toolchains\avr-gcc\avr\include\util\delay.h **** static __inline__ void _delay_ms(double __ms) __attribute__((__always_inline__));
  88:c:\d\ifsc\vscodeleandro2\toolchains\avr-gcc\avr\include\util\delay.h **** #endif
  89:c:\d\ifsc\vscodeleandro2\toolchains\avr-gcc\avr\include\util\delay.h **** 
  90:c:\d\ifsc\vscodeleandro2\toolchains\avr-gcc\avr\include\util\delay.h **** #ifndef F_CPU
  91:c:\d\ifsc\vscodeleandro2\toolchains\avr-gcc\avr\include\util\delay.h **** /* prevent compiler error by supplying a default */
  92:c:\d\ifsc\vscodeleandro2\toolchains\avr-gcc\avr\include\util\delay.h **** # warning "F_CPU not defined for <util/delay.h>"
  93:c:\d\ifsc\vscodeleandro2\toolchains\avr-gcc\avr\include\util\delay.h **** /** \ingroup util_delay
  94:c:\d\ifsc\vscodeleandro2\toolchains\avr-gcc\avr\include\util\delay.h ****     \def F_CPU
  95:c:\d\ifsc\vscodeleandro2\toolchains\avr-gcc\avr\include\util\delay.h ****     \brief CPU frequency in Hz
  96:c:\d\ifsc\vscodeleandro2\toolchains\avr-gcc\avr\include\util\delay.h **** 
  97:c:\d\ifsc\vscodeleandro2\toolchains\avr-gcc\avr\include\util\delay.h ****     The macro F_CPU specifies the CPU frequency to be considered by
  98:c:\d\ifsc\vscodeleandro2\toolchains\avr-gcc\avr\include\util\delay.h ****     the delay macros.  This macro is normally supplied by the
  99:c:\d\ifsc\vscodeleandro2\toolchains\avr-gcc\avr\include\util\delay.h ****     environment (e.g. from within a project header, or the project's
 100:c:\d\ifsc\vscodeleandro2\toolchains\avr-gcc\avr\include\util\delay.h ****     Makefile).  The value 1 MHz here is only provided as a "vanilla"
 101:c:\d\ifsc\vscodeleandro2\toolchains\avr-gcc\avr\include\util\delay.h ****     fallback if no such user-provided definition could be found.
 102:c:\d\ifsc\vscodeleandro2\toolchains\avr-gcc\avr\include\util\delay.h **** 
 103:c:\d\ifsc\vscodeleandro2\toolchains\avr-gcc\avr\include\util\delay.h ****     In terms of the delay functions, the CPU frequency can be given as
 104:c:\d\ifsc\vscodeleandro2\toolchains\avr-gcc\avr\include\util\delay.h ****     a floating-point constant (e.g. 3.6864E6 for 3.6864 MHz).
 105:c:\d\ifsc\vscodeleandro2\toolchains\avr-gcc\avr\include\util\delay.h ****     However, the macros in <util/setbaud.h> require it to be an
 106:c:\d\ifsc\vscodeleandro2\toolchains\avr-gcc\avr\include\util\delay.h ****     integer value.
 107:c:\d\ifsc\vscodeleandro2\toolchains\avr-gcc\avr\include\util\delay.h ****  */
 108:c:\d\ifsc\vscodeleandro2\toolchains\avr-gcc\avr\include\util\delay.h **** # define F_CPU 1000000UL
 109:c:\d\ifsc\vscodeleandro2\toolchains\avr-gcc\avr\include\util\delay.h **** #endif
 110:c:\d\ifsc\vscodeleandro2\toolchains\avr-gcc\avr\include\util\delay.h **** 
 111:c:\d\ifsc\vscodeleandro2\toolchains\avr-gcc\avr\include\util\delay.h **** #ifndef __OPTIMIZE__
 112:c:\d\ifsc\vscodeleandro2\toolchains\avr-gcc\avr\include\util\delay.h **** # warning "Compiler optimizations disabled; functions from <util/delay.h> won't work as designed"
 113:c:\d\ifsc\vscodeleandro2\toolchains\avr-gcc\avr\include\util\delay.h **** #endif
 114:c:\d\ifsc\vscodeleandro2\toolchains\avr-gcc\avr\include\util\delay.h **** 
 115:c:\d\ifsc\vscodeleandro2\toolchains\avr-gcc\avr\include\util\delay.h **** #if __HAS_DELAY_CYCLES && defined(__OPTIMIZE__) && \
 116:c:\d\ifsc\vscodeleandro2\toolchains\avr-gcc\avr\include\util\delay.h ****   !defined(__DELAY_BACKWARD_COMPATIBLE__) &&	   \
 117:c:\d\ifsc\vscodeleandro2\toolchains\avr-gcc\avr\include\util\delay.h ****   __STDC_HOSTED__
 118:c:\d\ifsc\vscodeleandro2\toolchains\avr-gcc\avr\include\util\delay.h **** #  include <math.h>
 119:c:\d\ifsc\vscodeleandro2\toolchains\avr-gcc\avr\include\util\delay.h **** #endif
 120:c:\d\ifsc\vscodeleandro2\toolchains\avr-gcc\avr\include\util\delay.h **** 
 121:c:\d\ifsc\vscodeleandro2\toolchains\avr-gcc\avr\include\util\delay.h **** /**
 122:c:\d\ifsc\vscodeleandro2\toolchains\avr-gcc\avr\include\util\delay.h ****    \ingroup util_delay
 123:c:\d\ifsc\vscodeleandro2\toolchains\avr-gcc\avr\include\util\delay.h **** 
 124:c:\d\ifsc\vscodeleandro2\toolchains\avr-gcc\avr\include\util\delay.h ****    Perform a delay of \c __ms milliseconds, using _delay_loop_2().
 125:c:\d\ifsc\vscodeleandro2\toolchains\avr-gcc\avr\include\util\delay.h **** 
 126:c:\d\ifsc\vscodeleandro2\toolchains\avr-gcc\avr\include\util\delay.h ****    The macro F_CPU is supposed to be defined to a
 127:c:\d\ifsc\vscodeleandro2\toolchains\avr-gcc\avr\include\util\delay.h ****    constant defining the CPU clock frequency (in Hertz).
 128:c:\d\ifsc\vscodeleandro2\toolchains\avr-gcc\avr\include\util\delay.h **** 
 129:c:\d\ifsc\vscodeleandro2\toolchains\avr-gcc\avr\include\util\delay.h ****    The maximal possible delay is 262.14 ms / F_CPU in MHz.
 130:c:\d\ifsc\vscodeleandro2\toolchains\avr-gcc\avr\include\util\delay.h **** 
 131:c:\d\ifsc\vscodeleandro2\toolchains\avr-gcc\avr\include\util\delay.h ****    When the user request delay which exceed the maximum possible one,
 132:c:\d\ifsc\vscodeleandro2\toolchains\avr-gcc\avr\include\util\delay.h ****    _delay_ms() provides a decreased resolution functionality. In this
 133:c:\d\ifsc\vscodeleandro2\toolchains\avr-gcc\avr\include\util\delay.h ****    mode _delay_ms() will work with a resolution of 1/10 ms, providing
 134:c:\d\ifsc\vscodeleandro2\toolchains\avr-gcc\avr\include\util\delay.h ****    delays up to 6.5535 seconds (independent from CPU frequency).  The
 135:c:\d\ifsc\vscodeleandro2\toolchains\avr-gcc\avr\include\util\delay.h ****    user will not be informed about decreased resolution.
 136:c:\d\ifsc\vscodeleandro2\toolchains\avr-gcc\avr\include\util\delay.h **** 
 137:c:\d\ifsc\vscodeleandro2\toolchains\avr-gcc\avr\include\util\delay.h ****    If the avr-gcc toolchain has __builtin_avr_delay_cycles()
 138:c:\d\ifsc\vscodeleandro2\toolchains\avr-gcc\avr\include\util\delay.h ****    support, maximal possible delay is 4294967.295 ms/ F_CPU in MHz. For
 139:c:\d\ifsc\vscodeleandro2\toolchains\avr-gcc\avr\include\util\delay.h ****    values greater than the maximal possible delay, overflows results in
GAS LISTING C:\Users\kenne\AppData\Local\Temp\cc0aKx3b.s 			page 49


 140:c:\d\ifsc\vscodeleandro2\toolchains\avr-gcc\avr\include\util\delay.h ****    no delay i.e., 0ms.
 141:c:\d\ifsc\vscodeleandro2\toolchains\avr-gcc\avr\include\util\delay.h **** 
 142:c:\d\ifsc\vscodeleandro2\toolchains\avr-gcc\avr\include\util\delay.h ****    Conversion of \c __ms into clock cycles may not always result in
 143:c:\d\ifsc\vscodeleandro2\toolchains\avr-gcc\avr\include\util\delay.h ****    integer.  By default, the clock cycles rounded up to next
 144:c:\d\ifsc\vscodeleandro2\toolchains\avr-gcc\avr\include\util\delay.h ****    integer. This ensures that the user gets at least \c __ms
 145:c:\d\ifsc\vscodeleandro2\toolchains\avr-gcc\avr\include\util\delay.h ****    microseconds of delay.
 146:c:\d\ifsc\vscodeleandro2\toolchains\avr-gcc\avr\include\util\delay.h **** 
 147:c:\d\ifsc\vscodeleandro2\toolchains\avr-gcc\avr\include\util\delay.h ****    Alternatively, by defining the macro \c __DELAY_ROUND_DOWN__, or
 148:c:\d\ifsc\vscodeleandro2\toolchains\avr-gcc\avr\include\util\delay.h ****    \c __DELAY_ROUND_CLOSEST__, before including this header file, the
 149:c:\d\ifsc\vscodeleandro2\toolchains\avr-gcc\avr\include\util\delay.h ****    algorithm can be made to round down, or round to closest integer,
 150:c:\d\ifsc\vscodeleandro2\toolchains\avr-gcc\avr\include\util\delay.h ****    respectively.
 151:c:\d\ifsc\vscodeleandro2\toolchains\avr-gcc\avr\include\util\delay.h **** 
 152:c:\d\ifsc\vscodeleandro2\toolchains\avr-gcc\avr\include\util\delay.h ****    \note
 153:c:\d\ifsc\vscodeleandro2\toolchains\avr-gcc\avr\include\util\delay.h **** 
 154:c:\d\ifsc\vscodeleandro2\toolchains\avr-gcc\avr\include\util\delay.h ****    The implementation of _delay_ms() based on
 155:c:\d\ifsc\vscodeleandro2\toolchains\avr-gcc\avr\include\util\delay.h ****    __builtin_avr_delay_cycles() is not backward compatible with older
 156:c:\d\ifsc\vscodeleandro2\toolchains\avr-gcc\avr\include\util\delay.h ****    implementations.  In order to get functionality backward compatible
 157:c:\d\ifsc\vscodeleandro2\toolchains\avr-gcc\avr\include\util\delay.h ****    with previous versions, the macro \c "__DELAY_BACKWARD_COMPATIBLE__"
 158:c:\d\ifsc\vscodeleandro2\toolchains\avr-gcc\avr\include\util\delay.h ****    must be defined before including this header file. Also, the
 159:c:\d\ifsc\vscodeleandro2\toolchains\avr-gcc\avr\include\util\delay.h ****    backward compatible algorithm will be chosen if the code is
 160:c:\d\ifsc\vscodeleandro2\toolchains\avr-gcc\avr\include\util\delay.h ****    compiled in a <em>freestanding environment</em> (GCC option
 161:c:\d\ifsc\vscodeleandro2\toolchains\avr-gcc\avr\include\util\delay.h ****    \c -ffreestanding), as the math functions required for rounding are
 162:c:\d\ifsc\vscodeleandro2\toolchains\avr-gcc\avr\include\util\delay.h ****    not available to the compiler then.
 163:c:\d\ifsc\vscodeleandro2\toolchains\avr-gcc\avr\include\util\delay.h **** 
 164:c:\d\ifsc\vscodeleandro2\toolchains\avr-gcc\avr\include\util\delay.h ****  */
 165:c:\d\ifsc\vscodeleandro2\toolchains\avr-gcc\avr\include\util\delay.h **** void
 166:c:\d\ifsc\vscodeleandro2\toolchains\avr-gcc\avr\include\util\delay.h **** _delay_ms(double __ms)
 1358               		.loc 3 166 1 view .LVU350
 1359               	.LBB29:
 167:c:\d\ifsc\vscodeleandro2\toolchains\avr-gcc\avr\include\util\delay.h **** {
 168:c:\d\ifsc\vscodeleandro2\toolchains\avr-gcc\avr\include\util\delay.h **** 	double __tmp ;
 1360               		.loc 3 168 2 view .LVU351
 169:c:\d\ifsc\vscodeleandro2\toolchains\avr-gcc\avr\include\util\delay.h **** #if __HAS_DELAY_CYCLES && defined(__OPTIMIZE__) && \
 170:c:\d\ifsc\vscodeleandro2\toolchains\avr-gcc\avr\include\util\delay.h ****   !defined(__DELAY_BACKWARD_COMPATIBLE__) &&	   \
 171:c:\d\ifsc\vscodeleandro2\toolchains\avr-gcc\avr\include\util\delay.h ****   __STDC_HOSTED__
 172:c:\d\ifsc\vscodeleandro2\toolchains\avr-gcc\avr\include\util\delay.h **** 	uint32_t __ticks_dc;
 1361               		.loc 3 172 2 view .LVU352
 173:c:\d\ifsc\vscodeleandro2\toolchains\avr-gcc\avr\include\util\delay.h **** 	extern void __builtin_avr_delay_cycles(unsigned long);
 1362               		.loc 3 173 2 view .LVU353
 174:c:\d\ifsc\vscodeleandro2\toolchains\avr-gcc\avr\include\util\delay.h **** 	__tmp = ((F_CPU) / 1e3) * __ms;
 1363               		.loc 3 174 2 view .LVU354
 175:c:\d\ifsc\vscodeleandro2\toolchains\avr-gcc\avr\include\util\delay.h **** 
 176:c:\d\ifsc\vscodeleandro2\toolchains\avr-gcc\avr\include\util\delay.h **** 	#if defined(__DELAY_ROUND_DOWN__)
 177:c:\d\ifsc\vscodeleandro2\toolchains\avr-gcc\avr\include\util\delay.h **** 		__ticks_dc = (uint32_t)fabs(__tmp);
 178:c:\d\ifsc\vscodeleandro2\toolchains\avr-gcc\avr\include\util\delay.h **** 
 179:c:\d\ifsc\vscodeleandro2\toolchains\avr-gcc\avr\include\util\delay.h **** 	#elif defined(__DELAY_ROUND_CLOSEST__)
 180:c:\d\ifsc\vscodeleandro2\toolchains\avr-gcc\avr\include\util\delay.h **** 		__ticks_dc = (uint32_t)(fabs(__tmp)+0.5);
 181:c:\d\ifsc\vscodeleandro2\toolchains\avr-gcc\avr\include\util\delay.h **** 
 182:c:\d\ifsc\vscodeleandro2\toolchains\avr-gcc\avr\include\util\delay.h **** 	#else
 183:c:\d\ifsc\vscodeleandro2\toolchains\avr-gcc\avr\include\util\delay.h **** 		//round up by default
 184:c:\d\ifsc\vscodeleandro2\toolchains\avr-gcc\avr\include\util\delay.h **** 		__ticks_dc = (uint32_t)(ceil(fabs(__tmp)));
 1364               		.loc 3 184 3 view .LVU355
 185:c:\d\ifsc\vscodeleandro2\toolchains\avr-gcc\avr\include\util\delay.h **** 	#endif
 186:c:\d\ifsc\vscodeleandro2\toolchains\avr-gcc\avr\include\util\delay.h **** 
 187:c:\d\ifsc\vscodeleandro2\toolchains\avr-gcc\avr\include\util\delay.h **** 	__builtin_avr_delay_cycles(__ticks_dc);
 1365               		.loc 3 187 2 view .LVU356
 1366               		.loc 3 187 28 is_stmt 0 view .LVU357
GAS LISTING C:\Users\kenne\AppData\Local\Temp\cc0aKx3b.s 			page 50


 1367 00c4 CFE9      		ldi r28,lo8(3999)
 1368 00c6 DFE0      		ldi r29,hi8(3999)
 1369 00c8 2197      	1:	sbiw r28,1
 1370 00ca 01F4      		brne 1b
 1371 00cc 00C0      		rjmp .
 1372 00ce 0000      		nop
 1373               	.LVL37:
 1374               		.loc 3 187 28 view .LVU358
 1375               	.LBE29:
 1376               	.LBE28:
 301:funsape/device/keypad.cpp ****                     _delay_ms(1);                                       // Debounce time
 1377               		.loc 2 301 17 is_stmt 1 view .LVU359
 1378 00d0 2F5F      		subi r18,lo8(-(1))
 1379               	.LVL38:
 301:funsape/device/keypad.cpp ****                     _delay_ms(1);                                       // Debounce time
 1380               		.loc 2 301 17 is_stmt 0 view .LVU360
 1381 00d2 00C0      		rjmp .L47
 1382               	.LVL39:
 1383               	.L55:
 301:funsape/device/keypad.cpp ****                     _delay_ms(1);                                       // Debounce time
 1384               		.loc 2 301 17 view .LVU361
 1385               	.LBE27:
 1386               	.LBE26:
 1387               	.LBE25:
 1388               	.LBE30:
 1389               	.LBE23:
 307:funsape/device/keypad.cpp ****         }
 308:funsape/device/keypad.cpp ****         setBit(*(this->_columnsPort), (i + this->_columnsFirst));       // Restore column value
 1390               		.loc 2 308 9 is_stmt 1 discriminator 2 view .LVU362
 1391 00d4 C185      		ldd r28,Z+9
 1392 00d6 D285      		ldd r29,Z+10
 1393 00d8 9881      		ld r25,Y
 1394 00da 2385      		ldd r18,Z+11
 1395 00dc 2770      		andi r18,lo8(7)
 1396 00de A20F      		add r26,r18
 1397 00e0 B11D      		adc r27,__zero_reg__
 1398 00e2 21E0      		ldi r18,lo8(1)
 1399 00e4 30E0      		ldi r19,0
 1400 00e6 00C0      		rjmp 2f
 1401               		1:
 1402 00e8 220F      		lsl r18
 1403 00ea 331F      		rol r19
 1404               		2:
 1405 00ec AA95      		dec r26
 1406 00ee 02F4      		brpl 1b
 1407 00f0 922B      		or r25,r18
 1408 00f2 9883      		st Y,r25
 1409               	.LBE22:
 294:funsape/device/keypad.cpp ****         clrBit(*(this->_columnsPort), (i + this->_columnsFirst));       // Clear one column
 1410               		.loc 2 294 5 discriminator 2 view .LVU363
 1411 00f4 0F5F      		subi r16,lo8(-(1))
 1412               	.LVL40:
 1413               	.L44:
 294:funsape/device/keypad.cpp ****         clrBit(*(this->_columnsPort), (i + this->_columnsFirst));       // Clear one column
 1414               		.loc 2 294 26 discriminator 1 view .LVU364
 294:funsape/device/keypad.cpp ****         clrBit(*(this->_columnsPort), (i + this->_columnsFirst));       // Clear one column
 1415               		.loc 2 294 35 is_stmt 0 discriminator 1 view .LVU365
GAS LISTING C:\Users\kenne\AppData\Local\Temp\cc0aKx3b.s 			page 51


 1416 00f6 9585      		ldd r25,Z+13
 1417 00f8 9770      		andi r25,lo8(7)
 294:funsape/device/keypad.cpp ****         clrBit(*(this->_columnsPort), (i + this->_columnsFirst));       // Clear one column
 1418               		.loc 2 294 26 discriminator 1 view .LVU366
 1419 00fa 9017      		cp r25,r16
 1420 00fc 00F0      		brlo .L56
 1421               	.LBB32:
 295:funsape/device/keypad.cpp ****         __builtin_avr_delay_cycles(5);                                  // Wait for syncronization
 1422               		.loc 2 295 9 is_stmt 1 view .LVU367
 1423 00fe C185      		ldd r28,Z+9
 1424 0100 D285      		ldd r29,Z+10
 1425 0102 6881      		ld r22,Y
 1426 0104 A02F      		mov r26,r16
 1427 0106 B0E0      		ldi r27,0
 1428 0108 9385      		ldd r25,Z+11
 1429 010a 9770      		andi r25,lo8(7)
 1430 010c 6D01      		movw r12,r26
 1431 010e C90E      		add r12,r25
 1432 0110 D11C      		adc r13,__zero_reg__
 1433 0112 21E0      		ldi r18,lo8(1)
 1434 0114 30E0      		ldi r19,0
 1435 0116 00C0      		rjmp 2f
 1436               		1:
 1437 0118 220F      		lsl r18
 1438 011a 331F      		rol r19
 1439               		2:
 1440 011c CA94      		dec r12
 1441 011e 02F4      		brpl 1b
 1442 0120 2095      		com r18
 1443 0122 2623      		and r18,r22
 1444 0124 2883      		st Y,r18
 296:funsape/device/keypad.cpp ****         uint8_t aux8 = *(this->_linesPin) >> this->_linesFirst;
 1445               		.loc 2 296 9 view .LVU368
 296:funsape/device/keypad.cpp ****         uint8_t aux8 = *(this->_linesPin) >> this->_linesFirst;
 1446               		.loc 2 296 35 is_stmt 0 view .LVU369
 1447 0126 00C0      		rjmp .
 1448 0128 00C0      		rjmp .
 1449 012a 0000      		nop
 297:funsape/device/keypad.cpp ****         for(uint8_t j = 0; j <= this->_linesMax; j++) {                         // For each line
 1450               		.loc 2 297 9 is_stmt 1 view .LVU370
 297:funsape/device/keypad.cpp ****         for(uint8_t j = 0; j <= this->_linesMax; j++) {                         // For each line
 1451               		.loc 2 297 32 is_stmt 0 view .LVU371
 1452 012c C481      		ldd r28,Z+4
 1453 012e D581      		ldd r29,Z+5
 297:funsape/device/keypad.cpp ****         for(uint8_t j = 0; j <= this->_linesMax; j++) {                         // For each line
 1454               		.loc 2 297 24 view .LVU372
 1455 0130 6881      		ld r22,Y
 1456 0132 70E0      		ldi r23,0
 297:funsape/device/keypad.cpp ****         for(uint8_t j = 0; j <= this->_linesMax; j++) {                         // For each line
 1457               		.loc 2 297 52 view .LVU373
 1458 0134 9681      		ldd r25,Z+6
 1459 0136 9770      		andi r25,lo8(7)
 297:funsape/device/keypad.cpp ****         for(uint8_t j = 0; j <= this->_linesMax; j++) {                         // For each line
 1460               		.loc 2 297 43 view .LVU374
 1461 0138 00C0      		rjmp 2f
 1462               		1:
 1463 013a 7595      		asr r23
GAS LISTING C:\Users\kenne\AppData\Local\Temp\cc0aKx3b.s 			page 52


 1464 013c 6795      		ror r22
 1465               		2:
 1466 013e 9A95      		dec r25
 1467 0140 02F4      		brpl 1b
 1468               	.LVL41:
 298:funsape/device/keypad.cpp ****             if(isBitClr(aux8, j)) {                                     // Tests if the key is pres
 1469               		.loc 2 298 9 is_stmt 1 view .LVU375
 1470               	.LBB31:
 298:funsape/device/keypad.cpp ****             if(isBitClr(aux8, j)) {                                     // Tests if the key is pres
 1471               		.loc 2 298 21 is_stmt 0 view .LVU376
 1472 0142 10E0      		ldi r17,0
 298:funsape/device/keypad.cpp ****             if(isBitClr(aux8, j)) {                                     // Tests if the key is pres
 1473               		.loc 2 298 9 view .LVU377
 1474 0144 00C0      		rjmp .L45
 1475               	.LVL42:
 1476               	.L56:
 298:funsape/device/keypad.cpp ****             if(isBitClr(aux8, j)) {                                     // Tests if the key is pres
 1477               		.loc 2 298 9 view .LVU378
 1478               	.LBE31:
 1479               	.LBE32:
 1480               	.LBE33:
 309:funsape/device/keypad.cpp ****     }
 310:funsape/device/keypad.cpp **** 
 311:funsape/device/keypad.cpp ****     // Update function arguments
 312:funsape/device/keypad.cpp ****     *keyPressedValue_p = auxKey;
 1481               		.loc 2 312 5 is_stmt 1 view .LVU379
 1482               		.loc 2 312 24 is_stmt 0 view .LVU380
 1483 0146 D501      		movw r26,r10
 1484 0148 FC92      		st X,r15
 313:funsape/device/keypad.cpp **** 
 314:funsape/device/keypad.cpp ****     // Returns successfully
 315:funsape/device/keypad.cpp ****     this->_lastError = Error::NONE;
 1485               		.loc 2 315 5 is_stmt 1 view .LVU381
 1486               		.loc 2 315 22 is_stmt 0 view .LVU382
 1487 014a 128A      		std Z+18,__zero_reg__
 1488 014c 118A      		std Z+17,__zero_reg__
 316:funsape/device/keypad.cpp ****     debugMessage(Error::NONE, DEBUG_KEYPAD);
 1489               		.loc 2 316 5 is_stmt 1 view .LVU383
 1490               		.loc 2 316 44 view .LVU384
 317:funsape/device/keypad.cpp ****     return true;
 1491               		.loc 2 317 5 view .LVU385
 1492               	.LVL43:
 1493               	.L41:
 1494               	/* epilogue start */
 318:funsape/device/keypad.cpp **** }
 1495               		.loc 2 318 1 is_stmt 0 view .LVU386
 1496 014e DF91      		pop r29
 1497 0150 CF91      		pop r28
 1498 0152 1F91      		pop r17
 1499 0154 0F91      		pop r16
 1500 0156 FF90      		pop r15
 1501 0158 EF90      		pop r14
 1502 015a DF90      		pop r13
 1503 015c CF90      		pop r12
 1504 015e BF90      		pop r11
 1505 0160 AF90      		pop r10
 1506 0162 0895      		ret
GAS LISTING C:\Users\kenne\AppData\Local\Temp\cc0aKx3b.s 			page 53


 1507               		.cfi_endproc
 1508               	.LFE42:
 1510               		.text
 1511               	.Letext0:
 1512               		.file 4 "c:\\d\\ifsc\\vscodeleandro2\\toolchains\\avr-gcc\\avr\\include\\stdint.h"
 1513               		.file 5 "c:\\d\\ifsc\\vscodeleandro2\\toolchains\\avr-gcc\\lib\\gcc\\avr\\12.1.0\\include\\stddef.
 1514               		.file 6 "c:\\d\\ifsc\\vscodeleandro2\\toolchains\\avr-gcc\\lib\\gcc\\avr\\12.1.0\\include\\stdarg.
 1515               		.file 7 "funsape/device/keypad.hpp"
 1516               		.file 8 "c:\\d\\ifsc\\vscodeleandro2\\toolchains\\avr-gcc\\avr\\include\\math.h"
 1517               		.file 9 "c:\\d\\ifsc\\vscodeleandro2\\toolchains\\avr-gcc\\avr\\include\\stdlib.h"
 1518               		.file 10 "c:\\d\\ifsc\\vscodeleandro2\\toolchains\\avr-gcc\\avr\\include\\avr\\builtins.h"
GAS LISTING C:\Users\kenne\AppData\Local\Temp\cc0aKx3b.s 			page 54


DEFINED SYMBOLS
                            *ABS*:00000000 keypad.cpp
C:\Users\kenne\AppData\Local\Temp\cc0aKx3b.s:2      *ABS*:0000003e __SP_H__
C:\Users\kenne\AppData\Local\Temp\cc0aKx3b.s:3      *ABS*:0000003d __SP_L__
C:\Users\kenne\AppData\Local\Temp\cc0aKx3b.s:4      *ABS*:0000003f __SREG__
C:\Users\kenne\AppData\Local\Temp\cc0aKx3b.s:5      *ABS*:00000000 __tmp_reg__
C:\Users\kenne\AppData\Local\Temp\cc0aKx3b.s:6      *ABS*:00000001 __zero_reg__
C:\Users\kenne\AppData\Local\Temp\cc0aKx3b.s:14     .text._Z7getTickv:00000000 _Z7getTickv
C:\Users\kenne\AppData\Local\Temp\cc0aKx3b.s:17     .text._Z7getTickv:00000000 .Loc.0
C:\Users\kenne\AppData\Local\Temp\cc0aKx3b.s:18     .text._Z7getTickv:00000000 L0
C:\Users\kenne\AppData\Local\Temp\cc0aKx3b.s:23     .text._Z7getTickv:00000000 .Loc.1
C:\Users\kenne\AppData\Local\Temp\cc0aKx3b.s:24     .text._Z7getTickv:00000000 .Loc.2
C:\Users\kenne\AppData\Local\Temp\cc0aKx3b.s:30     .text._Z7getTickv:00000008 L0
C:\Users\kenne\AppData\Local\Temp\cc0aKx3b.s:36     .text._ZN6KeypadC2Ev:00000000 _ZN6KeypadC2Ev
C:\Users\kenne\AppData\Local\Temp\cc0aKx3b.s:40     .text._ZN6KeypadC2Ev:00000000 .Loc.3
C:\Users\kenne\AppData\Local\Temp\cc0aKx3b.s:41     .text._ZN6KeypadC2Ev:00000000 L0
C:\Users\kenne\AppData\Local\Temp\cc0aKx3b.s:46     .text._ZN6KeypadC2Ev:00000000 .Loc.4
C:\Users\kenne\AppData\Local\Temp\cc0aKx3b.s:50     .text._ZN6KeypadC2Ev:00000004 .Loc.5
C:\Users\kenne\AppData\Local\Temp\cc0aKx3b.s:51     .text._ZN6KeypadC2Ev:00000004 .Loc.6
C:\Users\kenne\AppData\Local\Temp\cc0aKx3b.s:52     .text._ZN6KeypadC2Ev:00000004 .Loc.7
C:\Users\kenne\AppData\Local\Temp\cc0aKx3b.s:53     .text._ZN6KeypadC2Ev:00000004 .Loc.8
C:\Users\kenne\AppData\Local\Temp\cc0aKx3b.s:56     .text._ZN6KeypadC2Ev:00000008 .Loc.9
C:\Users\kenne\AppData\Local\Temp\cc0aKx3b.s:57     .text._ZN6KeypadC2Ev:00000008 .Loc.10
C:\Users\kenne\AppData\Local\Temp\cc0aKx3b.s:60     .text._ZN6KeypadC2Ev:0000000c .Loc.11
C:\Users\kenne\AppData\Local\Temp\cc0aKx3b.s:61     .text._ZN6KeypadC2Ev:0000000c .Loc.12
C:\Users\kenne\AppData\Local\Temp\cc0aKx3b.s:64     .text._ZN6KeypadC2Ev:00000010 .Loc.13
C:\Users\kenne\AppData\Local\Temp\cc0aKx3b.s:65     .text._ZN6KeypadC2Ev:00000010 .Loc.14
C:\Users\kenne\AppData\Local\Temp\cc0aKx3b.s:68     .text._ZN6KeypadC2Ev:00000012 .Loc.15
C:\Users\kenne\AppData\Local\Temp\cc0aKx3b.s:71     .text._ZN6KeypadC2Ev:00000016 .Loc.16
C:\Users\kenne\AppData\Local\Temp\cc0aKx3b.s:72     .text._ZN6KeypadC2Ev:00000016 .Loc.17
C:\Users\kenne\AppData\Local\Temp\cc0aKx3b.s:75     .text._ZN6KeypadC2Ev:0000001a .Loc.18
C:\Users\kenne\AppData\Local\Temp\cc0aKx3b.s:76     .text._ZN6KeypadC2Ev:0000001a .Loc.19
C:\Users\kenne\AppData\Local\Temp\cc0aKx3b.s:79     .text._ZN6KeypadC2Ev:0000001e .Loc.20
C:\Users\kenne\AppData\Local\Temp\cc0aKx3b.s:80     .text._ZN6KeypadC2Ev:0000001e .Loc.21
C:\Users\kenne\AppData\Local\Temp\cc0aKx3b.s:84     .text._ZN6KeypadC2Ev:00000024 .Loc.22
C:\Users\kenne\AppData\Local\Temp\cc0aKx3b.s:85     .text._ZN6KeypadC2Ev:00000024 .Loc.23
C:\Users\kenne\AppData\Local\Temp\cc0aKx3b.s:87     .text._ZN6KeypadC2Ev:00000026 .Loc.24
C:\Users\kenne\AppData\Local\Temp\cc0aKx3b.s:88     .text._ZN6KeypadC2Ev:00000026 .Loc.25
C:\Users\kenne\AppData\Local\Temp\cc0aKx3b.s:93     .text._ZN6KeypadC2Ev:0000002e .Loc.26
C:\Users\kenne\AppData\Local\Temp\cc0aKx3b.s:94     .text._ZN6KeypadC2Ev:0000002e .Loc.27
C:\Users\kenne\AppData\Local\Temp\cc0aKx3b.s:97     .text._ZN6KeypadC2Ev:00000032 .Loc.28
C:\Users\kenne\AppData\Local\Temp\cc0aKx3b.s:98     .text._ZN6KeypadC2Ev:00000032 .Loc.29
C:\Users\kenne\AppData\Local\Temp\cc0aKx3b.s:101    .text._ZN6KeypadC2Ev:00000036 .Loc.30
C:\Users\kenne\AppData\Local\Temp\cc0aKx3b.s:102    .text._ZN6KeypadC2Ev:00000036 .Loc.31
C:\Users\kenne\AppData\Local\Temp\cc0aKx3b.s:105    .text._ZN6KeypadC2Ev:0000003a .Loc.32
C:\Users\kenne\AppData\Local\Temp\cc0aKx3b.s:106    .text._ZN6KeypadC2Ev:0000003a .Loc.33
C:\Users\kenne\AppData\Local\Temp\cc0aKx3b.s:110    .text._ZN6KeypadC2Ev:00000040 .Loc.34
C:\Users\kenne\AppData\Local\Temp\cc0aKx3b.s:111    .text._ZN6KeypadC2Ev:00000040 .Loc.35
C:\Users\kenne\AppData\Local\Temp\cc0aKx3b.s:115    .text._ZN6KeypadC2Ev:00000046 .Loc.36
C:\Users\kenne\AppData\Local\Temp\cc0aKx3b.s:116    .text._ZN6KeypadC2Ev:00000046 .Loc.37
C:\Users\kenne\AppData\Local\Temp\cc0aKx3b.s:119    .text._ZN6KeypadC2Ev:0000004a .Loc.38
C:\Users\kenne\AppData\Local\Temp\cc0aKx3b.s:120    .text._ZN6KeypadC2Ev:0000004a .Loc.39
C:\Users\kenne\AppData\Local\Temp\cc0aKx3b.s:123    .text._ZN6KeypadC2Ev:0000004e .Loc.40
C:\Users\kenne\AppData\Local\Temp\cc0aKx3b.s:124    .text._ZN6KeypadC2Ev:0000004e .Loc.41
C:\Users\kenne\AppData\Local\Temp\cc0aKx3b.s:125    .text._ZN6KeypadC2Ev:0000004e .Loc.42
C:\Users\kenne\AppData\Local\Temp\cc0aKx3b.s:128    .text._ZN6KeypadC2Ev:0000004e .Loc.43
C:\Users\kenne\AppData\Local\Temp\cc0aKx3b.s:130    .text._ZN6KeypadC2Ev:00000050 L0
GAS LISTING C:\Users\kenne\AppData\Local\Temp\cc0aKx3b.s 			page 55


C:\Users\kenne\AppData\Local\Temp\cc0aKx3b.s:36     .text._ZN6KeypadC2Ev:00000000 _ZN6KeypadC1Ev
C:\Users\kenne\AppData\Local\Temp\cc0aKx3b.s:138    .text._ZN6KeypadD2Ev:00000000 _ZN6KeypadD2Ev
C:\Users\kenne\AppData\Local\Temp\cc0aKx3b.s:141    .text._ZN6KeypadD2Ev:00000000 .Loc.44
C:\Users\kenne\AppData\Local\Temp\cc0aKx3b.s:142    .text._ZN6KeypadD2Ev:00000000 L0
C:\Users\kenne\AppData\Local\Temp\cc0aKx3b.s:143    .text._ZN6KeypadD2Ev:00000000 .Loc.45
C:\Users\kenne\AppData\Local\Temp\cc0aKx3b.s:157    .text._ZN6KeypadD2Ev:00000008 .Loc.46
C:\Users\kenne\AppData\Local\Temp\cc0aKx3b.s:158    .text._ZN6KeypadD2Ev:00000008 .Loc.47
C:\Users\kenne\AppData\Local\Temp\cc0aKx3b.s:159    .text._ZN6KeypadD2Ev:00000008 .Loc.48
C:\Users\kenne\AppData\Local\Temp\cc0aKx3b.s:160    .text._ZN6KeypadD2Ev:00000008 .Loc.49
C:\Users\kenne\AppData\Local\Temp\cc0aKx3b.s:164    .text._ZN6KeypadD2Ev:0000000c .Loc.50
C:\Users\kenne\AppData\Local\Temp\cc0aKx3b.s:167    .text._ZN6KeypadD2Ev:00000010 .Loc.51
C:\Users\kenne\AppData\Local\Temp\cc0aKx3b.s:168    .text._ZN6KeypadD2Ev:00000010 .Loc.52
C:\Users\kenne\AppData\Local\Temp\cc0aKx3b.s:172    .text._ZN6KeypadD2Ev:00000014 .Loc.53
C:\Users\kenne\AppData\Local\Temp\cc0aKx3b.s:173    .text._ZN6KeypadD2Ev:00000014 .Loc.54
C:\Users\kenne\AppData\Local\Temp\cc0aKx3b.s:176    .text._ZN6KeypadD2Ev:00000018 .Loc.55
C:\Users\kenne\AppData\Local\Temp\cc0aKx3b.s:177    .text._ZN6KeypadD2Ev:00000018 .Loc.56
C:\Users\kenne\AppData\Local\Temp\cc0aKx3b.s:178    .text._ZN6KeypadD2Ev:00000018 .Loc.57
C:\Users\kenne\AppData\Local\Temp\cc0aKx3b.s:181    .text._ZN6KeypadD2Ev:00000018 .Loc.58
C:\Users\kenne\AppData\Local\Temp\cc0aKx3b.s:185    .text._ZN6KeypadD2Ev:0000001e L0
C:\Users\kenne\AppData\Local\Temp\cc0aKx3b.s:138    .text._ZN6KeypadD2Ev:00000000 _ZN6KeypadD1Ev
C:\Users\kenne\AppData\Local\Temp\cc0aKx3b.s:193    .text._ZN6Keypad4initEh:00000000 _ZN6Keypad4initEh
C:\Users\kenne\AppData\Local\Temp\cc0aKx3b.s:196    .text._ZN6Keypad4initEh:00000000 .Loc.59
C:\Users\kenne\AppData\Local\Temp\cc0aKx3b.s:197    .text._ZN6Keypad4initEh:00000000 L0
C:\Users\kenne\AppData\Local\Temp\cc0aKx3b.s:198    .text._ZN6Keypad4initEh:00000000 .Loc.60
C:\Users\kenne\AppData\Local\Temp\cc0aKx3b.s:211    .text._ZN6Keypad4initEh:00000008 .Loc.61
C:\Users\kenne\AppData\Local\Temp\cc0aKx3b.s:212    .text._ZN6Keypad4initEh:00000008 .Loc.62
C:\Users\kenne\AppData\Local\Temp\cc0aKx3b.s:213    .text._ZN6Keypad4initEh:00000008 .Loc.63
C:\Users\kenne\AppData\Local\Temp\cc0aKx3b.s:214    .text._ZN6Keypad4initEh:00000008 .Loc.64
C:\Users\kenne\AppData\Local\Temp\cc0aKx3b.s:217    .text._ZN6Keypad4initEh:0000000a .Loc.65
C:\Users\kenne\AppData\Local\Temp\cc0aKx3b.s:221    .text._ZN6Keypad4initEh:00000010 .Loc.66
C:\Users\kenne\AppData\Local\Temp\cc0aKx3b.s:224    .text._ZN6Keypad4initEh:00000014 .Loc.67
C:\Users\kenne\AppData\Local\Temp\cc0aKx3b.s:225    .text._ZN6Keypad4initEh:00000014 .Loc.68
C:\Users\kenne\AppData\Local\Temp\cc0aKx3b.s:230    .text._ZN6Keypad4initEh:0000001c .Loc.69
C:\Users\kenne\AppData\Local\Temp\cc0aKx3b.s:233    .text._ZN6Keypad4initEh:00000020 .Loc.70
C:\Users\kenne\AppData\Local\Temp\cc0aKx3b.s:234    .text._ZN6Keypad4initEh:00000020 .Loc.71
C:\Users\kenne\AppData\Local\Temp\cc0aKx3b.s:242    .text._ZN6Keypad4initEh:0000002e .Loc.72
C:\Users\kenne\AppData\Local\Temp\cc0aKx3b.s:246    .text._ZN6Keypad4initEh:00000034 .Loc.73
C:\Users\kenne\AppData\Local\Temp\cc0aKx3b.s:247    .text._ZN6Keypad4initEh:00000034 .Loc.74
C:\Users\kenne\AppData\Local\Temp\cc0aKx3b.s:259    .text._ZN6Keypad4initEh:0000004a .Loc.75
C:\Users\kenne\AppData\Local\Temp\cc0aKx3b.s:263    .text._ZN6Keypad4initEh:00000050 .Loc.76
C:\Users\kenne\AppData\Local\Temp\cc0aKx3b.s:264    .text._ZN6Keypad4initEh:00000050 .Loc.77
C:\Users\kenne\AppData\Local\Temp\cc0aKx3b.s:266    .text._ZN6Keypad4initEh:00000052 .Loc.78
C:\Users\kenne\AppData\Local\Temp\cc0aKx3b.s:268    .text._ZN6Keypad4initEh:00000056 L0
C:\Users\kenne\AppData\Local\Temp\cc0aKx3b.s:271    .text._ZN6Keypad4initEh:0000005c L0
C:\Users\kenne\AppData\Local\Temp\cc0aKx3b.s:275    .text._ZN6Keypad4initEh:00000062 .Loc.79
C:\Users\kenne\AppData\Local\Temp\cc0aKx3b.s:276    .text._ZN6Keypad4initEh:00000062 .Loc.80
C:\Users\kenne\AppData\Local\Temp\cc0aKx3b.s:277    .text._ZN6Keypad4initEh:00000062 .Loc.81
C:\Users\kenne\AppData\Local\Temp\cc0aKx3b.s:282    .text._ZN6Keypad4initEh:0000006a .Loc.82
C:\Users\kenne\AppData\Local\Temp\cc0aKx3b.s:283    .text._ZN6Keypad4initEh:0000006a .Loc.83
C:\Users\kenne\AppData\Local\Temp\cc0aKx3b.s:284    .text._ZN6Keypad4initEh:0000006a .Loc.84
C:\Users\kenne\AppData\Local\Temp\cc0aKx3b.s:285    .text._ZN6Keypad4initEh:0000006a .Loc.85
C:\Users\kenne\AppData\Local\Temp\cc0aKx3b.s:289    .text._ZN6Keypad4initEh:0000006e .Loc.86
C:\Users\kenne\AppData\Local\Temp\cc0aKx3b.s:290    .text._ZN6Keypad4initEh:0000006e .Loc.87
C:\Users\kenne\AppData\Local\Temp\cc0aKx3b.s:295    .text._ZN6Keypad4initEh:00000076 .Loc.88
C:\Users\kenne\AppData\Local\Temp\cc0aKx3b.s:296    .text._ZN6Keypad4initEh:00000076 .Loc.89
C:\Users\kenne\AppData\Local\Temp\cc0aKx3b.s:297    .text._ZN6Keypad4initEh:00000076 .Loc.90
C:\Users\kenne\AppData\Local\Temp\cc0aKx3b.s:300    .text._ZN6Keypad4initEh:00000076 .Loc.91
GAS LISTING C:\Users\kenne\AppData\Local\Temp\cc0aKx3b.s 			page 56


C:\Users\kenne\AppData\Local\Temp\cc0aKx3b.s:305    .text._ZN6Keypad4initEh:0000007c .Loc.92
C:\Users\kenne\AppData\Local\Temp\cc0aKx3b.s:306    .text._ZN6Keypad4initEh:0000007c .Loc.93
C:\Users\kenne\AppData\Local\Temp\cc0aKx3b.s:311    .text._ZN6Keypad4initEh:00000084 .Loc.94
C:\Users\kenne\AppData\Local\Temp\cc0aKx3b.s:312    .text._ZN6Keypad4initEh:00000084 .Loc.95
C:\Users\kenne\AppData\Local\Temp\cc0aKx3b.s:313    .text._ZN6Keypad4initEh:00000084 .Loc.96
C:\Users\kenne\AppData\Local\Temp\cc0aKx3b.s:314    .text._ZN6Keypad4initEh:00000084 .Loc.97
C:\Users\kenne\AppData\Local\Temp\cc0aKx3b.s:317    .text._ZN6Keypad4initEh:00000086 .Loc.98
C:\Users\kenne\AppData\Local\Temp\cc0aKx3b.s:318    .text._ZN6Keypad4initEh:00000086 .Loc.99
C:\Users\kenne\AppData\Local\Temp\cc0aKx3b.s:323    .text._ZN6Keypad4initEh:0000008e .Loc.100
C:\Users\kenne\AppData\Local\Temp\cc0aKx3b.s:324    .text._ZN6Keypad4initEh:0000008e .Loc.101
C:\Users\kenne\AppData\Local\Temp\cc0aKx3b.s:325    .text._ZN6Keypad4initEh:0000008e .Loc.102
C:\Users\kenne\AppData\Local\Temp\cc0aKx3b.s:326    .text._ZN6Keypad4initEh:0000008e .Loc.103
C:\Users\kenne\AppData\Local\Temp\cc0aKx3b.s:330    .text._ZN6Keypad4initEh:00000092 .Loc.104
C:\Users\kenne\AppData\Local\Temp\cc0aKx3b.s:331    .text._ZN6Keypad4initEh:00000092 .Loc.105
C:\Users\kenne\AppData\Local\Temp\cc0aKx3b.s:336    .text._ZN6Keypad4initEh:0000009a .Loc.106
C:\Users\kenne\AppData\Local\Temp\cc0aKx3b.s:337    .text._ZN6Keypad4initEh:0000009a .Loc.107
C:\Users\kenne\AppData\Local\Temp\cc0aKx3b.s:338    .text._ZN6Keypad4initEh:0000009a .Loc.108
C:\Users\kenne\AppData\Local\Temp\cc0aKx3b.s:339    .text._ZN6Keypad4initEh:0000009a .Loc.109
C:\Users\kenne\AppData\Local\Temp\cc0aKx3b.s:343    .text._ZN6Keypad4initEh:0000009e .Loc.110
C:\Users\kenne\AppData\Local\Temp\cc0aKx3b.s:344    .text._ZN6Keypad4initEh:0000009e .Loc.111
C:\Users\kenne\AppData\Local\Temp\cc0aKx3b.s:361    .text._ZN6Keypad4initEh:000000ba .Loc.112
C:\Users\kenne\AppData\Local\Temp\cc0aKx3b.s:377    .text._ZN6Keypad4initEh:000000d4 .Loc.113
C:\Users\kenne\AppData\Local\Temp\cc0aKx3b.s:393    .text._ZN6Keypad4initEh:000000ee .Loc.114
C:\Users\kenne\AppData\Local\Temp\cc0aKx3b.s:408    .text._ZN6Keypad4initEh:00000106 .Loc.115
C:\Users\kenne\AppData\Local\Temp\cc0aKx3b.s:410    .text._ZN6Keypad4initEh:00000106 .Loc.116
C:\Users\kenne\AppData\Local\Temp\cc0aKx3b.s:411    .text._ZN6Keypad4initEh:00000106 .Loc.117
C:\Users\kenne\AppData\Local\Temp\cc0aKx3b.s:417    .text._ZN6Keypad4initEh:0000010e .Loc.118
C:\Users\kenne\AppData\Local\Temp\cc0aKx3b.s:423    .text._ZN6Keypad4initEh:00000118 .Loc.119
C:\Users\kenne\AppData\Local\Temp\cc0aKx3b.s:424    .text._ZN6Keypad4initEh:00000118 .Loc.120
C:\Users\kenne\AppData\Local\Temp\cc0aKx3b.s:427    .text._ZN6Keypad4initEh:0000011c .Loc.121
C:\Users\kenne\AppData\Local\Temp\cc0aKx3b.s:428    .text._ZN6Keypad4initEh:0000011c .Loc.122
C:\Users\kenne\AppData\Local\Temp\cc0aKx3b.s:431    .text._ZN6Keypad4initEh:00000120 .Loc.123
C:\Users\kenne\AppData\Local\Temp\cc0aKx3b.s:432    .text._ZN6Keypad4initEh:00000120 .Loc.124
C:\Users\kenne\AppData\Local\Temp\cc0aKx3b.s:433    .text._ZN6Keypad4initEh:00000120 .Loc.125
C:\Users\kenne\AppData\Local\Temp\cc0aKx3b.s:434    .text._ZN6Keypad4initEh:00000120 .Loc.126
C:\Users\kenne\AppData\Local\Temp\cc0aKx3b.s:437    .text._ZN6Keypad4initEh:00000122 .Loc.127
C:\Users\kenne\AppData\Local\Temp\cc0aKx3b.s:438    .text._ZN6Keypad4initEh:00000122 .Loc.128
C:\Users\kenne\AppData\Local\Temp\cc0aKx3b.s:455    .text._ZN6Keypad4initEh:0000013e .Loc.129
C:\Users\kenne\AppData\Local\Temp\cc0aKx3b.s:470    .text._ZN6Keypad4initEh:00000156 .Loc.130
C:\Users\kenne\AppData\Local\Temp\cc0aKx3b.s:488    .text._ZN6Keypad4initEh:00000174 .Loc.131
C:\Users\kenne\AppData\Local\Temp\cc0aKx3b.s:503    .text._ZN6Keypad4initEh:0000018c .Loc.132
C:\Users\kenne\AppData\Local\Temp\cc0aKx3b.s:506    .text._ZN6Keypad4initEh:0000018e .Loc.133
C:\Users\kenne\AppData\Local\Temp\cc0aKx3b.s:507    .text._ZN6Keypad4initEh:0000018e .Loc.134
C:\Users\kenne\AppData\Local\Temp\cc0aKx3b.s:524    .text._ZN6Keypad4initEh:000001aa .Loc.135
C:\Users\kenne\AppData\Local\Temp\cc0aKx3b.s:539    .text._ZN6Keypad4initEh:000001c2 .Loc.136
C:\Users\kenne\AppData\Local\Temp\cc0aKx3b.s:557    .text._ZN6Keypad4initEh:000001e0 .Loc.137
C:\Users\kenne\AppData\Local\Temp\cc0aKx3b.s:572    .text._ZN6Keypad4initEh:000001f8 .Loc.138
C:\Users\kenne\AppData\Local\Temp\cc0aKx3b.s:574    .text._ZN6Keypad4initEh:000001fa L0
C:\Users\kenne\AppData\Local\Temp\cc0aKx3b.s:580    .text._ZN6Keypad8setPortsEPVhhS1_h:00000000 _ZN6Keypad8setPortsEPVhhS1_h
C:\Users\kenne\AppData\Local\Temp\cc0aKx3b.s:583    .text._ZN6Keypad8setPortsEPVhhS1_h:00000000 .Loc.139
C:\Users\kenne\AppData\Local\Temp\cc0aKx3b.s:584    .text._ZN6Keypad8setPortsEPVhhS1_h:00000000 L0
C:\Users\kenne\AppData\Local\Temp\cc0aKx3b.s:585    .text._ZN6Keypad8setPortsEPVhhS1_h:00000000 .Loc.140
C:\Users\kenne\AppData\Local\Temp\cc0aKx3b.s:603    .text._ZN6Keypad8setPortsEPVhhS1_h:0000000c .Loc.141
C:\Users\kenne\AppData\Local\Temp\cc0aKx3b.s:607    .text._ZN6Keypad8setPortsEPVhhS1_h:00000012 .Loc.142
C:\Users\kenne\AppData\Local\Temp\cc0aKx3b.s:608    .text._ZN6Keypad8setPortsEPVhhS1_h:00000012 .Loc.143
C:\Users\kenne\AppData\Local\Temp\cc0aKx3b.s:609    .text._ZN6Keypad8setPortsEPVhhS1_h:00000012 .Loc.144
C:\Users\kenne\AppData\Local\Temp\cc0aKx3b.s:610    .text._ZN6Keypad8setPortsEPVhhS1_h:00000012 .Loc.145
GAS LISTING C:\Users\kenne\AppData\Local\Temp\cc0aKx3b.s 			page 57


C:\Users\kenne\AppData\Local\Temp\cc0aKx3b.s:613    .text._ZN6Keypad8setPortsEPVhhS1_h:00000016 .Loc.146
C:\Users\kenne\AppData\Local\Temp\cc0aKx3b.s:614    .text._ZN6Keypad8setPortsEPVhhS1_h:00000016 .Loc.147
C:\Users\kenne\AppData\Local\Temp\cc0aKx3b.s:617    .text._ZN6Keypad8setPortsEPVhhS1_h:0000001a .Loc.148
C:\Users\kenne\AppData\Local\Temp\cc0aKx3b.s:618    .text._ZN6Keypad8setPortsEPVhhS1_h:0000001a .Loc.149
C:\Users\kenne\AppData\Local\Temp\cc0aKx3b.s:621    .text._ZN6Keypad8setPortsEPVhhS1_h:0000001e .Loc.150
C:\Users\kenne\AppData\Local\Temp\cc0aKx3b.s:622    .text._ZN6Keypad8setPortsEPVhhS1_h:0000001e .Loc.151
C:\Users\kenne\AppData\Local\Temp\cc0aKx3b.s:625    .text._ZN6Keypad8setPortsEPVhhS1_h:00000020 .Loc.152
C:\Users\kenne\AppData\Local\Temp\cc0aKx3b.s:628    .text._ZN6Keypad8setPortsEPVhhS1_h:00000024 .Loc.153
C:\Users\kenne\AppData\Local\Temp\cc0aKx3b.s:629    .text._ZN6Keypad8setPortsEPVhhS1_h:00000024 .Loc.154
C:\Users\kenne\AppData\Local\Temp\cc0aKx3b.s:632    .text._ZN6Keypad8setPortsEPVhhS1_h:00000028 .Loc.155
C:\Users\kenne\AppData\Local\Temp\cc0aKx3b.s:633    .text._ZN6Keypad8setPortsEPVhhS1_h:00000028 .Loc.156
C:\Users\kenne\AppData\Local\Temp\cc0aKx3b.s:636    .text._ZN6Keypad8setPortsEPVhhS1_h:0000002c .Loc.157
C:\Users\kenne\AppData\Local\Temp\cc0aKx3b.s:637    .text._ZN6Keypad8setPortsEPVhhS1_h:0000002c .Loc.158
C:\Users\kenne\AppData\Local\Temp\cc0aKx3b.s:641    .text._ZN6Keypad8setPortsEPVhhS1_h:00000032 .Loc.159
C:\Users\kenne\AppData\Local\Temp\cc0aKx3b.s:642    .text._ZN6Keypad8setPortsEPVhhS1_h:00000032 .Loc.160
C:\Users\kenne\AppData\Local\Temp\cc0aKx3b.s:646    .text._ZN6Keypad8setPortsEPVhhS1_h:00000038 .Loc.161
C:\Users\kenne\AppData\Local\Temp\cc0aKx3b.s:647    .text._ZN6Keypad8setPortsEPVhhS1_h:00000038 .Loc.162
C:\Users\kenne\AppData\Local\Temp\cc0aKx3b.s:651    .text._ZN6Keypad8setPortsEPVhhS1_h:0000003e .Loc.163
C:\Users\kenne\AppData\Local\Temp\cc0aKx3b.s:654    .text._ZN6Keypad8setPortsEPVhhS1_h:00000044 L0
C:\Users\kenne\AppData\Local\Temp\cc0aKx3b.s:656    .text._ZN6Keypad8setPortsEPVhhS1_h:00000046 .Loc.164
C:\Users\kenne\AppData\Local\Temp\cc0aKx3b.s:657    .text._ZN6Keypad8setPortsEPVhhS1_h:00000046 .Loc.165
C:\Users\kenne\AppData\Local\Temp\cc0aKx3b.s:661    .text._ZN6Keypad8setPortsEPVhhS1_h:0000004c .Loc.166
C:\Users\kenne\AppData\Local\Temp\cc0aKx3b.s:664    .text._ZN6Keypad8setPortsEPVhhS1_h:00000052 L0
C:\Users\kenne\AppData\Local\Temp\cc0aKx3b.s:666    .text._ZN6Keypad8setPortsEPVhhS1_h:00000054 .Loc.167
C:\Users\kenne\AppData\Local\Temp\cc0aKx3b.s:667    .text._ZN6Keypad8setPortsEPVhhS1_h:00000054 .Loc.168
C:\Users\kenne\AppData\Local\Temp\cc0aKx3b.s:675    .text._ZN6Keypad8setPortsEPVhhS1_h:00000062 .Loc.169
C:\Users\kenne\AppData\Local\Temp\cc0aKx3b.s:685    .text._ZN6Keypad8setPortsEPVhhS1_h:00000074 .Loc.170
C:\Users\kenne\AppData\Local\Temp\cc0aKx3b.s:688    .text._ZN6Keypad8setPortsEPVhhS1_h:00000078 .Loc.171
C:\Users\kenne\AppData\Local\Temp\cc0aKx3b.s:689    .text._ZN6Keypad8setPortsEPVhhS1_h:00000078 .Loc.172
C:\Users\kenne\AppData\Local\Temp\cc0aKx3b.s:692    .text._ZN6Keypad8setPortsEPVhhS1_h:0000007c .Loc.173
C:\Users\kenne\AppData\Local\Temp\cc0aKx3b.s:695    .text._ZN6Keypad8setPortsEPVhhS1_h:00000080 .Loc.174
C:\Users\kenne\AppData\Local\Temp\cc0aKx3b.s:696    .text._ZN6Keypad8setPortsEPVhhS1_h:00000080 .Loc.175
C:\Users\kenne\AppData\Local\Temp\cc0aKx3b.s:698    .text._ZN6Keypad8setPortsEPVhhS1_h:00000082 .Loc.176
C:\Users\kenne\AppData\Local\Temp\cc0aKx3b.s:701    .text._ZN6Keypad8setPortsEPVhhS1_h:00000086 .Loc.177
C:\Users\kenne\AppData\Local\Temp\cc0aKx3b.s:702    .text._ZN6Keypad8setPortsEPVhhS1_h:00000086 .Loc.178
C:\Users\kenne\AppData\Local\Temp\cc0aKx3b.s:705    .text._ZN6Keypad8setPortsEPVhhS1_h:00000088 .Loc.179
C:\Users\kenne\AppData\Local\Temp\cc0aKx3b.s:710    .text._ZN6Keypad8setPortsEPVhhS1_h:00000090 .Loc.180
C:\Users\kenne\AppData\Local\Temp\cc0aKx3b.s:711    .text._ZN6Keypad8setPortsEPVhhS1_h:00000090 .Loc.181
C:\Users\kenne\AppData\Local\Temp\cc0aKx3b.s:725    .text._ZN6Keypad8setPortsEPVhhS1_h:000000ac .Loc.182
C:\Users\kenne\AppData\Local\Temp\cc0aKx3b.s:728    .text._ZN6Keypad8setPortsEPVhhS1_h:000000b0 .Loc.183
C:\Users\kenne\AppData\Local\Temp\cc0aKx3b.s:729    .text._ZN6Keypad8setPortsEPVhhS1_h:000000b0 .Loc.184
C:\Users\kenne\AppData\Local\Temp\cc0aKx3b.s:731    .text._ZN6Keypad8setPortsEPVhhS1_h:000000b2 .Loc.185
C:\Users\kenne\AppData\Local\Temp\cc0aKx3b.s:734    .text._ZN6Keypad8setPortsEPVhhS1_h:000000b6 .Loc.186
C:\Users\kenne\AppData\Local\Temp\cc0aKx3b.s:735    .text._ZN6Keypad8setPortsEPVhhS1_h:000000b6 .Loc.187
C:\Users\kenne\AppData\Local\Temp\cc0aKx3b.s:738    .text._ZN6Keypad8setPortsEPVhhS1_h:000000b8 .Loc.188
C:\Users\kenne\AppData\Local\Temp\cc0aKx3b.s:743    .text._ZN6Keypad8setPortsEPVhhS1_h:000000c0 .Loc.189
C:\Users\kenne\AppData\Local\Temp\cc0aKx3b.s:744    .text._ZN6Keypad8setPortsEPVhhS1_h:000000c0 .Loc.190
C:\Users\kenne\AppData\Local\Temp\cc0aKx3b.s:748    .text._ZN6Keypad8setPortsEPVhhS1_h:000000c6 .Loc.191
C:\Users\kenne\AppData\Local\Temp\cc0aKx3b.s:749    .text._ZN6Keypad8setPortsEPVhhS1_h:000000c6 .Loc.192
C:\Users\kenne\AppData\Local\Temp\cc0aKx3b.s:752    .text._ZN6Keypad8setPortsEPVhhS1_h:000000ca .Loc.193
C:\Users\kenne\AppData\Local\Temp\cc0aKx3b.s:753    .text._ZN6Keypad8setPortsEPVhhS1_h:000000ca .Loc.194
C:\Users\kenne\AppData\Local\Temp\cc0aKx3b.s:754    .text._ZN6Keypad8setPortsEPVhhS1_h:000000ca .Loc.195
C:\Users\kenne\AppData\Local\Temp\cc0aKx3b.s:755    .text._ZN6Keypad8setPortsEPVhhS1_h:000000ca .Loc.196
C:\Users\kenne\AppData\Local\Temp\cc0aKx3b.s:759    .text._ZN6Keypad8setPortsEPVhhS1_h:000000cc .Loc.197
C:\Users\kenne\AppData\Local\Temp\cc0aKx3b.s:766    .text._ZN6Keypad8setPortsEPVhhS1_h:000000d4 .Loc.198
C:\Users\kenne\AppData\Local\Temp\cc0aKx3b.s:767    .text._ZN6Keypad8setPortsEPVhhS1_h:000000d4 .Loc.199
C:\Users\kenne\AppData\Local\Temp\cc0aKx3b.s:772    .text._ZN6Keypad8setPortsEPVhhS1_h:000000dc .Loc.200
GAS LISTING C:\Users\kenne\AppData\Local\Temp\cc0aKx3b.s 			page 58


C:\Users\kenne\AppData\Local\Temp\cc0aKx3b.s:773    .text._ZN6Keypad8setPortsEPVhhS1_h:000000dc .Loc.201
C:\Users\kenne\AppData\Local\Temp\cc0aKx3b.s:774    .text._ZN6Keypad8setPortsEPVhhS1_h:000000dc .Loc.202
C:\Users\kenne\AppData\Local\Temp\cc0aKx3b.s:775    .text._ZN6Keypad8setPortsEPVhhS1_h:000000dc .Loc.203
C:\Users\kenne\AppData\Local\Temp\cc0aKx3b.s:779    .text._ZN6Keypad8setPortsEPVhhS1_h:000000e0 .Loc.204
C:\Users\kenne\AppData\Local\Temp\cc0aKx3b.s:780    .text._ZN6Keypad8setPortsEPVhhS1_h:000000e0 .Loc.205
C:\Users\kenne\AppData\Local\Temp\cc0aKx3b.s:785    .text._ZN6Keypad8setPortsEPVhhS1_h:000000e8 .Loc.206
C:\Users\kenne\AppData\Local\Temp\cc0aKx3b.s:786    .text._ZN6Keypad8setPortsEPVhhS1_h:000000e8 .Loc.207
C:\Users\kenne\AppData\Local\Temp\cc0aKx3b.s:787    .text._ZN6Keypad8setPortsEPVhhS1_h:000000e8 .Loc.208
C:\Users\kenne\AppData\Local\Temp\cc0aKx3b.s:788    .text._ZN6Keypad8setPortsEPVhhS1_h:000000e8 .Loc.209
C:\Users\kenne\AppData\Local\Temp\cc0aKx3b.s:791    .text._ZN6Keypad8setPortsEPVhhS1_h:000000ec L0
C:\Users\kenne\AppData\Local\Temp\cc0aKx3b.s:797    .text._ZN6Keypad12setKeyValuesENS_4TypeEz:00000000 _ZN6Keypad12setKeyValuesENS_4TypeEz
C:\Users\kenne\AppData\Local\Temp\cc0aKx3b.s:800    .text._ZN6Keypad12setKeyValuesENS_4TypeEz:00000000 .Loc.210
C:\Users\kenne\AppData\Local\Temp\cc0aKx3b.s:801    .text._ZN6Keypad12setKeyValuesENS_4TypeEz:00000000 L0
C:\Users\kenne\AppData\Local\Temp\cc0aKx3b.s:802    .text._ZN6Keypad12setKeyValuesENS_4TypeEz:00000000 .Loc.211
C:\Users\kenne\AppData\Local\Temp\cc0aKx3b.s:824    .text._ZN6Keypad12setKeyValuesENS_4TypeEz:00000010 L0
C:\Users\kenne\AppData\Local\Temp\cc0aKx3b.s:836    .text._ZN6Keypad12setKeyValuesENS_4TypeEz:00000018 .Loc.212
C:\Users\kenne\AppData\Local\Temp\cc0aKx3b.s:839    .text._ZN6Keypad12setKeyValuesENS_4TypeEz:0000001a .Loc.213
C:\Users\kenne\AppData\Local\Temp\cc0aKx3b.s:840    .text._ZN6Keypad12setKeyValuesENS_4TypeEz:0000001a .Loc.214
C:\Users\kenne\AppData\Local\Temp\cc0aKx3b.s:841    .text._ZN6Keypad12setKeyValuesENS_4TypeEz:0000001a .Loc.215
C:\Users\kenne\AppData\Local\Temp\cc0aKx3b.s:842    .text._ZN6Keypad12setKeyValuesENS_4TypeEz:0000001a .Loc.216
C:\Users\kenne\AppData\Local\Temp\cc0aKx3b.s:851    .text._ZN6Keypad12setKeyValuesENS_4TypeEz:0000002a .Loc.217
C:\Users\kenne\AppData\Local\Temp\cc0aKx3b.s:853    .text._ZN6Keypad12setKeyValuesENS_4TypeEz:0000002e L0
C:\Users\kenne\AppData\Local\Temp\cc0aKx3b.s:856    .text._ZN6Keypad12setKeyValuesENS_4TypeEz:00000034 L0
C:\Users\kenne\AppData\Local\Temp\cc0aKx3b.s:860    .text._ZN6Keypad12setKeyValuesENS_4TypeEz:0000003a .Loc.218
C:\Users\kenne\AppData\Local\Temp\cc0aKx3b.s:861    .text._ZN6Keypad12setKeyValuesENS_4TypeEz:0000003a .Loc.219
C:\Users\kenne\AppData\Local\Temp\cc0aKx3b.s:862    .text._ZN6Keypad12setKeyValuesENS_4TypeEz:0000003a .Loc.220
C:\Users\kenne\AppData\Local\Temp\cc0aKx3b.s:866    .text._ZN6Keypad12setKeyValuesENS_4TypeEz:0000003e .Loc.221
C:\Users\kenne\AppData\Local\Temp\cc0aKx3b.s:870    .text._ZN6Keypad12setKeyValuesENS_4TypeEz:00000044 .Loc.222
C:\Users\kenne\AppData\Local\Temp\cc0aKx3b.s:871    .text._ZN6Keypad12setKeyValuesENS_4TypeEz:00000044 .Loc.223
C:\Users\kenne\AppData\Local\Temp\cc0aKx3b.s:872    .text._ZN6Keypad12setKeyValuesENS_4TypeEz:00000044 .Loc.224
C:\Users\kenne\AppData\Local\Temp\cc0aKx3b.s:873    .text._ZN6Keypad12setKeyValuesENS_4TypeEz:00000044 .Loc.225
C:\Users\kenne\AppData\Local\Temp\cc0aKx3b.s:878    .text._ZN6Keypad12setKeyValuesENS_4TypeEz:00000048 .Loc.226
C:\Users\kenne\AppData\Local\Temp\cc0aKx3b.s:879    .text._ZN6Keypad12setKeyValuesENS_4TypeEz:00000048 .Loc.227
C:\Users\kenne\AppData\Local\Temp\cc0aKx3b.s:880    .text._ZN6Keypad12setKeyValuesENS_4TypeEz:00000048 .Loc.228
C:\Users\kenne\AppData\Local\Temp\cc0aKx3b.s:886    .text._ZN6Keypad12setKeyValuesENS_4TypeEz:00000052 .Loc.229
C:\Users\kenne\AppData\Local\Temp\cc0aKx3b.s:887    .text._ZN6Keypad12setKeyValuesENS_4TypeEz:00000052 .Loc.230
C:\Users\kenne\AppData\Local\Temp\cc0aKx3b.s:892    .text._ZN6Keypad12setKeyValuesENS_4TypeEz:0000005a .Loc.231
C:\Users\kenne\AppData\Local\Temp\cc0aKx3b.s:893    .text._ZN6Keypad12setKeyValuesENS_4TypeEz:0000005a .Loc.232
C:\Users\kenne\AppData\Local\Temp\cc0aKx3b.s:895    .text._ZN6Keypad12setKeyValuesENS_4TypeEz:0000005a .Loc.233
C:\Users\kenne\AppData\Local\Temp\cc0aKx3b.s:896    .text._ZN6Keypad12setKeyValuesENS_4TypeEz:0000005a .Loc.234
C:\Users\kenne\AppData\Local\Temp\cc0aKx3b.s:901    .text._ZN6Keypad12setKeyValuesENS_4TypeEz:00000062 .Loc.235
C:\Users\kenne\AppData\Local\Temp\cc0aKx3b.s:902    .text._ZN6Keypad12setKeyValuesENS_4TypeEz:00000062 .Loc.236
C:\Users\kenne\AppData\Local\Temp\cc0aKx3b.s:907    .text._ZN6Keypad12setKeyValuesENS_4TypeEz:00000068 .Loc.237
C:\Users\kenne\AppData\Local\Temp\cc0aKx3b.s:914    .text._ZN6Keypad12setKeyValuesENS_4TypeEz:00000074 .Loc.238
C:\Users\kenne\AppData\Local\Temp\cc0aKx3b.s:917    .text._ZN6Keypad12setKeyValuesENS_4TypeEz:00000078 .Loc.239
C:\Users\kenne\AppData\Local\Temp\cc0aKx3b.s:920    .text._ZN6Keypad12setKeyValuesENS_4TypeEz:0000007c .Loc.240
C:\Users\kenne\AppData\Local\Temp\cc0aKx3b.s:922    .text._ZN6Keypad12setKeyValuesENS_4TypeEz:0000007e .Loc.241
C:\Users\kenne\AppData\Local\Temp\cc0aKx3b.s:930    .text._ZN6Keypad12setKeyValuesENS_4TypeEz:0000008c .Loc.242
C:\Users\kenne\AppData\Local\Temp\cc0aKx3b.s:936    .text._ZN6Keypad12setKeyValuesENS_4TypeEz:00000096 .Loc.243
C:\Users\kenne\AppData\Local\Temp\cc0aKx3b.s:939    .text._ZN6Keypad12setKeyValuesENS_4TypeEz:0000009a .Loc.244
C:\Users\kenne\AppData\Local\Temp\cc0aKx3b.s:943    .text._ZN6Keypad12setKeyValuesENS_4TypeEz:000000a0 .Loc.245
C:\Users\kenne\AppData\Local\Temp\cc0aKx3b.s:947    .text._ZN6Keypad12setKeyValuesENS_4TypeEz:000000a4 .Loc.246
C:\Users\kenne\AppData\Local\Temp\cc0aKx3b.s:949    .text._ZN6Keypad12setKeyValuesENS_4TypeEz:000000a4 .Loc.247
C:\Users\kenne\AppData\Local\Temp\cc0aKx3b.s:950    .text._ZN6Keypad12setKeyValuesENS_4TypeEz:000000a4 .Loc.248
C:\Users\kenne\AppData\Local\Temp\cc0aKx3b.s:955    .text._ZN6Keypad12setKeyValuesENS_4TypeEz:000000ac .Loc.249
C:\Users\kenne\AppData\Local\Temp\cc0aKx3b.s:958    .text._ZN6Keypad12setKeyValuesENS_4TypeEz:000000ac .Loc.250
C:\Users\kenne\AppData\Local\Temp\cc0aKx3b.s:960    .text._ZN6Keypad12setKeyValuesENS_4TypeEz:000000ae .Loc.251
GAS LISTING C:\Users\kenne\AppData\Local\Temp\cc0aKx3b.s 			page 59


C:\Users\kenne\AppData\Local\Temp\cc0aKx3b.s:964    .text._ZN6Keypad12setKeyValuesENS_4TypeEz:000000b0 .Loc.252
C:\Users\kenne\AppData\Local\Temp\cc0aKx3b.s:967    .text._ZN6Keypad12setKeyValuesENS_4TypeEz:000000b0 .Loc.253
C:\Users\kenne\AppData\Local\Temp\cc0aKx3b.s:968    .text._ZN6Keypad12setKeyValuesENS_4TypeEz:000000b0 .Loc.254
C:\Users\kenne\AppData\Local\Temp\cc0aKx3b.s:969    .text._ZN6Keypad12setKeyValuesENS_4TypeEz:000000b0 .Loc.255
C:\Users\kenne\AppData\Local\Temp\cc0aKx3b.s:975    .text._ZN6Keypad12setKeyValuesENS_4TypeEz:000000ba .Loc.256
C:\Users\kenne\AppData\Local\Temp\cc0aKx3b.s:976    .text._ZN6Keypad12setKeyValuesENS_4TypeEz:000000ba .Loc.257
C:\Users\kenne\AppData\Local\Temp\cc0aKx3b.s:980    .text._ZN6Keypad12setKeyValuesENS_4TypeEz:000000c0 .Loc.258
C:\Users\kenne\AppData\Local\Temp\cc0aKx3b.s:981    .text._ZN6Keypad12setKeyValuesENS_4TypeEz:000000c0 .Loc.259
C:\Users\kenne\AppData\Local\Temp\cc0aKx3b.s:984    .text._ZN6Keypad12setKeyValuesENS_4TypeEz:000000c2 .Loc.260
C:\Users\kenne\AppData\Local\Temp\cc0aKx3b.s:985    .text._ZN6Keypad12setKeyValuesENS_4TypeEz:000000c2 .Loc.261
C:\Users\kenne\AppData\Local\Temp\cc0aKx3b.s:986    .text._ZN6Keypad12setKeyValuesENS_4TypeEz:000000c2 .Loc.262
C:\Users\kenne\AppData\Local\Temp\cc0aKx3b.s:995    .text._ZN6Keypad12setKeyValuesENS_4TypeEz:000000d2 .Loc.263
C:\Users\kenne\AppData\Local\Temp\cc0aKx3b.s:996    .text._ZN6Keypad12setKeyValuesENS_4TypeEz:000000d2 .Loc.264
C:\Users\kenne\AppData\Local\Temp\cc0aKx3b.s:1001   .text._ZN6Keypad12setKeyValuesENS_4TypeEz:000000da .Loc.265
C:\Users\kenne\AppData\Local\Temp\cc0aKx3b.s:1005   .text._ZN6Keypad12setKeyValuesENS_4TypeEz:000000dc .Loc.266
C:\Users\kenne\AppData\Local\Temp\cc0aKx3b.s:1006   .text._ZN6Keypad12setKeyValuesENS_4TypeEz:000000dc .Loc.267
C:\Users\kenne\AppData\Local\Temp\cc0aKx3b.s:1011   .text._ZN6Keypad12setKeyValuesENS_4TypeEz:000000e4 .Loc.268
C:\Users\kenne\AppData\Local\Temp\cc0aKx3b.s:1012   .text._ZN6Keypad12setKeyValuesENS_4TypeEz:000000e4 .Loc.269
C:\Users\kenne\AppData\Local\Temp\cc0aKx3b.s:1013   .text._ZN6Keypad12setKeyValuesENS_4TypeEz:000000e4 .Loc.270
C:\Users\kenne\AppData\Local\Temp\cc0aKx3b.s:1014   .text._ZN6Keypad12setKeyValuesENS_4TypeEz:000000e4 .Loc.271
C:\Users\kenne\AppData\Local\Temp\cc0aKx3b.s:1022   .text._ZN6Keypad12setKeyValuesENS_4TypeEz:000000e8 .Loc.272
C:\Users\kenne\AppData\Local\Temp\cc0aKx3b.s:1023   .text._ZN6Keypad12setKeyValuesENS_4TypeEz:000000e8 .Loc.273
C:\Users\kenne\AppData\Local\Temp\cc0aKx3b.s:1031   .text._ZN6Keypad12setKeyValuesENS_4TypeEz:000000f6 .Loc.274
C:\Users\kenne\AppData\Local\Temp\cc0aKx3b.s:1037   .text._ZN6Keypad12setKeyValuesENS_4TypeEz:00000100 .Loc.275
C:\Users\kenne\AppData\Local\Temp\cc0aKx3b.s:1045   .text._ZN6Keypad12setKeyValuesENS_4TypeEz:0000010e .Loc.276
C:\Users\kenne\AppData\Local\Temp\cc0aKx3b.s:1047   .text._ZN6Keypad12setKeyValuesENS_4TypeEz:00000110 .Loc.277
C:\Users\kenne\AppData\Local\Temp\cc0aKx3b.s:1055   .text._ZN6Keypad12setKeyValuesENS_4TypeEz:0000011e .Loc.278
C:\Users\kenne\AppData\Local\Temp\cc0aKx3b.s:1058   .text._ZN6Keypad12setKeyValuesENS_4TypeEz:00000122 .Loc.279
C:\Users\kenne\AppData\Local\Temp\cc0aKx3b.s:1061   .text._ZN6Keypad12setKeyValuesENS_4TypeEz:00000126 .Loc.280
C:\Users\kenne\AppData\Local\Temp\cc0aKx3b.s:1063   .text._ZN6Keypad12setKeyValuesENS_4TypeEz:00000128 .Loc.281
C:\Users\kenne\AppData\Local\Temp\cc0aKx3b.s:1067   .text._ZN6Keypad12setKeyValuesENS_4TypeEz:0000012a .Loc.282
C:\Users\kenne\AppData\Local\Temp\cc0aKx3b.s:1068   .text._ZN6Keypad12setKeyValuesENS_4TypeEz:0000012a .Loc.283
C:\Users\kenne\AppData\Local\Temp\cc0aKx3b.s:1073   .text._ZN6Keypad12setKeyValuesENS_4TypeEz:00000132 .Loc.284
C:\Users\kenne\AppData\Local\Temp\cc0aKx3b.s:1076   .text._ZN6Keypad12setKeyValuesENS_4TypeEz:00000136 .Loc.285
C:\Users\kenne\AppData\Local\Temp\cc0aKx3b.s:1081   .text._ZN6Keypad12setKeyValuesENS_4TypeEz:0000013c .Loc.286
C:\Users\kenne\AppData\Local\Temp\cc0aKx3b.s:1085   .text._ZN6Keypad12setKeyValuesENS_4TypeEz:0000013e .Loc.287
C:\Users\kenne\AppData\Local\Temp\cc0aKx3b.s:1086   .text._ZN6Keypad12setKeyValuesENS_4TypeEz:0000013e .Loc.288
C:\Users\kenne\AppData\Local\Temp\cc0aKx3b.s:1096   .text._ZN6Keypad12setKeyValuesENS_4TypeEz:00000150 .Loc.289
C:\Users\kenne\AppData\Local\Temp\cc0aKx3b.s:1099   .text._ZN6Keypad12setKeyValuesENS_4TypeEz:00000154 .Loc.290
C:\Users\kenne\AppData\Local\Temp\cc0aKx3b.s:1104   .text._ZN6Keypad12setKeyValuesENS_4TypeEz:0000015a .Loc.291
C:\Users\kenne\AppData\Local\Temp\cc0aKx3b.s:1110   .text._ZN6Keypad12setKeyValuesENS_4TypeEz:0000015e .Loc.292
C:\Users\kenne\AppData\Local\Temp\cc0aKx3b.s:1111   .text._ZN6Keypad12setKeyValuesENS_4TypeEz:0000015e .Loc.293
C:\Users\kenne\AppData\Local\Temp\cc0aKx3b.s:1112   .text._ZN6Keypad12setKeyValuesENS_4TypeEz:0000015e .Loc.294
C:\Users\kenne\AppData\Local\Temp\cc0aKx3b.s:1121   .text._ZN6Keypad12setKeyValuesENS_4TypeEz:0000016c .Loc.295
C:\Users\kenne\AppData\Local\Temp\cc0aKx3b.s:1122   .text._ZN6Keypad12setKeyValuesENS_4TypeEz:0000016c .Loc.296
C:\Users\kenne\AppData\Local\Temp\cc0aKx3b.s:1123   .text._ZN6Keypad12setKeyValuesENS_4TypeEz:0000016c .Loc.297
C:\Users\kenne\AppData\Local\Temp\cc0aKx3b.s:1128   .text._ZN6Keypad12setKeyValuesENS_4TypeEz:00000174 .Loc.298
C:\Users\kenne\AppData\Local\Temp\cc0aKx3b.s:1129   .text._ZN6Keypad12setKeyValuesENS_4TypeEz:00000174 .Loc.299
C:\Users\kenne\AppData\Local\Temp\cc0aKx3b.s:1130   .text._ZN6Keypad12setKeyValuesENS_4TypeEz:00000174 .Loc.300
C:\Users\kenne\AppData\Local\Temp\cc0aKx3b.s:1131   .text._ZN6Keypad12setKeyValuesENS_4TypeEz:00000174 .Loc.301
C:\Users\kenne\AppData\Local\Temp\cc0aKx3b.s:1136   .text._ZN6Keypad12setKeyValuesENS_4TypeEz:00000176 .Loc.302
C:\Users\kenne\AppData\Local\Temp\cc0aKx3b.s:1147   .text._ZN6Keypad12setKeyValuesENS_4TypeEz:0000018a L0
C:\Users\kenne\AppData\Local\Temp\cc0aKx3b.s:1153   .text._ZN6Keypad14readKeyPressedEPh:00000000 _ZN6Keypad14readKeyPressedEPh
C:\Users\kenne\AppData\Local\Temp\cc0aKx3b.s:1156   .text._ZN6Keypad14readKeyPressedEPh:00000000 .Loc.303
C:\Users\kenne\AppData\Local\Temp\cc0aKx3b.s:1157   .text._ZN6Keypad14readKeyPressedEPh:00000000 L0
C:\Users\kenne\AppData\Local\Temp\cc0aKx3b.s:1158   .text._ZN6Keypad14readKeyPressedEPh:00000000 .Loc.304
C:\Users\kenne\AppData\Local\Temp\cc0aKx3b.s:1197   .text._ZN6Keypad14readKeyPressedEPh:0000001c .Loc.305
GAS LISTING C:\Users\kenne\AppData\Local\Temp\cc0aKx3b.s 			page 60


C:\Users\kenne\AppData\Local\Temp\cc0aKx3b.s:1199   .text._ZN6Keypad14readKeyPressedEPh:0000001c .Loc.306
C:\Users\kenne\AppData\Local\Temp\cc0aKx3b.s:1200   .text._ZN6Keypad14readKeyPressedEPh:0000001c .Loc.307
C:\Users\kenne\AppData\Local\Temp\cc0aKx3b.s:1203   .text._ZN6Keypad14readKeyPressedEPh:0000001e .Loc.308
C:\Users\kenne\AppData\Local\Temp\cc0aKx3b.s:1205   .text._ZN6Keypad14readKeyPressedEPh:00000020 .Loc.309
C:\Users\kenne\AppData\Local\Temp\cc0aKx3b.s:1208   .text._ZN6Keypad14readKeyPressedEPh:00000024 .Loc.310
C:\Users\kenne\AppData\Local\Temp\cc0aKx3b.s:1213   .text._ZN6Keypad14readKeyPressedEPh:0000002a .Loc.311
C:\Users\kenne\AppData\Local\Temp\cc0aKx3b.s:1216   .text._ZN6Keypad14readKeyPressedEPh:0000002c .Loc.312
C:\Users\kenne\AppData\Local\Temp\cc0aKx3b.s:1221   .text._ZN6Keypad14readKeyPressedEPh:00000032 .Loc.313
C:\Users\kenne\AppData\Local\Temp\cc0aKx3b.s:1222   .text._ZN6Keypad14readKeyPressedEPh:00000032 .Loc.314
C:\Users\kenne\AppData\Local\Temp\cc0aKx3b.s:1227   .text._ZN6Keypad14readKeyPressedEPh:0000003a .Loc.315
C:\Users\kenne\AppData\Local\Temp\cc0aKx3b.s:1228   .text._ZN6Keypad14readKeyPressedEPh:0000003a .Loc.316
C:\Users\kenne\AppData\Local\Temp\cc0aKx3b.s:1229   .text._ZN6Keypad14readKeyPressedEPh:0000003a .Loc.317
C:\Users\kenne\AppData\Local\Temp\cc0aKx3b.s:1230   .text._ZN6Keypad14readKeyPressedEPh:0000003a .Loc.318
C:\Users\kenne\AppData\Local\Temp\cc0aKx3b.s:1233   .text._ZN6Keypad14readKeyPressedEPh:0000003c .Loc.319
C:\Users\kenne\AppData\Local\Temp\cc0aKx3b.s:1234   .text._ZN6Keypad14readKeyPressedEPh:0000003c .Loc.320
C:\Users\kenne\AppData\Local\Temp\cc0aKx3b.s:1239   .text._ZN6Keypad14readKeyPressedEPh:00000044 .Loc.321
C:\Users\kenne\AppData\Local\Temp\cc0aKx3b.s:1240   .text._ZN6Keypad14readKeyPressedEPh:00000044 .Loc.322
C:\Users\kenne\AppData\Local\Temp\cc0aKx3b.s:1241   .text._ZN6Keypad14readKeyPressedEPh:00000044 .Loc.323
C:\Users\kenne\AppData\Local\Temp\cc0aKx3b.s:1242   .text._ZN6Keypad14readKeyPressedEPh:00000044 .Loc.324
C:\Users\kenne\AppData\Local\Temp\cc0aKx3b.s:1251   .text._ZN6Keypad14readKeyPressedEPh:00000048 .Loc.325
C:\Users\kenne\AppData\Local\Temp\cc0aKx3b.s:1252   .text._ZN6Keypad14readKeyPressedEPh:00000048 .Loc.326
C:\Users\kenne\AppData\Local\Temp\cc0aKx3b.s:1253   .text._ZN6Keypad14readKeyPressedEPh:00000048 .Loc.327
C:\Users\kenne\AppData\Local\Temp\cc0aKx3b.s:1277   .text._ZN6Keypad14readKeyPressedEPh:0000006e .Loc.328
C:\Users\kenne\AppData\Local\Temp\cc0aKx3b.s:1279   .text._ZN6Keypad14readKeyPressedEPh:0000006e .Loc.329
C:\Users\kenne\AppData\Local\Temp\cc0aKx3b.s:1283   .text._ZN6Keypad14readKeyPressedEPh:00000070 .Loc.330
C:\Users\kenne\AppData\Local\Temp\cc0aKx3b.s:1284   .text._ZN6Keypad14readKeyPressedEPh:00000070 .Loc.331
C:\Users\kenne\AppData\Local\Temp\cc0aKx3b.s:1290   .text._ZN6Keypad14readKeyPressedEPh:0000007a .Loc.332
C:\Users\kenne\AppData\Local\Temp\cc0aKx3b.s:1294   .text._ZN6Keypad14readKeyPressedEPh:0000007e .Loc.333
C:\Users\kenne\AppData\Local\Temp\cc0aKx3b.s:1296   .text._ZN6Keypad14readKeyPressedEPh:0000007e .Loc.334
C:\Users\kenne\AppData\Local\Temp\cc0aKx3b.s:1309   .text._ZN6Keypad14readKeyPressedEPh:00000092 .Loc.335
C:\Users\kenne\AppData\Local\Temp\cc0aKx3b.s:1313   .text._ZN6Keypad14readKeyPressedEPh:00000096 .Loc.336
C:\Users\kenne\AppData\Local\Temp\cc0aKx3b.s:1314   .text._ZN6Keypad14readKeyPressedEPh:00000096 .Loc.337
C:\Users\kenne\AppData\Local\Temp\cc0aKx3b.s:1317   .text._ZN6Keypad14readKeyPressedEPh:0000009a .Loc.338
C:\Users\kenne\AppData\Local\Temp\cc0aKx3b.s:1319   .text._ZN6Keypad14readKeyPressedEPh:0000009c .Loc.339
C:\Users\kenne\AppData\Local\Temp\cc0aKx3b.s:1322   .text._ZN6Keypad14readKeyPressedEPh:000000a0 .Loc.340
C:\Users\kenne\AppData\Local\Temp\cc0aKx3b.s:1330   .text._ZN6Keypad14readKeyPressedEPh:000000ae .Loc.341
C:\Users\kenne\AppData\Local\Temp\cc0aKx3b.s:1333   .text._ZN6Keypad14readKeyPressedEPh:000000b2 .Loc.342
C:\Users\kenne\AppData\Local\Temp\cc0aKx3b.s:1336   .text._ZN6Keypad14readKeyPressedEPh:000000b6 .Loc.343
C:\Users\kenne\AppData\Local\Temp\cc0aKx3b.s:1340   .text._ZN6Keypad14readKeyPressedEPh:000000ba .Loc.344
C:\Users\kenne\AppData\Local\Temp\cc0aKx3b.s:1342   .text._ZN6Keypad14readKeyPressedEPh:000000ba .Loc.345
C:\Users\kenne\AppData\Local\Temp\cc0aKx3b.s:1346   .text._ZN6Keypad14readKeyPressedEPh:000000bc .Loc.346
C:\Users\kenne\AppData\Local\Temp\cc0aKx3b.s:1347   .text._ZN6Keypad14readKeyPressedEPh:000000bc .Loc.347
C:\Users\kenne\AppData\Local\Temp\cc0aKx3b.s:1350   .text._ZN6Keypad14readKeyPressedEPh:000000c0 .Loc.348
C:\Users\kenne\AppData\Local\Temp\cc0aKx3b.s:1353   .text._ZN6Keypad14readKeyPressedEPh:000000c4 .Loc.349
C:\Users\kenne\AppData\Local\Temp\cc0aKx3b.s:1358   .text._ZN6Keypad14readKeyPressedEPh:000000c4 .Loc.350
C:\Users\kenne\AppData\Local\Temp\cc0aKx3b.s:1360   .text._ZN6Keypad14readKeyPressedEPh:000000c4 .Loc.351
C:\Users\kenne\AppData\Local\Temp\cc0aKx3b.s:1361   .text._ZN6Keypad14readKeyPressedEPh:000000c4 .Loc.352
C:\Users\kenne\AppData\Local\Temp\cc0aKx3b.s:1362   .text._ZN6Keypad14readKeyPressedEPh:000000c4 .Loc.353
C:\Users\kenne\AppData\Local\Temp\cc0aKx3b.s:1363   .text._ZN6Keypad14readKeyPressedEPh:000000c4 .Loc.354
C:\Users\kenne\AppData\Local\Temp\cc0aKx3b.s:1364   .text._ZN6Keypad14readKeyPressedEPh:000000c4 .Loc.355
C:\Users\kenne\AppData\Local\Temp\cc0aKx3b.s:1365   .text._ZN6Keypad14readKeyPressedEPh:000000c4 .Loc.356
C:\Users\kenne\AppData\Local\Temp\cc0aKx3b.s:1366   .text._ZN6Keypad14readKeyPressedEPh:000000c4 .Loc.357
C:\Users\kenne\AppData\Local\Temp\cc0aKx3b.s:1371   .text._ZN6Keypad14readKeyPressedEPh:000000ce L0
C:\Users\kenne\AppData\Local\Temp\cc0aKx3b.s:1374   .text._ZN6Keypad14readKeyPressedEPh:000000d0 .Loc.358
C:\Users\kenne\AppData\Local\Temp\cc0aKx3b.s:1377   .text._ZN6Keypad14readKeyPressedEPh:000000d0 .Loc.359
C:\Users\kenne\AppData\Local\Temp\cc0aKx3b.s:1380   .text._ZN6Keypad14readKeyPressedEPh:000000d2 .Loc.360
C:\Users\kenne\AppData\Local\Temp\cc0aKx3b.s:1384   .text._ZN6Keypad14readKeyPressedEPh:000000d4 .Loc.361
GAS LISTING C:\Users\kenne\AppData\Local\Temp\cc0aKx3b.s 			page 61


C:\Users\kenne\AppData\Local\Temp\cc0aKx3b.s:1390   .text._ZN6Keypad14readKeyPressedEPh:000000d4 .Loc.362
C:\Users\kenne\AppData\Local\Temp\cc0aKx3b.s:1410   .text._ZN6Keypad14readKeyPressedEPh:000000f4 .Loc.363
C:\Users\kenne\AppData\Local\Temp\cc0aKx3b.s:1414   .text._ZN6Keypad14readKeyPressedEPh:000000f6 .Loc.364
C:\Users\kenne\AppData\Local\Temp\cc0aKx3b.s:1415   .text._ZN6Keypad14readKeyPressedEPh:000000f6 .Loc.365
C:\Users\kenne\AppData\Local\Temp\cc0aKx3b.s:1418   .text._ZN6Keypad14readKeyPressedEPh:000000fa .Loc.366
C:\Users\kenne\AppData\Local\Temp\cc0aKx3b.s:1422   .text._ZN6Keypad14readKeyPressedEPh:000000fe .Loc.367
C:\Users\kenne\AppData\Local\Temp\cc0aKx3b.s:1445   .text._ZN6Keypad14readKeyPressedEPh:00000126 .Loc.368
C:\Users\kenne\AppData\Local\Temp\cc0aKx3b.s:1446   .text._ZN6Keypad14readKeyPressedEPh:00000126 .Loc.369
C:\Users\kenne\AppData\Local\Temp\cc0aKx3b.s:1447   .text._ZN6Keypad14readKeyPressedEPh:00000128 L0
C:\Users\kenne\AppData\Local\Temp\cc0aKx3b.s:1448   .text._ZN6Keypad14readKeyPressedEPh:0000012a L0
C:\Users\kenne\AppData\Local\Temp\cc0aKx3b.s:1450   .text._ZN6Keypad14readKeyPressedEPh:0000012c .Loc.370
C:\Users\kenne\AppData\Local\Temp\cc0aKx3b.s:1451   .text._ZN6Keypad14readKeyPressedEPh:0000012c .Loc.371
C:\Users\kenne\AppData\Local\Temp\cc0aKx3b.s:1454   .text._ZN6Keypad14readKeyPressedEPh:00000130 .Loc.372
C:\Users\kenne\AppData\Local\Temp\cc0aKx3b.s:1457   .text._ZN6Keypad14readKeyPressedEPh:00000134 .Loc.373
C:\Users\kenne\AppData\Local\Temp\cc0aKx3b.s:1460   .text._ZN6Keypad14readKeyPressedEPh:00000138 .Loc.374
C:\Users\kenne\AppData\Local\Temp\cc0aKx3b.s:1469   .text._ZN6Keypad14readKeyPressedEPh:00000142 .Loc.375
C:\Users\kenne\AppData\Local\Temp\cc0aKx3b.s:1471   .text._ZN6Keypad14readKeyPressedEPh:00000142 .Loc.376
C:\Users\kenne\AppData\Local\Temp\cc0aKx3b.s:1473   .text._ZN6Keypad14readKeyPressedEPh:00000144 .Loc.377
C:\Users\kenne\AppData\Local\Temp\cc0aKx3b.s:1477   .text._ZN6Keypad14readKeyPressedEPh:00000146 .Loc.378
C:\Users\kenne\AppData\Local\Temp\cc0aKx3b.s:1481   .text._ZN6Keypad14readKeyPressedEPh:00000146 .Loc.379
C:\Users\kenne\AppData\Local\Temp\cc0aKx3b.s:1482   .text._ZN6Keypad14readKeyPressedEPh:00000146 .Loc.380
C:\Users\kenne\AppData\Local\Temp\cc0aKx3b.s:1485   .text._ZN6Keypad14readKeyPressedEPh:0000014a .Loc.381
C:\Users\kenne\AppData\Local\Temp\cc0aKx3b.s:1486   .text._ZN6Keypad14readKeyPressedEPh:0000014a .Loc.382
C:\Users\kenne\AppData\Local\Temp\cc0aKx3b.s:1489   .text._ZN6Keypad14readKeyPressedEPh:0000014e .Loc.383
C:\Users\kenne\AppData\Local\Temp\cc0aKx3b.s:1490   .text._ZN6Keypad14readKeyPressedEPh:0000014e .Loc.384
C:\Users\kenne\AppData\Local\Temp\cc0aKx3b.s:1491   .text._ZN6Keypad14readKeyPressedEPh:0000014e .Loc.385
C:\Users\kenne\AppData\Local\Temp\cc0aKx3b.s:1495   .text._ZN6Keypad14readKeyPressedEPh:0000014e .Loc.386
C:\Users\kenne\AppData\Local\Temp\cc0aKx3b.s:1507   .text._ZN6Keypad14readKeyPressedEPh:00000164 L0
C:\Users\kenne\AppData\Local\Temp\cc0aKx3b.s:33     .text._Z7getTickv:00000008 L0
C:\Users\kenne\AppData\Local\Temp\cc0aKx3b.s:135    .text._ZN6KeypadC2Ev:00000050 L0
C:\Users\kenne\AppData\Local\Temp\cc0aKx3b.s:190    .text._ZN6KeypadD2Ev:0000001e L0
C:\Users\kenne\AppData\Local\Temp\cc0aKx3b.s:577    .text._ZN6Keypad4initEh:000001fa L0
C:\Users\kenne\AppData\Local\Temp\cc0aKx3b.s:794    .text._ZN6Keypad8setPortsEPVhhS1_h:000000ec L0
C:\Users\kenne\AppData\Local\Temp\cc0aKx3b.s:1150   .text._ZN6Keypad12setKeyValuesENS_4TypeEz:0000018a L0
C:\Users\kenne\AppData\Local\Temp\cc0aKx3b.s:1510   .text._ZN6Keypad14readKeyPressedEPh:00000164 L0
                     .debug_frame:00000000 L0
C:\Users\kenne\AppData\Local\Temp\cc0aKx3b.s:171    .text._ZN6KeypadD2Ev:00000014 .L4
C:\Users\kenne\AppData\Local\Temp\cc0aKx3b.s:288    .text._ZN6Keypad4initEh:0000006e .L16
C:\Users\kenne\AppData\Local\Temp\cc0aKx3b.s:304    .text._ZN6Keypad4initEh:0000007c .L17
C:\Users\kenne\AppData\Local\Temp\cc0aKx3b.s:316    .text._ZN6Keypad4initEh:00000086 .L18
C:\Users\kenne\AppData\Local\Temp\cc0aKx3b.s:329    .text._ZN6Keypad4initEh:00000092 .L19
C:\Users\kenne\AppData\Local\Temp\cc0aKx3b.s:436    .text._ZN6Keypad4initEh:00000122 .L11
C:\Users\kenne\AppData\Local\Temp\cc0aKx3b.s:505    .text._ZN6Keypad4initEh:0000018e .L12
C:\Users\kenne\AppData\Local\Temp\cc0aKx3b.s:342    .text._ZN6Keypad4initEh:0000009e .L20
C:\Users\kenne\AppData\Local\Temp\cc0aKx3b.s:298    .text._ZN6Keypad4initEh:00000076 .L5
C:\Users\kenne\AppData\Local\Temp\cc0aKx3b.s:355    .text._ZN6Keypad4initEh:000000b0 .L21
C:\Users\kenne\AppData\Local\Temp\cc0aKx3b.s:352    .text._ZN6Keypad4initEh:000000ac .L11
C:\Users\kenne\AppData\Local\Temp\cc0aKx3b.s:372    .text._ZN6Keypad4initEh:000000cc .L22
C:\Users\kenne\AppData\Local\Temp\cc0aKx3b.s:369    .text._ZN6Keypad4initEh:000000c8 .L12
C:\Users\kenne\AppData\Local\Temp\cc0aKx3b.s:388    .text._ZN6Keypad4initEh:000000e6 .L23
C:\Users\kenne\AppData\Local\Temp\cc0aKx3b.s:385    .text._ZN6Keypad4initEh:000000e2 .L13
C:\Users\kenne\AppData\Local\Temp\cc0aKx3b.s:403    .text._ZN6Keypad4initEh:000000fe .L24
C:\Users\kenne\AppData\Local\Temp\cc0aKx3b.s:400    .text._ZN6Keypad4initEh:000000fa .L14
C:\Users\kenne\AppData\Local\Temp\cc0aKx3b.s:416    .text._ZN6Keypad4initEh:0000010e .L15
C:\Users\kenne\AppData\Local\Temp\cc0aKx3b.s:449    .text._ZN6Keypad4initEh:00000134 .L25
C:\Users\kenne\AppData\Local\Temp\cc0aKx3b.s:446    .text._ZN6Keypad4initEh:00000130 .L15
C:\Users\kenne\AppData\Local\Temp\cc0aKx3b.s:465    .text._ZN6Keypad4initEh:0000014e .L26
GAS LISTING C:\Users\kenne\AppData\Local\Temp\cc0aKx3b.s 			page 62


C:\Users\kenne\AppData\Local\Temp\cc0aKx3b.s:462    .text._ZN6Keypad4initEh:0000014a .L16
C:\Users\kenne\AppData\Local\Temp\cc0aKx3b.s:483    .text._ZN6Keypad4initEh:0000016c .L27
C:\Users\kenne\AppData\Local\Temp\cc0aKx3b.s:480    .text._ZN6Keypad4initEh:00000168 .L17
C:\Users\kenne\AppData\Local\Temp\cc0aKx3b.s:498    .text._ZN6Keypad4initEh:00000184 .L28
C:\Users\kenne\AppData\Local\Temp\cc0aKx3b.s:495    .text._ZN6Keypad4initEh:00000180 .L18
C:\Users\kenne\AppData\Local\Temp\cc0aKx3b.s:409    .text._ZN6Keypad4initEh:00000106 .L14
C:\Users\kenne\AppData\Local\Temp\cc0aKx3b.s:518    .text._ZN6Keypad4initEh:000001a0 .L29
C:\Users\kenne\AppData\Local\Temp\cc0aKx3b.s:515    .text._ZN6Keypad4initEh:0000019c .L19
C:\Users\kenne\AppData\Local\Temp\cc0aKx3b.s:534    .text._ZN6Keypad4initEh:000001ba .L210
C:\Users\kenne\AppData\Local\Temp\cc0aKx3b.s:531    .text._ZN6Keypad4initEh:000001b6 .L110
C:\Users\kenne\AppData\Local\Temp\cc0aKx3b.s:552    .text._ZN6Keypad4initEh:000001d8 .L211
C:\Users\kenne\AppData\Local\Temp\cc0aKx3b.s:549    .text._ZN6Keypad4initEh:000001d4 .L111
C:\Users\kenne\AppData\Local\Temp\cc0aKx3b.s:567    .text._ZN6Keypad4initEh:000001f0 .L212
C:\Users\kenne\AppData\Local\Temp\cc0aKx3b.s:564    .text._ZN6Keypad4initEh:000001ec .L112
C:\Users\kenne\AppData\Local\Temp\cc0aKx3b.s:765    .text._ZN6Keypad8setPortsEPVhhS1_h:000000d4 .L25
C:\Users\kenne\AppData\Local\Temp\cc0aKx3b.s:778    .text._ZN6Keypad8setPortsEPVhhS1_h:000000e0 .L26
C:\Users\kenne\AppData\Local\Temp\cc0aKx3b.s:757    .text._ZN6Keypad8setPortsEPVhhS1_h:000000cc .L21
C:\Users\kenne\AppData\Local\Temp\cc0aKx3b.s:963    .text._ZN6Keypad12setKeyValuesENS_4TypeEz:000000b0 .L28
C:\Users\kenne\AppData\Local\Temp\cc0aKx3b.s:983    .text._ZN6Keypad12setKeyValuesENS_4TypeEz:000000c2 .L29
C:\Users\kenne\AppData\Local\Temp\cc0aKx3b.s:877    .text._ZN6Keypad12setKeyValuesENS_4TypeEz:00000048 .L38
C:\Users\kenne\AppData\Local\Temp\cc0aKx3b.s:1134   .text._ZN6Keypad12setKeyValuesENS_4TypeEz:00000176 .L27
C:\Users\kenne\AppData\Local\Temp\cc0aKx3b.s:1004   .text._ZN6Keypad12setKeyValuesENS_4TypeEz:000000dc .L39
C:\Users\kenne\AppData\Local\Temp\cc0aKx3b.s:1084   .text._ZN6Keypad12setKeyValuesENS_4TypeEz:0000013e .L34
C:\Users\kenne\AppData\Local\Temp\cc0aKx3b.s:894    .text._ZN6Keypad12setKeyValuesENS_4TypeEz:0000005a .L31
C:\Users\kenne\AppData\Local\Temp\cc0aKx3b.s:1018   .text._ZN6Keypad12setKeyValuesENS_4TypeEz:000000e8 .L35
C:\Users\kenne\AppData\Local\Temp\cc0aKx3b.s:1107   .text._ZN6Keypad12setKeyValuesENS_4TypeEz:0000015e .L40
C:\Users\kenne\AppData\Local\Temp\cc0aKx3b.s:1066   .text._ZN6Keypad12setKeyValuesENS_4TypeEz:0000012a .L36
C:\Users\kenne\AppData\Local\Temp\cc0aKx3b.s:1220   .text._ZN6Keypad14readKeyPressedEPh:00000032 .L53
C:\Users\kenne\AppData\Local\Temp\cc0aKx3b.s:1232   .text._ZN6Keypad14readKeyPressedEPh:0000003c .L54
C:\Users\kenne\AppData\Local\Temp\cc0aKx3b.s:1413   .text._ZN6Keypad14readKeyPressedEPh:000000f6 .L44
C:\Users\kenne\AppData\Local\Temp\cc0aKx3b.s:1493   .text._ZN6Keypad14readKeyPressedEPh:0000014e .L41
C:\Users\kenne\AppData\Local\Temp\cc0aKx3b.s:1264   .text._ZN6Keypad14readKeyPressedEPh:0000005a .L213
C:\Users\kenne\AppData\Local\Temp\cc0aKx3b.s:1261   .text._ZN6Keypad14readKeyPressedEPh:00000056 .L113
C:\Users\kenne\AppData\Local\Temp\cc0aKx3b.s:1272   .text._ZN6Keypad14readKeyPressedEPh:00000066 .L214
C:\Users\kenne\AppData\Local\Temp\cc0aKx3b.s:1269   .text._ZN6Keypad14readKeyPressedEPh:00000062 .L114
C:\Users\kenne\AppData\Local\Temp\cc0aKx3b.s:1246   .text._ZN6Keypad14readKeyPressedEPh:00000048 .L49
C:\Users\kenne\AppData\Local\Temp\cc0aKx3b.s:1383   .text._ZN6Keypad14readKeyPressedEPh:000000d4 .L55
C:\Users\kenne\AppData\Local\Temp\cc0aKx3b.s:1306   .text._ZN6Keypad14readKeyPressedEPh:0000008e .L215
C:\Users\kenne\AppData\Local\Temp\cc0aKx3b.s:1303   .text._ZN6Keypad14readKeyPressedEPh:0000008a .L115
C:\Users\kenne\AppData\Local\Temp\cc0aKx3b.s:1369   .text._ZN6Keypad14readKeyPressedEPh:000000c8 .L116
C:\Users\kenne\AppData\Local\Temp\cc0aKx3b.s:1345   .text._ZN6Keypad14readKeyPressedEPh:000000bc .L47
C:\Users\kenne\AppData\Local\Temp\cc0aKx3b.s:1404   .text._ZN6Keypad14readKeyPressedEPh:000000ec .L216
C:\Users\kenne\AppData\Local\Temp\cc0aKx3b.s:1401   .text._ZN6Keypad14readKeyPressedEPh:000000e8 .L117
C:\Users\kenne\AppData\Local\Temp\cc0aKx3b.s:1476   .text._ZN6Keypad14readKeyPressedEPh:00000146 .L56
C:\Users\kenne\AppData\Local\Temp\cc0aKx3b.s:1439   .text._ZN6Keypad14readKeyPressedEPh:0000011c .L217
C:\Users\kenne\AppData\Local\Temp\cc0aKx3b.s:1436   .text._ZN6Keypad14readKeyPressedEPh:00000118 .L118
C:\Users\kenne\AppData\Local\Temp\cc0aKx3b.s:1465   .text._ZN6Keypad14readKeyPressedEPh:0000013e .L218
C:\Users\kenne\AppData\Local\Temp\cc0aKx3b.s:1462   .text._ZN6Keypad14readKeyPressedEPh:0000013a .L119
C:\Users\kenne\AppData\Local\Temp\cc0aKx3b.s:1282   .text._ZN6Keypad14readKeyPressedEPh:00000070 .L45
C:\Users\kenne\AppData\Local\Temp\cc0aKx3b.s:2368   .debug_abbrev:00000000 .Ldebug_abbrev0
C:\Users\kenne\AppData\Local\Temp\cc0aKx3b.s:3797   .debug_rnglists:0000005d .LLRL28
C:\Users\kenne\AppData\Local\Temp\cc0aKx3b.s:3822   .debug_line:00000000 .Ldebug_line0
C:\Users\kenne\AppData\Local\Temp\cc0aKx3b.s:1155   .text._ZN6Keypad14readKeyPressedEPh:00000000 .LFB42
C:\Users\kenne\AppData\Local\Temp\cc0aKx3b.s:1508   .text._ZN6Keypad14readKeyPressedEPh:00000164 .LFE42
C:\Users\kenne\AppData\Local\Temp\cc0aKx3b.s:3204   .debug_loclists:00000010 .LLST15
C:\Users\kenne\AppData\Local\Temp\cc0aKx3b.s:3199   .debug_loclists:0000000c .LVUS15
C:\Users\kenne\AppData\Local\Temp\cc0aKx3b.s:3231   .debug_loclists:0000002d .LLST16
GAS LISTING C:\Users\kenne\AppData\Local\Temp\cc0aKx3b.s 			page 63


C:\Users\kenne\AppData\Local\Temp\cc0aKx3b.s:3226   .debug_loclists:00000029 .LVUS16
C:\Users\kenne\AppData\Local\Temp\cc0aKx3b.s:3258   .debug_loclists:0000004a .LLST17
C:\Users\kenne\AppData\Local\Temp\cc0aKx3b.s:3253   .debug_loclists:00000046 .LVUS17
C:\Users\kenne\AppData\Local\Temp\cc0aKx3b.s:3767   .debug_rnglists:00000032 .LLRL18
C:\Users\kenne\AppData\Local\Temp\cc0aKx3b.s:3277   .debug_loclists:0000005f .LLST19
C:\Users\kenne\AppData\Local\Temp\cc0aKx3b.s:3274   .debug_loclists:0000005d .LVUS19
C:\Users\kenne\AppData\Local\Temp\cc0aKx3b.s:3777   .debug_rnglists:0000003f .LLRL20
C:\Users\kenne\AppData\Local\Temp\cc0aKx3b.s:3289   .debug_loclists:0000006d .LLST21
C:\Users\kenne\AppData\Local\Temp\cc0aKx3b.s:3284   .debug_loclists:00000069 .LVUS21
C:\Users\kenne\AppData\Local\Temp\cc0aKx3b.s:3787   .debug_rnglists:0000004e .LLRL22
C:\Users\kenne\AppData\Local\Temp\cc0aKx3b.s:3308   .debug_loclists:00000084 .LLST23
C:\Users\kenne\AppData\Local\Temp\cc0aKx3b.s:3303   .debug_loclists:00000080 .LVUS23
C:\Users\kenne\AppData\Local\Temp\cc0aKx3b.s:1341   .text._ZN6Keypad14readKeyPressedEPh:000000ba .LBB27
C:\Users\kenne\AppData\Local\Temp\cc0aKx3b.s:1385   .text._ZN6Keypad14readKeyPressedEPh:000000d4 .LBE27
C:\Users\kenne\AppData\Local\Temp\cc0aKx3b.s:3328   .debug_loclists:0000009c .LLST24
C:\Users\kenne\AppData\Local\Temp\cc0aKx3b.s:3323   .debug_loclists:00000098 .LVUS24
C:\Users\kenne\AppData\Local\Temp\cc0aKx3b.s:1356   .text._ZN6Keypad14readKeyPressedEPh:000000c4 .LBI28
C:\Users\kenne\AppData\Local\Temp\cc0aKx3b.s:1355   .text._ZN6Keypad14readKeyPressedEPh:000000c4 .LBB28
C:\Users\kenne\AppData\Local\Temp\cc0aKx3b.s:1376   .text._ZN6Keypad14readKeyPressedEPh:000000d0 .LBE28
C:\Users\kenne\AppData\Local\Temp\cc0aKx3b.s:3346   .debug_loclists:000000af .LLST25
C:\Users\kenne\AppData\Local\Temp\cc0aKx3b.s:3343   .debug_loclists:000000ad .LVUS25
C:\Users\kenne\AppData\Local\Temp\cc0aKx3b.s:3358   .debug_loclists:000000bf .LLST26
C:\Users\kenne\AppData\Local\Temp\cc0aKx3b.s:3355   .debug_loclists:000000bd .LVUS26
C:\Users\kenne\AppData\Local\Temp\cc0aKx3b.s:3370   .debug_loclists:000000cf .LLST27
C:\Users\kenne\AppData\Local\Temp\cc0aKx3b.s:3367   .debug_loclists:000000cd .LVUS27
C:\Users\kenne\AppData\Local\Temp\cc0aKx3b.s:799    .text._ZN6Keypad12setKeyValuesENS_4TypeEz:00000000 .LFB41
C:\Users\kenne\AppData\Local\Temp\cc0aKx3b.s:1148   .text._ZN6Keypad12setKeyValuesENS_4TypeEz:0000018a .LFE41
C:\Users\kenne\AppData\Local\Temp\cc0aKx3b.s:3384   .debug_loclists:000000df .LLST8
C:\Users\kenne\AppData\Local\Temp\cc0aKx3b.s:3379   .debug_loclists:000000db .LVUS8
C:\Users\kenne\AppData\Local\Temp\cc0aKx3b.s:3417   .debug_loclists:00000104 .LLST9
C:\Users\kenne\AppData\Local\Temp\cc0aKx3b.s:3408   .debug_loclists:000000fc .LVUS9
C:\Users\kenne\AppData\Local\Temp\cc0aKx3b.s:3737   .debug_rnglists:0000000c .LLRL10
C:\Users\kenne\AppData\Local\Temp\cc0aKx3b.s:3747   .debug_rnglists:00000019 .LLRL11
C:\Users\kenne\AppData\Local\Temp\cc0aKx3b.s:3447   .debug_loclists:00000125 .LLST12
C:\Users\kenne\AppData\Local\Temp\cc0aKx3b.s:3442   .debug_loclists:00000121 .LVUS12
C:\Users\kenne\AppData\Local\Temp\cc0aKx3b.s:3757   .debug_rnglists:00000026 .LLRL13
C:\Users\kenne\AppData\Local\Temp\cc0aKx3b.s:3465   .debug_loclists:00000139 .LLST14
C:\Users\kenne\AppData\Local\Temp\cc0aKx3b.s:3462   .debug_loclists:00000137 .LVUS14
C:\Users\kenne\AppData\Local\Temp\cc0aKx3b.s:935    .text._ZN6Keypad12setKeyValuesENS_4TypeEz:00000096 .LVL20
C:\Users\kenne\AppData\Local\Temp\cc0aKx3b.s:582    .text._ZN6Keypad8setPortsEPVhhS1_h:00000000 .LFB40
C:\Users\kenne\AppData\Local\Temp\cc0aKx3b.s:792    .text._ZN6Keypad8setPortsEPVhhS1_h:000000ec .LFE40
C:\Users\kenne\AppData\Local\Temp\cc0aKx3b.s:3477   .debug_loclists:00000146 .LLST3
C:\Users\kenne\AppData\Local\Temp\cc0aKx3b.s:3472   .debug_loclists:00000142 .LVUS3
C:\Users\kenne\AppData\Local\Temp\cc0aKx3b.s:3506   .debug_loclists:00000165 .LLST4
C:\Users\kenne\AppData\Local\Temp\cc0aKx3b.s:3499   .debug_loclists:0000015f .LVUS4
C:\Users\kenne\AppData\Local\Temp\cc0aKx3b.s:3545   .debug_loclists:00000190 .LLST5
C:\Users\kenne\AppData\Local\Temp\cc0aKx3b.s:3538   .debug_loclists:0000018a .LVUS5
C:\Users\kenne\AppData\Local\Temp\cc0aKx3b.s:3572   .debug_loclists:000001b1 .LLST6
C:\Users\kenne\AppData\Local\Temp\cc0aKx3b.s:3567   .debug_loclists:000001ad .LVUS6
C:\Users\kenne\AppData\Local\Temp\cc0aKx3b.s:3601   .debug_loclists:000001d0 .LLST7
C:\Users\kenne\AppData\Local\Temp\cc0aKx3b.s:3594   .debug_loclists:000001ca .LVUS7
C:\Users\kenne\AppData\Local\Temp\cc0aKx3b.s:195    .text._ZN6Keypad4initEh:00000000 .LFB39
C:\Users\kenne\AppData\Local\Temp\cc0aKx3b.s:575    .text._ZN6Keypad4initEh:000001fa .LFE39
C:\Users\kenne\AppData\Local\Temp\cc0aKx3b.s:3628   .debug_loclists:000001f1 .LLST2
C:\Users\kenne\AppData\Local\Temp\cc0aKx3b.s:3623   .debug_loclists:000001ed .LVUS2
C:\Users\kenne\AppData\Local\Temp\cc0aKx3b.s:140    .text._ZN6KeypadD2Ev:00000000 .LFB37
C:\Users\kenne\AppData\Local\Temp\cc0aKx3b.s:186    .text._ZN6KeypadD2Ev:0000001e .LFE37
GAS LISTING C:\Users\kenne\AppData\Local\Temp\cc0aKx3b.s 			page 64


C:\Users\kenne\AppData\Local\Temp\cc0aKx3b.s:3655   .debug_loclists:0000020e .LLST1
C:\Users\kenne\AppData\Local\Temp\cc0aKx3b.s:3650   .debug_loclists:0000020a .LVUS1
C:\Users\kenne\AppData\Local\Temp\cc0aKx3b.s:170    .text._ZN6KeypadD2Ev:00000014 .LVL4
C:\Users\kenne\AppData\Local\Temp\cc0aKx3b.s:38     .text._ZN6KeypadC2Ev:00000000 .LFB34
C:\Users\kenne\AppData\Local\Temp\cc0aKx3b.s:131    .text._ZN6KeypadC2Ev:00000050 .LFE34
C:\Users\kenne\AppData\Local\Temp\cc0aKx3b.s:3682   .debug_loclists:0000022a .LLST0
C:\Users\kenne\AppData\Local\Temp\cc0aKx3b.s:3677   .debug_loclists:00000226 .LVUS0
C:\Users\kenne\AppData\Local\Temp\cc0aKx3b.s:15     .text._Z7getTickv:00000000 .LFB32
C:\Users\kenne\AppData\Local\Temp\cc0aKx3b.s:31     .text._Z7getTickv:00000008 .LFE32
C:\Users\kenne\AppData\Local\Temp\cc0aKx3b.s:1154   .text._ZN6Keypad14readKeyPressedEPh:00000000 .LVL29
C:\Users\kenne\AppData\Local\Temp\cc0aKx3b.s:1198   .text._ZN6Keypad14readKeyPressedEPh:0000001c .LVL30
C:\Users\kenne\AppData\Local\Temp\cc0aKx3b.s:1245   .text._ZN6Keypad14readKeyPressedEPh:00000048 .LVL32
C:\Users\kenne\AppData\Local\Temp\cc0aKx3b.s:1339   .text._ZN6Keypad14readKeyPressedEPh:000000ba .LVL34
C:\Users\kenne\AppData\Local\Temp\cc0aKx3b.s:1354   .text._ZN6Keypad14readKeyPressedEPh:000000c4 .LVL36
C:\Users\kenne\AppData\Local\Temp\cc0aKx3b.s:835    .text._ZN6Keypad12setKeyValuesENS_4TypeEz:00000018 .LVL15
C:\Users\kenne\AppData\Local\Temp\cc0aKx3b.s:838    .text._ZN6Keypad12setKeyValuesENS_4TypeEz:0000001a .LVL16
C:\Users\kenne\AppData\Local\Temp\cc0aKx3b.s:956    .text._ZN6Keypad12setKeyValuesENS_4TypeEz:000000ac .LVL22
C:\Users\kenne\AppData\Local\Temp\cc0aKx3b.s:1017   .text._ZN6Keypad12setKeyValuesENS_4TypeEz:000000e8 .LVL25
C:\Users\kenne\AppData\Local\Temp\cc0aKx3b.s:581    .text._ZN6Keypad8setPortsEPVhhS1_h:00000000 .LVL7
C:\Users\kenne\AppData\Local\Temp\cc0aKx3b.s:194    .text._ZN6Keypad4initEh:00000000 .LVL5
C:\Users\kenne\AppData\Local\Temp\cc0aKx3b.s:139    .text._ZN6KeypadD2Ev:00000000 .LVL2
C:\Users\kenne\AppData\Local\Temp\cc0aKx3b.s:37     .text._ZN6KeypadC2Ev:00000000 .LVL0
C:\Users\kenne\AppData\Local\Temp\cc0aKx3b.s:1520   .debug_info:00000000 .Ldebug_info0
C:\Users\kenne\AppData\Local\Temp\cc0aKx3b.s:948    .text._ZN6Keypad12setKeyValuesENS_4TypeEz:000000a4 .LBB15
C:\Users\kenne\AppData\Local\Temp\cc0aKx3b.s:957    .text._ZN6Keypad12setKeyValuesENS_4TypeEz:000000ac .LBB16
C:\Users\kenne\AppData\Local\Temp\cc0aKx3b.s:1021   .text._ZN6Keypad12setKeyValuesENS_4TypeEz:000000e8 .LBB17
C:\Users\kenne\AppData\Local\Temp\cc0aKx3b.s:1212   .text._ZN6Keypad14readKeyPressedEPh:0000002a .LBB21
C:\Users\kenne\AppData\Local\Temp\cc0aKx3b.s:1248   .text._ZN6Keypad14readKeyPressedEPh:00000048 .LBB22
C:\Users\kenne\AppData\Local\Temp\cc0aKx3b.s:1249   .text._ZN6Keypad14readKeyPressedEPh:00000048 .LBB23

UNDEFINED SYMBOLS
free
__umulhisi3
realloc
