GAS LISTING C:\Users\kenne\AppData\Local\Temp\ccnxErqW.s 			page 1


   1               		.file	"Adafruit_Fingerprint.cpp"
   2               	__SP_H__ = 0x3e
   3               	__SP_L__ = 0x3d
   4               	__SREG__ = 0x3f
   5               	__tmp_reg__ = 0
   6               	__zero_reg__ = 1
   7               		.text
   8               	.Ltext0:
   9               		.cfi_sections	.debug_frame
  10               		.file 0 "C:\\D\\IFSC\\MCC\\projects\\final_laptop" "Adafruit_Fingerprint.cpp"
  11               		.section	.text._Z7getTickv,"ax",@progbits
  12               		.weak	_Z7getTickv
  14               	_Z7getTickv:
  15               	.LFB32:
  16               		.file 1 "funsape/globalDefines.hpp"
   1:funsape/globalDefines.hpp **** //!
   2:funsape/globalDefines.hpp **** //! \file           globalDefines.hpp
   3:funsape/globalDefines.hpp **** //! \brief          Global definitions file
   4:funsape/globalDefines.hpp **** //! \author         Leandro Schwarz (bladabuska+funsapeavr8lib@gmail.com)
   5:funsape/globalDefines.hpp **** //! \date           2023-04-05
   6:funsape/globalDefines.hpp **** //! \version        23.04
   7:funsape/globalDefines.hpp **** //! \copyright      license
   8:funsape/globalDefines.hpp **** //! \details        Global definitions file.
   9:funsape/globalDefines.hpp **** //! \todo           Todo list
  10:funsape/globalDefines.hpp **** //!
  11:funsape/globalDefines.hpp **** 
  12:funsape/globalDefines.hpp **** // =============================================================================
  13:funsape/globalDefines.hpp **** // Include guard (START)
  14:funsape/globalDefines.hpp **** // =============================================================================
  15:funsape/globalDefines.hpp **** 
  16:funsape/globalDefines.hpp **** #ifndef __GLOBAL_DEFINES_HPP
  17:funsape/globalDefines.hpp **** #define __GLOBAL_DEFINES_HPP                    2304
  18:funsape/globalDefines.hpp **** 
  19:funsape/globalDefines.hpp **** // =============================================================================
  20:funsape/globalDefines.hpp **** // Basic definitions
  21:funsape/globalDefines.hpp **** // =============================================================================
  22:funsape/globalDefines.hpp **** 
  23:funsape/globalDefines.hpp **** #ifndef F_CPU
  24:funsape/globalDefines.hpp **** #   define F_CPU    16000000UL
  25:funsape/globalDefines.hpp **** #endif
  26:funsape/globalDefines.hpp **** 
  27:funsape/globalDefines.hpp **** // =============================================================================
  28:funsape/globalDefines.hpp **** // Dependencies
  29:funsape/globalDefines.hpp **** // =============================================================================
  30:funsape/globalDefines.hpp **** 
  31:funsape/globalDefines.hpp **** //     //////////////////     AVR STANDARD LIBRARY     //////////////////     //
  32:funsape/globalDefines.hpp **** #include <avr/io.h>
  33:funsape/globalDefines.hpp **** #include <avr/interrupt.h>
  34:funsape/globalDefines.hpp **** #include <util/delay.h>
  35:funsape/globalDefines.hpp **** #include <util/atomic.h>
  36:funsape/globalDefines.hpp **** 
  37:funsape/globalDefines.hpp **** //     ///////////////////     STANDARD C LIBRARY     ///////////////////     //
  38:funsape/globalDefines.hpp **** #include <stddef.h>
  39:funsape/globalDefines.hpp **** #include <stdint.h>
  40:funsape/globalDefines.hpp **** #include <stdio.h>
  41:funsape/globalDefines.hpp **** #include <stdlib.h>
  42:funsape/globalDefines.hpp **** #include <string.h>
GAS LISTING C:\Users\kenne\AppData\Local\Temp\ccnxErqW.s 			page 2


  43:funsape/globalDefines.hpp **** 
  44:funsape/globalDefines.hpp **** //     //////////////////     LIBRARY DEPENDENCIES     //////////////////     //
  45:funsape/globalDefines.hpp **** #include "pinout.hpp"
  46:funsape/globalDefines.hpp **** #if !defined(__PINOUT_HPP)
  47:funsape/globalDefines.hpp **** #   error "Header file (pinout.hpp) is corrupted!"
  48:funsape/globalDefines.hpp **** #elif __PINOUT_HPP != __GLOBAL_DEFINES_HPP
  49:funsape/globalDefines.hpp **** #   error "Version mismatch between header file and library dependency (pinout.hpp)!"
  50:funsape/globalDefines.hpp **** #endif
  51:funsape/globalDefines.hpp **** 
  52:funsape/globalDefines.hpp **** // =============================================================================
  53:funsape/globalDefines.hpp **** // Undefining previous definitions
  54:funsape/globalDefines.hpp **** // =============================================================================
  55:funsape/globalDefines.hpp **** 
  56:funsape/globalDefines.hpp **** // NONE
  57:funsape/globalDefines.hpp **** 
  58:funsape/globalDefines.hpp **** // =============================================================================
  59:funsape/globalDefines.hpp **** // Constant definitions
  60:funsape/globalDefines.hpp **** // =============================================================================
  61:funsape/globalDefines.hpp **** 
  62:funsape/globalDefines.hpp **** #define inlined                         inline __attribute__((always_inline))
  63:funsape/globalDefines.hpp **** #define weakened                        __attribute__((weak))
  64:funsape/globalDefines.hpp **** 
  65:funsape/globalDefines.hpp **** // =============================================================================
  66:funsape/globalDefines.hpp **** // New data types
  67:funsape/globalDefines.hpp **** // =============================================================================
  68:funsape/globalDefines.hpp **** 
  69:funsape/globalDefines.hpp **** //     ////////////////////     BASIC VARIABLES     /////////////////////     //
  70:funsape/globalDefines.hpp **** typedef bool                            bool_t;
  71:funsape/globalDefines.hpp **** typedef char                            char_t;
  72:funsape/globalDefines.hpp **** 
  73:funsape/globalDefines.hpp **** //     ///////////////////     CONSTANT VARIABLES    ////////////////////     //
  74:funsape/globalDefines.hpp **** typedef const bool_t                    cbool_t;
  75:funsape/globalDefines.hpp **** typedef const char_t                    cchar_t;
  76:funsape/globalDefines.hpp **** typedef const int8_t                    cint8_t;
  77:funsape/globalDefines.hpp **** typedef const int16_t                   cint16_t;
  78:funsape/globalDefines.hpp **** typedef const int32_t                   cint32_t;
  79:funsape/globalDefines.hpp **** typedef const int64_t                   cint64_t;
  80:funsape/globalDefines.hpp **** typedef const uint8_t                   cuint8_t;
  81:funsape/globalDefines.hpp **** typedef const uint16_t                  cuint16_t;
  82:funsape/globalDefines.hpp **** typedef const uint32_t                  cuint32_t;
  83:funsape/globalDefines.hpp **** typedef const uint64_t                  cuint64_t;
  84:funsape/globalDefines.hpp **** 
  85:funsape/globalDefines.hpp **** //     ///////////////////     VOLATILE VARIABLES    ////////////////////     //
  86:funsape/globalDefines.hpp **** typedef volatile bool_t                 vbool_t;
  87:funsape/globalDefines.hpp **** typedef volatile char_t                 vchar_t;
  88:funsape/globalDefines.hpp **** typedef volatile int8_t                 vint8_t;
  89:funsape/globalDefines.hpp **** typedef volatile int16_t                vint16_t;
  90:funsape/globalDefines.hpp **** typedef volatile int32_t                vint32_t;
  91:funsape/globalDefines.hpp **** typedef volatile int64_t                vint64_t;
  92:funsape/globalDefines.hpp **** typedef volatile uint8_t                vuint8_t;
  93:funsape/globalDefines.hpp **** typedef volatile uint16_t               vuint16_t;
  94:funsape/globalDefines.hpp **** typedef volatile uint32_t               vuint32_t;
  95:funsape/globalDefines.hpp **** typedef volatile uint64_t               vuint64_t;
  96:funsape/globalDefines.hpp **** 
  97:funsape/globalDefines.hpp **** //     /////////////////     AVR PLATFORM VARIABLES    //////////////////     //
  98:funsape/globalDefines.hpp **** typedef int16_t                         int_t;          // 16-bit (AVR)
  99:funsape/globalDefines.hpp **** typedef uint16_t                        uint_t;         // 16-bit (AVR)
GAS LISTING C:\Users\kenne\AppData\Local\Temp\ccnxErqW.s 			page 3


 100:funsape/globalDefines.hpp **** typedef cint16_t                        cint_t;         // 16-bit (AVR)
 101:funsape/globalDefines.hpp **** typedef cuint16_t                       cuint_t;        // 16-bit (AVR)
 102:funsape/globalDefines.hpp **** typedef vint16_t                        vint_t;         // 16-bit (AVR)
 103:funsape/globalDefines.hpp **** typedef vuint16_t                       vuint_t;        // 16-bit (AVR)
 104:funsape/globalDefines.hpp **** typedef uint8_t                         ioPinIndex_t;   // 8-bit (AVR)
 105:funsape/globalDefines.hpp **** typedef vuint8_t                       *ioRegAddress_t; // 8-bit address (AVR)
 106:funsape/globalDefines.hpp **** 
 107:funsape/globalDefines.hpp **** //     //////////////////     BINARY ENUMERATIONS     ///////////////////     //
 108:funsape/globalDefines.hpp **** enum class Activation : cbool_t {
 109:funsape/globalDefines.hpp ****     OFF                                 = false,
 110:funsape/globalDefines.hpp ****     ON                                  = true
 111:funsape/globalDefines.hpp **** };
 112:funsape/globalDefines.hpp **** 
 113:funsape/globalDefines.hpp **** enum class DisplayOrientation : cbool_t {
 114:funsape/globalDefines.hpp ****     LANDSCAPE                           = false,
 115:funsape/globalDefines.hpp ****     PORTRAIT                            = true
 116:funsape/globalDefines.hpp **** };
 117:funsape/globalDefines.hpp **** 
 118:funsape/globalDefines.hpp **** enum class DriverMode : cbool_t {
 119:funsape/globalDefines.hpp ****     PUSH_PULL                           = false,
 120:funsape/globalDefines.hpp ****     OPEN_DRAIN                          = true,
 121:funsape/globalDefines.hpp **** };
 122:funsape/globalDefines.hpp **** 
 123:funsape/globalDefines.hpp **** enum class Edge : cbool_t {
 124:funsape/globalDefines.hpp ****     FALLING                             = false,
 125:funsape/globalDefines.hpp ****     RISING                              = true
 126:funsape/globalDefines.hpp **** };
 127:funsape/globalDefines.hpp **** 
 128:funsape/globalDefines.hpp **** enum class IoOperation : cbool_t {
 129:funsape/globalDefines.hpp ****     WRITE                               = false,
 130:funsape/globalDefines.hpp ****     READ                                = true
 131:funsape/globalDefines.hpp **** };
 132:funsape/globalDefines.hpp **** 
 133:funsape/globalDefines.hpp **** enum class LogicLevel : cbool_t {
 134:funsape/globalDefines.hpp ****     LOW                                 = false,
 135:funsape/globalDefines.hpp ****     HIGH                                = true
 136:funsape/globalDefines.hpp **** };
 137:funsape/globalDefines.hpp **** 
 138:funsape/globalDefines.hpp **** enum class PinDirection : cbool_t {
 139:funsape/globalDefines.hpp ****     INPUT                               = false,
 140:funsape/globalDefines.hpp ****     OUTPUT                              = true,
 141:funsape/globalDefines.hpp **** };
 142:funsape/globalDefines.hpp **** 
 143:funsape/globalDefines.hpp **** enum class Rotation : cbool_t {
 144:funsape/globalDefines.hpp ****     CLOCKWISE                           = false,
 145:funsape/globalDefines.hpp ****     COUNTERCLOCKWISE                    = true
 146:funsape/globalDefines.hpp **** };
 147:funsape/globalDefines.hpp **** 
 148:funsape/globalDefines.hpp **** enum class State : cbool_t {
 149:funsape/globalDefines.hpp ****     OFF                                 = false,
 150:funsape/globalDefines.hpp ****     ON                                  = true
 151:funsape/globalDefines.hpp **** };
 152:funsape/globalDefines.hpp **** 
 153:funsape/globalDefines.hpp **** //     ///////////////////     PLAIN ENUMERATIONS    ////////////////////     //
 154:funsape/globalDefines.hpp **** enum class Axis : cuint8_t {
 155:funsape/globalDefines.hpp ****     //                                     Z-AXIS     Y-AXIS     X-AXIS
 156:funsape/globalDefines.hpp ****     NONE                                = (0 << 2) | (0 << 1) | (0 << 0),
GAS LISTING C:\Users\kenne\AppData\Local\Temp\ccnxErqW.s 			page 4


 157:funsape/globalDefines.hpp ****     X                                   = (0 << 2) | (0 << 1) | (1 << 0),
 158:funsape/globalDefines.hpp ****     Y                                   = (0 << 2) | (1 << 1) | (0 << 0),
 159:funsape/globalDefines.hpp ****     XY                                  = (0 << 2) | (1 << 1) | (1 << 0),
 160:funsape/globalDefines.hpp ****     Z                                   = (1 << 2) | (0 << 1) | (0 << 0),
 161:funsape/globalDefines.hpp ****     XZ                                  = (1 << 2) | (0 << 1) | (1 << 0),
 162:funsape/globalDefines.hpp ****     YZ                                  = (1 << 2) | (1 << 1) | (0 << 0),
 163:funsape/globalDefines.hpp ****     ALL                                 = (1 << 2) | (1 << 1) | (1 << 0)
 164:funsape/globalDefines.hpp **** };
 165:funsape/globalDefines.hpp **** 
 166:funsape/globalDefines.hpp **** inlined Axis operator|(Axis a, Axis b)
 167:funsape/globalDefines.hpp **** {
 168:funsape/globalDefines.hpp ****     return static_cast<Axis>(static_cast<cint8_t>(a) | static_cast<uint8_t>(b));
 169:funsape/globalDefines.hpp **** }
 170:funsape/globalDefines.hpp **** 
 171:funsape/globalDefines.hpp **** inlined Axis &operator|=(Axis &a, Axis b)
 172:funsape/globalDefines.hpp **** {
 173:funsape/globalDefines.hpp ****     return a = static_cast<Axis>(static_cast<uint8_t>(a) | static_cast<uint8_t>(b));
 174:funsape/globalDefines.hpp **** }
 175:funsape/globalDefines.hpp **** 
 176:funsape/globalDefines.hpp **** inlined Axis operator&(Axis a, Axis b)
 177:funsape/globalDefines.hpp **** {
 178:funsape/globalDefines.hpp ****     return static_cast<Axis>(static_cast<uint8_t>(a) & static_cast<uint8_t>(b));
 179:funsape/globalDefines.hpp **** }
 180:funsape/globalDefines.hpp **** 
 181:funsape/globalDefines.hpp **** inlined Axis &operator&=(Axis &a, Axis b)
 182:funsape/globalDefines.hpp **** {
 183:funsape/globalDefines.hpp ****     return a = static_cast<Axis>(static_cast<uint8_t>(a) & static_cast<uint8_t>(b));
 184:funsape/globalDefines.hpp **** }
 185:funsape/globalDefines.hpp **** 
 186:funsape/globalDefines.hpp **** enum class Direction : cuint8_t {
 187:funsape/globalDefines.hpp ****     LEFT                                = 0,
 188:funsape/globalDefines.hpp ****     RIGHT                               = 1,
 189:funsape/globalDefines.hpp ****     UP                                  = 2,
 190:funsape/globalDefines.hpp ****     DOWN                                = 3
 191:funsape/globalDefines.hpp **** };
 192:funsape/globalDefines.hpp **** 
 193:funsape/globalDefines.hpp **** enum class InterfaceMode : cuint8_t {
 194:funsape/globalDefines.hpp ****     BLOCKING_MODE                       = 0,
 195:funsape/globalDefines.hpp ****     INTERRUPT_MODE                      = 1,
 196:funsape/globalDefines.hpp ****     DMA_MODE                            = 2
 197:funsape/globalDefines.hpp **** };
 198:funsape/globalDefines.hpp **** 
 199:funsape/globalDefines.hpp **** enum class ThermometricScale : cuint8_t {
 200:funsape/globalDefines.hpp ****     CELSIUS                             = 0,
 201:funsape/globalDefines.hpp ****     DELISLE                             = 1,
 202:funsape/globalDefines.hpp ****     FAHRENHEIT                          = 2,
 203:funsape/globalDefines.hpp ****     KELVIN                              = 3,
 204:funsape/globalDefines.hpp ****     NEWTON                              = 4,
 205:funsape/globalDefines.hpp ****     RANKINE                             = 5,
 206:funsape/globalDefines.hpp ****     REAUMUR                             = 6,
 207:funsape/globalDefines.hpp ****     ROMER                               = 7
 208:funsape/globalDefines.hpp **** };
 209:funsape/globalDefines.hpp **** 
 210:funsape/globalDefines.hpp **** enum class Error : cuint16_t {
 211:funsape/globalDefines.hpp ****     // General error codes
 212:funsape/globalDefines.hpp ****     NONE                                                = 0x0000,   // Success - No errors occurred
 213:funsape/globalDefines.hpp ****     AXIS_INVALID                                        = 0x0001,   // Invalid axis
GAS LISTING C:\Users\kenne\AppData\Local\Temp\ccnxErqW.s 			page 5


 214:funsape/globalDefines.hpp ****     NOT_IMPLEMENTED                                     = 0x0002,   // Not implemented yet
 215:funsape/globalDefines.hpp ****     UNDER_DEVELOPMENT                                   = 0x0003,   // This part of the code is sti
 216:funsape/globalDefines.hpp ****     NOT_INITIALIZED                                     = 0x0004,   // Not initialized
 217:funsape/globalDefines.hpp ****     // BUSY                                                = 0x0005,   // TODO: Describe parameter
 218:funsape/globalDefines.hpp ****     // DEVICE_NOT_SUPPORTED                                = 0x0006,   // Device is not currently s
 219:funsape/globalDefines.hpp ****     FEATURE_NOT_SUPPORTED                               = 0x0007,   // Unsupported feature or confi
 220:funsape/globalDefines.hpp ****     // FUNCTION_POINTER_NULL                               = 0x0008,   // TODO: Describe parameter
 221:funsape/globalDefines.hpp ****     // INSTANCE_INVALID                                    = 0x0009,   // Invalid instance
 222:funsape/globalDefines.hpp ****     // LOCKED                                              = 0x000A,   // Accessed a locked device
 223:funsape/globalDefines.hpp ****     MEMORY_ALLOCATION                                   = 0x000B,   // Memory allocation failed
 224:funsape/globalDefines.hpp ****     // MODE_NOT_SUPPORTED                                  = 0x000C,   // Mode is not currently sup
 225:funsape/globalDefines.hpp ****     // NOT_READY                                           = 0x000D,   // TODO: Describe parameter
 226:funsape/globalDefines.hpp ****     // READ_PROTECTED                                      = 0x000E,   // Tried to read a read prot
 227:funsape/globalDefines.hpp ****     // WRITE_PROTECTED                                     = 0x000F,   // Tried to write a write pr
 228:funsape/globalDefines.hpp **** 
 229:funsape/globalDefines.hpp ****     // Function arguments related error codes
 230:funsape/globalDefines.hpp ****     ARGUMENT_CANNOT_BE_ZERO                             = 0x0010,   // TODO: Describe parameter
 231:funsape/globalDefines.hpp ****     ARGUMENT_POINTER_NULL                               = 0x0011,   // NULL pointer was passed as a
 232:funsape/globalDefines.hpp ****     ARGUMENT_VALUE_INVALID                              = 0x0012,   // TODO: Describe parameter
 233:funsape/globalDefines.hpp ****     // ARGUMENTS_MISMATCH                                  = 0x0013,   // A function was called wit
 234:funsape/globalDefines.hpp ****     // ARGUMENTS_WRONG_NUMBER                              = 0x0014,   // A function was called wit
 235:funsape/globalDefines.hpp ****     // ARGUMENT_GENERIC_ERROR_5                            = 0x0015,   // Generic error (use only o
 236:funsape/globalDefines.hpp ****     // ARGUMENT_GENERIC_ERROR_6                            = 0x0016,   // Generic error (use only o
 237:funsape/globalDefines.hpp ****     // ARGUMENT_GENERIC_ERROR_7                            = 0x0017,   // Generic error (use only o
 238:funsape/globalDefines.hpp ****     // ARGUMENT_GENERIC_ERROR_8                            = 0x0018,   // Generic error (use only o
 239:funsape/globalDefines.hpp ****     // ARGUMENT_GENERIC_ERROR_9                            = 0x0019,   // Generic error (use only o
 240:funsape/globalDefines.hpp ****     // ARGUMENT_GENERIC_ERROR_10                           = 0x001A,   // Generic error (use only o
 241:funsape/globalDefines.hpp ****     // ARGUMENT_GENERIC_ERROR_11                           = 0x001B,   // Generic error (use only o
 242:funsape/globalDefines.hpp ****     // ARGUMENT_GENERIC_ERROR_12                           = 0x001C,   // Generic error (use only o
 243:funsape/globalDefines.hpp ****     // ARGUMENT_GENERIC_ERROR_13                           = 0x001D,   // Generic error (use only o
 244:funsape/globalDefines.hpp ****     // ARGUMENT_GENERIC_ERROR_14                           = 0x001E,   // Generic error (use only o
 245:funsape/globalDefines.hpp ****     // ARGUMENT_GENERIC_ERROR                              = 0x001F,   // Generic error (use only o
 246:funsape/globalDefines.hpp **** 
 247:funsape/globalDefines.hpp ****     // Buffer related error codes
 248:funsape/globalDefines.hpp ****     // BUFFER_EMPTY                                        = 0x0020,   // Buffer is empty
 249:funsape/globalDefines.hpp ****     // BUFFER_FULL                                         = 0x0021,   // Buffer is full
 250:funsape/globalDefines.hpp ****     // BUFFER_NOT_ENOUGH_ELEMENTS                          = 0x0022,   // Not enough space in buffe
 251:funsape/globalDefines.hpp ****     // BUFFER_NOT_ENOUGH_SPACE                             = 0x0023,   // Not enough space in buffe
 252:funsape/globalDefines.hpp ****     // BUFFER_POINTER_NULL                                 = 0x0024,   // Buffer size was set to ze
 253:funsape/globalDefines.hpp ****     BUFFER_SIZE_TOO_LARGE                               = 0x0025,   // Buffer size was set to a lar
 254:funsape/globalDefines.hpp ****     BUFFER_SIZE_TOO_SMALL                               = 0x0026,   // Buffer size was set to a ver
 255:funsape/globalDefines.hpp ****     // BUFFER_SIZE_ZERO                                    = 0x0027,   // Buffer size was set to ze
 256:funsape/globalDefines.hpp ****     // BUFFER_GENERIC_ERROR_8                              = 0x0028,   // Generic error (use only o
 257:funsape/globalDefines.hpp ****     // BUFFER_GENERIC_ERROR_9                              = 0x0029,   // Generic error (use only o
 258:funsape/globalDefines.hpp ****     // BUFFER_GENERIC_ERROR_10                             = 0x002A,   // Generic error (use only o
 259:funsape/globalDefines.hpp ****     // BUFFER_GENERIC_ERROR_11                             = 0x002B,   // Generic error (use only o
 260:funsape/globalDefines.hpp ****     // BUFFER_GENERIC_ERROR_12                             = 0x002C,   // Generic error (use only o
 261:funsape/globalDefines.hpp ****     // BUFFER_GENERIC_ERROR_13                             = 0x002D,   // Generic error (use only o
 262:funsape/globalDefines.hpp ****     // BUFFER_GENERIC_ERROR_14                             = 0x002E,   // Generic error (use only o
 263:funsape/globalDefines.hpp ****     // BUFFER_GENERIC_ERROR_15                             = 0x002F,   // Generic error (use only o
 264:funsape/globalDefines.hpp **** 
 265:funsape/globalDefines.hpp ****     // Clock configuration related error codes
 266:funsape/globalDefines.hpp ****     CLOCK_PRESCALER_CHANGE_FAILED                       = 0x0030,   // Clock prescaler change faile
 267:funsape/globalDefines.hpp ****     CLOCK_PRESCALER_NOT_SUPPORTED                       = 0x0031,   // Clock prescaler configuratio
 268:funsape/globalDefines.hpp ****     CLOCK_SPEED_TOO_HIGH                                = 0x0032,   // TODO: Describe parameter
 269:funsape/globalDefines.hpp ****     CLOCK_SPEED_TOO_LOW                                 = 0x0033,   // TODO: Describe parameter
 270:funsape/globalDefines.hpp ****     // CLOCK_GENERIC_ERROR_4                               = 0x0034,   // Generic error (use only o
GAS LISTING C:\Users\kenne\AppData\Local\Temp\ccnxErqW.s 			page 6


 271:funsape/globalDefines.hpp ****     // CLOCK_GENERIC_ERROR_5                               = 0x0035,   // Generic error (use only o
 272:funsape/globalDefines.hpp ****     // CLOCK_GENERIC_ERROR_6                               = 0x0036,   // Generic error (use only o
 273:funsape/globalDefines.hpp ****     // CLOCK_GENERIC_ERROR_7                               = 0x0037,   // Generic error (use only o
 274:funsape/globalDefines.hpp ****     // CLOCK_GENERIC_ERROR_8                               = 0x0038,   // Generic error (use only o
 275:funsape/globalDefines.hpp ****     // CLOCK_GENERIC_ERROR_9                               = 0x0039,   // Generic error (use only o
 276:funsape/globalDefines.hpp ****     // CLOCK_GENERIC_ERROR_10                              = 0x003A,   // Generic error (use only o
 277:funsape/globalDefines.hpp ****     // CLOCK_GENERIC_ERROR_11                              = 0x003B,   // Generic error (use only o
 278:funsape/globalDefines.hpp ****     // CLOCK_GENERIC_ERROR_12                              = 0x003C,   // Generic error (use only o
 279:funsape/globalDefines.hpp ****     // CLOCK_GENERIC_ERROR_13                              = 0x003D,   // Generic error (use only o
 280:funsape/globalDefines.hpp ****     // CLOCK_GENERIC_ERROR_14                              = 0x003E,   // Generic error (use only o
 281:funsape/globalDefines.hpp ****     // CLOCK_GENERIC_ERROR_15                              = 0x003F,   // Generic error (use only o
 282:funsape/globalDefines.hpp **** 
 283:funsape/globalDefines.hpp ****     // Communication related error codes
 284:funsape/globalDefines.hpp ****     COMMUNICATION_FAILED                                = 0x0040,   // TODO: Describe parameter
 285:funsape/globalDefines.hpp ****     COMMUNICATION_NO_DEVICE_SELECTED                    = 0x0041,   // TODO: Describe parameter
 286:funsape/globalDefines.hpp ****     // COMMUNICATION_PORT_NOT_SET                          = 0x0042,   // TODO: Describe parameter
 287:funsape/globalDefines.hpp ****     COMMUNICATION_TIMEOUT                               = 0x0043,   // The operation timed out
 288:funsape/globalDefines.hpp ****     // COMMUNICATION_DEVICE_ID_MATCH_FAILED                = 0x0044,   // TODO: Describe parameter
 289:funsape/globalDefines.hpp ****     // CHECKSUM_ERROR                                      = 0x0045,   // TODO: Describe parameter
 290:funsape/globalDefines.hpp ****     // FRAME_ERROR                                         = 0x0046,   // TODO: Describe parameter
 291:funsape/globalDefines.hpp ****     // PACKAGE_AWAITING                                    = 0x0047,   // Try to write data to a re
 292:funsape/globalDefines.hpp ****     // PACKAGE_NOT_READY                                   = 0x0048,   // Try to read data from a n
 293:funsape/globalDefines.hpp ****     // COMMUNICATION_GENERIC_ERROR_9                       = 0x0049,   // Generic error (use only o
 294:funsape/globalDefines.hpp ****     // COMMUNICATION_GENERIC_ERROR_10                      = 0x004A,   // Generic error (use only o
 295:funsape/globalDefines.hpp ****     // COMMUNICATION_GENERIC_ERROR_11                      = 0x004B,   // Generic error (use only o
 296:funsape/globalDefines.hpp ****     // COMMUNICATION_GENERIC_ERROR_12                      = 0x004C,   // Generic error (use only o
 297:funsape/globalDefines.hpp ****     // COMMUNICATION_GENERIC_ERROR_13                      = 0x004D,   // Generic error (use only o
 298:funsape/globalDefines.hpp ****     // COMMUNICATION_GENERIC_ERROR_14                      = 0x004E,   // Generic error (use only o
 299:funsape/globalDefines.hpp ****     // COMMUNICATION_GENERIC_ERROR_15                      = 0x004F,   // Generic error (use only o
 300:funsape/globalDefines.hpp **** 
 301:funsape/globalDefines.hpp ****     // DateTime class related error codes
 302:funsape/globalDefines.hpp ****     DATE_NOT_INITIALIZED                                = 0x0050,   // TODO: Describe parameter
 303:funsape/globalDefines.hpp ****     // HOUR_INVALID                                        = 0x0051,   // TODO: Describe parameter
 304:funsape/globalDefines.hpp ****     // MILLISECOND_INVALID                                 = 0x0052,   // TODO: Describe parameter
 305:funsape/globalDefines.hpp ****     // MINUTE_INVALID                                      = 0x0053,   // TODO: Describe parameter
 306:funsape/globalDefines.hpp ****     // MONTH_DAY_INVALID                                   = 0x0054,   // TODO: Describe parameter
 307:funsape/globalDefines.hpp ****     // MONTH_INVALID                                       = 0x0055,   // TODO: Describe parameter
 308:funsape/globalDefines.hpp ****     // SECOND_INVALID                                      = 0x0056,   // TODO: Describe parameter
 309:funsape/globalDefines.hpp ****     TIME_NOT_INITIALIZED                                = 0x0057,   // TODO: Describe parameter
 310:funsape/globalDefines.hpp ****     // TIMEZONE_INVALID                                    = 0x0058,   // TODO: Describe parameter
 311:funsape/globalDefines.hpp ****     // YEAR_INVALID                                        = 0x0059,   // TODO: Describe parameter
 312:funsape/globalDefines.hpp ****     DATE_INVALID                                        = 0x005A,   // TODO: Describe parameter
 313:funsape/globalDefines.hpp ****     TIME_INVALID                                        = 0x005B,   // TODO: Describe parameter
 314:funsape/globalDefines.hpp ****     // GENERIC_ERROR_13                                    = 0x005C,   // Generic error (use only o
 315:funsape/globalDefines.hpp ****     // GENERIC_ERROR_14                                    = 0x005D,   // Generic error (use only o
 316:funsape/globalDefines.hpp ****     // GENERIC_ERROR_15                                    = 0x005F,   // Generic error (use only o
 317:funsape/globalDefines.hpp **** 
 318:funsape/globalDefines.hpp ****     // Handler related error codes
 319:funsape/globalDefines.hpp ****     BUS_HANDLER_NOT_SUPPORTED                           = 0x0060,   // TODO: Describe parameter
 320:funsape/globalDefines.hpp ****     BUS_HANDLER_POINTER_NULL                            = 0x0061,   // TODO: Describe parameter
 321:funsape/globalDefines.hpp ****     // HANDLER_GENERIC_ERROR_2                             = 0x0062,   // Generic error (use only o
 322:funsape/globalDefines.hpp ****     // HANDLER_GENERIC_ERROR_3                             = 0x0063,   // Generic error (use only o
 323:funsape/globalDefines.hpp ****     // HANDLER_GENERIC_ERROR_4                             = 0x0064,   // Generic error (use only o
 324:funsape/globalDefines.hpp ****     // HANDLER_GENERIC_ERROR_5                             = 0x0065,   // Generic error (use only o
 325:funsape/globalDefines.hpp ****     // HANDLER_GENERIC_ERROR_6                             = 0x0066,   // Generic error (use only o
 326:funsape/globalDefines.hpp ****     // HANDLER_GENERIC_ERROR_7                             = 0x0067,   // Generic error (use only o
 327:funsape/globalDefines.hpp ****     // HANDLER_GENERIC_ERROR_8                             = 0x0068,   // Generic error (use only o
GAS LISTING C:\Users\kenne\AppData\Local\Temp\ccnxErqW.s 			page 7


 328:funsape/globalDefines.hpp ****     // HANDLER_GENERIC_ERROR_9                             = 0x0069,   // Generic error (use only o
 329:funsape/globalDefines.hpp ****     // HANDLER_GENERIC_ERROR_10                            = 0x006A,   // Generic error (use only o
 330:funsape/globalDefines.hpp ****     // HANDLER_GENERIC_ERROR_11                            = 0x006B,   // Generic error (use only o
 331:funsape/globalDefines.hpp ****     // HANDLER_GENERIC_ERROR_12                            = 0x006C,   // Generic error (use only o
 332:funsape/globalDefines.hpp ****     // HANDLER_GENERIC_ERROR_13                            = 0x006D,   // Generic error (use only o
 333:funsape/globalDefines.hpp ****     // HANDLER_GENERIC_ERROR_14                            = 0x006E,   // Generic error (use only o
 334:funsape/globalDefines.hpp ****     // HANDLER_GENERIC_ERROR_15                            = 0x006F,   // Generic error (use only o
 335:funsape/globalDefines.hpp **** 
 336:funsape/globalDefines.hpp ****     // External interrupts related error codes
 337:funsape/globalDefines.hpp ****     // INTERRUPT_NOT_AVAILABLE                             = 0x0070,   // TODO: Describe parameter
 338:funsape/globalDefines.hpp ****     // INTERRUPT_PORT_OUTPUT_MODE_NOT_SUPPORTED            = 0x0071,   // TODO: Describe parameter
 339:funsape/globalDefines.hpp ****     // INTERRUPT_SENSE_MODE_NOT_SUPPORTED                  = 0x0072,   // TODO: Describe parameter
 340:funsape/globalDefines.hpp ****     // INTERRUPT_GENERIC_ERROR_3                           = 0x0073,   // Generic error (use only o
 341:funsape/globalDefines.hpp ****     // INTERRUPT_GENERIC_ERROR_4                           = 0x0074,   // Generic error (use only o
 342:funsape/globalDefines.hpp ****     // INTERRUPT_GENERIC_ERROR_5                           = 0x0075,   // Generic error (use only o
 343:funsape/globalDefines.hpp ****     // INTERRUPT_GENERIC_ERROR_6                           = 0x0076,   // Generic error (use only o
 344:funsape/globalDefines.hpp ****     // INTERRUPT_GENERIC_ERROR_7                           = 0x0077,   // Generic error (use only o
 345:funsape/globalDefines.hpp ****     // INTERRUPT_GENERIC_ERROR_8                           = 0x0078,   // Generic error (use only o
 346:funsape/globalDefines.hpp ****     // INTERRUPT_GENERIC_ERROR_9                           = 0x0079,   // Generic error (use only o
 347:funsape/globalDefines.hpp ****     // INTERRUPT_GENERIC_ERROR_10                          = 0x007A,   // Generic error (use only o
 348:funsape/globalDefines.hpp ****     // INTERRUPT_GENERIC_ERROR_11                          = 0x007B,   // Generic error (use only o
 349:funsape/globalDefines.hpp ****     // INTERRUPT_GENERIC_ERROR_12                          = 0x007C,   // Generic error (use only o
 350:funsape/globalDefines.hpp ****     // INTERRUPT_GENERIC_ERROR_13                          = 0x007D,   // Generic error (use only o
 351:funsape/globalDefines.hpp ****     // INTERRUPT_GENERIC_ERROR_14                          = 0x007E,   // Generic error (use only o
 352:funsape/globalDefines.hpp ****     // INTERRUPT_GENERIC_ERROR_15                          = 0x007F,   // Generic error (use only o
 353:funsape/globalDefines.hpp **** 
 354:funsape/globalDefines.hpp **** 
 355:funsape/globalDefines.hpp ****     // Package API class related error codes
 356:funsape/globalDefines.hpp ****     // PACKAGE_API_PACKAGE_DATA_FULL                       = 0x0080,   // TODO: Describe parameter
 357:funsape/globalDefines.hpp ****     // PACKAGE_API_PACKAGE_NOT_READY                       = 0x0081,   // TODO: Describe parameter
 358:funsape/globalDefines.hpp ****     // PACKAGE_API_PAYLOAD_DATA_NULL                       = 0x0082,   // TODO: Describe parameter
 359:funsape/globalDefines.hpp ****     // PACKAGE_API_PAYLOAD_SIZE_NULL                       = 0x0083,   // TODO: Describe parameter
 360:funsape/globalDefines.hpp ****     // PACKAGE_API_SOURCE_ADDRESS_INVALID                  = 0x0084,   // TODO: Describe parameter
 361:funsape/globalDefines.hpp ****     // PACKAGE_API_GENERIC_ERROR_5                         = 0x0085,   // Generic error (use only o
 362:funsape/globalDefines.hpp ****     // PACKAGE_API_GENERIC_ERROR_6                         = 0x0086,   // Generic error (use only o
 363:funsape/globalDefines.hpp ****     // PACKAGE_API_GENERIC_ERROR_7                         = 0x0087,   // Generic error (use only o
 364:funsape/globalDefines.hpp ****     // PACKAGE_API_GENERIC_ERROR_8                         = 0x0088,   // Generic error (use only o
 365:funsape/globalDefines.hpp ****     // PACKAGE_API_GENERIC_ERROR_9                         = 0x0089,   // Generic error (use only o
 366:funsape/globalDefines.hpp ****     // PACKAGE_API_GENERIC_ERROR_10                        = 0x008A,   // Generic error (use only o
 367:funsape/globalDefines.hpp ****     // PACKAGE_API_GENERIC_ERROR_11                        = 0x008B,   // Generic error (use only o
 368:funsape/globalDefines.hpp ****     // PACKAGE_API_GENERIC_ERROR_12                        = 0x008C,   // Generic error (use only o
 369:funsape/globalDefines.hpp ****     // PACKAGE_API_GENERIC_ERROR_13                        = 0x008D,   // Generic error (use only o
 370:funsape/globalDefines.hpp ****     // PACKAGE_API_GENERIC_ERROR_14                        = 0x008E,   // Generic error (use only o
 371:funsape/globalDefines.hpp ****     // PACKAGE_API_GENERIC_ERROR_15                        = 0x008F,   // Generic error (use only o
 372:funsape/globalDefines.hpp **** 
 373:funsape/globalDefines.hpp ****     // SPI related error codes
 374:funsape/globalDefines.hpp ****     // SPI_BUSY_FLAG                                       = 0x0090,   // TODO: Describe parameter
 375:funsape/globalDefines.hpp ****     // SPI_CRC                                             = 0x0091,   // TODO: Describe parameter
 376:funsape/globalDefines.hpp ****     // SPI_DMA                                             = 0x0092,   // TODO: Describe parameter
 377:funsape/globalDefines.hpp ****     // SPI_MODE_FAULT                                      = 0x0093,   // TODO: Describe parameter
 378:funsape/globalDefines.hpp ****     // SPI_OVERRUN                                         = 0x0094,   // TODO: Describe parameter
 379:funsape/globalDefines.hpp ****     // SPI_GENERIC_ERROR_5                                 = 0x0095,   // Generic error (use only o
 380:funsape/globalDefines.hpp ****     // SPI_GENERIC_ERROR_6                                 = 0x0096,   // Generic error (use only o
 381:funsape/globalDefines.hpp ****     // SPI_GENERIC_ERROR_7                                 = 0x0097,   // Generic error (use only o
 382:funsape/globalDefines.hpp ****     // SPI_GENERIC_ERROR_8                                 = 0x0098,   // Generic error (use only o
 383:funsape/globalDefines.hpp ****     // SPI_GENERIC_ERROR_9                                 = 0x0099,   // Generic error (use only o
 384:funsape/globalDefines.hpp ****     // SPI_GENERIC_ERROR_10                                = 0x009A,   // Generic error (use only o
GAS LISTING C:\Users\kenne\AppData\Local\Temp\ccnxErqW.s 			page 8


 385:funsape/globalDefines.hpp ****     // SPI_GENERIC_ERROR_11                                = 0x009B,   // Generic error (use only o
 386:funsape/globalDefines.hpp ****     // SPI_GENERIC_ERROR_12                                = 0x009C,   // Generic error (use only o
 387:funsape/globalDefines.hpp ****     // SPI_GENERIC_ERROR_13                                = 0x009D,   // Generic error (use only o
 388:funsape/globalDefines.hpp ****     // SPI_GENERIC_ERROR_14                                = 0x009E,   // Generic error (use only o
 389:funsape/globalDefines.hpp ****     // SPI_GENERIC_ERROR_15                                = 0x009F,   // Generic error (use only o
 390:funsape/globalDefines.hpp **** 
 391:funsape/globalDefines.hpp ****     // TWI related error codes
 392:funsape/globalDefines.hpp ****     // TWI_AF_FLAG                                         = 0x00A0,   // TWI AF flag error
 393:funsape/globalDefines.hpp ****     // TWI_ARBITRATION_LOST                                = 0x00A1,   // TWI bus arbitration lost
 394:funsape/globalDefines.hpp ****     // TWI_BUS_ERROR                                       = 0x00A2,   // TWI bus error
 395:funsape/globalDefines.hpp ****     // TWI_DMA                                             = 0x00A3,   // DMA parameter error
 396:funsape/globalDefines.hpp ****     // TWI_DMA_PARAM                                       = 0x00A4,   // DMA transfer error
 397:funsape/globalDefines.hpp ****     // TWI_OVERRUN                                         = 0x00A5,   // TWI overrun
 398:funsape/globalDefines.hpp ****     // TWI_SIZE_MANAGEMENT_ERROR                           = 0x00A6,   // Size management error
 399:funsape/globalDefines.hpp ****     // TWI_INVALID_DEVICE_ADDRESS                          = 0x00A7,   // TODO: Describe parameter
 400:funsape/globalDefines.hpp ****     // TWI_GENERIC_ERROR_8                                 = 0x00A8,   // Generic error (use only o
 401:funsape/globalDefines.hpp ****     // TWI_GENERIC_ERROR_9                                 = 0x00A9,   // Generic error (use only o
 402:funsape/globalDefines.hpp ****     // TWI_GENERIC_ERROR_10                                = 0x00AA,   // Generic error (use only o
 403:funsape/globalDefines.hpp ****     // TWI_GENERIC_ERROR_11                                = 0x00AB,   // Generic error (use only o
 404:funsape/globalDefines.hpp ****     // TWI_GENERIC_ERROR_12                                = 0x00AC,   // Generic error (use only o
 405:funsape/globalDefines.hpp ****     // TWI_GENERIC_ERROR_13                                = 0x00AD,   // Generic error (use only o
 406:funsape/globalDefines.hpp ****     // TWI_GENERIC_ERROR_14                                = 0x00AE,   // Generic error (use only o
 407:funsape/globalDefines.hpp ****     // TWI_GENERIC_ERROR_15                                = 0x00AF,   // Generic error (use only o
 408:funsape/globalDefines.hpp **** 
 409:funsape/globalDefines.hpp ****     // USART related error codes
 410:funsape/globalDefines.hpp ****     USART_BAUD_RATE_NOT_SUPPORTED                       = 0x00B0,   // TODO: Describe parameter
 411:funsape/globalDefines.hpp ****     // USART_CONFIGURATION_PARAMETER_WRONG                 = 0x00B1,   // TODO: Describe parameter
 412:funsape/globalDefines.hpp ****     USART_DATA_SIZE_NOT_SUPPORTED                       = 0x00B2,   // TODO: Describe parameter
 413:funsape/globalDefines.hpp ****     USART_FRAME_FORMAT_NOT_SUPPORTED                    = 0x00B3,   // TODO: Describe parameter
 414:funsape/globalDefines.hpp ****     USART_PARITY_NOT_SUPPORTED                          = 0x00B4,   // TODO: Describe parameter
 415:funsape/globalDefines.hpp ****     USART_STOP_BIT_NOT_SUPPORTED                        = 0x00B5,   // TODO: Describe parameter
 416:funsape/globalDefines.hpp ****     USART_MODE_NOT_SUPPORTED                            = 0x00B6,   // TODO: Describe parameter
 417:funsape/globalDefines.hpp ****     // USART_GENERIC_ERROR_7                               = 0x00B7,   // Generic error (use only o
 418:funsape/globalDefines.hpp ****     // USART_GENERIC_ERROR_8                               = 0x00B8,   // Generic error (use only o
 419:funsape/globalDefines.hpp ****     // USART_GENERIC_ERROR_9                               = 0x00B9,   // Generic error (use only o
 420:funsape/globalDefines.hpp ****     // USART_GENERIC_ERROR_10                              = 0x00BA,   // Generic error (use only o
 421:funsape/globalDefines.hpp ****     // USART_GENERIC_ERROR_11                              = 0x00BB,   // Generic error (use only o
 422:funsape/globalDefines.hpp ****     // USART_GENERIC_ERROR_12                              = 0x00BC,   // Generic error (use only o
 423:funsape/globalDefines.hpp ****     // USART_GENERIC_ERROR_13                              = 0x00BD,   // Generic error (use only o
 424:funsape/globalDefines.hpp ****     // USART_GENERIC_ERROR_14                              = 0x00BE,   // Generic error (use only o
 425:funsape/globalDefines.hpp ****     // USART_GENERIC_ERROR_15                              = 0x00BF,   // Generic error (use only o
 426:funsape/globalDefines.hpp **** 
 427:funsape/globalDefines.hpp ****     // LCD related error codes
 428:funsape/globalDefines.hpp ****     // LCD_CONTROL_PORT_NOT_SET                            = 0x00C0,   // TODO: Describe parameter
 429:funsape/globalDefines.hpp ****     // LCD_CONTROL_PIN_E_INVALID                           = 0x00C1,   // TODO: Describe parameter
 430:funsape/globalDefines.hpp ****     // LCD_CONTROL_PIN_RS_INVALID                          = 0x00C2,   // TODO: Describe parameter
 431:funsape/globalDefines.hpp ****     // LCD_CONTROL_PIN_RW_INVALID                          = 0x00C3,   // TODO: Describe parameter
 432:funsape/globalDefines.hpp ****     // LCD_DATA_PORT_NOT_SET                               = 0x00C4,   // TODO: Describe parameter
 433:funsape/globalDefines.hpp ****     // LCD_DATA_PIN_INDEX_OUT_OF_BOUNDARIES                = 0x00C5,   // TODO: Describe parameter
 434:funsape/globalDefines.hpp ****     // LCD_GENERIC_ERROR_6                                 = 0x00C6,   // Generic error (use only o
 435:funsape/globalDefines.hpp ****     // LCD_GENERIC_ERROR_7                                 = 0x00C7,   // Generic error (use only o
 436:funsape/globalDefines.hpp ****     // LCD_GENERIC_ERROR_8                                 = 0x00C8,   // Generic error (use only o
 437:funsape/globalDefines.hpp ****     // LCD_GENERIC_ERROR_9                                 = 0x00C9,   // Generic error (use only o
 438:funsape/globalDefines.hpp ****     // LCD_GENERIC_ERROR_10                                = 0x00CA,   // Generic error (use only o
 439:funsape/globalDefines.hpp ****     // LCD_GENERIC_ERROR_11                                = 0x00CB,   // Generic error (use only o
 440:funsape/globalDefines.hpp ****     // LCD_GENERIC_ERROR_12                                = 0x00CC,   // Generic error (use only o
 441:funsape/globalDefines.hpp ****     // LCD_GENERIC_ERROR_13                                = 0x00CD,   // Generic error (use only o
GAS LISTING C:\Users\kenne\AppData\Local\Temp\ccnxErqW.s 			page 9


 442:funsape/globalDefines.hpp ****     // LCD_GENERIC_ERROR_14                                = 0x00CE,   // Generic error (use only o
 443:funsape/globalDefines.hpp ****     // LCD_GENERIC_ERROR_15                                = 0x00CF,   // Generic error (use only o
 444:funsape/globalDefines.hpp **** 
 445:funsape/globalDefines.hpp ****     // GPIO related error codes
 446:funsape/globalDefines.hpp ****     GPIO_PORT_NOT_SET                                   = 0x00D0,   // Gpio port was not set before
 447:funsape/globalDefines.hpp ****     GPIO_DATA_PORT_NOT_SET                              = 0x00D1,   // Gpio data port was not set b
 448:funsape/globalDefines.hpp ****     GPIO_CONTROL_PORT_NOT_SET                           = 0x00D2,   // Gpio control port was not se
 449:funsape/globalDefines.hpp ****     GPIO_PORT_INVALID                                   = 0x00D3,   // Gpio port address is invalid
 450:funsape/globalDefines.hpp ****     GPIO_DATA_PORT_INVALID                              = 0x00D4,   // Gpio data port address is in
 451:funsape/globalDefines.hpp ****     GPIO_CONTROL_PORT_INVALID                           = 0x00D5,   // Gpio control port address is
 452:funsape/globalDefines.hpp ****     GPIO_PIN_INDEX_INVALID                              = 0x00D6,   // Invalid GPIO Pin
 453:funsape/globalDefines.hpp ****     GPIO_PIN_INDEX_OUT_OF_BOUNDARIES                    = 0x00D7,   // Gpio pin index was out of bo
 454:funsape/globalDefines.hpp ****     // GPIO_NO_PIN_SET                                     = 0x00D8,   // No pin selected at Gpio p
 455:funsape/globalDefines.hpp ****     // GPIO_ADDRESS_INVALID                                = 0x00D9,   // Invalid GPIO Port
 456:funsape/globalDefines.hpp ****     // GPIO_PORT_LOGIC_CONTENTION                          = 0x00DA,   // TODO: Describe parameter
 457:funsape/globalDefines.hpp ****     // GPIO_GENERIC_ERROR_11                               = 0x00DB,   // Generic error (use only o
 458:funsape/globalDefines.hpp ****     // GPIO_GENERIC_ERROR_12                               = 0x00DC,   // Generic error (use only o
 459:funsape/globalDefines.hpp ****     // GPIO_GENERIC_ERROR_13                               = 0x00DD,   // Generic error (use only o
 460:funsape/globalDefines.hpp ****     // GPIO_GENERIC_ERROR_14                               = 0x00DE,   // Generic error (use only o
 461:funsape/globalDefines.hpp ****     // GPIO_GENERIC_ERROR_15                               = 0x00DF,   // Generic error (use only o
 462:funsape/globalDefines.hpp **** 
 463:funsape/globalDefines.hpp ****     // HAL related error codes
 464:funsape/globalDefines.hpp ****     // HAL_UNKNOWN_ERROR                                   = 0x00E0,   // TODO: Describe parameter
 465:funsape/globalDefines.hpp ****     // HAL_STATUS_ERROR                                    = 0x00E1,   // TODO: Describe parameter
 466:funsape/globalDefines.hpp ****     // HAL_STATUS_BUSY                                     = 0x00E2,   // TODO: Describe parameter
 467:funsape/globalDefines.hpp ****     // HAL_STATUS_TIMEOUT                                  = 0x00E3,   // TODO: Describe parameter
 468:funsape/globalDefines.hpp ****     // HAL_GENERIC_ERROR_4                                 = 0x00E4,   // Generic error (use only o
 469:funsape/globalDefines.hpp ****     // HAL_GENERIC_ERROR_5                                 = 0x00E5,   // Generic error (use only o
 470:funsape/globalDefines.hpp ****     // HAL_GENERIC_ERROR_6                                 = 0x00E6,   // Generic error (use only o
 471:funsape/globalDefines.hpp ****     // HAL_GENERIC_ERROR_7                                 = 0x00E7,   // Generic error (use only o
 472:funsape/globalDefines.hpp ****     // HAL_GENERIC_ERROR_8                                 = 0x00E8,   // Generic error (use only o
 473:funsape/globalDefines.hpp ****     // HAL_GENERIC_ERROR_9                                 = 0x00E9,   // Generic error (use only o
 474:funsape/globalDefines.hpp ****     // HAL_GENERIC_ERROR_10                                = 0x00EA,   // Generic error (use only o
 475:funsape/globalDefines.hpp ****     // HAL_GENERIC_ERROR_11                                = 0x00EB,   // Generic error (use only o
 476:funsape/globalDefines.hpp ****     // HAL_GENERIC_ERROR_12                                = 0x00EC,   // Generic error (use only o
 477:funsape/globalDefines.hpp ****     // HAL_GENERIC_ERROR_13                                = 0x00ED,   // Generic error (use only o
 478:funsape/globalDefines.hpp ****     // HAL_GENERIC_ERROR_14                                = 0x00EE,   // Generic error (use only o
 479:funsape/globalDefines.hpp ****     // HAL_GENERIC_ERROR_15                                = 0x00EF,   // Generic error (use only o
 480:funsape/globalDefines.hpp **** 
 481:funsape/globalDefines.hpp ****     // System related error codes
 482:funsape/globalDefines.hpp ****     // SYSTEM_US_TIMER_HANDLER_NULL                        = 0x00F0,   // TODO: Describe parameter
 483:funsape/globalDefines.hpp ****     // SYSTEM_GENERIC_ERROR_1                              = 0x00F1,   // Generic error (use only o
 484:funsape/globalDefines.hpp ****     // SYSTEM_GENERIC_ERROR_2                              = 0x00F2,   // Generic error (use only o
 485:funsape/globalDefines.hpp ****     // SYSTEM_GENERIC_ERROR_3                              = 0x00F3,   // Generic error (use only o
 486:funsape/globalDefines.hpp ****     // SYSTEM_GENERIC_ERROR_4                              = 0x00F4,   // Generic error (use only o
 487:funsape/globalDefines.hpp ****     // SYSTEM_GENERIC_ERROR_5                              = 0x00F5,   // Generic error (use only o
 488:funsape/globalDefines.hpp ****     // SYSTEM_GENERIC_ERROR_6                              = 0x00F6,   // Generic error (use only o
 489:funsape/globalDefines.hpp ****     // SYSTEM_GENERIC_ERROR_7                              = 0x00F7,   // Generic error (use only o
 490:funsape/globalDefines.hpp ****     // SYSTEM_GENERIC_ERROR_8                              = 0x00F8,   // Generic error (use only o
 491:funsape/globalDefines.hpp ****     // SYSTEM_GENERIC_ERROR_9                              = 0x00F9,   // Generic error (use only o
 492:funsape/globalDefines.hpp ****     // SYSTEM_GENERIC_ERROR_10                             = 0x00FA,   // Generic error (use only o
 493:funsape/globalDefines.hpp ****     // SYSTEM_GENERIC_ERROR_11                             = 0x00FB,   // Generic error (use only o
 494:funsape/globalDefines.hpp ****     // SYSTEM_GENERIC_ERROR_12                             = 0x00FC,   // Generic error (use only o
 495:funsape/globalDefines.hpp ****     // SYSTEM_GENERIC_ERROR_13                             = 0x00FD,   // Generic error (use only o
 496:funsape/globalDefines.hpp ****     // SYSTEM_GENERIC_ERROR_14                             = 0x00FE,   // Generic error (use only o
 497:funsape/globalDefines.hpp ****     // SYSTEM_GENERIC_ERROR_15                             = 0x00FF,   // Generic error (use only o
 498:funsape/globalDefines.hpp **** 
GAS LISTING C:\Users\kenne\AppData\Local\Temp\ccnxErqW.s 			page 10


 499:funsape/globalDefines.hpp ****     // FatFs related error codes
 500:funsape/globalDefines.hpp ****     // FAT_FS_UNKNOWN_ERROR                                = 0x0100,   // TODO: Describe parameter
 501:funsape/globalDefines.hpp ****     // FAT_FS_DRIVE_UNSUPPORTED                            = 0x0101,   // TODO: Describe parameter
 502:funsape/globalDefines.hpp ****     // FAT_FS_DISK_NOT_INSERTED                            = 0x0102,   // TODO: Describe parameter
 503:funsape/globalDefines.hpp ****     // FAT_FS_INITIALIZATION_FAILED                        = 0x0103,   // TODO: Describe parameter
 504:funsape/globalDefines.hpp ****     // FAT_FS_GENERIC_ERROR_4                              = 0x0104,   // Generic error (use only o
 505:funsape/globalDefines.hpp ****     // FAT_FS_GENERIC_ERROR_5                              = 0x0105,   // Generic error (use only o
 506:funsape/globalDefines.hpp ****     // FAT_FS_GENERIC_ERROR_6                              = 0x0106,   // Generic error (use only o
 507:funsape/globalDefines.hpp ****     // FAT_FS_GENERIC_ERROR_7                              = 0x0107,   // Generic error (use only o
 508:funsape/globalDefines.hpp ****     // FAT_FS_GENERIC_ERROR_8                              = 0x0108,   // Generic error (use only o
 509:funsape/globalDefines.hpp ****     // FAT_FS_GENERIC_ERROR_9                              = 0x0109,   // Generic error (use only o
 510:funsape/globalDefines.hpp ****     // FAT_FS_GENERIC_ERROR_10                             = 0x010A,   // Generic error (use only o
 511:funsape/globalDefines.hpp ****     // FAT_FS_GENERIC_ERROR_11                             = 0x010B,   // Generic error (use only o
 512:funsape/globalDefines.hpp ****     // FAT_FS_GENERIC_ERROR_12                             = 0x010C,   // Generic error (use only o
 513:funsape/globalDefines.hpp ****     // FAT_FS_GENERIC_ERROR_13                             = 0x010D,   // Generic error (use only o
 514:funsape/globalDefines.hpp ****     // FAT_FS_GENERIC_ERROR_14                             = 0x010E,   // Generic error (use only o
 515:funsape/globalDefines.hpp ****     // FAT_FS_GENERIC_ERROR_15                             = 0x010F,   // Generic error (use only o
 516:funsape/globalDefines.hpp **** 
 517:funsape/globalDefines.hpp ****     // Uncategorized error codes
 518:funsape/globalDefines.hpp ****     // LCD_OUT_OF_BOUNDARIES                               = 0xFFF1,   // TODO: Describe parameter
 519:funsape/globalDefines.hpp ****     // CONTROLLER_NOT_SUPPORTED                            = 0xFFF2,   // Unsupported controller
 520:funsape/globalDefines.hpp ****     // DEVICE_ID_MATCH_FAILED                              = 0xFFF3,   // Device ID doesn't match
 521:funsape/globalDefines.hpp ****     // DMA_NOT_SUPPORTED                                   = 0xFFF4,   // DMA interface mode is not
 522:funsape/globalDefines.hpp ****     // DMA_TRANSFER_ERROR                                  = 0xFFF5,   // DMA transfer error
 523:funsape/globalDefines.hpp ****     // MESSAGE_TOO_LONG                                    = 0xFFF6,   // Message is to long to be 
 524:funsape/globalDefines.hpp ****     // VALID_DATA_NOT_AVAILABLE                            = 0xFFF7,   // Valid data was unavailabl
 525:funsape/globalDefines.hpp ****     // PERIPHERAL_NOT_READY                                = 0xFFF8,   // TODO: Describe parameter
 526:funsape/globalDefines.hpp ****     // STOPWATCH_NOT_STARTED                               = 0xFFF9,   // TODO: Describe parameter
 527:funsape/globalDefines.hpp ****     // UNCATEGORIZED_GENERIC_ERROR_10                      = 0xFFFA,   // Generic error (use only o
 528:funsape/globalDefines.hpp ****     // UNCATEGORIZED_GENERIC_ERROR_11                      = 0xFFFB,   // Generic error (use only o
 529:funsape/globalDefines.hpp ****     // UNCATEGORIZED_GENERIC_ERROR_12                      = 0xFFFC,   // Generic error (use only o
 530:funsape/globalDefines.hpp ****     // UNCATEGORIZED_GENERIC_ERROR_13                      = 0xFFFD,   // Generic error (use only o
 531:funsape/globalDefines.hpp ****     // UNCATEGORIZED_GENERIC_ERROR_14                      = 0xFFFE,   // Generic error (use only o
 532:funsape/globalDefines.hpp **** 
 533:funsape/globalDefines.hpp ****     KEYPAD_COLUMNS_PIN_INDEX_INVALID                    = 0xFFF9,
 534:funsape/globalDefines.hpp ****     KEYPAD_LINES_PIN_INDEX_INVALID                      = 0xFFFA,
 535:funsape/globalDefines.hpp **** 
 536:funsape/globalDefines.hpp ****     KEYPAD_LINES_GPIO_PORT_INVALID                      = 0xFFFB,
 537:funsape/globalDefines.hpp ****     KEYPAD_COLUMNS_GPIO_PORT_INVALID                    = 0xFFFC,
 538:funsape/globalDefines.hpp ****     KEYPAD_TYPE_UNSUPPORTED                             = 0xFFFD,
 539:funsape/globalDefines.hpp ****     KEY_VALUES_NOT_SET                                  = 0xFFFE,
 540:funsape/globalDefines.hpp ****     // "I don't have the slightest idea" error code
 541:funsape/globalDefines.hpp ****     UNKNOWN                                             = 0xFFFF,   // Unknown error - Ops!!!!
 542:funsape/globalDefines.hpp **** };
 543:funsape/globalDefines.hpp **** 
 544:funsape/globalDefines.hpp **** // =============================================================================
 545:funsape/globalDefines.hpp **** // Macrofunctions
 546:funsape/globalDefines.hpp **** // =============================================================================
 547:funsape/globalDefines.hpp **** 
 548:funsape/globalDefines.hpp **** //     //////////////////////     DATA VALIDITY    //////////////////////     //
 549:funsape/globalDefines.hpp **** #define isGpioAddressValid(gpioPort)    (       \
 550:funsape/globalDefines.hpp ****         (IS_GPIO_ALL_INSTANCE(gpioPort))        \
 551:funsape/globalDefines.hpp ****         ? (bool_t)true                          \
 552:funsape/globalDefines.hpp ****         : (bool_t)false)
 553:funsape/globalDefines.hpp **** #define isGpioPinIndexValid(gpioPin)    (       \
 554:funsape/globalDefines.hpp ****         (IS_GPIO_ALL_PIN_NUMBER(gpioPin))       \
 555:funsape/globalDefines.hpp ****         ? (bool_t)true                          \
GAS LISTING C:\Users\kenne\AppData\Local\Temp\ccnxErqW.s 			page 11


 556:funsape/globalDefines.hpp ****         : (bool_t)false)
 557:funsape/globalDefines.hpp **** #define isPointerValid(ptr)             (       \
 558:funsape/globalDefines.hpp ****         ((void *)(ptr))                         \
 559:funsape/globalDefines.hpp ****         ? (bool_t)true                          \
 560:funsape/globalDefines.hpp ****         : (bool_t)false)
 561:funsape/globalDefines.hpp **** 
 562:funsape/globalDefines.hpp **** //     //////////////////////     BIT HANDLING     //////////////////////     //
 563:funsape/globalDefines.hpp **** #ifndef setBit
 564:funsape/globalDefines.hpp **** #   define setBit(reg, bit)                     ((reg) |= (1 << (bit)))
 565:funsape/globalDefines.hpp **** #endif
 566:funsape/globalDefines.hpp **** #ifndef clrBit
 567:funsape/globalDefines.hpp **** #   define clrBit(reg, bit)                     ((reg) &= ~(1 << (bit)))
 568:funsape/globalDefines.hpp **** #endif
 569:funsape/globalDefines.hpp **** #ifndef cplBit
 570:funsape/globalDefines.hpp **** #   define cplBit(reg, bit)                     ((reg) ^= (1 << (bit)))
 571:funsape/globalDefines.hpp **** #endif
 572:funsape/globalDefines.hpp **** 
 573:funsape/globalDefines.hpp **** //     ///////////////////////     BIT TESTING    ///////////////////////     //
 574:funsape/globalDefines.hpp **** #ifndef isBitSet
 575:funsape/globalDefines.hpp **** #   define isBitSet(reg, bit)                   (((reg) >> (bit)) & 1)
 576:funsape/globalDefines.hpp **** #endif
 577:funsape/globalDefines.hpp **** #ifndef isBitClr
 578:funsape/globalDefines.hpp **** #   define isBitClr(reg, bit)                   (!isBitSet(reg,bit))
 579:funsape/globalDefines.hpp **** #endif
 580:funsape/globalDefines.hpp **** 
 581:funsape/globalDefines.hpp **** //     ///////////////////////     BIT LOOPING    ///////////////////////     //
 582:funsape/globalDefines.hpp **** #ifndef waitUntilBitIsSet
 583:funsape/globalDefines.hpp **** #   define waitUntilBitIsSet(reg, bit)          do{     \
 584:funsape/globalDefines.hpp ****         doNothing();                                    \
 585:funsape/globalDefines.hpp ****     } while (isBitClr((reg), (bit)))
 586:funsape/globalDefines.hpp **** #endif
 587:funsape/globalDefines.hpp **** #ifndef waitUntilBitIsClear
 588:funsape/globalDefines.hpp **** #   define waitUntilBitIsClear(reg, bit)        do{     \
 589:funsape/globalDefines.hpp ****         doNothing();                                    \
 590:funsape/globalDefines.hpp ****     }while(isBitSet((reg), (bit)))
 591:funsape/globalDefines.hpp **** #endif
 592:funsape/globalDefines.hpp **** 
 593:funsape/globalDefines.hpp **** //     ////////////////////     BIT MASK HANDLING    ////////////////////     //
 594:funsape/globalDefines.hpp **** #ifndef setMask
 595:funsape/globalDefines.hpp **** #   define setMask(reg, mask)                   ((reg) |= (mask))
 596:funsape/globalDefines.hpp **** #endif
 597:funsape/globalDefines.hpp **** #ifndef clrMask
 598:funsape/globalDefines.hpp **** #   define clrMask(reg, mask)                   ((reg) &= ~(mask))
 599:funsape/globalDefines.hpp **** #endif
 600:funsape/globalDefines.hpp **** #ifndef cplMask
 601:funsape/globalDefines.hpp **** #   define cplMask(reg, mask)                   ((reg) ^= (mask))
 602:funsape/globalDefines.hpp **** #endif
 603:funsape/globalDefines.hpp **** 
 604:funsape/globalDefines.hpp **** //     ////////////////     BIT MASK OFFSET HANDLING     ////////////////     //
 605:funsape/globalDefines.hpp **** #ifndef setMaskOffset
 606:funsape/globalDefines.hpp **** #   define setMaskOffset(reg, mask, offset)     ((reg) |= ((mask) << (offset)))
 607:funsape/globalDefines.hpp **** #endif
 608:funsape/globalDefines.hpp **** #ifndef clrMaskOffset
 609:funsape/globalDefines.hpp **** #   define clrMaskOffset(reg, mask, offset)     ((reg) &= ~((mask) << (offset)))
 610:funsape/globalDefines.hpp **** #endif
 611:funsape/globalDefines.hpp **** #ifndef cplMaskOffset
 612:funsape/globalDefines.hpp **** #   define cplMaskOffset(reg, mask, offset)     ((reg) ^= ((mask) << (offset)))
GAS LISTING C:\Users\kenne\AppData\Local\Temp\ccnxErqW.s 			page 12


 613:funsape/globalDefines.hpp **** #endif
 614:funsape/globalDefines.hpp **** 
 615:funsape/globalDefines.hpp **** //     /////////////     DATA MANIPULATION (8-BITS WIDE)    /////////////     //
 616:funsape/globalDefines.hpp **** #define byteGetNibble1(dataByte)        (((dataByte) >> 4) & 0x0F)
 617:funsape/globalDefines.hpp **** #define byteGetNibble0(dataByte)        ((dataByte) & 0x0F)
 618:funsape/globalDefines.hpp **** #define byteSwitchNibbles(dataByte)     ((byteGetNibble0(dataByte) << 4) | \
 619:funsape/globalDefines.hpp ****         (byteGetNibble1(dataByte)))
 620:funsape/globalDefines.hpp **** 
 621:funsape/globalDefines.hpp **** //     ////////////     DATA MANIPULATION (16-BITS WIDE)     ////////////     //
 622:funsape/globalDefines.hpp **** #define hwordGetByte1(dataHword)        (((dataHword) >> 8) & 0x00FF)
 623:funsape/globalDefines.hpp **** #define hwordGetByte0(dataHword)        ((dataHword) & 0x00FF)
 624:funsape/globalDefines.hpp **** #define hwordSwitchBytes(dataHword)     ((hwordGetByte0(dataHword) << 8) | \
 625:funsape/globalDefines.hpp ****         (hwordGetByte1(dataHword)))
 626:funsape/globalDefines.hpp **** 
 627:funsape/globalDefines.hpp **** //     ////////////     DATA MANIPULATION (32-BITS WIDE)     ////////////     //
 628:funsape/globalDefines.hpp **** #define wordGetByte3(dataWord)          (((dataWord) >> 24) & 0x000000FF)
 629:funsape/globalDefines.hpp **** #define wordGetByte2(dataWord)          (((dataWord) >> 16) & 0x000000FF)
 630:funsape/globalDefines.hpp **** #define wordGetByte1(dataWord)          (((dataWord) >> 8) & 0x000000FF)
 631:funsape/globalDefines.hpp **** #define wordGetByte0(dataWord)          ((dataWord) & 0x000000FF)
 632:funsape/globalDefines.hpp **** #define wordSwitchBytes(dataWord)       ((wordGetByte0(dataWord) << 24)  | \
 633:funsape/globalDefines.hpp ****         (wordGetByte1(dataWord) << 16) | \
 634:funsape/globalDefines.hpp ****         (wordGetByte2(dataWord) << 8)  | \
 635:funsape/globalDefines.hpp ****         (wordGetByte3(dataWord)))
 636:funsape/globalDefines.hpp **** #define wordGetHword1(dataWord)         (((dataWord) >> 16) & 0x0000FFFF)
 637:funsape/globalDefines.hpp **** #define wordGetHword0(dataWord)         ((dataWord) & 0x0000FFFF)
 638:funsape/globalDefines.hpp **** #define wordSwitchHwords(dataWord)      ((wordGetHword0(dataWord) << 16) | \
 639:funsape/globalDefines.hpp ****         (wordGetHword1(dataWord)))
 640:funsape/globalDefines.hpp **** 
 641:funsape/globalDefines.hpp **** //     ////////////     DATA MANIPULATION (64-BITS WIDE)     ////////////     //
 642:funsape/globalDefines.hpp **** #define dwordGetByte7(dataDword)        (((dataDword) >> 56) & 0x00000000000000FF)
 643:funsape/globalDefines.hpp **** #define dwordGetByte6(dataDword)        (((dataDword) >> 48) & 0x00000000000000FF)
 644:funsape/globalDefines.hpp **** #define dwordGetByte5(dataDword)        (((dataDword) >> 40) & 0x00000000000000FF)
 645:funsape/globalDefines.hpp **** #define dwordGetByte4(dataDword)        (((dataDword) >> 32) & 0x00000000000000FF)
 646:funsape/globalDefines.hpp **** #define dwordGetByte3(dataDword)        (((dataDword) >> 24) & 0x00000000000000FF)
 647:funsape/globalDefines.hpp **** #define dwordGetByte2(dataDword)        (((dataDword) >> 16) & 0x00000000000000FF)
 648:funsape/globalDefines.hpp **** #define dwordGetByte1(dataDword)        (((dataDword) >> 8) & 0x00000000000000FF)
 649:funsape/globalDefines.hpp **** #define dwordGetByte0(dataDword)        ((dataDword) & 0x00000000000000FF)
 650:funsape/globalDefines.hpp **** #define dwordSwitchBytes(dataDword)     ((dwordGetByte0(dataDword) << 56)  | \
 651:funsape/globalDefines.hpp ****         (dwordGetByte1(dataDword) << 48) | \
 652:funsape/globalDefines.hpp ****         (dwordGetByte2(dataDword) << 40) | \
 653:funsape/globalDefines.hpp ****         (dwordGetByte3(dataDword) << 32) | \
 654:funsape/globalDefines.hpp ****         (dwordGetByte4(dataDword) << 24) | \
 655:funsape/globalDefines.hpp ****         (dwordGetByte5(dataDword) << 16) | \
 656:funsape/globalDefines.hpp ****         (dwordGetByte6(dataDword) << 8)  | \
 657:funsape/globalDefines.hpp ****         (dwordGetByte7(dataDword)))
 658:funsape/globalDefines.hpp **** #define dwordGetHword3(dataDword)       ((dataDword >> 48) & 0x000000000000FFFF)
 659:funsape/globalDefines.hpp **** #define dwordGetHword2(dataDword)       ((dataDword >> 32) & 0x000000000000FFFF)
 660:funsape/globalDefines.hpp **** #define dwordGetHword1(dataDword)       ((dataDword >> 16) & 0x000000000000FFFF)
 661:funsape/globalDefines.hpp **** #define dwordGetHword0(dataDword)       ((dataDword >> 0) & 0x000000000000FFFF)
 662:funsape/globalDefines.hpp **** #define dwordSwitchHwords(dataDword)    ((dwordGetHword0(dataDword) << 48)  | \
 663:funsape/globalDefines.hpp ****         (dwordGetHword1(dataDword) << 32) | \
 664:funsape/globalDefines.hpp ****         (dwordGetHword2(dataDword) << 16) | \
 665:funsape/globalDefines.hpp ****         (dwordGetHword3(dataDword)))
 666:funsape/globalDefines.hpp **** #define dwordGetWord1(dataDword)         (((dataDword) >> 32) & 0x00000000FFFFFFFF)
 667:funsape/globalDefines.hpp **** #define dwordGetWord0(dataDword)         ((dataDword) & 0x00000000FFFFFFFF)
 668:funsape/globalDefines.hpp **** #define dwordSwitchWords(dataDword)     ((dwordGetWord0(dataDword) << 32)  | \
 669:funsape/globalDefines.hpp ****         (dwordGetWord1(dataDword)))
GAS LISTING C:\Users\kenne\AppData\Local\Temp\ccnxErqW.s 			page 13


 670:funsape/globalDefines.hpp **** 
 671:funsape/globalDefines.hpp **** //     /////////////////////     TRUNCATE VALUES    /////////////////////     //
 672:funsape/globalDefines.hpp **** #define getMaximumOf(var1, var2)        (       \
 673:funsape/globalDefines.hpp ****         ((var1) > (var2))                       \
 674:funsape/globalDefines.hpp ****         ? (var1)                                \
 675:funsape/globalDefines.hpp ****         : (var2))
 676:funsape/globalDefines.hpp **** #define getMinimumOf(var1, var2)        (       \
 677:funsape/globalDefines.hpp ****         ((var1) < (var2))                       \
 678:funsape/globalDefines.hpp ****         ? (var1)                                \
 679:funsape/globalDefines.hpp ****         : (var2))
 680:funsape/globalDefines.hpp **** #define truncateBetween(var, min, max)  (       \
 681:funsape/globalDefines.hpp ****         ((var) < (min))                         \
 682:funsape/globalDefines.hpp ****         ? (min)                                 \
 683:funsape/globalDefines.hpp ****         : (((var) > (max))                      \
 684:funsape/globalDefines.hpp ****                 ? (max)                         \
 685:funsape/globalDefines.hpp ****                 : (var)                         \
 686:funsape/globalDefines.hpp ****         ))
 687:funsape/globalDefines.hpp **** 
 688:funsape/globalDefines.hpp **** //     //////////////////////     STRINGIFYING    ///////////////////////     //
 689:funsape/globalDefines.hpp **** #define stringifyName(constant)         #constant
 690:funsape/globalDefines.hpp **** #define stringifyValue(constant)        stringifyName(constant)
 691:funsape/globalDefines.hpp **** 
 692:funsape/globalDefines.hpp **** // =============================================================================
 693:funsape/globalDefines.hpp **** // Extern global variables
 694:funsape/globalDefines.hpp **** // =============================================================================
 695:funsape/globalDefines.hpp **** 
 696:funsape/globalDefines.hpp **** // NONE
 697:funsape/globalDefines.hpp **** 
 698:funsape/globalDefines.hpp **** // =============================================================================
 699:funsape/globalDefines.hpp **** // Inline functions declaration
 700:funsape/globalDefines.hpp **** // =============================================================================
 701:funsape/globalDefines.hpp **** 
 702:funsape/globalDefines.hpp **** //     ///////////////////     CHARACTER HANDLING    ////////////////////     //
 703:funsape/globalDefines.hpp **** char_t inlined toLowerCase(cchar_t character_p);
 704:funsape/globalDefines.hpp **** char_t inlined toUpperCase(cchar_t character_p);
 705:funsape/globalDefines.hpp **** 
 706:funsape/globalDefines.hpp **** //     /////////////////////     DATA VALIDITY     //////////////////////     //
 707:funsape/globalDefines.hpp **** bool_t inlined isAsciiLowerCaseLetter(cchar_t character_p);
 708:funsape/globalDefines.hpp **** bool_t inlined isAsciiUpperCaseLetter(cchar_t character_p);
 709:funsape/globalDefines.hpp **** bool_t inlined isAsciiCommand(cchar_t character_p);
 710:funsape/globalDefines.hpp **** bool_t inlined isAsciiLetter(cchar_t character_p);
 711:funsape/globalDefines.hpp **** bool_t inlined isAsciiNumber(cchar_t character_p);
 712:funsape/globalDefines.hpp **** bool_t inlined isAsciiSymbol(cchar_t character_p);
 713:funsape/globalDefines.hpp **** 
 714:funsape/globalDefines.hpp **** //     /////////////////////     SYSTEM ACTIONS    //////////////////////     //
 715:funsape/globalDefines.hpp **** void inlined die(Error errorCode_p);
 716:funsape/globalDefines.hpp **** void inlined doNop(void);
 717:funsape/globalDefines.hpp **** void inlined doNothing(void);
 718:funsape/globalDefines.hpp **** void inlined systemHalt(void (*function_p)(void) = nullptr);
 719:funsape/globalDefines.hpp **** 
 720:funsape/globalDefines.hpp **** // =============================================================================
 721:funsape/globalDefines.hpp **** // Inline functions definitions
 722:funsape/globalDefines.hpp **** // =============================================================================
 723:funsape/globalDefines.hpp **** 
 724:funsape/globalDefines.hpp **** //     ///////////////////     CHARACTER HANDLING    ////////////////////     //
 725:funsape/globalDefines.hpp **** char_t inlined toLowerCase(cchar_t character_p)
 726:funsape/globalDefines.hpp **** {
GAS LISTING C:\Users\kenne\AppData\Local\Temp\ccnxErqW.s 			page 14


 727:funsape/globalDefines.hpp ****     return ((isAsciiUpperCaseLetter(character_p)) ? (character_p + 0x20) : character_p);
 728:funsape/globalDefines.hpp **** }
 729:funsape/globalDefines.hpp **** 
 730:funsape/globalDefines.hpp **** char_t inlined toUpperCase(cchar_t character_p)
 731:funsape/globalDefines.hpp **** {
 732:funsape/globalDefines.hpp ****     return ((isAsciiLowerCaseLetter(character_p)) ? (character_p - 0x20) : character_p);
 733:funsape/globalDefines.hpp **** }
 734:funsape/globalDefines.hpp **** 
 735:funsape/globalDefines.hpp **** //     /////////////////////     DATA VALIDITY     //////////////////////     //
 736:funsape/globalDefines.hpp **** bool_t inlined isAsciiLowerCaseLetter(cchar_t character_p)
 737:funsape/globalDefines.hpp **** {
 738:funsape/globalDefines.hpp ****     return ((bool_t)(((character_p >= 'a') && (character_p <= 'z')) ? true : false));
 739:funsape/globalDefines.hpp **** }
 740:funsape/globalDefines.hpp **** 
 741:funsape/globalDefines.hpp **** bool_t inlined isAsciiUpperCaseLetter(cchar_t character_p)
 742:funsape/globalDefines.hpp **** {
 743:funsape/globalDefines.hpp ****     return ((bool_t)(((character_p >= 'A') && (character_p <= 'Z')) ? true : false));
 744:funsape/globalDefines.hpp **** }
 745:funsape/globalDefines.hpp **** 
 746:funsape/globalDefines.hpp **** bool_t inlined isAsciiCommand(cchar_t character_p)
 747:funsape/globalDefines.hpp **** {
 748:funsape/globalDefines.hpp ****     return ((bool_t)((character_p < ' ') ? true : false));
 749:funsape/globalDefines.hpp **** }
 750:funsape/globalDefines.hpp **** 
 751:funsape/globalDefines.hpp **** bool_t inlined isAsciiLetter(cchar_t character_p)
 752:funsape/globalDefines.hpp **** {
 753:funsape/globalDefines.hpp ****     return ((bool_t)((isAsciiLowerCaseLetter(character_p) || (isAsciiUpperCaseLetter(character_p)) 
 754:funsape/globalDefines.hpp **** }
 755:funsape/globalDefines.hpp **** 
 756:funsape/globalDefines.hpp **** bool_t inlined isAsciiNumber(cchar_t character_p)
 757:funsape/globalDefines.hpp **** {
 758:funsape/globalDefines.hpp ****     return ((bool_t)(((character_p >= '0') && (character_p <= '9')) ? true : false));
 759:funsape/globalDefines.hpp **** }
 760:funsape/globalDefines.hpp **** 
 761:funsape/globalDefines.hpp **** bool_t inlined isAsciiSymbol(cchar_t character_p)
 762:funsape/globalDefines.hpp **** {
 763:funsape/globalDefines.hpp ****     return ((bool_t)(((!isAsciiNumber(character_p)) && (!isAsciiCommand(character_p)) &&
 764:funsape/globalDefines.hpp ****                                     (!isAsciiLetter(character_p))) ? true : false));
 765:funsape/globalDefines.hpp **** }
 766:funsape/globalDefines.hpp **** 
 767:funsape/globalDefines.hpp **** //     /////////////////////     SYSTEM ACTIONS    //////////////////////     //
 768:funsape/globalDefines.hpp **** void inlined die(Error errorCode_p)
 769:funsape/globalDefines.hpp **** {
 770:funsape/globalDefines.hpp ****     printf("Failed with error=%u (0x%04x).\r", (cuint16_t)errorCode_p, (cuint16_t)errorCode_p);
 771:funsape/globalDefines.hpp ****     systemHalt();
 772:funsape/globalDefines.hpp **** 
 773:funsape/globalDefines.hpp ****     return;
 774:funsape/globalDefines.hpp **** }
 775:funsape/globalDefines.hpp **** 
 776:funsape/globalDefines.hpp **** void inlined doNop(void)
 777:funsape/globalDefines.hpp **** {
 778:funsape/globalDefines.hpp ****     asm volatile("nop");
 779:funsape/globalDefines.hpp **** 
 780:funsape/globalDefines.hpp ****     return;
 781:funsape/globalDefines.hpp **** }
 782:funsape/globalDefines.hpp **** 
 783:funsape/globalDefines.hpp **** void inlined doNothing(void)
GAS LISTING C:\Users\kenne\AppData\Local\Temp\ccnxErqW.s 			page 15


 784:funsape/globalDefines.hpp **** {
 785:funsape/globalDefines.hpp ****     return;
 786:funsape/globalDefines.hpp **** }
 787:funsape/globalDefines.hpp **** 
 788:funsape/globalDefines.hpp **** void inlined systemHalt(void (*function_p)(void))
 789:funsape/globalDefines.hpp **** {
 790:funsape/globalDefines.hpp ****     if(isPointerValid(function_p)) {
 791:funsape/globalDefines.hpp ****         function_p();
 792:funsape/globalDefines.hpp ****     }
 793:funsape/globalDefines.hpp ****     while(1) {
 794:funsape/globalDefines.hpp ****         doNothing();
 795:funsape/globalDefines.hpp ****     }
 796:funsape/globalDefines.hpp **** 
 797:funsape/globalDefines.hpp ****     return;
 798:funsape/globalDefines.hpp **** }
 799:funsape/globalDefines.hpp **** 
 800:funsape/globalDefines.hpp **** // =============================================================================
 801:funsape/globalDefines.hpp **** // Public functions weakly defined
 802:funsape/globalDefines.hpp **** // =============================================================================
 803:funsape/globalDefines.hpp **** 
 804:funsape/globalDefines.hpp **** #define delayMs(time_p)                 _delay_ms(time_p)
 805:funsape/globalDefines.hpp **** #define delayUs(time_p)                 _delay_us(time_p)
 806:funsape/globalDefines.hpp **** 
 807:funsape/globalDefines.hpp **** weakened uint32_t getTick(void)
 808:funsape/globalDefines.hpp **** {
  17               		.loc 1 808 1 view -0
  18               		.cfi_startproc
  19               	/* prologue: function */
  20               	/* frame size = 0 */
  21               	/* stack size = 0 */
  22               	.L__stack_usage = 0
 809:funsape/globalDefines.hpp ****     // TODO
 810:funsape/globalDefines.hpp ****     return 0;
  23               		.loc 1 810 5 view .LVU1
 811:funsape/globalDefines.hpp **** }
  24               		.loc 1 811 1 is_stmt 0 view .LVU2
  25 0000 60E0      		ldi r22,0
  26 0002 70E0      		ldi r23,0
  27 0004 CB01      		movw r24,r22
  28               	/* epilogue start */
  29 0006 0895      		ret
  30               		.cfi_endproc
  31               	.LFE32:
  33               		.section	.text._ZN27Adafruit_Fingerprint_PacketC2EhjPh,"axG",@progbits,_ZN27Adafruit_Fingerprint_P
  34               		.weak	_ZN27Adafruit_Fingerprint_PacketC2EhjPh
  36               	_ZN27Adafruit_Fingerprint_PacketC2EhjPh:
  37               	.LVL0:
  38               	.LFB55:
  39               		.file 2 "Adafruit_Fingerprint.h"
   1:Adafruit_Fingerprint.h **** #ifndef ADAFRUIT_FINGERPRINT_H
   2:Adafruit_Fingerprint.h **** #define ADAFRUIT_FINGERPRINT_H
   3:Adafruit_Fingerprint.h **** #endif
   4:Adafruit_Fingerprint.h **** 
   5:Adafruit_Fingerprint.h **** #include "funsape/globalDefines.hpp"
   6:Adafruit_Fingerprint.h **** #include "funsape/peripheral/usart0.hpp"
   7:Adafruit_Fingerprint.h **** 
   8:Adafruit_Fingerprint.h **** /*!
GAS LISTING C:\Users\kenne\AppData\Local\Temp\ccnxErqW.s 			page 16


   9:Adafruit_Fingerprint.h ****  * @file Adafruit_Fingerprint.h
  10:Adafruit_Fingerprint.h ****  */
  11:Adafruit_Fingerprint.h **** 
  12:Adafruit_Fingerprint.h **** #define FINGERPRINT_OK 0x00               //!< Command execution is complete
  13:Adafruit_Fingerprint.h **** #define FINGERPRINT_PACKETRECIEVEERR 0x01 //!< Error when receiving data package
  14:Adafruit_Fingerprint.h **** #define FINGERPRINT_NOFINGER 0x02         //!< No finger on the sensor
  15:Adafruit_Fingerprint.h **** #define FINGERPRINT_IMAGEFAIL 0x03        //!< Failed to enroll the finger
  16:Adafruit_Fingerprint.h **** #define FINGERPRINT_IMAGEMESS                                                  \
  17:Adafruit_Fingerprint.h ****   0x06 //!< Failed to generate character file due to overly disorderly
  18:Adafruit_Fingerprint.h ****        //!< fingerprint image
  19:Adafruit_Fingerprint.h **** #define FINGERPRINT_FEATUREFAIL                                                \
  20:Adafruit_Fingerprint.h ****   0x07 //!< Failed to generate character file due to the lack of character point
  21:Adafruit_Fingerprint.h ****        //!< or small fingerprint image
  22:Adafruit_Fingerprint.h **** #define FINGERPRINT_NOMATCH 0x08  //!< Finger doesn't match
  23:Adafruit_Fingerprint.h **** #define FINGERPRINT_NOTFOUND 0x09 //!< Failed to find matching finger
  24:Adafruit_Fingerprint.h **** #define FINGERPRINT_ENROLLMISMATCH                                             \
  25:Adafruit_Fingerprint.h ****   0x0A //!< Failed to combine the character files
  26:Adafruit_Fingerprint.h **** #define FINGERPRINT_BADLOCATION                                                \
  27:Adafruit_Fingerprint.h ****   0x0B //!< Addressed PageID is beyond the finger library
  28:Adafruit_Fingerprint.h **** #define FINGERPRINT_DBRANGEFAIL                                                \
  29:Adafruit_Fingerprint.h ****   0x0C //!< Error when reading template from library or invalid template
  30:Adafruit_Fingerprint.h **** #define FINGERPRINT_UPLOADFEATUREFAIL 0x0D //!< Error when uploading template
  31:Adafruit_Fingerprint.h **** #define FINGERPRINT_PACKETRESPONSEFAIL                                         \
  32:Adafruit_Fingerprint.h ****   0x0E //!< Module failed to receive the following data packages
  33:Adafruit_Fingerprint.h **** #define FINGERPRINT_UPLOADFAIL 0x0F  //!< Error when uploading image
  34:Adafruit_Fingerprint.h **** #define FINGERPRINT_DELETEFAIL 0x10  //!< Failed to delete the template
  35:Adafruit_Fingerprint.h **** #define FINGERPRINT_DBCLEARFAIL 0x11 //!< Failed to clear finger library
  36:Adafruit_Fingerprint.h **** #define FINGERPRINT_PASSFAIL                                                   \
  37:Adafruit_Fingerprint.h ****   0x13 //!< Find whether the fingerprint passed or failed
  38:Adafruit_Fingerprint.h **** #define FINGERPRINT_INVALIDIMAGE                                               \
  39:Adafruit_Fingerprint.h ****   0x15 //!< Failed to generate image because of lac of valid primary image
  40:Adafruit_Fingerprint.h **** #define FINGERPRINT_FLASHERR 0x18   //!< Error when writing flash
  41:Adafruit_Fingerprint.h **** #define FINGERPRINT_INVALIDREG 0x1A //!< Invalid register number
  42:Adafruit_Fingerprint.h **** #define FINGERPRINT_ADDRCODE 0x20   //!< Address code
  43:Adafruit_Fingerprint.h **** #define FINGERPRINT_PASSVERIFY 0x21 //!< Verify the fingerprint passed
  44:Adafruit_Fingerprint.h **** #define FINGERPRINT_STARTCODE                                                  \
  45:Adafruit_Fingerprint.h ****   0xEF01 //!< Fixed falue of EF01H; High byte transferred first
  46:Adafruit_Fingerprint.h **** 
  47:Adafruit_Fingerprint.h **** #define FINGERPRINT_COMMANDPACKET 0x1 //!< Command packet
  48:Adafruit_Fingerprint.h **** #define FINGERPRINT_DATAPACKET                                                 \
  49:Adafruit_Fingerprint.h ****   0x2 //!< Data packet, must follow command packet or acknowledge packet
  50:Adafruit_Fingerprint.h **** #define FINGERPRINT_ACKPACKET 0x7     //!< Acknowledge packet
  51:Adafruit_Fingerprint.h **** #define FINGERPRINT_ENDDATAPACKET 0x8 //!< End of data packet
  52:Adafruit_Fingerprint.h **** 
  53:Adafruit_Fingerprint.h **** #define FINGERPRINT_TIMEOUT 0xFF   //!< Timeout was reached
  54:Adafruit_Fingerprint.h **** #define FINGERPRINT_BADPACKET 0xFE //!< Bad packet was sent
  55:Adafruit_Fingerprint.h **** 
  56:Adafruit_Fingerprint.h **** #define FINGERPRINT_GETIMAGE 0x01 //!< Collect finger image
  57:Adafruit_Fingerprint.h **** #define FINGERPRINT_IMAGE2TZ 0x02 //!< Generate character file from image
  58:Adafruit_Fingerprint.h **** #define FINGERPRINT_SEARCH 0x04   //!< Search for fingerprint in slot
  59:Adafruit_Fingerprint.h **** #define FINGERPRINT_REGMODEL                                                   \
  60:Adafruit_Fingerprint.h ****   0x05 //!< Combine character files and generate template
  61:Adafruit_Fingerprint.h **** #define FINGERPRINT_STORE 0x06          //!< Store template
  62:Adafruit_Fingerprint.h **** #define FINGERPRINT_LOAD 0x07           //!< Read/load template
  63:Adafruit_Fingerprint.h **** #define FINGERPRINT_UPLOAD 0x08         //!< Upload template
  64:Adafruit_Fingerprint.h **** #define FINGERPRINT_DELETE 0x0C         //!< Delete templates
  65:Adafruit_Fingerprint.h **** #define FINGERPRINT_EMPTY 0x0D          //!< Empty library
GAS LISTING C:\Users\kenne\AppData\Local\Temp\ccnxErqW.s 			page 17


  66:Adafruit_Fingerprint.h **** #define FINGERPRINT_READSYSPARAM 0x0F   //!< Read system parameters
  67:Adafruit_Fingerprint.h **** #define FINGERPRINT_SETPASSWORD 0x12    //!< Sets passwords
  68:Adafruit_Fingerprint.h **** #define FINGERPRINT_VERIFYPASSWORD 0x13 //!< Verifies the password
  69:Adafruit_Fingerprint.h **** #define FINGERPRINT_HISPEEDSEARCH                                              \
  70:Adafruit_Fingerprint.h ****   0x1B //!< Asks the sensor to search for a matching fingerprint template to the
  71:Adafruit_Fingerprint.h ****        //!< last model generated
  72:Adafruit_Fingerprint.h **** #define FINGERPRINT_TEMPLATECOUNT 0x1D //!< Read finger template numbers
  73:Adafruit_Fingerprint.h **** #define FINGERPRINT_AURALEDCONFIG 0x35 //!< Aura LED control
  74:Adafruit_Fingerprint.h **** #define FINGERPRINT_LEDON 0x50         //!< Turn on the onboard LED
  75:Adafruit_Fingerprint.h **** #define FINGERPRINT_LEDOFF 0x51        //!< Turn off the onboard LED
  76:Adafruit_Fingerprint.h **** 
  77:Adafruit_Fingerprint.h **** #define FINGERPRINT_LED_BREATHING 0x01   //!< Breathing light
  78:Adafruit_Fingerprint.h **** #define FINGERPRINT_LED_FLASHING 0x02    //!< Flashing light
  79:Adafruit_Fingerprint.h **** #define FINGERPRINT_LED_ON 0x03          //!< Always on
  80:Adafruit_Fingerprint.h **** #define FINGERPRINT_LED_OFF 0x04         //!< Always off
  81:Adafruit_Fingerprint.h **** #define FINGERPRINT_LED_GRADUAL_ON 0x05  //!< Gradually on
  82:Adafruit_Fingerprint.h **** #define FINGERPRINT_LED_GRADUAL_OFF 0x06 //!< Gradually off
  83:Adafruit_Fingerprint.h **** #define FINGERPRINT_LED_RED 0x01         //!< Red LED
  84:Adafruit_Fingerprint.h **** #define FINGERPRINT_LED_BLUE 0x02        //!< Blue LED
  85:Adafruit_Fingerprint.h **** #define FINGERPRINT_LED_PURPLE 0x03      //!< Purple LEDpassword
  86:Adafruit_Fingerprint.h **** 
  87:Adafruit_Fingerprint.h **** #define FINGERPRINT_REG_ADDR_ERROR 0x1A //!< shows register address error
  88:Adafruit_Fingerprint.h **** #define FINGERPRINT_WRITE_REG 0x0E      //!< Write system register instruction
  89:Adafruit_Fingerprint.h **** 
  90:Adafruit_Fingerprint.h **** #define FINGERPRINT_BAUD_REG_ADDR 0x4   //!< BAUDRATE register address
  91:Adafruit_Fingerprint.h **** #define FINGERPRINT_BAUDRATE_9600 0x1   //!< UART baud 9600
  92:Adafruit_Fingerprint.h **** #define FINGERPRINT_BAUDRATE_19200 0x2  //!< UART baud 19200
  93:Adafruit_Fingerprint.h **** #define FINGERPRINT_BAUDRATE_28800 0x3  //!< UART baud 28800
  94:Adafruit_Fingerprint.h **** #define FINGERPRINT_BAUDRATE_38400 0x4  //!< UART baud 38400
  95:Adafruit_Fingerprint.h **** #define FINGERPRINT_BAUDRATE_48000 0x5  //!< UART baud 48000
  96:Adafruit_Fingerprint.h **** #define FINGERPRINT_BAUDRATE_57600 0x6  //!< UART baud 57600
  97:Adafruit_Fingerprint.h **** #define FINGERPRINT_BAUDRATE_67200 0x7  //!< UART baud 67200
  98:Adafruit_Fingerprint.h **** #define FINGERPRINT_BAUDRATE_76800 0x8  //!< UART baud 76800
  99:Adafruit_Fingerprint.h **** #define FINGERPRINT_BAUDRATE_86400 0x9  //!< UART baud 86400
 100:Adafruit_Fingerprint.h **** #define FINGERPRINT_BAUDRATE_96000 0xA  //!< UART baud 96000
 101:Adafruit_Fingerprint.h **** #define FINGERPRINT_BAUDRATE_105600 0xB //!< UART baud 105600
 102:Adafruit_Fingerprint.h **** #define FINGERPRINT_BAUDRATE_115200 0xC //!< UART baud 115200
 103:Adafruit_Fingerprint.h **** 
 104:Adafruit_Fingerprint.h **** #define FINGERPRINT_SECURITY_REG_ADDR 0x5 //!< Security level register address
 105:Adafruit_Fingerprint.h **** // The safety level is 1 The highest rate of false recognition , The rejection
 106:Adafruit_Fingerprint.h **** // rate is the lowest . The safety level is 5 The lowest tate of false
 107:Adafruit_Fingerprint.h **** // recognition, The rejection rate is the highest .
 108:Adafruit_Fingerprint.h **** #define FINGERPRINT_SECURITY_LEVEL_1 0X1 //!< Security level 1
 109:Adafruit_Fingerprint.h **** #define FINGERPRINT_SECURITY_LEVEL_2 0X2 //!< Security level 2
 110:Adafruit_Fingerprint.h **** #define FINGERPRINT_SECURITY_LEVEL_3 0X3 //!< Security level 3
 111:Adafruit_Fingerprint.h **** #define FINGERPRINT_SECURITY_LEVEL_4 0X4 //!< Security level 4
 112:Adafruit_Fingerprint.h **** #define FINGERPRINT_SECURITY_LEVEL_5 0X5 //!< Security level 5
 113:Adafruit_Fingerprint.h **** 
 114:Adafruit_Fingerprint.h **** #define FINGERPRINT_PACKET_REG_ADDR 0x6 //!< Packet size register address
 115:Adafruit_Fingerprint.h **** #define FINGERPRINT_PACKET_SIZE_32 0X0  //!< Packet size is 32 Byte
 116:Adafruit_Fingerprint.h **** #define FINGERPRINT_PACKET_SIZE_64 0X1  //!< Packet size is 64 Byte
 117:Adafruit_Fingerprint.h **** #define FINGERPRINT_PACKET_SIZE_128 0X2 //!< Packet size is 128 Byte
 118:Adafruit_Fingerprint.h **** #define FINGERPRINT_PACKET_SIZE_256 0X3 //!< Packet size is 256 Byte
 119:Adafruit_Fingerprint.h **** 
 120:Adafruit_Fingerprint.h **** //#define FINGERPRINT_DEBUG
 121:Adafruit_Fingerprint.h **** 
 122:Adafruit_Fingerprint.h **** #define DEFAULTTIMEOUT 1000 //!< UART reading timeout in milliseconds
GAS LISTING C:\Users\kenne\AppData\Local\Temp\ccnxErqW.s 			page 18


 123:Adafruit_Fingerprint.h **** 
 124:Adafruit_Fingerprint.h **** ///! Helper class to craft UART packets
 125:Adafruit_Fingerprint.h **** struct Adafruit_Fingerprint_Packet {
 126:Adafruit_Fingerprint.h **** 
 127:Adafruit_Fingerprint.h ****   /**************************************************************************/
 128:Adafruit_Fingerprint.h ****   /*!
 129:Adafruit_Fingerprint.h ****       @brief   Create a new UART-borne packet
 130:Adafruit_Fingerprint.h ****       @param   type Command, data, ack type packet
 131:Adafruit_Fingerprint.h ****       @param   length Size of payload
 132:Adafruit_Fingerprint.h ****       @param   data Pointer to bytes of size length we will memcopy into the
 133:Adafruit_Fingerprint.h ****      internal buffer
 134:Adafruit_Fingerprint.h ****   */
 135:Adafruit_Fingerprint.h ****   /**************************************************************************/
 136:Adafruit_Fingerprint.h **** 
 137:Adafruit_Fingerprint.h ****   Adafruit_Fingerprint_Packet(uint8_t type, uint16_t length, uint8_t *data) {
  40               		.loc 2 137 3 is_stmt 1 view -0
  41               		.cfi_startproc
  42               	/* prologue: function */
  43               	/* frame size = 0 */
  44               	/* stack size = 0 */
  45               	.L__stack_usage = 0
  46               		.loc 2 137 3 is_stmt 0 view .LVU4
  47 0000 A82F      		mov r26,r24
  48 0002 B92F      		mov r27,r25
  49 0004 842F      		mov r24,r20
  50               	.LVL1:
  51               		.loc 2 137 3 view .LVU5
  52 0006 952F      		mov r25,r21
  53 0008 E22F      		mov r30,r18
  54 000a 732F      		mov r23,r19
  55               	.LBB6:
 138:Adafruit_Fingerprint.h ****     this->start_code = FINGERPRINT_STARTCODE;
  56               		.loc 2 138 5 is_stmt 1 view .LVU6
  57               		.loc 2 138 22 is_stmt 0 view .LVU7
  58 000c 21E0      		ldi r18,lo8(1)
  59 000e 3FEE      		ldi r19,lo8(-17)
  60               	.LVL2:
  61               		.loc 2 138 22 view .LVU8
  62 0010 1196      		adiw r26,1
  63 0012 3C93      		st X,r19
  64 0014 2E93      		st -X,r18
 139:Adafruit_Fingerprint.h ****     this->type = type;
  65               		.loc 2 139 5 is_stmt 1 view .LVU9
  66               		.loc 2 139 16 is_stmt 0 view .LVU10
  67 0016 1696      		adiw r26,6
  68 0018 6C93      		st X,r22
  69 001a 1697      		sbiw r26,6
 140:Adafruit_Fingerprint.h ****     this->length = length;
  70               		.loc 2 140 5 is_stmt 1 view .LVU11
  71               		.loc 2 140 18 is_stmt 0 view .LVU12
  72 001c 1896      		adiw r26,7+1
  73 001e 9C93      		st X,r25
  74 0020 8E93      		st -X,r24
  75 0022 1797      		sbiw r26,7
 141:Adafruit_Fingerprint.h ****     address[0] = 0xFF;
  76               		.loc 2 141 5 is_stmt 1 view .LVU13
  77               		.loc 2 141 16 is_stmt 0 view .LVU14
GAS LISTING C:\Users\kenne\AppData\Local\Temp\ccnxErqW.s 			page 19


  78 0024 4FEF      		ldi r20,lo8(-1)
  79               	.LVL3:
  80               		.loc 2 141 16 view .LVU15
  81 0026 1296      		adiw r26,2
  82 0028 4C93      		st X,r20
  83 002a 1297      		sbiw r26,2
 142:Adafruit_Fingerprint.h ****     address[1] = 0xFF;
  84               		.loc 2 142 5 is_stmt 1 view .LVU16
  85               		.loc 2 142 16 is_stmt 0 view .LVU17
  86 002c 1396      		adiw r26,3
  87 002e 4C93      		st X,r20
  88 0030 1397      		sbiw r26,3
 143:Adafruit_Fingerprint.h ****     address[2] = 0xFF;
  89               		.loc 2 143 5 is_stmt 1 view .LVU18
  90               		.loc 2 143 16 is_stmt 0 view .LVU19
  91 0032 1496      		adiw r26,4
  92 0034 4C93      		st X,r20
  93 0036 1497      		sbiw r26,4
 144:Adafruit_Fingerprint.h ****     address[3] = 0xFF;
  94               		.loc 2 144 5 is_stmt 1 view .LVU20
  95               		.loc 2 144 16 is_stmt 0 view .LVU21
  96 0038 1596      		adiw r26,5
  97 003a 4C93      		st X,r20
  98 003c 1597      		sbiw r26,5
 145:Adafruit_Fingerprint.h ****     if (length < 64)
  99               		.loc 2 145 5 is_stmt 1 view .LVU22
 100 003e 8034      		cpi r24,64
 101 0040 9105      		cpc r25,__zero_reg__
 102 0042 00F4      		brsh .L3
 146:Adafruit_Fingerprint.h ****       memcpy(this->data, data, length);
 103               		.loc 2 146 7 view .LVU23
 104               		.loc 2 146 13 is_stmt 0 view .LVU24
 105 0044 AC01      		movw r20,r24
 106 0046 6E2F      		mov r22,r30
 107               	.LVL4:
 108               		.loc 2 146 13 view .LVU25
 109 0048 CD01      		movw r24,r26
 110 004a 0996      		adiw r24,9
 111 004c 0E94 0000 		call memcpy
 112               	.LVL5:
 113               		.loc 2 146 13 view .LVU26
 114 0050 0895      		ret
 115               	.LVL6:
 116               	.L3:
 147:Adafruit_Fingerprint.h ****     else
 148:Adafruit_Fingerprint.h ****       memcpy(this->data, data, 64);
 117               		.loc 2 148 7 is_stmt 1 view .LVU27
 118               		.loc 2 148 20 is_stmt 0 view .LVU28
 119 0052 1996      		adiw r26,9
 120               		.loc 2 148 13 view .LVU29
 121 0054 80E4      		ldi r24,lo8(64)
 122 0056 F72F      		mov r31,r23
 123               		0:
 124 0058 0190      		ld r0,Z+
 125 005a 0D92      		st X+,r0
 126 005c 8A95      		dec r24
 127 005e 01F4      		brne 0b
GAS LISTING C:\Users\kenne\AppData\Local\Temp\ccnxErqW.s 			page 20


 128               	/* epilogue start */
 129               	.LBE6:
 149:Adafruit_Fingerprint.h ****   }
 130               		.loc 2 149 3 view .LVU30
 131 0060 0895      		ret
 132               		.cfi_endproc
 133               	.LFE55:
 135               		.weak	_ZN27Adafruit_Fingerprint_PacketC1EhjPh
 136               		.set	_ZN27Adafruit_Fingerprint_PacketC1EhjPh,_ZN27Adafruit_Fingerprint_PacketC2EhjPh
 137               		.section	.text._ZN20Adafruit_FingerprintC2EP6Usart0m,"ax",@progbits
 138               	.global	_ZN20Adafruit_FingerprintC2EP6Usart0m
 140               	_ZN20Adafruit_FingerprintC2EP6Usart0m:
 141               	.LVL7:
 142               	.LFB83:
 143               		.file 3 "Adafruit_Fingerprint.cpp"
   1:Adafruit_Fingerprint.cpp **** /*!
   2:Adafruit_Fingerprint.cpp ****  * @file Adafruit_Fingerprint.cpp
   3:Adafruit_Fingerprint.cpp ****  *
   4:Adafruit_Fingerprint.cpp ****  * @mainpage Adafruit Fingerprint Sensor Library
   5:Adafruit_Fingerprint.cpp ****  *
   6:Adafruit_Fingerprint.cpp ****  * @section intro_sec Introduction
   7:Adafruit_Fingerprint.cpp ****  *
   8:Adafruit_Fingerprint.cpp ****  * This is a library for our optical Fingerprint sensor
   9:Adafruit_Fingerprint.cpp ****  *
  10:Adafruit_Fingerprint.cpp ****  * Designed specifically to work with the Adafruit Fingerprint sensor
  11:Adafruit_Fingerprint.cpp ****  * ----> http://www.adafruit.com/products/751
  12:Adafruit_Fingerprint.cpp ****  *
  13:Adafruit_Fingerprint.cpp ****  * These displays use TTL Serial to communicate, 2 pins are required to
  14:Adafruit_Fingerprint.cpp ****  * interface
  15:Adafruit_Fingerprint.cpp ****  * Adafruit invests time and resources providing this open source code,
  16:Adafruit_Fingerprint.cpp ****  * please support Adafruit and open-source hardware by purchasing
  17:Adafruit_Fingerprint.cpp ****  * products from Adafruit!
  18:Adafruit_Fingerprint.cpp ****  *
  19:Adafruit_Fingerprint.cpp ****  * @section author Author
  20:Adafruit_Fingerprint.cpp ****  *
  21:Adafruit_Fingerprint.cpp ****  * Written by Limor Fried/Ladyada for Adafruit Industries.
  22:Adafruit_Fingerprint.cpp ****  *
  23:Adafruit_Fingerprint.cpp ****  * @section license License
  24:Adafruit_Fingerprint.cpp ****  *
  25:Adafruit_Fingerprint.cpp ****  * BSD license, all text above must be included in any redistribution
  26:Adafruit_Fingerprint.cpp ****  *
  27:Adafruit_Fingerprint.cpp ****  */
  28:Adafruit_Fingerprint.cpp **** 
  29:Adafruit_Fingerprint.cpp **** #include "Adafruit_Fingerprint.h"
  30:Adafruit_Fingerprint.cpp **** #include "kbitbang1.hpp"
  31:Adafruit_Fingerprint.cpp **** //#define FINGERPRINT_DEBUG
  32:Adafruit_Fingerprint.cpp **** //#define FINGERPRINT_DEBUG
  33:Adafruit_Fingerprint.cpp **** 
  34:Adafruit_Fingerprint.cpp **** /*!
  35:Adafruit_Fingerprint.cpp ****  * @brief Gets the command packet
  36:Adafruit_Fingerprint.cpp ****  */
  37:Adafruit_Fingerprint.cpp **** #define GET_CMD_PACKET(...)                                                    \
  38:Adafruit_Fingerprint.cpp ****     uint8_t data[] = {__VA_ARGS__};                                              \
  39:Adafruit_Fingerprint.cpp ****     Adafruit_Fingerprint_Packet packet(FINGERPRINT_COMMANDPACKET, sizeof(data),  \
  40:Adafruit_Fingerprint.cpp ****             data);                                    \
  41:Adafruit_Fingerprint.cpp ****     writeStructuredPacket(packet);                                               \
  42:Adafruit_Fingerprint.cpp ****     if (getStructuredPacket(&packet) != FINGERPRINT_OK)                          \
GAS LISTING C:\Users\kenne\AppData\Local\Temp\ccnxErqW.s 			page 21


  43:Adafruit_Fingerprint.cpp ****         return FINGERPRINT_PACKETRECIEVEERR;                                       \
  44:Adafruit_Fingerprint.cpp ****     if (packet.type != FINGERPRINT_ACKPACKET)                                    \
  45:Adafruit_Fingerprint.cpp ****         return FINGERPRINT_PACKETRECIEVEERR;
  46:Adafruit_Fingerprint.cpp **** 
  47:Adafruit_Fingerprint.cpp **** /*!
  48:Adafruit_Fingerprint.cpp ****  * @brief Sends the command packet
  49:Adafruit_Fingerprint.cpp ****  */
  50:Adafruit_Fingerprint.cpp **** #define SEND_CMD_PACKET(...)                                                   \
  51:Adafruit_Fingerprint.cpp ****     GET_CMD_PACKET(__VA_ARGS__);                                                 \
  52:Adafruit_Fingerprint.cpp ****     return packet.data[0];
  53:Adafruit_Fingerprint.cpp **** 
  54:Adafruit_Fingerprint.cpp **** /***************************************************************************
  55:Adafruit_Fingerprint.cpp ****  PUBLIC FUNCTIONS
  56:Adafruit_Fingerprint.cpp ****  ***************************************************************************/
  57:Adafruit_Fingerprint.cpp **** 
  58:Adafruit_Fingerprint.cpp **** // #if defined(__AVR__) || defined(ESP8266) || defined(FREEDOM_E300_HIFIVE1)
  59:Adafruit_Fingerprint.cpp **** // /**************************************************************************/
  60:Adafruit_Fingerprint.cpp **** // /*!
  61:Adafruit_Fingerprint.cpp **** //     @brief  Instantiates sensor with Software Serial
  62:Adafruit_Fingerprint.cpp **** //     @param  ss Pointer to SoftwareSerial object
  63:Adafruit_Fingerprint.cpp **** //     @param  password 32-bit integer password (default is 0)
  64:Adafruit_Fingerprint.cpp **** // */
  65:Adafruit_Fingerprint.cpp **** // /**************************************************************************/
  66:Adafruit_Fingerprint.cpp **** // Adafruit_Fingerprint::Adafruit_Fingerprint(SoftwareSerial *ss,
  67:Adafruit_Fingerprint.cpp **** //                                            uint32_t password) {
  68:Adafruit_Fingerprint.cpp **** //   thePassword = password;
  69:Adafruit_Fingerprint.cpp **** //   theAddress = 0xFFFFFFFF;
  70:Adafruit_Fingerprint.cpp **** 
  71:Adafruit_Fingerprint.cpp **** //   hwSerial = NULL;
  72:Adafruit_Fingerprint.cpp **** //   swSerial = ss;
  73:Adafruit_Fingerprint.cpp **** //   mySerial = swSerial;
  74:Adafruit_Fingerprint.cpp **** // }
  75:Adafruit_Fingerprint.cpp **** // #endif
  76:Adafruit_Fingerprint.cpp **** 
  77:Adafruit_Fingerprint.cpp **** /**************************************************************************/
  78:Adafruit_Fingerprint.cpp **** /*!
  79:Adafruit_Fingerprint.cpp ****     @brief  Instantiates sensor with Hardware Serial
  80:Adafruit_Fingerprint.cpp ****     @param  hs Pointer to HardwareSerial object
  81:Adafruit_Fingerprint.cpp ****     @param  password 32-bit integer password (default is 0)
  82:Adafruit_Fingerprint.cpp **** 
  83:Adafruit_Fingerprint.cpp **** */
  84:Adafruit_Fingerprint.cpp **** /**************************************************************************/
  85:Adafruit_Fingerprint.cpp **** Adafruit_Fingerprint::Adafruit_Fingerprint(Usart0 *hs,
 144               		.loc 3 85 1 is_stmt 1 view -0
 145               		.cfi_startproc
 146               		.loc 3 85 1 is_stmt 0 view .LVU32
 147 0000 0F93      		push r16
 148               		.cfi_def_cfa_offset 3
 149               		.cfi_offset 16, -2
 150 0002 1F93      		push r17
 151               		.cfi_def_cfa_offset 4
 152               		.cfi_offset 17, -3
 153               	/* prologue: function */
 154               	/* frame size = 0 */
 155               	/* stack size = 2 */
 156               	.L__stack_usage = 2
 157 0004 E82F      		mov r30,r24
GAS LISTING C:\Users\kenne\AppData\Local\Temp\ccnxErqW.s 			page 22


 158 0006 F92F      		mov r31,r25
 159               	.LBB7:
  86:Adafruit_Fingerprint.cpp ****         uint32_t password)
 160               		.loc 3 86 26 view .LVU33
 161 0008 1782      		std Z+7,__zero_reg__
 162 000a 1682      		std Z+6,__zero_reg__
 163 000c 1186      		std Z+9,__zero_reg__
 164 000e 1086      		std Z+8,__zero_reg__
 165 0010 00E4      		ldi r16,lo8(64)
 166 0012 10E0      		ldi r17,0
 167 0014 1387      		std Z+11,r17
 168 0016 0287      		std Z+10,r16
 169 0018 1586      		std Z+13,__zero_reg__
 170 001a 1486      		std Z+12,__zero_reg__
 171 001c 8FEF      		ldi r24,lo8(-1)
 172 001e 9FEF      		ldi r25,lo8(-1)
 173 0020 DC01      		movw r26,r24
 174               	.LVL8:
 175               		.loc 3 86 26 view .LVU34
 176 0022 8687      		std Z+14,r24
 177 0024 9787      		std Z+15,r25
 178 0026 A08B      		std Z+16,r26
 179 0028 B18B      		std Z+17,r27
 180 002a 138B      		std Z+19,r17
 181 002c 028B      		std Z+18,r16
 182 002e 00E0      		ldi r16,0
 183 0030 11EE      		ldi r17,lo8(-31)
 184 0032 158B      		std Z+21,r17
 185 0034 048B      		std Z+20,r16
  87:Adafruit_Fingerprint.cpp **** {
  88:Adafruit_Fingerprint.cpp ****     thePassword = password;
 186               		.loc 3 88 5 is_stmt 1 view .LVU35
 187               		.loc 3 88 17 is_stmt 0 view .LVU36
 188 0036 268B      		std Z+22,r18
 189 0038 378B      		std Z+23,r19
 190 003a 408F      		std Z+24,r20
 191 003c 518F      		std Z+25,r21
  89:Adafruit_Fingerprint.cpp ****     theAddress = 0xFFFFFFFF;
 192               		.loc 3 89 5 is_stmt 1 view .LVU37
 193               		.loc 3 89 16 is_stmt 0 view .LVU38
 194 003e 828F      		std Z+26,r24
 195 0040 938F      		std Z+27,r25
 196 0042 A48F      		std Z+28,r26
 197 0044 B58F      		std Z+29,r27
  90:Adafruit_Fingerprint.cpp **** 
  91:Adafruit_Fingerprint.cpp ****     hwSerial = hs;
 198               		.loc 3 91 5 is_stmt 1 view .LVU39
 199               		.loc 3 91 14 is_stmt 0 view .LVU40
 200 0046 62AB      		std Z+50,r22
 201 0048 73AB      		std Z+51,r23
  92:Adafruit_Fingerprint.cpp ****     mySerial = hwSerial;
 202               		.loc 3 92 5 is_stmt 1 view .LVU41
 203               		.loc 3 92 14 is_stmt 0 view .LVU42
 204 004a 64AB      		std Z+52,r22
 205 004c 75AB      		std Z+53,r23
 206               	/* epilogue start */
 207               	.LBE7:
GAS LISTING C:\Users\kenne\AppData\Local\Temp\ccnxErqW.s 			page 23


  93:Adafruit_Fingerprint.cpp **** }
 208               		.loc 3 93 1 view .LVU43
 209 004e 1F91      		pop r17
 210 0050 0F91      		pop r16
 211 0052 0895      		ret
 212               		.cfi_endproc
 213               	.LFE83:
 215               	.global	_ZN20Adafruit_FingerprintC1EP6Usart0m
 216               		.set	_ZN20Adafruit_FingerprintC1EP6Usart0m,_ZN20Adafruit_FingerprintC2EP6Usart0m
 217               		.section	.text._ZN20Adafruit_Fingerprint5beginEm,"ax",@progbits
 218               	.global	_ZN20Adafruit_Fingerprint5beginEm
 220               	_ZN20Adafruit_Fingerprint5beginEm:
 221               	.LVL9:
 222               	.LFB85:
  94:Adafruit_Fingerprint.cpp **** 
  95:Adafruit_Fingerprint.cpp **** /**************************************************************************/
  96:Adafruit_Fingerprint.cpp **** /*!
  97:Adafruit_Fingerprint.cpp ****     @brief  Instantiates sensor with a stream for Serial
  98:Adafruit_Fingerprint.cpp ****     @param  serial Pointer to a Stream object
  99:Adafruit_Fingerprint.cpp ****     @param  password 32-bit integer password (default is 0)
 100:Adafruit_Fingerprint.cpp **** 
 101:Adafruit_Fingerprint.cpp **** */
 102:Adafruit_Fingerprint.cpp **** /**************************************************************************/
 103:Adafruit_Fingerprint.cpp **** 
 104:Adafruit_Fingerprint.cpp **** // Adafruit_Fingerprint::Adafruit_Fingerprint(Stream *serial, uint32_t password) {
 105:Adafruit_Fingerprint.cpp **** 
 106:Adafruit_Fingerprint.cpp **** //   thePassword = password;
 107:Adafruit_Fingerprint.cpp **** //   theAddress = 0xFFFFFFFF;
 108:Adafruit_Fingerprint.cpp **** 
 109:Adafruit_Fingerprint.cpp **** //   hwSerial = NULL;
 110:Adafruit_Fingerprint.cpp **** // #if defined(__AVR__) || defined(ESP8266) || defined(FREEDOM_E300_HIFIVE1)
 111:Adafruit_Fingerprint.cpp **** //   swSerial = NULL;
 112:Adafruit_Fingerprint.cpp **** // #endif
 113:Adafruit_Fingerprint.cpp **** //   mySerial = serial;
 114:Adafruit_Fingerprint.cpp **** // }
 115:Adafruit_Fingerprint.cpp **** 
 116:Adafruit_Fingerprint.cpp **** /**************************************************************************/
 117:Adafruit_Fingerprint.cpp **** /*!
 118:Adafruit_Fingerprint.cpp ****     @brief  Initializes serial interface and baud rate
 119:Adafruit_Fingerprint.cpp ****     @param  baudrate Sensor's UART baud rate (usually 57600, 9600 or 115200)
 120:Adafruit_Fingerprint.cpp **** */
 121:Adafruit_Fingerprint.cpp **** /**************************************************************************/
 122:Adafruit_Fingerprint.cpp **** void Adafruit_Fingerprint::begin(uint32_t baudrate)
 123:Adafruit_Fingerprint.cpp **** {
 223               		.loc 3 123 1 is_stmt 1 view -0
 224               		.cfi_startproc
 225               	/* prologue: function */
 226               	/* frame size = 0 */
 227               	/* stack size = 0 */
 228               	.L__stack_usage = 0
 229               		.loc 3 123 1 is_stmt 0 view .LVU45
 230 0000 E82F      		mov r30,r24
 231 0002 F92F      		mov r31,r25
 124:Adafruit_Fingerprint.cpp ****     delayMs(1000); // one second delay to let the sensor 'boot up'
 232               		.loc 3 124 5 is_stmt 1 view .LVU46
 233               	.LVL10:
 234               	.LBB8:
GAS LISTING C:\Users\kenne\AppData\Local\Temp\ccnxErqW.s 			page 24


 235               	.LBI8:
 236               		.file 4 "c:\\d\\ifsc\\vscodeleandro\\ex\\toolchains\\avr-gcc\\avr\\include\\util\\delay.h"
   1:c:\d\ifsc\vscodeleandro\ex\toolchains\avr-gcc\avr\include\util\delay.h **** /* Copyright (c) 2002, Marek Michalkiewicz
   2:c:\d\ifsc\vscodeleandro\ex\toolchains\avr-gcc\avr\include\util\delay.h ****    Copyright (c) 2004,2005,2007 Joerg Wunsch
   3:c:\d\ifsc\vscodeleandro\ex\toolchains\avr-gcc\avr\include\util\delay.h ****    Copyright (c) 2007  Florin-Viorel Petrov
   4:c:\d\ifsc\vscodeleandro\ex\toolchains\avr-gcc\avr\include\util\delay.h ****    All rights reserved.
   5:c:\d\ifsc\vscodeleandro\ex\toolchains\avr-gcc\avr\include\util\delay.h **** 
   6:c:\d\ifsc\vscodeleandro\ex\toolchains\avr-gcc\avr\include\util\delay.h ****    Redistribution and use in source and binary forms, with or without
   7:c:\d\ifsc\vscodeleandro\ex\toolchains\avr-gcc\avr\include\util\delay.h ****    modification, are permitted provided that the following conditions are met:
   8:c:\d\ifsc\vscodeleandro\ex\toolchains\avr-gcc\avr\include\util\delay.h **** 
   9:c:\d\ifsc\vscodeleandro\ex\toolchains\avr-gcc\avr\include\util\delay.h ****    * Redistributions of source code must retain the above copyright
  10:c:\d\ifsc\vscodeleandro\ex\toolchains\avr-gcc\avr\include\util\delay.h ****      notice, this list of conditions and the following disclaimer.
  11:c:\d\ifsc\vscodeleandro\ex\toolchains\avr-gcc\avr\include\util\delay.h **** 
  12:c:\d\ifsc\vscodeleandro\ex\toolchains\avr-gcc\avr\include\util\delay.h ****    * Redistributions in binary form must reproduce the above copyright
  13:c:\d\ifsc\vscodeleandro\ex\toolchains\avr-gcc\avr\include\util\delay.h ****      notice, this list of conditions and the following disclaimer in
  14:c:\d\ifsc\vscodeleandro\ex\toolchains\avr-gcc\avr\include\util\delay.h ****      the documentation and/or other materials provided with the
  15:c:\d\ifsc\vscodeleandro\ex\toolchains\avr-gcc\avr\include\util\delay.h ****      distribution.
  16:c:\d\ifsc\vscodeleandro\ex\toolchains\avr-gcc\avr\include\util\delay.h **** 
  17:c:\d\ifsc\vscodeleandro\ex\toolchains\avr-gcc\avr\include\util\delay.h ****    * Neither the name of the copyright holders nor the names of
  18:c:\d\ifsc\vscodeleandro\ex\toolchains\avr-gcc\avr\include\util\delay.h ****      contributors may be used to endorse or promote products derived
  19:c:\d\ifsc\vscodeleandro\ex\toolchains\avr-gcc\avr\include\util\delay.h ****      from this software without specific prior written permission.
  20:c:\d\ifsc\vscodeleandro\ex\toolchains\avr-gcc\avr\include\util\delay.h **** 
  21:c:\d\ifsc\vscodeleandro\ex\toolchains\avr-gcc\avr\include\util\delay.h ****   THIS SOFTWARE IS PROVIDED BY THE COPYRIGHT HOLDERS AND CONTRIBUTORS "AS IS"
  22:c:\d\ifsc\vscodeleandro\ex\toolchains\avr-gcc\avr\include\util\delay.h ****   AND ANY EXPRESS OR IMPLIED WARRANTIES, INCLUDING, BUT NOT LIMITED TO, THE
  23:c:\d\ifsc\vscodeleandro\ex\toolchains\avr-gcc\avr\include\util\delay.h ****   IMPLIED WARRANTIES OF MERCHANTABILITY AND FITNESS FOR A PARTICULAR PURPOSE
  24:c:\d\ifsc\vscodeleandro\ex\toolchains\avr-gcc\avr\include\util\delay.h ****   ARE DISCLAIMED. IN NO EVENT SHALL THE COPYRIGHT OWNER OR CONTRIBUTORS BE
  25:c:\d\ifsc\vscodeleandro\ex\toolchains\avr-gcc\avr\include\util\delay.h ****   LIABLE FOR ANY DIRECT, INDIRECT, INCIDENTAL, SPECIAL, EXEMPLARY, OR
  26:c:\d\ifsc\vscodeleandro\ex\toolchains\avr-gcc\avr\include\util\delay.h ****   CONSEQUENTIAL DAMAGES (INCLUDING, BUT NOT LIMITED TO, PROCUREMENT OF
  27:c:\d\ifsc\vscodeleandro\ex\toolchains\avr-gcc\avr\include\util\delay.h ****   SUBSTITUTE GOODS OR SERVICES; LOSS OF USE, DATA, OR PROFITS; OR BUSINESS
  28:c:\d\ifsc\vscodeleandro\ex\toolchains\avr-gcc\avr\include\util\delay.h ****   INTERRUPTION) HOWEVER CAUSED AND ON ANY THEORY OF LIABILITY, WHETHER IN
  29:c:\d\ifsc\vscodeleandro\ex\toolchains\avr-gcc\avr\include\util\delay.h ****   CONTRACT, STRICT LIABILITY, OR TORT (INCLUDING NEGLIGENCE OR OTHERWISE)
  30:c:\d\ifsc\vscodeleandro\ex\toolchains\avr-gcc\avr\include\util\delay.h ****   ARISING IN ANY WAY OUT OF THE USE OF THIS SOFTWARE, EVEN IF ADVISED OF THE
  31:c:\d\ifsc\vscodeleandro\ex\toolchains\avr-gcc\avr\include\util\delay.h ****   POSSIBILITY OF SUCH DAMAGE. */
  32:c:\d\ifsc\vscodeleandro\ex\toolchains\avr-gcc\avr\include\util\delay.h **** 
  33:c:\d\ifsc\vscodeleandro\ex\toolchains\avr-gcc\avr\include\util\delay.h **** /* $Id$ */
  34:c:\d\ifsc\vscodeleandro\ex\toolchains\avr-gcc\avr\include\util\delay.h **** 
  35:c:\d\ifsc\vscodeleandro\ex\toolchains\avr-gcc\avr\include\util\delay.h **** #ifndef _UTIL_DELAY_H_
  36:c:\d\ifsc\vscodeleandro\ex\toolchains\avr-gcc\avr\include\util\delay.h **** #define _UTIL_DELAY_H_ 1
  37:c:\d\ifsc\vscodeleandro\ex\toolchains\avr-gcc\avr\include\util\delay.h **** 
  38:c:\d\ifsc\vscodeleandro\ex\toolchains\avr-gcc\avr\include\util\delay.h **** #ifndef __DOXYGEN__
  39:c:\d\ifsc\vscodeleandro\ex\toolchains\avr-gcc\avr\include\util\delay.h **** #  ifndef __HAS_DELAY_CYCLES
  40:c:\d\ifsc\vscodeleandro\ex\toolchains\avr-gcc\avr\include\util\delay.h **** #    define __HAS_DELAY_CYCLES 1
  41:c:\d\ifsc\vscodeleandro\ex\toolchains\avr-gcc\avr\include\util\delay.h **** #  endif
  42:c:\d\ifsc\vscodeleandro\ex\toolchains\avr-gcc\avr\include\util\delay.h **** #endif  /* __DOXYGEN__ */
  43:c:\d\ifsc\vscodeleandro\ex\toolchains\avr-gcc\avr\include\util\delay.h **** 
  44:c:\d\ifsc\vscodeleandro\ex\toolchains\avr-gcc\avr\include\util\delay.h **** #include <inttypes.h>
  45:c:\d\ifsc\vscodeleandro\ex\toolchains\avr-gcc\avr\include\util\delay.h **** #include <util/delay_basic.h>
  46:c:\d\ifsc\vscodeleandro\ex\toolchains\avr-gcc\avr\include\util\delay.h **** #include <math.h>
  47:c:\d\ifsc\vscodeleandro\ex\toolchains\avr-gcc\avr\include\util\delay.h **** 
  48:c:\d\ifsc\vscodeleandro\ex\toolchains\avr-gcc\avr\include\util\delay.h **** /** \file */
  49:c:\d\ifsc\vscodeleandro\ex\toolchains\avr-gcc\avr\include\util\delay.h **** /** \defgroup util_delay <util/delay.h>: Convenience functions for busy-wait delay loops
  50:c:\d\ifsc\vscodeleandro\ex\toolchains\avr-gcc\avr\include\util\delay.h ****     \code
  51:c:\d\ifsc\vscodeleandro\ex\toolchains\avr-gcc\avr\include\util\delay.h ****     #define F_CPU 1000000UL  // 1 MHz
  52:c:\d\ifsc\vscodeleandro\ex\toolchains\avr-gcc\avr\include\util\delay.h ****     //#define F_CPU 14.7456E6
  53:c:\d\ifsc\vscodeleandro\ex\toolchains\avr-gcc\avr\include\util\delay.h ****     #include <util/delay.h>
  54:c:\d\ifsc\vscodeleandro\ex\toolchains\avr-gcc\avr\include\util\delay.h ****     \endcode
  55:c:\d\ifsc\vscodeleandro\ex\toolchains\avr-gcc\avr\include\util\delay.h **** 
GAS LISTING C:\Users\kenne\AppData\Local\Temp\ccnxErqW.s 			page 25


  56:c:\d\ifsc\vscodeleandro\ex\toolchains\avr-gcc\avr\include\util\delay.h ****     \note As an alternative method, it is possible to pass the
  57:c:\d\ifsc\vscodeleandro\ex\toolchains\avr-gcc\avr\include\util\delay.h ****     F_CPU macro down to the compiler from the Makefile.
  58:c:\d\ifsc\vscodeleandro\ex\toolchains\avr-gcc\avr\include\util\delay.h ****     Obviously, in that case, no \c \#define statement should be
  59:c:\d\ifsc\vscodeleandro\ex\toolchains\avr-gcc\avr\include\util\delay.h ****     used.
  60:c:\d\ifsc\vscodeleandro\ex\toolchains\avr-gcc\avr\include\util\delay.h **** 
  61:c:\d\ifsc\vscodeleandro\ex\toolchains\avr-gcc\avr\include\util\delay.h ****     The functions in this header file are wrappers around the basic
  62:c:\d\ifsc\vscodeleandro\ex\toolchains\avr-gcc\avr\include\util\delay.h ****     busy-wait functions from <util/delay_basic.h>.  They are meant as
  63:c:\d\ifsc\vscodeleandro\ex\toolchains\avr-gcc\avr\include\util\delay.h ****     convenience functions where actual time values can be specified
  64:c:\d\ifsc\vscodeleandro\ex\toolchains\avr-gcc\avr\include\util\delay.h ****     rather than a number of cycles to wait for.  The idea behind is
  65:c:\d\ifsc\vscodeleandro\ex\toolchains\avr-gcc\avr\include\util\delay.h ****     that compile-time constant expressions will be eliminated by
  66:c:\d\ifsc\vscodeleandro\ex\toolchains\avr-gcc\avr\include\util\delay.h ****     compiler optimization so floating-point expressions can be used
  67:c:\d\ifsc\vscodeleandro\ex\toolchains\avr-gcc\avr\include\util\delay.h ****     to calculate the number of delay cycles needed based on the CPU
  68:c:\d\ifsc\vscodeleandro\ex\toolchains\avr-gcc\avr\include\util\delay.h ****     frequency passed by the macro F_CPU.
  69:c:\d\ifsc\vscodeleandro\ex\toolchains\avr-gcc\avr\include\util\delay.h **** 
  70:c:\d\ifsc\vscodeleandro\ex\toolchains\avr-gcc\avr\include\util\delay.h ****     \note In order for these functions to work as intended, compiler
  71:c:\d\ifsc\vscodeleandro\ex\toolchains\avr-gcc\avr\include\util\delay.h ****     optimizations <em>must</em> be enabled, and the delay time
  72:c:\d\ifsc\vscodeleandro\ex\toolchains\avr-gcc\avr\include\util\delay.h ****     <em>must</em> be an expression that is a known constant at
  73:c:\d\ifsc\vscodeleandro\ex\toolchains\avr-gcc\avr\include\util\delay.h ****     compile-time.  If these requirements are not met, the resulting
  74:c:\d\ifsc\vscodeleandro\ex\toolchains\avr-gcc\avr\include\util\delay.h ****     delay will be much longer (and basically unpredictable), and
  75:c:\d\ifsc\vscodeleandro\ex\toolchains\avr-gcc\avr\include\util\delay.h ****     applications that otherwise do not use floating-point calculations
  76:c:\d\ifsc\vscodeleandro\ex\toolchains\avr-gcc\avr\include\util\delay.h ****     will experience severe code bloat by the floating-point library
  77:c:\d\ifsc\vscodeleandro\ex\toolchains\avr-gcc\avr\include\util\delay.h ****     routines linked into the application.
  78:c:\d\ifsc\vscodeleandro\ex\toolchains\avr-gcc\avr\include\util\delay.h **** 
  79:c:\d\ifsc\vscodeleandro\ex\toolchains\avr-gcc\avr\include\util\delay.h ****     The functions available allow the specification of microsecond, and
  80:c:\d\ifsc\vscodeleandro\ex\toolchains\avr-gcc\avr\include\util\delay.h ****     millisecond delays directly, using the application-supplied macro
  81:c:\d\ifsc\vscodeleandro\ex\toolchains\avr-gcc\avr\include\util\delay.h ****     F_CPU as the CPU clock frequency (in Hertz).
  82:c:\d\ifsc\vscodeleandro\ex\toolchains\avr-gcc\avr\include\util\delay.h **** 
  83:c:\d\ifsc\vscodeleandro\ex\toolchains\avr-gcc\avr\include\util\delay.h **** */
  84:c:\d\ifsc\vscodeleandro\ex\toolchains\avr-gcc\avr\include\util\delay.h **** 
  85:c:\d\ifsc\vscodeleandro\ex\toolchains\avr-gcc\avr\include\util\delay.h **** #if !defined(__DOXYGEN__)
  86:c:\d\ifsc\vscodeleandro\ex\toolchains\avr-gcc\avr\include\util\delay.h **** static __inline__ void _delay_us(double __us) __attribute__((__always_inline__));
  87:c:\d\ifsc\vscodeleandro\ex\toolchains\avr-gcc\avr\include\util\delay.h **** static __inline__ void _delay_ms(double __ms) __attribute__((__always_inline__));
  88:c:\d\ifsc\vscodeleandro\ex\toolchains\avr-gcc\avr\include\util\delay.h **** #endif
  89:c:\d\ifsc\vscodeleandro\ex\toolchains\avr-gcc\avr\include\util\delay.h **** 
  90:c:\d\ifsc\vscodeleandro\ex\toolchains\avr-gcc\avr\include\util\delay.h **** #ifndef F_CPU
  91:c:\d\ifsc\vscodeleandro\ex\toolchains\avr-gcc\avr\include\util\delay.h **** /* prevent compiler error by supplying a default */
  92:c:\d\ifsc\vscodeleandro\ex\toolchains\avr-gcc\avr\include\util\delay.h **** # warning "F_CPU not defined for <util/delay.h>"
  93:c:\d\ifsc\vscodeleandro\ex\toolchains\avr-gcc\avr\include\util\delay.h **** /** \ingroup util_delay
  94:c:\d\ifsc\vscodeleandro\ex\toolchains\avr-gcc\avr\include\util\delay.h ****     \def F_CPU
  95:c:\d\ifsc\vscodeleandro\ex\toolchains\avr-gcc\avr\include\util\delay.h ****     \brief CPU frequency in Hz
  96:c:\d\ifsc\vscodeleandro\ex\toolchains\avr-gcc\avr\include\util\delay.h **** 
  97:c:\d\ifsc\vscodeleandro\ex\toolchains\avr-gcc\avr\include\util\delay.h ****     The macro F_CPU specifies the CPU frequency to be considered by
  98:c:\d\ifsc\vscodeleandro\ex\toolchains\avr-gcc\avr\include\util\delay.h ****     the delay macros.  This macro is normally supplied by the
  99:c:\d\ifsc\vscodeleandro\ex\toolchains\avr-gcc\avr\include\util\delay.h ****     environment (e.g. from within a project header, or the project's
 100:c:\d\ifsc\vscodeleandro\ex\toolchains\avr-gcc\avr\include\util\delay.h ****     Makefile).  The value 1 MHz here is only provided as a "vanilla"
 101:c:\d\ifsc\vscodeleandro\ex\toolchains\avr-gcc\avr\include\util\delay.h ****     fallback if no such user-provided definition could be found.
 102:c:\d\ifsc\vscodeleandro\ex\toolchains\avr-gcc\avr\include\util\delay.h **** 
 103:c:\d\ifsc\vscodeleandro\ex\toolchains\avr-gcc\avr\include\util\delay.h ****     In terms of the delay functions, the CPU frequency can be given as
 104:c:\d\ifsc\vscodeleandro\ex\toolchains\avr-gcc\avr\include\util\delay.h ****     a floating-point constant (e.g. 3.6864E6 for 3.6864 MHz).
 105:c:\d\ifsc\vscodeleandro\ex\toolchains\avr-gcc\avr\include\util\delay.h ****     However, the macros in <util/setbaud.h> require it to be an
 106:c:\d\ifsc\vscodeleandro\ex\toolchains\avr-gcc\avr\include\util\delay.h ****     integer value.
 107:c:\d\ifsc\vscodeleandro\ex\toolchains\avr-gcc\avr\include\util\delay.h ****  */
 108:c:\d\ifsc\vscodeleandro\ex\toolchains\avr-gcc\avr\include\util\delay.h **** # define F_CPU 1000000UL
 109:c:\d\ifsc\vscodeleandro\ex\toolchains\avr-gcc\avr\include\util\delay.h **** #endif
 110:c:\d\ifsc\vscodeleandro\ex\toolchains\avr-gcc\avr\include\util\delay.h **** 
 111:c:\d\ifsc\vscodeleandro\ex\toolchains\avr-gcc\avr\include\util\delay.h **** #ifndef __OPTIMIZE__
 112:c:\d\ifsc\vscodeleandro\ex\toolchains\avr-gcc\avr\include\util\delay.h **** # warning "Compiler optimizations disabled; functions from <util/delay.h> won't work as designed"
GAS LISTING C:\Users\kenne\AppData\Local\Temp\ccnxErqW.s 			page 26


 113:c:\d\ifsc\vscodeleandro\ex\toolchains\avr-gcc\avr\include\util\delay.h **** #endif
 114:c:\d\ifsc\vscodeleandro\ex\toolchains\avr-gcc\avr\include\util\delay.h **** 
 115:c:\d\ifsc\vscodeleandro\ex\toolchains\avr-gcc\avr\include\util\delay.h **** #if __HAS_DELAY_CYCLES && defined(__OPTIMIZE__) && \
 116:c:\d\ifsc\vscodeleandro\ex\toolchains\avr-gcc\avr\include\util\delay.h ****   !defined(__DELAY_BACKWARD_COMPATIBLE__) &&	   \
 117:c:\d\ifsc\vscodeleandro\ex\toolchains\avr-gcc\avr\include\util\delay.h ****   __STDC_HOSTED__
 118:c:\d\ifsc\vscodeleandro\ex\toolchains\avr-gcc\avr\include\util\delay.h **** #  include <math.h>
 119:c:\d\ifsc\vscodeleandro\ex\toolchains\avr-gcc\avr\include\util\delay.h **** #endif
 120:c:\d\ifsc\vscodeleandro\ex\toolchains\avr-gcc\avr\include\util\delay.h **** 
 121:c:\d\ifsc\vscodeleandro\ex\toolchains\avr-gcc\avr\include\util\delay.h **** /**
 122:c:\d\ifsc\vscodeleandro\ex\toolchains\avr-gcc\avr\include\util\delay.h ****    \ingroup util_delay
 123:c:\d\ifsc\vscodeleandro\ex\toolchains\avr-gcc\avr\include\util\delay.h **** 
 124:c:\d\ifsc\vscodeleandro\ex\toolchains\avr-gcc\avr\include\util\delay.h ****    Perform a delay of \c __ms milliseconds, using _delay_loop_2().
 125:c:\d\ifsc\vscodeleandro\ex\toolchains\avr-gcc\avr\include\util\delay.h **** 
 126:c:\d\ifsc\vscodeleandro\ex\toolchains\avr-gcc\avr\include\util\delay.h ****    The macro F_CPU is supposed to be defined to a
 127:c:\d\ifsc\vscodeleandro\ex\toolchains\avr-gcc\avr\include\util\delay.h ****    constant defining the CPU clock frequency (in Hertz).
 128:c:\d\ifsc\vscodeleandro\ex\toolchains\avr-gcc\avr\include\util\delay.h **** 
 129:c:\d\ifsc\vscodeleandro\ex\toolchains\avr-gcc\avr\include\util\delay.h ****    The maximal possible delay is 262.14 ms / F_CPU in MHz.
 130:c:\d\ifsc\vscodeleandro\ex\toolchains\avr-gcc\avr\include\util\delay.h **** 
 131:c:\d\ifsc\vscodeleandro\ex\toolchains\avr-gcc\avr\include\util\delay.h ****    When the user request delay which exceed the maximum possible one,
 132:c:\d\ifsc\vscodeleandro\ex\toolchains\avr-gcc\avr\include\util\delay.h ****    _delay_ms() provides a decreased resolution functionality. In this
 133:c:\d\ifsc\vscodeleandro\ex\toolchains\avr-gcc\avr\include\util\delay.h ****    mode _delay_ms() will work with a resolution of 1/10 ms, providing
 134:c:\d\ifsc\vscodeleandro\ex\toolchains\avr-gcc\avr\include\util\delay.h ****    delays up to 6.5535 seconds (independent from CPU frequency).  The
 135:c:\d\ifsc\vscodeleandro\ex\toolchains\avr-gcc\avr\include\util\delay.h ****    user will not be informed about decreased resolution.
 136:c:\d\ifsc\vscodeleandro\ex\toolchains\avr-gcc\avr\include\util\delay.h **** 
 137:c:\d\ifsc\vscodeleandro\ex\toolchains\avr-gcc\avr\include\util\delay.h ****    If the avr-gcc toolchain has __builtin_avr_delay_cycles()
 138:c:\d\ifsc\vscodeleandro\ex\toolchains\avr-gcc\avr\include\util\delay.h ****    support, maximal possible delay is 4294967.295 ms/ F_CPU in MHz. For
 139:c:\d\ifsc\vscodeleandro\ex\toolchains\avr-gcc\avr\include\util\delay.h ****    values greater than the maximal possible delay, overflows results in
 140:c:\d\ifsc\vscodeleandro\ex\toolchains\avr-gcc\avr\include\util\delay.h ****    no delay i.e., 0ms.
 141:c:\d\ifsc\vscodeleandro\ex\toolchains\avr-gcc\avr\include\util\delay.h **** 
 142:c:\d\ifsc\vscodeleandro\ex\toolchains\avr-gcc\avr\include\util\delay.h ****    Conversion of \c __ms into clock cycles may not always result in
 143:c:\d\ifsc\vscodeleandro\ex\toolchains\avr-gcc\avr\include\util\delay.h ****    integer.  By default, the clock cycles rounded up to next
 144:c:\d\ifsc\vscodeleandro\ex\toolchains\avr-gcc\avr\include\util\delay.h ****    integer. This ensures that the user gets at least \c __ms
 145:c:\d\ifsc\vscodeleandro\ex\toolchains\avr-gcc\avr\include\util\delay.h ****    microseconds of delay.
 146:c:\d\ifsc\vscodeleandro\ex\toolchains\avr-gcc\avr\include\util\delay.h **** 
 147:c:\d\ifsc\vscodeleandro\ex\toolchains\avr-gcc\avr\include\util\delay.h ****    Alternatively, by defining the macro \c __DELAY_ROUND_DOWN__, or
 148:c:\d\ifsc\vscodeleandro\ex\toolchains\avr-gcc\avr\include\util\delay.h ****    \c __DELAY_ROUND_CLOSEST__, before including this header file, the
 149:c:\d\ifsc\vscodeleandro\ex\toolchains\avr-gcc\avr\include\util\delay.h ****    algorithm can be made to round down, or round to closest integer,
 150:c:\d\ifsc\vscodeleandro\ex\toolchains\avr-gcc\avr\include\util\delay.h ****    respectively.
 151:c:\d\ifsc\vscodeleandro\ex\toolchains\avr-gcc\avr\include\util\delay.h **** 
 152:c:\d\ifsc\vscodeleandro\ex\toolchains\avr-gcc\avr\include\util\delay.h ****    \note
 153:c:\d\ifsc\vscodeleandro\ex\toolchains\avr-gcc\avr\include\util\delay.h **** 
 154:c:\d\ifsc\vscodeleandro\ex\toolchains\avr-gcc\avr\include\util\delay.h ****    The implementation of _delay_ms() based on
 155:c:\d\ifsc\vscodeleandro\ex\toolchains\avr-gcc\avr\include\util\delay.h ****    __builtin_avr_delay_cycles() is not backward compatible with older
 156:c:\d\ifsc\vscodeleandro\ex\toolchains\avr-gcc\avr\include\util\delay.h ****    implementations.  In order to get functionality backward compatible
 157:c:\d\ifsc\vscodeleandro\ex\toolchains\avr-gcc\avr\include\util\delay.h ****    with previous versions, the macro \c "__DELAY_BACKWARD_COMPATIBLE__"
 158:c:\d\ifsc\vscodeleandro\ex\toolchains\avr-gcc\avr\include\util\delay.h ****    must be defined before including this header file. Also, the
 159:c:\d\ifsc\vscodeleandro\ex\toolchains\avr-gcc\avr\include\util\delay.h ****    backward compatible algorithm will be chosen if the code is
 160:c:\d\ifsc\vscodeleandro\ex\toolchains\avr-gcc\avr\include\util\delay.h ****    compiled in a <em>freestanding environment</em> (GCC option
 161:c:\d\ifsc\vscodeleandro\ex\toolchains\avr-gcc\avr\include\util\delay.h ****    \c -ffreestanding), as the math functions required for rounding are
 162:c:\d\ifsc\vscodeleandro\ex\toolchains\avr-gcc\avr\include\util\delay.h ****    not available to the compiler then.
 163:c:\d\ifsc\vscodeleandro\ex\toolchains\avr-gcc\avr\include\util\delay.h **** 
 164:c:\d\ifsc\vscodeleandro\ex\toolchains\avr-gcc\avr\include\util\delay.h ****  */
 165:c:\d\ifsc\vscodeleandro\ex\toolchains\avr-gcc\avr\include\util\delay.h **** void
 166:c:\d\ifsc\vscodeleandro\ex\toolchains\avr-gcc\avr\include\util\delay.h **** _delay_ms(double __ms)
 237               		.loc 4 166 1 view .LVU47
 238               	.LBB9:
 167:c:\d\ifsc\vscodeleandro\ex\toolchains\avr-gcc\avr\include\util\delay.h **** {
GAS LISTING C:\Users\kenne\AppData\Local\Temp\ccnxErqW.s 			page 27


 168:c:\d\ifsc\vscodeleandro\ex\toolchains\avr-gcc\avr\include\util\delay.h **** 	double __tmp ;
 239               		.loc 4 168 2 view .LVU48
 169:c:\d\ifsc\vscodeleandro\ex\toolchains\avr-gcc\avr\include\util\delay.h **** #if __HAS_DELAY_CYCLES && defined(__OPTIMIZE__) && \
 170:c:\d\ifsc\vscodeleandro\ex\toolchains\avr-gcc\avr\include\util\delay.h ****   !defined(__DELAY_BACKWARD_COMPATIBLE__) &&	   \
 171:c:\d\ifsc\vscodeleandro\ex\toolchains\avr-gcc\avr\include\util\delay.h ****   __STDC_HOSTED__
 172:c:\d\ifsc\vscodeleandro\ex\toolchains\avr-gcc\avr\include\util\delay.h **** 	uint32_t __ticks_dc;
 240               		.loc 4 172 2 view .LVU49
 173:c:\d\ifsc\vscodeleandro\ex\toolchains\avr-gcc\avr\include\util\delay.h **** 	extern void __builtin_avr_delay_cycles(unsigned long);
 241               		.loc 4 173 2 view .LVU50
 174:c:\d\ifsc\vscodeleandro\ex\toolchains\avr-gcc\avr\include\util\delay.h **** 	__tmp = ((F_CPU) / 1e3) * __ms;
 242               		.loc 4 174 2 view .LVU51
 175:c:\d\ifsc\vscodeleandro\ex\toolchains\avr-gcc\avr\include\util\delay.h **** 
 176:c:\d\ifsc\vscodeleandro\ex\toolchains\avr-gcc\avr\include\util\delay.h **** 	#if defined(__DELAY_ROUND_DOWN__)
 177:c:\d\ifsc\vscodeleandro\ex\toolchains\avr-gcc\avr\include\util\delay.h **** 		__ticks_dc = (uint32_t)fabs(__tmp);
 178:c:\d\ifsc\vscodeleandro\ex\toolchains\avr-gcc\avr\include\util\delay.h **** 
 179:c:\d\ifsc\vscodeleandro\ex\toolchains\avr-gcc\avr\include\util\delay.h **** 	#elif defined(__DELAY_ROUND_CLOSEST__)
 180:c:\d\ifsc\vscodeleandro\ex\toolchains\avr-gcc\avr\include\util\delay.h **** 		__ticks_dc = (uint32_t)(fabs(__tmp)+0.5);
 181:c:\d\ifsc\vscodeleandro\ex\toolchains\avr-gcc\avr\include\util\delay.h **** 
 182:c:\d\ifsc\vscodeleandro\ex\toolchains\avr-gcc\avr\include\util\delay.h **** 	#else
 183:c:\d\ifsc\vscodeleandro\ex\toolchains\avr-gcc\avr\include\util\delay.h **** 		//round up by default
 184:c:\d\ifsc\vscodeleandro\ex\toolchains\avr-gcc\avr\include\util\delay.h **** 		__ticks_dc = (uint32_t)(ceil(fabs(__tmp)));
 243               		.loc 4 184 3 view .LVU52
 185:c:\d\ifsc\vscodeleandro\ex\toolchains\avr-gcc\avr\include\util\delay.h **** 	#endif
 186:c:\d\ifsc\vscodeleandro\ex\toolchains\avr-gcc\avr\include\util\delay.h **** 
 187:c:\d\ifsc\vscodeleandro\ex\toolchains\avr-gcc\avr\include\util\delay.h **** 	__builtin_avr_delay_cycles(__ticks_dc);
 244               		.loc 4 187 2 view .LVU53
 245               		.loc 4 187 28 is_stmt 0 view .LVU54
 246 0004 2FEF      		ldi r18,lo8(3199999)
 247 0006 83ED      		ldi r24,hi8(3199999)
 248 0008 90E3      		ldi r25,hlo8(3199999)
 249 000a 2150      	1:	subi r18,1
 250 000c 8040      		sbci r24,0
 251 000e 9040      		sbci r25,0
 252 0010 01F4      		brne 1b
 253               	.LVL11:
 254               		.loc 4 187 28 view .LVU55
 255 0012 00C0      		rjmp .
 256 0014 0000      		nop
 257               	.LVL12:
 258               		.loc 4 187 28 view .LVU56
 259               	.LBE9:
 260               	.LBE8:
 125:Adafruit_Fingerprint.cpp **** 
 126:Adafruit_Fingerprint.cpp ****     if(hwSerial) {
 261               		.loc 3 126 5 is_stmt 1 view .LVU57
 262               		.loc 3 126 8 is_stmt 0 view .LVU58
 263 0016 82A9      		ldd r24,Z+50
 264 0018 93A9      		ldd r25,Z+51
 265               		.loc 3 126 5 view .LVU59
 266 001a 0097      		sbiw r24,0
 267 001c 01F0      		breq .L6
 127:Adafruit_Fingerprint.cpp ****         hwSerial->init();
 268               		.loc 3 127 9 is_stmt 1 view .LVU60
 269               		.loc 3 127 23 is_stmt 0 view .LVU61
 270 001e 0E94 0000 		call _ZN6Usart04initEv
 271               	.LVL13:
 272               	.L6:
GAS LISTING C:\Users\kenne\AppData\Local\Temp\ccnxErqW.s 			page 28


 273               	/* epilogue start */
 128:Adafruit_Fingerprint.cpp ****     }
 129:Adafruit_Fingerprint.cpp **** // #if defined(__AVR__) || defined(ESP8266) || defined(FREEDOM_E300_HIFIVE1)
 130:Adafruit_Fingerprint.cpp **** //   if (swSerial)
 131:Adafruit_Fingerprint.cpp **** //     swSerial->begin(baudrate);
 132:Adafruit_Fingerprint.cpp **** // #endif
 133:Adafruit_Fingerprint.cpp **** }
 274               		.loc 3 133 1 view .LVU62
 275 0022 0895      		ret
 276               		.cfi_endproc
 277               	.LFE85:
 279               		.section	.text._ZN20Adafruit_Fingerprint21writeStructuredPacketERK27Adafruit_Fingerprint_Packet,"a
 280               	.global	_ZN20Adafruit_Fingerprint21writeStructuredPacketERK27Adafruit_Fingerprint_Packet
 282               	_ZN20Adafruit_Fingerprint21writeStructuredPacketERK27Adafruit_Fingerprint_Packet:
 283               	.LVL14:
 284               	.LFB107:
 134:Adafruit_Fingerprint.cpp **** 
 135:Adafruit_Fingerprint.cpp **** /**************************************************************************/
 136:Adafruit_Fingerprint.cpp **** /*!
 137:Adafruit_Fingerprint.cpp ****     @brief  Verifies the sensors' access password (default password is
 138:Adafruit_Fingerprint.cpp ****    0x0000000). A good way to also check if the sensors is active and responding
 139:Adafruit_Fingerprint.cpp ****     @returns True if password is correct
 140:Adafruit_Fingerprint.cpp **** */
 141:Adafruit_Fingerprint.cpp **** /**************************************************************************/
 142:Adafruit_Fingerprint.cpp **** bool_t Adafruit_Fingerprint::verifyPassword(void)
 143:Adafruit_Fingerprint.cpp **** {
 144:Adafruit_Fingerprint.cpp ****     return checkPassword() == FINGERPRINT_OK;
 145:Adafruit_Fingerprint.cpp **** }
 146:Adafruit_Fingerprint.cpp **** 
 147:Adafruit_Fingerprint.cpp **** uint8_t Adafruit_Fingerprint::checkPassword(void)
 148:Adafruit_Fingerprint.cpp **** {
 149:Adafruit_Fingerprint.cpp ****     GET_CMD_PACKET(FINGERPRINT_VERIFYPASSWORD, (uint8_t)(thePassword >> 24),
 150:Adafruit_Fingerprint.cpp ****             (uint8_t)(thePassword >> 16), (uint8_t)(thePassword >> 8),
 151:Adafruit_Fingerprint.cpp ****             (uint8_t)(thePassword & 0xFF));
 152:Adafruit_Fingerprint.cpp ****     if(packet.data[0] == FINGERPRINT_OK) {
 153:Adafruit_Fingerprint.cpp ****         return FINGERPRINT_OK;
 154:Adafruit_Fingerprint.cpp ****     } else {
 155:Adafruit_Fingerprint.cpp ****         return FINGERPRINT_PACKETRECIEVEERR;
 156:Adafruit_Fingerprint.cpp ****     }
 157:Adafruit_Fingerprint.cpp **** }
 158:Adafruit_Fingerprint.cpp **** 
 159:Adafruit_Fingerprint.cpp **** /**************************************************************************/
 160:Adafruit_Fingerprint.cpp **** /*!
 161:Adafruit_Fingerprint.cpp ****     @brief  Get the sensors parameters, fills in the member variables
 162:Adafruit_Fingerprint.cpp ****     status_reg, system_id, capacity, security_level, device_addr, packet_len
 163:Adafruit_Fingerprint.cpp ****     and baud_rate
 164:Adafruit_Fingerprint.cpp ****     @returns True if password is correct
 165:Adafruit_Fingerprint.cpp **** */
 166:Adafruit_Fingerprint.cpp **** /**************************************************************************/
 167:Adafruit_Fingerprint.cpp **** uint8_t Adafruit_Fingerprint::getParameters(void)
 168:Adafruit_Fingerprint.cpp **** {
 169:Adafruit_Fingerprint.cpp ****     GET_CMD_PACKET(FINGERPRINT_READSYSPARAM);
 170:Adafruit_Fingerprint.cpp **** 
 171:Adafruit_Fingerprint.cpp ****     status_reg = ((uint16_t)packet.data[1] << 8) | packet.data[2];
 172:Adafruit_Fingerprint.cpp ****     system_id = ((uint16_t)packet.data[3] << 8) | packet.data[4];
 173:Adafruit_Fingerprint.cpp ****     capacity = ((uint16_t)packet.data[5] << 8) | packet.data[6];
 174:Adafruit_Fingerprint.cpp ****     security_level = ((uint16_t)packet.data[7] << 8) | packet.data[8];
GAS LISTING C:\Users\kenne\AppData\Local\Temp\ccnxErqW.s 			page 29


 175:Adafruit_Fingerprint.cpp ****     device_addr = ((uint32_t)packet.data[9] << 24) |
 176:Adafruit_Fingerprint.cpp ****             ((uint32_t)packet.data[10] << 16) |
 177:Adafruit_Fingerprint.cpp ****             ((uint32_t)packet.data[11] << 8) | (uint32_t)packet.data[12];
 178:Adafruit_Fingerprint.cpp ****     packet_len = ((uint16_t)packet.data[13] << 8) | packet.data[14];
 179:Adafruit_Fingerprint.cpp ****     if(packet_len == 0) {
 180:Adafruit_Fingerprint.cpp ****         packet_len = 32;
 181:Adafruit_Fingerprint.cpp ****     } else if(packet_len == 1) {
 182:Adafruit_Fingerprint.cpp ****         packet_len = 64;
 183:Adafruit_Fingerprint.cpp ****     } else if(packet_len == 2) {
 184:Adafruit_Fingerprint.cpp ****         packet_len = 128;
 185:Adafruit_Fingerprint.cpp ****     } else if(packet_len == 3) {
 186:Adafruit_Fingerprint.cpp ****         packet_len = 256;
 187:Adafruit_Fingerprint.cpp ****     }
 188:Adafruit_Fingerprint.cpp ****     baud_rate = (((uint16_t)packet.data[15] << 8) | packet.data[16]) * 9600;
 189:Adafruit_Fingerprint.cpp **** 
 190:Adafruit_Fingerprint.cpp ****     return packet.data[0];
 191:Adafruit_Fingerprint.cpp **** }
 192:Adafruit_Fingerprint.cpp **** 
 193:Adafruit_Fingerprint.cpp **** /**************************************************************************/
 194:Adafruit_Fingerprint.cpp **** /*!
 195:Adafruit_Fingerprint.cpp ****     @brief   Ask the sensor to take an image of the finger pressed on surface
 196:Adafruit_Fingerprint.cpp ****     @returns <code>FINGERPRINT_OK</code> on success
 197:Adafruit_Fingerprint.cpp ****     @returns <code>FINGERPRINT_NOFINGER</code> if no finger detected
 198:Adafruit_Fingerprint.cpp ****     @returns <code>FINGERPRINT_PACKETRECIEVEERR</code> on communication error
 199:Adafruit_Fingerprint.cpp ****     @returns <code>FINGERPRINT_IMAGEFAIL</code> on imaging error
 200:Adafruit_Fingerprint.cpp **** */
 201:Adafruit_Fingerprint.cpp **** /**************************************************************************/
 202:Adafruit_Fingerprint.cpp **** uint8_t Adafruit_Fingerprint::getImage(void)
 203:Adafruit_Fingerprint.cpp **** {
 204:Adafruit_Fingerprint.cpp ****     SEND_CMD_PACKET(FINGERPRINT_GETIMAGE);
 205:Adafruit_Fingerprint.cpp **** }
 206:Adafruit_Fingerprint.cpp **** 
 207:Adafruit_Fingerprint.cpp **** /**************************************************************************/
 208:Adafruit_Fingerprint.cpp **** /*!
 209:Adafruit_Fingerprint.cpp ****     @brief   Ask the sensor to convert image to feature template
 210:Adafruit_Fingerprint.cpp ****     @param slot Location to place feature template (put one in 1 and another in
 211:Adafruit_Fingerprint.cpp ****    2 for verification to create model)
 212:Adafruit_Fingerprint.cpp ****     @returns <code>FINGERPRINT_OK</code> on success
 213:Adafruit_Fingerprint.cpp ****     @returns <code>FINGERPRINT_IMAGEMESS</code> if image is too messy
 214:Adafruit_Fingerprint.cpp ****     @returns <code>FINGERPRINT_PACKETRECIEVEERR</code> on communication error
 215:Adafruit_Fingerprint.cpp ****     @returns <code>FINGERPRINT_FEATUREFAIL</code> on failure to identify
 216:Adafruit_Fingerprint.cpp ****    fingerprint features
 217:Adafruit_Fingerprint.cpp ****     @returns <code>FINGERPRINT_INVALIDIMAGE</code> on failure to identify
 218:Adafruit_Fingerprint.cpp ****    fingerprint features
 219:Adafruit_Fingerprint.cpp **** */
 220:Adafruit_Fingerprint.cpp **** uint8_t Adafruit_Fingerprint::image2Tz(uint8_t slot)
 221:Adafruit_Fingerprint.cpp **** {
 222:Adafruit_Fingerprint.cpp ****     SEND_CMD_PACKET(FINGERPRINT_IMAGE2TZ, slot);
 223:Adafruit_Fingerprint.cpp **** }
 224:Adafruit_Fingerprint.cpp **** 
 225:Adafruit_Fingerprint.cpp **** /**************************************************************************/
 226:Adafruit_Fingerprint.cpp **** /*!
 227:Adafruit_Fingerprint.cpp ****     @brief   Ask the sensor to take two print feature template and create a
 228:Adafruit_Fingerprint.cpp ****    model
 229:Adafruit_Fingerprint.cpp ****     @returns <code>FINGERPRINT_OK</code> on success
 230:Adafruit_Fingerprint.cpp ****     @returns <code>FINGERPRINT_PACKETRECIEVEERR</code> on communication error
 231:Adafruit_Fingerprint.cpp ****     @returns <code>FINGERPRINT_ENROLLMISMATCH</code> on mismatch of fingerprints
GAS LISTING C:\Users\kenne\AppData\Local\Temp\ccnxErqW.s 			page 30


 232:Adafruit_Fingerprint.cpp **** */
 233:Adafruit_Fingerprint.cpp **** uint8_t Adafruit_Fingerprint::createModel(void)
 234:Adafruit_Fingerprint.cpp **** {
 235:Adafruit_Fingerprint.cpp ****     SEND_CMD_PACKET(FINGERPRINT_REGMODEL);
 236:Adafruit_Fingerprint.cpp **** }
 237:Adafruit_Fingerprint.cpp **** 
 238:Adafruit_Fingerprint.cpp **** /**************************************************************************/
 239:Adafruit_Fingerprint.cpp **** /*!
 240:Adafruit_Fingerprint.cpp ****     @brief   Ask the sensor to store the calculated model for later matching
 241:Adafruit_Fingerprint.cpp ****     @param   location The model location #
 242:Adafruit_Fingerprint.cpp ****     @returns <code>FINGERPRINT_OK</code> on success
 243:Adafruit_Fingerprint.cpp ****     @returns <code>FINGERPRINT_BADLOCATION</code> if the location is invalid
 244:Adafruit_Fingerprint.cpp ****     @returns <code>FINGERPRINT_FLASHERR</code> if the model couldn't be written
 245:Adafruit_Fingerprint.cpp ****    to flash memory
 246:Adafruit_Fingerprint.cpp ****     @returns <code>FINGERPRINT_PACKETRECIEVEERR</code> on communication error
 247:Adafruit_Fingerprint.cpp **** */
 248:Adafruit_Fingerprint.cpp **** uint8_t Adafruit_Fingerprint::storeModel(uint16_t location)
 249:Adafruit_Fingerprint.cpp **** {
 250:Adafruit_Fingerprint.cpp ****     SEND_CMD_PACKET(FINGERPRINT_STORE, 0x01, (uint8_t)(location >> 8),
 251:Adafruit_Fingerprint.cpp ****             (uint8_t)(location & 0xFF));
 252:Adafruit_Fingerprint.cpp **** }
 253:Adafruit_Fingerprint.cpp **** 
 254:Adafruit_Fingerprint.cpp **** /**************************************************************************/
 255:Adafruit_Fingerprint.cpp **** /*!
 256:Adafruit_Fingerprint.cpp ****     @brief   Ask the sensor to load a fingerprint model from flash into buffer 1
 257:Adafruit_Fingerprint.cpp ****     @param   location The model location #
 258:Adafruit_Fingerprint.cpp ****     @returns <code>FINGERPRINT_OK</code> on success
 259:Adafruit_Fingerprint.cpp ****     @returns <code>FINGERPRINT_BADLOCATION</code> if the location is invalid
 260:Adafruit_Fingerprint.cpp ****     @returns <code>FINGERPRINT_PACKETRECIEVEERR</code> on communication error
 261:Adafruit_Fingerprint.cpp **** */
 262:Adafruit_Fingerprint.cpp **** uint8_t Adafruit_Fingerprint::loadModel(uint16_t location)
 263:Adafruit_Fingerprint.cpp **** {
 264:Adafruit_Fingerprint.cpp ****     SEND_CMD_PACKET(FINGERPRINT_LOAD, 0x01, (uint8_t)(location >> 8),
 265:Adafruit_Fingerprint.cpp ****             (uint8_t)(location & 0xFF));
 266:Adafruit_Fingerprint.cpp **** }
 267:Adafruit_Fingerprint.cpp **** 
 268:Adafruit_Fingerprint.cpp **** /**************************************************************************/
 269:Adafruit_Fingerprint.cpp **** /*!
 270:Adafruit_Fingerprint.cpp ****     @brief   Ask the sensor to transfer 256-byte fingerprint template from the
 271:Adafruit_Fingerprint.cpp ****    buffer to the UART
 272:Adafruit_Fingerprint.cpp ****     @returns <code>FINGERPRINT_OK</code> on success
 273:Adafruit_Fingerprint.cpp ****     @returns <code>FINGERPRINT_PACKETRECIEVEERR</code> on communication error
 274:Adafruit_Fingerprint.cpp **** */
 275:Adafruit_Fingerprint.cpp **** uint8_t Adafruit_Fingerprint::getModel(void)
 276:Adafruit_Fingerprint.cpp **** {
 277:Adafruit_Fingerprint.cpp ****     SEND_CMD_PACKET(FINGERPRINT_UPLOAD, 0x01);
 278:Adafruit_Fingerprint.cpp **** }
 279:Adafruit_Fingerprint.cpp **** 
 280:Adafruit_Fingerprint.cpp **** /**************************************************************************/
 281:Adafruit_Fingerprint.cpp **** /*!
 282:Adafruit_Fingerprint.cpp ****     @brief   Ask the sensor to delete a model in memory
 283:Adafruit_Fingerprint.cpp ****     @param   location The model location #
 284:Adafruit_Fingerprint.cpp ****     @returns <code>FINGERPRINT_OK</code> on success
 285:Adafruit_Fingerprint.cpp ****     @returns <code>FINGERPRINT_BADLOCATION</code> if the location is invalid
 286:Adafruit_Fingerprint.cpp ****     @returns <code>FINGERPRINT_FLASHERR</code> if the model couldn't be written
 287:Adafruit_Fingerprint.cpp ****    to flash memory
 288:Adafruit_Fingerprint.cpp ****     @returns <code>FINGERPRINT_PACKETRECIEVEERR</code> on communication error
GAS LISTING C:\Users\kenne\AppData\Local\Temp\ccnxErqW.s 			page 31


 289:Adafruit_Fingerprint.cpp **** */
 290:Adafruit_Fingerprint.cpp **** uint8_t Adafruit_Fingerprint::deleteModel(uint16_t location)
 291:Adafruit_Fingerprint.cpp **** {
 292:Adafruit_Fingerprint.cpp ****     SEND_CMD_PACKET(FINGERPRINT_DELETE, (uint8_t)(location >> 8),
 293:Adafruit_Fingerprint.cpp ****             (uint8_t)(location & 0xFF), 0x00, 0x01);
 294:Adafruit_Fingerprint.cpp **** }
 295:Adafruit_Fingerprint.cpp **** 
 296:Adafruit_Fingerprint.cpp **** /**************************************************************************/
 297:Adafruit_Fingerprint.cpp **** /*!
 298:Adafruit_Fingerprint.cpp ****     @brief   Ask the sensor to delete ALL models in memory
 299:Adafruit_Fingerprint.cpp ****     @returns <code>FINGERPRINT_OK</code> on success
 300:Adafruit_Fingerprint.cpp ****     @returns <code>FINGERPRINT_BADLOCATION</code> if the location is invalid
 301:Adafruit_Fingerprint.cpp ****     @returns <code>FINGERPRINT_FLASHERR</code> if the model couldn't be written
 302:Adafruit_Fingerprint.cpp ****    to flash memory
 303:Adafruit_Fingerprint.cpp ****     @returns <code>FINGERPRINT_PACKETRECIEVEERR</code> on communication error
 304:Adafruit_Fingerprint.cpp **** */
 305:Adafruit_Fingerprint.cpp **** uint8_t Adafruit_Fingerprint::emptyDatabase(void)
 306:Adafruit_Fingerprint.cpp **** {
 307:Adafruit_Fingerprint.cpp ****     SEND_CMD_PACKET(FINGERPRINT_EMPTY);
 308:Adafruit_Fingerprint.cpp **** }
 309:Adafruit_Fingerprint.cpp **** 
 310:Adafruit_Fingerprint.cpp **** /**************************************************************************/
 311:Adafruit_Fingerprint.cpp **** /*!
 312:Adafruit_Fingerprint.cpp ****     @brief   Ask the sensor to search the current slot 1 fingerprint features to
 313:Adafruit_Fingerprint.cpp ****    match saved templates. The matching location is stored in <b>fingerID</b> and
 314:Adafruit_Fingerprint.cpp ****    the matching confidence in <b>confidence</b>
 315:Adafruit_Fingerprint.cpp ****     @returns <code>FINGERPRINT_OK</code> on fingerprint match success
 316:Adafruit_Fingerprint.cpp ****     @returns <code>FINGERPRINT_NOTFOUND</code> no match made
 317:Adafruit_Fingerprint.cpp ****     @returns <code>FINGERPRINT_PACKETRECIEVEERR</code> on communication error
 318:Adafruit_Fingerprint.cpp **** */
 319:Adafruit_Fingerprint.cpp **** /**************************************************************************/
 320:Adafruit_Fingerprint.cpp **** uint8_t Adafruit_Fingerprint::fingerFastSearch(void)
 321:Adafruit_Fingerprint.cpp **** {
 322:Adafruit_Fingerprint.cpp ****     // high speed search of slot #1 starting at page 0x0000 and page #0x00A3
 323:Adafruit_Fingerprint.cpp ****     GET_CMD_PACKET(FINGERPRINT_HISPEEDSEARCH, 0x01, 0x00, 0x00, 0x00, 0xA3);
 324:Adafruit_Fingerprint.cpp ****     fingerID = 0xFFFF;
 325:Adafruit_Fingerprint.cpp ****     confidence = 0xFFFF;
 326:Adafruit_Fingerprint.cpp **** 
 327:Adafruit_Fingerprint.cpp ****     fingerID = packet.data[1];
 328:Adafruit_Fingerprint.cpp ****     fingerID <<= 8;
 329:Adafruit_Fingerprint.cpp ****     fingerID |= packet.data[2];
 330:Adafruit_Fingerprint.cpp **** 
 331:Adafruit_Fingerprint.cpp ****     confidence = packet.data[3];
 332:Adafruit_Fingerprint.cpp ****     confidence <<= 8;
 333:Adafruit_Fingerprint.cpp ****     confidence |= packet.data[4];
 334:Adafruit_Fingerprint.cpp **** 
 335:Adafruit_Fingerprint.cpp ****     return packet.data[0];
 336:Adafruit_Fingerprint.cpp **** }
 337:Adafruit_Fingerprint.cpp **** 
 338:Adafruit_Fingerprint.cpp **** /**************************************************************************/
 339:Adafruit_Fingerprint.cpp **** /*!
 340:Adafruit_Fingerprint.cpp ****     @brief   Control the built in LED
 341:Adafruit_Fingerprint.cpp ****     @param on True if you want LED on, False to turn LED off
 342:Adafruit_Fingerprint.cpp ****     @returns <code>FINGERPRINT_OK</code> on success
 343:Adafruit_Fingerprint.cpp **** */
 344:Adafruit_Fingerprint.cpp **** /**************************************************************************/
 345:Adafruit_Fingerprint.cpp **** uint8_t Adafruit_Fingerprint::LEDcontrol(bool on)
GAS LISTING C:\Users\kenne\AppData\Local\Temp\ccnxErqW.s 			page 32


 346:Adafruit_Fingerprint.cpp **** {
 347:Adafruit_Fingerprint.cpp ****     if(on) {
 348:Adafruit_Fingerprint.cpp ****         SEND_CMD_PACKET(FINGERPRINT_LEDON);
 349:Adafruit_Fingerprint.cpp ****     } else {
 350:Adafruit_Fingerprint.cpp ****         SEND_CMD_PACKET(FINGERPRINT_LEDOFF);
 351:Adafruit_Fingerprint.cpp ****     }
 352:Adafruit_Fingerprint.cpp **** }
 353:Adafruit_Fingerprint.cpp **** 
 354:Adafruit_Fingerprint.cpp **** /**************************************************************************/
 355:Adafruit_Fingerprint.cpp **** /*!
 356:Adafruit_Fingerprint.cpp ****     @brief   Control the built in Aura LED (if exists). Check datasheet/manual
 357:Adafruit_Fingerprint.cpp ****     for different colors and control codes available
 358:Adafruit_Fingerprint.cpp ****     @param control The control code (e.g. breathing, full on)
 359:Adafruit_Fingerprint.cpp ****     @param speed How fast to go through the breathing/blinking cycles
 360:Adafruit_Fingerprint.cpp ****     @param coloridx What color to light the indicator
 361:Adafruit_Fingerprint.cpp ****     @param count How many repeats of blinks/breathing cycles
 362:Adafruit_Fingerprint.cpp ****     @returns <code>FINGERPRINT_OK</code> on fingerprint match success
 363:Adafruit_Fingerprint.cpp ****     @returns <code>FINGERPRINT_NOTFOUND</code> no match made
 364:Adafruit_Fingerprint.cpp ****     @returns <code>FINGERPRINT_PACKETRECIEVEERR</code> on communication error
 365:Adafruit_Fingerprint.cpp **** */
 366:Adafruit_Fingerprint.cpp **** /**************************************************************************/
 367:Adafruit_Fingerprint.cpp **** uint8_t Adafruit_Fingerprint::LEDcontrol(uint8_t control, uint8_t speed,
 368:Adafruit_Fingerprint.cpp ****         uint8_t coloridx, uint8_t count)
 369:Adafruit_Fingerprint.cpp **** {
 370:Adafruit_Fingerprint.cpp ****     SEND_CMD_PACKET(FINGERPRINT_AURALEDCONFIG, control, speed, coloridx, count);
 371:Adafruit_Fingerprint.cpp **** }
 372:Adafruit_Fingerprint.cpp **** 
 373:Adafruit_Fingerprint.cpp **** /**************************************************************************/
 374:Adafruit_Fingerprint.cpp **** /*!
 375:Adafruit_Fingerprint.cpp ****     @brief   Ask the sensor to search the current slot fingerprint features to
 376:Adafruit_Fingerprint.cpp ****    match saved templates. The matching location is stored in <b>fingerID</b> and
 377:Adafruit_Fingerprint.cpp ****    the matching confidence in <b>confidence</b>
 378:Adafruit_Fingerprint.cpp ****    @param slot The slot to use for the print search, defaults to 1
 379:Adafruit_Fingerprint.cpp ****     @returns <code>FINGERPRINT_OK</code> on fingerprint match success
 380:Adafruit_Fingerprint.cpp ****     @returns <code>FINGERPRINT_NOTFOUND</code> no match made
 381:Adafruit_Fingerprint.cpp ****     @returns <code>FINGERPRINT_PACKETRECIEVEERR</code> on communication error
 382:Adafruit_Fingerprint.cpp **** */
 383:Adafruit_Fingerprint.cpp **** /**************************************************************************/
 384:Adafruit_Fingerprint.cpp **** uint8_t Adafruit_Fingerprint::fingerSearch(uint8_t slot)
 385:Adafruit_Fingerprint.cpp **** {
 386:Adafruit_Fingerprint.cpp ****     // search of slot starting thru the capacity
 387:Adafruit_Fingerprint.cpp ****     GET_CMD_PACKET(FINGERPRINT_SEARCH, slot, 0x00, 0x00, (uint8_t)(capacity >> 8),
 388:Adafruit_Fingerprint.cpp ****             (uint8_t)(capacity & 0xFF));
 389:Adafruit_Fingerprint.cpp **** 
 390:Adafruit_Fingerprint.cpp ****     fingerID = 0xFFFF;
 391:Adafruit_Fingerprint.cpp ****     confidence = 0xFFFF;
 392:Adafruit_Fingerprint.cpp **** 
 393:Adafruit_Fingerprint.cpp ****     fingerID = packet.data[1];
 394:Adafruit_Fingerprint.cpp ****     fingerID <<= 8;
 395:Adafruit_Fingerprint.cpp ****     fingerID |= packet.data[2];
 396:Adafruit_Fingerprint.cpp **** 
 397:Adafruit_Fingerprint.cpp ****     confidence = packet.data[3];
 398:Adafruit_Fingerprint.cpp ****     confidence <<= 8;
 399:Adafruit_Fingerprint.cpp ****     confidence |= packet.data[4];
 400:Adafruit_Fingerprint.cpp **** 
 401:Adafruit_Fingerprint.cpp ****     return packet.data[0];
 402:Adafruit_Fingerprint.cpp **** }
GAS LISTING C:\Users\kenne\AppData\Local\Temp\ccnxErqW.s 			page 33


 403:Adafruit_Fingerprint.cpp **** 
 404:Adafruit_Fingerprint.cpp **** /**************************************************************************/
 405:Adafruit_Fingerprint.cpp **** /*!
 406:Adafruit_Fingerprint.cpp ****     @brief   Ask the sensor for the number of templates stored in memory. The
 407:Adafruit_Fingerprint.cpp ****    number is stored in <b>templateCount</b> on success.
 408:Adafruit_Fingerprint.cpp ****     @returns <code>FINGERPRINT_OK</code> on success
 409:Adafruit_Fingerprint.cpp ****     @returns <code>FINGERPRINT_PACKETRECIEVEERR</code> on communication error
 410:Adafruit_Fingerprint.cpp **** */
 411:Adafruit_Fingerprint.cpp **** /**************************************************************************/
 412:Adafruit_Fingerprint.cpp **** uint8_t Adafruit_Fingerprint::getTemplateCount(void)
 413:Adafruit_Fingerprint.cpp **** {
 414:Adafruit_Fingerprint.cpp ****     GET_CMD_PACKET(FINGERPRINT_TEMPLATECOUNT);
 415:Adafruit_Fingerprint.cpp **** 
 416:Adafruit_Fingerprint.cpp ****     templateCount = packet.data[1];
 417:Adafruit_Fingerprint.cpp ****     templateCount <<= 8;
 418:Adafruit_Fingerprint.cpp ****     templateCount |= packet.data[2];
 419:Adafruit_Fingerprint.cpp **** 
 420:Adafruit_Fingerprint.cpp ****     return packet.data[0];
 421:Adafruit_Fingerprint.cpp **** }
 422:Adafruit_Fingerprint.cpp **** 
 423:Adafruit_Fingerprint.cpp **** /**************************************************************************/
 424:Adafruit_Fingerprint.cpp **** /*!
 425:Adafruit_Fingerprint.cpp ****     @brief   Set the password on the sensor (future communication will require
 426:Adafruit_Fingerprint.cpp ****    password verification so don't forget it!!!)
 427:Adafruit_Fingerprint.cpp ****     @param   password 32-bit password code
 428:Adafruit_Fingerprint.cpp ****     @returns <code>FINGERPRINT_OK</code> on success
 429:Adafruit_Fingerprint.cpp ****     @returns <code>FINGERPRINT_PACKETRECIEVEERR</code> on communication error
 430:Adafruit_Fingerprint.cpp **** */
 431:Adafruit_Fingerprint.cpp **** /**************************************************************************/
 432:Adafruit_Fingerprint.cpp **** uint8_t Adafruit_Fingerprint::setPassword(uint32_t password)
 433:Adafruit_Fingerprint.cpp **** {
 434:Adafruit_Fingerprint.cpp ****     SEND_CMD_PACKET(FINGERPRINT_SETPASSWORD, (uint8_t)(password >> 24),
 435:Adafruit_Fingerprint.cpp ****             (uint8_t)(password >> 16), (uint8_t)(password >> 8),
 436:Adafruit_Fingerprint.cpp ****             (uint8_t)(password & 0xFF));
 437:Adafruit_Fingerprint.cpp **** }
 438:Adafruit_Fingerprint.cpp **** 
 439:Adafruit_Fingerprint.cpp **** /**************************************************************************/
 440:Adafruit_Fingerprint.cpp **** /*!
 441:Adafruit_Fingerprint.cpp ****     @brief   Writing module registers
 442:Adafruit_Fingerprint.cpp ****     @param   regAdd 8-bit address of register
 443:Adafruit_Fingerprint.cpp ****     @param   value 8-bit value will write to register
 444:Adafruit_Fingerprint.cpp ****     @returns <code>FINGERPRINT_OK</code> on success
 445:Adafruit_Fingerprint.cpp ****     @returns <code>FINGERPRINT_PACKETRECIEVEERR</code> on communication error
 446:Adafruit_Fingerprint.cpp ****     @returns <code>FINGERPRINT_ADDRESS_ERROR</code> on register address error
 447:Adafruit_Fingerprint.cpp **** */
 448:Adafruit_Fingerprint.cpp **** /**************************************************************************/
 449:Adafruit_Fingerprint.cpp **** uint8_t Adafruit_Fingerprint::writeRegister(uint8_t regAdd, uint8_t value)
 450:Adafruit_Fingerprint.cpp **** {
 451:Adafruit_Fingerprint.cpp **** 
 452:Adafruit_Fingerprint.cpp ****     SEND_CMD_PACKET(FINGERPRINT_WRITE_REG, regAdd, value);
 453:Adafruit_Fingerprint.cpp **** }
 454:Adafruit_Fingerprint.cpp **** 
 455:Adafruit_Fingerprint.cpp **** /**************************************************************************/
 456:Adafruit_Fingerprint.cpp **** /*!
 457:Adafruit_Fingerprint.cpp ****     @brief   Change UART baudrate
 458:Adafruit_Fingerprint.cpp ****     @param   baudrate 8-bit Uart baudrate
 459:Adafruit_Fingerprint.cpp ****     @returns <code>FINGERPRINT_OK</code> on success
GAS LISTING C:\Users\kenne\AppData\Local\Temp\ccnxErqW.s 			page 34


 460:Adafruit_Fingerprint.cpp ****     @returns <code>FINGERPRINT_PACKETRECIEVEERR</code> on communication error
 461:Adafruit_Fingerprint.cpp **** */
 462:Adafruit_Fingerprint.cpp **** /**************************************************************************/
 463:Adafruit_Fingerprint.cpp **** uint8_t Adafruit_Fingerprint::setBaudRate(uint8_t baudrate)
 464:Adafruit_Fingerprint.cpp **** {
 465:Adafruit_Fingerprint.cpp **** 
 466:Adafruit_Fingerprint.cpp ****     return (writeRegister(FINGERPRINT_BAUD_REG_ADDR, baud_rate));
 467:Adafruit_Fingerprint.cpp **** }
 468:Adafruit_Fingerprint.cpp **** 
 469:Adafruit_Fingerprint.cpp **** /**************************************************************************/
 470:Adafruit_Fingerprint.cpp **** /*!
 471:Adafruit_Fingerprint.cpp ****     @brief   Change security level
 472:Adafruit_Fingerprint.cpp ****     @param   level 8-bit security level
 473:Adafruit_Fingerprint.cpp ****     @returns <code>FINGERPRINT_OK</code> on success
 474:Adafruit_Fingerprint.cpp ****     @returns <code>FINGERPRINT_PACKETRECIEVEERR</code> on communication error
 475:Adafruit_Fingerprint.cpp **** */
 476:Adafruit_Fingerprint.cpp **** /**************************************************************************/
 477:Adafruit_Fingerprint.cpp **** uint8_t Adafruit_Fingerprint::setSecurityLevel(uint8_t level)
 478:Adafruit_Fingerprint.cpp **** {
 479:Adafruit_Fingerprint.cpp **** 
 480:Adafruit_Fingerprint.cpp ****     return (writeRegister(FINGERPRINT_SECURITY_REG_ADDR, level));
 481:Adafruit_Fingerprint.cpp **** }
 482:Adafruit_Fingerprint.cpp **** 
 483:Adafruit_Fingerprint.cpp **** /**************************************************************************/
 484:Adafruit_Fingerprint.cpp **** /*!
 485:Adafruit_Fingerprint.cpp ****     @brief   Change packet size
 486:Adafruit_Fingerprint.cpp ****     @param   size 8-bit packet size
 487:Adafruit_Fingerprint.cpp ****     @returns <code>FINGERPRINT_OK</code> on success
 488:Adafruit_Fingerprint.cpp ****     @returns <code>FINGERPRINT_PACKETRECIEVEERR</code> on communication error
 489:Adafruit_Fingerprint.cpp **** */
 490:Adafruit_Fingerprint.cpp **** /**************************************************************************/
 491:Adafruit_Fingerprint.cpp **** uint8_t Adafruit_Fingerprint::setPacketSize(uint8_t size)
 492:Adafruit_Fingerprint.cpp **** {
 493:Adafruit_Fingerprint.cpp **** 
 494:Adafruit_Fingerprint.cpp ****     return (writeRegister(FINGERPRINT_PACKET_REG_ADDR, size));
 495:Adafruit_Fingerprint.cpp **** }
 496:Adafruit_Fingerprint.cpp **** /**************************************************************************/
 497:Adafruit_Fingerprint.cpp **** /*!
 498:Adafruit_Fingerprint.cpp ****     @brief   Helper function to process a packet and send it over UART to the
 499:Adafruit_Fingerprint.cpp ****    sensor
 500:Adafruit_Fingerprint.cpp ****     @param   packet A structure containing the bytes to transmit
 501:Adafruit_Fingerprint.cpp **** */
 502:Adafruit_Fingerprint.cpp **** /**************************************************************************/
 503:Adafruit_Fingerprint.cpp **** 
 504:Adafruit_Fingerprint.cpp **** void Adafruit_Fingerprint::writeStructuredPacket(
 505:Adafruit_Fingerprint.cpp ****         const Adafruit_Fingerprint_Packet &packet)
 506:Adafruit_Fingerprint.cpp **** {
 285               		.loc 3 506 1 is_stmt 1 view -0
 286               		.cfi_startproc
 287               		.loc 3 506 1 is_stmt 0 view .LVU64
 288 0000 AF92      		push r10
 289               		.cfi_def_cfa_offset 3
 290               		.cfi_offset 10, -2
 291 0002 BF92      		push r11
 292               		.cfi_def_cfa_offset 4
 293               		.cfi_offset 11, -3
 294 0004 CF92      		push r12
GAS LISTING C:\Users\kenne\AppData\Local\Temp\ccnxErqW.s 			page 35


 295               		.cfi_def_cfa_offset 5
 296               		.cfi_offset 12, -4
 297 0006 DF92      		push r13
 298               		.cfi_def_cfa_offset 6
 299               		.cfi_offset 13, -5
 300 0008 EF92      		push r14
 301               		.cfi_def_cfa_offset 7
 302               		.cfi_offset 14, -6
 303 000a FF92      		push r15
 304               		.cfi_def_cfa_offset 8
 305               		.cfi_offset 15, -7
 306 000c 0F93      		push r16
 307               		.cfi_def_cfa_offset 9
 308               		.cfi_offset 16, -8
 309 000e 1F93      		push r17
 310               		.cfi_def_cfa_offset 10
 311               		.cfi_offset 17, -9
 312 0010 CF93      		push r28
 313               		.cfi_def_cfa_offset 11
 314               		.cfi_offset 28, -10
 315               	/* prologue: function */
 316               	/* frame size = 0 */
 317               	/* stack size = 9 */
 318               	.L__stack_usage = 9
 319 0012 C82E      		mov r12,r24
 320 0014 D92E      		mov r13,r25
 321 0016 062F      		mov r16,r22
 322 0018 172F      		mov r17,r23
 507:Adafruit_Fingerprint.cpp **** 
 508:Adafruit_Fingerprint.cpp ****     mySerial->write((uint8_t)(packet.start_code >> 8));
 323               		.loc 3 508 5 is_stmt 1 view .LVU65
 324               		.loc 3 508 38 is_stmt 0 view .LVU66
 325 001a F801      		movw r30,r16
 326 001c 6181      		ldd r22,Z+1
 327               	.LVL15:
 328               		.loc 3 508 20 view .LVU67
 329 001e 70E0      		ldi r23,0
 330 0020 F601      		movw r30,r12
 331 0022 84A9      		ldd r24,Z+52
 332 0024 95A9      		ldd r25,Z+53
 333               	.LVL16:
 334               		.loc 3 508 20 view .LVU68
 335 0026 0E94 0000 		call _ZN6Usart05writeEj
 336               	.LVL17:
 509:Adafruit_Fingerprint.cpp ****     mySerial->write((uint8_t)(packet.start_code & 0xFF));
 337               		.loc 3 509 5 is_stmt 1 view .LVU69
 338               		.loc 3 509 38 is_stmt 0 view .LVU70
 339 002a F801      		movw r30,r16
 340 002c 6081      		ld r22,Z
 341 002e 7181      		ldd r23,Z+1
 342               		.loc 3 509 20 view .LVU71
 343 0030 7727      		clr r23
 344 0032 F601      		movw r30,r12
 345 0034 84A9      		ldd r24,Z+52
 346 0036 95A9      		ldd r25,Z+53
 347 0038 0E94 0000 		call _ZN6Usart05writeEj
 348               	.LVL18:
GAS LISTING C:\Users\kenne\AppData\Local\Temp\ccnxErqW.s 			page 36


 510:Adafruit_Fingerprint.cpp ****     mySerial->write(packet.address[0]);
 349               		.loc 3 510 5 is_stmt 1 view .LVU72
 350               		.loc 3 510 37 is_stmt 0 view .LVU73
 351 003c F801      		movw r30,r16
 352 003e 6281      		ldd r22,Z+2
 353               		.loc 3 510 20 view .LVU74
 354 0040 70E0      		ldi r23,0
 355 0042 F601      		movw r30,r12
 356 0044 84A9      		ldd r24,Z+52
 357 0046 95A9      		ldd r25,Z+53
 358 0048 0E94 0000 		call _ZN6Usart05writeEj
 359               	.LVL19:
 511:Adafruit_Fingerprint.cpp ****     mySerial->write(packet.address[1]);
 360               		.loc 3 511 5 is_stmt 1 view .LVU75
 361               		.loc 3 511 37 is_stmt 0 view .LVU76
 362 004c F801      		movw r30,r16
 363 004e 6381      		ldd r22,Z+3
 364               		.loc 3 511 20 view .LVU77
 365 0050 70E0      		ldi r23,0
 366 0052 F601      		movw r30,r12
 367 0054 84A9      		ldd r24,Z+52
 368 0056 95A9      		ldd r25,Z+53
 369 0058 0E94 0000 		call _ZN6Usart05writeEj
 370               	.LVL20:
 512:Adafruit_Fingerprint.cpp ****     mySerial->write(packet.address[2]);
 371               		.loc 3 512 5 is_stmt 1 view .LVU78
 372               		.loc 3 512 37 is_stmt 0 view .LVU79
 373 005c F801      		movw r30,r16
 374 005e 6481      		ldd r22,Z+4
 375               		.loc 3 512 20 view .LVU80
 376 0060 70E0      		ldi r23,0
 377 0062 F601      		movw r30,r12
 378 0064 84A9      		ldd r24,Z+52
 379 0066 95A9      		ldd r25,Z+53
 380 0068 0E94 0000 		call _ZN6Usart05writeEj
 381               	.LVL21:
 513:Adafruit_Fingerprint.cpp ****     mySerial->write(packet.address[3]);
 382               		.loc 3 513 5 is_stmt 1 view .LVU81
 383               		.loc 3 513 37 is_stmt 0 view .LVU82
 384 006c F801      		movw r30,r16
 385 006e 6581      		ldd r22,Z+5
 386               		.loc 3 513 20 view .LVU83
 387 0070 70E0      		ldi r23,0
 388 0072 F601      		movw r30,r12
 389 0074 84A9      		ldd r24,Z+52
 390 0076 95A9      		ldd r25,Z+53
 391 0078 0E94 0000 		call _ZN6Usart05writeEj
 392               	.LVL22:
 514:Adafruit_Fingerprint.cpp ****     mySerial->write(packet.type);
 393               		.loc 3 514 5 is_stmt 1 view .LVU84
 394               		.loc 3 514 28 is_stmt 0 view .LVU85
 395 007c F801      		movw r30,r16
 396 007e 6681      		ldd r22,Z+6
 397               		.loc 3 514 20 view .LVU86
 398 0080 70E0      		ldi r23,0
 399 0082 F601      		movw r30,r12
 400 0084 84A9      		ldd r24,Z+52
GAS LISTING C:\Users\kenne\AppData\Local\Temp\ccnxErqW.s 			page 37


 401 0086 95A9      		ldd r25,Z+53
 402 0088 0E94 0000 		call _ZN6Usart05writeEj
 403               	.LVL23:
 515:Adafruit_Fingerprint.cpp **** 
 516:Adafruit_Fingerprint.cpp ****     uint16_t wire_length = packet.length + 2;
 404               		.loc 3 516 5 is_stmt 1 view .LVU87
 405               		.loc 3 516 35 is_stmt 0 view .LVU88
 406 008c F801      		movw r30,r16
 407 008e A780      		ldd r10,Z+7
 408 0090 B084      		ldd r11,Z+8
 409               		.loc 3 516 14 view .LVU89
 410 0092 F2E0      		ldi r31,2
 411 0094 AF0E      		add r10,r31
 412 0096 B11C      		adc r11,__zero_reg__
 413               	.LVL24:
 517:Adafruit_Fingerprint.cpp ****     mySerial->write((uint8_t)(wire_length >> 8));
 414               		.loc 3 517 5 is_stmt 1 view .LVU90
 415               		.loc 3 517 43 is_stmt 0 view .LVU91
 416 0098 EB2C      		mov r14,r11
 417 009a FF24      		clr r15
 418               		.loc 3 517 20 view .LVU92
 419 009c B701      		movw r22,r14
 420 009e F601      		movw r30,r12
 421 00a0 84A9      		ldd r24,Z+52
 422 00a2 95A9      		ldd r25,Z+53
 423 00a4 0E94 0000 		call _ZN6Usart05writeEj
 424               	.LVL25:
 518:Adafruit_Fingerprint.cpp ****     mySerial->write((uint8_t)(wire_length & 0xFF));
 425               		.loc 3 518 5 is_stmt 1 view .LVU93
 426 00a8 BB24      		clr r11
 427               	.LVL26:
 428               		.loc 3 518 20 is_stmt 0 view .LVU94
 429 00aa B501      		movw r22,r10
 430 00ac F601      		movw r30,r12
 431 00ae 84A9      		ldd r24,Z+52
 432 00b0 95A9      		ldd r25,Z+53
 433 00b2 0E94 0000 		call _ZN6Usart05writeEj
 434               	.LVL27:
 519:Adafruit_Fingerprint.cpp **** 
 520:Adafruit_Fingerprint.cpp **** #ifdef FINGERPRINT_DEBUG
 521:Adafruit_Fingerprint.cpp ****     sendstring("-> 0x");
 522:Adafruit_Fingerprint.cpp ****     sendstring((uint8_t)(packet.start_code >> 8), HEX);
 523:Adafruit_Fingerprint.cpp ****     sendstring(", 0x");
 524:Adafruit_Fingerprint.cpp ****     sendstring((uint8_t)(packet.start_code & 0xFF), HEX);
 525:Adafruit_Fingerprint.cpp ****     sendstring(", 0x");
 526:Adafruit_Fingerprint.cpp ****     sendstring(packet.address[0], HEX);
 527:Adafruit_Fingerprint.cpp ****     sendstring(", 0x");
 528:Adafruit_Fingerprint.cpp ****     sendstring(packet.address[1], HEX);
 529:Adafruit_Fingerprint.cpp ****     sendstring(", 0x");
 530:Adafruit_Fingerprint.cpp ****     sendstring(packet.address[2], HEX);
 531:Adafruit_Fingerprint.cpp ****     sendstring(", 0x");
 532:Adafruit_Fingerprint.cpp ****     sendstring(packet.address[3], HEX);
 533:Adafruit_Fingerprint.cpp ****     sendstring(", 0x");
 534:Adafruit_Fingerprint.cpp ****     sendstring(packet.type, HEX);
 535:Adafruit_Fingerprint.cpp ****     sendstring(", 0x");
 536:Adafruit_Fingerprint.cpp ****     sendstring((uint8_t)(wire_length >> 8), HEX);
 537:Adafruit_Fingerprint.cpp ****     sendstring(", 0x");
GAS LISTING C:\Users\kenne\AppData\Local\Temp\ccnxErqW.s 			page 38


 538:Adafruit_Fingerprint.cpp ****     sendstring((uint8_t)(wire_length & 0xFF), HEX);
 539:Adafruit_Fingerprint.cpp **** #endif
 540:Adafruit_Fingerprint.cpp **** 
 541:Adafruit_Fingerprint.cpp ****     uint16_t sum = ((wire_length) >> 8) + ((wire_length) & 0xFF) + packet.type;
 435               		.loc 3 541 5 is_stmt 1 view .LVU95
 436               		.loc 3 541 41 is_stmt 0 view .LVU96
 437 00b6 EA0C      		add r14,r10
 438 00b8 FB1C      		adc r15,r11
 439               		.loc 3 541 75 view .LVU97
 440 00ba F801      		movw r30,r16
 441 00bc 8681      		ldd r24,Z+6
 442               		.loc 3 541 14 view .LVU98
 443 00be E80E      		add r14,r24
 444 00c0 F11C      		adc r15,__zero_reg__
 445               	.LVL28:
 542:Adafruit_Fingerprint.cpp ****     for(uint8_t i = 0; i < packet.length; i++) {
 446               		.loc 3 542 5 is_stmt 1 view .LVU99
 447               	.LBB10:
 448               		.loc 3 542 17 is_stmt 0 view .LVU100
 449 00c2 C0E0      		ldi r28,0
 450               		.loc 3 542 5 view .LVU101
 451 00c4 00C0      		rjmp .L9
 452               	.LVL29:
 453               	.L10:
 543:Adafruit_Fingerprint.cpp ****         mySerial->write(packet.data[i]);
 454               		.loc 3 543 9 is_stmt 1 discriminator 3 view .LVU102
 455               		.loc 3 543 38 is_stmt 0 discriminator 3 view .LVU103
 456 00c6 5801      		movw r10,r16
 457 00c8 AC0E      		add r10,r28
 458 00ca B11C      		adc r11,__zero_reg__
 459 00cc F501      		movw r30,r10
 460 00ce 6185      		ldd r22,Z+9
 461               		.loc 3 543 24 discriminator 3 view .LVU104
 462 00d0 70E0      		ldi r23,0
 463 00d2 F601      		movw r30,r12
 464 00d4 84A9      		ldd r24,Z+52
 465 00d6 95A9      		ldd r25,Z+53
 466               	.LVL30:
 467               		.loc 3 543 24 discriminator 3 view .LVU105
 468 00d8 0E94 0000 		call _ZN6Usart05writeEj
 469               	.LVL31:
 544:Adafruit_Fingerprint.cpp ****         sum += packet.data[i];
 470               		.loc 3 544 9 is_stmt 1 discriminator 3 view .LVU106
 471               		.loc 3 544 29 is_stmt 0 discriminator 3 view .LVU107
 472 00dc F501      		movw r30,r10
 473 00de 8185      		ldd r24,Z+9
 474               		.loc 3 544 13 discriminator 3 view .LVU108
 475 00e0 E80E      		add r14,r24
 476 00e2 F11C      		adc r15,__zero_reg__
 477               	.LVL32:
 542:Adafruit_Fingerprint.cpp ****     for(uint8_t i = 0; i < packet.length; i++) {
 478               		.loc 3 542 5 is_stmt 1 discriminator 3 view .LVU109
 479 00e4 CF5F      		subi r28,lo8(-(1))
 480               	.LVL33:
 481               	.L9:
 542:Adafruit_Fingerprint.cpp ****     for(uint8_t i = 0; i < packet.length; i++) {
 482               		.loc 3 542 26 discriminator 1 view .LVU110
GAS LISTING C:\Users\kenne\AppData\Local\Temp\ccnxErqW.s 			page 39


 542:Adafruit_Fingerprint.cpp ****     for(uint8_t i = 0; i < packet.length; i++) {
 483               		.loc 3 542 24 is_stmt 0 discriminator 1 view .LVU111
 484 00e6 8C2F      		mov r24,r28
 485 00e8 90E0      		ldi r25,0
 542:Adafruit_Fingerprint.cpp ****     for(uint8_t i = 0; i < packet.length; i++) {
 486               		.loc 3 542 35 discriminator 1 view .LVU112
 487 00ea F801      		movw r30,r16
 488 00ec 2781      		ldd r18,Z+7
 489 00ee 3085      		ldd r19,Z+8
 542:Adafruit_Fingerprint.cpp ****     for(uint8_t i = 0; i < packet.length; i++) {
 490               		.loc 3 542 26 discriminator 1 view .LVU113
 491 00f0 8217      		cp r24,r18
 492 00f2 9307      		cpc r25,r19
 493 00f4 00F0      		brlo .L10
 542:Adafruit_Fingerprint.cpp ****     for(uint8_t i = 0; i < packet.length; i++) {
 494               		.loc 3 542 26 discriminator 1 view .LVU114
 495               	.LBE10:
 545:Adafruit_Fingerprint.cpp **** #ifdef FINGERPRINT_DEBUG
 546:Adafruit_Fingerprint.cpp ****         sendstring(", 0x");
 547:Adafruit_Fingerprint.cpp ****         sendstring(packet.data[i], HEX);
 548:Adafruit_Fingerprint.cpp **** #endif
 549:Adafruit_Fingerprint.cpp ****     }
 550:Adafruit_Fingerprint.cpp **** 
 551:Adafruit_Fingerprint.cpp ****     mySerial->write(((uint8_t)sum >> 8));
 496               		.loc 3 551 5 is_stmt 1 view .LVU115
 497               		.loc 3 551 20 is_stmt 0 view .LVU116
 498 00f6 60E0      		ldi r22,0
 499 00f8 70E0      		ldi r23,0
 500 00fa F601      		movw r30,r12
 501 00fc 84A9      		ldd r24,Z+52
 502 00fe 95A9      		ldd r25,Z+53
 503 0100 0E94 0000 		call _ZN6Usart05writeEj
 504               	.LVL34:
 552:Adafruit_Fingerprint.cpp ****     mySerial->write((uint8_t)(sum & 0xFF));
 505               		.loc 3 552 5 is_stmt 1 view .LVU117
 506               		.loc 3 552 20 is_stmt 0 view .LVU118
 507 0104 B701      		movw r22,r14
 508 0106 7727      		clr r23
 509 0108 F601      		movw r30,r12
 510 010a 84A9      		ldd r24,Z+52
 511 010c 95A9      		ldd r25,Z+53
 512 010e 0E94 0000 		call _ZN6Usart05writeEj
 513               	.LVL35:
 553:Adafruit_Fingerprint.cpp **** 
 554:Adafruit_Fingerprint.cpp **** #ifdef FINGERPRINT_DEBUG
 555:Adafruit_Fingerprint.cpp ****     sendstring(", 0x");
 556:Adafruit_Fingerprint.cpp ****     sendstring((uint8_t)(sum >> 8), HEX);
 557:Adafruit_Fingerprint.cpp ****     sendstring(", 0x");
 558:Adafruit_Fingerprint.cpp ****     sendstringln((uint8_t)(sum & 0xFF), HEX);
 559:Adafruit_Fingerprint.cpp **** #endif
 560:Adafruit_Fingerprint.cpp **** 
 561:Adafruit_Fingerprint.cpp ****     return;
 514               		.loc 3 561 5 is_stmt 1 view .LVU119
 515               	/* epilogue start */
 562:Adafruit_Fingerprint.cpp **** }
 516               		.loc 3 562 1 is_stmt 0 view .LVU120
 517 0112 CF91      		pop r28
GAS LISTING C:\Users\kenne\AppData\Local\Temp\ccnxErqW.s 			page 40


 518               	.LVL36:
 519               		.loc 3 562 1 view .LVU121
 520 0114 1F91      		pop r17
 521 0116 0F91      		pop r16
 522 0118 FF90      		pop r15
 523 011a EF90      		pop r14
 524               	.LVL37:
 525               		.loc 3 562 1 view .LVU122
 526 011c DF90      		pop r13
 527 011e CF90      		pop r12
 528 0120 BF90      		pop r11
 529 0122 AF90      		pop r10
 530 0124 0895      		ret
 531               		.cfi_endproc
 532               	.LFE107:
 534               		.section	.rodata._ZN20Adafruit_Fingerprint19getStructuredPacketEP27Adafruit_Fingerprint_Packetj.st
 535               	.LC0:
 536 0000 5469 6D65 		.string	"Timed out"
 536      6420 6F75 
 536      7400 
 537               	.LC1:
 538 000a 2530 3258 		.string	"%02X"
 538      00
 539               	.LC2:
 540 000f 2D00      		.string	"-"
 541               	.LC3:
 542 0011 0A20 7265 		.string	"\n received startcode"
 542      6365 6976 
 542      6564 2073 
 542      7461 7274 
 542      636F 6465 
 543               	.LC4:
 544 0026 0A20 7265 		.string	"\n return badpacket "
 544      7475 726E 
 544      2062 6164 
 544      7061 636B 
 544      6574 2000 
 545               	.LC5:
 546 003a 6361 7365 		.string	"case 5 \n"
 546      2035 200A 
 546      00
 547               	.LC6:
 548 0043 7061 636B 		.string	"package "
 548      6167 6520 
 548      00
 549               	.LC7:
 550 004c 3D00      		.string	"="
 551               	.LC8:
 552 004e 3B20 0A00 		.string	"; \n"
 553               	.LC9:
 554 0052 6361 7365 		.string	"case 6"
 554      2036 00
 555               	.LC10:
 556 0059 0A20 7265 		.string	"\n return fingerprint ok "
 556      7475 726E 
 556      2066 696E 
 556      6765 7270 
GAS LISTING C:\Users\kenne\AppData\Local\Temp\ccnxErqW.s 			page 41


 556      7269 6E74 
 557               		.section	.text._ZN20Adafruit_Fingerprint19getStructuredPacketEP27Adafruit_Fingerprint_Packetj,"ax"
 558               	.global	_ZN20Adafruit_Fingerprint19getStructuredPacketEP27Adafruit_Fingerprint_Packetj
 560               	_ZN20Adafruit_Fingerprint19getStructuredPacketEP27Adafruit_Fingerprint_Packetj:
 561               	.LVL38:
 562               	.LFB108:
 563:Adafruit_Fingerprint.cpp **** 
 564:Adafruit_Fingerprint.cpp **** /**************************************************************************/
 565:Adafruit_Fingerprint.cpp **** /*!
 566:Adafruit_Fingerprint.cpp ****     @brief   Helper function to receive data over UART from the sensor and
 567:Adafruit_Fingerprint.cpp ****    process it into a packet
 568:Adafruit_Fingerprint.cpp ****     @param   packet A structure containing the bytes received
 569:Adafruit_Fingerprint.cpp ****     @param   timeout how many milliseconds we're willing to wait
 570:Adafruit_Fingerprint.cpp ****     @returns <code>FINGERPRINT_OK</code> on success
 571:Adafruit_Fingerprint.cpp ****     @returns <code>FINGERPRINT_TIMEOUT</code> or
 572:Adafruit_Fingerprint.cpp ****    <code>FINGERPRINT_BADPACKET</code> on failure
 573:Adafruit_Fingerprint.cpp **** */
 574:Adafruit_Fingerprint.cpp **** /**************************************************************************/
 575:Adafruit_Fingerprint.cpp **** uint8_t Adafruit_Fingerprint::getStructuredPacket(Adafruit_Fingerprint_Packet *packet,
 576:Adafruit_Fingerprint.cpp ****         uint16_t timeout)
 577:Adafruit_Fingerprint.cpp **** {
 563               		.loc 3 577 1 is_stmt 1 view -0
 564               		.cfi_startproc
 565               		.loc 3 577 1 is_stmt 0 view .LVU124
 566 0000 4F92      		push r4
 567               		.cfi_def_cfa_offset 3
 568               		.cfi_offset 4, -2
 569 0002 5F92      		push r5
 570               		.cfi_def_cfa_offset 4
 571               		.cfi_offset 5, -3
 572 0004 6F92      		push r6
 573               		.cfi_def_cfa_offset 5
 574               		.cfi_offset 6, -4
 575 0006 7F92      		push r7
 576               		.cfi_def_cfa_offset 6
 577               		.cfi_offset 7, -5
 578 0008 8F92      		push r8
 579               		.cfi_def_cfa_offset 7
 580               		.cfi_offset 8, -6
 581 000a 9F92      		push r9
 582               		.cfi_def_cfa_offset 8
 583               		.cfi_offset 9, -7
 584 000c AF92      		push r10
 585               		.cfi_def_cfa_offset 9
 586               		.cfi_offset 10, -8
 587 000e BF92      		push r11
 588               		.cfi_def_cfa_offset 10
 589               		.cfi_offset 11, -9
 590 0010 CF92      		push r12
 591               		.cfi_def_cfa_offset 11
 592               		.cfi_offset 12, -10
 593 0012 DF92      		push r13
 594               		.cfi_def_cfa_offset 12
 595               		.cfi_offset 13, -11
 596 0014 EF92      		push r14
 597               		.cfi_def_cfa_offset 13
 598               		.cfi_offset 14, -12
GAS LISTING C:\Users\kenne\AppData\Local\Temp\ccnxErqW.s 			page 42


 599 0016 FF92      		push r15
 600               		.cfi_def_cfa_offset 14
 601               		.cfi_offset 15, -13
 602 0018 0F93      		push r16
 603               		.cfi_def_cfa_offset 15
 604               		.cfi_offset 16, -14
 605 001a 1F93      		push r17
 606               		.cfi_def_cfa_offset 16
 607               		.cfi_offset 17, -15
 608 001c CF93      		push r28
 609               		.cfi_def_cfa_offset 17
 610               		.cfi_offset 28, -16
 611 001e DF93      		push r29
 612               		.cfi_def_cfa_offset 18
 613               		.cfi_offset 29, -17
 614 0020 CDB7      		in r28,__SP_L__
 615 0022 DEB7      		in r29,__SP_H__
 616               		.cfi_def_cfa_register 28
 617 0024 2A97      		sbiw r28,10
 618               		.cfi_def_cfa_offset 28
 619 0026 0FB6      		in __tmp_reg__,__SREG__
 620 0028 F894      		cli
 621 002a DEBF      		out __SP_H__,r29
 622 002c 0FBE      		out __SREG__,__tmp_reg__
 623 002e CDBF      		out __SP_L__,r28
 624               	/* prologue: function */
 625               	/* frame size = 10 */
 626               	/* stack size = 26 */
 627               	.L__stack_usage = 26
 628 0030 682E      		mov r6,r24
 629 0032 792E      		mov r7,r25
 630 0034 C62E      		mov r12,r22
 631 0036 D72E      		mov r13,r23
 632 0038 A42E      		mov r10,r20
 633 003a B52E      		mov r11,r21
 578:Adafruit_Fingerprint.cpp ****     uint8_t byte;
 634               		.loc 3 578 5 is_stmt 1 view .LVU125
 579:Adafruit_Fingerprint.cpp ****     char temp[1];
 635               		.loc 3 579 5 view .LVU126
 580:Adafruit_Fingerprint.cpp ****     char cast[8];
 636               		.loc 3 580 5 view .LVU127
 581:Adafruit_Fingerprint.cpp ****     uint16_t idx = 0, timer = 0;
 637               		.loc 3 581 5 view .LVU128
 638               	.LVL39:
 582:Adafruit_Fingerprint.cpp ****     uint16_t segura =0;
 639               		.loc 3 582 5 view .LVU129
 581:Adafruit_Fingerprint.cpp ****     uint16_t idx = 0, timer = 0;
 640               		.loc 3 581 23 is_stmt 0 view .LVU130
 641 003c E12C      		mov r14,__zero_reg__
 642 003e F12C      		mov r15,__zero_reg__
 581:Adafruit_Fingerprint.cpp ****     uint16_t idx = 0, timer = 0;
 643               		.loc 3 581 14 view .LVU131
 644 0040 00E0      		ldi r16,0
 645 0042 10E0      		ldi r17,0
 646 0044 00C0      		rjmp .L12
 647               	.LVL40:
 648               	.L30:
GAS LISTING C:\Users\kenne\AppData\Local\Temp\ccnxErqW.s 			page 43


 583:Adafruit_Fingerprint.cpp **** 
 584:Adafruit_Fingerprint.cpp **** #ifdef FINGERPRINT_DEBUG
 585:Adafruit_Fingerprint.cpp ****     sendstring("<- ");
 586:Adafruit_Fingerprint.cpp **** #endif
 587:Adafruit_Fingerprint.cpp **** 
 588:Adafruit_Fingerprint.cpp ****     while(true) {
 589:Adafruit_Fingerprint.cpp ****         // while (!mySerial->available()) {
 590:Adafruit_Fingerprint.cpp ****         delayMs(1);
 591:Adafruit_Fingerprint.cpp ****         timer++;
 592:Adafruit_Fingerprint.cpp ****         if(timer >= timeout) {
 593:Adafruit_Fingerprint.cpp **** #ifdef FINGERPRINT_DEBUG
 594:Adafruit_Fingerprint.cpp ****             sendstringln("Timed out");
 595:Adafruit_Fingerprint.cpp **** #endif
 596:Adafruit_Fingerprint.cpp ****             sendstring("Timed out");
 649               		.loc 3 596 13 is_stmt 1 view .LVU132
 650               		.loc 3 596 23 is_stmt 0 view .LVU133
 651 0046 80E0      		ldi r24,lo8(.LC0)
 652 0048 90E0      		ldi r25,hi8(.LC0)
 653 004a 0E94 0000 		call _Z10sendstringPc
 654               	.LVL41:
 597:Adafruit_Fingerprint.cpp ****             return FINGERPRINT_TIMEOUT;
 655               		.loc 3 597 13 is_stmt 1 view .LVU134
 656               		.loc 3 597 20 is_stmt 0 view .LVU135
 657 004e 8FEF      		ldi r24,lo8(-1)
 658               	.LVL42:
 659               	.L11:
 660               	/* epilogue start */
 598:Adafruit_Fingerprint.cpp ****         }
 599:Adafruit_Fingerprint.cpp ****         // }
 600:Adafruit_Fingerprint.cpp ****         // byte = mySerial->read(); FUNO ORIGINAL
 601:Adafruit_Fingerprint.cpp ****         mySerial->read(&byte); //Problema pode estar aqui
 602:Adafruit_Fingerprint.cpp ****         sprintf(cast,"%02X",byte);
 603:Adafruit_Fingerprint.cpp **** 
 604:Adafruit_Fingerprint.cpp **** #ifdef FINGERPRINT_DEBUG
 605:Adafruit_Fingerprint.cpp ****         sendstring("0x");
 606:Adafruit_Fingerprint.cpp ****         sendstring(byte, HEX);
 607:Adafruit_Fingerprint.cpp ****         sendstring(", ");
 608:Adafruit_Fingerprint.cpp **** #endif
 609:Adafruit_Fingerprint.cpp ****         if (0){
 610:Adafruit_Fingerprint.cpp ****             segura++;
 611:Adafruit_Fingerprint.cpp ****         }
 612:Adafruit_Fingerprint.cpp ****         else
 613:Adafruit_Fingerprint.cpp ****         {
 614:Adafruit_Fingerprint.cpp ****                         sendstring("-");
 615:Adafruit_Fingerprint.cpp ****             //sendstring(cast);
 616:Adafruit_Fingerprint.cpp ****             switch(idx) {
 617:Adafruit_Fingerprint.cpp ****             case 0:
 618:Adafruit_Fingerprint.cpp ****                 if(byte != (FINGERPRINT_STARTCODE >> 8)) {
 619:Adafruit_Fingerprint.cpp ****                     sendstring("\n received startcode");
 620:Adafruit_Fingerprint.cpp ****                     continue;
 621:Adafruit_Fingerprint.cpp ****                 }
 622:Adafruit_Fingerprint.cpp ****                 packet->start_code = (uint16_t)byte << 8;
 623:Adafruit_Fingerprint.cpp ****                 break;
 624:Adafruit_Fingerprint.cpp ****             case 1:
 625:Adafruit_Fingerprint.cpp ****                 packet->start_code |= byte;
 626:Adafruit_Fingerprint.cpp ****                 if(packet->start_code != FINGERPRINT_STARTCODE) {
 627:Adafruit_Fingerprint.cpp ****                     sendstring("\n return badpacket ");
GAS LISTING C:\Users\kenne\AppData\Local\Temp\ccnxErqW.s 			page 44


 628:Adafruit_Fingerprint.cpp ****                     return FINGERPRINT_BADPACKET;
 629:Adafruit_Fingerprint.cpp ****                 }
 630:Adafruit_Fingerprint.cpp ****                 break;
 631:Adafruit_Fingerprint.cpp ****             case 2:
 632:Adafruit_Fingerprint.cpp ****             case 3:
 633:Adafruit_Fingerprint.cpp ****             case 4:
 634:Adafruit_Fingerprint.cpp ****             case 5:
 635:Adafruit_Fingerprint.cpp ****                 sendstring("case 5 \n");
 636:Adafruit_Fingerprint.cpp ****                 sendstring("package ");
 637:Adafruit_Fingerprint.cpp ****                 sprintf(temp,"%02X",idx-2);
 638:Adafruit_Fingerprint.cpp ****                 sendstring(temp); sendstring("=");
 639:Adafruit_Fingerprint.cpp ****                 sendstring(cast);sendstring("; \n");
 640:Adafruit_Fingerprint.cpp ****                 packet->address[idx - 2] = byte;
 641:Adafruit_Fingerprint.cpp ****                 break;
 642:Adafruit_Fingerprint.cpp ****             case 6:
 643:Adafruit_Fingerprint.cpp ****                 sendstring("case 6");
 644:Adafruit_Fingerprint.cpp ****                 packet->type = byte;
 645:Adafruit_Fingerprint.cpp ****                 break;
 646:Adafruit_Fingerprint.cpp ****             case 7:
 647:Adafruit_Fingerprint.cpp ****                 packet->length = (uint16_t)byte << 8;
 648:Adafruit_Fingerprint.cpp ****                 break;
 649:Adafruit_Fingerprint.cpp ****             case 8:
 650:Adafruit_Fingerprint.cpp ****                 packet->length |= byte;
 651:Adafruit_Fingerprint.cpp ****                 break;
 652:Adafruit_Fingerprint.cpp ****             default:
 653:Adafruit_Fingerprint.cpp ****                 packet->data[idx - 9] = byte;
 654:Adafruit_Fingerprint.cpp ****                 if((idx - 8) == packet->length) {
 655:Adafruit_Fingerprint.cpp ****     #ifdef FINGERPRINT_DEBUG
 656:Adafruit_Fingerprint.cpp ****                     sendstringln(" OK ");
 657:Adafruit_Fingerprint.cpp ****     #endif
 658:Adafruit_Fingerprint.cpp ****                     sendstring("\n return fingerprint ok ");
 659:Adafruit_Fingerprint.cpp ****                     return FINGERPRINT_OK;
 660:Adafruit_Fingerprint.cpp ****                 }
 661:Adafruit_Fingerprint.cpp ****                 break;
 662:Adafruit_Fingerprint.cpp ****             }
 663:Adafruit_Fingerprint.cpp ****         }
 664:Adafruit_Fingerprint.cpp ****         idx++;
 665:Adafruit_Fingerprint.cpp ****         if((idx + 9) >= sizeof(packet->data)) {
 666:Adafruit_Fingerprint.cpp ****             sendstring("\n return badpacket ");
 667:Adafruit_Fingerprint.cpp ****             return FINGERPRINT_BADPACKET;
 668:Adafruit_Fingerprint.cpp ****         }
 669:Adafruit_Fingerprint.cpp ****     }
 670:Adafruit_Fingerprint.cpp ****     // Shouldn't get here so...
 671:Adafruit_Fingerprint.cpp ****     return FINGERPRINT_BADPACKET;
 672:Adafruit_Fingerprint.cpp **** }
 661               		.loc 3 672 1 view .LVU136
 662 0050 2A96      		adiw r28,10
 663 0052 0FB6      		in __tmp_reg__,__SREG__
 664 0054 F894      		cli
 665 0056 DEBF      		out __SP_H__,r29
 666 0058 0FBE      		out __SREG__,__tmp_reg__
 667 005a CDBF      		out __SP_L__,r28
 668 005c DF91      		pop r29
 669 005e CF91      		pop r28
 670 0060 1F91      		pop r17
 671 0062 0F91      		pop r16
 672 0064 FF90      		pop r15
GAS LISTING C:\Users\kenne\AppData\Local\Temp\ccnxErqW.s 			page 45


 673 0066 EF90      		pop r14
 674               	.LVL43:
 675               		.loc 3 672 1 view .LVU137
 676 0068 DF90      		pop r13
 677 006a CF90      		pop r12
 678 006c BF90      		pop r11
 679 006e AF90      		pop r10
 680 0070 9F90      		pop r9
 681 0072 8F90      		pop r8
 682 0074 7F90      		pop r7
 683 0076 6F90      		pop r6
 684 0078 5F90      		pop r5
 685 007a 4F90      		pop r4
 686 007c 0895      		ret
 687               	.LVL44:
 688               	.L31:
 616:Adafruit_Fingerprint.cpp ****             case 0:
 689               		.loc 3 616 13 view .LVU138
 690 007e 0115      		cp r16,__zero_reg__
 691 0080 1105      		cpc r17,__zero_reg__
 692 0082 01F0      		breq .+2
 693 0084 00C0      		rjmp .L20
 617:Adafruit_Fingerprint.cpp ****                 if(byte != (FINGERPRINT_STARTCODE >> 8)) {
 694               		.loc 3 617 13 is_stmt 1 view .LVU139
 618:Adafruit_Fingerprint.cpp ****                     sendstring("\n received startcode");
 695               		.loc 3 618 17 view .LVU140
 618:Adafruit_Fingerprint.cpp ****                     sendstring("\n received startcode");
 696               		.loc 3 618 25 is_stmt 0 view .LVU141
 697 0086 8981      		ldd r24,Y+1
 618:Adafruit_Fingerprint.cpp ****                     sendstring("\n received startcode");
 698               		.loc 3 618 17 view .LVU142
 699 0088 8F3E      		cpi r24,lo8(-17)
 700 008a 01F4      		brne .L28
 622:Adafruit_Fingerprint.cpp ****                 break;
 701               		.loc 3 622 17 is_stmt 1 view .LVU143
 622:Adafruit_Fingerprint.cpp ****                 break;
 702               		.loc 3 622 36 is_stmt 0 view .LVU144
 703 008c F601      		movw r30,r12
 704 008e 1082      		st Z,__zero_reg__
 705 0090 8183      		std Z+1,r24
 623:Adafruit_Fingerprint.cpp ****             case 1:
 706               		.loc 3 623 17 is_stmt 1 view .LVU145
 707 0092 00C0      		rjmp .L26
 708               	.L16:
 616:Adafruit_Fingerprint.cpp ****             case 0:
 709               		.loc 3 616 13 is_stmt 0 view .LVU146
 710 0094 0730      		cpi r16,7
 711 0096 1105      		cpc r17,__zero_reg__
 712 0098 01F4      		brne .+2
 713 009a 00C0      		rjmp .L22
 616:Adafruit_Fingerprint.cpp ****             case 0:
 714               		.loc 3 616 13 view .LVU147
 715 009c 0830      		cpi r16,8
 716 009e 1105      		cpc r17,__zero_reg__
 717 00a0 01F0      		breq .+2
 718 00a2 00C0      		rjmp .L20
 649:Adafruit_Fingerprint.cpp ****                 packet->length |= byte;
GAS LISTING C:\Users\kenne\AppData\Local\Temp\ccnxErqW.s 			page 46


 719               		.loc 3 649 13 is_stmt 1 view .LVU148
 650:Adafruit_Fingerprint.cpp ****                 break;
 720               		.loc 3 650 17 view .LVU149
 650:Adafruit_Fingerprint.cpp ****                 break;
 721               		.loc 3 650 25 is_stmt 0 view .LVU150
 722 00a4 F601      		movw r30,r12
 723 00a6 8781      		ldd r24,Z+7
 724 00a8 9085      		ldd r25,Z+8
 650:Adafruit_Fingerprint.cpp ****                 break;
 725               		.loc 3 650 35 view .LVU151
 726 00aa 2981      		ldd r18,Y+1
 650:Adafruit_Fingerprint.cpp ****                 break;
 727               		.loc 3 650 32 view .LVU152
 728 00ac 822B      		or r24,r18
 729 00ae 9087      		std Z+8,r25
 730 00b0 8783      		std Z+7,r24
 651:Adafruit_Fingerprint.cpp ****             default:
 731               		.loc 3 651 17 is_stmt 1 view .LVU153
 732 00b2 00C0      		rjmp .L26
 733               	.L28:
 619:Adafruit_Fingerprint.cpp ****                     continue;
 734               		.loc 3 619 21 discriminator 1 view .LVU154
 619:Adafruit_Fingerprint.cpp ****                     continue;
 735               		.loc 3 619 31 is_stmt 0 discriminator 1 view .LVU155
 736 00b4 80E0      		ldi r24,lo8(.LC3)
 737 00b6 90E0      		ldi r25,hi8(.LC3)
 738 00b8 0E94 0000 		call _Z10sendstringPc
 739               	.LVL45:
 620:Adafruit_Fingerprint.cpp ****                 }
 740               		.loc 3 620 21 is_stmt 1 discriminator 1 view .LVU156
 741 00bc C801      		movw r24,r16
 742 00be 00C0      		rjmp .L25
 743               	.L17:
 624:Adafruit_Fingerprint.cpp ****                 packet->start_code |= byte;
 744               		.loc 3 624 13 view .LVU157
 625:Adafruit_Fingerprint.cpp ****                 if(packet->start_code != FINGERPRINT_STARTCODE) {
 745               		.loc 3 625 17 view .LVU158
 625:Adafruit_Fingerprint.cpp ****                 if(packet->start_code != FINGERPRINT_STARTCODE) {
 746               		.loc 3 625 25 is_stmt 0 view .LVU159
 747 00c0 F601      		movw r30,r12
 748 00c2 8081      		ld r24,Z
 749 00c4 9181      		ldd r25,Z+1
 625:Adafruit_Fingerprint.cpp ****                 if(packet->start_code != FINGERPRINT_STARTCODE) {
 750               		.loc 3 625 39 view .LVU160
 751 00c6 2981      		ldd r18,Y+1
 625:Adafruit_Fingerprint.cpp ****                 if(packet->start_code != FINGERPRINT_STARTCODE) {
 752               		.loc 3 625 36 view .LVU161
 753 00c8 822B      		or r24,r18
 754 00ca 9183      		std Z+1,r25
 755 00cc 8083      		st Z,r24
 626:Adafruit_Fingerprint.cpp ****                     sendstring("\n return badpacket ");
 756               		.loc 3 626 17 is_stmt 1 view .LVU162
 757 00ce 8130      		cpi r24,1
 758 00d0 9F4E      		sbci r25,-17
 759 00d2 01F0      		breq .L26
 627:Adafruit_Fingerprint.cpp ****                     return FINGERPRINT_BADPACKET;
 760               		.loc 3 627 21 view .LVU163
GAS LISTING C:\Users\kenne\AppData\Local\Temp\ccnxErqW.s 			page 47


 627:Adafruit_Fingerprint.cpp ****                     return FINGERPRINT_BADPACKET;
 761               		.loc 3 627 31 is_stmt 0 view .LVU164
 762 00d4 80E0      		ldi r24,lo8(.LC4)
 763 00d6 90E0      		ldi r25,hi8(.LC4)
 764 00d8 0E94 0000 		call _Z10sendstringPc
 765               	.LVL46:
 628:Adafruit_Fingerprint.cpp ****                 }
 766               		.loc 3 628 21 is_stmt 1 view .LVU165
 628:Adafruit_Fingerprint.cpp ****                 }
 767               		.loc 3 628 28 is_stmt 0 view .LVU166
 768 00dc 8EEF      		ldi r24,lo8(-2)
 769 00de 00C0      		rjmp .L11
 770               	.L15:
 642:Adafruit_Fingerprint.cpp ****                 sendstring("case 6");
 771               		.loc 3 642 13 is_stmt 1 view .LVU167
 643:Adafruit_Fingerprint.cpp ****                 packet->type = byte;
 772               		.loc 3 643 17 view .LVU168
 643:Adafruit_Fingerprint.cpp ****                 packet->type = byte;
 773               		.loc 3 643 27 is_stmt 0 view .LVU169
 774 00e0 80E0      		ldi r24,lo8(.LC9)
 775 00e2 90E0      		ldi r25,hi8(.LC9)
 776 00e4 0E94 0000 		call _Z10sendstringPc
 777               	.LVL47:
 644:Adafruit_Fingerprint.cpp ****                 break;
 778               		.loc 3 644 17 is_stmt 1 view .LVU170
 644:Adafruit_Fingerprint.cpp ****                 break;
 779               		.loc 3 644 30 is_stmt 0 view .LVU171
 780 00e8 8981      		ldd r24,Y+1
 781 00ea F601      		movw r30,r12
 782 00ec 8683      		std Z+6,r24
 645:Adafruit_Fingerprint.cpp ****             case 7:
 783               		.loc 3 645 17 is_stmt 1 view .LVU172
 784               	.L26:
 664:Adafruit_Fingerprint.cpp ****         if((idx + 9) >= sizeof(packet->data)) {
 785               		.loc 3 664 9 view .LVU173
 664:Adafruit_Fingerprint.cpp ****         if((idx + 9) >= sizeof(packet->data)) {
 786               		.loc 3 664 12 is_stmt 0 view .LVU174
 787 00ee C801      		movw r24,r16
 788 00f0 0196      		adiw r24,1
 789               	.LVL48:
 665:Adafruit_Fingerprint.cpp ****             sendstring("\n return badpacket ");
 790               		.loc 3 665 9 is_stmt 1 view .LVU175
 665:Adafruit_Fingerprint.cpp ****             sendstring("\n return badpacket ");
 791               		.loc 3 665 17 is_stmt 0 view .LVU176
 792 00f2 065F      		subi r16,-10
 793 00f4 1F4F      		sbci r17,-1
 665:Adafruit_Fingerprint.cpp ****             sendstring("\n return badpacket ");
 794               		.loc 3 665 9 view .LVU177
 795 00f6 0034      		cpi r16,64
 796 00f8 1105      		cpc r17,__zero_reg__
 797 00fa 00F0      		brlo .+2
 798 00fc 00C0      		rjmp .L29
 799               	.L25:
 620:Adafruit_Fingerprint.cpp ****                 }
 800               		.loc 3 620 21 view .LVU178
 801 00fe 8C01      		movw r16,r24
 802               	.LVL49:
GAS LISTING C:\Users\kenne\AppData\Local\Temp\ccnxErqW.s 			page 48


 803               	.L12:
 588:Adafruit_Fingerprint.cpp ****         // while (!mySerial->available()) {
 804               		.loc 3 588 5 is_stmt 1 view .LVU179
 590:Adafruit_Fingerprint.cpp ****         timer++;
 805               		.loc 3 590 9 view .LVU180
 806               	.LBB11:
 807               	.LBI11:
 166:c:\d\ifsc\vscodeleandro\ex\toolchains\avr-gcc\avr\include\util\delay.h **** {
 808               		.loc 4 166 1 view .LVU181
 809               	.LBB12:
 168:c:\d\ifsc\vscodeleandro\ex\toolchains\avr-gcc\avr\include\util\delay.h **** #if __HAS_DELAY_CYCLES && defined(__OPTIMIZE__) && \
 810               		.loc 4 168 2 view .LVU182
 172:c:\d\ifsc\vscodeleandro\ex\toolchains\avr-gcc\avr\include\util\delay.h **** 	extern void __builtin_avr_delay_cycles(unsigned long);
 811               		.loc 4 172 2 view .LVU183
 173:c:\d\ifsc\vscodeleandro\ex\toolchains\avr-gcc\avr\include\util\delay.h **** 	__tmp = ((F_CPU) / 1e3) * __ms;
 812               		.loc 4 173 2 view .LVU184
 174:c:\d\ifsc\vscodeleandro\ex\toolchains\avr-gcc\avr\include\util\delay.h **** 
 813               		.loc 4 174 2 view .LVU185
 184:c:\d\ifsc\vscodeleandro\ex\toolchains\avr-gcc\avr\include\util\delay.h **** 	#endif
 814               		.loc 4 184 3 view .LVU186
 815               		.loc 4 187 2 view .LVU187
 816               		.loc 4 187 28 is_stmt 0 view .LVU188
 817 0100 8FE9      		ldi r24,lo8(3999)
 818 0102 9FE0      		ldi r25,hi8(3999)
 819 0104 0197      	1:	sbiw r24,1
 820 0106 01F4      		brne 1b
 821 0108 00C0      		rjmp .
 822 010a 0000      		nop
 823               	.LVL50:
 824               		.loc 4 187 28 view .LVU189
 825               	.LBE12:
 826               	.LBE11:
 591:Adafruit_Fingerprint.cpp ****         if(timer >= timeout) {
 827               		.loc 3 591 9 is_stmt 1 view .LVU190
 591:Adafruit_Fingerprint.cpp ****         if(timer >= timeout) {
 828               		.loc 3 591 14 is_stmt 0 view .LVU191
 829 010c 9FEF      		ldi r25,-1
 830 010e E91A      		sub r14,r25
 831 0110 F90A      		sbc r15,r25
 832               	.LVL51:
 592:Adafruit_Fingerprint.cpp **** #ifdef FINGERPRINT_DEBUG
 833               		.loc 3 592 9 is_stmt 1 view .LVU192
 834 0112 EA14      		cp r14,r10
 835 0114 FB04      		cpc r15,r11
 836 0116 00F0      		brlo .+2
 837 0118 00C0      		rjmp .L30
 601:Adafruit_Fingerprint.cpp ****         sprintf(cast,"%02X",byte);
 838               		.loc 3 601 9 view .LVU193
 601:Adafruit_Fingerprint.cpp ****         sprintf(cast,"%02X",byte);
 839               		.loc 3 601 23 is_stmt 0 view .LVU194
 840 011a BE01      		movw r22,r28
 841 011c 6F5F      		subi r22,-1
 842 011e 7F4F      		sbci r23,-1
 843 0120 F301      		movw r30,r6
 844 0122 84A9      		ldd r24,Z+52
 845 0124 95A9      		ldd r25,Z+53
 846 0126 0E94 0000 		call _ZN6Usart04readEPh
GAS LISTING C:\Users\kenne\AppData\Local\Temp\ccnxErqW.s 			page 49


 847               	.LVL52:
 602:Adafruit_Fingerprint.cpp **** 
 848               		.loc 3 602 9 is_stmt 1 view .LVU195
 602:Adafruit_Fingerprint.cpp **** 
 849               		.loc 3 602 16 is_stmt 0 view .LVU196
 850 012a 8981      		ldd r24,Y+1
 851 012c 1F92      		push __zero_reg__
 852 012e 8F93      		push r24
 853 0130 80E0      		ldi r24,lo8(.LC1)
 854 0132 90E0      		ldi r25,hi8(.LC1)
 855 0134 9F93      		push r25
 856 0136 8F93      		push r24
 857 0138 CE01      		movw r24,r28
 858 013a 0396      		adiw r24,3
 859 013c 9F93      		push r25
 860 013e 8F93      		push r24
 861 0140 0E94 0000 		call sprintf
 862               	.LVL53:
 609:Adafruit_Fingerprint.cpp ****             segura++;
 863               		.loc 3 609 9 is_stmt 1 view .LVU197
 614:Adafruit_Fingerprint.cpp ****             //sendstring(cast);
 864               		.loc 3 614 25 view .LVU198
 614:Adafruit_Fingerprint.cpp ****             //sendstring(cast);
 865               		.loc 3 614 35 is_stmt 0 view .LVU199
 866 0144 80E0      		ldi r24,lo8(.LC2)
 867 0146 90E0      		ldi r25,hi8(.LC2)
 868 0148 0E94 0000 		call _Z10sendstringPc
 869               	.LVL54:
 616:Adafruit_Fingerprint.cpp ****             case 0:
 870               		.loc 3 616 13 is_stmt 1 view .LVU200
 871 014c 0F90      		pop __tmp_reg__
 872 014e 0F90      		pop __tmp_reg__
 873 0150 0F90      		pop __tmp_reg__
 874 0152 0F90      		pop __tmp_reg__
 875 0154 0F90      		pop __tmp_reg__
 876 0156 0F90      		pop __tmp_reg__
 877 0158 0630      		cpi r16,6
 878 015a 1105      		cpc r17,__zero_reg__
 879 015c 01F0      		breq .L15
 880 015e 00F0      		brlo .+2
 881 0160 00C0      		rjmp .L16
 882 0162 0130      		cpi r16,1
 883 0164 1105      		cpc r17,__zero_reg__
 884 0166 01F4      		brne .+2
 885 0168 00C0      		rjmp .L17
 886 016a 00F4      		brsh .+2
 887 016c 00C0      		rjmp .L31
 888 016e C801      		movw r24,r16
 889 0170 0297      		sbiw r24,2
 890 0172 0497      		sbiw r24,4
 891 0174 00F4      		brsh .L20
 631:Adafruit_Fingerprint.cpp ****             case 3:
 892               		.loc 3 631 13 view .LVU201
 632:Adafruit_Fingerprint.cpp ****             case 4:
 893               		.loc 3 632 13 view .LVU202
 633:Adafruit_Fingerprint.cpp ****             case 5:
 894               		.loc 3 633 13 view .LVU203
GAS LISTING C:\Users\kenne\AppData\Local\Temp\ccnxErqW.s 			page 50


 634:Adafruit_Fingerprint.cpp ****                 sendstring("case 5 \n");
 895               		.loc 3 634 13 view .LVU204
 635:Adafruit_Fingerprint.cpp ****                 sendstring("package ");
 896               		.loc 3 635 17 view .LVU205
 635:Adafruit_Fingerprint.cpp ****                 sendstring("package ");
 897               		.loc 3 635 27 is_stmt 0 view .LVU206
 898 0176 80E0      		ldi r24,lo8(.LC5)
 899 0178 90E0      		ldi r25,hi8(.LC5)
 900 017a 0E94 0000 		call _Z10sendstringPc
 901               	.LVL55:
 636:Adafruit_Fingerprint.cpp ****                 sprintf(temp,"%02X",idx-2);
 902               		.loc 3 636 17 is_stmt 1 view .LVU207
 636:Adafruit_Fingerprint.cpp ****                 sprintf(temp,"%02X",idx-2);
 903               		.loc 3 636 27 is_stmt 0 view .LVU208
 904 017e 80E0      		ldi r24,lo8(.LC6)
 905 0180 90E0      		ldi r25,hi8(.LC6)
 906 0182 0E94 0000 		call _Z10sendstringPc
 907               	.LVL56:
 637:Adafruit_Fingerprint.cpp ****                 sendstring(temp); sendstring("=");
 908               		.loc 3 637 17 is_stmt 1 view .LVU209
 637:Adafruit_Fingerprint.cpp ****                 sendstring(temp); sendstring("=");
 909               		.loc 3 637 24 is_stmt 0 view .LVU210
 910 0186 2801      		movw r4,r16
 911 0188 22E0      		ldi r18,2
 912 018a 421A      		sub r4,r18
 913 018c 5108      		sbc r5,__zero_reg__
 914 018e 5F92      		push r5
 915 0190 4F92      		push r4
 916 0192 80E0      		ldi r24,lo8(.LC1)
 917 0194 90E0      		ldi r25,hi8(.LC1)
 918 0196 9F93      		push r25
 919 0198 8F93      		push r24
 920 019a 4E01      		movw r8,r28
 921 019c 82E0      		ldi r24,2
 922 019e 880E      		add r8,r24
 923 01a0 911C      		adc r9,__zero_reg__
 924 01a2 9F92      		push r9
 925 01a4 8F92      		push r8
 926 01a6 0E94 0000 		call sprintf
 927               	.LVL57:
 638:Adafruit_Fingerprint.cpp ****                 sendstring(cast);sendstring("; \n");
 928               		.loc 3 638 17 is_stmt 1 view .LVU211
 638:Adafruit_Fingerprint.cpp ****                 sendstring(cast);sendstring("; \n");
 929               		.loc 3 638 27 is_stmt 0 view .LVU212
 930 01aa C401      		movw r24,r8
 931 01ac 0E94 0000 		call _Z10sendstringPc
 932               	.LVL58:
 638:Adafruit_Fingerprint.cpp ****                 sendstring(cast);sendstring("; \n");
 933               		.loc 3 638 35 is_stmt 1 view .LVU213
 638:Adafruit_Fingerprint.cpp ****                 sendstring(cast);sendstring("; \n");
 934               		.loc 3 638 45 is_stmt 0 view .LVU214
 935 01b0 80E0      		ldi r24,lo8(.LC7)
 936 01b2 90E0      		ldi r25,hi8(.LC7)
 937 01b4 0E94 0000 		call _Z10sendstringPc
 938               	.LVL59:
 639:Adafruit_Fingerprint.cpp ****                 packet->address[idx - 2] = byte;
 939               		.loc 3 639 17 is_stmt 1 view .LVU215
GAS LISTING C:\Users\kenne\AppData\Local\Temp\ccnxErqW.s 			page 51


 639:Adafruit_Fingerprint.cpp ****                 packet->address[idx - 2] = byte;
 940               		.loc 3 639 27 is_stmt 0 view .LVU216
 941 01b8 CE01      		movw r24,r28
 942 01ba 0396      		adiw r24,3
 943 01bc 0E94 0000 		call _Z10sendstringPc
 944               	.LVL60:
 639:Adafruit_Fingerprint.cpp ****                 packet->address[idx - 2] = byte;
 945               		.loc 3 639 34 is_stmt 1 view .LVU217
 639:Adafruit_Fingerprint.cpp ****                 packet->address[idx - 2] = byte;
 946               		.loc 3 639 44 is_stmt 0 view .LVU218
 947 01c0 80E0      		ldi r24,lo8(.LC8)
 948 01c2 90E0      		ldi r25,hi8(.LC8)
 949 01c4 0E94 0000 		call _Z10sendstringPc
 950               	.LVL61:
 640:Adafruit_Fingerprint.cpp ****                 break;
 951               		.loc 3 640 17 is_stmt 1 view .LVU219
 640:Adafruit_Fingerprint.cpp ****                 break;
 952               		.loc 3 640 42 is_stmt 0 view .LVU220
 953 01c8 F601      		movw r30,r12
 954 01ca E40D      		add r30,r4
 955 01cc F51D      		adc r31,r5
 956 01ce 8981      		ldd r24,Y+1
 957 01d0 8283      		std Z+2,r24
 641:Adafruit_Fingerprint.cpp ****             case 6:
 958               		.loc 3 641 17 is_stmt 1 view .LVU221
 959 01d2 0F90      		pop __tmp_reg__
 960 01d4 0F90      		pop __tmp_reg__
 961 01d6 0F90      		pop __tmp_reg__
 962 01d8 0F90      		pop __tmp_reg__
 963 01da 0F90      		pop __tmp_reg__
 964 01dc 0F90      		pop __tmp_reg__
 965 01de 00C0      		rjmp .L26
 966               	.L22:
 646:Adafruit_Fingerprint.cpp ****                 packet->length = (uint16_t)byte << 8;
 967               		.loc 3 646 13 view .LVU222
 647:Adafruit_Fingerprint.cpp ****                 break;
 968               		.loc 3 647 17 view .LVU223
 647:Adafruit_Fingerprint.cpp ****                 break;
 969               		.loc 3 647 34 is_stmt 0 view .LVU224
 970 01e0 8981      		ldd r24,Y+1
 647:Adafruit_Fingerprint.cpp ****                 break;
 971               		.loc 3 647 32 view .LVU225
 972 01e2 F601      		movw r30,r12
 973 01e4 1782      		std Z+7,__zero_reg__
 974 01e6 8087      		std Z+8,r24
 648:Adafruit_Fingerprint.cpp ****             case 8:
 975               		.loc 3 648 17 is_stmt 1 view .LVU226
 976 01e8 00C0      		rjmp .L26
 977               	.L20:
 652:Adafruit_Fingerprint.cpp ****                 packet->data[idx - 9] = byte;
 978               		.loc 3 652 13 view .LVU227
 653:Adafruit_Fingerprint.cpp ****                 if((idx - 8) == packet->length) {
 979               		.loc 3 653 17 view .LVU228
 653:Adafruit_Fingerprint.cpp ****                 if((idx - 8) == packet->length) {
 980               		.loc 3 653 34 is_stmt 0 view .LVU229
 981 01ea F801      		movw r30,r16
 982 01ec 3997      		sbiw r30,9
GAS LISTING C:\Users\kenne\AppData\Local\Temp\ccnxErqW.s 			page 52


 653:Adafruit_Fingerprint.cpp ****                 if((idx - 8) == packet->length) {
 983               		.loc 3 653 39 view .LVU230
 984 01ee EC0D      		add r30,r12
 985 01f0 FD1D      		adc r31,r13
 986 01f2 8981      		ldd r24,Y+1
 987 01f4 8187      		std Z+9,r24
 654:Adafruit_Fingerprint.cpp ****     #ifdef FINGERPRINT_DEBUG
 988               		.loc 3 654 17 is_stmt 1 view .LVU231
 654:Adafruit_Fingerprint.cpp ****     #ifdef FINGERPRINT_DEBUG
 989               		.loc 3 654 41 is_stmt 0 view .LVU232
 990 01f6 F601      		movw r30,r12
 991 01f8 2781      		ldd r18,Z+7
 992 01fa 3085      		ldd r19,Z+8
 654:Adafruit_Fingerprint.cpp ****     #ifdef FINGERPRINT_DEBUG
 993               		.loc 3 654 17 view .LVU233
 994 01fc C801      		movw r24,r16
 995 01fe 0897      		sbiw r24,8
 996 0200 8217      		cp r24,r18
 997 0202 9307      		cpc r25,r19
 998 0204 01F0      		breq .+2
 999 0206 00C0      		rjmp .L26
 658:Adafruit_Fingerprint.cpp ****                     return FINGERPRINT_OK;
 1000               		.loc 3 658 21 is_stmt 1 view .LVU234
 658:Adafruit_Fingerprint.cpp ****                     return FINGERPRINT_OK;
 1001               		.loc 3 658 31 is_stmt 0 view .LVU235
 1002 0208 80E0      		ldi r24,lo8(.LC10)
 1003 020a 90E0      		ldi r25,hi8(.LC10)
 1004 020c 0E94 0000 		call _Z10sendstringPc
 1005               	.LVL62:
 659:Adafruit_Fingerprint.cpp ****                 }
 1006               		.loc 3 659 21 is_stmt 1 view .LVU236
 659:Adafruit_Fingerprint.cpp ****                 }
 1007               		.loc 3 659 28 is_stmt 0 view .LVU237
 1008 0210 80E0      		ldi r24,0
 1009 0212 00C0      		rjmp .L11
 1010               	.LVL63:
 1011               	.L29:
 666:Adafruit_Fingerprint.cpp ****             return FINGERPRINT_BADPACKET;
 1012               		.loc 3 666 13 is_stmt 1 view .LVU238
 666:Adafruit_Fingerprint.cpp ****             return FINGERPRINT_BADPACKET;
 1013               		.loc 3 666 23 is_stmt 0 view .LVU239
 1014 0214 80E0      		ldi r24,lo8(.LC4)
 1015 0216 90E0      		ldi r25,hi8(.LC4)
 1016               	.LVL64:
 666:Adafruit_Fingerprint.cpp ****             return FINGERPRINT_BADPACKET;
 1017               		.loc 3 666 23 view .LVU240
 1018 0218 0E94 0000 		call _Z10sendstringPc
 1019               	.LVL65:
 667:Adafruit_Fingerprint.cpp ****         }
 1020               		.loc 3 667 13 is_stmt 1 view .LVU241
 667:Adafruit_Fingerprint.cpp ****         }
 1021               		.loc 3 667 20 is_stmt 0 view .LVU242
 1022 021c 8EEF      		ldi r24,lo8(-2)
 1023 021e 00C0      		rjmp .L11
 1024               		.cfi_endproc
 1025               	.LFE108:
 1027               		.section	.text._ZN20Adafruit_Fingerprint13checkPasswordEv,"ax",@progbits
GAS LISTING C:\Users\kenne\AppData\Local\Temp\ccnxErqW.s 			page 53


 1028               	.global	_ZN20Adafruit_Fingerprint13checkPasswordEv
 1030               	_ZN20Adafruit_Fingerprint13checkPasswordEv:
 1031               	.LVL66:
 1032               	.LFB87:
 148:Adafruit_Fingerprint.cpp ****     GET_CMD_PACKET(FINGERPRINT_VERIFYPASSWORD, (uint8_t)(thePassword >> 24),
 1033               		.loc 3 148 1 is_stmt 1 view -0
 1034               		.cfi_startproc
 148:Adafruit_Fingerprint.cpp ****     GET_CMD_PACKET(FINGERPRINT_VERIFYPASSWORD, (uint8_t)(thePassword >> 24),
 1035               		.loc 3 148 1 is_stmt 0 view .LVU244
 1036 0000 0F93      		push r16
 1037               		.cfi_def_cfa_offset 3
 1038               		.cfi_offset 16, -2
 1039 0002 1F93      		push r17
 1040               		.cfi_def_cfa_offset 4
 1041               		.cfi_offset 17, -3
 1042 0004 CF93      		push r28
 1043               		.cfi_def_cfa_offset 5
 1044               		.cfi_offset 28, -4
 1045 0006 DF93      		push r29
 1046               		.cfi_def_cfa_offset 6
 1047               		.cfi_offset 29, -5
 1048 0008 CDB7      		in r28,__SP_L__
 1049 000a DEB7      		in r29,__SP_H__
 1050               		.cfi_def_cfa_register 28
 1051 000c CE54      		subi r28,78
 1052 000e D109      		sbc r29,__zero_reg__
 1053               		.cfi_def_cfa_offset 84
 1054 0010 0FB6      		in __tmp_reg__,__SREG__
 1055 0012 F894      		cli
 1056 0014 DEBF      		out __SP_H__,r29
 1057 0016 0FBE      		out __SREG__,__tmp_reg__
 1058 0018 CDBF      		out __SP_L__,r28
 1059               	/* prologue: function */
 1060               	/* frame size = 78 */
 1061               	/* stack size = 82 */
 1062               	.L__stack_usage = 82
 1063 001a 082F      		mov r16,r24
 1064 001c 192F      		mov r17,r25
 149:Adafruit_Fingerprint.cpp ****             (uint8_t)(thePassword >> 16), (uint8_t)(thePassword >> 8),
 1065               		.loc 3 149 5 is_stmt 1 view .LVU245
 1066 001e 9E01      		movw r18,r28
 1067 0020 2F5F      		subi r18,-1
 1068 0022 3F4F      		sbci r19,-1
 1069 0024 85E0      		ldi r24,lo8(5)
 1070               	.LVL67:
 149:Adafruit_Fingerprint.cpp ****             (uint8_t)(thePassword >> 16), (uint8_t)(thePassword >> 8),
 1071               		.loc 3 149 5 is_stmt 0 view .LVU246
 1072 0026 F901      		movw r30,r18
 1073               		0:
 1074 0028 1192      		st Z+,__zero_reg__
 1075 002a 8A95      		dec r24
 1076 002c 01F4      		brne 0b
 1077 002e 83E1      		ldi r24,lo8(19)
 1078 0030 8983      		std Y+1,r24
 1079 0032 F801      		movw r30,r16
 1080 0034 8689      		ldd r24,Z+22
 1081 0036 9789      		ldd r25,Z+23
GAS LISTING C:\Users\kenne\AppData\Local\Temp\ccnxErqW.s 			page 54


 1082 0038 408D      		ldd r20,Z+24
 1083 003a 518D      		ldd r21,Z+25
 1084 003c 5A83      		std Y+2,r21
 1085 003e 4B83      		std Y+3,r20
 1086 0040 9C83      		std Y+4,r25
 1087 0042 8D83      		std Y+5,r24
 149:Adafruit_Fingerprint.cpp ****             (uint8_t)(thePassword >> 16), (uint8_t)(thePassword >> 8),
 1088               		.loc 3 149 5 is_stmt 1 view .LVU247
 1089 0044 45E0      		ldi r20,lo8(5)
 1090 0046 50E0      		ldi r21,0
 1091 0048 61E0      		ldi r22,lo8(1)
 1092 004a CE01      		movw r24,r28
 1093 004c 0696      		adiw r24,6
 1094 004e 0E94 0000 		call _ZN27Adafruit_Fingerprint_PacketC1EhjPh
 1095               	.LVL68:
 149:Adafruit_Fingerprint.cpp ****             (uint8_t)(thePassword >> 16), (uint8_t)(thePassword >> 8),
 1096               		.loc 3 149 5 view .LVU248
 1097 0052 BE01      		movw r22,r28
 1098 0054 6A5F      		subi r22,-6
 1099 0056 7F4F      		sbci r23,-1
 1100 0058 C801      		movw r24,r16
 1101 005a 0E94 0000 		call _ZN20Adafruit_Fingerprint21writeStructuredPacketERK27Adafruit_Fingerprint_Packet
 1102               	.LVL69:
 149:Adafruit_Fingerprint.cpp ****             (uint8_t)(thePassword >> 16), (uint8_t)(thePassword >> 8),
 1103               		.loc 3 149 5 view .LVU249
 1104 005e 48EE      		ldi r20,lo8(-24)
 1105 0060 53E0      		ldi r21,lo8(3)
 1106 0062 BE01      		movw r22,r28
 1107 0064 6A5F      		subi r22,-6
 1108 0066 7F4F      		sbci r23,-1
 1109 0068 C801      		movw r24,r16
 1110 006a 0E94 0000 		call _ZN20Adafruit_Fingerprint19getStructuredPacketEP27Adafruit_Fingerprint_Packetj
 1111               	.LVL70:
 1112 006e 8111      		cpse r24,__zero_reg__
 1113 0070 00C0      		rjmp .L34
 149:Adafruit_Fingerprint.cpp ****             (uint8_t)(thePassword >> 16), (uint8_t)(thePassword >> 8),
 1114               		.loc 3 149 5 discriminator 2 view .LVU250
 1115 0072 8C85      		ldd r24,Y+12
 1116 0074 8730      		cpi r24,lo8(7)
 1117 0076 01F4      		brne .L35
 151:Adafruit_Fingerprint.cpp ****     if(packet.data[0] == FINGERPRINT_OK) {
 1118               		.loc 3 151 43 view .LVU251
 152:Adafruit_Fingerprint.cpp ****         return FINGERPRINT_OK;
 1119               		.loc 3 152 5 view .LVU252
 152:Adafruit_Fingerprint.cpp ****         return FINGERPRINT_OK;
 1120               		.loc 3 152 21 is_stmt 0 view .LVU253
 1121 0078 8F85      		ldd r24,Y+15
 152:Adafruit_Fingerprint.cpp ****         return FINGERPRINT_OK;
 1122               		.loc 3 152 5 view .LVU254
 1123 007a 8823      		tst r24
 1124 007c 01F0      		breq .L32
 155:Adafruit_Fingerprint.cpp ****     }
 1125               		.loc 3 155 16 view .LVU255
 1126 007e 81E0      		ldi r24,lo8(1)
 1127 0080 00C0      		rjmp .L32
 1128               	.L34:
 149:Adafruit_Fingerprint.cpp ****             (uint8_t)(thePassword >> 16), (uint8_t)(thePassword >> 8),
GAS LISTING C:\Users\kenne\AppData\Local\Temp\ccnxErqW.s 			page 55


 1129               		.loc 3 149 5 view .LVU256
 1130 0082 81E0      		ldi r24,lo8(1)
 1131               	.L32:
 1132               	/* epilogue start */
 157:Adafruit_Fingerprint.cpp **** 
 1133               		.loc 3 157 1 view .LVU257
 1134 0084 C25B      		subi r28,-78
 1135 0086 DF4F      		sbci r29,-1
 1136 0088 0FB6      		in __tmp_reg__,__SREG__
 1137 008a F894      		cli
 1138 008c DEBF      		out __SP_H__,r29
 1139 008e 0FBE      		out __SREG__,__tmp_reg__
 1140 0090 CDBF      		out __SP_L__,r28
 1141 0092 DF91      		pop r29
 1142 0094 CF91      		pop r28
 1143 0096 1F91      		pop r17
 1144 0098 0F91      		pop r16
 1145 009a 0895      		ret
 1146               	.L35:
 149:Adafruit_Fingerprint.cpp ****             (uint8_t)(thePassword >> 16), (uint8_t)(thePassword >> 8),
 1147               		.loc 3 149 5 view .LVU258
 1148 009c 81E0      		ldi r24,lo8(1)
 1149 009e 00C0      		rjmp .L32
 1150               		.cfi_endproc
 1151               	.LFE87:
 1153               		.section	.text._ZN20Adafruit_Fingerprint14verifyPasswordEv,"ax",@progbits
 1154               	.global	_ZN20Adafruit_Fingerprint14verifyPasswordEv
 1156               	_ZN20Adafruit_Fingerprint14verifyPasswordEv:
 1157               	.LVL71:
 1158               	.LFB86:
 143:Adafruit_Fingerprint.cpp ****     return checkPassword() == FINGERPRINT_OK;
 1159               		.loc 3 143 1 is_stmt 1 view -0
 1160               		.cfi_startproc
 1161               	/* prologue: function */
 1162               	/* frame size = 0 */
 1163               	/* stack size = 0 */
 1164               	.L__stack_usage = 0
 144:Adafruit_Fingerprint.cpp **** }
 1165               		.loc 3 144 5 view .LVU260
 144:Adafruit_Fingerprint.cpp **** }
 1166               		.loc 3 144 25 is_stmt 0 view .LVU261
 1167 0000 0E94 0000 		call _ZN20Adafruit_Fingerprint13checkPasswordEv
 1168               	.LVL72:
 144:Adafruit_Fingerprint.cpp **** }
 1169               		.loc 3 144 25 view .LVU262
 1170 0004 982F      		mov r25,r24
 144:Adafruit_Fingerprint.cpp **** }
 1171               		.loc 3 144 31 view .LVU263
 1172 0006 81E0      		ldi r24,lo8(1)
 1173 0008 9111      		cpse r25,__zero_reg__
 1174 000a 80E0      		ldi r24,0
 1175               	.L38:
 1176               	/* epilogue start */
 145:Adafruit_Fingerprint.cpp **** 
 1177               		.loc 3 145 1 view .LVU264
 1178 000c 0895      		ret
 1179               		.cfi_endproc
GAS LISTING C:\Users\kenne\AppData\Local\Temp\ccnxErqW.s 			page 56


 1180               	.LFE86:
 1182               		.section	.text._ZN20Adafruit_Fingerprint13getParametersEv,"ax",@progbits
 1183               	.global	_ZN20Adafruit_Fingerprint13getParametersEv
 1185               	_ZN20Adafruit_Fingerprint13getParametersEv:
 1186               	.LVL73:
 1187               	.LFB88:
 168:Adafruit_Fingerprint.cpp ****     GET_CMD_PACKET(FINGERPRINT_READSYSPARAM);
 1188               		.loc 3 168 1 is_stmt 1 view -0
 1189               		.cfi_startproc
 168:Adafruit_Fingerprint.cpp ****     GET_CMD_PACKET(FINGERPRINT_READSYSPARAM);
 1190               		.loc 3 168 1 is_stmt 0 view .LVU266
 1191 0000 0F93      		push r16
 1192               		.cfi_def_cfa_offset 3
 1193               		.cfi_offset 16, -2
 1194 0002 1F93      		push r17
 1195               		.cfi_def_cfa_offset 4
 1196               		.cfi_offset 17, -3
 1197 0004 CF93      		push r28
 1198               		.cfi_def_cfa_offset 5
 1199               		.cfi_offset 28, -4
 1200 0006 DF93      		push r29
 1201               		.cfi_def_cfa_offset 6
 1202               		.cfi_offset 29, -5
 1203 0008 CDB7      		in r28,__SP_L__
 1204 000a DEB7      		in r29,__SP_H__
 1205               		.cfi_def_cfa_register 28
 1206 000c CA54      		subi r28,74
 1207 000e D109      		sbc r29,__zero_reg__
 1208               		.cfi_def_cfa_offset 80
 1209 0010 0FB6      		in __tmp_reg__,__SREG__
 1210 0012 F894      		cli
 1211 0014 DEBF      		out __SP_H__,r29
 1212 0016 0FBE      		out __SREG__,__tmp_reg__
 1213 0018 CDBF      		out __SP_L__,r28
 1214               	/* prologue: function */
 1215               	/* frame size = 74 */
 1216               	/* stack size = 78 */
 1217               	.L__stack_usage = 78
 1218 001a 082F      		mov r16,r24
 1219 001c 192F      		mov r17,r25
 169:Adafruit_Fingerprint.cpp **** 
 1220               		.loc 3 169 5 is_stmt 1 view .LVU267
 1221 001e 8FE0      		ldi r24,lo8(15)
 1222               	.LVL74:
 169:Adafruit_Fingerprint.cpp **** 
 1223               		.loc 3 169 5 is_stmt 0 view .LVU268
 1224 0020 8983      		std Y+1,r24
 169:Adafruit_Fingerprint.cpp **** 
 1225               		.loc 3 169 5 is_stmt 1 view .LVU269
 1226 0022 9E01      		movw r18,r28
 1227 0024 2F5F      		subi r18,-1
 1228 0026 3F4F      		sbci r19,-1
 1229 0028 41E0      		ldi r20,lo8(1)
 1230 002a 50E0      		ldi r21,0
 1231 002c 61E0      		ldi r22,lo8(1)
 1232 002e CE01      		movw r24,r28
 1233 0030 0296      		adiw r24,2
GAS LISTING C:\Users\kenne\AppData\Local\Temp\ccnxErqW.s 			page 57


 1234 0032 0E94 0000 		call _ZN27Adafruit_Fingerprint_PacketC1EhjPh
 1235               	.LVL75:
 169:Adafruit_Fingerprint.cpp **** 
 1236               		.loc 3 169 5 view .LVU270
 1237 0036 BE01      		movw r22,r28
 1238 0038 6E5F      		subi r22,-2
 1239 003a 7F4F      		sbci r23,-1
 1240 003c C801      		movw r24,r16
 1241 003e 0E94 0000 		call _ZN20Adafruit_Fingerprint21writeStructuredPacketERK27Adafruit_Fingerprint_Packet
 1242               	.LVL76:
 169:Adafruit_Fingerprint.cpp **** 
 1243               		.loc 3 169 5 view .LVU271
 1244 0042 48EE      		ldi r20,lo8(-24)
 1245 0044 53E0      		ldi r21,lo8(3)
 1246 0046 BE01      		movw r22,r28
 1247 0048 6E5F      		subi r22,-2
 1248 004a 7F4F      		sbci r23,-1
 1249 004c C801      		movw r24,r16
 1250 004e 0E94 0000 		call _ZN20Adafruit_Fingerprint19getStructuredPacketEP27Adafruit_Fingerprint_Packetj
 1251               	.LVL77:
 1252 0052 8111      		cpse r24,__zero_reg__
 1253 0054 00C0      		rjmp .L45
 169:Adafruit_Fingerprint.cpp **** 
 1254               		.loc 3 169 5 discriminator 2 view .LVU272
 1255 0056 8885      		ldd r24,Y+8
 1256 0058 8730      		cpi r24,lo8(7)
 1257 005a 01F0      		breq .+2
 1258 005c 00C0      		rjmp .L46
 169:Adafruit_Fingerprint.cpp **** 
 1259               		.loc 3 169 45 discriminator 4 view .LVU273
 171:Adafruit_Fingerprint.cpp ****     system_id = ((uint16_t)packet.data[3] << 8) | packet.data[4];
 1260               		.loc 3 171 5 discriminator 4 view .LVU274
 171:Adafruit_Fingerprint.cpp ****     system_id = ((uint16_t)packet.data[3] << 8) | packet.data[4];
 1261               		.loc 3 171 42 is_stmt 0 discriminator 4 view .LVU275
 1262 005e 9C85      		ldd r25,Y+12
 171:Adafruit_Fingerprint.cpp ****     system_id = ((uint16_t)packet.data[3] << 8) | packet.data[4];
 1263               		.loc 3 171 65 discriminator 4 view .LVU276
 1264 0060 8D85      		ldd r24,Y+13
 171:Adafruit_Fingerprint.cpp ****     system_id = ((uint16_t)packet.data[3] << 8) | packet.data[4];
 1265               		.loc 3 171 16 discriminator 4 view .LVU277
 1266 0062 F801      		movw r30,r16
 1267 0064 9783      		std Z+7,r25
 1268 0066 8683      		std Z+6,r24
 172:Adafruit_Fingerprint.cpp ****     capacity = ((uint16_t)packet.data[5] << 8) | packet.data[6];
 1269               		.loc 3 172 5 is_stmt 1 discriminator 4 view .LVU278
 172:Adafruit_Fingerprint.cpp ****     capacity = ((uint16_t)packet.data[5] << 8) | packet.data[6];
 1270               		.loc 3 172 41 is_stmt 0 discriminator 4 view .LVU279
 1271 0068 9E85      		ldd r25,Y+14
 172:Adafruit_Fingerprint.cpp ****     capacity = ((uint16_t)packet.data[5] << 8) | packet.data[6];
 1272               		.loc 3 172 64 discriminator 4 view .LVU280
 1273 006a 8F85      		ldd r24,Y+15
 172:Adafruit_Fingerprint.cpp ****     capacity = ((uint16_t)packet.data[5] << 8) | packet.data[6];
 1274               		.loc 3 172 15 discriminator 4 view .LVU281
 1275 006c 9187      		std Z+9,r25
 1276 006e 8087      		std Z+8,r24
 173:Adafruit_Fingerprint.cpp ****     security_level = ((uint16_t)packet.data[7] << 8) | packet.data[8];
 1277               		.loc 3 173 5 is_stmt 1 discriminator 4 view .LVU282
GAS LISTING C:\Users\kenne\AppData\Local\Temp\ccnxErqW.s 			page 58


 173:Adafruit_Fingerprint.cpp ****     security_level = ((uint16_t)packet.data[7] << 8) | packet.data[8];
 1278               		.loc 3 173 40 is_stmt 0 discriminator 4 view .LVU283
 1279 0070 9889      		ldd r25,Y+16
 173:Adafruit_Fingerprint.cpp ****     security_level = ((uint16_t)packet.data[7] << 8) | packet.data[8];
 1280               		.loc 3 173 63 discriminator 4 view .LVU284
 1281 0072 8989      		ldd r24,Y+17
 173:Adafruit_Fingerprint.cpp ****     security_level = ((uint16_t)packet.data[7] << 8) | packet.data[8];
 1282               		.loc 3 173 14 discriminator 4 view .LVU285
 1283 0074 9387      		std Z+11,r25
 1284 0076 8287      		std Z+10,r24
 174:Adafruit_Fingerprint.cpp ****     device_addr = ((uint32_t)packet.data[9] << 24) |
 1285               		.loc 3 174 5 is_stmt 1 discriminator 4 view .LVU286
 174:Adafruit_Fingerprint.cpp ****     device_addr = ((uint32_t)packet.data[9] << 24) |
 1286               		.loc 3 174 46 is_stmt 0 discriminator 4 view .LVU287
 1287 0078 9A89      		ldd r25,Y+18
 174:Adafruit_Fingerprint.cpp ****     device_addr = ((uint32_t)packet.data[9] << 24) |
 1288               		.loc 3 174 69 discriminator 4 view .LVU288
 1289 007a 8B89      		ldd r24,Y+19
 174:Adafruit_Fingerprint.cpp ****     device_addr = ((uint32_t)packet.data[9] << 24) |
 1290               		.loc 3 174 20 discriminator 4 view .LVU289
 1291 007c 9587      		std Z+13,r25
 1292 007e 8487      		std Z+12,r24
 175:Adafruit_Fingerprint.cpp ****             ((uint32_t)packet.data[10] << 16) |
 1293               		.loc 3 175 5 is_stmt 1 discriminator 4 view .LVU290
 175:Adafruit_Fingerprint.cpp ****             ((uint32_t)packet.data[10] << 16) |
 1294               		.loc 3 175 43 is_stmt 0 discriminator 4 view .LVU291
 1295 0080 8C89      		ldd r24,Y+20
 175:Adafruit_Fingerprint.cpp ****             ((uint32_t)packet.data[10] << 16) |
 1296               		.loc 3 175 20 discriminator 4 view .LVU292
 1297 0082 90E0      		ldi r25,0
 1298 0084 A0E0      		ldi r26,0
 1299 0086 B0E0      		ldi r27,0
 175:Adafruit_Fingerprint.cpp ****             ((uint32_t)packet.data[10] << 16) |
 1300               		.loc 3 175 45 discriminator 4 view .LVU293
 1301 0088 B82F      		mov r27,r24
 1302 008a AA27      		clr r26
 1303 008c 9927      		clr r25
 1304 008e 8827      		clr r24
 176:Adafruit_Fingerprint.cpp ****             ((uint32_t)packet.data[11] << 8) | (uint32_t)packet.data[12];
 1305               		.loc 3 176 38 discriminator 4 view .LVU294
 1306 0090 4D89      		ldd r20,Y+21
 176:Adafruit_Fingerprint.cpp ****             ((uint32_t)packet.data[11] << 8) | (uint32_t)packet.data[12];
 1307               		.loc 3 176 14 discriminator 4 view .LVU295
 1308 0092 50E0      		ldi r21,0
 1309 0094 60E0      		ldi r22,0
 1310 0096 70E0      		ldi r23,0
 176:Adafruit_Fingerprint.cpp ****             ((uint32_t)packet.data[11] << 8) | (uint32_t)packet.data[12];
 1311               		.loc 3 176 40 discriminator 4 view .LVU296
 1312 0098 BA01      		movw r22,r20
 1313 009a 5527      		clr r21
 1314 009c 4427      		clr r20
 175:Adafruit_Fingerprint.cpp ****             ((uint32_t)packet.data[10] << 16) |
 1315               		.loc 3 175 52 discriminator 4 view .LVU297
 1316 009e 842B      		or r24,r20
 1317 00a0 952B      		or r25,r21
 1318 00a2 A62B      		or r26,r22
 1319 00a4 B72B      		or r27,r23
GAS LISTING C:\Users\kenne\AppData\Local\Temp\ccnxErqW.s 			page 59


 177:Adafruit_Fingerprint.cpp ****     packet_len = ((uint16_t)packet.data[13] << 8) | packet.data[14];
 1320               		.loc 3 177 38 discriminator 4 view .LVU298
 1321 00a6 4E89      		ldd r20,Y+22
 177:Adafruit_Fingerprint.cpp ****     packet_len = ((uint16_t)packet.data[13] << 8) | packet.data[14];
 1322               		.loc 3 177 14 discriminator 4 view .LVU299
 1323 00a8 50E0      		ldi r21,0
 1324 00aa 60E0      		ldi r22,0
 1325 00ac 70E0      		ldi r23,0
 177:Adafruit_Fingerprint.cpp ****     packet_len = ((uint16_t)packet.data[13] << 8) | packet.data[14];
 1326               		.loc 3 177 40 discriminator 4 view .LVU300
 1327 00ae 762F      		mov r23,r22
 1328 00b0 652F      		mov r22,r21
 1329 00b2 542F      		mov r21,r20
 1330 00b4 4427      		clr r20
 176:Adafruit_Fingerprint.cpp ****             ((uint32_t)packet.data[11] << 8) | (uint32_t)packet.data[12];
 1331               		.loc 3 176 47 discriminator 4 view .LVU301
 1332 00b6 842B      		or r24,r20
 1333 00b8 952B      		or r25,r21
 1334 00ba A62B      		or r26,r22
 1335 00bc B72B      		or r27,r23
 177:Adafruit_Fingerprint.cpp ****     packet_len = ((uint16_t)packet.data[13] << 8) | packet.data[14];
 1336               		.loc 3 177 72 discriminator 4 view .LVU302
 1337 00be 2F89      		ldd r18,Y+23
 177:Adafruit_Fingerprint.cpp ****     packet_len = ((uint16_t)packet.data[13] << 8) | packet.data[14];
 1338               		.loc 3 177 46 discriminator 4 view .LVU303
 1339 00c0 822B      		or r24,r18
 175:Adafruit_Fingerprint.cpp ****             ((uint32_t)packet.data[10] << 16) |
 1340               		.loc 3 175 17 discriminator 4 view .LVU304
 1341 00c2 8687      		std Z+14,r24
 1342 00c4 9787      		std Z+15,r25
 1343 00c6 A08B      		std Z+16,r26
 1344 00c8 B18B      		std Z+17,r27
 178:Adafruit_Fingerprint.cpp ****     if(packet_len == 0) {
 1345               		.loc 3 178 5 is_stmt 1 discriminator 4 view .LVU305
 178:Adafruit_Fingerprint.cpp ****     if(packet_len == 0) {
 1346               		.loc 3 178 43 is_stmt 0 discriminator 4 view .LVU306
 1347 00ca 988D      		ldd r25,Y+24
 178:Adafruit_Fingerprint.cpp ****     if(packet_len == 0) {
 1348               		.loc 3 178 67 discriminator 4 view .LVU307
 1349 00cc 898D      		ldd r24,Y+25
 178:Adafruit_Fingerprint.cpp ****     if(packet_len == 0) {
 1350               		.loc 3 178 16 discriminator 4 view .LVU308
 1351 00ce 938B      		std Z+19,r25
 1352 00d0 828B      		std Z+18,r24
 179:Adafruit_Fingerprint.cpp ****         packet_len = 32;
 1353               		.loc 3 179 5 is_stmt 1 discriminator 4 view .LVU309
 1354 00d2 0097      		sbiw r24,0
 1355 00d4 01F4      		brne .L41
 180:Adafruit_Fingerprint.cpp ****     } else if(packet_len == 1) {
 1356               		.loc 3 180 9 view .LVU310
 180:Adafruit_Fingerprint.cpp ****     } else if(packet_len == 1) {
 1357               		.loc 3 180 20 is_stmt 0 view .LVU311
 1358 00d6 80E2      		ldi r24,lo8(32)
 1359 00d8 90E0      		ldi r25,0
 1360 00da 938B      		std Z+19,r25
 1361 00dc 828B      		std Z+18,r24
 1362               	.L42:
GAS LISTING C:\Users\kenne\AppData\Local\Temp\ccnxErqW.s 			page 60


 188:Adafruit_Fingerprint.cpp **** 
 1363               		.loc 3 188 5 is_stmt 1 view .LVU312
 188:Adafruit_Fingerprint.cpp **** 
 1364               		.loc 3 188 43 is_stmt 0 view .LVU313
 1365 00de 9A8D      		ldd r25,Y+26
 188:Adafruit_Fingerprint.cpp **** 
 1366               		.loc 3 188 67 view .LVU314
 1367 00e0 8B8D      		ldd r24,Y+27
 188:Adafruit_Fingerprint.cpp **** 
 1368               		.loc 3 188 70 view .LVU315
 1369 00e2 40E8      		ldi r20,lo8(-128)
 1370 00e4 55E2      		ldi r21,lo8(37)
 1371 00e6 849F      		mul r24,r20
 1372 00e8 9001      		movw r18,r0
 1373 00ea 859F      		mul r24,r21
 1374 00ec 300D      		add r19,r0
 1375 00ee 949F      		mul r25,r20
 1376 00f0 300D      		add r19,r0
 1377 00f2 1124      		clr r1
 188:Adafruit_Fingerprint.cpp **** 
 1378               		.loc 3 188 15 view .LVU316
 1379 00f4 F801      		movw r30,r16
 1380 00f6 358B      		std Z+21,r19
 1381 00f8 248B      		std Z+20,r18
 190:Adafruit_Fingerprint.cpp **** }
 1382               		.loc 3 190 5 is_stmt 1 view .LVU317
 190:Adafruit_Fingerprint.cpp **** }
 1383               		.loc 3 190 25 is_stmt 0 view .LVU318
 1384 00fa 8B85      		ldd r24,Y+11
 1385 00fc 00C0      		rjmp .L39
 1386               	.L41:
 181:Adafruit_Fingerprint.cpp ****         packet_len = 64;
 1387               		.loc 3 181 12 is_stmt 1 view .LVU319
 1388 00fe 8130      		cpi r24,1
 1389 0100 9105      		cpc r25,__zero_reg__
 1390 0102 01F0      		breq .L47
 183:Adafruit_Fingerprint.cpp ****         packet_len = 128;
 1391               		.loc 3 183 12 view .LVU320
 1392 0104 8230      		cpi r24,2
 1393 0106 9105      		cpc r25,__zero_reg__
 1394 0108 01F0      		breq .L48
 185:Adafruit_Fingerprint.cpp ****         packet_len = 256;
 1395               		.loc 3 185 12 view .LVU321
 1396 010a 0397      		sbiw r24,3
 1397 010c 01F4      		brne .L42
 186:Adafruit_Fingerprint.cpp ****     }
 1398               		.loc 3 186 9 view .LVU322
 186:Adafruit_Fingerprint.cpp ****     }
 1399               		.loc 3 186 20 is_stmt 0 view .LVU323
 1400 010e 80E0      		ldi r24,0
 1401 0110 91E0      		ldi r25,lo8(1)
 1402 0112 F801      		movw r30,r16
 1403 0114 938B      		std Z+19,r25
 1404 0116 828B      		std Z+18,r24
 1405 0118 00C0      		rjmp .L42
 1406               	.L47:
 182:Adafruit_Fingerprint.cpp ****     } else if(packet_len == 2) {
GAS LISTING C:\Users\kenne\AppData\Local\Temp\ccnxErqW.s 			page 61


 1407               		.loc 3 182 9 is_stmt 1 view .LVU324
 182:Adafruit_Fingerprint.cpp ****     } else if(packet_len == 2) {
 1408               		.loc 3 182 20 is_stmt 0 view .LVU325
 1409 011a 80E4      		ldi r24,lo8(64)
 1410 011c 90E0      		ldi r25,0
 1411 011e F801      		movw r30,r16
 1412 0120 938B      		std Z+19,r25
 1413 0122 828B      		std Z+18,r24
 1414 0124 00C0      		rjmp .L42
 1415               	.L48:
 184:Adafruit_Fingerprint.cpp ****     } else if(packet_len == 3) {
 1416               		.loc 3 184 9 is_stmt 1 view .LVU326
 184:Adafruit_Fingerprint.cpp ****     } else if(packet_len == 3) {
 1417               		.loc 3 184 20 is_stmt 0 view .LVU327
 1418 0126 80E8      		ldi r24,lo8(-128)
 1419 0128 90E0      		ldi r25,0
 1420 012a F801      		movw r30,r16
 1421 012c 938B      		std Z+19,r25
 1422 012e 828B      		std Z+18,r24
 1423 0130 00C0      		rjmp .L42
 1424               	.L45:
 169:Adafruit_Fingerprint.cpp **** 
 1425               		.loc 3 169 5 view .LVU328
 1426 0132 81E0      		ldi r24,lo8(1)
 1427               	.L39:
 1428               	/* epilogue start */
 191:Adafruit_Fingerprint.cpp **** 
 1429               		.loc 3 191 1 view .LVU329
 1430 0134 C65B      		subi r28,-74
 1431 0136 DF4F      		sbci r29,-1
 1432 0138 0FB6      		in __tmp_reg__,__SREG__
 1433 013a F894      		cli
 1434 013c DEBF      		out __SP_H__,r29
 1435 013e 0FBE      		out __SREG__,__tmp_reg__
 1436 0140 CDBF      		out __SP_L__,r28
 1437 0142 DF91      		pop r29
 1438 0144 CF91      		pop r28
 1439 0146 1F91      		pop r17
 1440 0148 0F91      		pop r16
 1441 014a 0895      		ret
 1442               	.L46:
 169:Adafruit_Fingerprint.cpp **** 
 1443               		.loc 3 169 5 view .LVU330
 1444 014c 81E0      		ldi r24,lo8(1)
 1445 014e 00C0      		rjmp .L39
 1446               		.cfi_endproc
 1447               	.LFE88:
 1449               		.section	.text._ZN20Adafruit_Fingerprint8getImageEv,"ax",@progbits
 1450               	.global	_ZN20Adafruit_Fingerprint8getImageEv
 1452               	_ZN20Adafruit_Fingerprint8getImageEv:
 1453               	.LVL78:
 1454               	.LFB89:
 203:Adafruit_Fingerprint.cpp ****     SEND_CMD_PACKET(FINGERPRINT_GETIMAGE);
 1455               		.loc 3 203 1 is_stmt 1 view -0
 1456               		.cfi_startproc
 203:Adafruit_Fingerprint.cpp ****     SEND_CMD_PACKET(FINGERPRINT_GETIMAGE);
 1457               		.loc 3 203 1 is_stmt 0 view .LVU332
GAS LISTING C:\Users\kenne\AppData\Local\Temp\ccnxErqW.s 			page 62


 1458 0000 0F93      		push r16
 1459               		.cfi_def_cfa_offset 3
 1460               		.cfi_offset 16, -2
 1461 0002 1F93      		push r17
 1462               		.cfi_def_cfa_offset 4
 1463               		.cfi_offset 17, -3
 1464 0004 CF93      		push r28
 1465               		.cfi_def_cfa_offset 5
 1466               		.cfi_offset 28, -4
 1467 0006 DF93      		push r29
 1468               		.cfi_def_cfa_offset 6
 1469               		.cfi_offset 29, -5
 1470 0008 CDB7      		in r28,__SP_L__
 1471 000a DEB7      		in r29,__SP_H__
 1472               		.cfi_def_cfa_register 28
 1473 000c CA54      		subi r28,74
 1474 000e D109      		sbc r29,__zero_reg__
 1475               		.cfi_def_cfa_offset 80
 1476 0010 0FB6      		in __tmp_reg__,__SREG__
 1477 0012 F894      		cli
 1478 0014 DEBF      		out __SP_H__,r29
 1479 0016 0FBE      		out __SREG__,__tmp_reg__
 1480 0018 CDBF      		out __SP_L__,r28
 1481               	/* prologue: function */
 1482               	/* frame size = 74 */
 1483               	/* stack size = 78 */
 1484               	.L__stack_usage = 78
 1485 001a 082F      		mov r16,r24
 1486 001c 192F      		mov r17,r25
 204:Adafruit_Fingerprint.cpp **** }
 1487               		.loc 3 204 5 is_stmt 1 view .LVU333
 1488 001e 81E0      		ldi r24,lo8(1)
 1489               	.LVL79:
 204:Adafruit_Fingerprint.cpp **** }
 1490               		.loc 3 204 5 is_stmt 0 view .LVU334
 1491 0020 8983      		std Y+1,r24
 204:Adafruit_Fingerprint.cpp **** }
 1492               		.loc 3 204 5 is_stmt 1 view .LVU335
 1493 0022 9E01      		movw r18,r28
 1494 0024 2F5F      		subi r18,-1
 1495 0026 3F4F      		sbci r19,-1
 1496 0028 41E0      		ldi r20,lo8(1)
 1497 002a 50E0      		ldi r21,0
 1498 002c 61E0      		ldi r22,lo8(1)
 1499 002e CE01      		movw r24,r28
 1500 0030 0296      		adiw r24,2
 1501 0032 0E94 0000 		call _ZN27Adafruit_Fingerprint_PacketC1EhjPh
 1502               	.LVL80:
 204:Adafruit_Fingerprint.cpp **** }
 1503               		.loc 3 204 5 view .LVU336
 1504 0036 BE01      		movw r22,r28
 1505 0038 6E5F      		subi r22,-2
 1506 003a 7F4F      		sbci r23,-1
 1507 003c 802F      		mov r24,r16
 1508 003e 912F      		mov r25,r17
 1509 0040 0E94 0000 		call _ZN20Adafruit_Fingerprint21writeStructuredPacketERK27Adafruit_Fingerprint_Packet
 1510               	.LVL81:
GAS LISTING C:\Users\kenne\AppData\Local\Temp\ccnxErqW.s 			page 63


 204:Adafruit_Fingerprint.cpp **** }
 1511               		.loc 3 204 5 view .LVU337
 1512 0044 48EE      		ldi r20,lo8(-24)
 1513 0046 53E0      		ldi r21,lo8(3)
 1514 0048 BE01      		movw r22,r28
 1515 004a 6E5F      		subi r22,-2
 1516 004c 7F4F      		sbci r23,-1
 1517 004e 802F      		mov r24,r16
 1518 0050 912F      		mov r25,r17
 1519 0052 0E94 0000 		call _ZN20Adafruit_Fingerprint19getStructuredPacketEP27Adafruit_Fingerprint_Packetj
 1520               	.LVL82:
 1521 0056 8111      		cpse r24,__zero_reg__
 1522 0058 00C0      		rjmp .L51
 204:Adafruit_Fingerprint.cpp **** }
 1523               		.loc 3 204 5 discriminator 2 view .LVU338
 1524 005a 8885      		ldd r24,Y+8
 1525 005c 8730      		cpi r24,lo8(7)
 1526 005e 01F4      		brne .L52
 204:Adafruit_Fingerprint.cpp **** }
 1527               		.loc 3 204 5 discriminator 5 view .LVU339
 204:Adafruit_Fingerprint.cpp **** }
 1528               		.loc 3 204 5 discriminator 5 view .LVU340
 1529 0060 8B85      		ldd r24,Y+11
 1530 0062 00C0      		rjmp .L49
 1531               	.L51:
 204:Adafruit_Fingerprint.cpp **** }
 1532               		.loc 3 204 5 is_stmt 0 view .LVU341
 1533 0064 81E0      		ldi r24,lo8(1)
 1534               	.L49:
 1535               	/* epilogue start */
 205:Adafruit_Fingerprint.cpp **** 
 1536               		.loc 3 205 1 view .LVU342
 1537 0066 C65B      		subi r28,-74
 1538 0068 DF4F      		sbci r29,-1
 1539 006a 0FB6      		in __tmp_reg__,__SREG__
 1540 006c F894      		cli
 1541 006e DEBF      		out __SP_H__,r29
 1542 0070 0FBE      		out __SREG__,__tmp_reg__
 1543 0072 CDBF      		out __SP_L__,r28
 1544 0074 DF91      		pop r29
 1545 0076 CF91      		pop r28
 1546 0078 1F91      		pop r17
 1547 007a 0F91      		pop r16
 1548 007c 0895      		ret
 1549               	.L52:
 204:Adafruit_Fingerprint.cpp **** }
 1550               		.loc 3 204 5 view .LVU343
 1551 007e 81E0      		ldi r24,lo8(1)
 204:Adafruit_Fingerprint.cpp **** }
 1552               		.loc 3 204 42 is_stmt 1 view .LVU344
 1553 0080 00C0      		rjmp .L49
 1554               		.cfi_endproc
 1555               	.LFE89:
 1557               		.section	.text._ZN20Adafruit_Fingerprint8image2TzEh,"ax",@progbits
 1558               	.global	_ZN20Adafruit_Fingerprint8image2TzEh
 1560               	_ZN20Adafruit_Fingerprint8image2TzEh:
 1561               	.LVL83:
GAS LISTING C:\Users\kenne\AppData\Local\Temp\ccnxErqW.s 			page 64


 1562               	.LFB90:
 221:Adafruit_Fingerprint.cpp ****     SEND_CMD_PACKET(FINGERPRINT_IMAGE2TZ, slot);
 1563               		.loc 3 221 1 view -0
 1564               		.cfi_startproc
 221:Adafruit_Fingerprint.cpp ****     SEND_CMD_PACKET(FINGERPRINT_IMAGE2TZ, slot);
 1565               		.loc 3 221 1 is_stmt 0 view .LVU346
 1566 0000 0F93      		push r16
 1567               		.cfi_def_cfa_offset 3
 1568               		.cfi_offset 16, -2
 1569 0002 1F93      		push r17
 1570               		.cfi_def_cfa_offset 4
 1571               		.cfi_offset 17, -3
 1572 0004 CF93      		push r28
 1573               		.cfi_def_cfa_offset 5
 1574               		.cfi_offset 28, -4
 1575 0006 DF93      		push r29
 1576               		.cfi_def_cfa_offset 6
 1577               		.cfi_offset 29, -5
 1578 0008 CDB7      		in r28,__SP_L__
 1579 000a DEB7      		in r29,__SP_H__
 1580               		.cfi_def_cfa_register 28
 1581 000c CB54      		subi r28,75
 1582 000e D109      		sbc r29,__zero_reg__
 1583               		.cfi_def_cfa_offset 81
 1584 0010 0FB6      		in __tmp_reg__,__SREG__
 1585 0012 F894      		cli
 1586 0014 DEBF      		out __SP_H__,r29
 1587 0016 0FBE      		out __SREG__,__tmp_reg__
 1588 0018 CDBF      		out __SP_L__,r28
 1589               	/* prologue: function */
 1590               	/* frame size = 75 */
 1591               	/* stack size = 79 */
 1592               	.L__stack_usage = 79
 1593 001a 082F      		mov r16,r24
 1594 001c 192F      		mov r17,r25
 222:Adafruit_Fingerprint.cpp **** }
 1595               		.loc 3 222 5 is_stmt 1 view .LVU347
 1596 001e 1A82      		std Y+2,__zero_reg__
 1597 0020 1982      		std Y+1,__zero_reg__
 1598 0022 82E0      		ldi r24,lo8(2)
 1599               	.LVL84:
 222:Adafruit_Fingerprint.cpp **** }
 1600               		.loc 3 222 5 is_stmt 0 view .LVU348
 1601 0024 8983      		std Y+1,r24
 1602 0026 6A83      		std Y+2,r22
 222:Adafruit_Fingerprint.cpp **** }
 1603               		.loc 3 222 5 is_stmt 1 view .LVU349
 1604 0028 9E01      		movw r18,r28
 1605 002a 2F5F      		subi r18,-1
 1606 002c 3F4F      		sbci r19,-1
 1607 002e 42E0      		ldi r20,lo8(2)
 1608 0030 50E0      		ldi r21,0
 1609 0032 61E0      		ldi r22,lo8(1)
 1610               	.LVL85:
 222:Adafruit_Fingerprint.cpp **** }
 1611               		.loc 3 222 5 is_stmt 0 view .LVU350
 1612 0034 CE01      		movw r24,r28
GAS LISTING C:\Users\kenne\AppData\Local\Temp\ccnxErqW.s 			page 65


 1613 0036 0396      		adiw r24,3
 1614 0038 0E94 0000 		call _ZN27Adafruit_Fingerprint_PacketC1EhjPh
 1615               	.LVL86:
 222:Adafruit_Fingerprint.cpp **** }
 1616               		.loc 3 222 5 is_stmt 1 view .LVU351
 1617 003c BE01      		movw r22,r28
 1618 003e 6D5F      		subi r22,-3
 1619 0040 7F4F      		sbci r23,-1
 1620 0042 802F      		mov r24,r16
 1621 0044 912F      		mov r25,r17
 1622 0046 0E94 0000 		call _ZN20Adafruit_Fingerprint21writeStructuredPacketERK27Adafruit_Fingerprint_Packet
 1623               	.LVL87:
 222:Adafruit_Fingerprint.cpp **** }
 1624               		.loc 3 222 5 view .LVU352
 1625 004a 48EE      		ldi r20,lo8(-24)
 1626 004c 53E0      		ldi r21,lo8(3)
 1627 004e BE01      		movw r22,r28
 1628 0050 6D5F      		subi r22,-3
 1629 0052 7F4F      		sbci r23,-1
 1630 0054 802F      		mov r24,r16
 1631 0056 912F      		mov r25,r17
 1632 0058 0E94 0000 		call _ZN20Adafruit_Fingerprint19getStructuredPacketEP27Adafruit_Fingerprint_Packetj
 1633               	.LVL88:
 1634 005c 8111      		cpse r24,__zero_reg__
 1635 005e 00C0      		rjmp .L55
 222:Adafruit_Fingerprint.cpp **** }
 1636               		.loc 3 222 5 discriminator 2 view .LVU353
 1637 0060 8985      		ldd r24,Y+9
 1638 0062 8730      		cpi r24,lo8(7)
 1639 0064 01F4      		brne .L56
 222:Adafruit_Fingerprint.cpp **** }
 1640               		.loc 3 222 5 discriminator 5 view .LVU354
 222:Adafruit_Fingerprint.cpp **** }
 1641               		.loc 3 222 5 discriminator 5 view .LVU355
 1642 0066 8C85      		ldd r24,Y+12
 1643 0068 00C0      		rjmp .L53
 1644               	.L55:
 222:Adafruit_Fingerprint.cpp **** }
 1645               		.loc 3 222 5 is_stmt 0 view .LVU356
 1646 006a 81E0      		ldi r24,lo8(1)
 1647               	.L53:
 1648               	/* epilogue start */
 223:Adafruit_Fingerprint.cpp **** 
 1649               		.loc 3 223 1 view .LVU357
 1650 006c C55B      		subi r28,-75
 1651 006e DF4F      		sbci r29,-1
 1652 0070 0FB6      		in __tmp_reg__,__SREG__
 1653 0072 F894      		cli
 1654 0074 DEBF      		out __SP_H__,r29
 1655 0076 0FBE      		out __SREG__,__tmp_reg__
 1656 0078 CDBF      		out __SP_L__,r28
 1657 007a DF91      		pop r29
 1658 007c CF91      		pop r28
 1659 007e 1F91      		pop r17
 1660 0080 0F91      		pop r16
 1661 0082 0895      		ret
 1662               	.L56:
GAS LISTING C:\Users\kenne\AppData\Local\Temp\ccnxErqW.s 			page 66


 222:Adafruit_Fingerprint.cpp **** }
 1663               		.loc 3 222 5 view .LVU358
 1664 0084 81E0      		ldi r24,lo8(1)
 222:Adafruit_Fingerprint.cpp **** }
 1665               		.loc 3 222 48 is_stmt 1 view .LVU359
 1666 0086 00C0      		rjmp .L53
 1667               		.cfi_endproc
 1668               	.LFE90:
 1670               		.section	.text._ZN20Adafruit_Fingerprint11createModelEv,"ax",@progbits
 1671               	.global	_ZN20Adafruit_Fingerprint11createModelEv
 1673               	_ZN20Adafruit_Fingerprint11createModelEv:
 1674               	.LVL89:
 1675               	.LFB91:
 234:Adafruit_Fingerprint.cpp ****     SEND_CMD_PACKET(FINGERPRINT_REGMODEL);
 1676               		.loc 3 234 1 view -0
 1677               		.cfi_startproc
 234:Adafruit_Fingerprint.cpp ****     SEND_CMD_PACKET(FINGERPRINT_REGMODEL);
 1678               		.loc 3 234 1 is_stmt 0 view .LVU361
 1679 0000 0F93      		push r16
 1680               		.cfi_def_cfa_offset 3
 1681               		.cfi_offset 16, -2
 1682 0002 1F93      		push r17
 1683               		.cfi_def_cfa_offset 4
 1684               		.cfi_offset 17, -3
 1685 0004 CF93      		push r28
 1686               		.cfi_def_cfa_offset 5
 1687               		.cfi_offset 28, -4
 1688 0006 DF93      		push r29
 1689               		.cfi_def_cfa_offset 6
 1690               		.cfi_offset 29, -5
 1691 0008 CDB7      		in r28,__SP_L__
 1692 000a DEB7      		in r29,__SP_H__
 1693               		.cfi_def_cfa_register 28
 1694 000c CA54      		subi r28,74
 1695 000e D109      		sbc r29,__zero_reg__
 1696               		.cfi_def_cfa_offset 80
 1697 0010 0FB6      		in __tmp_reg__,__SREG__
 1698 0012 F894      		cli
 1699 0014 DEBF      		out __SP_H__,r29
 1700 0016 0FBE      		out __SREG__,__tmp_reg__
 1701 0018 CDBF      		out __SP_L__,r28
 1702               	/* prologue: function */
 1703               	/* frame size = 74 */
 1704               	/* stack size = 78 */
 1705               	.L__stack_usage = 78
 1706 001a 082F      		mov r16,r24
 1707 001c 192F      		mov r17,r25
 235:Adafruit_Fingerprint.cpp **** }
 1708               		.loc 3 235 5 is_stmt 1 view .LVU362
 1709 001e 85E0      		ldi r24,lo8(5)
 1710               	.LVL90:
 235:Adafruit_Fingerprint.cpp **** }
 1711               		.loc 3 235 5 is_stmt 0 view .LVU363
 1712 0020 8983      		std Y+1,r24
 235:Adafruit_Fingerprint.cpp **** }
 1713               		.loc 3 235 5 is_stmt 1 view .LVU364
 1714 0022 9E01      		movw r18,r28
GAS LISTING C:\Users\kenne\AppData\Local\Temp\ccnxErqW.s 			page 67


 1715 0024 2F5F      		subi r18,-1
 1716 0026 3F4F      		sbci r19,-1
 1717 0028 41E0      		ldi r20,lo8(1)
 1718 002a 50E0      		ldi r21,0
 1719 002c 61E0      		ldi r22,lo8(1)
 1720 002e CE01      		movw r24,r28
 1721 0030 0296      		adiw r24,2
 1722 0032 0E94 0000 		call _ZN27Adafruit_Fingerprint_PacketC1EhjPh
 1723               	.LVL91:
 235:Adafruit_Fingerprint.cpp **** }
 1724               		.loc 3 235 5 view .LVU365
 1725 0036 BE01      		movw r22,r28
 1726 0038 6E5F      		subi r22,-2
 1727 003a 7F4F      		sbci r23,-1
 1728 003c 802F      		mov r24,r16
 1729 003e 912F      		mov r25,r17
 1730 0040 0E94 0000 		call _ZN20Adafruit_Fingerprint21writeStructuredPacketERK27Adafruit_Fingerprint_Packet
 1731               	.LVL92:
 235:Adafruit_Fingerprint.cpp **** }
 1732               		.loc 3 235 5 view .LVU366
 1733 0044 48EE      		ldi r20,lo8(-24)
 1734 0046 53E0      		ldi r21,lo8(3)
 1735 0048 BE01      		movw r22,r28
 1736 004a 6E5F      		subi r22,-2
 1737 004c 7F4F      		sbci r23,-1
 1738 004e 802F      		mov r24,r16
 1739 0050 912F      		mov r25,r17
 1740 0052 0E94 0000 		call _ZN20Adafruit_Fingerprint19getStructuredPacketEP27Adafruit_Fingerprint_Packetj
 1741               	.LVL93:
 1742 0056 8111      		cpse r24,__zero_reg__
 1743 0058 00C0      		rjmp .L59
 235:Adafruit_Fingerprint.cpp **** }
 1744               		.loc 3 235 5 discriminator 2 view .LVU367
 1745 005a 8885      		ldd r24,Y+8
 1746 005c 8730      		cpi r24,lo8(7)
 1747 005e 01F4      		brne .L60
 235:Adafruit_Fingerprint.cpp **** }
 1748               		.loc 3 235 5 discriminator 5 view .LVU368
 235:Adafruit_Fingerprint.cpp **** }
 1749               		.loc 3 235 5 discriminator 5 view .LVU369
 1750 0060 8B85      		ldd r24,Y+11
 1751 0062 00C0      		rjmp .L57
 1752               	.L59:
 235:Adafruit_Fingerprint.cpp **** }
 1753               		.loc 3 235 5 is_stmt 0 view .LVU370
 1754 0064 81E0      		ldi r24,lo8(1)
 1755               	.L57:
 1756               	/* epilogue start */
 236:Adafruit_Fingerprint.cpp **** 
 1757               		.loc 3 236 1 view .LVU371
 1758 0066 C65B      		subi r28,-74
 1759 0068 DF4F      		sbci r29,-1
 1760 006a 0FB6      		in __tmp_reg__,__SREG__
 1761 006c F894      		cli
 1762 006e DEBF      		out __SP_H__,r29
 1763 0070 0FBE      		out __SREG__,__tmp_reg__
 1764 0072 CDBF      		out __SP_L__,r28
GAS LISTING C:\Users\kenne\AppData\Local\Temp\ccnxErqW.s 			page 68


 1765 0074 DF91      		pop r29
 1766 0076 CF91      		pop r28
 1767 0078 1F91      		pop r17
 1768 007a 0F91      		pop r16
 1769 007c 0895      		ret
 1770               	.L60:
 235:Adafruit_Fingerprint.cpp **** }
 1771               		.loc 3 235 5 view .LVU372
 1772 007e 81E0      		ldi r24,lo8(1)
 235:Adafruit_Fingerprint.cpp **** }
 1773               		.loc 3 235 42 is_stmt 1 view .LVU373
 1774 0080 00C0      		rjmp .L57
 1775               		.cfi_endproc
 1776               	.LFE91:
 1778               		.section	.text._ZN20Adafruit_Fingerprint10storeModelEj,"ax",@progbits
 1779               	.global	_ZN20Adafruit_Fingerprint10storeModelEj
 1781               	_ZN20Adafruit_Fingerprint10storeModelEj:
 1782               	.LVL94:
 1783               	.LFB92:
 249:Adafruit_Fingerprint.cpp ****     SEND_CMD_PACKET(FINGERPRINT_STORE, 0x01, (uint8_t)(location >> 8),
 1784               		.loc 3 249 1 view -0
 1785               		.cfi_startproc
 249:Adafruit_Fingerprint.cpp ****     SEND_CMD_PACKET(FINGERPRINT_STORE, 0x01, (uint8_t)(location >> 8),
 1786               		.loc 3 249 1 is_stmt 0 view .LVU375
 1787 0000 0F93      		push r16
 1788               		.cfi_def_cfa_offset 3
 1789               		.cfi_offset 16, -2
 1790 0002 1F93      		push r17
 1791               		.cfi_def_cfa_offset 4
 1792               		.cfi_offset 17, -3
 1793 0004 CF93      		push r28
 1794               		.cfi_def_cfa_offset 5
 1795               		.cfi_offset 28, -4
 1796 0006 DF93      		push r29
 1797               		.cfi_def_cfa_offset 6
 1798               		.cfi_offset 29, -5
 1799 0008 CDB7      		in r28,__SP_L__
 1800 000a DEB7      		in r29,__SP_H__
 1801               		.cfi_def_cfa_register 28
 1802 000c CD54      		subi r28,77
 1803 000e D109      		sbc r29,__zero_reg__
 1804               		.cfi_def_cfa_offset 83
 1805 0010 0FB6      		in __tmp_reg__,__SREG__
 1806 0012 F894      		cli
 1807 0014 DEBF      		out __SP_H__,r29
 1808 0016 0FBE      		out __SREG__,__tmp_reg__
 1809 0018 CDBF      		out __SP_L__,r28
 1810               	/* prologue: function */
 1811               	/* frame size = 77 */
 1812               	/* stack size = 81 */
 1813               	.L__stack_usage = 81
 1814 001a 082F      		mov r16,r24
 1815 001c 192F      		mov r17,r25
 250:Adafruit_Fingerprint.cpp ****             (uint8_t)(location & 0xFF));
 1816               		.loc 3 250 5 is_stmt 1 view .LVU376
 1817 001e 1982      		std Y+1,__zero_reg__
 1818 0020 1A82      		std Y+2,__zero_reg__
GAS LISTING C:\Users\kenne\AppData\Local\Temp\ccnxErqW.s 			page 69


 1819 0022 1B82      		std Y+3,__zero_reg__
 1820 0024 1C82      		std Y+4,__zero_reg__
 1821 0026 86E0      		ldi r24,lo8(6)
 1822               	.LVL95:
 250:Adafruit_Fingerprint.cpp ****             (uint8_t)(location & 0xFF));
 1823               		.loc 3 250 5 is_stmt 0 view .LVU377
 1824 0028 8983      		std Y+1,r24
 1825 002a 81E0      		ldi r24,lo8(1)
 1826 002c 8A83      		std Y+2,r24
 1827 002e 7B83      		std Y+3,r23
 1828 0030 6C83      		std Y+4,r22
 250:Adafruit_Fingerprint.cpp ****             (uint8_t)(location & 0xFF));
 1829               		.loc 3 250 5 is_stmt 1 view .LVU378
 1830 0032 9E01      		movw r18,r28
 1831 0034 2F5F      		subi r18,-1
 1832 0036 3F4F      		sbci r19,-1
 1833 0038 44E0      		ldi r20,lo8(4)
 1834 003a 50E0      		ldi r21,0
 1835 003c 61E0      		ldi r22,lo8(1)
 1836               	.LVL96:
 250:Adafruit_Fingerprint.cpp ****             (uint8_t)(location & 0xFF));
 1837               		.loc 3 250 5 is_stmt 0 view .LVU379
 1838 003e CE01      		movw r24,r28
 1839 0040 0596      		adiw r24,5
 1840 0042 0E94 0000 		call _ZN27Adafruit_Fingerprint_PacketC1EhjPh
 1841               	.LVL97:
 250:Adafruit_Fingerprint.cpp ****             (uint8_t)(location & 0xFF));
 1842               		.loc 3 250 5 is_stmt 1 view .LVU380
 1843 0046 BE01      		movw r22,r28
 1844 0048 6B5F      		subi r22,-5
 1845 004a 7F4F      		sbci r23,-1
 1846 004c 802F      		mov r24,r16
 1847 004e 912F      		mov r25,r17
 1848 0050 0E94 0000 		call _ZN20Adafruit_Fingerprint21writeStructuredPacketERK27Adafruit_Fingerprint_Packet
 1849               	.LVL98:
 250:Adafruit_Fingerprint.cpp ****             (uint8_t)(location & 0xFF));
 1850               		.loc 3 250 5 view .LVU381
 1851 0054 48EE      		ldi r20,lo8(-24)
 1852 0056 53E0      		ldi r21,lo8(3)
 1853 0058 BE01      		movw r22,r28
 1854 005a 6B5F      		subi r22,-5
 1855 005c 7F4F      		sbci r23,-1
 1856 005e 802F      		mov r24,r16
 1857 0060 912F      		mov r25,r17
 1858 0062 0E94 0000 		call _ZN20Adafruit_Fingerprint19getStructuredPacketEP27Adafruit_Fingerprint_Packetj
 1859               	.LVL99:
 1860 0066 8111      		cpse r24,__zero_reg__
 1861 0068 00C0      		rjmp .L63
 250:Adafruit_Fingerprint.cpp ****             (uint8_t)(location & 0xFF));
 1862               		.loc 3 250 5 discriminator 2 view .LVU382
 1863 006a 8B85      		ldd r24,Y+11
 1864 006c 8730      		cpi r24,lo8(7)
 1865 006e 01F4      		brne .L64
 250:Adafruit_Fingerprint.cpp ****             (uint8_t)(location & 0xFF));
 1866               		.loc 3 250 5 discriminator 4 view .LVU383
 250:Adafruit_Fingerprint.cpp ****             (uint8_t)(location & 0xFF));
 1867               		.loc 3 250 5 discriminator 4 view .LVU384
GAS LISTING C:\Users\kenne\AppData\Local\Temp\ccnxErqW.s 			page 70


 1868 0070 8E85      		ldd r24,Y+14
 1869 0072 00C0      		rjmp .L61
 1870               	.L63:
 250:Adafruit_Fingerprint.cpp ****             (uint8_t)(location & 0xFF));
 1871               		.loc 3 250 5 is_stmt 0 view .LVU385
 1872 0074 81E0      		ldi r24,lo8(1)
 1873               	.L61:
 1874               	/* epilogue start */
 252:Adafruit_Fingerprint.cpp **** 
 1875               		.loc 3 252 1 view .LVU386
 1876 0076 C35B      		subi r28,-77
 1877 0078 DF4F      		sbci r29,-1
 1878 007a 0FB6      		in __tmp_reg__,__SREG__
 1879 007c F894      		cli
 1880 007e DEBF      		out __SP_H__,r29
 1881 0080 0FBE      		out __SREG__,__tmp_reg__
 1882 0082 CDBF      		out __SP_L__,r28
 1883 0084 DF91      		pop r29
 1884 0086 CF91      		pop r28
 1885 0088 1F91      		pop r17
 1886 008a 0F91      		pop r16
 1887 008c 0895      		ret
 1888               	.L64:
 250:Adafruit_Fingerprint.cpp ****             (uint8_t)(location & 0xFF));
 1889               		.loc 3 250 5 view .LVU387
 1890 008e 81E0      		ldi r24,lo8(1)
 251:Adafruit_Fingerprint.cpp **** }
 1891               		.loc 3 251 40 is_stmt 1 view .LVU388
 1892 0090 00C0      		rjmp .L61
 1893               		.cfi_endproc
 1894               	.LFE92:
 1896               		.section	.text._ZN20Adafruit_Fingerprint9loadModelEj,"ax",@progbits
 1897               	.global	_ZN20Adafruit_Fingerprint9loadModelEj
 1899               	_ZN20Adafruit_Fingerprint9loadModelEj:
 1900               	.LVL100:
 1901               	.LFB93:
 263:Adafruit_Fingerprint.cpp ****     SEND_CMD_PACKET(FINGERPRINT_LOAD, 0x01, (uint8_t)(location >> 8),
 1902               		.loc 3 263 1 view -0
 1903               		.cfi_startproc
 263:Adafruit_Fingerprint.cpp ****     SEND_CMD_PACKET(FINGERPRINT_LOAD, 0x01, (uint8_t)(location >> 8),
 1904               		.loc 3 263 1 is_stmt 0 view .LVU390
 1905 0000 0F93      		push r16
 1906               		.cfi_def_cfa_offset 3
 1907               		.cfi_offset 16, -2
 1908 0002 1F93      		push r17
 1909               		.cfi_def_cfa_offset 4
 1910               		.cfi_offset 17, -3
 1911 0004 CF93      		push r28
 1912               		.cfi_def_cfa_offset 5
 1913               		.cfi_offset 28, -4
 1914 0006 DF93      		push r29
 1915               		.cfi_def_cfa_offset 6
 1916               		.cfi_offset 29, -5
 1917 0008 CDB7      		in r28,__SP_L__
 1918 000a DEB7      		in r29,__SP_H__
 1919               		.cfi_def_cfa_register 28
 1920 000c CD54      		subi r28,77
GAS LISTING C:\Users\kenne\AppData\Local\Temp\ccnxErqW.s 			page 71


 1921 000e D109      		sbc r29,__zero_reg__
 1922               		.cfi_def_cfa_offset 83
 1923 0010 0FB6      		in __tmp_reg__,__SREG__
 1924 0012 F894      		cli
 1925 0014 DEBF      		out __SP_H__,r29
 1926 0016 0FBE      		out __SREG__,__tmp_reg__
 1927 0018 CDBF      		out __SP_L__,r28
 1928               	/* prologue: function */
 1929               	/* frame size = 77 */
 1930               	/* stack size = 81 */
 1931               	.L__stack_usage = 81
 1932 001a 082F      		mov r16,r24
 1933 001c 192F      		mov r17,r25
 264:Adafruit_Fingerprint.cpp ****             (uint8_t)(location & 0xFF));
 1934               		.loc 3 264 5 is_stmt 1 view .LVU391
 1935 001e 1982      		std Y+1,__zero_reg__
 1936 0020 1A82      		std Y+2,__zero_reg__
 1937 0022 1B82      		std Y+3,__zero_reg__
 1938 0024 1C82      		std Y+4,__zero_reg__
 1939 0026 87E0      		ldi r24,lo8(7)
 1940               	.LVL101:
 264:Adafruit_Fingerprint.cpp ****             (uint8_t)(location & 0xFF));
 1941               		.loc 3 264 5 is_stmt 0 view .LVU392
 1942 0028 8983      		std Y+1,r24
 1943 002a 81E0      		ldi r24,lo8(1)
 1944 002c 8A83      		std Y+2,r24
 1945 002e 7B83      		std Y+3,r23
 1946 0030 6C83      		std Y+4,r22
 264:Adafruit_Fingerprint.cpp ****             (uint8_t)(location & 0xFF));
 1947               		.loc 3 264 5 is_stmt 1 view .LVU393
 1948 0032 9E01      		movw r18,r28
 1949 0034 2F5F      		subi r18,-1
 1950 0036 3F4F      		sbci r19,-1
 1951 0038 44E0      		ldi r20,lo8(4)
 1952 003a 50E0      		ldi r21,0
 1953 003c 61E0      		ldi r22,lo8(1)
 1954               	.LVL102:
 264:Adafruit_Fingerprint.cpp ****             (uint8_t)(location & 0xFF));
 1955               		.loc 3 264 5 is_stmt 0 view .LVU394
 1956 003e CE01      		movw r24,r28
 1957 0040 0596      		adiw r24,5
 1958 0042 0E94 0000 		call _ZN27Adafruit_Fingerprint_PacketC1EhjPh
 1959               	.LVL103:
 264:Adafruit_Fingerprint.cpp ****             (uint8_t)(location & 0xFF));
 1960               		.loc 3 264 5 is_stmt 1 view .LVU395
 1961 0046 BE01      		movw r22,r28
 1962 0048 6B5F      		subi r22,-5
 1963 004a 7F4F      		sbci r23,-1
 1964 004c 802F      		mov r24,r16
 1965 004e 912F      		mov r25,r17
 1966 0050 0E94 0000 		call _ZN20Adafruit_Fingerprint21writeStructuredPacketERK27Adafruit_Fingerprint_Packet
 1967               	.LVL104:
 264:Adafruit_Fingerprint.cpp ****             (uint8_t)(location & 0xFF));
 1968               		.loc 3 264 5 view .LVU396
 1969 0054 48EE      		ldi r20,lo8(-24)
 1970 0056 53E0      		ldi r21,lo8(3)
 1971 0058 BE01      		movw r22,r28
GAS LISTING C:\Users\kenne\AppData\Local\Temp\ccnxErqW.s 			page 72


 1972 005a 6B5F      		subi r22,-5
 1973 005c 7F4F      		sbci r23,-1
 1974 005e 802F      		mov r24,r16
 1975 0060 912F      		mov r25,r17
 1976 0062 0E94 0000 		call _ZN20Adafruit_Fingerprint19getStructuredPacketEP27Adafruit_Fingerprint_Packetj
 1977               	.LVL105:
 1978 0066 8111      		cpse r24,__zero_reg__
 1979 0068 00C0      		rjmp .L67
 264:Adafruit_Fingerprint.cpp ****             (uint8_t)(location & 0xFF));
 1980               		.loc 3 264 5 discriminator 2 view .LVU397
 1981 006a 8B85      		ldd r24,Y+11
 1982 006c 8730      		cpi r24,lo8(7)
 1983 006e 01F4      		brne .L68
 264:Adafruit_Fingerprint.cpp ****             (uint8_t)(location & 0xFF));
 1984               		.loc 3 264 5 discriminator 4 view .LVU398
 264:Adafruit_Fingerprint.cpp ****             (uint8_t)(location & 0xFF));
 1985               		.loc 3 264 5 discriminator 4 view .LVU399
 1986 0070 8E85      		ldd r24,Y+14
 1987 0072 00C0      		rjmp .L65
 1988               	.L67:
 264:Adafruit_Fingerprint.cpp ****             (uint8_t)(location & 0xFF));
 1989               		.loc 3 264 5 is_stmt 0 view .LVU400
 1990 0074 81E0      		ldi r24,lo8(1)
 1991               	.L65:
 1992               	/* epilogue start */
 266:Adafruit_Fingerprint.cpp **** 
 1993               		.loc 3 266 1 view .LVU401
 1994 0076 C35B      		subi r28,-77
 1995 0078 DF4F      		sbci r29,-1
 1996 007a 0FB6      		in __tmp_reg__,__SREG__
 1997 007c F894      		cli
 1998 007e DEBF      		out __SP_H__,r29
 1999 0080 0FBE      		out __SREG__,__tmp_reg__
 2000 0082 CDBF      		out __SP_L__,r28
 2001 0084 DF91      		pop r29
 2002 0086 CF91      		pop r28
 2003 0088 1F91      		pop r17
 2004 008a 0F91      		pop r16
 2005 008c 0895      		ret
 2006               	.L68:
 264:Adafruit_Fingerprint.cpp ****             (uint8_t)(location & 0xFF));
 2007               		.loc 3 264 5 view .LVU402
 2008 008e 81E0      		ldi r24,lo8(1)
 265:Adafruit_Fingerprint.cpp **** }
 2009               		.loc 3 265 40 is_stmt 1 view .LVU403
 2010 0090 00C0      		rjmp .L65
 2011               		.cfi_endproc
 2012               	.LFE93:
 2014               		.section	.text._ZN20Adafruit_Fingerprint8getModelEv,"ax",@progbits
 2015               	.global	_ZN20Adafruit_Fingerprint8getModelEv
 2017               	_ZN20Adafruit_Fingerprint8getModelEv:
 2018               	.LVL106:
 2019               	.LFB94:
 276:Adafruit_Fingerprint.cpp ****     SEND_CMD_PACKET(FINGERPRINT_UPLOAD, 0x01);
 2020               		.loc 3 276 1 view -0
 2021               		.cfi_startproc
 276:Adafruit_Fingerprint.cpp ****     SEND_CMD_PACKET(FINGERPRINT_UPLOAD, 0x01);
GAS LISTING C:\Users\kenne\AppData\Local\Temp\ccnxErqW.s 			page 73


 2022               		.loc 3 276 1 is_stmt 0 view .LVU405
 2023 0000 0F93      		push r16
 2024               		.cfi_def_cfa_offset 3
 2025               		.cfi_offset 16, -2
 2026 0002 1F93      		push r17
 2027               		.cfi_def_cfa_offset 4
 2028               		.cfi_offset 17, -3
 2029 0004 CF93      		push r28
 2030               		.cfi_def_cfa_offset 5
 2031               		.cfi_offset 28, -4
 2032 0006 DF93      		push r29
 2033               		.cfi_def_cfa_offset 6
 2034               		.cfi_offset 29, -5
 2035 0008 CDB7      		in r28,__SP_L__
 2036 000a DEB7      		in r29,__SP_H__
 2037               		.cfi_def_cfa_register 28
 2038 000c CB54      		subi r28,75
 2039 000e D109      		sbc r29,__zero_reg__
 2040               		.cfi_def_cfa_offset 81
 2041 0010 0FB6      		in __tmp_reg__,__SREG__
 2042 0012 F894      		cli
 2043 0014 DEBF      		out __SP_H__,r29
 2044 0016 0FBE      		out __SREG__,__tmp_reg__
 2045 0018 CDBF      		out __SP_L__,r28
 2046               	/* prologue: function */
 2047               	/* frame size = 75 */
 2048               	/* stack size = 79 */
 2049               	.L__stack_usage = 79
 2050 001a 082F      		mov r16,r24
 2051 001c 192F      		mov r17,r25
 277:Adafruit_Fingerprint.cpp **** }
 2052               		.loc 3 277 5 is_stmt 1 view .LVU406
 2053 001e 88E0      		ldi r24,lo8(8)
 2054 0020 91E0      		ldi r25,lo8(1)
 2055               	.LVL107:
 277:Adafruit_Fingerprint.cpp **** }
 2056               		.loc 3 277 5 is_stmt 0 view .LVU407
 2057 0022 9A83      		std Y+2,r25
 2058 0024 8983      		std Y+1,r24
 277:Adafruit_Fingerprint.cpp **** }
 2059               		.loc 3 277 5 is_stmt 1 view .LVU408
 2060 0026 9E01      		movw r18,r28
 2061 0028 2F5F      		subi r18,-1
 2062 002a 3F4F      		sbci r19,-1
 2063 002c 42E0      		ldi r20,lo8(2)
 2064 002e 50E0      		ldi r21,0
 2065 0030 61E0      		ldi r22,lo8(1)
 2066 0032 CE01      		movw r24,r28
 2067 0034 0396      		adiw r24,3
 2068 0036 0E94 0000 		call _ZN27Adafruit_Fingerprint_PacketC1EhjPh
 2069               	.LVL108:
 277:Adafruit_Fingerprint.cpp **** }
 2070               		.loc 3 277 5 view .LVU409
 2071 003a BE01      		movw r22,r28
 2072 003c 6D5F      		subi r22,-3
 2073 003e 7F4F      		sbci r23,-1
 2074 0040 802F      		mov r24,r16
GAS LISTING C:\Users\kenne\AppData\Local\Temp\ccnxErqW.s 			page 74


 2075 0042 912F      		mov r25,r17
 2076 0044 0E94 0000 		call _ZN20Adafruit_Fingerprint21writeStructuredPacketERK27Adafruit_Fingerprint_Packet
 2077               	.LVL109:
 277:Adafruit_Fingerprint.cpp **** }
 2078               		.loc 3 277 5 view .LVU410
 2079 0048 48EE      		ldi r20,lo8(-24)
 2080 004a 53E0      		ldi r21,lo8(3)
 2081 004c BE01      		movw r22,r28
 2082 004e 6D5F      		subi r22,-3
 2083 0050 7F4F      		sbci r23,-1
 2084 0052 802F      		mov r24,r16
 2085 0054 912F      		mov r25,r17
 2086 0056 0E94 0000 		call _ZN20Adafruit_Fingerprint19getStructuredPacketEP27Adafruit_Fingerprint_Packetj
 2087               	.LVL110:
 2088 005a 8111      		cpse r24,__zero_reg__
 2089 005c 00C0      		rjmp .L71
 277:Adafruit_Fingerprint.cpp **** }
 2090               		.loc 3 277 5 discriminator 2 view .LVU411
 2091 005e 8985      		ldd r24,Y+9
 2092 0060 8730      		cpi r24,lo8(7)
 2093 0062 01F4      		brne .L72
 277:Adafruit_Fingerprint.cpp **** }
 2094               		.loc 3 277 5 discriminator 5 view .LVU412
 277:Adafruit_Fingerprint.cpp **** }
 2095               		.loc 3 277 5 discriminator 5 view .LVU413
 2096 0064 8C85      		ldd r24,Y+12
 2097 0066 00C0      		rjmp .L69
 2098               	.L71:
 277:Adafruit_Fingerprint.cpp **** }
 2099               		.loc 3 277 5 is_stmt 0 view .LVU414
 2100 0068 81E0      		ldi r24,lo8(1)
 2101               	.L69:
 2102               	/* epilogue start */
 278:Adafruit_Fingerprint.cpp **** 
 2103               		.loc 3 278 1 view .LVU415
 2104 006a C55B      		subi r28,-75
 2105 006c DF4F      		sbci r29,-1
 2106 006e 0FB6      		in __tmp_reg__,__SREG__
 2107 0070 F894      		cli
 2108 0072 DEBF      		out __SP_H__,r29
 2109 0074 0FBE      		out __SREG__,__tmp_reg__
 2110 0076 CDBF      		out __SP_L__,r28
 2111 0078 DF91      		pop r29
 2112 007a CF91      		pop r28
 2113 007c 1F91      		pop r17
 2114 007e 0F91      		pop r16
 2115 0080 0895      		ret
 2116               	.L72:
 277:Adafruit_Fingerprint.cpp **** }
 2117               		.loc 3 277 5 view .LVU416
 2118 0082 81E0      		ldi r24,lo8(1)
 277:Adafruit_Fingerprint.cpp **** }
 2119               		.loc 3 277 46 is_stmt 1 view .LVU417
 2120 0084 00C0      		rjmp .L69
 2121               		.cfi_endproc
 2122               	.LFE94:
 2124               		.section	.text._ZN20Adafruit_Fingerprint11deleteModelEj,"ax",@progbits
GAS LISTING C:\Users\kenne\AppData\Local\Temp\ccnxErqW.s 			page 75


 2125               	.global	_ZN20Adafruit_Fingerprint11deleteModelEj
 2127               	_ZN20Adafruit_Fingerprint11deleteModelEj:
 2128               	.LVL111:
 2129               	.LFB95:
 291:Adafruit_Fingerprint.cpp ****     SEND_CMD_PACKET(FINGERPRINT_DELETE, (uint8_t)(location >> 8),
 2130               		.loc 3 291 1 view -0
 2131               		.cfi_startproc
 291:Adafruit_Fingerprint.cpp ****     SEND_CMD_PACKET(FINGERPRINT_DELETE, (uint8_t)(location >> 8),
 2132               		.loc 3 291 1 is_stmt 0 view .LVU419
 2133 0000 0F93      		push r16
 2134               		.cfi_def_cfa_offset 3
 2135               		.cfi_offset 16, -2
 2136 0002 1F93      		push r17
 2137               		.cfi_def_cfa_offset 4
 2138               		.cfi_offset 17, -3
 2139 0004 CF93      		push r28
 2140               		.cfi_def_cfa_offset 5
 2141               		.cfi_offset 28, -4
 2142 0006 DF93      		push r29
 2143               		.cfi_def_cfa_offset 6
 2144               		.cfi_offset 29, -5
 2145 0008 CDB7      		in r28,__SP_L__
 2146 000a DEB7      		in r29,__SP_H__
 2147               		.cfi_def_cfa_register 28
 2148 000c CE54      		subi r28,78
 2149 000e D109      		sbc r29,__zero_reg__
 2150               		.cfi_def_cfa_offset 84
 2151 0010 0FB6      		in __tmp_reg__,__SREG__
 2152 0012 F894      		cli
 2153 0014 DEBF      		out __SP_H__,r29
 2154 0016 0FBE      		out __SREG__,__tmp_reg__
 2155 0018 CDBF      		out __SP_L__,r28
 2156               	/* prologue: function */
 2157               	/* frame size = 78 */
 2158               	/* stack size = 82 */
 2159               	.L__stack_usage = 82
 2160 001a 082F      		mov r16,r24
 2161 001c 192F      		mov r17,r25
 292:Adafruit_Fingerprint.cpp ****             (uint8_t)(location & 0xFF), 0x00, 0x01);
 2162               		.loc 3 292 5 is_stmt 1 view .LVU420
 2163 001e 9E01      		movw r18,r28
 2164 0020 2F5F      		subi r18,-1
 2165 0022 3F4F      		sbci r19,-1
 2166 0024 85E0      		ldi r24,lo8(5)
 2167               	.LVL112:
 292:Adafruit_Fingerprint.cpp ****             (uint8_t)(location & 0xFF), 0x00, 0x01);
 2168               		.loc 3 292 5 is_stmt 0 view .LVU421
 2169 0026 F901      		movw r30,r18
 2170               		0:
 2171 0028 1192      		st Z+,__zero_reg__
 2172 002a 8A95      		dec r24
 2173 002c 01F4      		brne 0b
 2174 002e 8CE0      		ldi r24,lo8(12)
 2175 0030 8983      		std Y+1,r24
 2176 0032 81E0      		ldi r24,lo8(1)
 2177 0034 8D83      		std Y+5,r24
 2178 0036 7A83      		std Y+2,r23
GAS LISTING C:\Users\kenne\AppData\Local\Temp\ccnxErqW.s 			page 76


 2179 0038 6B83      		std Y+3,r22
 292:Adafruit_Fingerprint.cpp ****             (uint8_t)(location & 0xFF), 0x00, 0x01);
 2180               		.loc 3 292 5 is_stmt 1 view .LVU422
 2181 003a 45E0      		ldi r20,lo8(5)
 2182 003c 50E0      		ldi r21,0
 2183 003e 61E0      		ldi r22,lo8(1)
 2184               	.LVL113:
 292:Adafruit_Fingerprint.cpp ****             (uint8_t)(location & 0xFF), 0x00, 0x01);
 2185               		.loc 3 292 5 is_stmt 0 view .LVU423
 2186 0040 CE01      		movw r24,r28
 2187 0042 0696      		adiw r24,6
 2188 0044 0E94 0000 		call _ZN27Adafruit_Fingerprint_PacketC1EhjPh
 2189               	.LVL114:
 292:Adafruit_Fingerprint.cpp ****             (uint8_t)(location & 0xFF), 0x00, 0x01);
 2190               		.loc 3 292 5 is_stmt 1 view .LVU424
 2191 0048 BE01      		movw r22,r28
 2192 004a 6A5F      		subi r22,-6
 2193 004c 7F4F      		sbci r23,-1
 2194 004e 802F      		mov r24,r16
 2195 0050 912F      		mov r25,r17
 2196 0052 0E94 0000 		call _ZN20Adafruit_Fingerprint21writeStructuredPacketERK27Adafruit_Fingerprint_Packet
 2197               	.LVL115:
 292:Adafruit_Fingerprint.cpp ****             (uint8_t)(location & 0xFF), 0x00, 0x01);
 2198               		.loc 3 292 5 view .LVU425
 2199 0056 48EE      		ldi r20,lo8(-24)
 2200 0058 53E0      		ldi r21,lo8(3)
 2201 005a BE01      		movw r22,r28
 2202 005c 6A5F      		subi r22,-6
 2203 005e 7F4F      		sbci r23,-1
 2204 0060 802F      		mov r24,r16
 2205 0062 912F      		mov r25,r17
 2206 0064 0E94 0000 		call _ZN20Adafruit_Fingerprint19getStructuredPacketEP27Adafruit_Fingerprint_Packetj
 2207               	.LVL116:
 2208 0068 8111      		cpse r24,__zero_reg__
 2209 006a 00C0      		rjmp .L75
 292:Adafruit_Fingerprint.cpp ****             (uint8_t)(location & 0xFF), 0x00, 0x01);
 2210               		.loc 3 292 5 discriminator 2 view .LVU426
 2211 006c 8C85      		ldd r24,Y+12
 2212 006e 8730      		cpi r24,lo8(7)
 2213 0070 01F4      		brne .L76
 292:Adafruit_Fingerprint.cpp ****             (uint8_t)(location & 0xFF), 0x00, 0x01);
 2214               		.loc 3 292 5 discriminator 4 view .LVU427
 292:Adafruit_Fingerprint.cpp ****             (uint8_t)(location & 0xFF), 0x00, 0x01);
 2215               		.loc 3 292 5 discriminator 4 view .LVU428
 2216 0072 8F85      		ldd r24,Y+15
 2217 0074 00C0      		rjmp .L73
 2218               	.L75:
 292:Adafruit_Fingerprint.cpp ****             (uint8_t)(location & 0xFF), 0x00, 0x01);
 2219               		.loc 3 292 5 is_stmt 0 view .LVU429
 2220 0076 81E0      		ldi r24,lo8(1)
 2221               	.L73:
 2222               	/* epilogue start */
 294:Adafruit_Fingerprint.cpp **** 
 2223               		.loc 3 294 1 view .LVU430
 2224 0078 C25B      		subi r28,-78
 2225 007a DF4F      		sbci r29,-1
 2226 007c 0FB6      		in __tmp_reg__,__SREG__
GAS LISTING C:\Users\kenne\AppData\Local\Temp\ccnxErqW.s 			page 77


 2227 007e F894      		cli
 2228 0080 DEBF      		out __SP_H__,r29
 2229 0082 0FBE      		out __SREG__,__tmp_reg__
 2230 0084 CDBF      		out __SP_L__,r28
 2231 0086 DF91      		pop r29
 2232 0088 CF91      		pop r28
 2233 008a 1F91      		pop r17
 2234 008c 0F91      		pop r16
 2235 008e 0895      		ret
 2236               	.L76:
 292:Adafruit_Fingerprint.cpp ****             (uint8_t)(location & 0xFF), 0x00, 0x01);
 2237               		.loc 3 292 5 view .LVU431
 2238 0090 81E0      		ldi r24,lo8(1)
 293:Adafruit_Fingerprint.cpp **** }
 2239               		.loc 3 293 52 is_stmt 1 view .LVU432
 2240 0092 00C0      		rjmp .L73
 2241               		.cfi_endproc
 2242               	.LFE95:
 2244               		.section	.text._ZN20Adafruit_Fingerprint13emptyDatabaseEv,"ax",@progbits
 2245               	.global	_ZN20Adafruit_Fingerprint13emptyDatabaseEv
 2247               	_ZN20Adafruit_Fingerprint13emptyDatabaseEv:
 2248               	.LVL117:
 2249               	.LFB96:
 306:Adafruit_Fingerprint.cpp ****     SEND_CMD_PACKET(FINGERPRINT_EMPTY);
 2250               		.loc 3 306 1 view -0
 2251               		.cfi_startproc
 306:Adafruit_Fingerprint.cpp ****     SEND_CMD_PACKET(FINGERPRINT_EMPTY);
 2252               		.loc 3 306 1 is_stmt 0 view .LVU434
 2253 0000 0F93      		push r16
 2254               		.cfi_def_cfa_offset 3
 2255               		.cfi_offset 16, -2
 2256 0002 1F93      		push r17
 2257               		.cfi_def_cfa_offset 4
 2258               		.cfi_offset 17, -3
 2259 0004 CF93      		push r28
 2260               		.cfi_def_cfa_offset 5
 2261               		.cfi_offset 28, -4
 2262 0006 DF93      		push r29
 2263               		.cfi_def_cfa_offset 6
 2264               		.cfi_offset 29, -5
 2265 0008 CDB7      		in r28,__SP_L__
 2266 000a DEB7      		in r29,__SP_H__
 2267               		.cfi_def_cfa_register 28
 2268 000c CA54      		subi r28,74
 2269 000e D109      		sbc r29,__zero_reg__
 2270               		.cfi_def_cfa_offset 80
 2271 0010 0FB6      		in __tmp_reg__,__SREG__
 2272 0012 F894      		cli
 2273 0014 DEBF      		out __SP_H__,r29
 2274 0016 0FBE      		out __SREG__,__tmp_reg__
 2275 0018 CDBF      		out __SP_L__,r28
 2276               	/* prologue: function */
 2277               	/* frame size = 74 */
 2278               	/* stack size = 78 */
 2279               	.L__stack_usage = 78
 2280 001a 082F      		mov r16,r24
 2281 001c 192F      		mov r17,r25
GAS LISTING C:\Users\kenne\AppData\Local\Temp\ccnxErqW.s 			page 78


 307:Adafruit_Fingerprint.cpp **** }
 2282               		.loc 3 307 5 is_stmt 1 view .LVU435
 2283 001e 8DE0      		ldi r24,lo8(13)
 2284               	.LVL118:
 307:Adafruit_Fingerprint.cpp **** }
 2285               		.loc 3 307 5 is_stmt 0 view .LVU436
 2286 0020 8983      		std Y+1,r24
 307:Adafruit_Fingerprint.cpp **** }
 2287               		.loc 3 307 5 is_stmt 1 view .LVU437
 2288 0022 9E01      		movw r18,r28
 2289 0024 2F5F      		subi r18,-1
 2290 0026 3F4F      		sbci r19,-1
 2291 0028 41E0      		ldi r20,lo8(1)
 2292 002a 50E0      		ldi r21,0
 2293 002c 61E0      		ldi r22,lo8(1)
 2294 002e CE01      		movw r24,r28
 2295 0030 0296      		adiw r24,2
 2296 0032 0E94 0000 		call _ZN27Adafruit_Fingerprint_PacketC1EhjPh
 2297               	.LVL119:
 307:Adafruit_Fingerprint.cpp **** }
 2298               		.loc 3 307 5 view .LVU438
 2299 0036 BE01      		movw r22,r28
 2300 0038 6E5F      		subi r22,-2
 2301 003a 7F4F      		sbci r23,-1
 2302 003c 802F      		mov r24,r16
 2303 003e 912F      		mov r25,r17
 2304 0040 0E94 0000 		call _ZN20Adafruit_Fingerprint21writeStructuredPacketERK27Adafruit_Fingerprint_Packet
 2305               	.LVL120:
 307:Adafruit_Fingerprint.cpp **** }
 2306               		.loc 3 307 5 view .LVU439
 2307 0044 48EE      		ldi r20,lo8(-24)
 2308 0046 53E0      		ldi r21,lo8(3)
 2309 0048 BE01      		movw r22,r28
 2310 004a 6E5F      		subi r22,-2
 2311 004c 7F4F      		sbci r23,-1
 2312 004e 802F      		mov r24,r16
 2313 0050 912F      		mov r25,r17
 2314 0052 0E94 0000 		call _ZN20Adafruit_Fingerprint19getStructuredPacketEP27Adafruit_Fingerprint_Packetj
 2315               	.LVL121:
 2316 0056 8111      		cpse r24,__zero_reg__
 2317 0058 00C0      		rjmp .L79
 307:Adafruit_Fingerprint.cpp **** }
 2318               		.loc 3 307 5 discriminator 2 view .LVU440
 2319 005a 8885      		ldd r24,Y+8
 2320 005c 8730      		cpi r24,lo8(7)
 2321 005e 01F4      		brne .L80
 307:Adafruit_Fingerprint.cpp **** }
 2322               		.loc 3 307 5 discriminator 5 view .LVU441
 307:Adafruit_Fingerprint.cpp **** }
 2323               		.loc 3 307 5 discriminator 5 view .LVU442
 2324 0060 8B85      		ldd r24,Y+11
 2325 0062 00C0      		rjmp .L77
 2326               	.L79:
 307:Adafruit_Fingerprint.cpp **** }
 2327               		.loc 3 307 5 is_stmt 0 view .LVU443
 2328 0064 81E0      		ldi r24,lo8(1)
 2329               	.L77:
GAS LISTING C:\Users\kenne\AppData\Local\Temp\ccnxErqW.s 			page 79


 2330               	/* epilogue start */
 308:Adafruit_Fingerprint.cpp **** 
 2331               		.loc 3 308 1 view .LVU444
 2332 0066 C65B      		subi r28,-74
 2333 0068 DF4F      		sbci r29,-1
 2334 006a 0FB6      		in __tmp_reg__,__SREG__
 2335 006c F894      		cli
 2336 006e DEBF      		out __SP_H__,r29
 2337 0070 0FBE      		out __SREG__,__tmp_reg__
 2338 0072 CDBF      		out __SP_L__,r28
 2339 0074 DF91      		pop r29
 2340 0076 CF91      		pop r28
 2341 0078 1F91      		pop r17
 2342 007a 0F91      		pop r16
 2343 007c 0895      		ret
 2344               	.L80:
 307:Adafruit_Fingerprint.cpp **** }
 2345               		.loc 3 307 5 view .LVU445
 2346 007e 81E0      		ldi r24,lo8(1)
 307:Adafruit_Fingerprint.cpp **** }
 2347               		.loc 3 307 39 is_stmt 1 view .LVU446
 2348 0080 00C0      		rjmp .L77
 2349               		.cfi_endproc
 2350               	.LFE96:
 2352               		.section	.rodata
 2353               	.LC11:
 2354 0000 1B01 00   		.string	"\033\001"
 2355 0003 00        		.string	""
 2356 0004 00        		.string	""
 2357 0005 A3        		.ascii	"\243"
 2358               		.section	.text._ZN20Adafruit_Fingerprint16fingerFastSearchEv,"ax",@progbits
 2359               	.global	_ZN20Adafruit_Fingerprint16fingerFastSearchEv
 2361               	_ZN20Adafruit_Fingerprint16fingerFastSearchEv:
 2362               	.LVL122:
 2363               	.LFB97:
 321:Adafruit_Fingerprint.cpp ****     // high speed search of slot #1 starting at page 0x0000 and page #0x00A3
 2364               		.loc 3 321 1 view -0
 2365               		.cfi_startproc
 321:Adafruit_Fingerprint.cpp ****     // high speed search of slot #1 starting at page 0x0000 and page #0x00A3
 2366               		.loc 3 321 1 is_stmt 0 view .LVU448
 2367 0000 0F93      		push r16
 2368               		.cfi_def_cfa_offset 3
 2369               		.cfi_offset 16, -2
 2370 0002 1F93      		push r17
 2371               		.cfi_def_cfa_offset 4
 2372               		.cfi_offset 17, -3
 2373 0004 CF93      		push r28
 2374               		.cfi_def_cfa_offset 5
 2375               		.cfi_offset 28, -4
 2376 0006 DF93      		push r29
 2377               		.cfi_def_cfa_offset 6
 2378               		.cfi_offset 29, -5
 2379 0008 CDB7      		in r28,__SP_L__
 2380 000a DEB7      		in r29,__SP_H__
 2381               		.cfi_def_cfa_register 28
 2382 000c CF54      		subi r28,79
 2383 000e D109      		sbc r29,__zero_reg__
GAS LISTING C:\Users\kenne\AppData\Local\Temp\ccnxErqW.s 			page 80


 2384               		.cfi_def_cfa_offset 85
 2385 0010 0FB6      		in __tmp_reg__,__SREG__
 2386 0012 F894      		cli
 2387 0014 DEBF      		out __SP_H__,r29
 2388 0016 0FBE      		out __SREG__,__tmp_reg__
 2389 0018 CDBF      		out __SP_L__,r28
 2390               	/* prologue: function */
 2391               	/* frame size = 79 */
 2392               	/* stack size = 83 */
 2393               	.L__stack_usage = 83
 2394 001a 082F      		mov r16,r24
 2395 001c 192F      		mov r17,r25
 323:Adafruit_Fingerprint.cpp ****     fingerID = 0xFFFF;
 2396               		.loc 3 323 5 is_stmt 1 view .LVU449
 2397 001e 86E0      		ldi r24,lo8(6)
 2398               	.LVL123:
 323:Adafruit_Fingerprint.cpp ****     fingerID = 0xFFFF;
 2399               		.loc 3 323 5 is_stmt 0 view .LVU450
 2400 0020 E0E0      		ldi r30,lo8(.LC11)
 2401 0022 F0E0      		ldi r31,hi8(.LC11)
 2402 0024 DE01      		movw r26,r28
 2403 0026 1196      		adiw r26,1
 2404               		0:
 2405 0028 0190      		ld r0,Z+
 2406 002a 0D92      		st X+,r0
 2407 002c 8A95      		dec r24
 2408 002e 01F4      		brne 0b
 323:Adafruit_Fingerprint.cpp ****     fingerID = 0xFFFF;
 2409               		.loc 3 323 5 is_stmt 1 view .LVU451
 2410 0030 9E01      		movw r18,r28
 2411 0032 2F5F      		subi r18,-1
 2412 0034 3F4F      		sbci r19,-1
 2413 0036 46E0      		ldi r20,lo8(6)
 2414 0038 50E0      		ldi r21,0
 2415 003a 61E0      		ldi r22,lo8(1)
 2416 003c CE01      		movw r24,r28
 2417 003e 0796      		adiw r24,7
 2418 0040 0E94 0000 		call _ZN27Adafruit_Fingerprint_PacketC1EhjPh
 2419               	.LVL124:
 323:Adafruit_Fingerprint.cpp ****     fingerID = 0xFFFF;
 2420               		.loc 3 323 5 view .LVU452
 2421 0044 BE01      		movw r22,r28
 2422 0046 695F      		subi r22,-7
 2423 0048 7F4F      		sbci r23,-1
 2424 004a C801      		movw r24,r16
 2425 004c 0E94 0000 		call _ZN20Adafruit_Fingerprint21writeStructuredPacketERK27Adafruit_Fingerprint_Packet
 2426               	.LVL125:
 323:Adafruit_Fingerprint.cpp ****     fingerID = 0xFFFF;
 2427               		.loc 3 323 5 view .LVU453
 2428 0050 48EE      		ldi r20,lo8(-24)
 2429 0052 53E0      		ldi r21,lo8(3)
 2430 0054 BE01      		movw r22,r28
 2431 0056 695F      		subi r22,-7
 2432 0058 7F4F      		sbci r23,-1
 2433 005a C801      		movw r24,r16
 2434 005c 0E94 0000 		call _ZN20Adafruit_Fingerprint19getStructuredPacketEP27Adafruit_Fingerprint_Packetj
 2435               	.LVL126:
GAS LISTING C:\Users\kenne\AppData\Local\Temp\ccnxErqW.s 			page 81


 2436 0060 8111      		cpse r24,__zero_reg__
 2437 0062 00C0      		rjmp .L83
 323:Adafruit_Fingerprint.cpp ****     fingerID = 0xFFFF;
 2438               		.loc 3 323 5 discriminator 2 view .LVU454
 2439 0064 8D85      		ldd r24,Y+13
 2440 0066 8730      		cpi r24,lo8(7)
 2441 0068 01F4      		brne .L84
 323:Adafruit_Fingerprint.cpp ****     fingerID = 0xFFFF;
 2442               		.loc 3 323 76 discriminator 4 view .LVU455
 324:Adafruit_Fingerprint.cpp ****     confidence = 0xFFFF;
 2443               		.loc 3 324 5 discriminator 4 view .LVU456
 324:Adafruit_Fingerprint.cpp ****     confidence = 0xFFFF;
 2444               		.loc 3 324 14 is_stmt 0 discriminator 4 view .LVU457
 2445 006a 8FEF      		ldi r24,lo8(-1)
 2446 006c 9FEF      		ldi r25,lo8(-1)
 2447 006e F801      		movw r30,r16
 2448 0070 9183      		std Z+1,r25
 2449 0072 8083      		st Z,r24
 325:Adafruit_Fingerprint.cpp **** 
 2450               		.loc 3 325 5 is_stmt 1 discriminator 4 view .LVU458
 325:Adafruit_Fingerprint.cpp **** 
 2451               		.loc 3 325 16 is_stmt 0 discriminator 4 view .LVU459
 2452 0074 9383      		std Z+3,r25
 2453 0076 8283      		std Z+2,r24
 327:Adafruit_Fingerprint.cpp ****     fingerID <<= 8;
 2454               		.loc 3 327 5 is_stmt 1 discriminator 4 view .LVU460
 327:Adafruit_Fingerprint.cpp ****     fingerID <<= 8;
 2455               		.loc 3 327 29 is_stmt 0 discriminator 4 view .LVU461
 2456 0078 8989      		ldd r24,Y+17
 2457 007a 90E0      		ldi r25,0
 327:Adafruit_Fingerprint.cpp ****     fingerID <<= 8;
 2458               		.loc 3 327 14 discriminator 4 view .LVU462
 2459 007c 9183      		std Z+1,r25
 2460 007e 8083      		st Z,r24
 328:Adafruit_Fingerprint.cpp ****     fingerID |= packet.data[2];
 2461               		.loc 3 328 5 is_stmt 1 discriminator 4 view .LVU463
 328:Adafruit_Fingerprint.cpp ****     fingerID |= packet.data[2];
 2462               		.loc 3 328 14 is_stmt 0 discriminator 4 view .LVU464
 2463 0080 982F      		mov r25,r24
 2464 0082 8827      		clr r24
 2465 0084 9183      		std Z+1,r25
 2466 0086 8083      		st Z,r24
 329:Adafruit_Fingerprint.cpp **** 
 2467               		.loc 3 329 5 is_stmt 1 discriminator 4 view .LVU465
 329:Adafruit_Fingerprint.cpp **** 
 2468               		.loc 3 329 30 is_stmt 0 discriminator 4 view .LVU466
 2469 0088 2A89      		ldd r18,Y+18
 329:Adafruit_Fingerprint.cpp **** 
 2470               		.loc 3 329 14 discriminator 4 view .LVU467
 2471 008a 822B      		or r24,r18
 2472 008c 9183      		std Z+1,r25
 2473 008e 8083      		st Z,r24
 331:Adafruit_Fingerprint.cpp ****     confidence <<= 8;
 2474               		.loc 3 331 5 is_stmt 1 discriminator 4 view .LVU468
 331:Adafruit_Fingerprint.cpp ****     confidence <<= 8;
 2475               		.loc 3 331 31 is_stmt 0 discriminator 4 view .LVU469
 2476 0090 8B89      		ldd r24,Y+19
GAS LISTING C:\Users\kenne\AppData\Local\Temp\ccnxErqW.s 			page 82


 2477 0092 90E0      		ldi r25,0
 331:Adafruit_Fingerprint.cpp ****     confidence <<= 8;
 2478               		.loc 3 331 16 discriminator 4 view .LVU470
 2479 0094 9383      		std Z+3,r25
 2480 0096 8283      		std Z+2,r24
 332:Adafruit_Fingerprint.cpp ****     confidence |= packet.data[4];
 2481               		.loc 3 332 5 is_stmt 1 discriminator 4 view .LVU471
 332:Adafruit_Fingerprint.cpp ****     confidence |= packet.data[4];
 2482               		.loc 3 332 16 is_stmt 0 discriminator 4 view .LVU472
 2483 0098 982F      		mov r25,r24
 2484 009a 8827      		clr r24
 2485 009c 9383      		std Z+3,r25
 2486 009e 8283      		std Z+2,r24
 333:Adafruit_Fingerprint.cpp **** 
 2487               		.loc 3 333 5 is_stmt 1 discriminator 4 view .LVU473
 333:Adafruit_Fingerprint.cpp **** 
 2488               		.loc 3 333 32 is_stmt 0 discriminator 4 view .LVU474
 2489 00a0 2C89      		ldd r18,Y+20
 333:Adafruit_Fingerprint.cpp **** 
 2490               		.loc 3 333 16 discriminator 4 view .LVU475
 2491 00a2 822B      		or r24,r18
 2492 00a4 9383      		std Z+3,r25
 2493 00a6 8283      		std Z+2,r24
 335:Adafruit_Fingerprint.cpp **** }
 2494               		.loc 3 335 5 is_stmt 1 discriminator 4 view .LVU476
 335:Adafruit_Fingerprint.cpp **** }
 2495               		.loc 3 335 25 is_stmt 0 discriminator 4 view .LVU477
 2496 00a8 8889      		ldd r24,Y+16
 2497 00aa 00C0      		rjmp .L81
 2498               	.L83:
 323:Adafruit_Fingerprint.cpp ****     fingerID = 0xFFFF;
 2499               		.loc 3 323 5 view .LVU478
 2500 00ac 81E0      		ldi r24,lo8(1)
 2501               	.L81:
 2502               	/* epilogue start */
 336:Adafruit_Fingerprint.cpp **** 
 2503               		.loc 3 336 1 view .LVU479
 2504 00ae C15B      		subi r28,-79
 2505 00b0 DF4F      		sbci r29,-1
 2506 00b2 0FB6      		in __tmp_reg__,__SREG__
 2507 00b4 F894      		cli
 2508 00b6 DEBF      		out __SP_H__,r29
 2509 00b8 0FBE      		out __SREG__,__tmp_reg__
 2510 00ba CDBF      		out __SP_L__,r28
 2511 00bc DF91      		pop r29
 2512 00be CF91      		pop r28
 2513 00c0 1F91      		pop r17
 2514 00c2 0F91      		pop r16
 2515 00c4 0895      		ret
 2516               	.L84:
 323:Adafruit_Fingerprint.cpp ****     fingerID = 0xFFFF;
 2517               		.loc 3 323 5 view .LVU480
 2518 00c6 81E0      		ldi r24,lo8(1)
 2519 00c8 00C0      		rjmp .L81
 2520               		.cfi_endproc
 2521               	.LFE97:
 2523               		.section	.text._ZN20Adafruit_Fingerprint10LEDcontrolEb,"ax",@progbits
GAS LISTING C:\Users\kenne\AppData\Local\Temp\ccnxErqW.s 			page 83


 2524               	.global	_ZN20Adafruit_Fingerprint10LEDcontrolEb
 2526               	_ZN20Adafruit_Fingerprint10LEDcontrolEb:
 2527               	.LVL127:
 2528               	.LFB98:
 346:Adafruit_Fingerprint.cpp ****     if(on) {
 2529               		.loc 3 346 1 is_stmt 1 view -0
 2530               		.cfi_startproc
 346:Adafruit_Fingerprint.cpp ****     if(on) {
 2531               		.loc 3 346 1 is_stmt 0 view .LVU482
 2532 0000 0F93      		push r16
 2533               		.cfi_def_cfa_offset 3
 2534               		.cfi_offset 16, -2
 2535 0002 1F93      		push r17
 2536               		.cfi_def_cfa_offset 4
 2537               		.cfi_offset 17, -3
 2538 0004 CF93      		push r28
 2539               		.cfi_def_cfa_offset 5
 2540               		.cfi_offset 28, -4
 2541 0006 DF93      		push r29
 2542               		.cfi_def_cfa_offset 6
 2543               		.cfi_offset 29, -5
 2544 0008 CDB7      		in r28,__SP_L__
 2545 000a DEB7      		in r29,__SP_H__
 2546               		.cfi_def_cfa_register 28
 2547 000c CA54      		subi r28,74
 2548 000e D109      		sbc r29,__zero_reg__
 2549               		.cfi_def_cfa_offset 80
 2550 0010 0FB6      		in __tmp_reg__,__SREG__
 2551 0012 F894      		cli
 2552 0014 DEBF      		out __SP_H__,r29
 2553 0016 0FBE      		out __SREG__,__tmp_reg__
 2554 0018 CDBF      		out __SP_L__,r28
 2555               	/* prologue: function */
 2556               	/* frame size = 74 */
 2557               	/* stack size = 78 */
 2558               	.L__stack_usage = 78
 2559 001a 082F      		mov r16,r24
 2560 001c 192F      		mov r17,r25
 347:Adafruit_Fingerprint.cpp ****         SEND_CMD_PACKET(FINGERPRINT_LEDON);
 2561               		.loc 3 347 5 is_stmt 1 view .LVU483
 2562               	.LBB13:
 2563 001e 6623      		tst r22
 2564 0020 01F0      		breq .L86
 2565               	.LBB14:
 348:Adafruit_Fingerprint.cpp ****     } else {
 2566               		.loc 3 348 9 view .LVU484
 2567 0022 80E5      		ldi r24,lo8(80)
 2568               	.LVL128:
 348:Adafruit_Fingerprint.cpp ****     } else {
 2569               		.loc 3 348 9 is_stmt 0 view .LVU485
 2570 0024 2B96      		adiw r28,74-63
 2571 0026 8FAF      		std Y+63,r24
 2572 0028 2B97      		sbiw r28,74-63
 348:Adafruit_Fingerprint.cpp ****     } else {
 2573               		.loc 3 348 9 is_stmt 1 view .LVU486
 2574 002a 9E01      		movw r18,r28
 2575 002c 265B      		subi r18,-74
GAS LISTING C:\Users\kenne\AppData\Local\Temp\ccnxErqW.s 			page 84


 2576 002e 3F4F      		sbci r19,-1
 2577 0030 41E0      		ldi r20,lo8(1)
 2578 0032 50E0      		ldi r21,0
 2579 0034 61E0      		ldi r22,lo8(1)
 2580               	.LVL129:
 348:Adafruit_Fingerprint.cpp ****     } else {
 2581               		.loc 3 348 9 is_stmt 0 view .LVU487
 2582 0036 CE01      		movw r24,r28
 2583 0038 0196      		adiw r24,1
 2584 003a 0E94 0000 		call _ZN27Adafruit_Fingerprint_PacketC1EhjPh
 2585               	.LVL130:
 348:Adafruit_Fingerprint.cpp ****     } else {
 2586               		.loc 3 348 9 is_stmt 1 view .LVU488
 2587 003e BE01      		movw r22,r28
 2588 0040 6F5F      		subi r22,-1
 2589 0042 7F4F      		sbci r23,-1
 2590 0044 802F      		mov r24,r16
 2591 0046 912F      		mov r25,r17
 2592 0048 0E94 0000 		call _ZN20Adafruit_Fingerprint21writeStructuredPacketERK27Adafruit_Fingerprint_Packet
 2593               	.LVL131:
 348:Adafruit_Fingerprint.cpp ****     } else {
 2594               		.loc 3 348 9 view .LVU489
 2595 004c 48EE      		ldi r20,lo8(-24)
 2596 004e 53E0      		ldi r21,lo8(3)
 2597 0050 BE01      		movw r22,r28
 2598 0052 6F5F      		subi r22,-1
 2599 0054 7F4F      		sbci r23,-1
 2600 0056 802F      		mov r24,r16
 2601 0058 912F      		mov r25,r17
 2602 005a 0E94 0000 		call _ZN20Adafruit_Fingerprint19getStructuredPacketEP27Adafruit_Fingerprint_Packetj
 2603               	.LVL132:
 2604 005e 8111      		cpse r24,__zero_reg__
 2605 0060 00C0      		rjmp .L90
 348:Adafruit_Fingerprint.cpp ****     } else {
 2606               		.loc 3 348 9 discriminator 2 view .LVU490
 2607 0062 8F81      		ldd r24,Y+7
 2608 0064 8730      		cpi r24,lo8(7)
 2609 0066 01F0      		breq .L94
 348:Adafruit_Fingerprint.cpp ****     } else {
 2610               		.loc 3 348 9 is_stmt 0 view .LVU491
 2611 0068 81E0      		ldi r24,lo8(1)
 348:Adafruit_Fingerprint.cpp ****     } else {
 2612               		.loc 3 348 43 is_stmt 1 view .LVU492
 2613               	.L85:
 2614               	/* epilogue start */
 2615               	.LBE14:
 2616               	.LBE13:
 352:Adafruit_Fingerprint.cpp **** 
 2617               		.loc 3 352 1 is_stmt 0 view .LVU493
 2618 006a C65B      		subi r28,-74
 2619 006c DF4F      		sbci r29,-1
 2620 006e 0FB6      		in __tmp_reg__,__SREG__
 2621 0070 F894      		cli
 2622 0072 DEBF      		out __SP_H__,r29
 2623 0074 0FBE      		out __SREG__,__tmp_reg__
 2624 0076 CDBF      		out __SP_L__,r28
 2625 0078 DF91      		pop r29
GAS LISTING C:\Users\kenne\AppData\Local\Temp\ccnxErqW.s 			page 85


 2626 007a CF91      		pop r28
 2627 007c 1F91      		pop r17
 2628 007e 0F91      		pop r16
 2629 0080 0895      		ret
 2630               	.L94:
 2631               	.LBB17:
 2632               	.LBB15:
 348:Adafruit_Fingerprint.cpp ****     } else {
 2633               		.loc 3 348 9 is_stmt 1 discriminator 5 view .LVU494
 348:Adafruit_Fingerprint.cpp ****     } else {
 2634               		.loc 3 348 9 discriminator 5 view .LVU495
 2635 0082 8A85      		ldd r24,Y+10
 2636 0084 00C0      		rjmp .L85
 2637               	.L90:
 348:Adafruit_Fingerprint.cpp ****     } else {
 2638               		.loc 3 348 9 is_stmt 0 view .LVU496
 2639 0086 81E0      		ldi r24,lo8(1)
 2640 0088 00C0      		rjmp .L85
 2641               	.LVL133:
 2642               	.L86:
 348:Adafruit_Fingerprint.cpp ****     } else {
 2643               		.loc 3 348 9 view .LVU497
 2644               	.LBE15:
 2645               	.LBB16:
 350:Adafruit_Fingerprint.cpp ****     }
 2646               		.loc 3 350 9 is_stmt 1 view .LVU498
 2647 008a 81E5      		ldi r24,lo8(81)
 2648               	.LVL134:
 350:Adafruit_Fingerprint.cpp ****     }
 2649               		.loc 3 350 9 is_stmt 0 view .LVU499
 2650 008c 2B96      		adiw r28,74-63
 2651 008e 8FAF      		std Y+63,r24
 2652 0090 2B97      		sbiw r28,74-63
 350:Adafruit_Fingerprint.cpp ****     }
 2653               		.loc 3 350 9 is_stmt 1 view .LVU500
 2654 0092 9E01      		movw r18,r28
 2655 0094 265B      		subi r18,-74
 2656 0096 3F4F      		sbci r19,-1
 2657 0098 41E0      		ldi r20,lo8(1)
 2658 009a 50E0      		ldi r21,0
 2659 009c 61E0      		ldi r22,lo8(1)
 2660               	.LVL135:
 350:Adafruit_Fingerprint.cpp ****     }
 2661               		.loc 3 350 9 is_stmt 0 view .LVU501
 2662 009e CE01      		movw r24,r28
 2663 00a0 0196      		adiw r24,1
 2664 00a2 0E94 0000 		call _ZN27Adafruit_Fingerprint_PacketC1EhjPh
 2665               	.LVL136:
 350:Adafruit_Fingerprint.cpp ****     }
 2666               		.loc 3 350 9 is_stmt 1 view .LVU502
 2667 00a6 BE01      		movw r22,r28
 2668 00a8 6F5F      		subi r22,-1
 2669 00aa 7F4F      		sbci r23,-1
 2670 00ac 802F      		mov r24,r16
 2671 00ae 912F      		mov r25,r17
 2672 00b0 0E94 0000 		call _ZN20Adafruit_Fingerprint21writeStructuredPacketERK27Adafruit_Fingerprint_Packet
 2673               	.LVL137:
GAS LISTING C:\Users\kenne\AppData\Local\Temp\ccnxErqW.s 			page 86


 350:Adafruit_Fingerprint.cpp ****     }
 2674               		.loc 3 350 9 view .LVU503
 2675 00b4 48EE      		ldi r20,lo8(-24)
 2676 00b6 53E0      		ldi r21,lo8(3)
 2677 00b8 BE01      		movw r22,r28
 2678 00ba 6F5F      		subi r22,-1
 2679 00bc 7F4F      		sbci r23,-1
 2680 00be 802F      		mov r24,r16
 2681 00c0 912F      		mov r25,r17
 2682 00c2 0E94 0000 		call _ZN20Adafruit_Fingerprint19getStructuredPacketEP27Adafruit_Fingerprint_Packetj
 2683               	.LVL138:
 2684 00c6 8111      		cpse r24,__zero_reg__
 2685 00c8 00C0      		rjmp .L92
 350:Adafruit_Fingerprint.cpp ****     }
 2686               		.loc 3 350 9 discriminator 2 view .LVU504
 2687 00ca 8F81      		ldd r24,Y+7
 2688 00cc 8730      		cpi r24,lo8(7)
 2689 00ce 01F0      		breq .L95
 350:Adafruit_Fingerprint.cpp ****     }
 2690               		.loc 3 350 9 is_stmt 0 view .LVU505
 2691 00d0 81E0      		ldi r24,lo8(1)
 350:Adafruit_Fingerprint.cpp ****     }
 2692               		.loc 3 350 44 is_stmt 1 view .LVU506
 2693 00d2 00C0      		rjmp .L85
 2694               	.L95:
 350:Adafruit_Fingerprint.cpp ****     }
 2695               		.loc 3 350 9 discriminator 5 view .LVU507
 350:Adafruit_Fingerprint.cpp ****     }
 2696               		.loc 3 350 9 discriminator 5 view .LVU508
 2697 00d4 8A85      		ldd r24,Y+10
 2698 00d6 00C0      		rjmp .L85
 2699               	.L92:
 350:Adafruit_Fingerprint.cpp ****     }
 2700               		.loc 3 350 9 is_stmt 0 view .LVU509
 2701 00d8 81E0      		ldi r24,lo8(1)
 2702 00da 00C0      		rjmp .L85
 2703               	.LBE16:
 2704               	.LBE17:
 2705               		.cfi_endproc
 2706               	.LFE98:
 2708               		.section	.text._ZN20Adafruit_Fingerprint10LEDcontrolEhhhh,"ax",@progbits
 2709               	.global	_ZN20Adafruit_Fingerprint10LEDcontrolEhhhh
 2711               	_ZN20Adafruit_Fingerprint10LEDcontrolEhhhh:
 2712               	.LVL139:
 2713               	.LFB99:
 369:Adafruit_Fingerprint.cpp ****     SEND_CMD_PACKET(FINGERPRINT_AURALEDCONFIG, control, speed, coloridx, count);
 2714               		.loc 3 369 1 is_stmt 1 view -0
 2715               		.cfi_startproc
 369:Adafruit_Fingerprint.cpp ****     SEND_CMD_PACKET(FINGERPRINT_AURALEDCONFIG, control, speed, coloridx, count);
 2716               		.loc 3 369 1 is_stmt 0 view .LVU511
 2717 0000 FF92      		push r15
 2718               		.cfi_def_cfa_offset 3
 2719               		.cfi_offset 15, -2
 2720 0002 0F93      		push r16
 2721               		.cfi_def_cfa_offset 4
 2722               		.cfi_offset 16, -3
 2723 0004 1F93      		push r17
GAS LISTING C:\Users\kenne\AppData\Local\Temp\ccnxErqW.s 			page 87


 2724               		.cfi_def_cfa_offset 5
 2725               		.cfi_offset 17, -4
 2726 0006 CF93      		push r28
 2727               		.cfi_def_cfa_offset 6
 2728               		.cfi_offset 28, -5
 2729 0008 DF93      		push r29
 2730               		.cfi_def_cfa_offset 7
 2731               		.cfi_offset 29, -6
 2732 000a CDB7      		in r28,__SP_L__
 2733 000c DEB7      		in r29,__SP_H__
 2734               		.cfi_def_cfa_register 28
 2735 000e CE54      		subi r28,78
 2736 0010 D109      		sbc r29,__zero_reg__
 2737               		.cfi_def_cfa_offset 85
 2738 0012 0FB6      		in __tmp_reg__,__SREG__
 2739 0014 F894      		cli
 2740 0016 DEBF      		out __SP_H__,r29
 2741 0018 0FBE      		out __SREG__,__tmp_reg__
 2742 001a CDBF      		out __SP_L__,r28
 2743               	/* prologue: function */
 2744               	/* frame size = 78 */
 2745               	/* stack size = 83 */
 2746               	.L__stack_usage = 83
 2747 001c F82E      		mov r15,r24
 2748 001e 192F      		mov r17,r25
 370:Adafruit_Fingerprint.cpp **** }
 2749               		.loc 3 370 5 is_stmt 1 view .LVU512
 2750 0020 FE01      		movw r30,r28
 2751 0022 3196      		adiw r30,1
 2752 0024 85E0      		ldi r24,lo8(5)
 2753               	.LVL140:
 370:Adafruit_Fingerprint.cpp **** }
 2754               		.loc 3 370 5 is_stmt 0 view .LVU513
 2755 0026 DF01      		movw r26,r30
 2756               		0:
 2757 0028 1D92      		st X+,__zero_reg__
 2758 002a 8A95      		dec r24
 2759 002c 01F4      		brne 0b
 2760 002e 85E3      		ldi r24,lo8(53)
 2761 0030 8983      		std Y+1,r24
 2762 0032 6A83      		std Y+2,r22
 2763 0034 4B83      		std Y+3,r20
 2764 0036 2C83      		std Y+4,r18
 2765 0038 0D83      		std Y+5,r16
 370:Adafruit_Fingerprint.cpp **** }
 2766               		.loc 3 370 5 is_stmt 1 view .LVU514
 2767 003a 9F01      		movw r18,r30
 2768               	.LVL141:
 370:Adafruit_Fingerprint.cpp **** }
 2769               		.loc 3 370 5 is_stmt 0 view .LVU515
 2770 003c 45E0      		ldi r20,lo8(5)
 2771 003e 50E0      		ldi r21,0
 2772               	.LVL142:
 370:Adafruit_Fingerprint.cpp **** }
 2773               		.loc 3 370 5 view .LVU516
 2774 0040 61E0      		ldi r22,lo8(1)
 2775               	.LVL143:
GAS LISTING C:\Users\kenne\AppData\Local\Temp\ccnxErqW.s 			page 88


 370:Adafruit_Fingerprint.cpp **** }
 2776               		.loc 3 370 5 view .LVU517
 2777 0042 CE01      		movw r24,r28
 2778 0044 0696      		adiw r24,6
 2779 0046 0E94 0000 		call _ZN27Adafruit_Fingerprint_PacketC1EhjPh
 2780               	.LVL144:
 370:Adafruit_Fingerprint.cpp **** }
 2781               		.loc 3 370 5 is_stmt 1 view .LVU518
 2782 004a BE01      		movw r22,r28
 2783 004c 6A5F      		subi r22,-6
 2784 004e 7F4F      		sbci r23,-1
 2785 0050 8F2D      		mov r24,r15
 2786 0052 912F      		mov r25,r17
 2787 0054 0E94 0000 		call _ZN20Adafruit_Fingerprint21writeStructuredPacketERK27Adafruit_Fingerprint_Packet
 2788               	.LVL145:
 370:Adafruit_Fingerprint.cpp **** }
 2789               		.loc 3 370 5 view .LVU519
 2790 0058 48EE      		ldi r20,lo8(-24)
 2791 005a 53E0      		ldi r21,lo8(3)
 2792 005c BE01      		movw r22,r28
 2793 005e 6A5F      		subi r22,-6
 2794 0060 7F4F      		sbci r23,-1
 2795 0062 8F2D      		mov r24,r15
 2796 0064 912F      		mov r25,r17
 2797 0066 0E94 0000 		call _ZN20Adafruit_Fingerprint19getStructuredPacketEP27Adafruit_Fingerprint_Packetj
 2798               	.LVL146:
 2799 006a 8111      		cpse r24,__zero_reg__
 2800 006c 00C0      		rjmp .L98
 370:Adafruit_Fingerprint.cpp **** }
 2801               		.loc 3 370 5 discriminator 2 view .LVU520
 2802 006e 8C85      		ldd r24,Y+12
 2803 0070 8730      		cpi r24,lo8(7)
 2804 0072 01F4      		brne .L99
 370:Adafruit_Fingerprint.cpp **** }
 2805               		.loc 3 370 5 discriminator 5 view .LVU521
 370:Adafruit_Fingerprint.cpp **** }
 2806               		.loc 3 370 5 discriminator 5 view .LVU522
 2807 0074 8F85      		ldd r24,Y+15
 2808 0076 00C0      		rjmp .L96
 2809               	.L98:
 370:Adafruit_Fingerprint.cpp **** }
 2810               		.loc 3 370 5 is_stmt 0 view .LVU523
 2811 0078 81E0      		ldi r24,lo8(1)
 2812               	.L96:
 2813               	/* epilogue start */
 371:Adafruit_Fingerprint.cpp **** 
 2814               		.loc 3 371 1 view .LVU524
 2815 007a C25B      		subi r28,-78
 2816 007c DF4F      		sbci r29,-1
 2817 007e 0FB6      		in __tmp_reg__,__SREG__
 2818 0080 F894      		cli
 2819 0082 DEBF      		out __SP_H__,r29
 2820 0084 0FBE      		out __SREG__,__tmp_reg__
 2821 0086 CDBF      		out __SP_L__,r28
 2822 0088 DF91      		pop r29
 2823 008a CF91      		pop r28
 2824 008c 1F91      		pop r17
GAS LISTING C:\Users\kenne\AppData\Local\Temp\ccnxErqW.s 			page 89


 2825 008e 0F91      		pop r16
 2826               	.LVL147:
 371:Adafruit_Fingerprint.cpp **** 
 2827               		.loc 3 371 1 view .LVU525
 2828 0090 FF90      		pop r15
 2829 0092 0895      		ret
 2830               	.LVL148:
 2831               	.L99:
 370:Adafruit_Fingerprint.cpp **** }
 2832               		.loc 3 370 5 view .LVU526
 2833 0094 81E0      		ldi r24,lo8(1)
 370:Adafruit_Fingerprint.cpp **** }
 2834               		.loc 3 370 80 is_stmt 1 view .LVU527
 2835 0096 00C0      		rjmp .L96
 2836               		.cfi_endproc
 2837               	.LFE99:
 2839               		.section	.text._ZN20Adafruit_Fingerprint12fingerSearchEh,"ax",@progbits
 2840               	.global	_ZN20Adafruit_Fingerprint12fingerSearchEh
 2842               	_ZN20Adafruit_Fingerprint12fingerSearchEh:
 2843               	.LVL149:
 2844               	.LFB100:
 385:Adafruit_Fingerprint.cpp ****     // search of slot starting thru the capacity
 2845               		.loc 3 385 1 view -0
 2846               		.cfi_startproc
 385:Adafruit_Fingerprint.cpp ****     // search of slot starting thru the capacity
 2847               		.loc 3 385 1 is_stmt 0 view .LVU529
 2848 0000 0F93      		push r16
 2849               		.cfi_def_cfa_offset 3
 2850               		.cfi_offset 16, -2
 2851 0002 1F93      		push r17
 2852               		.cfi_def_cfa_offset 4
 2853               		.cfi_offset 17, -3
 2854 0004 CF93      		push r28
 2855               		.cfi_def_cfa_offset 5
 2856               		.cfi_offset 28, -4
 2857 0006 DF93      		push r29
 2858               		.cfi_def_cfa_offset 6
 2859               		.cfi_offset 29, -5
 2860 0008 CDB7      		in r28,__SP_L__
 2861 000a DEB7      		in r29,__SP_H__
 2862               		.cfi_def_cfa_register 28
 2863 000c CF54      		subi r28,79
 2864 000e D109      		sbc r29,__zero_reg__
 2865               		.cfi_def_cfa_offset 85
 2866 0010 0FB6      		in __tmp_reg__,__SREG__
 2867 0012 F894      		cli
 2868 0014 DEBF      		out __SP_H__,r29
 2869 0016 0FBE      		out __SREG__,__tmp_reg__
 2870 0018 CDBF      		out __SP_L__,r28
 2871               	/* prologue: function */
 2872               	/* frame size = 79 */
 2873               	/* stack size = 83 */
 2874               	.L__stack_usage = 83
 2875 001a 082F      		mov r16,r24
 2876 001c 192F      		mov r17,r25
 387:Adafruit_Fingerprint.cpp ****             (uint8_t)(capacity & 0xFF));
 2877               		.loc 3 387 5 is_stmt 1 view .LVU530
GAS LISTING C:\Users\kenne\AppData\Local\Temp\ccnxErqW.s 			page 90


 2878 001e 9E01      		movw r18,r28
 2879 0020 2F5F      		subi r18,-1
 2880 0022 3F4F      		sbci r19,-1
 2881 0024 86E0      		ldi r24,lo8(6)
 2882               	.LVL150:
 387:Adafruit_Fingerprint.cpp ****             (uint8_t)(capacity & 0xFF));
 2883               		.loc 3 387 5 is_stmt 0 view .LVU531
 2884 0026 F901      		movw r30,r18
 2885               		0:
 2886 0028 1192      		st Z+,__zero_reg__
 2887 002a 8A95      		dec r24
 2888 002c 01F4      		brne 0b
 2889 002e 84E0      		ldi r24,lo8(4)
 2890 0030 8983      		std Y+1,r24
 2891 0032 6A83      		std Y+2,r22
 2892 0034 F801      		movw r30,r16
 2893 0036 8285      		ldd r24,Z+10
 2894 0038 9385      		ldd r25,Z+11
 2895 003a 9D83      		std Y+5,r25
 2896 003c 8E83      		std Y+6,r24
 387:Adafruit_Fingerprint.cpp ****             (uint8_t)(capacity & 0xFF));
 2897               		.loc 3 387 5 is_stmt 1 view .LVU532
 2898 003e 46E0      		ldi r20,lo8(6)
 2899 0040 50E0      		ldi r21,0
 2900 0042 61E0      		ldi r22,lo8(1)
 2901               	.LVL151:
 387:Adafruit_Fingerprint.cpp ****             (uint8_t)(capacity & 0xFF));
 2902               		.loc 3 387 5 is_stmt 0 view .LVU533
 2903 0044 CE01      		movw r24,r28
 2904 0046 0796      		adiw r24,7
 2905 0048 0E94 0000 		call _ZN27Adafruit_Fingerprint_PacketC1EhjPh
 2906               	.LVL152:
 387:Adafruit_Fingerprint.cpp ****             (uint8_t)(capacity & 0xFF));
 2907               		.loc 3 387 5 is_stmt 1 view .LVU534
 2908 004c BE01      		movw r22,r28
 2909 004e 695F      		subi r22,-7
 2910 0050 7F4F      		sbci r23,-1
 2911 0052 C801      		movw r24,r16
 2912 0054 0E94 0000 		call _ZN20Adafruit_Fingerprint21writeStructuredPacketERK27Adafruit_Fingerprint_Packet
 2913               	.LVL153:
 387:Adafruit_Fingerprint.cpp ****             (uint8_t)(capacity & 0xFF));
 2914               		.loc 3 387 5 view .LVU535
 2915 0058 48EE      		ldi r20,lo8(-24)
 2916 005a 53E0      		ldi r21,lo8(3)
 2917 005c BE01      		movw r22,r28
 2918 005e 695F      		subi r22,-7
 2919 0060 7F4F      		sbci r23,-1
 2920 0062 C801      		movw r24,r16
 2921 0064 0E94 0000 		call _ZN20Adafruit_Fingerprint19getStructuredPacketEP27Adafruit_Fingerprint_Packetj
 2922               	.LVL154:
 2923 0068 8111      		cpse r24,__zero_reg__
 2924 006a 00C0      		rjmp .L102
 387:Adafruit_Fingerprint.cpp ****             (uint8_t)(capacity & 0xFF));
 2925               		.loc 3 387 5 discriminator 2 view .LVU536
 2926 006c 8D85      		ldd r24,Y+13
 2927 006e 8730      		cpi r24,lo8(7)
 2928 0070 01F4      		brne .L103
GAS LISTING C:\Users\kenne\AppData\Local\Temp\ccnxErqW.s 			page 91


 388:Adafruit_Fingerprint.cpp **** 
 2929               		.loc 3 388 40 view .LVU537
 390:Adafruit_Fingerprint.cpp ****     confidence = 0xFFFF;
 2930               		.loc 3 390 5 view .LVU538
 390:Adafruit_Fingerprint.cpp ****     confidence = 0xFFFF;
 2931               		.loc 3 390 14 is_stmt 0 view .LVU539
 2932 0072 8FEF      		ldi r24,lo8(-1)
 2933 0074 9FEF      		ldi r25,lo8(-1)
 2934 0076 F801      		movw r30,r16
 2935 0078 9183      		std Z+1,r25
 2936 007a 8083      		st Z,r24
 391:Adafruit_Fingerprint.cpp **** 
 2937               		.loc 3 391 5 is_stmt 1 view .LVU540
 391:Adafruit_Fingerprint.cpp **** 
 2938               		.loc 3 391 16 is_stmt 0 view .LVU541
 2939 007c 9383      		std Z+3,r25
 2940 007e 8283      		std Z+2,r24
 393:Adafruit_Fingerprint.cpp ****     fingerID <<= 8;
 2941               		.loc 3 393 5 is_stmt 1 view .LVU542
 393:Adafruit_Fingerprint.cpp ****     fingerID <<= 8;
 2942               		.loc 3 393 29 is_stmt 0 view .LVU543
 2943 0080 8989      		ldd r24,Y+17
 2944 0082 90E0      		ldi r25,0
 393:Adafruit_Fingerprint.cpp ****     fingerID <<= 8;
 2945               		.loc 3 393 14 view .LVU544
 2946 0084 9183      		std Z+1,r25
 2947 0086 8083      		st Z,r24
 394:Adafruit_Fingerprint.cpp ****     fingerID |= packet.data[2];
 2948               		.loc 3 394 5 is_stmt 1 view .LVU545
 394:Adafruit_Fingerprint.cpp ****     fingerID |= packet.data[2];
 2949               		.loc 3 394 14 is_stmt 0 view .LVU546
 2950 0088 982F      		mov r25,r24
 2951 008a 8827      		clr r24
 2952 008c 9183      		std Z+1,r25
 2953 008e 8083      		st Z,r24
 395:Adafruit_Fingerprint.cpp **** 
 2954               		.loc 3 395 5 is_stmt 1 view .LVU547
 395:Adafruit_Fingerprint.cpp **** 
 2955               		.loc 3 395 30 is_stmt 0 view .LVU548
 2956 0090 2A89      		ldd r18,Y+18
 395:Adafruit_Fingerprint.cpp **** 
 2957               		.loc 3 395 14 view .LVU549
 2958 0092 822B      		or r24,r18
 2959 0094 9183      		std Z+1,r25
 2960 0096 8083      		st Z,r24
 397:Adafruit_Fingerprint.cpp ****     confidence <<= 8;
 2961               		.loc 3 397 5 is_stmt 1 view .LVU550
 397:Adafruit_Fingerprint.cpp ****     confidence <<= 8;
 2962               		.loc 3 397 31 is_stmt 0 view .LVU551
 2963 0098 8B89      		ldd r24,Y+19
 2964 009a 90E0      		ldi r25,0
 397:Adafruit_Fingerprint.cpp ****     confidence <<= 8;
 2965               		.loc 3 397 16 view .LVU552
 2966 009c 9383      		std Z+3,r25
 2967 009e 8283      		std Z+2,r24
 398:Adafruit_Fingerprint.cpp ****     confidence |= packet.data[4];
 2968               		.loc 3 398 5 is_stmt 1 view .LVU553
GAS LISTING C:\Users\kenne\AppData\Local\Temp\ccnxErqW.s 			page 92


 398:Adafruit_Fingerprint.cpp ****     confidence |= packet.data[4];
 2969               		.loc 3 398 16 is_stmt 0 view .LVU554
 2970 00a0 982F      		mov r25,r24
 2971 00a2 8827      		clr r24
 2972 00a4 9383      		std Z+3,r25
 2973 00a6 8283      		std Z+2,r24
 399:Adafruit_Fingerprint.cpp **** 
 2974               		.loc 3 399 5 is_stmt 1 view .LVU555
 399:Adafruit_Fingerprint.cpp **** 
 2975               		.loc 3 399 32 is_stmt 0 view .LVU556
 2976 00a8 2C89      		ldd r18,Y+20
 399:Adafruit_Fingerprint.cpp **** 
 2977               		.loc 3 399 16 view .LVU557
 2978 00aa 822B      		or r24,r18
 2979 00ac 9383      		std Z+3,r25
 2980 00ae 8283      		std Z+2,r24
 401:Adafruit_Fingerprint.cpp **** }
 2981               		.loc 3 401 5 is_stmt 1 view .LVU558
 401:Adafruit_Fingerprint.cpp **** }
 2982               		.loc 3 401 25 is_stmt 0 view .LVU559
 2983 00b0 8889      		ldd r24,Y+16
 2984 00b2 00C0      		rjmp .L100
 2985               	.L102:
 387:Adafruit_Fingerprint.cpp ****             (uint8_t)(capacity & 0xFF));
 2986               		.loc 3 387 5 view .LVU560
 2987 00b4 81E0      		ldi r24,lo8(1)
 2988               	.L100:
 2989               	/* epilogue start */
 402:Adafruit_Fingerprint.cpp **** 
 2990               		.loc 3 402 1 view .LVU561
 2991 00b6 C15B      		subi r28,-79
 2992 00b8 DF4F      		sbci r29,-1
 2993 00ba 0FB6      		in __tmp_reg__,__SREG__
 2994 00bc F894      		cli
 2995 00be DEBF      		out __SP_H__,r29
 2996 00c0 0FBE      		out __SREG__,__tmp_reg__
 2997 00c2 CDBF      		out __SP_L__,r28
 2998 00c4 DF91      		pop r29
 2999 00c6 CF91      		pop r28
 3000 00c8 1F91      		pop r17
 3001 00ca 0F91      		pop r16
 3002 00cc 0895      		ret
 3003               	.L103:
 387:Adafruit_Fingerprint.cpp ****             (uint8_t)(capacity & 0xFF));
 3004               		.loc 3 387 5 view .LVU562
 3005 00ce 81E0      		ldi r24,lo8(1)
 3006 00d0 00C0      		rjmp .L100
 3007               		.cfi_endproc
 3008               	.LFE100:
 3010               		.section	.text._ZN20Adafruit_Fingerprint16getTemplateCountEv,"ax",@progbits
 3011               	.global	_ZN20Adafruit_Fingerprint16getTemplateCountEv
 3013               	_ZN20Adafruit_Fingerprint16getTemplateCountEv:
 3014               	.LVL155:
 3015               	.LFB101:
 413:Adafruit_Fingerprint.cpp ****     GET_CMD_PACKET(FINGERPRINT_TEMPLATECOUNT);
 3016               		.loc 3 413 1 is_stmt 1 view -0
 3017               		.cfi_startproc
GAS LISTING C:\Users\kenne\AppData\Local\Temp\ccnxErqW.s 			page 93


 413:Adafruit_Fingerprint.cpp ****     GET_CMD_PACKET(FINGERPRINT_TEMPLATECOUNT);
 3018               		.loc 3 413 1 is_stmt 0 view .LVU564
 3019 0000 0F93      		push r16
 3020               		.cfi_def_cfa_offset 3
 3021               		.cfi_offset 16, -2
 3022 0002 1F93      		push r17
 3023               		.cfi_def_cfa_offset 4
 3024               		.cfi_offset 17, -3
 3025 0004 CF93      		push r28
 3026               		.cfi_def_cfa_offset 5
 3027               		.cfi_offset 28, -4
 3028 0006 DF93      		push r29
 3029               		.cfi_def_cfa_offset 6
 3030               		.cfi_offset 29, -5
 3031 0008 CDB7      		in r28,__SP_L__
 3032 000a DEB7      		in r29,__SP_H__
 3033               		.cfi_def_cfa_register 28
 3034 000c CA54      		subi r28,74
 3035 000e D109      		sbc r29,__zero_reg__
 3036               		.cfi_def_cfa_offset 80
 3037 0010 0FB6      		in __tmp_reg__,__SREG__
 3038 0012 F894      		cli
 3039 0014 DEBF      		out __SP_H__,r29
 3040 0016 0FBE      		out __SREG__,__tmp_reg__
 3041 0018 CDBF      		out __SP_L__,r28
 3042               	/* prologue: function */
 3043               	/* frame size = 74 */
 3044               	/* stack size = 78 */
 3045               	.L__stack_usage = 78
 3046 001a 082F      		mov r16,r24
 3047 001c 192F      		mov r17,r25
 414:Adafruit_Fingerprint.cpp **** 
 3048               		.loc 3 414 5 is_stmt 1 view .LVU565
 3049 001e 8DE1      		ldi r24,lo8(29)
 3050               	.LVL156:
 414:Adafruit_Fingerprint.cpp **** 
 3051               		.loc 3 414 5 is_stmt 0 view .LVU566
 3052 0020 8983      		std Y+1,r24
 414:Adafruit_Fingerprint.cpp **** 
 3053               		.loc 3 414 5 is_stmt 1 view .LVU567
 3054 0022 9E01      		movw r18,r28
 3055 0024 2F5F      		subi r18,-1
 3056 0026 3F4F      		sbci r19,-1
 3057 0028 41E0      		ldi r20,lo8(1)
 3058 002a 50E0      		ldi r21,0
 3059 002c 61E0      		ldi r22,lo8(1)
 3060 002e CE01      		movw r24,r28
 3061 0030 0296      		adiw r24,2
 3062 0032 0E94 0000 		call _ZN27Adafruit_Fingerprint_PacketC1EhjPh
 3063               	.LVL157:
 414:Adafruit_Fingerprint.cpp **** 
 3064               		.loc 3 414 5 view .LVU568
 3065 0036 BE01      		movw r22,r28
 3066 0038 6E5F      		subi r22,-2
 3067 003a 7F4F      		sbci r23,-1
 3068 003c C801      		movw r24,r16
 3069 003e 0E94 0000 		call _ZN20Adafruit_Fingerprint21writeStructuredPacketERK27Adafruit_Fingerprint_Packet
GAS LISTING C:\Users\kenne\AppData\Local\Temp\ccnxErqW.s 			page 94


 3070               	.LVL158:
 414:Adafruit_Fingerprint.cpp **** 
 3071               		.loc 3 414 5 view .LVU569
 3072 0042 48EE      		ldi r20,lo8(-24)
 3073 0044 53E0      		ldi r21,lo8(3)
 3074 0046 BE01      		movw r22,r28
 3075 0048 6E5F      		subi r22,-2
 3076 004a 7F4F      		sbci r23,-1
 3077 004c C801      		movw r24,r16
 3078 004e 0E94 0000 		call _ZN20Adafruit_Fingerprint19getStructuredPacketEP27Adafruit_Fingerprint_Packetj
 3079               	.LVL159:
 3080 0052 8111      		cpse r24,__zero_reg__
 3081 0054 00C0      		rjmp .L106
 414:Adafruit_Fingerprint.cpp **** 
 3082               		.loc 3 414 5 discriminator 2 view .LVU570
 3083 0056 8885      		ldd r24,Y+8
 3084 0058 8730      		cpi r24,lo8(7)
 3085 005a 01F4      		brne .L107
 414:Adafruit_Fingerprint.cpp **** 
 3086               		.loc 3 414 46 discriminator 4 view .LVU571
 416:Adafruit_Fingerprint.cpp ****     templateCount <<= 8;
 3087               		.loc 3 416 5 discriminator 4 view .LVU572
 416:Adafruit_Fingerprint.cpp ****     templateCount <<= 8;
 3088               		.loc 3 416 34 is_stmt 0 discriminator 4 view .LVU573
 3089 005c 8C85      		ldd r24,Y+12
 3090 005e 90E0      		ldi r25,0
 416:Adafruit_Fingerprint.cpp ****     templateCount <<= 8;
 3091               		.loc 3 416 19 discriminator 4 view .LVU574
 3092 0060 F801      		movw r30,r16
 3093 0062 9583      		std Z+5,r25
 3094 0064 8483      		std Z+4,r24
 417:Adafruit_Fingerprint.cpp ****     templateCount |= packet.data[2];
 3095               		.loc 3 417 5 is_stmt 1 discriminator 4 view .LVU575
 417:Adafruit_Fingerprint.cpp ****     templateCount |= packet.data[2];
 3096               		.loc 3 417 19 is_stmt 0 discriminator 4 view .LVU576
 3097 0066 982F      		mov r25,r24
 3098 0068 8827      		clr r24
 3099 006a 9583      		std Z+5,r25
 3100 006c 8483      		std Z+4,r24
 418:Adafruit_Fingerprint.cpp **** 
 3101               		.loc 3 418 5 is_stmt 1 discriminator 4 view .LVU577
 418:Adafruit_Fingerprint.cpp **** 
 3102               		.loc 3 418 35 is_stmt 0 discriminator 4 view .LVU578
 3103 006e 2D85      		ldd r18,Y+13
 418:Adafruit_Fingerprint.cpp **** 
 3104               		.loc 3 418 19 discriminator 4 view .LVU579
 3105 0070 822B      		or r24,r18
 3106 0072 9583      		std Z+5,r25
 3107 0074 8483      		std Z+4,r24
 420:Adafruit_Fingerprint.cpp **** }
 3108               		.loc 3 420 5 is_stmt 1 discriminator 4 view .LVU580
 420:Adafruit_Fingerprint.cpp **** }
 3109               		.loc 3 420 25 is_stmt 0 discriminator 4 view .LVU581
 3110 0076 8B85      		ldd r24,Y+11
 3111 0078 00C0      		rjmp .L104
 3112               	.L106:
 414:Adafruit_Fingerprint.cpp **** 
GAS LISTING C:\Users\kenne\AppData\Local\Temp\ccnxErqW.s 			page 95


 3113               		.loc 3 414 5 view .LVU582
 3114 007a 81E0      		ldi r24,lo8(1)
 3115               	.L104:
 3116               	/* epilogue start */
 421:Adafruit_Fingerprint.cpp **** 
 3117               		.loc 3 421 1 view .LVU583
 3118 007c C65B      		subi r28,-74
 3119 007e DF4F      		sbci r29,-1
 3120 0080 0FB6      		in __tmp_reg__,__SREG__
 3121 0082 F894      		cli
 3122 0084 DEBF      		out __SP_H__,r29
 3123 0086 0FBE      		out __SREG__,__tmp_reg__
 3124 0088 CDBF      		out __SP_L__,r28
 3125 008a DF91      		pop r29
 3126 008c CF91      		pop r28
 3127 008e 1F91      		pop r17
 3128 0090 0F91      		pop r16
 3129 0092 0895      		ret
 3130               	.L107:
 414:Adafruit_Fingerprint.cpp **** 
 3131               		.loc 3 414 5 view .LVU584
 3132 0094 81E0      		ldi r24,lo8(1)
 3133 0096 00C0      		rjmp .L104
 3134               		.cfi_endproc
 3135               	.LFE101:
 3137               		.section	.text._ZN20Adafruit_Fingerprint11setPasswordEm,"ax",@progbits
 3138               	.global	_ZN20Adafruit_Fingerprint11setPasswordEm
 3140               	_ZN20Adafruit_Fingerprint11setPasswordEm:
 3141               	.LVL160:
 3142               	.LFB102:
 433:Adafruit_Fingerprint.cpp ****     SEND_CMD_PACKET(FINGERPRINT_SETPASSWORD, (uint8_t)(password >> 24),
 3143               		.loc 3 433 1 is_stmt 1 view -0
 3144               		.cfi_startproc
 433:Adafruit_Fingerprint.cpp ****     SEND_CMD_PACKET(FINGERPRINT_SETPASSWORD, (uint8_t)(password >> 24),
 3145               		.loc 3 433 1 is_stmt 0 view .LVU586
 3146 0000 0F93      		push r16
 3147               		.cfi_def_cfa_offset 3
 3148               		.cfi_offset 16, -2
 3149 0002 1F93      		push r17
 3150               		.cfi_def_cfa_offset 4
 3151               		.cfi_offset 17, -3
 3152 0004 CF93      		push r28
 3153               		.cfi_def_cfa_offset 5
 3154               		.cfi_offset 28, -4
 3155 0006 DF93      		push r29
 3156               		.cfi_def_cfa_offset 6
 3157               		.cfi_offset 29, -5
 3158 0008 CDB7      		in r28,__SP_L__
 3159 000a DEB7      		in r29,__SP_H__
 3160               		.cfi_def_cfa_register 28
 3161 000c CE54      		subi r28,78
 3162 000e D109      		sbc r29,__zero_reg__
 3163               		.cfi_def_cfa_offset 84
 3164 0010 0FB6      		in __tmp_reg__,__SREG__
 3165 0012 F894      		cli
 3166 0014 DEBF      		out __SP_H__,r29
 3167 0016 0FBE      		out __SREG__,__tmp_reg__
GAS LISTING C:\Users\kenne\AppData\Local\Temp\ccnxErqW.s 			page 96


 3168 0018 CDBF      		out __SP_L__,r28
 3169               	/* prologue: function */
 3170               	/* frame size = 78 */
 3171               	/* stack size = 82 */
 3172               	.L__stack_usage = 82
 3173 001a 082F      		mov r16,r24
 3174 001c 192F      		mov r17,r25
 434:Adafruit_Fingerprint.cpp ****             (uint8_t)(password >> 16), (uint8_t)(password >> 8),
 3175               		.loc 3 434 5 is_stmt 1 view .LVU587
 3176 001e 9E01      		movw r18,r28
 3177 0020 2F5F      		subi r18,-1
 3178 0022 3F4F      		sbci r19,-1
 3179 0024 85E0      		ldi r24,lo8(5)
 3180               	.LVL161:
 434:Adafruit_Fingerprint.cpp ****             (uint8_t)(password >> 16), (uint8_t)(password >> 8),
 3181               		.loc 3 434 5 is_stmt 0 view .LVU588
 3182 0026 F901      		movw r30,r18
 3183               		0:
 3184 0028 1192      		st Z+,__zero_reg__
 3185 002a 8A95      		dec r24
 3186 002c 01F4      		brne 0b
 3187 002e 82E1      		ldi r24,lo8(18)
 3188 0030 8983      		std Y+1,r24
 3189 0032 7A83      		std Y+2,r23
 3190 0034 6B83      		std Y+3,r22
 3191 0036 5C83      		std Y+4,r21
 3192 0038 4D83      		std Y+5,r20
 434:Adafruit_Fingerprint.cpp ****             (uint8_t)(password >> 16), (uint8_t)(password >> 8),
 3193               		.loc 3 434 5 is_stmt 1 view .LVU589
 3194 003a 45E0      		ldi r20,lo8(5)
 3195 003c 50E0      		ldi r21,0
 3196               	.LVL162:
 434:Adafruit_Fingerprint.cpp ****             (uint8_t)(password >> 16), (uint8_t)(password >> 8),
 3197               		.loc 3 434 5 is_stmt 0 view .LVU590
 3198 003e 61E0      		ldi r22,lo8(1)
 3199 0040 CE01      		movw r24,r28
 3200 0042 0696      		adiw r24,6
 3201 0044 0E94 0000 		call _ZN27Adafruit_Fingerprint_PacketC1EhjPh
 3202               	.LVL163:
 434:Adafruit_Fingerprint.cpp ****             (uint8_t)(password >> 16), (uint8_t)(password >> 8),
 3203               		.loc 3 434 5 is_stmt 1 view .LVU591
 3204 0048 BE01      		movw r22,r28
 3205 004a 6A5F      		subi r22,-6
 3206 004c 7F4F      		sbci r23,-1
 3207 004e 802F      		mov r24,r16
 3208 0050 912F      		mov r25,r17
 3209 0052 0E94 0000 		call _ZN20Adafruit_Fingerprint21writeStructuredPacketERK27Adafruit_Fingerprint_Packet
 3210               	.LVL164:
 434:Adafruit_Fingerprint.cpp ****             (uint8_t)(password >> 16), (uint8_t)(password >> 8),
 3211               		.loc 3 434 5 view .LVU592
 3212 0056 48EE      		ldi r20,lo8(-24)
 3213 0058 53E0      		ldi r21,lo8(3)
 3214 005a BE01      		movw r22,r28
 3215 005c 6A5F      		subi r22,-6
 3216 005e 7F4F      		sbci r23,-1
 3217 0060 802F      		mov r24,r16
 3218 0062 912F      		mov r25,r17
GAS LISTING C:\Users\kenne\AppData\Local\Temp\ccnxErqW.s 			page 97


 3219 0064 0E94 0000 		call _ZN20Adafruit_Fingerprint19getStructuredPacketEP27Adafruit_Fingerprint_Packetj
 3220               	.LVL165:
 3221 0068 8111      		cpse r24,__zero_reg__
 3222 006a 00C0      		rjmp .L110
 434:Adafruit_Fingerprint.cpp ****             (uint8_t)(password >> 16), (uint8_t)(password >> 8),
 3223               		.loc 3 434 5 discriminator 2 view .LVU593
 3224 006c 8C85      		ldd r24,Y+12
 3225 006e 8730      		cpi r24,lo8(7)
 3226 0070 01F4      		brne .L111
 434:Adafruit_Fingerprint.cpp ****             (uint8_t)(password >> 16), (uint8_t)(password >> 8),
 3227               		.loc 3 434 5 discriminator 4 view .LVU594
 434:Adafruit_Fingerprint.cpp ****             (uint8_t)(password >> 16), (uint8_t)(password >> 8),
 3228               		.loc 3 434 5 discriminator 4 view .LVU595
 3229 0072 8F85      		ldd r24,Y+15
 3230 0074 00C0      		rjmp .L108
 3231               	.L110:
 434:Adafruit_Fingerprint.cpp ****             (uint8_t)(password >> 16), (uint8_t)(password >> 8),
 3232               		.loc 3 434 5 is_stmt 0 view .LVU596
 3233 0076 81E0      		ldi r24,lo8(1)
 3234               	.L108:
 3235               	/* epilogue start */
 437:Adafruit_Fingerprint.cpp **** 
 3236               		.loc 3 437 1 view .LVU597
 3237 0078 C25B      		subi r28,-78
 3238 007a DF4F      		sbci r29,-1
 3239 007c 0FB6      		in __tmp_reg__,__SREG__
 3240 007e F894      		cli
 3241 0080 DEBF      		out __SP_H__,r29
 3242 0082 0FBE      		out __SREG__,__tmp_reg__
 3243 0084 CDBF      		out __SP_L__,r28
 3244 0086 DF91      		pop r29
 3245 0088 CF91      		pop r28
 3246 008a 1F91      		pop r17
 3247 008c 0F91      		pop r16
 3248 008e 0895      		ret
 3249               	.L111:
 434:Adafruit_Fingerprint.cpp ****             (uint8_t)(password >> 16), (uint8_t)(password >> 8),
 3250               		.loc 3 434 5 view .LVU598
 3251 0090 81E0      		ldi r24,lo8(1)
 436:Adafruit_Fingerprint.cpp **** }
 3252               		.loc 3 436 40 is_stmt 1 view .LVU599
 3253 0092 00C0      		rjmp .L108
 3254               		.cfi_endproc
 3255               	.LFE102:
 3257               		.section	.text._ZN20Adafruit_Fingerprint13writeRegisterEhh,"ax",@progbits
 3258               	.global	_ZN20Adafruit_Fingerprint13writeRegisterEhh
 3260               	_ZN20Adafruit_Fingerprint13writeRegisterEhh:
 3261               	.LVL166:
 3262               	.LFB103:
 450:Adafruit_Fingerprint.cpp **** 
 3263               		.loc 3 450 1 view -0
 3264               		.cfi_startproc
 450:Adafruit_Fingerprint.cpp **** 
 3265               		.loc 3 450 1 is_stmt 0 view .LVU601
 3266 0000 0F93      		push r16
 3267               		.cfi_def_cfa_offset 3
 3268               		.cfi_offset 16, -2
GAS LISTING C:\Users\kenne\AppData\Local\Temp\ccnxErqW.s 			page 98


 3269 0002 1F93      		push r17
 3270               		.cfi_def_cfa_offset 4
 3271               		.cfi_offset 17, -3
 3272 0004 CF93      		push r28
 3273               		.cfi_def_cfa_offset 5
 3274               		.cfi_offset 28, -4
 3275 0006 DF93      		push r29
 3276               		.cfi_def_cfa_offset 6
 3277               		.cfi_offset 29, -5
 3278 0008 CDB7      		in r28,__SP_L__
 3279 000a DEB7      		in r29,__SP_H__
 3280               		.cfi_def_cfa_register 28
 3281 000c CC54      		subi r28,76
 3282 000e D109      		sbc r29,__zero_reg__
 3283               		.cfi_def_cfa_offset 82
 3284 0010 0FB6      		in __tmp_reg__,__SREG__
 3285 0012 F894      		cli
 3286 0014 DEBF      		out __SP_H__,r29
 3287 0016 0FBE      		out __SREG__,__tmp_reg__
 3288 0018 CDBF      		out __SP_L__,r28
 3289               	/* prologue: function */
 3290               	/* frame size = 76 */
 3291               	/* stack size = 80 */
 3292               	.L__stack_usage = 80
 3293 001a 082F      		mov r16,r24
 3294 001c 192F      		mov r17,r25
 452:Adafruit_Fingerprint.cpp **** }
 3295               		.loc 3 452 5 is_stmt 1 view .LVU602
 3296 001e 1982      		std Y+1,__zero_reg__
 3297 0020 1A82      		std Y+2,__zero_reg__
 3298 0022 1B82      		std Y+3,__zero_reg__
 3299 0024 8EE0      		ldi r24,lo8(14)
 3300               	.LVL167:
 452:Adafruit_Fingerprint.cpp **** }
 3301               		.loc 3 452 5 is_stmt 0 view .LVU603
 3302 0026 8983      		std Y+1,r24
 3303 0028 6A83      		std Y+2,r22
 3304 002a 4B83      		std Y+3,r20
 452:Adafruit_Fingerprint.cpp **** }
 3305               		.loc 3 452 5 is_stmt 1 view .LVU604
 3306 002c 9E01      		movw r18,r28
 3307 002e 2F5F      		subi r18,-1
 3308 0030 3F4F      		sbci r19,-1
 3309 0032 43E0      		ldi r20,lo8(3)
 3310 0034 50E0      		ldi r21,0
 3311               	.LVL168:
 452:Adafruit_Fingerprint.cpp **** }
 3312               		.loc 3 452 5 is_stmt 0 view .LVU605
 3313 0036 61E0      		ldi r22,lo8(1)
 3314               	.LVL169:
 452:Adafruit_Fingerprint.cpp **** }
 3315               		.loc 3 452 5 view .LVU606
 3316 0038 CE01      		movw r24,r28
 3317 003a 0496      		adiw r24,4
 3318 003c 0E94 0000 		call _ZN27Adafruit_Fingerprint_PacketC1EhjPh
 3319               	.LVL170:
 452:Adafruit_Fingerprint.cpp **** }
GAS LISTING C:\Users\kenne\AppData\Local\Temp\ccnxErqW.s 			page 99


 3320               		.loc 3 452 5 is_stmt 1 view .LVU607
 3321 0040 BE01      		movw r22,r28
 3322 0042 6C5F      		subi r22,-4
 3323 0044 7F4F      		sbci r23,-1
 3324 0046 802F      		mov r24,r16
 3325 0048 912F      		mov r25,r17
 3326 004a 0E94 0000 		call _ZN20Adafruit_Fingerprint21writeStructuredPacketERK27Adafruit_Fingerprint_Packet
 3327               	.LVL171:
 452:Adafruit_Fingerprint.cpp **** }
 3328               		.loc 3 452 5 view .LVU608
 3329 004e 48EE      		ldi r20,lo8(-24)
 3330 0050 53E0      		ldi r21,lo8(3)
 3331 0052 BE01      		movw r22,r28
 3332 0054 6C5F      		subi r22,-4
 3333 0056 7F4F      		sbci r23,-1
 3334 0058 802F      		mov r24,r16
 3335 005a 912F      		mov r25,r17
 3336 005c 0E94 0000 		call _ZN20Adafruit_Fingerprint19getStructuredPacketEP27Adafruit_Fingerprint_Packetj
 3337               	.LVL172:
 3338 0060 8111      		cpse r24,__zero_reg__
 3339 0062 00C0      		rjmp .L114
 452:Adafruit_Fingerprint.cpp **** }
 3340               		.loc 3 452 5 discriminator 2 view .LVU609
 3341 0064 8A85      		ldd r24,Y+10
 3342 0066 8730      		cpi r24,lo8(7)
 3343 0068 01F4      		brne .L115
 452:Adafruit_Fingerprint.cpp **** }
 3344               		.loc 3 452 5 discriminator 5 view .LVU610
 452:Adafruit_Fingerprint.cpp **** }
 3345               		.loc 3 452 5 discriminator 5 view .LVU611
 3346 006a 8D85      		ldd r24,Y+13
 3347 006c 00C0      		rjmp .L112
 3348               	.L114:
 452:Adafruit_Fingerprint.cpp **** }
 3349               		.loc 3 452 5 is_stmt 0 view .LVU612
 3350 006e 81E0      		ldi r24,lo8(1)
 3351               	.L112:
 3352               	/* epilogue start */
 453:Adafruit_Fingerprint.cpp **** 
 3353               		.loc 3 453 1 view .LVU613
 3354 0070 C45B      		subi r28,-76
 3355 0072 DF4F      		sbci r29,-1
 3356 0074 0FB6      		in __tmp_reg__,__SREG__
 3357 0076 F894      		cli
 3358 0078 DEBF      		out __SP_H__,r29
 3359 007a 0FBE      		out __SREG__,__tmp_reg__
 3360 007c CDBF      		out __SP_L__,r28
 3361 007e DF91      		pop r29
 3362 0080 CF91      		pop r28
 3363 0082 1F91      		pop r17
 3364 0084 0F91      		pop r16
 3365 0086 0895      		ret
 3366               	.L115:
 452:Adafruit_Fingerprint.cpp **** }
 3367               		.loc 3 452 5 view .LVU614
 3368 0088 81E0      		ldi r24,lo8(1)
 452:Adafruit_Fingerprint.cpp **** }
GAS LISTING C:\Users\kenne\AppData\Local\Temp\ccnxErqW.s 			page 100


 3369               		.loc 3 452 58 is_stmt 1 view .LVU615
 3370 008a 00C0      		rjmp .L112
 3371               		.cfi_endproc
 3372               	.LFE103:
 3374               		.section	.text._ZN20Adafruit_Fingerprint11setBaudRateEh,"ax",@progbits
 3375               	.global	_ZN20Adafruit_Fingerprint11setBaudRateEh
 3377               	_ZN20Adafruit_Fingerprint11setBaudRateEh:
 3378               	.LVL173:
 3379               	.LFB104:
 464:Adafruit_Fingerprint.cpp **** 
 3380               		.loc 3 464 1 view -0
 3381               		.cfi_startproc
 3382               	/* prologue: function */
 3383               	/* frame size = 0 */
 3384               	/* stack size = 0 */
 3385               	.L__stack_usage = 0
 464:Adafruit_Fingerprint.cpp **** 
 3386               		.loc 3 464 1 is_stmt 0 view .LVU617
 3387 0000 E82F      		mov r30,r24
 3388 0002 F92F      		mov r31,r25
 466:Adafruit_Fingerprint.cpp **** }
 3389               		.loc 3 466 5 is_stmt 1 view .LVU618
 466:Adafruit_Fingerprint.cpp **** }
 3390               		.loc 3 466 54 is_stmt 0 view .LVU619
 3391 0004 4489      		ldd r20,Z+20
 466:Adafruit_Fingerprint.cpp **** }
 3392               		.loc 3 466 26 view .LVU620
 3393 0006 64E0      		ldi r22,lo8(4)
 3394               	.LVL174:
 466:Adafruit_Fingerprint.cpp **** }
 3395               		.loc 3 466 26 view .LVU621
 3396 0008 CF01      		movw r24,r30
 3397               	.LVL175:
 466:Adafruit_Fingerprint.cpp **** }
 3398               		.loc 3 466 26 view .LVU622
 3399 000a 0E94 0000 		call _ZN20Adafruit_Fingerprint13writeRegisterEhh
 3400               	.LVL176:
 3401               	/* epilogue start */
 467:Adafruit_Fingerprint.cpp **** 
 3402               		.loc 3 467 1 view .LVU623
 3403 000e 0895      		ret
 3404               		.cfi_endproc
 3405               	.LFE104:
 3407               		.section	.text._ZN20Adafruit_Fingerprint16setSecurityLevelEh,"ax",@progbits
 3408               	.global	_ZN20Adafruit_Fingerprint16setSecurityLevelEh
 3410               	_ZN20Adafruit_Fingerprint16setSecurityLevelEh:
 3411               	.LVL177:
 3412               	.LFB105:
 478:Adafruit_Fingerprint.cpp **** 
 3413               		.loc 3 478 1 is_stmt 1 view -0
 3414               		.cfi_startproc
 3415               	/* prologue: function */
 3416               	/* frame size = 0 */
 3417               	/* stack size = 0 */
 3418               	.L__stack_usage = 0
 478:Adafruit_Fingerprint.cpp **** 
 3419               		.loc 3 478 1 is_stmt 0 view .LVU625
GAS LISTING C:\Users\kenne\AppData\Local\Temp\ccnxErqW.s 			page 101


 3420 0000 462F      		mov r20,r22
 480:Adafruit_Fingerprint.cpp **** }
 3421               		.loc 3 480 5 is_stmt 1 view .LVU626
 480:Adafruit_Fingerprint.cpp **** }
 3422               		.loc 3 480 26 is_stmt 0 view .LVU627
 3423 0002 65E0      		ldi r22,lo8(5)
 3424               	.LVL178:
 480:Adafruit_Fingerprint.cpp **** }
 3425               		.loc 3 480 26 view .LVU628
 3426 0004 0E94 0000 		call _ZN20Adafruit_Fingerprint13writeRegisterEhh
 3427               	.LVL179:
 3428               	/* epilogue start */
 481:Adafruit_Fingerprint.cpp **** 
 3429               		.loc 3 481 1 view .LVU629
 3430 0008 0895      		ret
 3431               		.cfi_endproc
 3432               	.LFE105:
 3434               		.section	.text._ZN20Adafruit_Fingerprint13setPacketSizeEh,"ax",@progbits
 3435               	.global	_ZN20Adafruit_Fingerprint13setPacketSizeEh
 3437               	_ZN20Adafruit_Fingerprint13setPacketSizeEh:
 3438               	.LVL180:
 3439               	.LFB106:
 492:Adafruit_Fingerprint.cpp **** 
 3440               		.loc 3 492 1 is_stmt 1 view -0
 3441               		.cfi_startproc
 3442               	/* prologue: function */
 3443               	/* frame size = 0 */
 3444               	/* stack size = 0 */
 3445               	.L__stack_usage = 0
 492:Adafruit_Fingerprint.cpp **** 
 3446               		.loc 3 492 1 is_stmt 0 view .LVU631
 3447 0000 462F      		mov r20,r22
 494:Adafruit_Fingerprint.cpp **** }
 3448               		.loc 3 494 5 is_stmt 1 view .LVU632
 494:Adafruit_Fingerprint.cpp **** }
 3449               		.loc 3 494 26 is_stmt 0 view .LVU633
 3450 0002 66E0      		ldi r22,lo8(6)
 3451               	.LVL181:
 494:Adafruit_Fingerprint.cpp **** }
 3452               		.loc 3 494 26 view .LVU634
 3453 0004 0E94 0000 		call _ZN20Adafruit_Fingerprint13writeRegisterEhh
 3454               	.LVL182:
 3455               	/* epilogue start */
 495:Adafruit_Fingerprint.cpp **** /**************************************************************************/
 3456               		.loc 3 495 1 view .LVU635
 3457 0008 0895      		ret
 3458               		.cfi_endproc
 3459               	.LFE106:
 3461               		.text
 3462               	.Letext0:
 3463               		.file 5 "c:\\d\\ifsc\\vscodeleandro\\ex\\toolchains\\avr-gcc\\avr\\include\\stdint.h"
 3464               		.file 6 "c:\\d\\ifsc\\vscodeleandro\\ex\\toolchains\\avr-gcc\\lib\\gcc\\avr\\12.1.0\\include\\stdd
 3465               		.file 7 "c:\\d\\ifsc\\vscodeleandro\\ex\\toolchains\\avr-gcc\\avr\\include\\stdio.h"
 3466               		.file 8 "funsape/peripheral/usart0.hpp"
 3467               		.file 9 "kbitbang1.hpp"
 3468               		.file 10 "c:\\d\\ifsc\\vscodeleandro\\ex\\toolchains\\avr-gcc\\avr\\include\\string.h"
 3469               		.file 11 "c:\\d\\ifsc\\vscodeleandro\\ex\\toolchains\\avr-gcc\\avr\\include\\math.h"
GAS LISTING C:\Users\kenne\AppData\Local\Temp\ccnxErqW.s 			page 102


GAS LISTING C:\Users\kenne\AppData\Local\Temp\ccnxErqW.s 			page 103


DEFINED SYMBOLS
                            *ABS*:00000000 Adafruit_Fingerprint.cpp
C:\Users\kenne\AppData\Local\Temp\ccnxErqW.s:2      *ABS*:0000003e __SP_H__
C:\Users\kenne\AppData\Local\Temp\ccnxErqW.s:3      *ABS*:0000003d __SP_L__
C:\Users\kenne\AppData\Local\Temp\ccnxErqW.s:4      *ABS*:0000003f __SREG__
C:\Users\kenne\AppData\Local\Temp\ccnxErqW.s:5      *ABS*:00000000 __tmp_reg__
C:\Users\kenne\AppData\Local\Temp\ccnxErqW.s:6      *ABS*:00000001 __zero_reg__
C:\Users\kenne\AppData\Local\Temp\ccnxErqW.s:14     .text._Z7getTickv:00000000 _Z7getTickv
C:\Users\kenne\AppData\Local\Temp\ccnxErqW.s:17     .text._Z7getTickv:00000000 .Loc.0
C:\Users\kenne\AppData\Local\Temp\ccnxErqW.s:18     .text._Z7getTickv:00000000 L0
C:\Users\kenne\AppData\Local\Temp\ccnxErqW.s:23     .text._Z7getTickv:00000000 .Loc.1
C:\Users\kenne\AppData\Local\Temp\ccnxErqW.s:24     .text._Z7getTickv:00000000 .Loc.2
C:\Users\kenne\AppData\Local\Temp\ccnxErqW.s:30     .text._Z7getTickv:00000008 L0
C:\Users\kenne\AppData\Local\Temp\ccnxErqW.s:36     .text._ZN27Adafruit_Fingerprint_PacketC2EhjPh:00000000 _ZN27Adafruit_Fingerprint_PacketC2EhjPh
C:\Users\kenne\AppData\Local\Temp\ccnxErqW.s:40     .text._ZN27Adafruit_Fingerprint_PacketC2EhjPh:00000000 .Loc.3
C:\Users\kenne\AppData\Local\Temp\ccnxErqW.s:41     .text._ZN27Adafruit_Fingerprint_PacketC2EhjPh:00000000 L0
C:\Users\kenne\AppData\Local\Temp\ccnxErqW.s:46     .text._ZN27Adafruit_Fingerprint_PacketC2EhjPh:00000000 .Loc.4
C:\Users\kenne\AppData\Local\Temp\ccnxErqW.s:51     .text._ZN27Adafruit_Fingerprint_PacketC2EhjPh:00000006 .Loc.5
C:\Users\kenne\AppData\Local\Temp\ccnxErqW.s:56     .text._ZN27Adafruit_Fingerprint_PacketC2EhjPh:0000000c .Loc.6
C:\Users\kenne\AppData\Local\Temp\ccnxErqW.s:57     .text._ZN27Adafruit_Fingerprint_PacketC2EhjPh:0000000c .Loc.7
C:\Users\kenne\AppData\Local\Temp\ccnxErqW.s:61     .text._ZN27Adafruit_Fingerprint_PacketC2EhjPh:00000010 .Loc.8
C:\Users\kenne\AppData\Local\Temp\ccnxErqW.s:65     .text._ZN27Adafruit_Fingerprint_PacketC2EhjPh:00000016 .Loc.9
C:\Users\kenne\AppData\Local\Temp\ccnxErqW.s:66     .text._ZN27Adafruit_Fingerprint_PacketC2EhjPh:00000016 .Loc.10
C:\Users\kenne\AppData\Local\Temp\ccnxErqW.s:70     .text._ZN27Adafruit_Fingerprint_PacketC2EhjPh:0000001c .Loc.11
C:\Users\kenne\AppData\Local\Temp\ccnxErqW.s:71     .text._ZN27Adafruit_Fingerprint_PacketC2EhjPh:0000001c .Loc.12
C:\Users\kenne\AppData\Local\Temp\ccnxErqW.s:76     .text._ZN27Adafruit_Fingerprint_PacketC2EhjPh:00000024 .Loc.13
C:\Users\kenne\AppData\Local\Temp\ccnxErqW.s:77     .text._ZN27Adafruit_Fingerprint_PacketC2EhjPh:00000024 .Loc.14
C:\Users\kenne\AppData\Local\Temp\ccnxErqW.s:80     .text._ZN27Adafruit_Fingerprint_PacketC2EhjPh:00000026 .Loc.15
C:\Users\kenne\AppData\Local\Temp\ccnxErqW.s:84     .text._ZN27Adafruit_Fingerprint_PacketC2EhjPh:0000002c .Loc.16
C:\Users\kenne\AppData\Local\Temp\ccnxErqW.s:85     .text._ZN27Adafruit_Fingerprint_PacketC2EhjPh:0000002c .Loc.17
C:\Users\kenne\AppData\Local\Temp\ccnxErqW.s:89     .text._ZN27Adafruit_Fingerprint_PacketC2EhjPh:00000032 .Loc.18
C:\Users\kenne\AppData\Local\Temp\ccnxErqW.s:90     .text._ZN27Adafruit_Fingerprint_PacketC2EhjPh:00000032 .Loc.19
C:\Users\kenne\AppData\Local\Temp\ccnxErqW.s:94     .text._ZN27Adafruit_Fingerprint_PacketC2EhjPh:00000038 .Loc.20
C:\Users\kenne\AppData\Local\Temp\ccnxErqW.s:95     .text._ZN27Adafruit_Fingerprint_PacketC2EhjPh:00000038 .Loc.21
C:\Users\kenne\AppData\Local\Temp\ccnxErqW.s:99     .text._ZN27Adafruit_Fingerprint_PacketC2EhjPh:0000003e .Loc.22
C:\Users\kenne\AppData\Local\Temp\ccnxErqW.s:103    .text._ZN27Adafruit_Fingerprint_PacketC2EhjPh:00000044 .Loc.23
C:\Users\kenne\AppData\Local\Temp\ccnxErqW.s:104    .text._ZN27Adafruit_Fingerprint_PacketC2EhjPh:00000044 .Loc.24
C:\Users\kenne\AppData\Local\Temp\ccnxErqW.s:108    .text._ZN27Adafruit_Fingerprint_PacketC2EhjPh:00000048 .Loc.25
C:\Users\kenne\AppData\Local\Temp\ccnxErqW.s:113    .text._ZN27Adafruit_Fingerprint_PacketC2EhjPh:00000050 .Loc.26
C:\Users\kenne\AppData\Local\Temp\ccnxErqW.s:117    .text._ZN27Adafruit_Fingerprint_PacketC2EhjPh:00000052 .Loc.27
C:\Users\kenne\AppData\Local\Temp\ccnxErqW.s:118    .text._ZN27Adafruit_Fingerprint_PacketC2EhjPh:00000052 .Loc.28
C:\Users\kenne\AppData\Local\Temp\ccnxErqW.s:120    .text._ZN27Adafruit_Fingerprint_PacketC2EhjPh:00000054 .Loc.29
C:\Users\kenne\AppData\Local\Temp\ccnxErqW.s:130    .text._ZN27Adafruit_Fingerprint_PacketC2EhjPh:00000060 .Loc.30
C:\Users\kenne\AppData\Local\Temp\ccnxErqW.s:132    .text._ZN27Adafruit_Fingerprint_PacketC2EhjPh:00000062 L0
C:\Users\kenne\AppData\Local\Temp\ccnxErqW.s:36     .text._ZN27Adafruit_Fingerprint_PacketC2EhjPh:00000000 _ZN27Adafruit_Fingerprint_PacketC1EhjPh
C:\Users\kenne\AppData\Local\Temp\ccnxErqW.s:140    .text._ZN20Adafruit_FingerprintC2EP6Usart0m:00000000 _ZN20Adafruit_FingerprintC2EP6Usart0m
C:\Users\kenne\AppData\Local\Temp\ccnxErqW.s:144    .text._ZN20Adafruit_FingerprintC2EP6Usart0m:00000000 .Loc.31
C:\Users\kenne\AppData\Local\Temp\ccnxErqW.s:145    .text._ZN20Adafruit_FingerprintC2EP6Usart0m:00000000 L0
C:\Users\kenne\AppData\Local\Temp\ccnxErqW.s:146    .text._ZN20Adafruit_FingerprintC2EP6Usart0m:00000000 .Loc.32
C:\Users\kenne\AppData\Local\Temp\ccnxErqW.s:160    .text._ZN20Adafruit_FingerprintC2EP6Usart0m:00000008 .Loc.33
C:\Users\kenne\AppData\Local\Temp\ccnxErqW.s:175    .text._ZN20Adafruit_FingerprintC2EP6Usart0m:00000022 .Loc.34
C:\Users\kenne\AppData\Local\Temp\ccnxErqW.s:186    .text._ZN20Adafruit_FingerprintC2EP6Usart0m:00000036 .Loc.35
C:\Users\kenne\AppData\Local\Temp\ccnxErqW.s:187    .text._ZN20Adafruit_FingerprintC2EP6Usart0m:00000036 .Loc.36
C:\Users\kenne\AppData\Local\Temp\ccnxErqW.s:192    .text._ZN20Adafruit_FingerprintC2EP6Usart0m:0000003e .Loc.37
C:\Users\kenne\AppData\Local\Temp\ccnxErqW.s:193    .text._ZN20Adafruit_FingerprintC2EP6Usart0m:0000003e .Loc.38
C:\Users\kenne\AppData\Local\Temp\ccnxErqW.s:198    .text._ZN20Adafruit_FingerprintC2EP6Usart0m:00000046 .Loc.39
C:\Users\kenne\AppData\Local\Temp\ccnxErqW.s:199    .text._ZN20Adafruit_FingerprintC2EP6Usart0m:00000046 .Loc.40
GAS LISTING C:\Users\kenne\AppData\Local\Temp\ccnxErqW.s 			page 104


C:\Users\kenne\AppData\Local\Temp\ccnxErqW.s:202    .text._ZN20Adafruit_FingerprintC2EP6Usart0m:0000004a .Loc.41
C:\Users\kenne\AppData\Local\Temp\ccnxErqW.s:203    .text._ZN20Adafruit_FingerprintC2EP6Usart0m:0000004a .Loc.42
C:\Users\kenne\AppData\Local\Temp\ccnxErqW.s:208    .text._ZN20Adafruit_FingerprintC2EP6Usart0m:0000004e .Loc.43
C:\Users\kenne\AppData\Local\Temp\ccnxErqW.s:212    .text._ZN20Adafruit_FingerprintC2EP6Usart0m:00000054 L0
C:\Users\kenne\AppData\Local\Temp\ccnxErqW.s:140    .text._ZN20Adafruit_FingerprintC2EP6Usart0m:00000000 _ZN20Adafruit_FingerprintC1EP6Usart0m
C:\Users\kenne\AppData\Local\Temp\ccnxErqW.s:220    .text._ZN20Adafruit_Fingerprint5beginEm:00000000 _ZN20Adafruit_Fingerprint5beginEm
C:\Users\kenne\AppData\Local\Temp\ccnxErqW.s:223    .text._ZN20Adafruit_Fingerprint5beginEm:00000000 .Loc.44
C:\Users\kenne\AppData\Local\Temp\ccnxErqW.s:224    .text._ZN20Adafruit_Fingerprint5beginEm:00000000 L0
C:\Users\kenne\AppData\Local\Temp\ccnxErqW.s:229    .text._ZN20Adafruit_Fingerprint5beginEm:00000000 .Loc.45
C:\Users\kenne\AppData\Local\Temp\ccnxErqW.s:232    .text._ZN20Adafruit_Fingerprint5beginEm:00000004 .Loc.46
C:\Users\kenne\AppData\Local\Temp\ccnxErqW.s:237    .text._ZN20Adafruit_Fingerprint5beginEm:00000004 .Loc.47
C:\Users\kenne\AppData\Local\Temp\ccnxErqW.s:239    .text._ZN20Adafruit_Fingerprint5beginEm:00000004 .Loc.48
C:\Users\kenne\AppData\Local\Temp\ccnxErqW.s:240    .text._ZN20Adafruit_Fingerprint5beginEm:00000004 .Loc.49
C:\Users\kenne\AppData\Local\Temp\ccnxErqW.s:241    .text._ZN20Adafruit_Fingerprint5beginEm:00000004 .Loc.50
C:\Users\kenne\AppData\Local\Temp\ccnxErqW.s:242    .text._ZN20Adafruit_Fingerprint5beginEm:00000004 .Loc.51
C:\Users\kenne\AppData\Local\Temp\ccnxErqW.s:243    .text._ZN20Adafruit_Fingerprint5beginEm:00000004 .Loc.52
C:\Users\kenne\AppData\Local\Temp\ccnxErqW.s:244    .text._ZN20Adafruit_Fingerprint5beginEm:00000004 .Loc.53
C:\Users\kenne\AppData\Local\Temp\ccnxErqW.s:245    .text._ZN20Adafruit_Fingerprint5beginEm:00000004 .Loc.54
C:\Users\kenne\AppData\Local\Temp\ccnxErqW.s:254    .text._ZN20Adafruit_Fingerprint5beginEm:00000012 .Loc.55
C:\Users\kenne\AppData\Local\Temp\ccnxErqW.s:255    .text._ZN20Adafruit_Fingerprint5beginEm:00000014 L0
C:\Users\kenne\AppData\Local\Temp\ccnxErqW.s:258    .text._ZN20Adafruit_Fingerprint5beginEm:00000016 .Loc.56
C:\Users\kenne\AppData\Local\Temp\ccnxErqW.s:261    .text._ZN20Adafruit_Fingerprint5beginEm:00000016 .Loc.57
C:\Users\kenne\AppData\Local\Temp\ccnxErqW.s:262    .text._ZN20Adafruit_Fingerprint5beginEm:00000016 .Loc.58
C:\Users\kenne\AppData\Local\Temp\ccnxErqW.s:265    .text._ZN20Adafruit_Fingerprint5beginEm:0000001a .Loc.59
C:\Users\kenne\AppData\Local\Temp\ccnxErqW.s:268    .text._ZN20Adafruit_Fingerprint5beginEm:0000001e .Loc.60
C:\Users\kenne\AppData\Local\Temp\ccnxErqW.s:269    .text._ZN20Adafruit_Fingerprint5beginEm:0000001e .Loc.61
C:\Users\kenne\AppData\Local\Temp\ccnxErqW.s:274    .text._ZN20Adafruit_Fingerprint5beginEm:00000022 .Loc.62
C:\Users\kenne\AppData\Local\Temp\ccnxErqW.s:276    .text._ZN20Adafruit_Fingerprint5beginEm:00000024 L0
C:\Users\kenne\AppData\Local\Temp\ccnxErqW.s:282    .text._ZN20Adafruit_Fingerprint21writeStructuredPacketERK27Adafruit_Fingerprint_Packet:00000000 _ZN20Adafruit_Fingerprint21writeStructuredPacketERK27Adafruit_Fingerprint_Packet
C:\Users\kenne\AppData\Local\Temp\ccnxErqW.s:285    .text._ZN20Adafruit_Fingerprint21writeStructuredPacketERK27Adafruit_Fingerprint_Packet:00000000 .Loc.63
C:\Users\kenne\AppData\Local\Temp\ccnxErqW.s:286    .text._ZN20Adafruit_Fingerprint21writeStructuredPacketERK27Adafruit_Fingerprint_Packet:00000000 L0
C:\Users\kenne\AppData\Local\Temp\ccnxErqW.s:287    .text._ZN20Adafruit_Fingerprint21writeStructuredPacketERK27Adafruit_Fingerprint_Packet:00000000 .Loc.64
C:\Users\kenne\AppData\Local\Temp\ccnxErqW.s:323    .text._ZN20Adafruit_Fingerprint21writeStructuredPacketERK27Adafruit_Fingerprint_Packet:0000001a .Loc.65
C:\Users\kenne\AppData\Local\Temp\ccnxErqW.s:324    .text._ZN20Adafruit_Fingerprint21writeStructuredPacketERK27Adafruit_Fingerprint_Packet:0000001a .Loc.66
C:\Users\kenne\AppData\Local\Temp\ccnxErqW.s:328    .text._ZN20Adafruit_Fingerprint21writeStructuredPacketERK27Adafruit_Fingerprint_Packet:0000001e .Loc.67
C:\Users\kenne\AppData\Local\Temp\ccnxErqW.s:334    .text._ZN20Adafruit_Fingerprint21writeStructuredPacketERK27Adafruit_Fingerprint_Packet:00000026 .Loc.68
C:\Users\kenne\AppData\Local\Temp\ccnxErqW.s:337    .text._ZN20Adafruit_Fingerprint21writeStructuredPacketERK27Adafruit_Fingerprint_Packet:0000002a .Loc.69
C:\Users\kenne\AppData\Local\Temp\ccnxErqW.s:338    .text._ZN20Adafruit_Fingerprint21writeStructuredPacketERK27Adafruit_Fingerprint_Packet:0000002a .Loc.70
C:\Users\kenne\AppData\Local\Temp\ccnxErqW.s:342    .text._ZN20Adafruit_Fingerprint21writeStructuredPacketERK27Adafruit_Fingerprint_Packet:00000030 .Loc.71
C:\Users\kenne\AppData\Local\Temp\ccnxErqW.s:349    .text._ZN20Adafruit_Fingerprint21writeStructuredPacketERK27Adafruit_Fingerprint_Packet:0000003c .Loc.72
C:\Users\kenne\AppData\Local\Temp\ccnxErqW.s:350    .text._ZN20Adafruit_Fingerprint21writeStructuredPacketERK27Adafruit_Fingerprint_Packet:0000003c .Loc.73
C:\Users\kenne\AppData\Local\Temp\ccnxErqW.s:353    .text._ZN20Adafruit_Fingerprint21writeStructuredPacketERK27Adafruit_Fingerprint_Packet:00000040 .Loc.74
C:\Users\kenne\AppData\Local\Temp\ccnxErqW.s:360    .text._ZN20Adafruit_Fingerprint21writeStructuredPacketERK27Adafruit_Fingerprint_Packet:0000004c .Loc.75
C:\Users\kenne\AppData\Local\Temp\ccnxErqW.s:361    .text._ZN20Adafruit_Fingerprint21writeStructuredPacketERK27Adafruit_Fingerprint_Packet:0000004c .Loc.76
C:\Users\kenne\AppData\Local\Temp\ccnxErqW.s:364    .text._ZN20Adafruit_Fingerprint21writeStructuredPacketERK27Adafruit_Fingerprint_Packet:00000050 .Loc.77
C:\Users\kenne\AppData\Local\Temp\ccnxErqW.s:371    .text._ZN20Adafruit_Fingerprint21writeStructuredPacketERK27Adafruit_Fingerprint_Packet:0000005c .Loc.78
C:\Users\kenne\AppData\Local\Temp\ccnxErqW.s:372    .text._ZN20Adafruit_Fingerprint21writeStructuredPacketERK27Adafruit_Fingerprint_Packet:0000005c .Loc.79
C:\Users\kenne\AppData\Local\Temp\ccnxErqW.s:375    .text._ZN20Adafruit_Fingerprint21writeStructuredPacketERK27Adafruit_Fingerprint_Packet:00000060 .Loc.80
C:\Users\kenne\AppData\Local\Temp\ccnxErqW.s:382    .text._ZN20Adafruit_Fingerprint21writeStructuredPacketERK27Adafruit_Fingerprint_Packet:0000006c .Loc.81
C:\Users\kenne\AppData\Local\Temp\ccnxErqW.s:383    .text._ZN20Adafruit_Fingerprint21writeStructuredPacketERK27Adafruit_Fingerprint_Packet:0000006c .Loc.82
C:\Users\kenne\AppData\Local\Temp\ccnxErqW.s:386    .text._ZN20Adafruit_Fingerprint21writeStructuredPacketERK27Adafruit_Fingerprint_Packet:00000070 .Loc.83
C:\Users\kenne\AppData\Local\Temp\ccnxErqW.s:393    .text._ZN20Adafruit_Fingerprint21writeStructuredPacketERK27Adafruit_Fingerprint_Packet:0000007c .Loc.84
C:\Users\kenne\AppData\Local\Temp\ccnxErqW.s:394    .text._ZN20Adafruit_Fingerprint21writeStructuredPacketERK27Adafruit_Fingerprint_Packet:0000007c .Loc.85
C:\Users\kenne\AppData\Local\Temp\ccnxErqW.s:397    .text._ZN20Adafruit_Fingerprint21writeStructuredPacketERK27Adafruit_Fingerprint_Packet:00000080 .Loc.86
C:\Users\kenne\AppData\Local\Temp\ccnxErqW.s:404    .text._ZN20Adafruit_Fingerprint21writeStructuredPacketERK27Adafruit_Fingerprint_Packet:0000008c .Loc.87
C:\Users\kenne\AppData\Local\Temp\ccnxErqW.s:405    .text._ZN20Adafruit_Fingerprint21writeStructuredPacketERK27Adafruit_Fingerprint_Packet:0000008c .Loc.88
C:\Users\kenne\AppData\Local\Temp\ccnxErqW.s:409    .text._ZN20Adafruit_Fingerprint21writeStructuredPacketERK27Adafruit_Fingerprint_Packet:00000092 .Loc.89
GAS LISTING C:\Users\kenne\AppData\Local\Temp\ccnxErqW.s 			page 105


C:\Users\kenne\AppData\Local\Temp\ccnxErqW.s:414    .text._ZN20Adafruit_Fingerprint21writeStructuredPacketERK27Adafruit_Fingerprint_Packet:00000098 .Loc.90
C:\Users\kenne\AppData\Local\Temp\ccnxErqW.s:415    .text._ZN20Adafruit_Fingerprint21writeStructuredPacketERK27Adafruit_Fingerprint_Packet:00000098 .Loc.91
C:\Users\kenne\AppData\Local\Temp\ccnxErqW.s:418    .text._ZN20Adafruit_Fingerprint21writeStructuredPacketERK27Adafruit_Fingerprint_Packet:0000009c .Loc.92
C:\Users\kenne\AppData\Local\Temp\ccnxErqW.s:425    .text._ZN20Adafruit_Fingerprint21writeStructuredPacketERK27Adafruit_Fingerprint_Packet:000000a8 .Loc.93
C:\Users\kenne\AppData\Local\Temp\ccnxErqW.s:428    .text._ZN20Adafruit_Fingerprint21writeStructuredPacketERK27Adafruit_Fingerprint_Packet:000000aa .Loc.94
C:\Users\kenne\AppData\Local\Temp\ccnxErqW.s:435    .text._ZN20Adafruit_Fingerprint21writeStructuredPacketERK27Adafruit_Fingerprint_Packet:000000b6 .Loc.95
C:\Users\kenne\AppData\Local\Temp\ccnxErqW.s:436    .text._ZN20Adafruit_Fingerprint21writeStructuredPacketERK27Adafruit_Fingerprint_Packet:000000b6 .Loc.96
C:\Users\kenne\AppData\Local\Temp\ccnxErqW.s:439    .text._ZN20Adafruit_Fingerprint21writeStructuredPacketERK27Adafruit_Fingerprint_Packet:000000ba .Loc.97
C:\Users\kenne\AppData\Local\Temp\ccnxErqW.s:442    .text._ZN20Adafruit_Fingerprint21writeStructuredPacketERK27Adafruit_Fingerprint_Packet:000000be .Loc.98
C:\Users\kenne\AppData\Local\Temp\ccnxErqW.s:446    .text._ZN20Adafruit_Fingerprint21writeStructuredPacketERK27Adafruit_Fingerprint_Packet:000000c2 .Loc.99
C:\Users\kenne\AppData\Local\Temp\ccnxErqW.s:448    .text._ZN20Adafruit_Fingerprint21writeStructuredPacketERK27Adafruit_Fingerprint_Packet:000000c2 .Loc.100
C:\Users\kenne\AppData\Local\Temp\ccnxErqW.s:450    .text._ZN20Adafruit_Fingerprint21writeStructuredPacketERK27Adafruit_Fingerprint_Packet:000000c4 .Loc.101
C:\Users\kenne\AppData\Local\Temp\ccnxErqW.s:454    .text._ZN20Adafruit_Fingerprint21writeStructuredPacketERK27Adafruit_Fingerprint_Packet:000000c6 .Loc.102
C:\Users\kenne\AppData\Local\Temp\ccnxErqW.s:455    .text._ZN20Adafruit_Fingerprint21writeStructuredPacketERK27Adafruit_Fingerprint_Packet:000000c6 .Loc.103
C:\Users\kenne\AppData\Local\Temp\ccnxErqW.s:461    .text._ZN20Adafruit_Fingerprint21writeStructuredPacketERK27Adafruit_Fingerprint_Packet:000000d0 .Loc.104
C:\Users\kenne\AppData\Local\Temp\ccnxErqW.s:467    .text._ZN20Adafruit_Fingerprint21writeStructuredPacketERK27Adafruit_Fingerprint_Packet:000000d8 .Loc.105
C:\Users\kenne\AppData\Local\Temp\ccnxErqW.s:470    .text._ZN20Adafruit_Fingerprint21writeStructuredPacketERK27Adafruit_Fingerprint_Packet:000000dc .Loc.106
C:\Users\kenne\AppData\Local\Temp\ccnxErqW.s:471    .text._ZN20Adafruit_Fingerprint21writeStructuredPacketERK27Adafruit_Fingerprint_Packet:000000dc .Loc.107
C:\Users\kenne\AppData\Local\Temp\ccnxErqW.s:474    .text._ZN20Adafruit_Fingerprint21writeStructuredPacketERK27Adafruit_Fingerprint_Packet:000000e0 .Loc.108
C:\Users\kenne\AppData\Local\Temp\ccnxErqW.s:478    .text._ZN20Adafruit_Fingerprint21writeStructuredPacketERK27Adafruit_Fingerprint_Packet:000000e4 .Loc.109
C:\Users\kenne\AppData\Local\Temp\ccnxErqW.s:482    .text._ZN20Adafruit_Fingerprint21writeStructuredPacketERK27Adafruit_Fingerprint_Packet:000000e6 .Loc.110
C:\Users\kenne\AppData\Local\Temp\ccnxErqW.s:483    .text._ZN20Adafruit_Fingerprint21writeStructuredPacketERK27Adafruit_Fingerprint_Packet:000000e6 .Loc.111
C:\Users\kenne\AppData\Local\Temp\ccnxErqW.s:486    .text._ZN20Adafruit_Fingerprint21writeStructuredPacketERK27Adafruit_Fingerprint_Packet:000000ea .Loc.112
C:\Users\kenne\AppData\Local\Temp\ccnxErqW.s:490    .text._ZN20Adafruit_Fingerprint21writeStructuredPacketERK27Adafruit_Fingerprint_Packet:000000f0 .Loc.113
C:\Users\kenne\AppData\Local\Temp\ccnxErqW.s:494    .text._ZN20Adafruit_Fingerprint21writeStructuredPacketERK27Adafruit_Fingerprint_Packet:000000f6 .Loc.114
C:\Users\kenne\AppData\Local\Temp\ccnxErqW.s:496    .text._ZN20Adafruit_Fingerprint21writeStructuredPacketERK27Adafruit_Fingerprint_Packet:000000f6 .Loc.115
C:\Users\kenne\AppData\Local\Temp\ccnxErqW.s:497    .text._ZN20Adafruit_Fingerprint21writeStructuredPacketERK27Adafruit_Fingerprint_Packet:000000f6 .Loc.116
C:\Users\kenne\AppData\Local\Temp\ccnxErqW.s:505    .text._ZN20Adafruit_Fingerprint21writeStructuredPacketERK27Adafruit_Fingerprint_Packet:00000104 .Loc.117
C:\Users\kenne\AppData\Local\Temp\ccnxErqW.s:506    .text._ZN20Adafruit_Fingerprint21writeStructuredPacketERK27Adafruit_Fingerprint_Packet:00000104 .Loc.118
C:\Users\kenne\AppData\Local\Temp\ccnxErqW.s:514    .text._ZN20Adafruit_Fingerprint21writeStructuredPacketERK27Adafruit_Fingerprint_Packet:00000112 .Loc.119
C:\Users\kenne\AppData\Local\Temp\ccnxErqW.s:516    .text._ZN20Adafruit_Fingerprint21writeStructuredPacketERK27Adafruit_Fingerprint_Packet:00000112 .Loc.120
C:\Users\kenne\AppData\Local\Temp\ccnxErqW.s:519    .text._ZN20Adafruit_Fingerprint21writeStructuredPacketERK27Adafruit_Fingerprint_Packet:00000114 .Loc.121
C:\Users\kenne\AppData\Local\Temp\ccnxErqW.s:525    .text._ZN20Adafruit_Fingerprint21writeStructuredPacketERK27Adafruit_Fingerprint_Packet:0000011c .Loc.122
C:\Users\kenne\AppData\Local\Temp\ccnxErqW.s:531    .text._ZN20Adafruit_Fingerprint21writeStructuredPacketERK27Adafruit_Fingerprint_Packet:00000126 L0
C:\Users\kenne\AppData\Local\Temp\ccnxErqW.s:560    .text._ZN20Adafruit_Fingerprint19getStructuredPacketEP27Adafruit_Fingerprint_Packetj:00000000 _ZN20Adafruit_Fingerprint19getStructuredPacketEP27Adafruit_Fingerprint_Packetj
C:\Users\kenne\AppData\Local\Temp\ccnxErqW.s:563    .text._ZN20Adafruit_Fingerprint19getStructuredPacketEP27Adafruit_Fingerprint_Packetj:00000000 .Loc.123
C:\Users\kenne\AppData\Local\Temp\ccnxErqW.s:564    .text._ZN20Adafruit_Fingerprint19getStructuredPacketEP27Adafruit_Fingerprint_Packetj:00000000 L0
C:\Users\kenne\AppData\Local\Temp\ccnxErqW.s:565    .text._ZN20Adafruit_Fingerprint19getStructuredPacketEP27Adafruit_Fingerprint_Packetj:00000000 .Loc.124
C:\Users\kenne\AppData\Local\Temp\ccnxErqW.s:634    .text._ZN20Adafruit_Fingerprint19getStructuredPacketEP27Adafruit_Fingerprint_Packetj:0000003c .Loc.125
C:\Users\kenne\AppData\Local\Temp\ccnxErqW.s:635    .text._ZN20Adafruit_Fingerprint19getStructuredPacketEP27Adafruit_Fingerprint_Packetj:0000003c .Loc.126
C:\Users\kenne\AppData\Local\Temp\ccnxErqW.s:636    .text._ZN20Adafruit_Fingerprint19getStructuredPacketEP27Adafruit_Fingerprint_Packetj:0000003c .Loc.127
C:\Users\kenne\AppData\Local\Temp\ccnxErqW.s:637    .text._ZN20Adafruit_Fingerprint19getStructuredPacketEP27Adafruit_Fingerprint_Packetj:0000003c .Loc.128
C:\Users\kenne\AppData\Local\Temp\ccnxErqW.s:639    .text._ZN20Adafruit_Fingerprint19getStructuredPacketEP27Adafruit_Fingerprint_Packetj:0000003c .Loc.129
C:\Users\kenne\AppData\Local\Temp\ccnxErqW.s:640    .text._ZN20Adafruit_Fingerprint19getStructuredPacketEP27Adafruit_Fingerprint_Packetj:0000003c .Loc.130
C:\Users\kenne\AppData\Local\Temp\ccnxErqW.s:643    .text._ZN20Adafruit_Fingerprint19getStructuredPacketEP27Adafruit_Fingerprint_Packetj:00000040 .Loc.131
C:\Users\kenne\AppData\Local\Temp\ccnxErqW.s:649    .text._ZN20Adafruit_Fingerprint19getStructuredPacketEP27Adafruit_Fingerprint_Packetj:00000046 .Loc.132
C:\Users\kenne\AppData\Local\Temp\ccnxErqW.s:650    .text._ZN20Adafruit_Fingerprint19getStructuredPacketEP27Adafruit_Fingerprint_Packetj:00000046 .Loc.133
C:\Users\kenne\AppData\Local\Temp\ccnxErqW.s:655    .text._ZN20Adafruit_Fingerprint19getStructuredPacketEP27Adafruit_Fingerprint_Packetj:0000004e .Loc.134
C:\Users\kenne\AppData\Local\Temp\ccnxErqW.s:656    .text._ZN20Adafruit_Fingerprint19getStructuredPacketEP27Adafruit_Fingerprint_Packetj:0000004e .Loc.135
C:\Users\kenne\AppData\Local\Temp\ccnxErqW.s:661    .text._ZN20Adafruit_Fingerprint19getStructuredPacketEP27Adafruit_Fingerprint_Packetj:00000050 .Loc.136
C:\Users\kenne\AppData\Local\Temp\ccnxErqW.s:675    .text._ZN20Adafruit_Fingerprint19getStructuredPacketEP27Adafruit_Fingerprint_Packetj:00000068 .Loc.137
C:\Users\kenne\AppData\Local\Temp\ccnxErqW.s:689    .text._ZN20Adafruit_Fingerprint19getStructuredPacketEP27Adafruit_Fingerprint_Packetj:0000007e .Loc.138
C:\Users\kenne\AppData\Local\Temp\ccnxErqW.s:692    .text._ZN20Adafruit_Fingerprint19getStructuredPacketEP27Adafruit_Fingerprint_Packetj:00000084 L0
C:\Users\kenne\AppData\Local\Temp\ccnxErqW.s:694    .text._ZN20Adafruit_Fingerprint19getStructuredPacketEP27Adafruit_Fingerprint_Packetj:00000086 .Loc.139
C:\Users\kenne\AppData\Local\Temp\ccnxErqW.s:695    .text._ZN20Adafruit_Fingerprint19getStructuredPacketEP27Adafruit_Fingerprint_Packetj:00000086 .Loc.140
C:\Users\kenne\AppData\Local\Temp\ccnxErqW.s:696    .text._ZN20Adafruit_Fingerprint19getStructuredPacketEP27Adafruit_Fingerprint_Packetj:00000086 .Loc.141
C:\Users\kenne\AppData\Local\Temp\ccnxErqW.s:698    .text._ZN20Adafruit_Fingerprint19getStructuredPacketEP27Adafruit_Fingerprint_Packetj:00000088 .Loc.142
GAS LISTING C:\Users\kenne\AppData\Local\Temp\ccnxErqW.s 			page 106


C:\Users\kenne\AppData\Local\Temp\ccnxErqW.s:701    .text._ZN20Adafruit_Fingerprint19getStructuredPacketEP27Adafruit_Fingerprint_Packetj:0000008c .Loc.143
C:\Users\kenne\AppData\Local\Temp\ccnxErqW.s:702    .text._ZN20Adafruit_Fingerprint19getStructuredPacketEP27Adafruit_Fingerprint_Packetj:0000008c .Loc.144
C:\Users\kenne\AppData\Local\Temp\ccnxErqW.s:706    .text._ZN20Adafruit_Fingerprint19getStructuredPacketEP27Adafruit_Fingerprint_Packetj:00000092 .Loc.145
C:\Users\kenne\AppData\Local\Temp\ccnxErqW.s:709    .text._ZN20Adafruit_Fingerprint19getStructuredPacketEP27Adafruit_Fingerprint_Packetj:00000094 .Loc.146
C:\Users\kenne\AppData\Local\Temp\ccnxErqW.s:712    .text._ZN20Adafruit_Fingerprint19getStructuredPacketEP27Adafruit_Fingerprint_Packetj:0000009a L0
C:\Users\kenne\AppData\Local\Temp\ccnxErqW.s:714    .text._ZN20Adafruit_Fingerprint19getStructuredPacketEP27Adafruit_Fingerprint_Packetj:0000009c .Loc.147
C:\Users\kenne\AppData\Local\Temp\ccnxErqW.s:717    .text._ZN20Adafruit_Fingerprint19getStructuredPacketEP27Adafruit_Fingerprint_Packetj:000000a2 L0
C:\Users\kenne\AppData\Local\Temp\ccnxErqW.s:719    .text._ZN20Adafruit_Fingerprint19getStructuredPacketEP27Adafruit_Fingerprint_Packetj:000000a4 .Loc.148
C:\Users\kenne\AppData\Local\Temp\ccnxErqW.s:720    .text._ZN20Adafruit_Fingerprint19getStructuredPacketEP27Adafruit_Fingerprint_Packetj:000000a4 .Loc.149
C:\Users\kenne\AppData\Local\Temp\ccnxErqW.s:721    .text._ZN20Adafruit_Fingerprint19getStructuredPacketEP27Adafruit_Fingerprint_Packetj:000000a4 .Loc.150
C:\Users\kenne\AppData\Local\Temp\ccnxErqW.s:725    .text._ZN20Adafruit_Fingerprint19getStructuredPacketEP27Adafruit_Fingerprint_Packetj:000000aa .Loc.151
C:\Users\kenne\AppData\Local\Temp\ccnxErqW.s:727    .text._ZN20Adafruit_Fingerprint19getStructuredPacketEP27Adafruit_Fingerprint_Packetj:000000ac .Loc.152
C:\Users\kenne\AppData\Local\Temp\ccnxErqW.s:731    .text._ZN20Adafruit_Fingerprint19getStructuredPacketEP27Adafruit_Fingerprint_Packetj:000000b2 .Loc.153
C:\Users\kenne\AppData\Local\Temp\ccnxErqW.s:734    .text._ZN20Adafruit_Fingerprint19getStructuredPacketEP27Adafruit_Fingerprint_Packetj:000000b4 .Loc.154
C:\Users\kenne\AppData\Local\Temp\ccnxErqW.s:735    .text._ZN20Adafruit_Fingerprint19getStructuredPacketEP27Adafruit_Fingerprint_Packetj:000000b4 .Loc.155
C:\Users\kenne\AppData\Local\Temp\ccnxErqW.s:740    .text._ZN20Adafruit_Fingerprint19getStructuredPacketEP27Adafruit_Fingerprint_Packetj:000000bc .Loc.156
C:\Users\kenne\AppData\Local\Temp\ccnxErqW.s:744    .text._ZN20Adafruit_Fingerprint19getStructuredPacketEP27Adafruit_Fingerprint_Packetj:000000c0 .Loc.157
C:\Users\kenne\AppData\Local\Temp\ccnxErqW.s:745    .text._ZN20Adafruit_Fingerprint19getStructuredPacketEP27Adafruit_Fingerprint_Packetj:000000c0 .Loc.158
C:\Users\kenne\AppData\Local\Temp\ccnxErqW.s:746    .text._ZN20Adafruit_Fingerprint19getStructuredPacketEP27Adafruit_Fingerprint_Packetj:000000c0 .Loc.159
C:\Users\kenne\AppData\Local\Temp\ccnxErqW.s:750    .text._ZN20Adafruit_Fingerprint19getStructuredPacketEP27Adafruit_Fingerprint_Packetj:000000c6 .Loc.160
C:\Users\kenne\AppData\Local\Temp\ccnxErqW.s:752    .text._ZN20Adafruit_Fingerprint19getStructuredPacketEP27Adafruit_Fingerprint_Packetj:000000c8 .Loc.161
C:\Users\kenne\AppData\Local\Temp\ccnxErqW.s:756    .text._ZN20Adafruit_Fingerprint19getStructuredPacketEP27Adafruit_Fingerprint_Packetj:000000ce .Loc.162
C:\Users\kenne\AppData\Local\Temp\ccnxErqW.s:760    .text._ZN20Adafruit_Fingerprint19getStructuredPacketEP27Adafruit_Fingerprint_Packetj:000000d4 .Loc.163
C:\Users\kenne\AppData\Local\Temp\ccnxErqW.s:761    .text._ZN20Adafruit_Fingerprint19getStructuredPacketEP27Adafruit_Fingerprint_Packetj:000000d4 .Loc.164
C:\Users\kenne\AppData\Local\Temp\ccnxErqW.s:766    .text._ZN20Adafruit_Fingerprint19getStructuredPacketEP27Adafruit_Fingerprint_Packetj:000000dc .Loc.165
C:\Users\kenne\AppData\Local\Temp\ccnxErqW.s:767    .text._ZN20Adafruit_Fingerprint19getStructuredPacketEP27Adafruit_Fingerprint_Packetj:000000dc .Loc.166
C:\Users\kenne\AppData\Local\Temp\ccnxErqW.s:771    .text._ZN20Adafruit_Fingerprint19getStructuredPacketEP27Adafruit_Fingerprint_Packetj:000000e0 .Loc.167
C:\Users\kenne\AppData\Local\Temp\ccnxErqW.s:772    .text._ZN20Adafruit_Fingerprint19getStructuredPacketEP27Adafruit_Fingerprint_Packetj:000000e0 .Loc.168
C:\Users\kenne\AppData\Local\Temp\ccnxErqW.s:773    .text._ZN20Adafruit_Fingerprint19getStructuredPacketEP27Adafruit_Fingerprint_Packetj:000000e0 .Loc.169
C:\Users\kenne\AppData\Local\Temp\ccnxErqW.s:778    .text._ZN20Adafruit_Fingerprint19getStructuredPacketEP27Adafruit_Fingerprint_Packetj:000000e8 .Loc.170
C:\Users\kenne\AppData\Local\Temp\ccnxErqW.s:779    .text._ZN20Adafruit_Fingerprint19getStructuredPacketEP27Adafruit_Fingerprint_Packetj:000000e8 .Loc.171
C:\Users\kenne\AppData\Local\Temp\ccnxErqW.s:783    .text._ZN20Adafruit_Fingerprint19getStructuredPacketEP27Adafruit_Fingerprint_Packetj:000000ee .Loc.172
C:\Users\kenne\AppData\Local\Temp\ccnxErqW.s:785    .text._ZN20Adafruit_Fingerprint19getStructuredPacketEP27Adafruit_Fingerprint_Packetj:000000ee .Loc.173
C:\Users\kenne\AppData\Local\Temp\ccnxErqW.s:786    .text._ZN20Adafruit_Fingerprint19getStructuredPacketEP27Adafruit_Fingerprint_Packetj:000000ee .Loc.174
C:\Users\kenne\AppData\Local\Temp\ccnxErqW.s:790    .text._ZN20Adafruit_Fingerprint19getStructuredPacketEP27Adafruit_Fingerprint_Packetj:000000f2 .Loc.175
C:\Users\kenne\AppData\Local\Temp\ccnxErqW.s:791    .text._ZN20Adafruit_Fingerprint19getStructuredPacketEP27Adafruit_Fingerprint_Packetj:000000f2 .Loc.176
C:\Users\kenne\AppData\Local\Temp\ccnxErqW.s:794    .text._ZN20Adafruit_Fingerprint19getStructuredPacketEP27Adafruit_Fingerprint_Packetj:000000f6 .Loc.177
C:\Users\kenne\AppData\Local\Temp\ccnxErqW.s:797    .text._ZN20Adafruit_Fingerprint19getStructuredPacketEP27Adafruit_Fingerprint_Packetj:000000fc L0
C:\Users\kenne\AppData\Local\Temp\ccnxErqW.s:800    .text._ZN20Adafruit_Fingerprint19getStructuredPacketEP27Adafruit_Fingerprint_Packetj:000000fe .Loc.178
C:\Users\kenne\AppData\Local\Temp\ccnxErqW.s:804    .text._ZN20Adafruit_Fingerprint19getStructuredPacketEP27Adafruit_Fingerprint_Packetj:00000100 .Loc.179
C:\Users\kenne\AppData\Local\Temp\ccnxErqW.s:805    .text._ZN20Adafruit_Fingerprint19getStructuredPacketEP27Adafruit_Fingerprint_Packetj:00000100 .Loc.180
C:\Users\kenne\AppData\Local\Temp\ccnxErqW.s:808    .text._ZN20Adafruit_Fingerprint19getStructuredPacketEP27Adafruit_Fingerprint_Packetj:00000100 .Loc.181
C:\Users\kenne\AppData\Local\Temp\ccnxErqW.s:810    .text._ZN20Adafruit_Fingerprint19getStructuredPacketEP27Adafruit_Fingerprint_Packetj:00000100 .Loc.182
C:\Users\kenne\AppData\Local\Temp\ccnxErqW.s:811    .text._ZN20Adafruit_Fingerprint19getStructuredPacketEP27Adafruit_Fingerprint_Packetj:00000100 .Loc.183
C:\Users\kenne\AppData\Local\Temp\ccnxErqW.s:812    .text._ZN20Adafruit_Fingerprint19getStructuredPacketEP27Adafruit_Fingerprint_Packetj:00000100 .Loc.184
C:\Users\kenne\AppData\Local\Temp\ccnxErqW.s:813    .text._ZN20Adafruit_Fingerprint19getStructuredPacketEP27Adafruit_Fingerprint_Packetj:00000100 .Loc.185
C:\Users\kenne\AppData\Local\Temp\ccnxErqW.s:814    .text._ZN20Adafruit_Fingerprint19getStructuredPacketEP27Adafruit_Fingerprint_Packetj:00000100 .Loc.186
C:\Users\kenne\AppData\Local\Temp\ccnxErqW.s:815    .text._ZN20Adafruit_Fingerprint19getStructuredPacketEP27Adafruit_Fingerprint_Packetj:00000100 .Loc.187
C:\Users\kenne\AppData\Local\Temp\ccnxErqW.s:816    .text._ZN20Adafruit_Fingerprint19getStructuredPacketEP27Adafruit_Fingerprint_Packetj:00000100 .Loc.188
C:\Users\kenne\AppData\Local\Temp\ccnxErqW.s:821    .text._ZN20Adafruit_Fingerprint19getStructuredPacketEP27Adafruit_Fingerprint_Packetj:0000010a L0
C:\Users\kenne\AppData\Local\Temp\ccnxErqW.s:824    .text._ZN20Adafruit_Fingerprint19getStructuredPacketEP27Adafruit_Fingerprint_Packetj:0000010c .Loc.189
C:\Users\kenne\AppData\Local\Temp\ccnxErqW.s:827    .text._ZN20Adafruit_Fingerprint19getStructuredPacketEP27Adafruit_Fingerprint_Packetj:0000010c .Loc.190
C:\Users\kenne\AppData\Local\Temp\ccnxErqW.s:828    .text._ZN20Adafruit_Fingerprint19getStructuredPacketEP27Adafruit_Fingerprint_Packetj:0000010c .Loc.191
C:\Users\kenne\AppData\Local\Temp\ccnxErqW.s:833    .text._ZN20Adafruit_Fingerprint19getStructuredPacketEP27Adafruit_Fingerprint_Packetj:00000112 .Loc.192
C:\Users\kenne\AppData\Local\Temp\ccnxErqW.s:836    .text._ZN20Adafruit_Fingerprint19getStructuredPacketEP27Adafruit_Fingerprint_Packetj:00000118 L0
C:\Users\kenne\AppData\Local\Temp\ccnxErqW.s:838    .text._ZN20Adafruit_Fingerprint19getStructuredPacketEP27Adafruit_Fingerprint_Packetj:0000011a .Loc.193
C:\Users\kenne\AppData\Local\Temp\ccnxErqW.s:839    .text._ZN20Adafruit_Fingerprint19getStructuredPacketEP27Adafruit_Fingerprint_Packetj:0000011a .Loc.194
GAS LISTING C:\Users\kenne\AppData\Local\Temp\ccnxErqW.s 			page 107


C:\Users\kenne\AppData\Local\Temp\ccnxErqW.s:848    .text._ZN20Adafruit_Fingerprint19getStructuredPacketEP27Adafruit_Fingerprint_Packetj:0000012a .Loc.195
C:\Users\kenne\AppData\Local\Temp\ccnxErqW.s:849    .text._ZN20Adafruit_Fingerprint19getStructuredPacketEP27Adafruit_Fingerprint_Packetj:0000012a .Loc.196
C:\Users\kenne\AppData\Local\Temp\ccnxErqW.s:863    .text._ZN20Adafruit_Fingerprint19getStructuredPacketEP27Adafruit_Fingerprint_Packetj:00000144 .Loc.197
C:\Users\kenne\AppData\Local\Temp\ccnxErqW.s:864    .text._ZN20Adafruit_Fingerprint19getStructuredPacketEP27Adafruit_Fingerprint_Packetj:00000144 .Loc.198
C:\Users\kenne\AppData\Local\Temp\ccnxErqW.s:865    .text._ZN20Adafruit_Fingerprint19getStructuredPacketEP27Adafruit_Fingerprint_Packetj:00000144 .Loc.199
C:\Users\kenne\AppData\Local\Temp\ccnxErqW.s:870    .text._ZN20Adafruit_Fingerprint19getStructuredPacketEP27Adafruit_Fingerprint_Packetj:0000014c .Loc.200
C:\Users\kenne\AppData\Local\Temp\ccnxErqW.s:880    .text._ZN20Adafruit_Fingerprint19getStructuredPacketEP27Adafruit_Fingerprint_Packetj:00000160 L0
C:\Users\kenne\AppData\Local\Temp\ccnxErqW.s:884    .text._ZN20Adafruit_Fingerprint19getStructuredPacketEP27Adafruit_Fingerprint_Packetj:00000168 L0
C:\Users\kenne\AppData\Local\Temp\ccnxErqW.s:886    .text._ZN20Adafruit_Fingerprint19getStructuredPacketEP27Adafruit_Fingerprint_Packetj:0000016c L0
C:\Users\kenne\AppData\Local\Temp\ccnxErqW.s:892    .text._ZN20Adafruit_Fingerprint19getStructuredPacketEP27Adafruit_Fingerprint_Packetj:00000176 .Loc.201
C:\Users\kenne\AppData\Local\Temp\ccnxErqW.s:893    .text._ZN20Adafruit_Fingerprint19getStructuredPacketEP27Adafruit_Fingerprint_Packetj:00000176 .Loc.202
C:\Users\kenne\AppData\Local\Temp\ccnxErqW.s:894    .text._ZN20Adafruit_Fingerprint19getStructuredPacketEP27Adafruit_Fingerprint_Packetj:00000176 .Loc.203
C:\Users\kenne\AppData\Local\Temp\ccnxErqW.s:895    .text._ZN20Adafruit_Fingerprint19getStructuredPacketEP27Adafruit_Fingerprint_Packetj:00000176 .Loc.204
C:\Users\kenne\AppData\Local\Temp\ccnxErqW.s:896    .text._ZN20Adafruit_Fingerprint19getStructuredPacketEP27Adafruit_Fingerprint_Packetj:00000176 .Loc.205
C:\Users\kenne\AppData\Local\Temp\ccnxErqW.s:897    .text._ZN20Adafruit_Fingerprint19getStructuredPacketEP27Adafruit_Fingerprint_Packetj:00000176 .Loc.206
C:\Users\kenne\AppData\Local\Temp\ccnxErqW.s:902    .text._ZN20Adafruit_Fingerprint19getStructuredPacketEP27Adafruit_Fingerprint_Packetj:0000017e .Loc.207
C:\Users\kenne\AppData\Local\Temp\ccnxErqW.s:903    .text._ZN20Adafruit_Fingerprint19getStructuredPacketEP27Adafruit_Fingerprint_Packetj:0000017e .Loc.208
C:\Users\kenne\AppData\Local\Temp\ccnxErqW.s:908    .text._ZN20Adafruit_Fingerprint19getStructuredPacketEP27Adafruit_Fingerprint_Packetj:00000186 .Loc.209
C:\Users\kenne\AppData\Local\Temp\ccnxErqW.s:909    .text._ZN20Adafruit_Fingerprint19getStructuredPacketEP27Adafruit_Fingerprint_Packetj:00000186 .Loc.210
C:\Users\kenne\AppData\Local\Temp\ccnxErqW.s:928    .text._ZN20Adafruit_Fingerprint19getStructuredPacketEP27Adafruit_Fingerprint_Packetj:000001aa .Loc.211
C:\Users\kenne\AppData\Local\Temp\ccnxErqW.s:929    .text._ZN20Adafruit_Fingerprint19getStructuredPacketEP27Adafruit_Fingerprint_Packetj:000001aa .Loc.212
C:\Users\kenne\AppData\Local\Temp\ccnxErqW.s:933    .text._ZN20Adafruit_Fingerprint19getStructuredPacketEP27Adafruit_Fingerprint_Packetj:000001b0 .Loc.213
C:\Users\kenne\AppData\Local\Temp\ccnxErqW.s:934    .text._ZN20Adafruit_Fingerprint19getStructuredPacketEP27Adafruit_Fingerprint_Packetj:000001b0 .Loc.214
C:\Users\kenne\AppData\Local\Temp\ccnxErqW.s:939    .text._ZN20Adafruit_Fingerprint19getStructuredPacketEP27Adafruit_Fingerprint_Packetj:000001b8 .Loc.215
C:\Users\kenne\AppData\Local\Temp\ccnxErqW.s:940    .text._ZN20Adafruit_Fingerprint19getStructuredPacketEP27Adafruit_Fingerprint_Packetj:000001b8 .Loc.216
C:\Users\kenne\AppData\Local\Temp\ccnxErqW.s:945    .text._ZN20Adafruit_Fingerprint19getStructuredPacketEP27Adafruit_Fingerprint_Packetj:000001c0 .Loc.217
C:\Users\kenne\AppData\Local\Temp\ccnxErqW.s:946    .text._ZN20Adafruit_Fingerprint19getStructuredPacketEP27Adafruit_Fingerprint_Packetj:000001c0 .Loc.218
C:\Users\kenne\AppData\Local\Temp\ccnxErqW.s:951    .text._ZN20Adafruit_Fingerprint19getStructuredPacketEP27Adafruit_Fingerprint_Packetj:000001c8 .Loc.219
C:\Users\kenne\AppData\Local\Temp\ccnxErqW.s:952    .text._ZN20Adafruit_Fingerprint19getStructuredPacketEP27Adafruit_Fingerprint_Packetj:000001c8 .Loc.220
C:\Users\kenne\AppData\Local\Temp\ccnxErqW.s:958    .text._ZN20Adafruit_Fingerprint19getStructuredPacketEP27Adafruit_Fingerprint_Packetj:000001d2 .Loc.221
C:\Users\kenne\AppData\Local\Temp\ccnxErqW.s:967    .text._ZN20Adafruit_Fingerprint19getStructuredPacketEP27Adafruit_Fingerprint_Packetj:000001e0 .Loc.222
C:\Users\kenne\AppData\Local\Temp\ccnxErqW.s:968    .text._ZN20Adafruit_Fingerprint19getStructuredPacketEP27Adafruit_Fingerprint_Packetj:000001e0 .Loc.223
C:\Users\kenne\AppData\Local\Temp\ccnxErqW.s:969    .text._ZN20Adafruit_Fingerprint19getStructuredPacketEP27Adafruit_Fingerprint_Packetj:000001e0 .Loc.224
C:\Users\kenne\AppData\Local\Temp\ccnxErqW.s:971    .text._ZN20Adafruit_Fingerprint19getStructuredPacketEP27Adafruit_Fingerprint_Packetj:000001e2 .Loc.225
C:\Users\kenne\AppData\Local\Temp\ccnxErqW.s:975    .text._ZN20Adafruit_Fingerprint19getStructuredPacketEP27Adafruit_Fingerprint_Packetj:000001e8 .Loc.226
C:\Users\kenne\AppData\Local\Temp\ccnxErqW.s:978    .text._ZN20Adafruit_Fingerprint19getStructuredPacketEP27Adafruit_Fingerprint_Packetj:000001ea .Loc.227
C:\Users\kenne\AppData\Local\Temp\ccnxErqW.s:979    .text._ZN20Adafruit_Fingerprint19getStructuredPacketEP27Adafruit_Fingerprint_Packetj:000001ea .Loc.228
C:\Users\kenne\AppData\Local\Temp\ccnxErqW.s:980    .text._ZN20Adafruit_Fingerprint19getStructuredPacketEP27Adafruit_Fingerprint_Packetj:000001ea .Loc.229
C:\Users\kenne\AppData\Local\Temp\ccnxErqW.s:983    .text._ZN20Adafruit_Fingerprint19getStructuredPacketEP27Adafruit_Fingerprint_Packetj:000001ee .Loc.230
C:\Users\kenne\AppData\Local\Temp\ccnxErqW.s:988    .text._ZN20Adafruit_Fingerprint19getStructuredPacketEP27Adafruit_Fingerprint_Packetj:000001f6 .Loc.231
C:\Users\kenne\AppData\Local\Temp\ccnxErqW.s:989    .text._ZN20Adafruit_Fingerprint19getStructuredPacketEP27Adafruit_Fingerprint_Packetj:000001f6 .Loc.232
C:\Users\kenne\AppData\Local\Temp\ccnxErqW.s:993    .text._ZN20Adafruit_Fingerprint19getStructuredPacketEP27Adafruit_Fingerprint_Packetj:000001fc .Loc.233
C:\Users\kenne\AppData\Local\Temp\ccnxErqW.s:998    .text._ZN20Adafruit_Fingerprint19getStructuredPacketEP27Adafruit_Fingerprint_Packetj:00000206 L0
C:\Users\kenne\AppData\Local\Temp\ccnxErqW.s:1000   .text._ZN20Adafruit_Fingerprint19getStructuredPacketEP27Adafruit_Fingerprint_Packetj:00000208 .Loc.234
C:\Users\kenne\AppData\Local\Temp\ccnxErqW.s:1001   .text._ZN20Adafruit_Fingerprint19getStructuredPacketEP27Adafruit_Fingerprint_Packetj:00000208 .Loc.235
C:\Users\kenne\AppData\Local\Temp\ccnxErqW.s:1006   .text._ZN20Adafruit_Fingerprint19getStructuredPacketEP27Adafruit_Fingerprint_Packetj:00000210 .Loc.236
C:\Users\kenne\AppData\Local\Temp\ccnxErqW.s:1007   .text._ZN20Adafruit_Fingerprint19getStructuredPacketEP27Adafruit_Fingerprint_Packetj:00000210 .Loc.237
C:\Users\kenne\AppData\Local\Temp\ccnxErqW.s:1012   .text._ZN20Adafruit_Fingerprint19getStructuredPacketEP27Adafruit_Fingerprint_Packetj:00000214 .Loc.238
C:\Users\kenne\AppData\Local\Temp\ccnxErqW.s:1013   .text._ZN20Adafruit_Fingerprint19getStructuredPacketEP27Adafruit_Fingerprint_Packetj:00000214 .Loc.239
C:\Users\kenne\AppData\Local\Temp\ccnxErqW.s:1017   .text._ZN20Adafruit_Fingerprint19getStructuredPacketEP27Adafruit_Fingerprint_Packetj:00000218 .Loc.240
C:\Users\kenne\AppData\Local\Temp\ccnxErqW.s:1020   .text._ZN20Adafruit_Fingerprint19getStructuredPacketEP27Adafruit_Fingerprint_Packetj:0000021c .Loc.241
C:\Users\kenne\AppData\Local\Temp\ccnxErqW.s:1021   .text._ZN20Adafruit_Fingerprint19getStructuredPacketEP27Adafruit_Fingerprint_Packetj:0000021c .Loc.242
C:\Users\kenne\AppData\Local\Temp\ccnxErqW.s:1024   .text._ZN20Adafruit_Fingerprint19getStructuredPacketEP27Adafruit_Fingerprint_Packetj:00000220 L0
C:\Users\kenne\AppData\Local\Temp\ccnxErqW.s:1030   .text._ZN20Adafruit_Fingerprint13checkPasswordEv:00000000 _ZN20Adafruit_Fingerprint13checkPasswordEv
C:\Users\kenne\AppData\Local\Temp\ccnxErqW.s:1033   .text._ZN20Adafruit_Fingerprint13checkPasswordEv:00000000 .Loc.243
C:\Users\kenne\AppData\Local\Temp\ccnxErqW.s:1034   .text._ZN20Adafruit_Fingerprint13checkPasswordEv:00000000 L0
C:\Users\kenne\AppData\Local\Temp\ccnxErqW.s:1035   .text._ZN20Adafruit_Fingerprint13checkPasswordEv:00000000 .Loc.244
GAS LISTING C:\Users\kenne\AppData\Local\Temp\ccnxErqW.s 			page 108


C:\Users\kenne\AppData\Local\Temp\ccnxErqW.s:1065   .text._ZN20Adafruit_Fingerprint13checkPasswordEv:0000001e .Loc.245
C:\Users\kenne\AppData\Local\Temp\ccnxErqW.s:1071   .text._ZN20Adafruit_Fingerprint13checkPasswordEv:00000026 .Loc.246
C:\Users\kenne\AppData\Local\Temp\ccnxErqW.s:1088   .text._ZN20Adafruit_Fingerprint13checkPasswordEv:00000044 .Loc.247
C:\Users\kenne\AppData\Local\Temp\ccnxErqW.s:1096   .text._ZN20Adafruit_Fingerprint13checkPasswordEv:00000052 .Loc.248
C:\Users\kenne\AppData\Local\Temp\ccnxErqW.s:1103   .text._ZN20Adafruit_Fingerprint13checkPasswordEv:0000005e .Loc.249
C:\Users\kenne\AppData\Local\Temp\ccnxErqW.s:1114   .text._ZN20Adafruit_Fingerprint13checkPasswordEv:00000072 .Loc.250
C:\Users\kenne\AppData\Local\Temp\ccnxErqW.s:1118   .text._ZN20Adafruit_Fingerprint13checkPasswordEv:00000078 .Loc.251
C:\Users\kenne\AppData\Local\Temp\ccnxErqW.s:1119   .text._ZN20Adafruit_Fingerprint13checkPasswordEv:00000078 .Loc.252
C:\Users\kenne\AppData\Local\Temp\ccnxErqW.s:1120   .text._ZN20Adafruit_Fingerprint13checkPasswordEv:00000078 .Loc.253
C:\Users\kenne\AppData\Local\Temp\ccnxErqW.s:1122   .text._ZN20Adafruit_Fingerprint13checkPasswordEv:0000007a .Loc.254
C:\Users\kenne\AppData\Local\Temp\ccnxErqW.s:1125   .text._ZN20Adafruit_Fingerprint13checkPasswordEv:0000007e .Loc.255
C:\Users\kenne\AppData\Local\Temp\ccnxErqW.s:1129   .text._ZN20Adafruit_Fingerprint13checkPasswordEv:00000082 .Loc.256
C:\Users\kenne\AppData\Local\Temp\ccnxErqW.s:1133   .text._ZN20Adafruit_Fingerprint13checkPasswordEv:00000084 .Loc.257
C:\Users\kenne\AppData\Local\Temp\ccnxErqW.s:1147   .text._ZN20Adafruit_Fingerprint13checkPasswordEv:0000009c .Loc.258
C:\Users\kenne\AppData\Local\Temp\ccnxErqW.s:1150   .text._ZN20Adafruit_Fingerprint13checkPasswordEv:000000a0 L0
C:\Users\kenne\AppData\Local\Temp\ccnxErqW.s:1156   .text._ZN20Adafruit_Fingerprint14verifyPasswordEv:00000000 _ZN20Adafruit_Fingerprint14verifyPasswordEv
C:\Users\kenne\AppData\Local\Temp\ccnxErqW.s:1159   .text._ZN20Adafruit_Fingerprint14verifyPasswordEv:00000000 .Loc.259
C:\Users\kenne\AppData\Local\Temp\ccnxErqW.s:1160   .text._ZN20Adafruit_Fingerprint14verifyPasswordEv:00000000 L0
C:\Users\kenne\AppData\Local\Temp\ccnxErqW.s:1165   .text._ZN20Adafruit_Fingerprint14verifyPasswordEv:00000000 .Loc.260
C:\Users\kenne\AppData\Local\Temp\ccnxErqW.s:1166   .text._ZN20Adafruit_Fingerprint14verifyPasswordEv:00000000 .Loc.261
C:\Users\kenne\AppData\Local\Temp\ccnxErqW.s:1169   .text._ZN20Adafruit_Fingerprint14verifyPasswordEv:00000004 .Loc.262
C:\Users\kenne\AppData\Local\Temp\ccnxErqW.s:1171   .text._ZN20Adafruit_Fingerprint14verifyPasswordEv:00000006 .Loc.263
C:\Users\kenne\AppData\Local\Temp\ccnxErqW.s:1177   .text._ZN20Adafruit_Fingerprint14verifyPasswordEv:0000000c .Loc.264
C:\Users\kenne\AppData\Local\Temp\ccnxErqW.s:1179   .text._ZN20Adafruit_Fingerprint14verifyPasswordEv:0000000e L0
C:\Users\kenne\AppData\Local\Temp\ccnxErqW.s:1185   .text._ZN20Adafruit_Fingerprint13getParametersEv:00000000 _ZN20Adafruit_Fingerprint13getParametersEv
C:\Users\kenne\AppData\Local\Temp\ccnxErqW.s:1188   .text._ZN20Adafruit_Fingerprint13getParametersEv:00000000 .Loc.265
C:\Users\kenne\AppData\Local\Temp\ccnxErqW.s:1189   .text._ZN20Adafruit_Fingerprint13getParametersEv:00000000 L0
C:\Users\kenne\AppData\Local\Temp\ccnxErqW.s:1190   .text._ZN20Adafruit_Fingerprint13getParametersEv:00000000 .Loc.266
C:\Users\kenne\AppData\Local\Temp\ccnxErqW.s:1220   .text._ZN20Adafruit_Fingerprint13getParametersEv:0000001e .Loc.267
C:\Users\kenne\AppData\Local\Temp\ccnxErqW.s:1223   .text._ZN20Adafruit_Fingerprint13getParametersEv:00000020 .Loc.268
C:\Users\kenne\AppData\Local\Temp\ccnxErqW.s:1225   .text._ZN20Adafruit_Fingerprint13getParametersEv:00000022 .Loc.269
C:\Users\kenne\AppData\Local\Temp\ccnxErqW.s:1236   .text._ZN20Adafruit_Fingerprint13getParametersEv:00000036 .Loc.270
C:\Users\kenne\AppData\Local\Temp\ccnxErqW.s:1243   .text._ZN20Adafruit_Fingerprint13getParametersEv:00000042 .Loc.271
C:\Users\kenne\AppData\Local\Temp\ccnxErqW.s:1254   .text._ZN20Adafruit_Fingerprint13getParametersEv:00000056 .Loc.272
C:\Users\kenne\AppData\Local\Temp\ccnxErqW.s:1257   .text._ZN20Adafruit_Fingerprint13getParametersEv:0000005c L0
C:\Users\kenne\AppData\Local\Temp\ccnxErqW.s:1259   .text._ZN20Adafruit_Fingerprint13getParametersEv:0000005e .Loc.273
C:\Users\kenne\AppData\Local\Temp\ccnxErqW.s:1260   .text._ZN20Adafruit_Fingerprint13getParametersEv:0000005e .Loc.274
C:\Users\kenne\AppData\Local\Temp\ccnxErqW.s:1261   .text._ZN20Adafruit_Fingerprint13getParametersEv:0000005e .Loc.275
C:\Users\kenne\AppData\Local\Temp\ccnxErqW.s:1263   .text._ZN20Adafruit_Fingerprint13getParametersEv:00000060 .Loc.276
C:\Users\kenne\AppData\Local\Temp\ccnxErqW.s:1265   .text._ZN20Adafruit_Fingerprint13getParametersEv:00000062 .Loc.277
C:\Users\kenne\AppData\Local\Temp\ccnxErqW.s:1269   .text._ZN20Adafruit_Fingerprint13getParametersEv:00000068 .Loc.278
C:\Users\kenne\AppData\Local\Temp\ccnxErqW.s:1270   .text._ZN20Adafruit_Fingerprint13getParametersEv:00000068 .Loc.279
C:\Users\kenne\AppData\Local\Temp\ccnxErqW.s:1272   .text._ZN20Adafruit_Fingerprint13getParametersEv:0000006a .Loc.280
C:\Users\kenne\AppData\Local\Temp\ccnxErqW.s:1274   .text._ZN20Adafruit_Fingerprint13getParametersEv:0000006c .Loc.281
C:\Users\kenne\AppData\Local\Temp\ccnxErqW.s:1277   .text._ZN20Adafruit_Fingerprint13getParametersEv:00000070 .Loc.282
C:\Users\kenne\AppData\Local\Temp\ccnxErqW.s:1278   .text._ZN20Adafruit_Fingerprint13getParametersEv:00000070 .Loc.283
C:\Users\kenne\AppData\Local\Temp\ccnxErqW.s:1280   .text._ZN20Adafruit_Fingerprint13getParametersEv:00000072 .Loc.284
C:\Users\kenne\AppData\Local\Temp\ccnxErqW.s:1282   .text._ZN20Adafruit_Fingerprint13getParametersEv:00000074 .Loc.285
C:\Users\kenne\AppData\Local\Temp\ccnxErqW.s:1285   .text._ZN20Adafruit_Fingerprint13getParametersEv:00000078 .Loc.286
C:\Users\kenne\AppData\Local\Temp\ccnxErqW.s:1286   .text._ZN20Adafruit_Fingerprint13getParametersEv:00000078 .Loc.287
C:\Users\kenne\AppData\Local\Temp\ccnxErqW.s:1288   .text._ZN20Adafruit_Fingerprint13getParametersEv:0000007a .Loc.288
C:\Users\kenne\AppData\Local\Temp\ccnxErqW.s:1290   .text._ZN20Adafruit_Fingerprint13getParametersEv:0000007c .Loc.289
C:\Users\kenne\AppData\Local\Temp\ccnxErqW.s:1293   .text._ZN20Adafruit_Fingerprint13getParametersEv:00000080 .Loc.290
C:\Users\kenne\AppData\Local\Temp\ccnxErqW.s:1294   .text._ZN20Adafruit_Fingerprint13getParametersEv:00000080 .Loc.291
C:\Users\kenne\AppData\Local\Temp\ccnxErqW.s:1296   .text._ZN20Adafruit_Fingerprint13getParametersEv:00000082 .Loc.292
C:\Users\kenne\AppData\Local\Temp\ccnxErqW.s:1300   .text._ZN20Adafruit_Fingerprint13getParametersEv:00000088 .Loc.293
C:\Users\kenne\AppData\Local\Temp\ccnxErqW.s:1305   .text._ZN20Adafruit_Fingerprint13getParametersEv:00000090 .Loc.294
GAS LISTING C:\Users\kenne\AppData\Local\Temp\ccnxErqW.s 			page 109


C:\Users\kenne\AppData\Local\Temp\ccnxErqW.s:1307   .text._ZN20Adafruit_Fingerprint13getParametersEv:00000092 .Loc.295
C:\Users\kenne\AppData\Local\Temp\ccnxErqW.s:1311   .text._ZN20Adafruit_Fingerprint13getParametersEv:00000098 .Loc.296
C:\Users\kenne\AppData\Local\Temp\ccnxErqW.s:1315   .text._ZN20Adafruit_Fingerprint13getParametersEv:0000009e .Loc.297
C:\Users\kenne\AppData\Local\Temp\ccnxErqW.s:1320   .text._ZN20Adafruit_Fingerprint13getParametersEv:000000a6 .Loc.298
C:\Users\kenne\AppData\Local\Temp\ccnxErqW.s:1322   .text._ZN20Adafruit_Fingerprint13getParametersEv:000000a8 .Loc.299
C:\Users\kenne\AppData\Local\Temp\ccnxErqW.s:1326   .text._ZN20Adafruit_Fingerprint13getParametersEv:000000ae .Loc.300
C:\Users\kenne\AppData\Local\Temp\ccnxErqW.s:1331   .text._ZN20Adafruit_Fingerprint13getParametersEv:000000b6 .Loc.301
C:\Users\kenne\AppData\Local\Temp\ccnxErqW.s:1336   .text._ZN20Adafruit_Fingerprint13getParametersEv:000000be .Loc.302
C:\Users\kenne\AppData\Local\Temp\ccnxErqW.s:1338   .text._ZN20Adafruit_Fingerprint13getParametersEv:000000c0 .Loc.303
C:\Users\kenne\AppData\Local\Temp\ccnxErqW.s:1340   .text._ZN20Adafruit_Fingerprint13getParametersEv:000000c2 .Loc.304
C:\Users\kenne\AppData\Local\Temp\ccnxErqW.s:1345   .text._ZN20Adafruit_Fingerprint13getParametersEv:000000ca .Loc.305
C:\Users\kenne\AppData\Local\Temp\ccnxErqW.s:1346   .text._ZN20Adafruit_Fingerprint13getParametersEv:000000ca .Loc.306
C:\Users\kenne\AppData\Local\Temp\ccnxErqW.s:1348   .text._ZN20Adafruit_Fingerprint13getParametersEv:000000cc .Loc.307
C:\Users\kenne\AppData\Local\Temp\ccnxErqW.s:1350   .text._ZN20Adafruit_Fingerprint13getParametersEv:000000ce .Loc.308
C:\Users\kenne\AppData\Local\Temp\ccnxErqW.s:1353   .text._ZN20Adafruit_Fingerprint13getParametersEv:000000d2 .Loc.309
C:\Users\kenne\AppData\Local\Temp\ccnxErqW.s:1356   .text._ZN20Adafruit_Fingerprint13getParametersEv:000000d6 .Loc.310
C:\Users\kenne\AppData\Local\Temp\ccnxErqW.s:1357   .text._ZN20Adafruit_Fingerprint13getParametersEv:000000d6 .Loc.311
C:\Users\kenne\AppData\Local\Temp\ccnxErqW.s:1363   .text._ZN20Adafruit_Fingerprint13getParametersEv:000000de .Loc.312
C:\Users\kenne\AppData\Local\Temp\ccnxErqW.s:1364   .text._ZN20Adafruit_Fingerprint13getParametersEv:000000de .Loc.313
C:\Users\kenne\AppData\Local\Temp\ccnxErqW.s:1366   .text._ZN20Adafruit_Fingerprint13getParametersEv:000000e0 .Loc.314
C:\Users\kenne\AppData\Local\Temp\ccnxErqW.s:1368   .text._ZN20Adafruit_Fingerprint13getParametersEv:000000e2 .Loc.315
C:\Users\kenne\AppData\Local\Temp\ccnxErqW.s:1378   .text._ZN20Adafruit_Fingerprint13getParametersEv:000000f4 .Loc.316
C:\Users\kenne\AppData\Local\Temp\ccnxErqW.s:1382   .text._ZN20Adafruit_Fingerprint13getParametersEv:000000fa .Loc.317
C:\Users\kenne\AppData\Local\Temp\ccnxErqW.s:1383   .text._ZN20Adafruit_Fingerprint13getParametersEv:000000fa .Loc.318
C:\Users\kenne\AppData\Local\Temp\ccnxErqW.s:1387   .text._ZN20Adafruit_Fingerprint13getParametersEv:000000fe .Loc.319
C:\Users\kenne\AppData\Local\Temp\ccnxErqW.s:1391   .text._ZN20Adafruit_Fingerprint13getParametersEv:00000104 .Loc.320
C:\Users\kenne\AppData\Local\Temp\ccnxErqW.s:1395   .text._ZN20Adafruit_Fingerprint13getParametersEv:0000010a .Loc.321
C:\Users\kenne\AppData\Local\Temp\ccnxErqW.s:1398   .text._ZN20Adafruit_Fingerprint13getParametersEv:0000010e .Loc.322
C:\Users\kenne\AppData\Local\Temp\ccnxErqW.s:1399   .text._ZN20Adafruit_Fingerprint13getParametersEv:0000010e .Loc.323
C:\Users\kenne\AppData\Local\Temp\ccnxErqW.s:1407   .text._ZN20Adafruit_Fingerprint13getParametersEv:0000011a .Loc.324
C:\Users\kenne\AppData\Local\Temp\ccnxErqW.s:1408   .text._ZN20Adafruit_Fingerprint13getParametersEv:0000011a .Loc.325
C:\Users\kenne\AppData\Local\Temp\ccnxErqW.s:1416   .text._ZN20Adafruit_Fingerprint13getParametersEv:00000126 .Loc.326
C:\Users\kenne\AppData\Local\Temp\ccnxErqW.s:1417   .text._ZN20Adafruit_Fingerprint13getParametersEv:00000126 .Loc.327
C:\Users\kenne\AppData\Local\Temp\ccnxErqW.s:1425   .text._ZN20Adafruit_Fingerprint13getParametersEv:00000132 .Loc.328
C:\Users\kenne\AppData\Local\Temp\ccnxErqW.s:1429   .text._ZN20Adafruit_Fingerprint13getParametersEv:00000134 .Loc.329
C:\Users\kenne\AppData\Local\Temp\ccnxErqW.s:1443   .text._ZN20Adafruit_Fingerprint13getParametersEv:0000014c .Loc.330
C:\Users\kenne\AppData\Local\Temp\ccnxErqW.s:1446   .text._ZN20Adafruit_Fingerprint13getParametersEv:00000150 L0
C:\Users\kenne\AppData\Local\Temp\ccnxErqW.s:1452   .text._ZN20Adafruit_Fingerprint8getImageEv:00000000 _ZN20Adafruit_Fingerprint8getImageEv
C:\Users\kenne\AppData\Local\Temp\ccnxErqW.s:1455   .text._ZN20Adafruit_Fingerprint8getImageEv:00000000 .Loc.331
C:\Users\kenne\AppData\Local\Temp\ccnxErqW.s:1456   .text._ZN20Adafruit_Fingerprint8getImageEv:00000000 L0
C:\Users\kenne\AppData\Local\Temp\ccnxErqW.s:1457   .text._ZN20Adafruit_Fingerprint8getImageEv:00000000 .Loc.332
C:\Users\kenne\AppData\Local\Temp\ccnxErqW.s:1487   .text._ZN20Adafruit_Fingerprint8getImageEv:0000001e .Loc.333
C:\Users\kenne\AppData\Local\Temp\ccnxErqW.s:1490   .text._ZN20Adafruit_Fingerprint8getImageEv:00000020 .Loc.334
C:\Users\kenne\AppData\Local\Temp\ccnxErqW.s:1492   .text._ZN20Adafruit_Fingerprint8getImageEv:00000022 .Loc.335
C:\Users\kenne\AppData\Local\Temp\ccnxErqW.s:1503   .text._ZN20Adafruit_Fingerprint8getImageEv:00000036 .Loc.336
C:\Users\kenne\AppData\Local\Temp\ccnxErqW.s:1511   .text._ZN20Adafruit_Fingerprint8getImageEv:00000044 .Loc.337
C:\Users\kenne\AppData\Local\Temp\ccnxErqW.s:1523   .text._ZN20Adafruit_Fingerprint8getImageEv:0000005a .Loc.338
C:\Users\kenne\AppData\Local\Temp\ccnxErqW.s:1527   .text._ZN20Adafruit_Fingerprint8getImageEv:00000060 .Loc.339
C:\Users\kenne\AppData\Local\Temp\ccnxErqW.s:1528   .text._ZN20Adafruit_Fingerprint8getImageEv:00000060 .Loc.340
C:\Users\kenne\AppData\Local\Temp\ccnxErqW.s:1532   .text._ZN20Adafruit_Fingerprint8getImageEv:00000064 .Loc.341
C:\Users\kenne\AppData\Local\Temp\ccnxErqW.s:1536   .text._ZN20Adafruit_Fingerprint8getImageEv:00000066 .Loc.342
C:\Users\kenne\AppData\Local\Temp\ccnxErqW.s:1550   .text._ZN20Adafruit_Fingerprint8getImageEv:0000007e .Loc.343
C:\Users\kenne\AppData\Local\Temp\ccnxErqW.s:1552   .text._ZN20Adafruit_Fingerprint8getImageEv:00000080 .Loc.344
C:\Users\kenne\AppData\Local\Temp\ccnxErqW.s:1554   .text._ZN20Adafruit_Fingerprint8getImageEv:00000082 L0
C:\Users\kenne\AppData\Local\Temp\ccnxErqW.s:1560   .text._ZN20Adafruit_Fingerprint8image2TzEh:00000000 _ZN20Adafruit_Fingerprint8image2TzEh
C:\Users\kenne\AppData\Local\Temp\ccnxErqW.s:1563   .text._ZN20Adafruit_Fingerprint8image2TzEh:00000000 .Loc.345
C:\Users\kenne\AppData\Local\Temp\ccnxErqW.s:1564   .text._ZN20Adafruit_Fingerprint8image2TzEh:00000000 L0
GAS LISTING C:\Users\kenne\AppData\Local\Temp\ccnxErqW.s 			page 110


C:\Users\kenne\AppData\Local\Temp\ccnxErqW.s:1565   .text._ZN20Adafruit_Fingerprint8image2TzEh:00000000 .Loc.346
C:\Users\kenne\AppData\Local\Temp\ccnxErqW.s:1595   .text._ZN20Adafruit_Fingerprint8image2TzEh:0000001e .Loc.347
C:\Users\kenne\AppData\Local\Temp\ccnxErqW.s:1600   .text._ZN20Adafruit_Fingerprint8image2TzEh:00000024 .Loc.348
C:\Users\kenne\AppData\Local\Temp\ccnxErqW.s:1603   .text._ZN20Adafruit_Fingerprint8image2TzEh:00000028 .Loc.349
C:\Users\kenne\AppData\Local\Temp\ccnxErqW.s:1611   .text._ZN20Adafruit_Fingerprint8image2TzEh:00000034 .Loc.350
C:\Users\kenne\AppData\Local\Temp\ccnxErqW.s:1616   .text._ZN20Adafruit_Fingerprint8image2TzEh:0000003c .Loc.351
C:\Users\kenne\AppData\Local\Temp\ccnxErqW.s:1624   .text._ZN20Adafruit_Fingerprint8image2TzEh:0000004a .Loc.352
C:\Users\kenne\AppData\Local\Temp\ccnxErqW.s:1636   .text._ZN20Adafruit_Fingerprint8image2TzEh:00000060 .Loc.353
C:\Users\kenne\AppData\Local\Temp\ccnxErqW.s:1640   .text._ZN20Adafruit_Fingerprint8image2TzEh:00000066 .Loc.354
C:\Users\kenne\AppData\Local\Temp\ccnxErqW.s:1641   .text._ZN20Adafruit_Fingerprint8image2TzEh:00000066 .Loc.355
C:\Users\kenne\AppData\Local\Temp\ccnxErqW.s:1645   .text._ZN20Adafruit_Fingerprint8image2TzEh:0000006a .Loc.356
C:\Users\kenne\AppData\Local\Temp\ccnxErqW.s:1649   .text._ZN20Adafruit_Fingerprint8image2TzEh:0000006c .Loc.357
C:\Users\kenne\AppData\Local\Temp\ccnxErqW.s:1663   .text._ZN20Adafruit_Fingerprint8image2TzEh:00000084 .Loc.358
C:\Users\kenne\AppData\Local\Temp\ccnxErqW.s:1665   .text._ZN20Adafruit_Fingerprint8image2TzEh:00000086 .Loc.359
C:\Users\kenne\AppData\Local\Temp\ccnxErqW.s:1667   .text._ZN20Adafruit_Fingerprint8image2TzEh:00000088 L0
C:\Users\kenne\AppData\Local\Temp\ccnxErqW.s:1673   .text._ZN20Adafruit_Fingerprint11createModelEv:00000000 _ZN20Adafruit_Fingerprint11createModelEv
C:\Users\kenne\AppData\Local\Temp\ccnxErqW.s:1676   .text._ZN20Adafruit_Fingerprint11createModelEv:00000000 .Loc.360
C:\Users\kenne\AppData\Local\Temp\ccnxErqW.s:1677   .text._ZN20Adafruit_Fingerprint11createModelEv:00000000 L0
C:\Users\kenne\AppData\Local\Temp\ccnxErqW.s:1678   .text._ZN20Adafruit_Fingerprint11createModelEv:00000000 .Loc.361
C:\Users\kenne\AppData\Local\Temp\ccnxErqW.s:1708   .text._ZN20Adafruit_Fingerprint11createModelEv:0000001e .Loc.362
C:\Users\kenne\AppData\Local\Temp\ccnxErqW.s:1711   .text._ZN20Adafruit_Fingerprint11createModelEv:00000020 .Loc.363
C:\Users\kenne\AppData\Local\Temp\ccnxErqW.s:1713   .text._ZN20Adafruit_Fingerprint11createModelEv:00000022 .Loc.364
C:\Users\kenne\AppData\Local\Temp\ccnxErqW.s:1724   .text._ZN20Adafruit_Fingerprint11createModelEv:00000036 .Loc.365
C:\Users\kenne\AppData\Local\Temp\ccnxErqW.s:1732   .text._ZN20Adafruit_Fingerprint11createModelEv:00000044 .Loc.366
C:\Users\kenne\AppData\Local\Temp\ccnxErqW.s:1744   .text._ZN20Adafruit_Fingerprint11createModelEv:0000005a .Loc.367
C:\Users\kenne\AppData\Local\Temp\ccnxErqW.s:1748   .text._ZN20Adafruit_Fingerprint11createModelEv:00000060 .Loc.368
C:\Users\kenne\AppData\Local\Temp\ccnxErqW.s:1749   .text._ZN20Adafruit_Fingerprint11createModelEv:00000060 .Loc.369
C:\Users\kenne\AppData\Local\Temp\ccnxErqW.s:1753   .text._ZN20Adafruit_Fingerprint11createModelEv:00000064 .Loc.370
C:\Users\kenne\AppData\Local\Temp\ccnxErqW.s:1757   .text._ZN20Adafruit_Fingerprint11createModelEv:00000066 .Loc.371
C:\Users\kenne\AppData\Local\Temp\ccnxErqW.s:1771   .text._ZN20Adafruit_Fingerprint11createModelEv:0000007e .Loc.372
C:\Users\kenne\AppData\Local\Temp\ccnxErqW.s:1773   .text._ZN20Adafruit_Fingerprint11createModelEv:00000080 .Loc.373
C:\Users\kenne\AppData\Local\Temp\ccnxErqW.s:1775   .text._ZN20Adafruit_Fingerprint11createModelEv:00000082 L0
C:\Users\kenne\AppData\Local\Temp\ccnxErqW.s:1781   .text._ZN20Adafruit_Fingerprint10storeModelEj:00000000 _ZN20Adafruit_Fingerprint10storeModelEj
C:\Users\kenne\AppData\Local\Temp\ccnxErqW.s:1784   .text._ZN20Adafruit_Fingerprint10storeModelEj:00000000 .Loc.374
C:\Users\kenne\AppData\Local\Temp\ccnxErqW.s:1785   .text._ZN20Adafruit_Fingerprint10storeModelEj:00000000 L0
C:\Users\kenne\AppData\Local\Temp\ccnxErqW.s:1786   .text._ZN20Adafruit_Fingerprint10storeModelEj:00000000 .Loc.375
C:\Users\kenne\AppData\Local\Temp\ccnxErqW.s:1816   .text._ZN20Adafruit_Fingerprint10storeModelEj:0000001e .Loc.376
C:\Users\kenne\AppData\Local\Temp\ccnxErqW.s:1823   .text._ZN20Adafruit_Fingerprint10storeModelEj:00000028 .Loc.377
C:\Users\kenne\AppData\Local\Temp\ccnxErqW.s:1829   .text._ZN20Adafruit_Fingerprint10storeModelEj:00000032 .Loc.378
C:\Users\kenne\AppData\Local\Temp\ccnxErqW.s:1837   .text._ZN20Adafruit_Fingerprint10storeModelEj:0000003e .Loc.379
C:\Users\kenne\AppData\Local\Temp\ccnxErqW.s:1842   .text._ZN20Adafruit_Fingerprint10storeModelEj:00000046 .Loc.380
C:\Users\kenne\AppData\Local\Temp\ccnxErqW.s:1850   .text._ZN20Adafruit_Fingerprint10storeModelEj:00000054 .Loc.381
C:\Users\kenne\AppData\Local\Temp\ccnxErqW.s:1862   .text._ZN20Adafruit_Fingerprint10storeModelEj:0000006a .Loc.382
C:\Users\kenne\AppData\Local\Temp\ccnxErqW.s:1866   .text._ZN20Adafruit_Fingerprint10storeModelEj:00000070 .Loc.383
C:\Users\kenne\AppData\Local\Temp\ccnxErqW.s:1867   .text._ZN20Adafruit_Fingerprint10storeModelEj:00000070 .Loc.384
C:\Users\kenne\AppData\Local\Temp\ccnxErqW.s:1871   .text._ZN20Adafruit_Fingerprint10storeModelEj:00000074 .Loc.385
C:\Users\kenne\AppData\Local\Temp\ccnxErqW.s:1875   .text._ZN20Adafruit_Fingerprint10storeModelEj:00000076 .Loc.386
C:\Users\kenne\AppData\Local\Temp\ccnxErqW.s:1889   .text._ZN20Adafruit_Fingerprint10storeModelEj:0000008e .Loc.387
C:\Users\kenne\AppData\Local\Temp\ccnxErqW.s:1891   .text._ZN20Adafruit_Fingerprint10storeModelEj:00000090 .Loc.388
C:\Users\kenne\AppData\Local\Temp\ccnxErqW.s:1893   .text._ZN20Adafruit_Fingerprint10storeModelEj:00000092 L0
C:\Users\kenne\AppData\Local\Temp\ccnxErqW.s:1899   .text._ZN20Adafruit_Fingerprint9loadModelEj:00000000 _ZN20Adafruit_Fingerprint9loadModelEj
C:\Users\kenne\AppData\Local\Temp\ccnxErqW.s:1902   .text._ZN20Adafruit_Fingerprint9loadModelEj:00000000 .Loc.389
C:\Users\kenne\AppData\Local\Temp\ccnxErqW.s:1903   .text._ZN20Adafruit_Fingerprint9loadModelEj:00000000 L0
C:\Users\kenne\AppData\Local\Temp\ccnxErqW.s:1904   .text._ZN20Adafruit_Fingerprint9loadModelEj:00000000 .Loc.390
C:\Users\kenne\AppData\Local\Temp\ccnxErqW.s:1934   .text._ZN20Adafruit_Fingerprint9loadModelEj:0000001e .Loc.391
C:\Users\kenne\AppData\Local\Temp\ccnxErqW.s:1941   .text._ZN20Adafruit_Fingerprint9loadModelEj:00000028 .Loc.392
C:\Users\kenne\AppData\Local\Temp\ccnxErqW.s:1947   .text._ZN20Adafruit_Fingerprint9loadModelEj:00000032 .Loc.393
GAS LISTING C:\Users\kenne\AppData\Local\Temp\ccnxErqW.s 			page 111


C:\Users\kenne\AppData\Local\Temp\ccnxErqW.s:1955   .text._ZN20Adafruit_Fingerprint9loadModelEj:0000003e .Loc.394
C:\Users\kenne\AppData\Local\Temp\ccnxErqW.s:1960   .text._ZN20Adafruit_Fingerprint9loadModelEj:00000046 .Loc.395
C:\Users\kenne\AppData\Local\Temp\ccnxErqW.s:1968   .text._ZN20Adafruit_Fingerprint9loadModelEj:00000054 .Loc.396
C:\Users\kenne\AppData\Local\Temp\ccnxErqW.s:1980   .text._ZN20Adafruit_Fingerprint9loadModelEj:0000006a .Loc.397
C:\Users\kenne\AppData\Local\Temp\ccnxErqW.s:1984   .text._ZN20Adafruit_Fingerprint9loadModelEj:00000070 .Loc.398
C:\Users\kenne\AppData\Local\Temp\ccnxErqW.s:1985   .text._ZN20Adafruit_Fingerprint9loadModelEj:00000070 .Loc.399
C:\Users\kenne\AppData\Local\Temp\ccnxErqW.s:1989   .text._ZN20Adafruit_Fingerprint9loadModelEj:00000074 .Loc.400
C:\Users\kenne\AppData\Local\Temp\ccnxErqW.s:1993   .text._ZN20Adafruit_Fingerprint9loadModelEj:00000076 .Loc.401
C:\Users\kenne\AppData\Local\Temp\ccnxErqW.s:2007   .text._ZN20Adafruit_Fingerprint9loadModelEj:0000008e .Loc.402
C:\Users\kenne\AppData\Local\Temp\ccnxErqW.s:2009   .text._ZN20Adafruit_Fingerprint9loadModelEj:00000090 .Loc.403
C:\Users\kenne\AppData\Local\Temp\ccnxErqW.s:2011   .text._ZN20Adafruit_Fingerprint9loadModelEj:00000092 L0
C:\Users\kenne\AppData\Local\Temp\ccnxErqW.s:2017   .text._ZN20Adafruit_Fingerprint8getModelEv:00000000 _ZN20Adafruit_Fingerprint8getModelEv
C:\Users\kenne\AppData\Local\Temp\ccnxErqW.s:2020   .text._ZN20Adafruit_Fingerprint8getModelEv:00000000 .Loc.404
C:\Users\kenne\AppData\Local\Temp\ccnxErqW.s:2021   .text._ZN20Adafruit_Fingerprint8getModelEv:00000000 L0
C:\Users\kenne\AppData\Local\Temp\ccnxErqW.s:2022   .text._ZN20Adafruit_Fingerprint8getModelEv:00000000 .Loc.405
C:\Users\kenne\AppData\Local\Temp\ccnxErqW.s:2052   .text._ZN20Adafruit_Fingerprint8getModelEv:0000001e .Loc.406
C:\Users\kenne\AppData\Local\Temp\ccnxErqW.s:2056   .text._ZN20Adafruit_Fingerprint8getModelEv:00000022 .Loc.407
C:\Users\kenne\AppData\Local\Temp\ccnxErqW.s:2059   .text._ZN20Adafruit_Fingerprint8getModelEv:00000026 .Loc.408
C:\Users\kenne\AppData\Local\Temp\ccnxErqW.s:2070   .text._ZN20Adafruit_Fingerprint8getModelEv:0000003a .Loc.409
C:\Users\kenne\AppData\Local\Temp\ccnxErqW.s:2078   .text._ZN20Adafruit_Fingerprint8getModelEv:00000048 .Loc.410
C:\Users\kenne\AppData\Local\Temp\ccnxErqW.s:2090   .text._ZN20Adafruit_Fingerprint8getModelEv:0000005e .Loc.411
C:\Users\kenne\AppData\Local\Temp\ccnxErqW.s:2094   .text._ZN20Adafruit_Fingerprint8getModelEv:00000064 .Loc.412
C:\Users\kenne\AppData\Local\Temp\ccnxErqW.s:2095   .text._ZN20Adafruit_Fingerprint8getModelEv:00000064 .Loc.413
C:\Users\kenne\AppData\Local\Temp\ccnxErqW.s:2099   .text._ZN20Adafruit_Fingerprint8getModelEv:00000068 .Loc.414
C:\Users\kenne\AppData\Local\Temp\ccnxErqW.s:2103   .text._ZN20Adafruit_Fingerprint8getModelEv:0000006a .Loc.415
C:\Users\kenne\AppData\Local\Temp\ccnxErqW.s:2117   .text._ZN20Adafruit_Fingerprint8getModelEv:00000082 .Loc.416
C:\Users\kenne\AppData\Local\Temp\ccnxErqW.s:2119   .text._ZN20Adafruit_Fingerprint8getModelEv:00000084 .Loc.417
C:\Users\kenne\AppData\Local\Temp\ccnxErqW.s:2121   .text._ZN20Adafruit_Fingerprint8getModelEv:00000086 L0
C:\Users\kenne\AppData\Local\Temp\ccnxErqW.s:2127   .text._ZN20Adafruit_Fingerprint11deleteModelEj:00000000 _ZN20Adafruit_Fingerprint11deleteModelEj
C:\Users\kenne\AppData\Local\Temp\ccnxErqW.s:2130   .text._ZN20Adafruit_Fingerprint11deleteModelEj:00000000 .Loc.418
C:\Users\kenne\AppData\Local\Temp\ccnxErqW.s:2131   .text._ZN20Adafruit_Fingerprint11deleteModelEj:00000000 L0
C:\Users\kenne\AppData\Local\Temp\ccnxErqW.s:2132   .text._ZN20Adafruit_Fingerprint11deleteModelEj:00000000 .Loc.419
C:\Users\kenne\AppData\Local\Temp\ccnxErqW.s:2162   .text._ZN20Adafruit_Fingerprint11deleteModelEj:0000001e .Loc.420
C:\Users\kenne\AppData\Local\Temp\ccnxErqW.s:2168   .text._ZN20Adafruit_Fingerprint11deleteModelEj:00000026 .Loc.421
C:\Users\kenne\AppData\Local\Temp\ccnxErqW.s:2180   .text._ZN20Adafruit_Fingerprint11deleteModelEj:0000003a .Loc.422
C:\Users\kenne\AppData\Local\Temp\ccnxErqW.s:2185   .text._ZN20Adafruit_Fingerprint11deleteModelEj:00000040 .Loc.423
C:\Users\kenne\AppData\Local\Temp\ccnxErqW.s:2190   .text._ZN20Adafruit_Fingerprint11deleteModelEj:00000048 .Loc.424
C:\Users\kenne\AppData\Local\Temp\ccnxErqW.s:2198   .text._ZN20Adafruit_Fingerprint11deleteModelEj:00000056 .Loc.425
C:\Users\kenne\AppData\Local\Temp\ccnxErqW.s:2210   .text._ZN20Adafruit_Fingerprint11deleteModelEj:0000006c .Loc.426
C:\Users\kenne\AppData\Local\Temp\ccnxErqW.s:2214   .text._ZN20Adafruit_Fingerprint11deleteModelEj:00000072 .Loc.427
C:\Users\kenne\AppData\Local\Temp\ccnxErqW.s:2215   .text._ZN20Adafruit_Fingerprint11deleteModelEj:00000072 .Loc.428
C:\Users\kenne\AppData\Local\Temp\ccnxErqW.s:2219   .text._ZN20Adafruit_Fingerprint11deleteModelEj:00000076 .Loc.429
C:\Users\kenne\AppData\Local\Temp\ccnxErqW.s:2223   .text._ZN20Adafruit_Fingerprint11deleteModelEj:00000078 .Loc.430
C:\Users\kenne\AppData\Local\Temp\ccnxErqW.s:2237   .text._ZN20Adafruit_Fingerprint11deleteModelEj:00000090 .Loc.431
C:\Users\kenne\AppData\Local\Temp\ccnxErqW.s:2239   .text._ZN20Adafruit_Fingerprint11deleteModelEj:00000092 .Loc.432
C:\Users\kenne\AppData\Local\Temp\ccnxErqW.s:2241   .text._ZN20Adafruit_Fingerprint11deleteModelEj:00000094 L0
C:\Users\kenne\AppData\Local\Temp\ccnxErqW.s:2247   .text._ZN20Adafruit_Fingerprint13emptyDatabaseEv:00000000 _ZN20Adafruit_Fingerprint13emptyDatabaseEv
C:\Users\kenne\AppData\Local\Temp\ccnxErqW.s:2250   .text._ZN20Adafruit_Fingerprint13emptyDatabaseEv:00000000 .Loc.433
C:\Users\kenne\AppData\Local\Temp\ccnxErqW.s:2251   .text._ZN20Adafruit_Fingerprint13emptyDatabaseEv:00000000 L0
C:\Users\kenne\AppData\Local\Temp\ccnxErqW.s:2252   .text._ZN20Adafruit_Fingerprint13emptyDatabaseEv:00000000 .Loc.434
C:\Users\kenne\AppData\Local\Temp\ccnxErqW.s:2282   .text._ZN20Adafruit_Fingerprint13emptyDatabaseEv:0000001e .Loc.435
C:\Users\kenne\AppData\Local\Temp\ccnxErqW.s:2285   .text._ZN20Adafruit_Fingerprint13emptyDatabaseEv:00000020 .Loc.436
C:\Users\kenne\AppData\Local\Temp\ccnxErqW.s:2287   .text._ZN20Adafruit_Fingerprint13emptyDatabaseEv:00000022 .Loc.437
C:\Users\kenne\AppData\Local\Temp\ccnxErqW.s:2298   .text._ZN20Adafruit_Fingerprint13emptyDatabaseEv:00000036 .Loc.438
C:\Users\kenne\AppData\Local\Temp\ccnxErqW.s:2306   .text._ZN20Adafruit_Fingerprint13emptyDatabaseEv:00000044 .Loc.439
C:\Users\kenne\AppData\Local\Temp\ccnxErqW.s:2318   .text._ZN20Adafruit_Fingerprint13emptyDatabaseEv:0000005a .Loc.440
C:\Users\kenne\AppData\Local\Temp\ccnxErqW.s:2322   .text._ZN20Adafruit_Fingerprint13emptyDatabaseEv:00000060 .Loc.441
GAS LISTING C:\Users\kenne\AppData\Local\Temp\ccnxErqW.s 			page 112


C:\Users\kenne\AppData\Local\Temp\ccnxErqW.s:2323   .text._ZN20Adafruit_Fingerprint13emptyDatabaseEv:00000060 .Loc.442
C:\Users\kenne\AppData\Local\Temp\ccnxErqW.s:2327   .text._ZN20Adafruit_Fingerprint13emptyDatabaseEv:00000064 .Loc.443
C:\Users\kenne\AppData\Local\Temp\ccnxErqW.s:2331   .text._ZN20Adafruit_Fingerprint13emptyDatabaseEv:00000066 .Loc.444
C:\Users\kenne\AppData\Local\Temp\ccnxErqW.s:2345   .text._ZN20Adafruit_Fingerprint13emptyDatabaseEv:0000007e .Loc.445
C:\Users\kenne\AppData\Local\Temp\ccnxErqW.s:2347   .text._ZN20Adafruit_Fingerprint13emptyDatabaseEv:00000080 .Loc.446
C:\Users\kenne\AppData\Local\Temp\ccnxErqW.s:2349   .text._ZN20Adafruit_Fingerprint13emptyDatabaseEv:00000082 L0
C:\Users\kenne\AppData\Local\Temp\ccnxErqW.s:2361   .text._ZN20Adafruit_Fingerprint16fingerFastSearchEv:00000000 _ZN20Adafruit_Fingerprint16fingerFastSearchEv
C:\Users\kenne\AppData\Local\Temp\ccnxErqW.s:2364   .text._ZN20Adafruit_Fingerprint16fingerFastSearchEv:00000000 .Loc.447
C:\Users\kenne\AppData\Local\Temp\ccnxErqW.s:2365   .text._ZN20Adafruit_Fingerprint16fingerFastSearchEv:00000000 L0
C:\Users\kenne\AppData\Local\Temp\ccnxErqW.s:2366   .text._ZN20Adafruit_Fingerprint16fingerFastSearchEv:00000000 .Loc.448
C:\Users\kenne\AppData\Local\Temp\ccnxErqW.s:2396   .text._ZN20Adafruit_Fingerprint16fingerFastSearchEv:0000001e .Loc.449
C:\Users\kenne\AppData\Local\Temp\ccnxErqW.s:2399   .text._ZN20Adafruit_Fingerprint16fingerFastSearchEv:00000020 .Loc.450
C:\Users\kenne\AppData\Local\Temp\ccnxErqW.s:2409   .text._ZN20Adafruit_Fingerprint16fingerFastSearchEv:00000030 .Loc.451
C:\Users\kenne\AppData\Local\Temp\ccnxErqW.s:2420   .text._ZN20Adafruit_Fingerprint16fingerFastSearchEv:00000044 .Loc.452
C:\Users\kenne\AppData\Local\Temp\ccnxErqW.s:2427   .text._ZN20Adafruit_Fingerprint16fingerFastSearchEv:00000050 .Loc.453
C:\Users\kenne\AppData\Local\Temp\ccnxErqW.s:2438   .text._ZN20Adafruit_Fingerprint16fingerFastSearchEv:00000064 .Loc.454
C:\Users\kenne\AppData\Local\Temp\ccnxErqW.s:2442   .text._ZN20Adafruit_Fingerprint16fingerFastSearchEv:0000006a .Loc.455
C:\Users\kenne\AppData\Local\Temp\ccnxErqW.s:2443   .text._ZN20Adafruit_Fingerprint16fingerFastSearchEv:0000006a .Loc.456
C:\Users\kenne\AppData\Local\Temp\ccnxErqW.s:2444   .text._ZN20Adafruit_Fingerprint16fingerFastSearchEv:0000006a .Loc.457
C:\Users\kenne\AppData\Local\Temp\ccnxErqW.s:2450   .text._ZN20Adafruit_Fingerprint16fingerFastSearchEv:00000074 .Loc.458
C:\Users\kenne\AppData\Local\Temp\ccnxErqW.s:2451   .text._ZN20Adafruit_Fingerprint16fingerFastSearchEv:00000074 .Loc.459
C:\Users\kenne\AppData\Local\Temp\ccnxErqW.s:2454   .text._ZN20Adafruit_Fingerprint16fingerFastSearchEv:00000078 .Loc.460
C:\Users\kenne\AppData\Local\Temp\ccnxErqW.s:2455   .text._ZN20Adafruit_Fingerprint16fingerFastSearchEv:00000078 .Loc.461
C:\Users\kenne\AppData\Local\Temp\ccnxErqW.s:2458   .text._ZN20Adafruit_Fingerprint16fingerFastSearchEv:0000007c .Loc.462
C:\Users\kenne\AppData\Local\Temp\ccnxErqW.s:2461   .text._ZN20Adafruit_Fingerprint16fingerFastSearchEv:00000080 .Loc.463
C:\Users\kenne\AppData\Local\Temp\ccnxErqW.s:2462   .text._ZN20Adafruit_Fingerprint16fingerFastSearchEv:00000080 .Loc.464
C:\Users\kenne\AppData\Local\Temp\ccnxErqW.s:2467   .text._ZN20Adafruit_Fingerprint16fingerFastSearchEv:00000088 .Loc.465
C:\Users\kenne\AppData\Local\Temp\ccnxErqW.s:2468   .text._ZN20Adafruit_Fingerprint16fingerFastSearchEv:00000088 .Loc.466
C:\Users\kenne\AppData\Local\Temp\ccnxErqW.s:2470   .text._ZN20Adafruit_Fingerprint16fingerFastSearchEv:0000008a .Loc.467
C:\Users\kenne\AppData\Local\Temp\ccnxErqW.s:2474   .text._ZN20Adafruit_Fingerprint16fingerFastSearchEv:00000090 .Loc.468
C:\Users\kenne\AppData\Local\Temp\ccnxErqW.s:2475   .text._ZN20Adafruit_Fingerprint16fingerFastSearchEv:00000090 .Loc.469
C:\Users\kenne\AppData\Local\Temp\ccnxErqW.s:2478   .text._ZN20Adafruit_Fingerprint16fingerFastSearchEv:00000094 .Loc.470
C:\Users\kenne\AppData\Local\Temp\ccnxErqW.s:2481   .text._ZN20Adafruit_Fingerprint16fingerFastSearchEv:00000098 .Loc.471
C:\Users\kenne\AppData\Local\Temp\ccnxErqW.s:2482   .text._ZN20Adafruit_Fingerprint16fingerFastSearchEv:00000098 .Loc.472
C:\Users\kenne\AppData\Local\Temp\ccnxErqW.s:2487   .text._ZN20Adafruit_Fingerprint16fingerFastSearchEv:000000a0 .Loc.473
C:\Users\kenne\AppData\Local\Temp\ccnxErqW.s:2488   .text._ZN20Adafruit_Fingerprint16fingerFastSearchEv:000000a0 .Loc.474
C:\Users\kenne\AppData\Local\Temp\ccnxErqW.s:2490   .text._ZN20Adafruit_Fingerprint16fingerFastSearchEv:000000a2 .Loc.475
C:\Users\kenne\AppData\Local\Temp\ccnxErqW.s:2494   .text._ZN20Adafruit_Fingerprint16fingerFastSearchEv:000000a8 .Loc.476
C:\Users\kenne\AppData\Local\Temp\ccnxErqW.s:2495   .text._ZN20Adafruit_Fingerprint16fingerFastSearchEv:000000a8 .Loc.477
C:\Users\kenne\AppData\Local\Temp\ccnxErqW.s:2499   .text._ZN20Adafruit_Fingerprint16fingerFastSearchEv:000000ac .Loc.478
C:\Users\kenne\AppData\Local\Temp\ccnxErqW.s:2503   .text._ZN20Adafruit_Fingerprint16fingerFastSearchEv:000000ae .Loc.479
C:\Users\kenne\AppData\Local\Temp\ccnxErqW.s:2517   .text._ZN20Adafruit_Fingerprint16fingerFastSearchEv:000000c6 .Loc.480
C:\Users\kenne\AppData\Local\Temp\ccnxErqW.s:2520   .text._ZN20Adafruit_Fingerprint16fingerFastSearchEv:000000ca L0
C:\Users\kenne\AppData\Local\Temp\ccnxErqW.s:2526   .text._ZN20Adafruit_Fingerprint10LEDcontrolEb:00000000 _ZN20Adafruit_Fingerprint10LEDcontrolEb
C:\Users\kenne\AppData\Local\Temp\ccnxErqW.s:2529   .text._ZN20Adafruit_Fingerprint10LEDcontrolEb:00000000 .Loc.481
C:\Users\kenne\AppData\Local\Temp\ccnxErqW.s:2530   .text._ZN20Adafruit_Fingerprint10LEDcontrolEb:00000000 L0
C:\Users\kenne\AppData\Local\Temp\ccnxErqW.s:2531   .text._ZN20Adafruit_Fingerprint10LEDcontrolEb:00000000 .Loc.482
C:\Users\kenne\AppData\Local\Temp\ccnxErqW.s:2561   .text._ZN20Adafruit_Fingerprint10LEDcontrolEb:0000001e .Loc.483
C:\Users\kenne\AppData\Local\Temp\ccnxErqW.s:2566   .text._ZN20Adafruit_Fingerprint10LEDcontrolEb:00000022 .Loc.484
C:\Users\kenne\AppData\Local\Temp\ccnxErqW.s:2569   .text._ZN20Adafruit_Fingerprint10LEDcontrolEb:00000024 .Loc.485
C:\Users\kenne\AppData\Local\Temp\ccnxErqW.s:2573   .text._ZN20Adafruit_Fingerprint10LEDcontrolEb:0000002a .Loc.486
C:\Users\kenne\AppData\Local\Temp\ccnxErqW.s:2581   .text._ZN20Adafruit_Fingerprint10LEDcontrolEb:00000036 .Loc.487
C:\Users\kenne\AppData\Local\Temp\ccnxErqW.s:2586   .text._ZN20Adafruit_Fingerprint10LEDcontrolEb:0000003e .Loc.488
C:\Users\kenne\AppData\Local\Temp\ccnxErqW.s:2594   .text._ZN20Adafruit_Fingerprint10LEDcontrolEb:0000004c .Loc.489
C:\Users\kenne\AppData\Local\Temp\ccnxErqW.s:2606   .text._ZN20Adafruit_Fingerprint10LEDcontrolEb:00000062 .Loc.490
C:\Users\kenne\AppData\Local\Temp\ccnxErqW.s:2610   .text._ZN20Adafruit_Fingerprint10LEDcontrolEb:00000068 .Loc.491
C:\Users\kenne\AppData\Local\Temp\ccnxErqW.s:2612   .text._ZN20Adafruit_Fingerprint10LEDcontrolEb:0000006a .Loc.492
GAS LISTING C:\Users\kenne\AppData\Local\Temp\ccnxErqW.s 			page 113


C:\Users\kenne\AppData\Local\Temp\ccnxErqW.s:2617   .text._ZN20Adafruit_Fingerprint10LEDcontrolEb:0000006a .Loc.493
C:\Users\kenne\AppData\Local\Temp\ccnxErqW.s:2633   .text._ZN20Adafruit_Fingerprint10LEDcontrolEb:00000082 .Loc.494
C:\Users\kenne\AppData\Local\Temp\ccnxErqW.s:2634   .text._ZN20Adafruit_Fingerprint10LEDcontrolEb:00000082 .Loc.495
C:\Users\kenne\AppData\Local\Temp\ccnxErqW.s:2638   .text._ZN20Adafruit_Fingerprint10LEDcontrolEb:00000086 .Loc.496
C:\Users\kenne\AppData\Local\Temp\ccnxErqW.s:2643   .text._ZN20Adafruit_Fingerprint10LEDcontrolEb:0000008a .Loc.497
C:\Users\kenne\AppData\Local\Temp\ccnxErqW.s:2646   .text._ZN20Adafruit_Fingerprint10LEDcontrolEb:0000008a .Loc.498
C:\Users\kenne\AppData\Local\Temp\ccnxErqW.s:2649   .text._ZN20Adafruit_Fingerprint10LEDcontrolEb:0000008c .Loc.499
C:\Users\kenne\AppData\Local\Temp\ccnxErqW.s:2653   .text._ZN20Adafruit_Fingerprint10LEDcontrolEb:00000092 .Loc.500
C:\Users\kenne\AppData\Local\Temp\ccnxErqW.s:2661   .text._ZN20Adafruit_Fingerprint10LEDcontrolEb:0000009e .Loc.501
C:\Users\kenne\AppData\Local\Temp\ccnxErqW.s:2666   .text._ZN20Adafruit_Fingerprint10LEDcontrolEb:000000a6 .Loc.502
C:\Users\kenne\AppData\Local\Temp\ccnxErqW.s:2674   .text._ZN20Adafruit_Fingerprint10LEDcontrolEb:000000b4 .Loc.503
C:\Users\kenne\AppData\Local\Temp\ccnxErqW.s:2686   .text._ZN20Adafruit_Fingerprint10LEDcontrolEb:000000ca .Loc.504
C:\Users\kenne\AppData\Local\Temp\ccnxErqW.s:2690   .text._ZN20Adafruit_Fingerprint10LEDcontrolEb:000000d0 .Loc.505
C:\Users\kenne\AppData\Local\Temp\ccnxErqW.s:2692   .text._ZN20Adafruit_Fingerprint10LEDcontrolEb:000000d2 .Loc.506
C:\Users\kenne\AppData\Local\Temp\ccnxErqW.s:2695   .text._ZN20Adafruit_Fingerprint10LEDcontrolEb:000000d4 .Loc.507
C:\Users\kenne\AppData\Local\Temp\ccnxErqW.s:2696   .text._ZN20Adafruit_Fingerprint10LEDcontrolEb:000000d4 .Loc.508
C:\Users\kenne\AppData\Local\Temp\ccnxErqW.s:2700   .text._ZN20Adafruit_Fingerprint10LEDcontrolEb:000000d8 .Loc.509
C:\Users\kenne\AppData\Local\Temp\ccnxErqW.s:2705   .text._ZN20Adafruit_Fingerprint10LEDcontrolEb:000000dc L0
C:\Users\kenne\AppData\Local\Temp\ccnxErqW.s:2711   .text._ZN20Adafruit_Fingerprint10LEDcontrolEhhhh:00000000 _ZN20Adafruit_Fingerprint10LEDcontrolEhhhh
C:\Users\kenne\AppData\Local\Temp\ccnxErqW.s:2714   .text._ZN20Adafruit_Fingerprint10LEDcontrolEhhhh:00000000 .Loc.510
C:\Users\kenne\AppData\Local\Temp\ccnxErqW.s:2715   .text._ZN20Adafruit_Fingerprint10LEDcontrolEhhhh:00000000 L0
C:\Users\kenne\AppData\Local\Temp\ccnxErqW.s:2716   .text._ZN20Adafruit_Fingerprint10LEDcontrolEhhhh:00000000 .Loc.511
C:\Users\kenne\AppData\Local\Temp\ccnxErqW.s:2749   .text._ZN20Adafruit_Fingerprint10LEDcontrolEhhhh:00000020 .Loc.512
C:\Users\kenne\AppData\Local\Temp\ccnxErqW.s:2754   .text._ZN20Adafruit_Fingerprint10LEDcontrolEhhhh:00000026 .Loc.513
C:\Users\kenne\AppData\Local\Temp\ccnxErqW.s:2766   .text._ZN20Adafruit_Fingerprint10LEDcontrolEhhhh:0000003a .Loc.514
C:\Users\kenne\AppData\Local\Temp\ccnxErqW.s:2769   .text._ZN20Adafruit_Fingerprint10LEDcontrolEhhhh:0000003c .Loc.515
C:\Users\kenne\AppData\Local\Temp\ccnxErqW.s:2773   .text._ZN20Adafruit_Fingerprint10LEDcontrolEhhhh:00000040 .Loc.516
C:\Users\kenne\AppData\Local\Temp\ccnxErqW.s:2776   .text._ZN20Adafruit_Fingerprint10LEDcontrolEhhhh:00000042 .Loc.517
C:\Users\kenne\AppData\Local\Temp\ccnxErqW.s:2781   .text._ZN20Adafruit_Fingerprint10LEDcontrolEhhhh:0000004a .Loc.518
C:\Users\kenne\AppData\Local\Temp\ccnxErqW.s:2789   .text._ZN20Adafruit_Fingerprint10LEDcontrolEhhhh:00000058 .Loc.519
C:\Users\kenne\AppData\Local\Temp\ccnxErqW.s:2801   .text._ZN20Adafruit_Fingerprint10LEDcontrolEhhhh:0000006e .Loc.520
C:\Users\kenne\AppData\Local\Temp\ccnxErqW.s:2805   .text._ZN20Adafruit_Fingerprint10LEDcontrolEhhhh:00000074 .Loc.521
C:\Users\kenne\AppData\Local\Temp\ccnxErqW.s:2806   .text._ZN20Adafruit_Fingerprint10LEDcontrolEhhhh:00000074 .Loc.522
C:\Users\kenne\AppData\Local\Temp\ccnxErqW.s:2810   .text._ZN20Adafruit_Fingerprint10LEDcontrolEhhhh:00000078 .Loc.523
C:\Users\kenne\AppData\Local\Temp\ccnxErqW.s:2814   .text._ZN20Adafruit_Fingerprint10LEDcontrolEhhhh:0000007a .Loc.524
C:\Users\kenne\AppData\Local\Temp\ccnxErqW.s:2827   .text._ZN20Adafruit_Fingerprint10LEDcontrolEhhhh:00000090 .Loc.525
C:\Users\kenne\AppData\Local\Temp\ccnxErqW.s:2832   .text._ZN20Adafruit_Fingerprint10LEDcontrolEhhhh:00000094 .Loc.526
C:\Users\kenne\AppData\Local\Temp\ccnxErqW.s:2834   .text._ZN20Adafruit_Fingerprint10LEDcontrolEhhhh:00000096 .Loc.527
C:\Users\kenne\AppData\Local\Temp\ccnxErqW.s:2836   .text._ZN20Adafruit_Fingerprint10LEDcontrolEhhhh:00000098 L0
C:\Users\kenne\AppData\Local\Temp\ccnxErqW.s:2842   .text._ZN20Adafruit_Fingerprint12fingerSearchEh:00000000 _ZN20Adafruit_Fingerprint12fingerSearchEh
C:\Users\kenne\AppData\Local\Temp\ccnxErqW.s:2845   .text._ZN20Adafruit_Fingerprint12fingerSearchEh:00000000 .Loc.528
C:\Users\kenne\AppData\Local\Temp\ccnxErqW.s:2846   .text._ZN20Adafruit_Fingerprint12fingerSearchEh:00000000 L0
C:\Users\kenne\AppData\Local\Temp\ccnxErqW.s:2847   .text._ZN20Adafruit_Fingerprint12fingerSearchEh:00000000 .Loc.529
C:\Users\kenne\AppData\Local\Temp\ccnxErqW.s:2877   .text._ZN20Adafruit_Fingerprint12fingerSearchEh:0000001e .Loc.530
C:\Users\kenne\AppData\Local\Temp\ccnxErqW.s:2883   .text._ZN20Adafruit_Fingerprint12fingerSearchEh:00000026 .Loc.531
C:\Users\kenne\AppData\Local\Temp\ccnxErqW.s:2897   .text._ZN20Adafruit_Fingerprint12fingerSearchEh:0000003e .Loc.532
C:\Users\kenne\AppData\Local\Temp\ccnxErqW.s:2902   .text._ZN20Adafruit_Fingerprint12fingerSearchEh:00000044 .Loc.533
C:\Users\kenne\AppData\Local\Temp\ccnxErqW.s:2907   .text._ZN20Adafruit_Fingerprint12fingerSearchEh:0000004c .Loc.534
C:\Users\kenne\AppData\Local\Temp\ccnxErqW.s:2914   .text._ZN20Adafruit_Fingerprint12fingerSearchEh:00000058 .Loc.535
C:\Users\kenne\AppData\Local\Temp\ccnxErqW.s:2925   .text._ZN20Adafruit_Fingerprint12fingerSearchEh:0000006c .Loc.536
C:\Users\kenne\AppData\Local\Temp\ccnxErqW.s:2929   .text._ZN20Adafruit_Fingerprint12fingerSearchEh:00000072 .Loc.537
C:\Users\kenne\AppData\Local\Temp\ccnxErqW.s:2930   .text._ZN20Adafruit_Fingerprint12fingerSearchEh:00000072 .Loc.538
C:\Users\kenne\AppData\Local\Temp\ccnxErqW.s:2931   .text._ZN20Adafruit_Fingerprint12fingerSearchEh:00000072 .Loc.539
C:\Users\kenne\AppData\Local\Temp\ccnxErqW.s:2937   .text._ZN20Adafruit_Fingerprint12fingerSearchEh:0000007c .Loc.540
C:\Users\kenne\AppData\Local\Temp\ccnxErqW.s:2938   .text._ZN20Adafruit_Fingerprint12fingerSearchEh:0000007c .Loc.541
C:\Users\kenne\AppData\Local\Temp\ccnxErqW.s:2941   .text._ZN20Adafruit_Fingerprint12fingerSearchEh:00000080 .Loc.542
C:\Users\kenne\AppData\Local\Temp\ccnxErqW.s:2942   .text._ZN20Adafruit_Fingerprint12fingerSearchEh:00000080 .Loc.543
GAS LISTING C:\Users\kenne\AppData\Local\Temp\ccnxErqW.s 			page 114


C:\Users\kenne\AppData\Local\Temp\ccnxErqW.s:2945   .text._ZN20Adafruit_Fingerprint12fingerSearchEh:00000084 .Loc.544
C:\Users\kenne\AppData\Local\Temp\ccnxErqW.s:2948   .text._ZN20Adafruit_Fingerprint12fingerSearchEh:00000088 .Loc.545
C:\Users\kenne\AppData\Local\Temp\ccnxErqW.s:2949   .text._ZN20Adafruit_Fingerprint12fingerSearchEh:00000088 .Loc.546
C:\Users\kenne\AppData\Local\Temp\ccnxErqW.s:2954   .text._ZN20Adafruit_Fingerprint12fingerSearchEh:00000090 .Loc.547
C:\Users\kenne\AppData\Local\Temp\ccnxErqW.s:2955   .text._ZN20Adafruit_Fingerprint12fingerSearchEh:00000090 .Loc.548
C:\Users\kenne\AppData\Local\Temp\ccnxErqW.s:2957   .text._ZN20Adafruit_Fingerprint12fingerSearchEh:00000092 .Loc.549
C:\Users\kenne\AppData\Local\Temp\ccnxErqW.s:2961   .text._ZN20Adafruit_Fingerprint12fingerSearchEh:00000098 .Loc.550
C:\Users\kenne\AppData\Local\Temp\ccnxErqW.s:2962   .text._ZN20Adafruit_Fingerprint12fingerSearchEh:00000098 .Loc.551
C:\Users\kenne\AppData\Local\Temp\ccnxErqW.s:2965   .text._ZN20Adafruit_Fingerprint12fingerSearchEh:0000009c .Loc.552
C:\Users\kenne\AppData\Local\Temp\ccnxErqW.s:2968   .text._ZN20Adafruit_Fingerprint12fingerSearchEh:000000a0 .Loc.553
C:\Users\kenne\AppData\Local\Temp\ccnxErqW.s:2969   .text._ZN20Adafruit_Fingerprint12fingerSearchEh:000000a0 .Loc.554
C:\Users\kenne\AppData\Local\Temp\ccnxErqW.s:2974   .text._ZN20Adafruit_Fingerprint12fingerSearchEh:000000a8 .Loc.555
C:\Users\kenne\AppData\Local\Temp\ccnxErqW.s:2975   .text._ZN20Adafruit_Fingerprint12fingerSearchEh:000000a8 .Loc.556
C:\Users\kenne\AppData\Local\Temp\ccnxErqW.s:2977   .text._ZN20Adafruit_Fingerprint12fingerSearchEh:000000aa .Loc.557
C:\Users\kenne\AppData\Local\Temp\ccnxErqW.s:2981   .text._ZN20Adafruit_Fingerprint12fingerSearchEh:000000b0 .Loc.558
C:\Users\kenne\AppData\Local\Temp\ccnxErqW.s:2982   .text._ZN20Adafruit_Fingerprint12fingerSearchEh:000000b0 .Loc.559
C:\Users\kenne\AppData\Local\Temp\ccnxErqW.s:2986   .text._ZN20Adafruit_Fingerprint12fingerSearchEh:000000b4 .Loc.560
C:\Users\kenne\AppData\Local\Temp\ccnxErqW.s:2990   .text._ZN20Adafruit_Fingerprint12fingerSearchEh:000000b6 .Loc.561
C:\Users\kenne\AppData\Local\Temp\ccnxErqW.s:3004   .text._ZN20Adafruit_Fingerprint12fingerSearchEh:000000ce .Loc.562
C:\Users\kenne\AppData\Local\Temp\ccnxErqW.s:3007   .text._ZN20Adafruit_Fingerprint12fingerSearchEh:000000d2 L0
C:\Users\kenne\AppData\Local\Temp\ccnxErqW.s:3013   .text._ZN20Adafruit_Fingerprint16getTemplateCountEv:00000000 _ZN20Adafruit_Fingerprint16getTemplateCountEv
C:\Users\kenne\AppData\Local\Temp\ccnxErqW.s:3016   .text._ZN20Adafruit_Fingerprint16getTemplateCountEv:00000000 .Loc.563
C:\Users\kenne\AppData\Local\Temp\ccnxErqW.s:3017   .text._ZN20Adafruit_Fingerprint16getTemplateCountEv:00000000 L0
C:\Users\kenne\AppData\Local\Temp\ccnxErqW.s:3018   .text._ZN20Adafruit_Fingerprint16getTemplateCountEv:00000000 .Loc.564
C:\Users\kenne\AppData\Local\Temp\ccnxErqW.s:3048   .text._ZN20Adafruit_Fingerprint16getTemplateCountEv:0000001e .Loc.565
C:\Users\kenne\AppData\Local\Temp\ccnxErqW.s:3051   .text._ZN20Adafruit_Fingerprint16getTemplateCountEv:00000020 .Loc.566
C:\Users\kenne\AppData\Local\Temp\ccnxErqW.s:3053   .text._ZN20Adafruit_Fingerprint16getTemplateCountEv:00000022 .Loc.567
C:\Users\kenne\AppData\Local\Temp\ccnxErqW.s:3064   .text._ZN20Adafruit_Fingerprint16getTemplateCountEv:00000036 .Loc.568
C:\Users\kenne\AppData\Local\Temp\ccnxErqW.s:3071   .text._ZN20Adafruit_Fingerprint16getTemplateCountEv:00000042 .Loc.569
C:\Users\kenne\AppData\Local\Temp\ccnxErqW.s:3082   .text._ZN20Adafruit_Fingerprint16getTemplateCountEv:00000056 .Loc.570
C:\Users\kenne\AppData\Local\Temp\ccnxErqW.s:3086   .text._ZN20Adafruit_Fingerprint16getTemplateCountEv:0000005c .Loc.571
C:\Users\kenne\AppData\Local\Temp\ccnxErqW.s:3087   .text._ZN20Adafruit_Fingerprint16getTemplateCountEv:0000005c .Loc.572
C:\Users\kenne\AppData\Local\Temp\ccnxErqW.s:3088   .text._ZN20Adafruit_Fingerprint16getTemplateCountEv:0000005c .Loc.573
C:\Users\kenne\AppData\Local\Temp\ccnxErqW.s:3091   .text._ZN20Adafruit_Fingerprint16getTemplateCountEv:00000060 .Loc.574
C:\Users\kenne\AppData\Local\Temp\ccnxErqW.s:3095   .text._ZN20Adafruit_Fingerprint16getTemplateCountEv:00000066 .Loc.575
C:\Users\kenne\AppData\Local\Temp\ccnxErqW.s:3096   .text._ZN20Adafruit_Fingerprint16getTemplateCountEv:00000066 .Loc.576
C:\Users\kenne\AppData\Local\Temp\ccnxErqW.s:3101   .text._ZN20Adafruit_Fingerprint16getTemplateCountEv:0000006e .Loc.577
C:\Users\kenne\AppData\Local\Temp\ccnxErqW.s:3102   .text._ZN20Adafruit_Fingerprint16getTemplateCountEv:0000006e .Loc.578
C:\Users\kenne\AppData\Local\Temp\ccnxErqW.s:3104   .text._ZN20Adafruit_Fingerprint16getTemplateCountEv:00000070 .Loc.579
C:\Users\kenne\AppData\Local\Temp\ccnxErqW.s:3108   .text._ZN20Adafruit_Fingerprint16getTemplateCountEv:00000076 .Loc.580
C:\Users\kenne\AppData\Local\Temp\ccnxErqW.s:3109   .text._ZN20Adafruit_Fingerprint16getTemplateCountEv:00000076 .Loc.581
C:\Users\kenne\AppData\Local\Temp\ccnxErqW.s:3113   .text._ZN20Adafruit_Fingerprint16getTemplateCountEv:0000007a .Loc.582
C:\Users\kenne\AppData\Local\Temp\ccnxErqW.s:3117   .text._ZN20Adafruit_Fingerprint16getTemplateCountEv:0000007c .Loc.583
C:\Users\kenne\AppData\Local\Temp\ccnxErqW.s:3131   .text._ZN20Adafruit_Fingerprint16getTemplateCountEv:00000094 .Loc.584
C:\Users\kenne\AppData\Local\Temp\ccnxErqW.s:3134   .text._ZN20Adafruit_Fingerprint16getTemplateCountEv:00000098 L0
C:\Users\kenne\AppData\Local\Temp\ccnxErqW.s:3140   .text._ZN20Adafruit_Fingerprint11setPasswordEm:00000000 _ZN20Adafruit_Fingerprint11setPasswordEm
C:\Users\kenne\AppData\Local\Temp\ccnxErqW.s:3143   .text._ZN20Adafruit_Fingerprint11setPasswordEm:00000000 .Loc.585
C:\Users\kenne\AppData\Local\Temp\ccnxErqW.s:3144   .text._ZN20Adafruit_Fingerprint11setPasswordEm:00000000 L0
C:\Users\kenne\AppData\Local\Temp\ccnxErqW.s:3145   .text._ZN20Adafruit_Fingerprint11setPasswordEm:00000000 .Loc.586
C:\Users\kenne\AppData\Local\Temp\ccnxErqW.s:3175   .text._ZN20Adafruit_Fingerprint11setPasswordEm:0000001e .Loc.587
C:\Users\kenne\AppData\Local\Temp\ccnxErqW.s:3181   .text._ZN20Adafruit_Fingerprint11setPasswordEm:00000026 .Loc.588
C:\Users\kenne\AppData\Local\Temp\ccnxErqW.s:3193   .text._ZN20Adafruit_Fingerprint11setPasswordEm:0000003a .Loc.589
C:\Users\kenne\AppData\Local\Temp\ccnxErqW.s:3197   .text._ZN20Adafruit_Fingerprint11setPasswordEm:0000003e .Loc.590
C:\Users\kenne\AppData\Local\Temp\ccnxErqW.s:3203   .text._ZN20Adafruit_Fingerprint11setPasswordEm:00000048 .Loc.591
C:\Users\kenne\AppData\Local\Temp\ccnxErqW.s:3211   .text._ZN20Adafruit_Fingerprint11setPasswordEm:00000056 .Loc.592
C:\Users\kenne\AppData\Local\Temp\ccnxErqW.s:3223   .text._ZN20Adafruit_Fingerprint11setPasswordEm:0000006c .Loc.593
C:\Users\kenne\AppData\Local\Temp\ccnxErqW.s:3227   .text._ZN20Adafruit_Fingerprint11setPasswordEm:00000072 .Loc.594
GAS LISTING C:\Users\kenne\AppData\Local\Temp\ccnxErqW.s 			page 115


C:\Users\kenne\AppData\Local\Temp\ccnxErqW.s:3228   .text._ZN20Adafruit_Fingerprint11setPasswordEm:00000072 .Loc.595
C:\Users\kenne\AppData\Local\Temp\ccnxErqW.s:3232   .text._ZN20Adafruit_Fingerprint11setPasswordEm:00000076 .Loc.596
C:\Users\kenne\AppData\Local\Temp\ccnxErqW.s:3236   .text._ZN20Adafruit_Fingerprint11setPasswordEm:00000078 .Loc.597
C:\Users\kenne\AppData\Local\Temp\ccnxErqW.s:3250   .text._ZN20Adafruit_Fingerprint11setPasswordEm:00000090 .Loc.598
C:\Users\kenne\AppData\Local\Temp\ccnxErqW.s:3252   .text._ZN20Adafruit_Fingerprint11setPasswordEm:00000092 .Loc.599
C:\Users\kenne\AppData\Local\Temp\ccnxErqW.s:3254   .text._ZN20Adafruit_Fingerprint11setPasswordEm:00000094 L0
C:\Users\kenne\AppData\Local\Temp\ccnxErqW.s:3260   .text._ZN20Adafruit_Fingerprint13writeRegisterEhh:00000000 _ZN20Adafruit_Fingerprint13writeRegisterEhh
C:\Users\kenne\AppData\Local\Temp\ccnxErqW.s:3263   .text._ZN20Adafruit_Fingerprint13writeRegisterEhh:00000000 .Loc.600
C:\Users\kenne\AppData\Local\Temp\ccnxErqW.s:3264   .text._ZN20Adafruit_Fingerprint13writeRegisterEhh:00000000 L0
C:\Users\kenne\AppData\Local\Temp\ccnxErqW.s:3265   .text._ZN20Adafruit_Fingerprint13writeRegisterEhh:00000000 .Loc.601
C:\Users\kenne\AppData\Local\Temp\ccnxErqW.s:3295   .text._ZN20Adafruit_Fingerprint13writeRegisterEhh:0000001e .Loc.602
C:\Users\kenne\AppData\Local\Temp\ccnxErqW.s:3301   .text._ZN20Adafruit_Fingerprint13writeRegisterEhh:00000026 .Loc.603
C:\Users\kenne\AppData\Local\Temp\ccnxErqW.s:3305   .text._ZN20Adafruit_Fingerprint13writeRegisterEhh:0000002c .Loc.604
C:\Users\kenne\AppData\Local\Temp\ccnxErqW.s:3312   .text._ZN20Adafruit_Fingerprint13writeRegisterEhh:00000036 .Loc.605
C:\Users\kenne\AppData\Local\Temp\ccnxErqW.s:3315   .text._ZN20Adafruit_Fingerprint13writeRegisterEhh:00000038 .Loc.606
C:\Users\kenne\AppData\Local\Temp\ccnxErqW.s:3320   .text._ZN20Adafruit_Fingerprint13writeRegisterEhh:00000040 .Loc.607
C:\Users\kenne\AppData\Local\Temp\ccnxErqW.s:3328   .text._ZN20Adafruit_Fingerprint13writeRegisterEhh:0000004e .Loc.608
C:\Users\kenne\AppData\Local\Temp\ccnxErqW.s:3340   .text._ZN20Adafruit_Fingerprint13writeRegisterEhh:00000064 .Loc.609
C:\Users\kenne\AppData\Local\Temp\ccnxErqW.s:3344   .text._ZN20Adafruit_Fingerprint13writeRegisterEhh:0000006a .Loc.610
C:\Users\kenne\AppData\Local\Temp\ccnxErqW.s:3345   .text._ZN20Adafruit_Fingerprint13writeRegisterEhh:0000006a .Loc.611
C:\Users\kenne\AppData\Local\Temp\ccnxErqW.s:3349   .text._ZN20Adafruit_Fingerprint13writeRegisterEhh:0000006e .Loc.612
C:\Users\kenne\AppData\Local\Temp\ccnxErqW.s:3353   .text._ZN20Adafruit_Fingerprint13writeRegisterEhh:00000070 .Loc.613
C:\Users\kenne\AppData\Local\Temp\ccnxErqW.s:3367   .text._ZN20Adafruit_Fingerprint13writeRegisterEhh:00000088 .Loc.614
C:\Users\kenne\AppData\Local\Temp\ccnxErqW.s:3369   .text._ZN20Adafruit_Fingerprint13writeRegisterEhh:0000008a .Loc.615
C:\Users\kenne\AppData\Local\Temp\ccnxErqW.s:3371   .text._ZN20Adafruit_Fingerprint13writeRegisterEhh:0000008c L0
C:\Users\kenne\AppData\Local\Temp\ccnxErqW.s:3377   .text._ZN20Adafruit_Fingerprint11setBaudRateEh:00000000 _ZN20Adafruit_Fingerprint11setBaudRateEh
C:\Users\kenne\AppData\Local\Temp\ccnxErqW.s:3380   .text._ZN20Adafruit_Fingerprint11setBaudRateEh:00000000 .Loc.616
C:\Users\kenne\AppData\Local\Temp\ccnxErqW.s:3381   .text._ZN20Adafruit_Fingerprint11setBaudRateEh:00000000 L0
C:\Users\kenne\AppData\Local\Temp\ccnxErqW.s:3386   .text._ZN20Adafruit_Fingerprint11setBaudRateEh:00000000 .Loc.617
C:\Users\kenne\AppData\Local\Temp\ccnxErqW.s:3389   .text._ZN20Adafruit_Fingerprint11setBaudRateEh:00000004 .Loc.618
C:\Users\kenne\AppData\Local\Temp\ccnxErqW.s:3390   .text._ZN20Adafruit_Fingerprint11setBaudRateEh:00000004 .Loc.619
C:\Users\kenne\AppData\Local\Temp\ccnxErqW.s:3392   .text._ZN20Adafruit_Fingerprint11setBaudRateEh:00000006 .Loc.620
C:\Users\kenne\AppData\Local\Temp\ccnxErqW.s:3395   .text._ZN20Adafruit_Fingerprint11setBaudRateEh:00000008 .Loc.621
C:\Users\kenne\AppData\Local\Temp\ccnxErqW.s:3398   .text._ZN20Adafruit_Fingerprint11setBaudRateEh:0000000a .Loc.622
C:\Users\kenne\AppData\Local\Temp\ccnxErqW.s:3402   .text._ZN20Adafruit_Fingerprint11setBaudRateEh:0000000e .Loc.623
C:\Users\kenne\AppData\Local\Temp\ccnxErqW.s:3404   .text._ZN20Adafruit_Fingerprint11setBaudRateEh:00000010 L0
C:\Users\kenne\AppData\Local\Temp\ccnxErqW.s:3410   .text._ZN20Adafruit_Fingerprint16setSecurityLevelEh:00000000 _ZN20Adafruit_Fingerprint16setSecurityLevelEh
C:\Users\kenne\AppData\Local\Temp\ccnxErqW.s:3413   .text._ZN20Adafruit_Fingerprint16setSecurityLevelEh:00000000 .Loc.624
C:\Users\kenne\AppData\Local\Temp\ccnxErqW.s:3414   .text._ZN20Adafruit_Fingerprint16setSecurityLevelEh:00000000 L0
C:\Users\kenne\AppData\Local\Temp\ccnxErqW.s:3419   .text._ZN20Adafruit_Fingerprint16setSecurityLevelEh:00000000 .Loc.625
C:\Users\kenne\AppData\Local\Temp\ccnxErqW.s:3421   .text._ZN20Adafruit_Fingerprint16setSecurityLevelEh:00000002 .Loc.626
C:\Users\kenne\AppData\Local\Temp\ccnxErqW.s:3422   .text._ZN20Adafruit_Fingerprint16setSecurityLevelEh:00000002 .Loc.627
C:\Users\kenne\AppData\Local\Temp\ccnxErqW.s:3425   .text._ZN20Adafruit_Fingerprint16setSecurityLevelEh:00000004 .Loc.628
C:\Users\kenne\AppData\Local\Temp\ccnxErqW.s:3429   .text._ZN20Adafruit_Fingerprint16setSecurityLevelEh:00000008 .Loc.629
C:\Users\kenne\AppData\Local\Temp\ccnxErqW.s:3431   .text._ZN20Adafruit_Fingerprint16setSecurityLevelEh:0000000a L0
C:\Users\kenne\AppData\Local\Temp\ccnxErqW.s:3437   .text._ZN20Adafruit_Fingerprint13setPacketSizeEh:00000000 _ZN20Adafruit_Fingerprint13setPacketSizeEh
C:\Users\kenne\AppData\Local\Temp\ccnxErqW.s:3440   .text._ZN20Adafruit_Fingerprint13setPacketSizeEh:00000000 .Loc.630
C:\Users\kenne\AppData\Local\Temp\ccnxErqW.s:3441   .text._ZN20Adafruit_Fingerprint13setPacketSizeEh:00000000 L0
C:\Users\kenne\AppData\Local\Temp\ccnxErqW.s:3446   .text._ZN20Adafruit_Fingerprint13setPacketSizeEh:00000000 .Loc.631
C:\Users\kenne\AppData\Local\Temp\ccnxErqW.s:3448   .text._ZN20Adafruit_Fingerprint13setPacketSizeEh:00000002 .Loc.632
C:\Users\kenne\AppData\Local\Temp\ccnxErqW.s:3449   .text._ZN20Adafruit_Fingerprint13setPacketSizeEh:00000002 .Loc.633
C:\Users\kenne\AppData\Local\Temp\ccnxErqW.s:3452   .text._ZN20Adafruit_Fingerprint13setPacketSizeEh:00000004 .Loc.634
C:\Users\kenne\AppData\Local\Temp\ccnxErqW.s:3456   .text._ZN20Adafruit_Fingerprint13setPacketSizeEh:00000008 .Loc.635
C:\Users\kenne\AppData\Local\Temp\ccnxErqW.s:3458   .text._ZN20Adafruit_Fingerprint13setPacketSizeEh:0000000a L0
C:\Users\kenne\AppData\Local\Temp\ccnxErqW.s:33     .text._Z7getTickv:00000008 L0
C:\Users\kenne\AppData\Local\Temp\ccnxErqW.s:137    .text._ZN27Adafruit_Fingerprint_PacketC2EhjPh:00000062 L0
C:\Users\kenne\AppData\Local\Temp\ccnxErqW.s:217    .text._ZN20Adafruit_FingerprintC2EP6Usart0m:00000054 L0
GAS LISTING C:\Users\kenne\AppData\Local\Temp\ccnxErqW.s 			page 116


C:\Users\kenne\AppData\Local\Temp\ccnxErqW.s:279    .text._ZN20Adafruit_Fingerprint5beginEm:00000024 L0
C:\Users\kenne\AppData\Local\Temp\ccnxErqW.s:534    .text._ZN20Adafruit_Fingerprint21writeStructuredPacketERK27Adafruit_Fingerprint_Packet:00000126 L0
C:\Users\kenne\AppData\Local\Temp\ccnxErqW.s:1027   .text._ZN20Adafruit_Fingerprint19getStructuredPacketEP27Adafruit_Fingerprint_Packetj:00000220 L0
C:\Users\kenne\AppData\Local\Temp\ccnxErqW.s:1153   .text._ZN20Adafruit_Fingerprint13checkPasswordEv:000000a0 L0
C:\Users\kenne\AppData\Local\Temp\ccnxErqW.s:1182   .text._ZN20Adafruit_Fingerprint14verifyPasswordEv:0000000e L0
C:\Users\kenne\AppData\Local\Temp\ccnxErqW.s:1449   .text._ZN20Adafruit_Fingerprint13getParametersEv:00000150 L0
C:\Users\kenne\AppData\Local\Temp\ccnxErqW.s:1557   .text._ZN20Adafruit_Fingerprint8getImageEv:00000082 L0
C:\Users\kenne\AppData\Local\Temp\ccnxErqW.s:1670   .text._ZN20Adafruit_Fingerprint8image2TzEh:00000088 L0
C:\Users\kenne\AppData\Local\Temp\ccnxErqW.s:1778   .text._ZN20Adafruit_Fingerprint11createModelEv:00000082 L0
C:\Users\kenne\AppData\Local\Temp\ccnxErqW.s:1896   .text._ZN20Adafruit_Fingerprint10storeModelEj:00000092 L0
C:\Users\kenne\AppData\Local\Temp\ccnxErqW.s:2014   .text._ZN20Adafruit_Fingerprint9loadModelEj:00000092 L0
C:\Users\kenne\AppData\Local\Temp\ccnxErqW.s:2124   .text._ZN20Adafruit_Fingerprint8getModelEv:00000086 L0
C:\Users\kenne\AppData\Local\Temp\ccnxErqW.s:2244   .text._ZN20Adafruit_Fingerprint11deleteModelEj:00000094 L0
C:\Users\kenne\AppData\Local\Temp\ccnxErqW.s:2352   .text._ZN20Adafruit_Fingerprint13emptyDatabaseEv:00000082 L0
C:\Users\kenne\AppData\Local\Temp\ccnxErqW.s:2523   .text._ZN20Adafruit_Fingerprint16fingerFastSearchEv:000000ca L0
C:\Users\kenne\AppData\Local\Temp\ccnxErqW.s:2708   .text._ZN20Adafruit_Fingerprint10LEDcontrolEb:000000dc L0
C:\Users\kenne\AppData\Local\Temp\ccnxErqW.s:2839   .text._ZN20Adafruit_Fingerprint10LEDcontrolEhhhh:00000098 L0
C:\Users\kenne\AppData\Local\Temp\ccnxErqW.s:3010   .text._ZN20Adafruit_Fingerprint12fingerSearchEh:000000d2 L0
C:\Users\kenne\AppData\Local\Temp\ccnxErqW.s:3137   .text._ZN20Adafruit_Fingerprint16getTemplateCountEv:00000098 L0
C:\Users\kenne\AppData\Local\Temp\ccnxErqW.s:3257   .text._ZN20Adafruit_Fingerprint11setPasswordEm:00000094 L0
C:\Users\kenne\AppData\Local\Temp\ccnxErqW.s:3374   .text._ZN20Adafruit_Fingerprint13writeRegisterEhh:0000008c L0
C:\Users\kenne\AppData\Local\Temp\ccnxErqW.s:3407   .text._ZN20Adafruit_Fingerprint11setBaudRateEh:00000010 L0
C:\Users\kenne\AppData\Local\Temp\ccnxErqW.s:3434   .text._ZN20Adafruit_Fingerprint16setSecurityLevelEh:0000000a L0
C:\Users\kenne\AppData\Local\Temp\ccnxErqW.s:3461   .text._ZN20Adafruit_Fingerprint13setPacketSizeEh:0000000a L0
                     .debug_frame:00000000 L0
C:\Users\kenne\AppData\Local\Temp\ccnxErqW.s:116    .text._ZN27Adafruit_Fingerprint_PacketC2EhjPh:00000052 .L3
C:\Users\kenne\AppData\Local\Temp\ccnxErqW.s:123    .text._ZN27Adafruit_Fingerprint_PacketC2EhjPh:00000058 .L1
C:\Users\kenne\AppData\Local\Temp\ccnxErqW.s:249    .text._ZN20Adafruit_Fingerprint5beginEm:0000000a .L11
C:\Users\kenne\AppData\Local\Temp\ccnxErqW.s:272    .text._ZN20Adafruit_Fingerprint5beginEm:00000022 .L6
C:\Users\kenne\AppData\Local\Temp\ccnxErqW.s:481    .text._ZN20Adafruit_Fingerprint21writeStructuredPacketERK27Adafruit_Fingerprint_Packet:000000e6 .L9
C:\Users\kenne\AppData\Local\Temp\ccnxErqW.s:453    .text._ZN20Adafruit_Fingerprint21writeStructuredPacketERK27Adafruit_Fingerprint_Packet:000000c6 .L10
C:\Users\kenne\AppData\Local\Temp\ccnxErqW.s:803    .text._ZN20Adafruit_Fingerprint19getStructuredPacketEP27Adafruit_Fingerprint_Packetj:00000100 .L12
C:\Users\kenne\AppData\Local\Temp\ccnxErqW.s:977    .text._ZN20Adafruit_Fingerprint19getStructuredPacketEP27Adafruit_Fingerprint_Packetj:000001ea .L20
C:\Users\kenne\AppData\Local\Temp\ccnxErqW.s:733    .text._ZN20Adafruit_Fingerprint19getStructuredPacketEP27Adafruit_Fingerprint_Packetj:000000b4 .L28
C:\Users\kenne\AppData\Local\Temp\ccnxErqW.s:784    .text._ZN20Adafruit_Fingerprint19getStructuredPacketEP27Adafruit_Fingerprint_Packetj:000000ee .L26
C:\Users\kenne\AppData\Local\Temp\ccnxErqW.s:966    .text._ZN20Adafruit_Fingerprint19getStructuredPacketEP27Adafruit_Fingerprint_Packetj:000001e0 .L22
C:\Users\kenne\AppData\Local\Temp\ccnxErqW.s:799    .text._ZN20Adafruit_Fingerprint19getStructuredPacketEP27Adafruit_Fingerprint_Packetj:000000fe .L25
C:\Users\kenne\AppData\Local\Temp\ccnxErqW.s:659    .text._ZN20Adafruit_Fingerprint19getStructuredPacketEP27Adafruit_Fingerprint_Packetj:00000050 .L11
C:\Users\kenne\AppData\Local\Temp\ccnxErqW.s:1011   .text._ZN20Adafruit_Fingerprint19getStructuredPacketEP27Adafruit_Fingerprint_Packetj:00000214 .L29
C:\Users\kenne\AppData\Local\Temp\ccnxErqW.s:819    .text._ZN20Adafruit_Fingerprint19getStructuredPacketEP27Adafruit_Fingerprint_Packetj:00000104 .L12
C:\Users\kenne\AppData\Local\Temp\ccnxErqW.s:648    .text._ZN20Adafruit_Fingerprint19getStructuredPacketEP27Adafruit_Fingerprint_Packetj:00000046 .L30
C:\Users\kenne\AppData\Local\Temp\ccnxErqW.s:770    .text._ZN20Adafruit_Fingerprint19getStructuredPacketEP27Adafruit_Fingerprint_Packetj:000000e0 .L15
C:\Users\kenne\AppData\Local\Temp\ccnxErqW.s:708    .text._ZN20Adafruit_Fingerprint19getStructuredPacketEP27Adafruit_Fingerprint_Packetj:00000094 .L16
C:\Users\kenne\AppData\Local\Temp\ccnxErqW.s:743    .text._ZN20Adafruit_Fingerprint19getStructuredPacketEP27Adafruit_Fingerprint_Packetj:000000c0 .L17
C:\Users\kenne\AppData\Local\Temp\ccnxErqW.s:688    .text._ZN20Adafruit_Fingerprint19getStructuredPacketEP27Adafruit_Fingerprint_Packetj:0000007e .L31
C:\Users\kenne\AppData\Local\Temp\ccnxErqW.s:1073   .text._ZN20Adafruit_Fingerprint13checkPasswordEv:00000028 .L2
C:\Users\kenne\AppData\Local\Temp\ccnxErqW.s:1128   .text._ZN20Adafruit_Fingerprint13checkPasswordEv:00000082 .L34
C:\Users\kenne\AppData\Local\Temp\ccnxErqW.s:1146   .text._ZN20Adafruit_Fingerprint13checkPasswordEv:0000009c .L35
C:\Users\kenne\AppData\Local\Temp\ccnxErqW.s:1131   .text._ZN20Adafruit_Fingerprint13checkPasswordEv:00000084 .L32
C:\Users\kenne\AppData\Local\Temp\ccnxErqW.s:1424   .text._ZN20Adafruit_Fingerprint13getParametersEv:00000132 .L45
C:\Users\kenne\AppData\Local\Temp\ccnxErqW.s:1442   .text._ZN20Adafruit_Fingerprint13getParametersEv:0000014c .L46
C:\Users\kenne\AppData\Local\Temp\ccnxErqW.s:1386   .text._ZN20Adafruit_Fingerprint13getParametersEv:000000fe .L41
C:\Users\kenne\AppData\Local\Temp\ccnxErqW.s:1427   .text._ZN20Adafruit_Fingerprint13getParametersEv:00000134 .L39
C:\Users\kenne\AppData\Local\Temp\ccnxErqW.s:1406   .text._ZN20Adafruit_Fingerprint13getParametersEv:0000011a .L47
C:\Users\kenne\AppData\Local\Temp\ccnxErqW.s:1415   .text._ZN20Adafruit_Fingerprint13getParametersEv:00000126 .L48
C:\Users\kenne\AppData\Local\Temp\ccnxErqW.s:1362   .text._ZN20Adafruit_Fingerprint13getParametersEv:000000de .L42
C:\Users\kenne\AppData\Local\Temp\ccnxErqW.s:1531   .text._ZN20Adafruit_Fingerprint8getImageEv:00000064 .L51
GAS LISTING C:\Users\kenne\AppData\Local\Temp\ccnxErqW.s 			page 117


C:\Users\kenne\AppData\Local\Temp\ccnxErqW.s:1549   .text._ZN20Adafruit_Fingerprint8getImageEv:0000007e .L52
C:\Users\kenne\AppData\Local\Temp\ccnxErqW.s:1534   .text._ZN20Adafruit_Fingerprint8getImageEv:00000066 .L49
C:\Users\kenne\AppData\Local\Temp\ccnxErqW.s:1644   .text._ZN20Adafruit_Fingerprint8image2TzEh:0000006a .L55
C:\Users\kenne\AppData\Local\Temp\ccnxErqW.s:1662   .text._ZN20Adafruit_Fingerprint8image2TzEh:00000084 .L56
C:\Users\kenne\AppData\Local\Temp\ccnxErqW.s:1647   .text._ZN20Adafruit_Fingerprint8image2TzEh:0000006c .L53
C:\Users\kenne\AppData\Local\Temp\ccnxErqW.s:1752   .text._ZN20Adafruit_Fingerprint11createModelEv:00000064 .L59
C:\Users\kenne\AppData\Local\Temp\ccnxErqW.s:1770   .text._ZN20Adafruit_Fingerprint11createModelEv:0000007e .L60
C:\Users\kenne\AppData\Local\Temp\ccnxErqW.s:1755   .text._ZN20Adafruit_Fingerprint11createModelEv:00000066 .L57
C:\Users\kenne\AppData\Local\Temp\ccnxErqW.s:1870   .text._ZN20Adafruit_Fingerprint10storeModelEj:00000074 .L63
C:\Users\kenne\AppData\Local\Temp\ccnxErqW.s:1888   .text._ZN20Adafruit_Fingerprint10storeModelEj:0000008e .L64
C:\Users\kenne\AppData\Local\Temp\ccnxErqW.s:1873   .text._ZN20Adafruit_Fingerprint10storeModelEj:00000076 .L61
C:\Users\kenne\AppData\Local\Temp\ccnxErqW.s:1988   .text._ZN20Adafruit_Fingerprint9loadModelEj:00000074 .L67
C:\Users\kenne\AppData\Local\Temp\ccnxErqW.s:2006   .text._ZN20Adafruit_Fingerprint9loadModelEj:0000008e .L68
C:\Users\kenne\AppData\Local\Temp\ccnxErqW.s:1991   .text._ZN20Adafruit_Fingerprint9loadModelEj:00000076 .L65
C:\Users\kenne\AppData\Local\Temp\ccnxErqW.s:2098   .text._ZN20Adafruit_Fingerprint8getModelEv:00000068 .L71
C:\Users\kenne\AppData\Local\Temp\ccnxErqW.s:2116   .text._ZN20Adafruit_Fingerprint8getModelEv:00000082 .L72
C:\Users\kenne\AppData\Local\Temp\ccnxErqW.s:2101   .text._ZN20Adafruit_Fingerprint8getModelEv:0000006a .L69
C:\Users\kenne\AppData\Local\Temp\ccnxErqW.s:2170   .text._ZN20Adafruit_Fingerprint11deleteModelEj:00000028 .L3
C:\Users\kenne\AppData\Local\Temp\ccnxErqW.s:2218   .text._ZN20Adafruit_Fingerprint11deleteModelEj:00000076 .L75
C:\Users\kenne\AppData\Local\Temp\ccnxErqW.s:2236   .text._ZN20Adafruit_Fingerprint11deleteModelEj:00000090 .L76
C:\Users\kenne\AppData\Local\Temp\ccnxErqW.s:2221   .text._ZN20Adafruit_Fingerprint11deleteModelEj:00000078 .L73
C:\Users\kenne\AppData\Local\Temp\ccnxErqW.s:2326   .text._ZN20Adafruit_Fingerprint13emptyDatabaseEv:00000064 .L79
C:\Users\kenne\AppData\Local\Temp\ccnxErqW.s:2344   .text._ZN20Adafruit_Fingerprint13emptyDatabaseEv:0000007e .L80
C:\Users\kenne\AppData\Local\Temp\ccnxErqW.s:2329   .text._ZN20Adafruit_Fingerprint13emptyDatabaseEv:00000066 .L77
C:\Users\kenne\AppData\Local\Temp\ccnxErqW.s:2353   .rodata:00000000 .LC11
C:\Users\kenne\AppData\Local\Temp\ccnxErqW.s:2404   .text._ZN20Adafruit_Fingerprint16fingerFastSearchEv:00000028 .L4
C:\Users\kenne\AppData\Local\Temp\ccnxErqW.s:2498   .text._ZN20Adafruit_Fingerprint16fingerFastSearchEv:000000ac .L83
C:\Users\kenne\AppData\Local\Temp\ccnxErqW.s:2516   .text._ZN20Adafruit_Fingerprint16fingerFastSearchEv:000000c6 .L84
C:\Users\kenne\AppData\Local\Temp\ccnxErqW.s:2501   .text._ZN20Adafruit_Fingerprint16fingerFastSearchEv:000000ae .L81
C:\Users\kenne\AppData\Local\Temp\ccnxErqW.s:2642   .text._ZN20Adafruit_Fingerprint10LEDcontrolEb:0000008a .L86
C:\Users\kenne\AppData\Local\Temp\ccnxErqW.s:2637   .text._ZN20Adafruit_Fingerprint10LEDcontrolEb:00000086 .L90
C:\Users\kenne\AppData\Local\Temp\ccnxErqW.s:2630   .text._ZN20Adafruit_Fingerprint10LEDcontrolEb:00000082 .L94
C:\Users\kenne\AppData\Local\Temp\ccnxErqW.s:2613   .text._ZN20Adafruit_Fingerprint10LEDcontrolEb:0000006a .L85
C:\Users\kenne\AppData\Local\Temp\ccnxErqW.s:2699   .text._ZN20Adafruit_Fingerprint10LEDcontrolEb:000000d8 .L92
C:\Users\kenne\AppData\Local\Temp\ccnxErqW.s:2694   .text._ZN20Adafruit_Fingerprint10LEDcontrolEb:000000d4 .L95
C:\Users\kenne\AppData\Local\Temp\ccnxErqW.s:2756   .text._ZN20Adafruit_Fingerprint10LEDcontrolEhhhh:00000028 .L5
C:\Users\kenne\AppData\Local\Temp\ccnxErqW.s:2809   .text._ZN20Adafruit_Fingerprint10LEDcontrolEhhhh:00000078 .L98
C:\Users\kenne\AppData\Local\Temp\ccnxErqW.s:2831   .text._ZN20Adafruit_Fingerprint10LEDcontrolEhhhh:00000094 .L99
C:\Users\kenne\AppData\Local\Temp\ccnxErqW.s:2812   .text._ZN20Adafruit_Fingerprint10LEDcontrolEhhhh:0000007a .L96
C:\Users\kenne\AppData\Local\Temp\ccnxErqW.s:2885   .text._ZN20Adafruit_Fingerprint12fingerSearchEh:00000028 .L6
C:\Users\kenne\AppData\Local\Temp\ccnxErqW.s:2985   .text._ZN20Adafruit_Fingerprint12fingerSearchEh:000000b4 .L102
C:\Users\kenne\AppData\Local\Temp\ccnxErqW.s:3003   .text._ZN20Adafruit_Fingerprint12fingerSearchEh:000000ce .L103
C:\Users\kenne\AppData\Local\Temp\ccnxErqW.s:2988   .text._ZN20Adafruit_Fingerprint12fingerSearchEh:000000b6 .L100
C:\Users\kenne\AppData\Local\Temp\ccnxErqW.s:3112   .text._ZN20Adafruit_Fingerprint16getTemplateCountEv:0000007a .L106
C:\Users\kenne\AppData\Local\Temp\ccnxErqW.s:3130   .text._ZN20Adafruit_Fingerprint16getTemplateCountEv:00000094 .L107
C:\Users\kenne\AppData\Local\Temp\ccnxErqW.s:3115   .text._ZN20Adafruit_Fingerprint16getTemplateCountEv:0000007c .L104
C:\Users\kenne\AppData\Local\Temp\ccnxErqW.s:3183   .text._ZN20Adafruit_Fingerprint11setPasswordEm:00000028 .L7
C:\Users\kenne\AppData\Local\Temp\ccnxErqW.s:3231   .text._ZN20Adafruit_Fingerprint11setPasswordEm:00000076 .L110
C:\Users\kenne\AppData\Local\Temp\ccnxErqW.s:3249   .text._ZN20Adafruit_Fingerprint11setPasswordEm:00000090 .L111
C:\Users\kenne\AppData\Local\Temp\ccnxErqW.s:3234   .text._ZN20Adafruit_Fingerprint11setPasswordEm:00000078 .L108
C:\Users\kenne\AppData\Local\Temp\ccnxErqW.s:3348   .text._ZN20Adafruit_Fingerprint13writeRegisterEhh:0000006e .L114
C:\Users\kenne\AppData\Local\Temp\ccnxErqW.s:3366   .text._ZN20Adafruit_Fingerprint13writeRegisterEhh:00000088 .L115
C:\Users\kenne\AppData\Local\Temp\ccnxErqW.s:3351   .text._ZN20Adafruit_Fingerprint13writeRegisterEhh:00000070 .L112
C:\Users\kenne\AppData\Local\Temp\ccnxErqW.s:7878   .debug_abbrev:00000000 .Ldebug_abbrev0
C:\Users\kenne\AppData\Local\Temp\ccnxErqW.s:10820  .debug_rnglists:00000018 .LLRL61
C:\Users\kenne\AppData\Local\Temp\ccnxErqW.s:10905  .debug_line:00000000 .Ldebug_line0
C:\Users\kenne\AppData\Local\Temp\ccnxErqW.s:562    .text._ZN20Adafruit_Fingerprint19getStructuredPacketEP27Adafruit_Fingerprint_Packetj:00000000 .LFB108
GAS LISTING C:\Users\kenne\AppData\Local\Temp\ccnxErqW.s 			page 118


C:\Users\kenne\AppData\Local\Temp\ccnxErqW.s:1025   .text._ZN20Adafruit_Fingerprint19getStructuredPacketEP27Adafruit_Fingerprint_Packetj:00000220 .LFE108
C:\Users\kenne\AppData\Local\Temp\ccnxErqW.s:9149   .debug_loclists:00000010 .LLST15
C:\Users\kenne\AppData\Local\Temp\ccnxErqW.s:9144   .debug_loclists:0000000c .LVUS15
C:\Users\kenne\AppData\Local\Temp\ccnxErqW.s:9176   .debug_loclists:0000002d .LLST16
C:\Users\kenne\AppData\Local\Temp\ccnxErqW.s:9171   .debug_loclists:00000029 .LVUS16
C:\Users\kenne\AppData\Local\Temp\ccnxErqW.s:9203   .debug_loclists:0000004a .LLST17
C:\Users\kenne\AppData\Local\Temp\ccnxErqW.s:9198   .debug_loclists:00000046 .LVUS17
C:\Users\kenne\AppData\Local\Temp\ccnxErqW.s:9240   .debug_loclists:00000071 .LLST18
C:\Users\kenne\AppData\Local\Temp\ccnxErqW.s:9225   .debug_loclists:00000063 .LVUS18
C:\Users\kenne\AppData\Local\Temp\ccnxErqW.s:9314   .debug_loclists:000000c5 .LLST19
C:\Users\kenne\AppData\Local\Temp\ccnxErqW.s:9307   .debug_loclists:000000bf .LVUS19
C:\Users\kenne\AppData\Local\Temp\ccnxErqW.s:807    .text._ZN20Adafruit_Fingerprint19getStructuredPacketEP27Adafruit_Fingerprint_Packetj:00000100 .LBI11
C:\Users\kenne\AppData\Local\Temp\ccnxErqW.s:806    .text._ZN20Adafruit_Fingerprint19getStructuredPacketEP27Adafruit_Fingerprint_Packetj:00000100 .LBB11
C:\Users\kenne\AppData\Local\Temp\ccnxErqW.s:826    .text._ZN20Adafruit_Fingerprint19getStructuredPacketEP27Adafruit_Fingerprint_Packetj:0000010c .LBE11
C:\Users\kenne\AppData\Local\Temp\ccnxErqW.s:9347   .debug_loclists:000000e8 .LLST20
C:\Users\kenne\AppData\Local\Temp\ccnxErqW.s:9344   .debug_loclists:000000e6 .LVUS20
C:\Users\kenne\AppData\Local\Temp\ccnxErqW.s:9359   .debug_loclists:000000f8 .LLST21
C:\Users\kenne\AppData\Local\Temp\ccnxErqW.s:9356   .debug_loclists:000000f6 .LVUS21
C:\Users\kenne\AppData\Local\Temp\ccnxErqW.s:9371   .debug_loclists:00000108 .LLST22
C:\Users\kenne\AppData\Local\Temp\ccnxErqW.s:9368   .debug_loclists:00000106 .LVUS22
C:\Users\kenne\AppData\Local\Temp\ccnxErqW.s:654    .text._ZN20Adafruit_Fingerprint19getStructuredPacketEP27Adafruit_Fingerprint_Packetj:0000004e .LVL41
C:\Users\kenne\AppData\Local\Temp\ccnxErqW.s:739    .text._ZN20Adafruit_Fingerprint19getStructuredPacketEP27Adafruit_Fingerprint_Packetj:000000bc .LVL45
C:\Users\kenne\AppData\Local\Temp\ccnxErqW.s:765    .text._ZN20Adafruit_Fingerprint19getStructuredPacketEP27Adafruit_Fingerprint_Packetj:000000dc .LVL46
C:\Users\kenne\AppData\Local\Temp\ccnxErqW.s:777    .text._ZN20Adafruit_Fingerprint19getStructuredPacketEP27Adafruit_Fingerprint_Packetj:000000e8 .LVL47
C:\Users\kenne\AppData\Local\Temp\ccnxErqW.s:847    .text._ZN20Adafruit_Fingerprint19getStructuredPacketEP27Adafruit_Fingerprint_Packetj:0000012a .LVL52
C:\Users\kenne\AppData\Local\Temp\ccnxErqW.s:862    .text._ZN20Adafruit_Fingerprint19getStructuredPacketEP27Adafruit_Fingerprint_Packetj:00000144 .LVL53
C:\Users\kenne\AppData\Local\Temp\ccnxErqW.s:869    .text._ZN20Adafruit_Fingerprint19getStructuredPacketEP27Adafruit_Fingerprint_Packetj:0000014c .LVL54
C:\Users\kenne\AppData\Local\Temp\ccnxErqW.s:901    .text._ZN20Adafruit_Fingerprint19getStructuredPacketEP27Adafruit_Fingerprint_Packetj:0000017e .LVL55
C:\Users\kenne\AppData\Local\Temp\ccnxErqW.s:907    .text._ZN20Adafruit_Fingerprint19getStructuredPacketEP27Adafruit_Fingerprint_Packetj:00000186 .LVL56
C:\Users\kenne\AppData\Local\Temp\ccnxErqW.s:927    .text._ZN20Adafruit_Fingerprint19getStructuredPacketEP27Adafruit_Fingerprint_Packetj:000001aa .LVL57
C:\Users\kenne\AppData\Local\Temp\ccnxErqW.s:932    .text._ZN20Adafruit_Fingerprint19getStructuredPacketEP27Adafruit_Fingerprint_Packetj:000001b0 .LVL58
C:\Users\kenne\AppData\Local\Temp\ccnxErqW.s:938    .text._ZN20Adafruit_Fingerprint19getStructuredPacketEP27Adafruit_Fingerprint_Packetj:000001b8 .LVL59
C:\Users\kenne\AppData\Local\Temp\ccnxErqW.s:944    .text._ZN20Adafruit_Fingerprint19getStructuredPacketEP27Adafruit_Fingerprint_Packetj:000001c0 .LVL60
C:\Users\kenne\AppData\Local\Temp\ccnxErqW.s:950    .text._ZN20Adafruit_Fingerprint19getStructuredPacketEP27Adafruit_Fingerprint_Packetj:000001c8 .LVL61
C:\Users\kenne\AppData\Local\Temp\ccnxErqW.s:1005   .text._ZN20Adafruit_Fingerprint19getStructuredPacketEP27Adafruit_Fingerprint_Packetj:00000210 .LVL62
C:\Users\kenne\AppData\Local\Temp\ccnxErqW.s:1019   .text._ZN20Adafruit_Fingerprint19getStructuredPacketEP27Adafruit_Fingerprint_Packetj:0000021c .LVL65
C:\Users\kenne\AppData\Local\Temp\ccnxErqW.s:284    .text._ZN20Adafruit_Fingerprint21writeStructuredPacketERK27Adafruit_Fingerprint_Packet:00000000 .LFB107
C:\Users\kenne\AppData\Local\Temp\ccnxErqW.s:532    .text._ZN20Adafruit_Fingerprint21writeStructuredPacketERK27Adafruit_Fingerprint_Packet:00000126 .LFE107
C:\Users\kenne\AppData\Local\Temp\ccnxErqW.s:9385   .debug_loclists:00000118 .LLST10
C:\Users\kenne\AppData\Local\Temp\ccnxErqW.s:9380   .debug_loclists:00000114 .LVUS10
C:\Users\kenne\AppData\Local\Temp\ccnxErqW.s:9412   .debug_loclists:00000135 .LLST11
C:\Users\kenne\AppData\Local\Temp\ccnxErqW.s:9407   .debug_loclists:00000131 .LVUS11
C:\Users\kenne\AppData\Local\Temp\ccnxErqW.s:9437   .debug_loclists:00000150 .LLST12
C:\Users\kenne\AppData\Local\Temp\ccnxErqW.s:9434   .debug_loclists:0000014e .LVUS12
C:\Users\kenne\AppData\Local\Temp\ccnxErqW.s:9452   .debug_loclists:00000160 .LLST13
C:\Users\kenne\AppData\Local\Temp\ccnxErqW.s:9449   .debug_loclists:0000015e .LVUS13
C:\Users\kenne\AppData\Local\Temp\ccnxErqW.s:447    .text._ZN20Adafruit_Fingerprint21writeStructuredPacketERK27Adafruit_Fingerprint_Packet:000000c2 .LBB10
C:\Users\kenne\AppData\Local\Temp\ccnxErqW.s:495    .text._ZN20Adafruit_Fingerprint21writeStructuredPacketERK27Adafruit_Fingerprint_Packet:000000f6 .LBE10
C:\Users\kenne\AppData\Local\Temp\ccnxErqW.s:9471   .debug_loclists:00000174 .LLST14
C:\Users\kenne\AppData\Local\Temp\ccnxErqW.s:9464   .debug_loclists:0000016e .LVUS14
C:\Users\kenne\AppData\Local\Temp\ccnxErqW.s:469    .text._ZN20Adafruit_Fingerprint21writeStructuredPacketERK27Adafruit_Fingerprint_Packet:000000dc .LVL31
C:\Users\kenne\AppData\Local\Temp\ccnxErqW.s:336    .text._ZN20Adafruit_Fingerprint21writeStructuredPacketERK27Adafruit_Fingerprint_Packet:0000002a .LVL17
C:\Users\kenne\AppData\Local\Temp\ccnxErqW.s:348    .text._ZN20Adafruit_Fingerprint21writeStructuredPacketERK27Adafruit_Fingerprint_Packet:0000003c .LVL18
C:\Users\kenne\AppData\Local\Temp\ccnxErqW.s:359    .text._ZN20Adafruit_Fingerprint21writeStructuredPacketERK27Adafruit_Fingerprint_Packet:0000004c .LVL19
C:\Users\kenne\AppData\Local\Temp\ccnxErqW.s:370    .text._ZN20Adafruit_Fingerprint21writeStructuredPacketERK27Adafruit_Fingerprint_Packet:0000005c .LVL20
C:\Users\kenne\AppData\Local\Temp\ccnxErqW.s:381    .text._ZN20Adafruit_Fingerprint21writeStructuredPacketERK27Adafruit_Fingerprint_Packet:0000006c .LVL21
C:\Users\kenne\AppData\Local\Temp\ccnxErqW.s:392    .text._ZN20Adafruit_Fingerprint21writeStructuredPacketERK27Adafruit_Fingerprint_Packet:0000007c .LVL22
GAS LISTING C:\Users\kenne\AppData\Local\Temp\ccnxErqW.s 			page 119


C:\Users\kenne\AppData\Local\Temp\ccnxErqW.s:403    .text._ZN20Adafruit_Fingerprint21writeStructuredPacketERK27Adafruit_Fingerprint_Packet:0000008c .LVL23
C:\Users\kenne\AppData\Local\Temp\ccnxErqW.s:424    .text._ZN20Adafruit_Fingerprint21writeStructuredPacketERK27Adafruit_Fingerprint_Packet:000000a8 .LVL25
C:\Users\kenne\AppData\Local\Temp\ccnxErqW.s:434    .text._ZN20Adafruit_Fingerprint21writeStructuredPacketERK27Adafruit_Fingerprint_Packet:000000b6 .LVL27
C:\Users\kenne\AppData\Local\Temp\ccnxErqW.s:504    .text._ZN20Adafruit_Fingerprint21writeStructuredPacketERK27Adafruit_Fingerprint_Packet:00000104 .LVL34
C:\Users\kenne\AppData\Local\Temp\ccnxErqW.s:513    .text._ZN20Adafruit_Fingerprint21writeStructuredPacketERK27Adafruit_Fingerprint_Packet:00000112 .LVL35
C:\Users\kenne\AppData\Local\Temp\ccnxErqW.s:3439   .text._ZN20Adafruit_Fingerprint13setPacketSizeEh:00000000 .LFB106
C:\Users\kenne\AppData\Local\Temp\ccnxErqW.s:3459   .text._ZN20Adafruit_Fingerprint13setPacketSizeEh:0000000a .LFE106
C:\Users\kenne\AppData\Local\Temp\ccnxErqW.s:9496   .debug_loclists:0000018e .LLST59
C:\Users\kenne\AppData\Local\Temp\ccnxErqW.s:9491   .debug_loclists:0000018a .LVUS59
C:\Users\kenne\AppData\Local\Temp\ccnxErqW.s:9525   .debug_loclists:000001ac .LLST60
C:\Users\kenne\AppData\Local\Temp\ccnxErqW.s:9518   .debug_loclists:000001a6 .LVUS60
C:\Users\kenne\AppData\Local\Temp\ccnxErqW.s:3454   .text._ZN20Adafruit_Fingerprint13setPacketSizeEh:00000008 .LVL182
C:\Users\kenne\AppData\Local\Temp\ccnxErqW.s:3412   .text._ZN20Adafruit_Fingerprint16setSecurityLevelEh:00000000 .LFB105
C:\Users\kenne\AppData\Local\Temp\ccnxErqW.s:3432   .text._ZN20Adafruit_Fingerprint16setSecurityLevelEh:0000000a .LFE105
C:\Users\kenne\AppData\Local\Temp\ccnxErqW.s:9552   .debug_loclists:000001c8 .LLST57
C:\Users\kenne\AppData\Local\Temp\ccnxErqW.s:9547   .debug_loclists:000001c4 .LVUS57
C:\Users\kenne\AppData\Local\Temp\ccnxErqW.s:9581   .debug_loclists:000001e6 .LLST58
C:\Users\kenne\AppData\Local\Temp\ccnxErqW.s:9574   .debug_loclists:000001e0 .LVUS58
C:\Users\kenne\AppData\Local\Temp\ccnxErqW.s:3427   .text._ZN20Adafruit_Fingerprint16setSecurityLevelEh:00000008 .LVL179
C:\Users\kenne\AppData\Local\Temp\ccnxErqW.s:3379   .text._ZN20Adafruit_Fingerprint11setBaudRateEh:00000000 .LFB104
C:\Users\kenne\AppData\Local\Temp\ccnxErqW.s:3405   .text._ZN20Adafruit_Fingerprint11setBaudRateEh:00000010 .LFE104
C:\Users\kenne\AppData\Local\Temp\ccnxErqW.s:9608   .debug_loclists:00000202 .LLST55
C:\Users\kenne\AppData\Local\Temp\ccnxErqW.s:9603   .debug_loclists:000001fe .LVUS55
C:\Users\kenne\AppData\Local\Temp\ccnxErqW.s:9635   .debug_loclists:0000021e .LLST56
C:\Users\kenne\AppData\Local\Temp\ccnxErqW.s:9630   .debug_loclists:0000021a .LVUS56
C:\Users\kenne\AppData\Local\Temp\ccnxErqW.s:3400   .text._ZN20Adafruit_Fingerprint11setBaudRateEh:0000000e .LVL176
C:\Users\kenne\AppData\Local\Temp\ccnxErqW.s:3262   .text._ZN20Adafruit_Fingerprint13writeRegisterEhh:00000000 .LFB103
C:\Users\kenne\AppData\Local\Temp\ccnxErqW.s:3372   .text._ZN20Adafruit_Fingerprint13writeRegisterEhh:0000008c .LFE103
C:\Users\kenne\AppData\Local\Temp\ccnxErqW.s:9657   .debug_loclists:00000235 .LLST52
C:\Users\kenne\AppData\Local\Temp\ccnxErqW.s:9652   .debug_loclists:00000231 .LVUS52
C:\Users\kenne\AppData\Local\Temp\ccnxErqW.s:9684   .debug_loclists:00000252 .LLST53
C:\Users\kenne\AppData\Local\Temp\ccnxErqW.s:9679   .debug_loclists:0000024e .LVUS53
C:\Users\kenne\AppData\Local\Temp\ccnxErqW.s:9706   .debug_loclists:0000026a .LLST54
C:\Users\kenne\AppData\Local\Temp\ccnxErqW.s:9701   .debug_loclists:00000266 .LVUS54
C:\Users\kenne\AppData\Local\Temp\ccnxErqW.s:3319   .text._ZN20Adafruit_Fingerprint13writeRegisterEhh:00000040 .LVL170
C:\Users\kenne\AppData\Local\Temp\ccnxErqW.s:3327   .text._ZN20Adafruit_Fingerprint13writeRegisterEhh:0000004e .LVL171
C:\Users\kenne\AppData\Local\Temp\ccnxErqW.s:3337   .text._ZN20Adafruit_Fingerprint13writeRegisterEhh:00000060 .LVL172
C:\Users\kenne\AppData\Local\Temp\ccnxErqW.s:3142   .text._ZN20Adafruit_Fingerprint11setPasswordEm:00000000 .LFB102
C:\Users\kenne\AppData\Local\Temp\ccnxErqW.s:3255   .text._ZN20Adafruit_Fingerprint11setPasswordEm:00000094 .LFE102
C:\Users\kenne\AppData\Local\Temp\ccnxErqW.s:9728   .debug_loclists:00000282 .LLST50
C:\Users\kenne\AppData\Local\Temp\ccnxErqW.s:9723   .debug_loclists:0000027e .LVUS50
C:\Users\kenne\AppData\Local\Temp\ccnxErqW.s:9755   .debug_loclists:0000029f .LLST51
C:\Users\kenne\AppData\Local\Temp\ccnxErqW.s:9750   .debug_loclists:0000029b .LVUS51
C:\Users\kenne\AppData\Local\Temp\ccnxErqW.s:3202   .text._ZN20Adafruit_Fingerprint11setPasswordEm:00000048 .LVL163
C:\Users\kenne\AppData\Local\Temp\ccnxErqW.s:3210   .text._ZN20Adafruit_Fingerprint11setPasswordEm:00000056 .LVL164
C:\Users\kenne\AppData\Local\Temp\ccnxErqW.s:3220   .text._ZN20Adafruit_Fingerprint11setPasswordEm:00000068 .LVL165
C:\Users\kenne\AppData\Local\Temp\ccnxErqW.s:3015   .text._ZN20Adafruit_Fingerprint16getTemplateCountEv:00000000 .LFB101
C:\Users\kenne\AppData\Local\Temp\ccnxErqW.s:3135   .text._ZN20Adafruit_Fingerprint16getTemplateCountEv:00000098 .LFE101
C:\Users\kenne\AppData\Local\Temp\ccnxErqW.s:9788   .debug_loclists:000002c2 .LLST49
C:\Users\kenne\AppData\Local\Temp\ccnxErqW.s:9783   .debug_loclists:000002be .LVUS49
C:\Users\kenne\AppData\Local\Temp\ccnxErqW.s:3063   .text._ZN20Adafruit_Fingerprint16getTemplateCountEv:00000036 .LVL157
C:\Users\kenne\AppData\Local\Temp\ccnxErqW.s:3070   .text._ZN20Adafruit_Fingerprint16getTemplateCountEv:00000042 .LVL158
C:\Users\kenne\AppData\Local\Temp\ccnxErqW.s:3079   .text._ZN20Adafruit_Fingerprint16getTemplateCountEv:00000052 .LVL159
C:\Users\kenne\AppData\Local\Temp\ccnxErqW.s:2844   .text._ZN20Adafruit_Fingerprint12fingerSearchEh:00000000 .LFB100
C:\Users\kenne\AppData\Local\Temp\ccnxErqW.s:3008   .text._ZN20Adafruit_Fingerprint12fingerSearchEh:000000d2 .LFE100
C:\Users\kenne\AppData\Local\Temp\ccnxErqW.s:9815   .debug_loclists:000002df .LLST47
C:\Users\kenne\AppData\Local\Temp\ccnxErqW.s:9810   .debug_loclists:000002db .LVUS47
GAS LISTING C:\Users\kenne\AppData\Local\Temp\ccnxErqW.s 			page 120


C:\Users\kenne\AppData\Local\Temp\ccnxErqW.s:9842   .debug_loclists:000002fc .LLST48
C:\Users\kenne\AppData\Local\Temp\ccnxErqW.s:9837   .debug_loclists:000002f8 .LVUS48
C:\Users\kenne\AppData\Local\Temp\ccnxErqW.s:2906   .text._ZN20Adafruit_Fingerprint12fingerSearchEh:0000004c .LVL152
C:\Users\kenne\AppData\Local\Temp\ccnxErqW.s:2913   .text._ZN20Adafruit_Fingerprint12fingerSearchEh:00000058 .LVL153
C:\Users\kenne\AppData\Local\Temp\ccnxErqW.s:2922   .text._ZN20Adafruit_Fingerprint12fingerSearchEh:00000068 .LVL154
C:\Users\kenne\AppData\Local\Temp\ccnxErqW.s:2713   .text._ZN20Adafruit_Fingerprint10LEDcontrolEhhhh:00000000 .LFB99
C:\Users\kenne\AppData\Local\Temp\ccnxErqW.s:2837   .text._ZN20Adafruit_Fingerprint10LEDcontrolEhhhh:00000098 .LFE99
C:\Users\kenne\AppData\Local\Temp\ccnxErqW.s:9864   .debug_loclists:00000314 .LLST42
C:\Users\kenne\AppData\Local\Temp\ccnxErqW.s:9859   .debug_loclists:00000310 .LVUS42
C:\Users\kenne\AppData\Local\Temp\ccnxErqW.s:9891   .debug_loclists:00000331 .LLST43
C:\Users\kenne\AppData\Local\Temp\ccnxErqW.s:9886   .debug_loclists:0000032d .LVUS43
C:\Users\kenne\AppData\Local\Temp\ccnxErqW.s:9913   .debug_loclists:00000349 .LLST44
C:\Users\kenne\AppData\Local\Temp\ccnxErqW.s:9908   .debug_loclists:00000345 .LVUS44
C:\Users\kenne\AppData\Local\Temp\ccnxErqW.s:9935   .debug_loclists:00000361 .LLST45
C:\Users\kenne\AppData\Local\Temp\ccnxErqW.s:9930   .debug_loclists:0000035d .LVUS45
C:\Users\kenne\AppData\Local\Temp\ccnxErqW.s:9959   .debug_loclists:0000037b .LLST46
C:\Users\kenne\AppData\Local\Temp\ccnxErqW.s:9952   .debug_loclists:00000375 .LVUS46
C:\Users\kenne\AppData\Local\Temp\ccnxErqW.s:2780   .text._ZN20Adafruit_Fingerprint10LEDcontrolEhhhh:0000004a .LVL144
C:\Users\kenne\AppData\Local\Temp\ccnxErqW.s:2788   .text._ZN20Adafruit_Fingerprint10LEDcontrolEhhhh:00000058 .LVL145
C:\Users\kenne\AppData\Local\Temp\ccnxErqW.s:2798   .text._ZN20Adafruit_Fingerprint10LEDcontrolEhhhh:0000006a .LVL146
C:\Users\kenne\AppData\Local\Temp\ccnxErqW.s:2528   .text._ZN20Adafruit_Fingerprint10LEDcontrolEb:00000000 .LFB98
C:\Users\kenne\AppData\Local\Temp\ccnxErqW.s:2706   .text._ZN20Adafruit_Fingerprint10LEDcontrolEb:000000dc .LFE98
C:\Users\kenne\AppData\Local\Temp\ccnxErqW.s:9990   .debug_loclists:000003a0 .LLST39
C:\Users\kenne\AppData\Local\Temp\ccnxErqW.s:9981   .debug_loclists:00000398 .LVUS39
C:\Users\kenne\AppData\Local\Temp\ccnxErqW.s:10039  .debug_loclists:000003d7 .LLST40
C:\Users\kenne\AppData\Local\Temp\ccnxErqW.s:10030  .debug_loclists:000003cf .LVUS40
C:\Users\kenne\AppData\Local\Temp\ccnxErqW.s:10810  .debug_rnglists:0000000c .LLRL41
C:\Users\kenne\AppData\Local\Temp\ccnxErqW.s:2585   .text._ZN20Adafruit_Fingerprint10LEDcontrolEb:0000003e .LVL130
C:\Users\kenne\AppData\Local\Temp\ccnxErqW.s:2593   .text._ZN20Adafruit_Fingerprint10LEDcontrolEb:0000004c .LVL131
C:\Users\kenne\AppData\Local\Temp\ccnxErqW.s:2603   .text._ZN20Adafruit_Fingerprint10LEDcontrolEb:0000005e .LVL132
C:\Users\kenne\AppData\Local\Temp\ccnxErqW.s:2645   .text._ZN20Adafruit_Fingerprint10LEDcontrolEb:0000008a .LBB16
C:\Users\kenne\AppData\Local\Temp\ccnxErqW.s:2703   .text._ZN20Adafruit_Fingerprint10LEDcontrolEb:000000dc .LBE16
C:\Users\kenne\AppData\Local\Temp\ccnxErqW.s:2665   .text._ZN20Adafruit_Fingerprint10LEDcontrolEb:000000a6 .LVL136
C:\Users\kenne\AppData\Local\Temp\ccnxErqW.s:2673   .text._ZN20Adafruit_Fingerprint10LEDcontrolEb:000000b4 .LVL137
C:\Users\kenne\AppData\Local\Temp\ccnxErqW.s:2683   .text._ZN20Adafruit_Fingerprint10LEDcontrolEb:000000c6 .LVL138
C:\Users\kenne\AppData\Local\Temp\ccnxErqW.s:2363   .text._ZN20Adafruit_Fingerprint16fingerFastSearchEv:00000000 .LFB97
C:\Users\kenne\AppData\Local\Temp\ccnxErqW.s:2521   .text._ZN20Adafruit_Fingerprint16fingerFastSearchEv:000000ca .LFE97
C:\Users\kenne\AppData\Local\Temp\ccnxErqW.s:10074  .debug_loclists:00000400 .LLST38
C:\Users\kenne\AppData\Local\Temp\ccnxErqW.s:10069  .debug_loclists:000003fc .LVUS38
C:\Users\kenne\AppData\Local\Temp\ccnxErqW.s:2419   .text._ZN20Adafruit_Fingerprint16fingerFastSearchEv:00000044 .LVL124
C:\Users\kenne\AppData\Local\Temp\ccnxErqW.s:2426   .text._ZN20Adafruit_Fingerprint16fingerFastSearchEv:00000050 .LVL125
C:\Users\kenne\AppData\Local\Temp\ccnxErqW.s:2435   .text._ZN20Adafruit_Fingerprint16fingerFastSearchEv:00000060 .LVL126
C:\Users\kenne\AppData\Local\Temp\ccnxErqW.s:2249   .text._ZN20Adafruit_Fingerprint13emptyDatabaseEv:00000000 .LFB96
C:\Users\kenne\AppData\Local\Temp\ccnxErqW.s:2350   .text._ZN20Adafruit_Fingerprint13emptyDatabaseEv:00000082 .LFE96
C:\Users\kenne\AppData\Local\Temp\ccnxErqW.s:10101  .debug_loclists:0000041d .LLST37
C:\Users\kenne\AppData\Local\Temp\ccnxErqW.s:10096  .debug_loclists:00000419 .LVUS37
C:\Users\kenne\AppData\Local\Temp\ccnxErqW.s:2297   .text._ZN20Adafruit_Fingerprint13emptyDatabaseEv:00000036 .LVL119
C:\Users\kenne\AppData\Local\Temp\ccnxErqW.s:2305   .text._ZN20Adafruit_Fingerprint13emptyDatabaseEv:00000044 .LVL120
C:\Users\kenne\AppData\Local\Temp\ccnxErqW.s:2315   .text._ZN20Adafruit_Fingerprint13emptyDatabaseEv:00000056 .LVL121
C:\Users\kenne\AppData\Local\Temp\ccnxErqW.s:2129   .text._ZN20Adafruit_Fingerprint11deleteModelEj:00000000 .LFB95
C:\Users\kenne\AppData\Local\Temp\ccnxErqW.s:2242   .text._ZN20Adafruit_Fingerprint11deleteModelEj:00000094 .LFE95
C:\Users\kenne\AppData\Local\Temp\ccnxErqW.s:10128  .debug_loclists:0000043a .LLST35
C:\Users\kenne\AppData\Local\Temp\ccnxErqW.s:10123  .debug_loclists:00000436 .LVUS35
C:\Users\kenne\AppData\Local\Temp\ccnxErqW.s:10155  .debug_loclists:00000457 .LLST36
C:\Users\kenne\AppData\Local\Temp\ccnxErqW.s:10150  .debug_loclists:00000453 .LVUS36
C:\Users\kenne\AppData\Local\Temp\ccnxErqW.s:2189   .text._ZN20Adafruit_Fingerprint11deleteModelEj:00000048 .LVL114
C:\Users\kenne\AppData\Local\Temp\ccnxErqW.s:2197   .text._ZN20Adafruit_Fingerprint11deleteModelEj:00000056 .LVL115
GAS LISTING C:\Users\kenne\AppData\Local\Temp\ccnxErqW.s 			page 121


C:\Users\kenne\AppData\Local\Temp\ccnxErqW.s:2207   .text._ZN20Adafruit_Fingerprint11deleteModelEj:00000068 .LVL116
C:\Users\kenne\AppData\Local\Temp\ccnxErqW.s:2019   .text._ZN20Adafruit_Fingerprint8getModelEv:00000000 .LFB94
C:\Users\kenne\AppData\Local\Temp\ccnxErqW.s:2122   .text._ZN20Adafruit_Fingerprint8getModelEv:00000086 .LFE94
C:\Users\kenne\AppData\Local\Temp\ccnxErqW.s:10182  .debug_loclists:00000474 .LLST34
C:\Users\kenne\AppData\Local\Temp\ccnxErqW.s:10177  .debug_loclists:00000470 .LVUS34
C:\Users\kenne\AppData\Local\Temp\ccnxErqW.s:2069   .text._ZN20Adafruit_Fingerprint8getModelEv:0000003a .LVL108
C:\Users\kenne\AppData\Local\Temp\ccnxErqW.s:2077   .text._ZN20Adafruit_Fingerprint8getModelEv:00000048 .LVL109
C:\Users\kenne\AppData\Local\Temp\ccnxErqW.s:2087   .text._ZN20Adafruit_Fingerprint8getModelEv:0000005a .LVL110
C:\Users\kenne\AppData\Local\Temp\ccnxErqW.s:1901   .text._ZN20Adafruit_Fingerprint9loadModelEj:00000000 .LFB93
C:\Users\kenne\AppData\Local\Temp\ccnxErqW.s:2012   .text._ZN20Adafruit_Fingerprint9loadModelEj:00000092 .LFE93
C:\Users\kenne\AppData\Local\Temp\ccnxErqW.s:10209  .debug_loclists:00000491 .LLST32
C:\Users\kenne\AppData\Local\Temp\ccnxErqW.s:10204  .debug_loclists:0000048d .LVUS32
C:\Users\kenne\AppData\Local\Temp\ccnxErqW.s:10236  .debug_loclists:000004ae .LLST33
C:\Users\kenne\AppData\Local\Temp\ccnxErqW.s:10231  .debug_loclists:000004aa .LVUS33
C:\Users\kenne\AppData\Local\Temp\ccnxErqW.s:1959   .text._ZN20Adafruit_Fingerprint9loadModelEj:00000046 .LVL103
C:\Users\kenne\AppData\Local\Temp\ccnxErqW.s:1967   .text._ZN20Adafruit_Fingerprint9loadModelEj:00000054 .LVL104
C:\Users\kenne\AppData\Local\Temp\ccnxErqW.s:1977   .text._ZN20Adafruit_Fingerprint9loadModelEj:00000066 .LVL105
C:\Users\kenne\AppData\Local\Temp\ccnxErqW.s:1783   .text._ZN20Adafruit_Fingerprint10storeModelEj:00000000 .LFB92
C:\Users\kenne\AppData\Local\Temp\ccnxErqW.s:1894   .text._ZN20Adafruit_Fingerprint10storeModelEj:00000092 .LFE92
C:\Users\kenne\AppData\Local\Temp\ccnxErqW.s:10263  .debug_loclists:000004cb .LLST30
C:\Users\kenne\AppData\Local\Temp\ccnxErqW.s:10258  .debug_loclists:000004c7 .LVUS30
C:\Users\kenne\AppData\Local\Temp\ccnxErqW.s:10290  .debug_loclists:000004e8 .LLST31
C:\Users\kenne\AppData\Local\Temp\ccnxErqW.s:10285  .debug_loclists:000004e4 .LVUS31
C:\Users\kenne\AppData\Local\Temp\ccnxErqW.s:1841   .text._ZN20Adafruit_Fingerprint10storeModelEj:00000046 .LVL97
C:\Users\kenne\AppData\Local\Temp\ccnxErqW.s:1849   .text._ZN20Adafruit_Fingerprint10storeModelEj:00000054 .LVL98
C:\Users\kenne\AppData\Local\Temp\ccnxErqW.s:1859   .text._ZN20Adafruit_Fingerprint10storeModelEj:00000066 .LVL99
C:\Users\kenne\AppData\Local\Temp\ccnxErqW.s:1675   .text._ZN20Adafruit_Fingerprint11createModelEv:00000000 .LFB91
C:\Users\kenne\AppData\Local\Temp\ccnxErqW.s:1776   .text._ZN20Adafruit_Fingerprint11createModelEv:00000082 .LFE91
C:\Users\kenne\AppData\Local\Temp\ccnxErqW.s:10317  .debug_loclists:00000505 .LLST29
C:\Users\kenne\AppData\Local\Temp\ccnxErqW.s:10312  .debug_loclists:00000501 .LVUS29
C:\Users\kenne\AppData\Local\Temp\ccnxErqW.s:1723   .text._ZN20Adafruit_Fingerprint11createModelEv:00000036 .LVL91
C:\Users\kenne\AppData\Local\Temp\ccnxErqW.s:1731   .text._ZN20Adafruit_Fingerprint11createModelEv:00000044 .LVL92
C:\Users\kenne\AppData\Local\Temp\ccnxErqW.s:1741   .text._ZN20Adafruit_Fingerprint11createModelEv:00000056 .LVL93
C:\Users\kenne\AppData\Local\Temp\ccnxErqW.s:1562   .text._ZN20Adafruit_Fingerprint8image2TzEh:00000000 .LFB90
C:\Users\kenne\AppData\Local\Temp\ccnxErqW.s:1668   .text._ZN20Adafruit_Fingerprint8image2TzEh:00000088 .LFE90
C:\Users\kenne\AppData\Local\Temp\ccnxErqW.s:10344  .debug_loclists:00000522 .LLST27
C:\Users\kenne\AppData\Local\Temp\ccnxErqW.s:10339  .debug_loclists:0000051e .LVUS27
C:\Users\kenne\AppData\Local\Temp\ccnxErqW.s:10371  .debug_loclists:0000053f .LLST28
C:\Users\kenne\AppData\Local\Temp\ccnxErqW.s:10366  .debug_loclists:0000053b .LVUS28
C:\Users\kenne\AppData\Local\Temp\ccnxErqW.s:1615   .text._ZN20Adafruit_Fingerprint8image2TzEh:0000003c .LVL86
C:\Users\kenne\AppData\Local\Temp\ccnxErqW.s:1623   .text._ZN20Adafruit_Fingerprint8image2TzEh:0000004a .LVL87
C:\Users\kenne\AppData\Local\Temp\ccnxErqW.s:1633   .text._ZN20Adafruit_Fingerprint8image2TzEh:0000005c .LVL88
C:\Users\kenne\AppData\Local\Temp\ccnxErqW.s:1454   .text._ZN20Adafruit_Fingerprint8getImageEv:00000000 .LFB89
C:\Users\kenne\AppData\Local\Temp\ccnxErqW.s:1555   .text._ZN20Adafruit_Fingerprint8getImageEv:00000082 .LFE89
C:\Users\kenne\AppData\Local\Temp\ccnxErqW.s:10393  .debug_loclists:00000557 .LLST26
C:\Users\kenne\AppData\Local\Temp\ccnxErqW.s:10388  .debug_loclists:00000553 .LVUS26
C:\Users\kenne\AppData\Local\Temp\ccnxErqW.s:1502   .text._ZN20Adafruit_Fingerprint8getImageEv:00000036 .LVL80
C:\Users\kenne\AppData\Local\Temp\ccnxErqW.s:1510   .text._ZN20Adafruit_Fingerprint8getImageEv:00000044 .LVL81
C:\Users\kenne\AppData\Local\Temp\ccnxErqW.s:1520   .text._ZN20Adafruit_Fingerprint8getImageEv:00000056 .LVL82
C:\Users\kenne\AppData\Local\Temp\ccnxErqW.s:1187   .text._ZN20Adafruit_Fingerprint13getParametersEv:00000000 .LFB88
C:\Users\kenne\AppData\Local\Temp\ccnxErqW.s:1447   .text._ZN20Adafruit_Fingerprint13getParametersEv:00000150 .LFE88
C:\Users\kenne\AppData\Local\Temp\ccnxErqW.s:10420  .debug_loclists:00000574 .LLST25
C:\Users\kenne\AppData\Local\Temp\ccnxErqW.s:10415  .debug_loclists:00000570 .LVUS25
C:\Users\kenne\AppData\Local\Temp\ccnxErqW.s:1235   .text._ZN20Adafruit_Fingerprint13getParametersEv:00000036 .LVL75
C:\Users\kenne\AppData\Local\Temp\ccnxErqW.s:1242   .text._ZN20Adafruit_Fingerprint13getParametersEv:00000042 .LVL76
C:\Users\kenne\AppData\Local\Temp\ccnxErqW.s:1251   .text._ZN20Adafruit_Fingerprint13getParametersEv:00000052 .LVL77
C:\Users\kenne\AppData\Local\Temp\ccnxErqW.s:1032   .text._ZN20Adafruit_Fingerprint13checkPasswordEv:00000000 .LFB87
GAS LISTING C:\Users\kenne\AppData\Local\Temp\ccnxErqW.s 			page 122


C:\Users\kenne\AppData\Local\Temp\ccnxErqW.s:1151   .text._ZN20Adafruit_Fingerprint13checkPasswordEv:000000a0 .LFE87
C:\Users\kenne\AppData\Local\Temp\ccnxErqW.s:10447  .debug_loclists:00000591 .LLST23
C:\Users\kenne\AppData\Local\Temp\ccnxErqW.s:10442  .debug_loclists:0000058d .LVUS23
C:\Users\kenne\AppData\Local\Temp\ccnxErqW.s:1095   .text._ZN20Adafruit_Fingerprint13checkPasswordEv:00000052 .LVL68
C:\Users\kenne\AppData\Local\Temp\ccnxErqW.s:1102   .text._ZN20Adafruit_Fingerprint13checkPasswordEv:0000005e .LVL69
C:\Users\kenne\AppData\Local\Temp\ccnxErqW.s:1111   .text._ZN20Adafruit_Fingerprint13checkPasswordEv:0000006e .LVL70
C:\Users\kenne\AppData\Local\Temp\ccnxErqW.s:1158   .text._ZN20Adafruit_Fingerprint14verifyPasswordEv:00000000 .LFB86
C:\Users\kenne\AppData\Local\Temp\ccnxErqW.s:1180   .text._ZN20Adafruit_Fingerprint14verifyPasswordEv:0000000e .LFE86
C:\Users\kenne\AppData\Local\Temp\ccnxErqW.s:10474  .debug_loclists:000005ae .LLST24
C:\Users\kenne\AppData\Local\Temp\ccnxErqW.s:10469  .debug_loclists:000005aa .LVUS24
C:\Users\kenne\AppData\Local\Temp\ccnxErqW.s:1168   .text._ZN20Adafruit_Fingerprint14verifyPasswordEv:00000004 .LVL72
C:\Users\kenne\AppData\Local\Temp\ccnxErqW.s:222    .text._ZN20Adafruit_Fingerprint5beginEm:00000000 .LFB85
C:\Users\kenne\AppData\Local\Temp\ccnxErqW.s:277    .text._ZN20Adafruit_Fingerprint5beginEm:00000024 .LFE85
C:\Users\kenne\AppData\Local\Temp\ccnxErqW.s:10501  .debug_loclists:000005ca .LLST5
C:\Users\kenne\AppData\Local\Temp\ccnxErqW.s:10496  .debug_loclists:000005c6 .LVUS5
C:\Users\kenne\AppData\Local\Temp\ccnxErqW.s:10528  .debug_loclists:000005e6 .LLST6
C:\Users\kenne\AppData\Local\Temp\ccnxErqW.s:10523  .debug_loclists:000005e2 .LVUS6
C:\Users\kenne\AppData\Local\Temp\ccnxErqW.s:235    .text._ZN20Adafruit_Fingerprint5beginEm:00000004 .LBI8
C:\Users\kenne\AppData\Local\Temp\ccnxErqW.s:234    .text._ZN20Adafruit_Fingerprint5beginEm:00000004 .LBB8
C:\Users\kenne\AppData\Local\Temp\ccnxErqW.s:260    .text._ZN20Adafruit_Fingerprint5beginEm:00000016 .LBE8
C:\Users\kenne\AppData\Local\Temp\ccnxErqW.s:10559  .debug_loclists:00000606 .LLST7
C:\Users\kenne\AppData\Local\Temp\ccnxErqW.s:10556  .debug_loclists:00000604 .LVUS7
C:\Users\kenne\AppData\Local\Temp\ccnxErqW.s:10571  .debug_loclists:00000616 .LLST8
C:\Users\kenne\AppData\Local\Temp\ccnxErqW.s:10568  .debug_loclists:00000614 .LVUS8
C:\Users\kenne\AppData\Local\Temp\ccnxErqW.s:10583  .debug_loclists:00000626 .LLST9
C:\Users\kenne\AppData\Local\Temp\ccnxErqW.s:10580  .debug_loclists:00000624 .LVUS9
C:\Users\kenne\AppData\Local\Temp\ccnxErqW.s:271    .text._ZN20Adafruit_Fingerprint5beginEm:00000022 .LVL13
C:\Users\kenne\AppData\Local\Temp\ccnxErqW.s:142    .text._ZN20Adafruit_FingerprintC2EP6Usart0m:00000000 .LFB83
C:\Users\kenne\AppData\Local\Temp\ccnxErqW.s:213    .text._ZN20Adafruit_FingerprintC2EP6Usart0m:00000054 .LFE83
C:\Users\kenne\AppData\Local\Temp\ccnxErqW.s:10597  .debug_loclists:00000638 .LLST4
C:\Users\kenne\AppData\Local\Temp\ccnxErqW.s:10592  .debug_loclists:00000634 .LVUS4
C:\Users\kenne\AppData\Local\Temp\ccnxErqW.s:38     .text._ZN27Adafruit_Fingerprint_PacketC2EhjPh:00000000 .LFB55
C:\Users\kenne\AppData\Local\Temp\ccnxErqW.s:133    .text._ZN27Adafruit_Fingerprint_PacketC2EhjPh:00000062 .LFE55
C:\Users\kenne\AppData\Local\Temp\ccnxErqW.s:10624  .debug_loclists:00000654 .LLST0
C:\Users\kenne\AppData\Local\Temp\ccnxErqW.s:10619  .debug_loclists:00000650 .LVUS0
C:\Users\kenne\AppData\Local\Temp\ccnxErqW.s:10655  .debug_loclists:00000674 .LLST1
C:\Users\kenne\AppData\Local\Temp\ccnxErqW.s:10646  .debug_loclists:0000066c .LVUS1
C:\Users\kenne\AppData\Local\Temp\ccnxErqW.s:10688  .debug_loclists:00000696 .LLST2
C:\Users\kenne\AppData\Local\Temp\ccnxErqW.s:10683  .debug_loclists:00000692 .LVUS2
C:\Users\kenne\AppData\Local\Temp\ccnxErqW.s:10715  .debug_loclists:000006b2 .LLST3
C:\Users\kenne\AppData\Local\Temp\ccnxErqW.s:10710  .debug_loclists:000006ae .LVUS3
C:\Users\kenne\AppData\Local\Temp\ccnxErqW.s:112    .text._ZN27Adafruit_Fingerprint_PacketC2EhjPh:00000050 .LVL5
C:\Users\kenne\AppData\Local\Temp\ccnxErqW.s:15     .text._Z7getTickv:00000000 .LFB32
C:\Users\kenne\AppData\Local\Temp\ccnxErqW.s:31     .text._Z7getTickv:00000008 .LFE32
C:\Users\kenne\AppData\Local\Temp\ccnxErqW.s:561    .text._ZN20Adafruit_Fingerprint19getStructuredPacketEP27Adafruit_Fingerprint_Packetj:00000000 .LVL38
C:\Users\kenne\AppData\Local\Temp\ccnxErqW.s:638    .text._ZN20Adafruit_Fingerprint19getStructuredPacketEP27Adafruit_Fingerprint_Packetj:0000003c .LVL39
C:\Users\kenne\AppData\Local\Temp\ccnxErqW.s:802    .text._ZN20Adafruit_Fingerprint19getStructuredPacketEP27Adafruit_Fingerprint_Packetj:00000100 .LVL49
C:\Users\kenne\AppData\Local\Temp\ccnxErqW.s:283    .text._ZN20Adafruit_Fingerprint21writeStructuredPacketERK27Adafruit_Fingerprint_Packet:00000000 .LVL14
C:\Users\kenne\AppData\Local\Temp\ccnxErqW.s:413    .text._ZN20Adafruit_Fingerprint21writeStructuredPacketERK27Adafruit_Fingerprint_Packet:00000098 .LVL24
C:\Users\kenne\AppData\Local\Temp\ccnxErqW.s:445    .text._ZN20Adafruit_Fingerprint21writeStructuredPacketERK27Adafruit_Fingerprint_Packet:000000c2 .LVL28
C:\Users\kenne\AppData\Local\Temp\ccnxErqW.s:3438   .text._ZN20Adafruit_Fingerprint13setPacketSizeEh:00000000 .LVL180
C:\Users\kenne\AppData\Local\Temp\ccnxErqW.s:3411   .text._ZN20Adafruit_Fingerprint16setSecurityLevelEh:00000000 .LVL177
C:\Users\kenne\AppData\Local\Temp\ccnxErqW.s:3378   .text._ZN20Adafruit_Fingerprint11setBaudRateEh:00000000 .LVL173
C:\Users\kenne\AppData\Local\Temp\ccnxErqW.s:3261   .text._ZN20Adafruit_Fingerprint13writeRegisterEhh:00000000 .LVL166
C:\Users\kenne\AppData\Local\Temp\ccnxErqW.s:3141   .text._ZN20Adafruit_Fingerprint11setPasswordEm:00000000 .LVL160
C:\Users\kenne\AppData\Local\Temp\ccnxErqW.s:3014   .text._ZN20Adafruit_Fingerprint16getTemplateCountEv:00000000 .LVL155
C:\Users\kenne\AppData\Local\Temp\ccnxErqW.s:2843   .text._ZN20Adafruit_Fingerprint12fingerSearchEh:00000000 .LVL149
GAS LISTING C:\Users\kenne\AppData\Local\Temp\ccnxErqW.s 			page 123


C:\Users\kenne\AppData\Local\Temp\ccnxErqW.s:2712   .text._ZN20Adafruit_Fingerprint10LEDcontrolEhhhh:00000000 .LVL139
C:\Users\kenne\AppData\Local\Temp\ccnxErqW.s:2527   .text._ZN20Adafruit_Fingerprint10LEDcontrolEb:00000000 .LVL127
C:\Users\kenne\AppData\Local\Temp\ccnxErqW.s:2362   .text._ZN20Adafruit_Fingerprint16fingerFastSearchEv:00000000 .LVL122
C:\Users\kenne\AppData\Local\Temp\ccnxErqW.s:2248   .text._ZN20Adafruit_Fingerprint13emptyDatabaseEv:00000000 .LVL117
C:\Users\kenne\AppData\Local\Temp\ccnxErqW.s:2128   .text._ZN20Adafruit_Fingerprint11deleteModelEj:00000000 .LVL111
C:\Users\kenne\AppData\Local\Temp\ccnxErqW.s:2018   .text._ZN20Adafruit_Fingerprint8getModelEv:00000000 .LVL106
C:\Users\kenne\AppData\Local\Temp\ccnxErqW.s:1900   .text._ZN20Adafruit_Fingerprint9loadModelEj:00000000 .LVL100
C:\Users\kenne\AppData\Local\Temp\ccnxErqW.s:1782   .text._ZN20Adafruit_Fingerprint10storeModelEj:00000000 .LVL94
C:\Users\kenne\AppData\Local\Temp\ccnxErqW.s:1674   .text._ZN20Adafruit_Fingerprint11createModelEv:00000000 .LVL89
C:\Users\kenne\AppData\Local\Temp\ccnxErqW.s:1561   .text._ZN20Adafruit_Fingerprint8image2TzEh:00000000 .LVL83
C:\Users\kenne\AppData\Local\Temp\ccnxErqW.s:1453   .text._ZN20Adafruit_Fingerprint8getImageEv:00000000 .LVL78
C:\Users\kenne\AppData\Local\Temp\ccnxErqW.s:1186   .text._ZN20Adafruit_Fingerprint13getParametersEv:00000000 .LVL73
C:\Users\kenne\AppData\Local\Temp\ccnxErqW.s:1031   .text._ZN20Adafruit_Fingerprint13checkPasswordEv:00000000 .LVL66
C:\Users\kenne\AppData\Local\Temp\ccnxErqW.s:1157   .text._ZN20Adafruit_Fingerprint14verifyPasswordEv:00000000 .LVL71
C:\Users\kenne\AppData\Local\Temp\ccnxErqW.s:221    .text._ZN20Adafruit_Fingerprint5beginEm:00000000 .LVL9
C:\Users\kenne\AppData\Local\Temp\ccnxErqW.s:233    .text._ZN20Adafruit_Fingerprint5beginEm:00000004 .LVL10
C:\Users\kenne\AppData\Local\Temp\ccnxErqW.s:141    .text._ZN20Adafruit_FingerprintC2EP6Usart0m:00000000 .LVL7
C:\Users\kenne\AppData\Local\Temp\ccnxErqW.s:37     .text._ZN27Adafruit_Fingerprint_PacketC2EhjPh:00000000 .LVL0
C:\Users\kenne\AppData\Local\Temp\ccnxErqW.s:3471   .debug_info:00000000 .Ldebug_info0
C:\Users\kenne\AppData\Local\Temp\ccnxErqW.s:2565   .text._ZN20Adafruit_Fingerprint10LEDcontrolEb:00000022 .LBB14
                           .group:00000000 _ZN27Adafruit_Fingerprint_PacketC5EhjPh

UNDEFINED SYMBOLS
memcpy
_ZN6Usart04initEv
_ZN6Usart05writeEj
_Z10sendstringPc
_ZN6Usart04readEPh
sprintf
__do_copy_data
