GAS LISTING C:\Users\kenne\AppData\Local\Temp\ccpPZdpD.s 			page 1


   1               		.file	"Adafruit_Fingerprint.cpp"
   2               	__SP_H__ = 0x3e
   3               	__SP_L__ = 0x3d
   4               	__SREG__ = 0x3f
   5               	__tmp_reg__ = 0
   6               	__zero_reg__ = 1
   7               		.text
   8               	.Ltext0:
   9               		.cfi_sections	.debug_frame
  10               		.file 0 "C:\\D\\IFSC\\MCC\\projects\\final_laptop" "Adafruit_Fingerprint.cpp"
  11               		.section	.text._Z7getTickv,"ax",@progbits
  12               		.weak	_Z7getTickv
  14               	_Z7getTickv:
  15               	.LFB32:
  16               		.file 1 "funsape/globalDefines.hpp"
   1:funsape/globalDefines.hpp **** //!
   2:funsape/globalDefines.hpp **** //! \file           globalDefines.hpp
   3:funsape/globalDefines.hpp **** //! \brief          Global definitions file
   4:funsape/globalDefines.hpp **** //! \author         Leandro Schwarz (bladabuska+funsapeavr8lib@gmail.com)
   5:funsape/globalDefines.hpp **** //! \date           2023-04-05
   6:funsape/globalDefines.hpp **** //! \version        23.04
   7:funsape/globalDefines.hpp **** //! \copyright      license
   8:funsape/globalDefines.hpp **** //! \details        Global definitions file.
   9:funsape/globalDefines.hpp **** //! \todo           Todo list
  10:funsape/globalDefines.hpp **** //!
  11:funsape/globalDefines.hpp **** 
  12:funsape/globalDefines.hpp **** // =============================================================================
  13:funsape/globalDefines.hpp **** // Include guard (START)
  14:funsape/globalDefines.hpp **** // =============================================================================
  15:funsape/globalDefines.hpp **** 
  16:funsape/globalDefines.hpp **** #ifndef __GLOBAL_DEFINES_HPP
  17:funsape/globalDefines.hpp **** #define __GLOBAL_DEFINES_HPP                    2304
  18:funsape/globalDefines.hpp **** 
  19:funsape/globalDefines.hpp **** // =============================================================================
  20:funsape/globalDefines.hpp **** // Basic definitions
  21:funsape/globalDefines.hpp **** // =============================================================================
  22:funsape/globalDefines.hpp **** 
  23:funsape/globalDefines.hpp **** #ifndef F_CPU
  24:funsape/globalDefines.hpp **** #   define F_CPU    16000000UL
  25:funsape/globalDefines.hpp **** #endif
  26:funsape/globalDefines.hpp **** 
  27:funsape/globalDefines.hpp **** // =============================================================================
  28:funsape/globalDefines.hpp **** // Dependencies
  29:funsape/globalDefines.hpp **** // =============================================================================
  30:funsape/globalDefines.hpp **** 
  31:funsape/globalDefines.hpp **** //     //////////////////     AVR STANDARD LIBRARY     //////////////////     //
  32:funsape/globalDefines.hpp **** #include <avr/io.h>
  33:funsape/globalDefines.hpp **** #include <avr/interrupt.h>
  34:funsape/globalDefines.hpp **** #include <util/delay.h>
  35:funsape/globalDefines.hpp **** #include <util/atomic.h>
  36:funsape/globalDefines.hpp **** 
  37:funsape/globalDefines.hpp **** //     ///////////////////     STANDARD C LIBRARY     ///////////////////     //
  38:funsape/globalDefines.hpp **** #include <stddef.h>
  39:funsape/globalDefines.hpp **** #include <stdint.h>
  40:funsape/globalDefines.hpp **** #include <stdio.h>
  41:funsape/globalDefines.hpp **** #include <stdlib.h>
  42:funsape/globalDefines.hpp **** #include <string.h>
GAS LISTING C:\Users\kenne\AppData\Local\Temp\ccpPZdpD.s 			page 2


  43:funsape/globalDefines.hpp **** 
  44:funsape/globalDefines.hpp **** //     //////////////////     LIBRARY DEPENDENCIES     //////////////////     //
  45:funsape/globalDefines.hpp **** #include "pinout.hpp"
  46:funsape/globalDefines.hpp **** #if !defined(__PINOUT_HPP)
  47:funsape/globalDefines.hpp **** #   error "Header file (pinout.hpp) is corrupted!"
  48:funsape/globalDefines.hpp **** #elif __PINOUT_HPP != __GLOBAL_DEFINES_HPP
  49:funsape/globalDefines.hpp **** #   error "Version mismatch between header file and library dependency (pinout.hpp)!"
  50:funsape/globalDefines.hpp **** #endif
  51:funsape/globalDefines.hpp **** 
  52:funsape/globalDefines.hpp **** // =============================================================================
  53:funsape/globalDefines.hpp **** // Undefining previous definitions
  54:funsape/globalDefines.hpp **** // =============================================================================
  55:funsape/globalDefines.hpp **** 
  56:funsape/globalDefines.hpp **** // NONE
  57:funsape/globalDefines.hpp **** 
  58:funsape/globalDefines.hpp **** // =============================================================================
  59:funsape/globalDefines.hpp **** // Constant definitions
  60:funsape/globalDefines.hpp **** // =============================================================================
  61:funsape/globalDefines.hpp **** 
  62:funsape/globalDefines.hpp **** #define inlined                         inline __attribute__((always_inline))
  63:funsape/globalDefines.hpp **** #define weakened                        __attribute__((weak))
  64:funsape/globalDefines.hpp **** 
  65:funsape/globalDefines.hpp **** // =============================================================================
  66:funsape/globalDefines.hpp **** // New data types
  67:funsape/globalDefines.hpp **** // =============================================================================
  68:funsape/globalDefines.hpp **** 
  69:funsape/globalDefines.hpp **** //     ////////////////////     BASIC VARIABLES     /////////////////////     //
  70:funsape/globalDefines.hpp **** typedef bool                            bool_t;
  71:funsape/globalDefines.hpp **** typedef char                            char_t;
  72:funsape/globalDefines.hpp **** 
  73:funsape/globalDefines.hpp **** //     ///////////////////     CONSTANT VARIABLES    ////////////////////     //
  74:funsape/globalDefines.hpp **** typedef const bool_t                    cbool_t;
  75:funsape/globalDefines.hpp **** typedef const char_t                    cchar_t;
  76:funsape/globalDefines.hpp **** typedef const int8_t                    cint8_t;
  77:funsape/globalDefines.hpp **** typedef const int16_t                   cint16_t;
  78:funsape/globalDefines.hpp **** typedef const int32_t                   cint32_t;
  79:funsape/globalDefines.hpp **** typedef const int64_t                   cint64_t;
  80:funsape/globalDefines.hpp **** typedef const uint8_t                   cuint8_t;
  81:funsape/globalDefines.hpp **** typedef const uint16_t                  cuint16_t;
  82:funsape/globalDefines.hpp **** typedef const uint32_t                  cuint32_t;
  83:funsape/globalDefines.hpp **** typedef const uint64_t                  cuint64_t;
  84:funsape/globalDefines.hpp **** 
  85:funsape/globalDefines.hpp **** //     ///////////////////     VOLATILE VARIABLES    ////////////////////     //
  86:funsape/globalDefines.hpp **** typedef volatile bool_t                 vbool_t;
  87:funsape/globalDefines.hpp **** typedef volatile char_t                 vchar_t;
  88:funsape/globalDefines.hpp **** typedef volatile int8_t                 vint8_t;
  89:funsape/globalDefines.hpp **** typedef volatile int16_t                vint16_t;
  90:funsape/globalDefines.hpp **** typedef volatile int32_t                vint32_t;
  91:funsape/globalDefines.hpp **** typedef volatile int64_t                vint64_t;
  92:funsape/globalDefines.hpp **** typedef volatile uint8_t                vuint8_t;
  93:funsape/globalDefines.hpp **** typedef volatile uint16_t               vuint16_t;
  94:funsape/globalDefines.hpp **** typedef volatile uint32_t               vuint32_t;
  95:funsape/globalDefines.hpp **** typedef volatile uint64_t               vuint64_t;
  96:funsape/globalDefines.hpp **** 
  97:funsape/globalDefines.hpp **** //     /////////////////     AVR PLATFORM VARIABLES    //////////////////     //
  98:funsape/globalDefines.hpp **** typedef int16_t                         int_t;          // 16-bit (AVR)
  99:funsape/globalDefines.hpp **** typedef uint16_t                        uint_t;         // 16-bit (AVR)
GAS LISTING C:\Users\kenne\AppData\Local\Temp\ccpPZdpD.s 			page 3


 100:funsape/globalDefines.hpp **** typedef cint16_t                        cint_t;         // 16-bit (AVR)
 101:funsape/globalDefines.hpp **** typedef cuint16_t                       cuint_t;        // 16-bit (AVR)
 102:funsape/globalDefines.hpp **** typedef vint16_t                        vint_t;         // 16-bit (AVR)
 103:funsape/globalDefines.hpp **** typedef vuint16_t                       vuint_t;        // 16-bit (AVR)
 104:funsape/globalDefines.hpp **** typedef uint8_t                         ioPinIndex_t;   // 8-bit (AVR)
 105:funsape/globalDefines.hpp **** typedef vuint8_t                       *ioRegAddress_t; // 8-bit address (AVR)
 106:funsape/globalDefines.hpp **** 
 107:funsape/globalDefines.hpp **** //     //////////////////     BINARY ENUMERATIONS     ///////////////////     //
 108:funsape/globalDefines.hpp **** enum class Activation : cbool_t {
 109:funsape/globalDefines.hpp ****     OFF                                 = false,
 110:funsape/globalDefines.hpp ****     ON                                  = true
 111:funsape/globalDefines.hpp **** };
 112:funsape/globalDefines.hpp **** 
 113:funsape/globalDefines.hpp **** enum class DisplayOrientation : cbool_t {
 114:funsape/globalDefines.hpp ****     LANDSCAPE                           = false,
 115:funsape/globalDefines.hpp ****     PORTRAIT                            = true
 116:funsape/globalDefines.hpp **** };
 117:funsape/globalDefines.hpp **** 
 118:funsape/globalDefines.hpp **** enum class DriverMode : cbool_t {
 119:funsape/globalDefines.hpp ****     PUSH_PULL                           = false,
 120:funsape/globalDefines.hpp ****     OPEN_DRAIN                          = true,
 121:funsape/globalDefines.hpp **** };
 122:funsape/globalDefines.hpp **** 
 123:funsape/globalDefines.hpp **** enum class Edge : cbool_t {
 124:funsape/globalDefines.hpp ****     FALLING                             = false,
 125:funsape/globalDefines.hpp ****     RISING                              = true
 126:funsape/globalDefines.hpp **** };
 127:funsape/globalDefines.hpp **** 
 128:funsape/globalDefines.hpp **** enum class IoOperation : cbool_t {
 129:funsape/globalDefines.hpp ****     WRITE                               = false,
 130:funsape/globalDefines.hpp ****     READ                                = true
 131:funsape/globalDefines.hpp **** };
 132:funsape/globalDefines.hpp **** 
 133:funsape/globalDefines.hpp **** enum class LogicLevel : cbool_t {
 134:funsape/globalDefines.hpp ****     LOW                                 = false,
 135:funsape/globalDefines.hpp ****     HIGH                                = true
 136:funsape/globalDefines.hpp **** };
 137:funsape/globalDefines.hpp **** 
 138:funsape/globalDefines.hpp **** enum class PinDirection : cbool_t {
 139:funsape/globalDefines.hpp ****     INPUT                               = false,
 140:funsape/globalDefines.hpp ****     OUTPUT                              = true,
 141:funsape/globalDefines.hpp **** };
 142:funsape/globalDefines.hpp **** 
 143:funsape/globalDefines.hpp **** enum class Rotation : cbool_t {
 144:funsape/globalDefines.hpp ****     CLOCKWISE                           = false,
 145:funsape/globalDefines.hpp ****     COUNTERCLOCKWISE                    = true
 146:funsape/globalDefines.hpp **** };
 147:funsape/globalDefines.hpp **** 
 148:funsape/globalDefines.hpp **** enum class State : cbool_t {
 149:funsape/globalDefines.hpp ****     OFF                                 = false,
 150:funsape/globalDefines.hpp ****     ON                                  = true
 151:funsape/globalDefines.hpp **** };
 152:funsape/globalDefines.hpp **** 
 153:funsape/globalDefines.hpp **** //     ///////////////////     PLAIN ENUMERATIONS    ////////////////////     //
 154:funsape/globalDefines.hpp **** enum class Axis : cuint8_t {
 155:funsape/globalDefines.hpp ****     //                                     Z-AXIS     Y-AXIS     X-AXIS
 156:funsape/globalDefines.hpp ****     NONE                                = (0 << 2) | (0 << 1) | (0 << 0),
GAS LISTING C:\Users\kenne\AppData\Local\Temp\ccpPZdpD.s 			page 4


 157:funsape/globalDefines.hpp ****     X                                   = (0 << 2) | (0 << 1) | (1 << 0),
 158:funsape/globalDefines.hpp ****     Y                                   = (0 << 2) | (1 << 1) | (0 << 0),
 159:funsape/globalDefines.hpp ****     XY                                  = (0 << 2) | (1 << 1) | (1 << 0),
 160:funsape/globalDefines.hpp ****     Z                                   = (1 << 2) | (0 << 1) | (0 << 0),
 161:funsape/globalDefines.hpp ****     XZ                                  = (1 << 2) | (0 << 1) | (1 << 0),
 162:funsape/globalDefines.hpp ****     YZ                                  = (1 << 2) | (1 << 1) | (0 << 0),
 163:funsape/globalDefines.hpp ****     ALL                                 = (1 << 2) | (1 << 1) | (1 << 0)
 164:funsape/globalDefines.hpp **** };
 165:funsape/globalDefines.hpp **** 
 166:funsape/globalDefines.hpp **** inlined Axis operator|(Axis a, Axis b)
 167:funsape/globalDefines.hpp **** {
 168:funsape/globalDefines.hpp ****     return static_cast<Axis>(static_cast<cint8_t>(a) | static_cast<uint8_t>(b));
 169:funsape/globalDefines.hpp **** }
 170:funsape/globalDefines.hpp **** 
 171:funsape/globalDefines.hpp **** inlined Axis &operator|=(Axis &a, Axis b)
 172:funsape/globalDefines.hpp **** {
 173:funsape/globalDefines.hpp ****     return a = static_cast<Axis>(static_cast<uint8_t>(a) | static_cast<uint8_t>(b));
 174:funsape/globalDefines.hpp **** }
 175:funsape/globalDefines.hpp **** 
 176:funsape/globalDefines.hpp **** inlined Axis operator&(Axis a, Axis b)
 177:funsape/globalDefines.hpp **** {
 178:funsape/globalDefines.hpp ****     return static_cast<Axis>(static_cast<uint8_t>(a) & static_cast<uint8_t>(b));
 179:funsape/globalDefines.hpp **** }
 180:funsape/globalDefines.hpp **** 
 181:funsape/globalDefines.hpp **** inlined Axis &operator&=(Axis &a, Axis b)
 182:funsape/globalDefines.hpp **** {
 183:funsape/globalDefines.hpp ****     return a = static_cast<Axis>(static_cast<uint8_t>(a) & static_cast<uint8_t>(b));
 184:funsape/globalDefines.hpp **** }
 185:funsape/globalDefines.hpp **** 
 186:funsape/globalDefines.hpp **** enum class Direction : cuint8_t {
 187:funsape/globalDefines.hpp ****     LEFT                                = 0,
 188:funsape/globalDefines.hpp ****     RIGHT                               = 1,
 189:funsape/globalDefines.hpp ****     UP                                  = 2,
 190:funsape/globalDefines.hpp ****     DOWN                                = 3
 191:funsape/globalDefines.hpp **** };
 192:funsape/globalDefines.hpp **** 
 193:funsape/globalDefines.hpp **** enum class InterfaceMode : cuint8_t {
 194:funsape/globalDefines.hpp ****     BLOCKING_MODE                       = 0,
 195:funsape/globalDefines.hpp ****     INTERRUPT_MODE                      = 1,
 196:funsape/globalDefines.hpp ****     DMA_MODE                            = 2
 197:funsape/globalDefines.hpp **** };
 198:funsape/globalDefines.hpp **** 
 199:funsape/globalDefines.hpp **** enum class ThermometricScale : cuint8_t {
 200:funsape/globalDefines.hpp ****     CELSIUS                             = 0,
 201:funsape/globalDefines.hpp ****     DELISLE                             = 1,
 202:funsape/globalDefines.hpp ****     FAHRENHEIT                          = 2,
 203:funsape/globalDefines.hpp ****     KELVIN                              = 3,
 204:funsape/globalDefines.hpp ****     NEWTON                              = 4,
 205:funsape/globalDefines.hpp ****     RANKINE                             = 5,
 206:funsape/globalDefines.hpp ****     REAUMUR                             = 6,
 207:funsape/globalDefines.hpp ****     ROMER                               = 7
 208:funsape/globalDefines.hpp **** };
 209:funsape/globalDefines.hpp **** 
 210:funsape/globalDefines.hpp **** enum class Error : cuint16_t {
 211:funsape/globalDefines.hpp ****     // General error codes
 212:funsape/globalDefines.hpp ****     NONE                                                = 0x0000,   // Success - No errors occurred
 213:funsape/globalDefines.hpp ****     AXIS_INVALID                                        = 0x0001,   // Invalid axis
GAS LISTING C:\Users\kenne\AppData\Local\Temp\ccpPZdpD.s 			page 5


 214:funsape/globalDefines.hpp ****     NOT_IMPLEMENTED                                     = 0x0002,   // Not implemented yet
 215:funsape/globalDefines.hpp ****     UNDER_DEVELOPMENT                                   = 0x0003,   // This part of the code is sti
 216:funsape/globalDefines.hpp ****     NOT_INITIALIZED                                     = 0x0004,   // Not initialized
 217:funsape/globalDefines.hpp ****     // BUSY                                                = 0x0005,   // TODO: Describe parameter
 218:funsape/globalDefines.hpp ****     // DEVICE_NOT_SUPPORTED                                = 0x0006,   // Device is not currently s
 219:funsape/globalDefines.hpp ****     FEATURE_NOT_SUPPORTED                               = 0x0007,   // Unsupported feature or confi
 220:funsape/globalDefines.hpp ****     // FUNCTION_POINTER_NULL                               = 0x0008,   // TODO: Describe parameter
 221:funsape/globalDefines.hpp ****     // INSTANCE_INVALID                                    = 0x0009,   // Invalid instance
 222:funsape/globalDefines.hpp ****     // LOCKED                                              = 0x000A,   // Accessed a locked device
 223:funsape/globalDefines.hpp ****     MEMORY_ALLOCATION                                   = 0x000B,   // Memory allocation failed
 224:funsape/globalDefines.hpp ****     // MODE_NOT_SUPPORTED                                  = 0x000C,   // Mode is not currently sup
 225:funsape/globalDefines.hpp ****     // NOT_READY                                           = 0x000D,   // TODO: Describe parameter
 226:funsape/globalDefines.hpp ****     // READ_PROTECTED                                      = 0x000E,   // Tried to read a read prot
 227:funsape/globalDefines.hpp ****     // WRITE_PROTECTED                                     = 0x000F,   // Tried to write a write pr
 228:funsape/globalDefines.hpp **** 
 229:funsape/globalDefines.hpp ****     // Function arguments related error codes
 230:funsape/globalDefines.hpp ****     ARGUMENT_CANNOT_BE_ZERO                             = 0x0010,   // TODO: Describe parameter
 231:funsape/globalDefines.hpp ****     ARGUMENT_POINTER_NULL                               = 0x0011,   // NULL pointer was passed as a
 232:funsape/globalDefines.hpp ****     ARGUMENT_VALUE_INVALID                              = 0x0012,   // TODO: Describe parameter
 233:funsape/globalDefines.hpp ****     // ARGUMENTS_MISMATCH                                  = 0x0013,   // A function was called wit
 234:funsape/globalDefines.hpp ****     // ARGUMENTS_WRONG_NUMBER                              = 0x0014,   // A function was called wit
 235:funsape/globalDefines.hpp ****     // ARGUMENT_GENERIC_ERROR_5                            = 0x0015,   // Generic error (use only o
 236:funsape/globalDefines.hpp ****     // ARGUMENT_GENERIC_ERROR_6                            = 0x0016,   // Generic error (use only o
 237:funsape/globalDefines.hpp ****     // ARGUMENT_GENERIC_ERROR_7                            = 0x0017,   // Generic error (use only o
 238:funsape/globalDefines.hpp ****     // ARGUMENT_GENERIC_ERROR_8                            = 0x0018,   // Generic error (use only o
 239:funsape/globalDefines.hpp ****     // ARGUMENT_GENERIC_ERROR_9                            = 0x0019,   // Generic error (use only o
 240:funsape/globalDefines.hpp ****     // ARGUMENT_GENERIC_ERROR_10                           = 0x001A,   // Generic error (use only o
 241:funsape/globalDefines.hpp ****     // ARGUMENT_GENERIC_ERROR_11                           = 0x001B,   // Generic error (use only o
 242:funsape/globalDefines.hpp ****     // ARGUMENT_GENERIC_ERROR_12                           = 0x001C,   // Generic error (use only o
 243:funsape/globalDefines.hpp ****     // ARGUMENT_GENERIC_ERROR_13                           = 0x001D,   // Generic error (use only o
 244:funsape/globalDefines.hpp ****     // ARGUMENT_GENERIC_ERROR_14                           = 0x001E,   // Generic error (use only o
 245:funsape/globalDefines.hpp ****     // ARGUMENT_GENERIC_ERROR                              = 0x001F,   // Generic error (use only o
 246:funsape/globalDefines.hpp **** 
 247:funsape/globalDefines.hpp ****     // Buffer related error codes
 248:funsape/globalDefines.hpp ****     // BUFFER_EMPTY                                        = 0x0020,   // Buffer is empty
 249:funsape/globalDefines.hpp ****     // BUFFER_FULL                                         = 0x0021,   // Buffer is full
 250:funsape/globalDefines.hpp ****     // BUFFER_NOT_ENOUGH_ELEMENTS                          = 0x0022,   // Not enough space in buffe
 251:funsape/globalDefines.hpp ****     // BUFFER_NOT_ENOUGH_SPACE                             = 0x0023,   // Not enough space in buffe
 252:funsape/globalDefines.hpp ****     // BUFFER_POINTER_NULL                                 = 0x0024,   // Buffer size was set to ze
 253:funsape/globalDefines.hpp ****     BUFFER_SIZE_TOO_LARGE                               = 0x0025,   // Buffer size was set to a lar
 254:funsape/globalDefines.hpp ****     BUFFER_SIZE_TOO_SMALL                               = 0x0026,   // Buffer size was set to a ver
 255:funsape/globalDefines.hpp ****     // BUFFER_SIZE_ZERO                                    = 0x0027,   // Buffer size was set to ze
 256:funsape/globalDefines.hpp ****     // BUFFER_GENERIC_ERROR_8                              = 0x0028,   // Generic error (use only o
 257:funsape/globalDefines.hpp ****     // BUFFER_GENERIC_ERROR_9                              = 0x0029,   // Generic error (use only o
 258:funsape/globalDefines.hpp ****     // BUFFER_GENERIC_ERROR_10                             = 0x002A,   // Generic error (use only o
 259:funsape/globalDefines.hpp ****     // BUFFER_GENERIC_ERROR_11                             = 0x002B,   // Generic error (use only o
 260:funsape/globalDefines.hpp ****     // BUFFER_GENERIC_ERROR_12                             = 0x002C,   // Generic error (use only o
 261:funsape/globalDefines.hpp ****     // BUFFER_GENERIC_ERROR_13                             = 0x002D,   // Generic error (use only o
 262:funsape/globalDefines.hpp ****     // BUFFER_GENERIC_ERROR_14                             = 0x002E,   // Generic error (use only o
 263:funsape/globalDefines.hpp ****     // BUFFER_GENERIC_ERROR_15                             = 0x002F,   // Generic error (use only o
 264:funsape/globalDefines.hpp **** 
 265:funsape/globalDefines.hpp ****     // Clock configuration related error codes
 266:funsape/globalDefines.hpp ****     CLOCK_PRESCALER_CHANGE_FAILED                       = 0x0030,   // Clock prescaler change faile
 267:funsape/globalDefines.hpp ****     CLOCK_PRESCALER_NOT_SUPPORTED                       = 0x0031,   // Clock prescaler configuratio
 268:funsape/globalDefines.hpp ****     CLOCK_SPEED_TOO_HIGH                                = 0x0032,   // TODO: Describe parameter
 269:funsape/globalDefines.hpp ****     CLOCK_SPEED_TOO_LOW                                 = 0x0033,   // TODO: Describe parameter
 270:funsape/globalDefines.hpp ****     // CLOCK_GENERIC_ERROR_4                               = 0x0034,   // Generic error (use only o
GAS LISTING C:\Users\kenne\AppData\Local\Temp\ccpPZdpD.s 			page 6


 271:funsape/globalDefines.hpp ****     // CLOCK_GENERIC_ERROR_5                               = 0x0035,   // Generic error (use only o
 272:funsape/globalDefines.hpp ****     // CLOCK_GENERIC_ERROR_6                               = 0x0036,   // Generic error (use only o
 273:funsape/globalDefines.hpp ****     // CLOCK_GENERIC_ERROR_7                               = 0x0037,   // Generic error (use only o
 274:funsape/globalDefines.hpp ****     // CLOCK_GENERIC_ERROR_8                               = 0x0038,   // Generic error (use only o
 275:funsape/globalDefines.hpp ****     // CLOCK_GENERIC_ERROR_9                               = 0x0039,   // Generic error (use only o
 276:funsape/globalDefines.hpp ****     // CLOCK_GENERIC_ERROR_10                              = 0x003A,   // Generic error (use only o
 277:funsape/globalDefines.hpp ****     // CLOCK_GENERIC_ERROR_11                              = 0x003B,   // Generic error (use only o
 278:funsape/globalDefines.hpp ****     // CLOCK_GENERIC_ERROR_12                              = 0x003C,   // Generic error (use only o
 279:funsape/globalDefines.hpp ****     // CLOCK_GENERIC_ERROR_13                              = 0x003D,   // Generic error (use only o
 280:funsape/globalDefines.hpp ****     // CLOCK_GENERIC_ERROR_14                              = 0x003E,   // Generic error (use only o
 281:funsape/globalDefines.hpp ****     // CLOCK_GENERIC_ERROR_15                              = 0x003F,   // Generic error (use only o
 282:funsape/globalDefines.hpp **** 
 283:funsape/globalDefines.hpp ****     // Communication related error codes
 284:funsape/globalDefines.hpp ****     COMMUNICATION_FAILED                                = 0x0040,   // TODO: Describe parameter
 285:funsape/globalDefines.hpp ****     COMMUNICATION_NO_DEVICE_SELECTED                    = 0x0041,   // TODO: Describe parameter
 286:funsape/globalDefines.hpp ****     // COMMUNICATION_PORT_NOT_SET                          = 0x0042,   // TODO: Describe parameter
 287:funsape/globalDefines.hpp ****     COMMUNICATION_TIMEOUT                               = 0x0043,   // The operation timed out
 288:funsape/globalDefines.hpp ****     // COMMUNICATION_DEVICE_ID_MATCH_FAILED                = 0x0044,   // TODO: Describe parameter
 289:funsape/globalDefines.hpp ****     // CHECKSUM_ERROR                                      = 0x0045,   // TODO: Describe parameter
 290:funsape/globalDefines.hpp ****     // FRAME_ERROR                                         = 0x0046,   // TODO: Describe parameter
 291:funsape/globalDefines.hpp ****     // PACKAGE_AWAITING                                    = 0x0047,   // Try to write data to a re
 292:funsape/globalDefines.hpp ****     // PACKAGE_NOT_READY                                   = 0x0048,   // Try to read data from a n
 293:funsape/globalDefines.hpp ****     // COMMUNICATION_GENERIC_ERROR_9                       = 0x0049,   // Generic error (use only o
 294:funsape/globalDefines.hpp ****     // COMMUNICATION_GENERIC_ERROR_10                      = 0x004A,   // Generic error (use only o
 295:funsape/globalDefines.hpp ****     // COMMUNICATION_GENERIC_ERROR_11                      = 0x004B,   // Generic error (use only o
 296:funsape/globalDefines.hpp ****     // COMMUNICATION_GENERIC_ERROR_12                      = 0x004C,   // Generic error (use only o
 297:funsape/globalDefines.hpp ****     // COMMUNICATION_GENERIC_ERROR_13                      = 0x004D,   // Generic error (use only o
 298:funsape/globalDefines.hpp ****     // COMMUNICATION_GENERIC_ERROR_14                      = 0x004E,   // Generic error (use only o
 299:funsape/globalDefines.hpp ****     // COMMUNICATION_GENERIC_ERROR_15                      = 0x004F,   // Generic error (use only o
 300:funsape/globalDefines.hpp **** 
 301:funsape/globalDefines.hpp ****     // DateTime class related error codes
 302:funsape/globalDefines.hpp ****     DATE_NOT_INITIALIZED                                = 0x0050,   // TODO: Describe parameter
 303:funsape/globalDefines.hpp ****     // HOUR_INVALID                                        = 0x0051,   // TODO: Describe parameter
 304:funsape/globalDefines.hpp ****     // MILLISECOND_INVALID                                 = 0x0052,   // TODO: Describe parameter
 305:funsape/globalDefines.hpp ****     // MINUTE_INVALID                                      = 0x0053,   // TODO: Describe parameter
 306:funsape/globalDefines.hpp ****     // MONTH_DAY_INVALID                                   = 0x0054,   // TODO: Describe parameter
 307:funsape/globalDefines.hpp ****     // MONTH_INVALID                                       = 0x0055,   // TODO: Describe parameter
 308:funsape/globalDefines.hpp ****     // SECOND_INVALID                                      = 0x0056,   // TODO: Describe parameter
 309:funsape/globalDefines.hpp ****     TIME_NOT_INITIALIZED                                = 0x0057,   // TODO: Describe parameter
 310:funsape/globalDefines.hpp ****     // TIMEZONE_INVALID                                    = 0x0058,   // TODO: Describe parameter
 311:funsape/globalDefines.hpp ****     // YEAR_INVALID                                        = 0x0059,   // TODO: Describe parameter
 312:funsape/globalDefines.hpp ****     DATE_INVALID                                        = 0x005A,   // TODO: Describe parameter
 313:funsape/globalDefines.hpp ****     TIME_INVALID                                        = 0x005B,   // TODO: Describe parameter
 314:funsape/globalDefines.hpp ****     // GENERIC_ERROR_13                                    = 0x005C,   // Generic error (use only o
 315:funsape/globalDefines.hpp ****     // GENERIC_ERROR_14                                    = 0x005D,   // Generic error (use only o
 316:funsape/globalDefines.hpp ****     // GENERIC_ERROR_15                                    = 0x005F,   // Generic error (use only o
 317:funsape/globalDefines.hpp **** 
 318:funsape/globalDefines.hpp ****     // Handler related error codes
 319:funsape/globalDefines.hpp ****     BUS_HANDLER_NOT_SUPPORTED                           = 0x0060,   // TODO: Describe parameter
 320:funsape/globalDefines.hpp ****     BUS_HANDLER_POINTER_NULL                            = 0x0061,   // TODO: Describe parameter
 321:funsape/globalDefines.hpp ****     // HANDLER_GENERIC_ERROR_2                             = 0x0062,   // Generic error (use only o
 322:funsape/globalDefines.hpp ****     // HANDLER_GENERIC_ERROR_3                             = 0x0063,   // Generic error (use only o
 323:funsape/globalDefines.hpp ****     // HANDLER_GENERIC_ERROR_4                             = 0x0064,   // Generic error (use only o
 324:funsape/globalDefines.hpp ****     // HANDLER_GENERIC_ERROR_5                             = 0x0065,   // Generic error (use only o
 325:funsape/globalDefines.hpp ****     // HANDLER_GENERIC_ERROR_6                             = 0x0066,   // Generic error (use only o
 326:funsape/globalDefines.hpp ****     // HANDLER_GENERIC_ERROR_7                             = 0x0067,   // Generic error (use only o
 327:funsape/globalDefines.hpp ****     // HANDLER_GENERIC_ERROR_8                             = 0x0068,   // Generic error (use only o
GAS LISTING C:\Users\kenne\AppData\Local\Temp\ccpPZdpD.s 			page 7


 328:funsape/globalDefines.hpp ****     // HANDLER_GENERIC_ERROR_9                             = 0x0069,   // Generic error (use only o
 329:funsape/globalDefines.hpp ****     // HANDLER_GENERIC_ERROR_10                            = 0x006A,   // Generic error (use only o
 330:funsape/globalDefines.hpp ****     // HANDLER_GENERIC_ERROR_11                            = 0x006B,   // Generic error (use only o
 331:funsape/globalDefines.hpp ****     // HANDLER_GENERIC_ERROR_12                            = 0x006C,   // Generic error (use only o
 332:funsape/globalDefines.hpp ****     // HANDLER_GENERIC_ERROR_13                            = 0x006D,   // Generic error (use only o
 333:funsape/globalDefines.hpp ****     // HANDLER_GENERIC_ERROR_14                            = 0x006E,   // Generic error (use only o
 334:funsape/globalDefines.hpp ****     // HANDLER_GENERIC_ERROR_15                            = 0x006F,   // Generic error (use only o
 335:funsape/globalDefines.hpp **** 
 336:funsape/globalDefines.hpp ****     // External interrupts related error codes
 337:funsape/globalDefines.hpp ****     // INTERRUPT_NOT_AVAILABLE                             = 0x0070,   // TODO: Describe parameter
 338:funsape/globalDefines.hpp ****     // INTERRUPT_PORT_OUTPUT_MODE_NOT_SUPPORTED            = 0x0071,   // TODO: Describe parameter
 339:funsape/globalDefines.hpp ****     // INTERRUPT_SENSE_MODE_NOT_SUPPORTED                  = 0x0072,   // TODO: Describe parameter
 340:funsape/globalDefines.hpp ****     // INTERRUPT_GENERIC_ERROR_3                           = 0x0073,   // Generic error (use only o
 341:funsape/globalDefines.hpp ****     // INTERRUPT_GENERIC_ERROR_4                           = 0x0074,   // Generic error (use only o
 342:funsape/globalDefines.hpp ****     // INTERRUPT_GENERIC_ERROR_5                           = 0x0075,   // Generic error (use only o
 343:funsape/globalDefines.hpp ****     // INTERRUPT_GENERIC_ERROR_6                           = 0x0076,   // Generic error (use only o
 344:funsape/globalDefines.hpp ****     // INTERRUPT_GENERIC_ERROR_7                           = 0x0077,   // Generic error (use only o
 345:funsape/globalDefines.hpp ****     // INTERRUPT_GENERIC_ERROR_8                           = 0x0078,   // Generic error (use only o
 346:funsape/globalDefines.hpp ****     // INTERRUPT_GENERIC_ERROR_9                           = 0x0079,   // Generic error (use only o
 347:funsape/globalDefines.hpp ****     // INTERRUPT_GENERIC_ERROR_10                          = 0x007A,   // Generic error (use only o
 348:funsape/globalDefines.hpp ****     // INTERRUPT_GENERIC_ERROR_11                          = 0x007B,   // Generic error (use only o
 349:funsape/globalDefines.hpp ****     // INTERRUPT_GENERIC_ERROR_12                          = 0x007C,   // Generic error (use only o
 350:funsape/globalDefines.hpp ****     // INTERRUPT_GENERIC_ERROR_13                          = 0x007D,   // Generic error (use only o
 351:funsape/globalDefines.hpp ****     // INTERRUPT_GENERIC_ERROR_14                          = 0x007E,   // Generic error (use only o
 352:funsape/globalDefines.hpp ****     // INTERRUPT_GENERIC_ERROR_15                          = 0x007F,   // Generic error (use only o
 353:funsape/globalDefines.hpp **** 
 354:funsape/globalDefines.hpp **** 
 355:funsape/globalDefines.hpp ****     // Package API class related error codes
 356:funsape/globalDefines.hpp ****     // PACKAGE_API_PACKAGE_DATA_FULL                       = 0x0080,   // TODO: Describe parameter
 357:funsape/globalDefines.hpp ****     // PACKAGE_API_PACKAGE_NOT_READY                       = 0x0081,   // TODO: Describe parameter
 358:funsape/globalDefines.hpp ****     // PACKAGE_API_PAYLOAD_DATA_NULL                       = 0x0082,   // TODO: Describe parameter
 359:funsape/globalDefines.hpp ****     // PACKAGE_API_PAYLOAD_SIZE_NULL                       = 0x0083,   // TODO: Describe parameter
 360:funsape/globalDefines.hpp ****     // PACKAGE_API_SOURCE_ADDRESS_INVALID                  = 0x0084,   // TODO: Describe parameter
 361:funsape/globalDefines.hpp ****     // PACKAGE_API_GENERIC_ERROR_5                         = 0x0085,   // Generic error (use only o
 362:funsape/globalDefines.hpp ****     // PACKAGE_API_GENERIC_ERROR_6                         = 0x0086,   // Generic error (use only o
 363:funsape/globalDefines.hpp ****     // PACKAGE_API_GENERIC_ERROR_7                         = 0x0087,   // Generic error (use only o
 364:funsape/globalDefines.hpp ****     // PACKAGE_API_GENERIC_ERROR_8                         = 0x0088,   // Generic error (use only o
 365:funsape/globalDefines.hpp ****     // PACKAGE_API_GENERIC_ERROR_9                         = 0x0089,   // Generic error (use only o
 366:funsape/globalDefines.hpp ****     // PACKAGE_API_GENERIC_ERROR_10                        = 0x008A,   // Generic error (use only o
 367:funsape/globalDefines.hpp ****     // PACKAGE_API_GENERIC_ERROR_11                        = 0x008B,   // Generic error (use only o
 368:funsape/globalDefines.hpp ****     // PACKAGE_API_GENERIC_ERROR_12                        = 0x008C,   // Generic error (use only o
 369:funsape/globalDefines.hpp ****     // PACKAGE_API_GENERIC_ERROR_13                        = 0x008D,   // Generic error (use only o
 370:funsape/globalDefines.hpp ****     // PACKAGE_API_GENERIC_ERROR_14                        = 0x008E,   // Generic error (use only o
 371:funsape/globalDefines.hpp ****     // PACKAGE_API_GENERIC_ERROR_15                        = 0x008F,   // Generic error (use only o
 372:funsape/globalDefines.hpp **** 
 373:funsape/globalDefines.hpp ****     // SPI related error codes
 374:funsape/globalDefines.hpp ****     // SPI_BUSY_FLAG                                       = 0x0090,   // TODO: Describe parameter
 375:funsape/globalDefines.hpp ****     // SPI_CRC                                             = 0x0091,   // TODO: Describe parameter
 376:funsape/globalDefines.hpp ****     // SPI_DMA                                             = 0x0092,   // TODO: Describe parameter
 377:funsape/globalDefines.hpp ****     // SPI_MODE_FAULT                                      = 0x0093,   // TODO: Describe parameter
 378:funsape/globalDefines.hpp ****     // SPI_OVERRUN                                         = 0x0094,   // TODO: Describe parameter
 379:funsape/globalDefines.hpp ****     // SPI_GENERIC_ERROR_5                                 = 0x0095,   // Generic error (use only o
 380:funsape/globalDefines.hpp ****     // SPI_GENERIC_ERROR_6                                 = 0x0096,   // Generic error (use only o
 381:funsape/globalDefines.hpp ****     // SPI_GENERIC_ERROR_7                                 = 0x0097,   // Generic error (use only o
 382:funsape/globalDefines.hpp ****     // SPI_GENERIC_ERROR_8                                 = 0x0098,   // Generic error (use only o
 383:funsape/globalDefines.hpp ****     // SPI_GENERIC_ERROR_9                                 = 0x0099,   // Generic error (use only o
 384:funsape/globalDefines.hpp ****     // SPI_GENERIC_ERROR_10                                = 0x009A,   // Generic error (use only o
GAS LISTING C:\Users\kenne\AppData\Local\Temp\ccpPZdpD.s 			page 8


 385:funsape/globalDefines.hpp ****     // SPI_GENERIC_ERROR_11                                = 0x009B,   // Generic error (use only o
 386:funsape/globalDefines.hpp ****     // SPI_GENERIC_ERROR_12                                = 0x009C,   // Generic error (use only o
 387:funsape/globalDefines.hpp ****     // SPI_GENERIC_ERROR_13                                = 0x009D,   // Generic error (use only o
 388:funsape/globalDefines.hpp ****     // SPI_GENERIC_ERROR_14                                = 0x009E,   // Generic error (use only o
 389:funsape/globalDefines.hpp ****     // SPI_GENERIC_ERROR_15                                = 0x009F,   // Generic error (use only o
 390:funsape/globalDefines.hpp **** 
 391:funsape/globalDefines.hpp ****     // TWI related error codes
 392:funsape/globalDefines.hpp ****     // TWI_AF_FLAG                                         = 0x00A0,   // TWI AF flag error
 393:funsape/globalDefines.hpp ****     // TWI_ARBITRATION_LOST                                = 0x00A1,   // TWI bus arbitration lost
 394:funsape/globalDefines.hpp ****     // TWI_BUS_ERROR                                       = 0x00A2,   // TWI bus error
 395:funsape/globalDefines.hpp ****     // TWI_DMA                                             = 0x00A3,   // DMA parameter error
 396:funsape/globalDefines.hpp ****     // TWI_DMA_PARAM                                       = 0x00A4,   // DMA transfer error
 397:funsape/globalDefines.hpp ****     // TWI_OVERRUN                                         = 0x00A5,   // TWI overrun
 398:funsape/globalDefines.hpp ****     // TWI_SIZE_MANAGEMENT_ERROR                           = 0x00A6,   // Size management error
 399:funsape/globalDefines.hpp ****     // TWI_INVALID_DEVICE_ADDRESS                          = 0x00A7,   // TODO: Describe parameter
 400:funsape/globalDefines.hpp ****     // TWI_GENERIC_ERROR_8                                 = 0x00A8,   // Generic error (use only o
 401:funsape/globalDefines.hpp ****     // TWI_GENERIC_ERROR_9                                 = 0x00A9,   // Generic error (use only o
 402:funsape/globalDefines.hpp ****     // TWI_GENERIC_ERROR_10                                = 0x00AA,   // Generic error (use only o
 403:funsape/globalDefines.hpp ****     // TWI_GENERIC_ERROR_11                                = 0x00AB,   // Generic error (use only o
 404:funsape/globalDefines.hpp ****     // TWI_GENERIC_ERROR_12                                = 0x00AC,   // Generic error (use only o
 405:funsape/globalDefines.hpp ****     // TWI_GENERIC_ERROR_13                                = 0x00AD,   // Generic error (use only o
 406:funsape/globalDefines.hpp ****     // TWI_GENERIC_ERROR_14                                = 0x00AE,   // Generic error (use only o
 407:funsape/globalDefines.hpp ****     // TWI_GENERIC_ERROR_15                                = 0x00AF,   // Generic error (use only o
 408:funsape/globalDefines.hpp **** 
 409:funsape/globalDefines.hpp ****     // USART related error codes
 410:funsape/globalDefines.hpp ****     USART_BAUD_RATE_NOT_SUPPORTED                       = 0x00B0,   // TODO: Describe parameter
 411:funsape/globalDefines.hpp ****     // USART_CONFIGURATION_PARAMETER_WRONG                 = 0x00B1,   // TODO: Describe parameter
 412:funsape/globalDefines.hpp ****     USART_DATA_SIZE_NOT_SUPPORTED                       = 0x00B2,   // TODO: Describe parameter
 413:funsape/globalDefines.hpp ****     USART_FRAME_FORMAT_NOT_SUPPORTED                    = 0x00B3,   // TODO: Describe parameter
 414:funsape/globalDefines.hpp ****     USART_PARITY_NOT_SUPPORTED                          = 0x00B4,   // TODO: Describe parameter
 415:funsape/globalDefines.hpp ****     USART_STOP_BIT_NOT_SUPPORTED                        = 0x00B5,   // TODO: Describe parameter
 416:funsape/globalDefines.hpp ****     USART_MODE_NOT_SUPPORTED                            = 0x00B6,   // TODO: Describe parameter
 417:funsape/globalDefines.hpp ****     // USART_GENERIC_ERROR_7                               = 0x00B7,   // Generic error (use only o
 418:funsape/globalDefines.hpp ****     // USART_GENERIC_ERROR_8                               = 0x00B8,   // Generic error (use only o
 419:funsape/globalDefines.hpp ****     // USART_GENERIC_ERROR_9                               = 0x00B9,   // Generic error (use only o
 420:funsape/globalDefines.hpp ****     // USART_GENERIC_ERROR_10                              = 0x00BA,   // Generic error (use only o
 421:funsape/globalDefines.hpp ****     // USART_GENERIC_ERROR_11                              = 0x00BB,   // Generic error (use only o
 422:funsape/globalDefines.hpp ****     // USART_GENERIC_ERROR_12                              = 0x00BC,   // Generic error (use only o
 423:funsape/globalDefines.hpp ****     // USART_GENERIC_ERROR_13                              = 0x00BD,   // Generic error (use only o
 424:funsape/globalDefines.hpp ****     // USART_GENERIC_ERROR_14                              = 0x00BE,   // Generic error (use only o
 425:funsape/globalDefines.hpp ****     // USART_GENERIC_ERROR_15                              = 0x00BF,   // Generic error (use only o
 426:funsape/globalDefines.hpp **** 
 427:funsape/globalDefines.hpp ****     // LCD related error codes
 428:funsape/globalDefines.hpp ****     // LCD_CONTROL_PORT_NOT_SET                            = 0x00C0,   // TODO: Describe parameter
 429:funsape/globalDefines.hpp ****     // LCD_CONTROL_PIN_E_INVALID                           = 0x00C1,   // TODO: Describe parameter
 430:funsape/globalDefines.hpp ****     // LCD_CONTROL_PIN_RS_INVALID                          = 0x00C2,   // TODO: Describe parameter
 431:funsape/globalDefines.hpp ****     // LCD_CONTROL_PIN_RW_INVALID                          = 0x00C3,   // TODO: Describe parameter
 432:funsape/globalDefines.hpp ****     // LCD_DATA_PORT_NOT_SET                               = 0x00C4,   // TODO: Describe parameter
 433:funsape/globalDefines.hpp ****     // LCD_DATA_PIN_INDEX_OUT_OF_BOUNDARIES                = 0x00C5,   // TODO: Describe parameter
 434:funsape/globalDefines.hpp ****     // LCD_GENERIC_ERROR_6                                 = 0x00C6,   // Generic error (use only o
 435:funsape/globalDefines.hpp ****     // LCD_GENERIC_ERROR_7                                 = 0x00C7,   // Generic error (use only o
 436:funsape/globalDefines.hpp ****     // LCD_GENERIC_ERROR_8                                 = 0x00C8,   // Generic error (use only o
 437:funsape/globalDefines.hpp ****     // LCD_GENERIC_ERROR_9                                 = 0x00C9,   // Generic error (use only o
 438:funsape/globalDefines.hpp ****     // LCD_GENERIC_ERROR_10                                = 0x00CA,   // Generic error (use only o
 439:funsape/globalDefines.hpp ****     // LCD_GENERIC_ERROR_11                                = 0x00CB,   // Generic error (use only o
 440:funsape/globalDefines.hpp ****     // LCD_GENERIC_ERROR_12                                = 0x00CC,   // Generic error (use only o
 441:funsape/globalDefines.hpp ****     // LCD_GENERIC_ERROR_13                                = 0x00CD,   // Generic error (use only o
GAS LISTING C:\Users\kenne\AppData\Local\Temp\ccpPZdpD.s 			page 9


 442:funsape/globalDefines.hpp ****     // LCD_GENERIC_ERROR_14                                = 0x00CE,   // Generic error (use only o
 443:funsape/globalDefines.hpp ****     // LCD_GENERIC_ERROR_15                                = 0x00CF,   // Generic error (use only o
 444:funsape/globalDefines.hpp **** 
 445:funsape/globalDefines.hpp ****     // GPIO related error codes
 446:funsape/globalDefines.hpp ****     GPIO_PORT_NOT_SET                                   = 0x00D0,   // Gpio port was not set before
 447:funsape/globalDefines.hpp ****     GPIO_DATA_PORT_NOT_SET                              = 0x00D1,   // Gpio data port was not set b
 448:funsape/globalDefines.hpp ****     GPIO_CONTROL_PORT_NOT_SET                           = 0x00D2,   // Gpio control port was not se
 449:funsape/globalDefines.hpp ****     GPIO_PORT_INVALID                                   = 0x00D3,   // Gpio port address is invalid
 450:funsape/globalDefines.hpp ****     GPIO_DATA_PORT_INVALID                              = 0x00D4,   // Gpio data port address is in
 451:funsape/globalDefines.hpp ****     GPIO_CONTROL_PORT_INVALID                           = 0x00D5,   // Gpio control port address is
 452:funsape/globalDefines.hpp ****     GPIO_PIN_INDEX_INVALID                              = 0x00D6,   // Invalid GPIO Pin
 453:funsape/globalDefines.hpp ****     GPIO_PIN_INDEX_OUT_OF_BOUNDARIES                    = 0x00D7,   // Gpio pin index was out of bo
 454:funsape/globalDefines.hpp ****     // GPIO_NO_PIN_SET                                     = 0x00D8,   // No pin selected at Gpio p
 455:funsape/globalDefines.hpp ****     // GPIO_ADDRESS_INVALID                                = 0x00D9,   // Invalid GPIO Port
 456:funsape/globalDefines.hpp ****     // GPIO_PORT_LOGIC_CONTENTION                          = 0x00DA,   // TODO: Describe parameter
 457:funsape/globalDefines.hpp ****     // GPIO_GENERIC_ERROR_11                               = 0x00DB,   // Generic error (use only o
 458:funsape/globalDefines.hpp ****     // GPIO_GENERIC_ERROR_12                               = 0x00DC,   // Generic error (use only o
 459:funsape/globalDefines.hpp ****     // GPIO_GENERIC_ERROR_13                               = 0x00DD,   // Generic error (use only o
 460:funsape/globalDefines.hpp ****     // GPIO_GENERIC_ERROR_14                               = 0x00DE,   // Generic error (use only o
 461:funsape/globalDefines.hpp ****     // GPIO_GENERIC_ERROR_15                               = 0x00DF,   // Generic error (use only o
 462:funsape/globalDefines.hpp **** 
 463:funsape/globalDefines.hpp ****     // HAL related error codes
 464:funsape/globalDefines.hpp ****     // HAL_UNKNOWN_ERROR                                   = 0x00E0,   // TODO: Describe parameter
 465:funsape/globalDefines.hpp ****     // HAL_STATUS_ERROR                                    = 0x00E1,   // TODO: Describe parameter
 466:funsape/globalDefines.hpp ****     // HAL_STATUS_BUSY                                     = 0x00E2,   // TODO: Describe parameter
 467:funsape/globalDefines.hpp ****     // HAL_STATUS_TIMEOUT                                  = 0x00E3,   // TODO: Describe parameter
 468:funsape/globalDefines.hpp ****     // HAL_GENERIC_ERROR_4                                 = 0x00E4,   // Generic error (use only o
 469:funsape/globalDefines.hpp ****     // HAL_GENERIC_ERROR_5                                 = 0x00E5,   // Generic error (use only o
 470:funsape/globalDefines.hpp ****     // HAL_GENERIC_ERROR_6                                 = 0x00E6,   // Generic error (use only o
 471:funsape/globalDefines.hpp ****     // HAL_GENERIC_ERROR_7                                 = 0x00E7,   // Generic error (use only o
 472:funsape/globalDefines.hpp ****     // HAL_GENERIC_ERROR_8                                 = 0x00E8,   // Generic error (use only o
 473:funsape/globalDefines.hpp ****     // HAL_GENERIC_ERROR_9                                 = 0x00E9,   // Generic error (use only o
 474:funsape/globalDefines.hpp ****     // HAL_GENERIC_ERROR_10                                = 0x00EA,   // Generic error (use only o
 475:funsape/globalDefines.hpp ****     // HAL_GENERIC_ERROR_11                                = 0x00EB,   // Generic error (use only o
 476:funsape/globalDefines.hpp ****     // HAL_GENERIC_ERROR_12                                = 0x00EC,   // Generic error (use only o
 477:funsape/globalDefines.hpp ****     // HAL_GENERIC_ERROR_13                                = 0x00ED,   // Generic error (use only o
 478:funsape/globalDefines.hpp ****     // HAL_GENERIC_ERROR_14                                = 0x00EE,   // Generic error (use only o
 479:funsape/globalDefines.hpp ****     // HAL_GENERIC_ERROR_15                                = 0x00EF,   // Generic error (use only o
 480:funsape/globalDefines.hpp **** 
 481:funsape/globalDefines.hpp ****     // System related error codes
 482:funsape/globalDefines.hpp ****     // SYSTEM_US_TIMER_HANDLER_NULL                        = 0x00F0,   // TODO: Describe parameter
 483:funsape/globalDefines.hpp ****     // SYSTEM_GENERIC_ERROR_1                              = 0x00F1,   // Generic error (use only o
 484:funsape/globalDefines.hpp ****     // SYSTEM_GENERIC_ERROR_2                              = 0x00F2,   // Generic error (use only o
 485:funsape/globalDefines.hpp ****     // SYSTEM_GENERIC_ERROR_3                              = 0x00F3,   // Generic error (use only o
 486:funsape/globalDefines.hpp ****     // SYSTEM_GENERIC_ERROR_4                              = 0x00F4,   // Generic error (use only o
 487:funsape/globalDefines.hpp ****     // SYSTEM_GENERIC_ERROR_5                              = 0x00F5,   // Generic error (use only o
 488:funsape/globalDefines.hpp ****     // SYSTEM_GENERIC_ERROR_6                              = 0x00F6,   // Generic error (use only o
 489:funsape/globalDefines.hpp ****     // SYSTEM_GENERIC_ERROR_7                              = 0x00F7,   // Generic error (use only o
 490:funsape/globalDefines.hpp ****     // SYSTEM_GENERIC_ERROR_8                              = 0x00F8,   // Generic error (use only o
 491:funsape/globalDefines.hpp ****     // SYSTEM_GENERIC_ERROR_9                              = 0x00F9,   // Generic error (use only o
 492:funsape/globalDefines.hpp ****     // SYSTEM_GENERIC_ERROR_10                             = 0x00FA,   // Generic error (use only o
 493:funsape/globalDefines.hpp ****     // SYSTEM_GENERIC_ERROR_11                             = 0x00FB,   // Generic error (use only o
 494:funsape/globalDefines.hpp ****     // SYSTEM_GENERIC_ERROR_12                             = 0x00FC,   // Generic error (use only o
 495:funsape/globalDefines.hpp ****     // SYSTEM_GENERIC_ERROR_13                             = 0x00FD,   // Generic error (use only o
 496:funsape/globalDefines.hpp ****     // SYSTEM_GENERIC_ERROR_14                             = 0x00FE,   // Generic error (use only o
 497:funsape/globalDefines.hpp ****     // SYSTEM_GENERIC_ERROR_15                             = 0x00FF,   // Generic error (use only o
 498:funsape/globalDefines.hpp **** 
GAS LISTING C:\Users\kenne\AppData\Local\Temp\ccpPZdpD.s 			page 10


 499:funsape/globalDefines.hpp ****     // FatFs related error codes
 500:funsape/globalDefines.hpp ****     // FAT_FS_UNKNOWN_ERROR                                = 0x0100,   // TODO: Describe parameter
 501:funsape/globalDefines.hpp ****     // FAT_FS_DRIVE_UNSUPPORTED                            = 0x0101,   // TODO: Describe parameter
 502:funsape/globalDefines.hpp ****     // FAT_FS_DISK_NOT_INSERTED                            = 0x0102,   // TODO: Describe parameter
 503:funsape/globalDefines.hpp ****     // FAT_FS_INITIALIZATION_FAILED                        = 0x0103,   // TODO: Describe parameter
 504:funsape/globalDefines.hpp ****     // FAT_FS_GENERIC_ERROR_4                              = 0x0104,   // Generic error (use only o
 505:funsape/globalDefines.hpp ****     // FAT_FS_GENERIC_ERROR_5                              = 0x0105,   // Generic error (use only o
 506:funsape/globalDefines.hpp ****     // FAT_FS_GENERIC_ERROR_6                              = 0x0106,   // Generic error (use only o
 507:funsape/globalDefines.hpp ****     // FAT_FS_GENERIC_ERROR_7                              = 0x0107,   // Generic error (use only o
 508:funsape/globalDefines.hpp ****     // FAT_FS_GENERIC_ERROR_8                              = 0x0108,   // Generic error (use only o
 509:funsape/globalDefines.hpp ****     // FAT_FS_GENERIC_ERROR_9                              = 0x0109,   // Generic error (use only o
 510:funsape/globalDefines.hpp ****     // FAT_FS_GENERIC_ERROR_10                             = 0x010A,   // Generic error (use only o
 511:funsape/globalDefines.hpp ****     // FAT_FS_GENERIC_ERROR_11                             = 0x010B,   // Generic error (use only o
 512:funsape/globalDefines.hpp ****     // FAT_FS_GENERIC_ERROR_12                             = 0x010C,   // Generic error (use only o
 513:funsape/globalDefines.hpp ****     // FAT_FS_GENERIC_ERROR_13                             = 0x010D,   // Generic error (use only o
 514:funsape/globalDefines.hpp ****     // FAT_FS_GENERIC_ERROR_14                             = 0x010E,   // Generic error (use only o
 515:funsape/globalDefines.hpp ****     // FAT_FS_GENERIC_ERROR_15                             = 0x010F,   // Generic error (use only o
 516:funsape/globalDefines.hpp **** 
 517:funsape/globalDefines.hpp ****     // Uncategorized error codes
 518:funsape/globalDefines.hpp ****     // LCD_OUT_OF_BOUNDARIES                               = 0xFFF1,   // TODO: Describe parameter
 519:funsape/globalDefines.hpp ****     // CONTROLLER_NOT_SUPPORTED                            = 0xFFF2,   // Unsupported controller
 520:funsape/globalDefines.hpp ****     // DEVICE_ID_MATCH_FAILED                              = 0xFFF3,   // Device ID doesn't match
 521:funsape/globalDefines.hpp ****     // DMA_NOT_SUPPORTED                                   = 0xFFF4,   // DMA interface mode is not
 522:funsape/globalDefines.hpp ****     // DMA_TRANSFER_ERROR                                  = 0xFFF5,   // DMA transfer error
 523:funsape/globalDefines.hpp ****     // MESSAGE_TOO_LONG                                    = 0xFFF6,   // Message is to long to be 
 524:funsape/globalDefines.hpp ****     // VALID_DATA_NOT_AVAILABLE                            = 0xFFF7,   // Valid data was unavailabl
 525:funsape/globalDefines.hpp ****     // PERIPHERAL_NOT_READY                                = 0xFFF8,   // TODO: Describe parameter
 526:funsape/globalDefines.hpp ****     // STOPWATCH_NOT_STARTED                               = 0xFFF9,   // TODO: Describe parameter
 527:funsape/globalDefines.hpp ****     // UNCATEGORIZED_GENERIC_ERROR_10                      = 0xFFFA,   // Generic error (use only o
 528:funsape/globalDefines.hpp ****     // UNCATEGORIZED_GENERIC_ERROR_11                      = 0xFFFB,   // Generic error (use only o
 529:funsape/globalDefines.hpp ****     // UNCATEGORIZED_GENERIC_ERROR_12                      = 0xFFFC,   // Generic error (use only o
 530:funsape/globalDefines.hpp ****     // UNCATEGORIZED_GENERIC_ERROR_13                      = 0xFFFD,   // Generic error (use only o
 531:funsape/globalDefines.hpp ****     // UNCATEGORIZED_GENERIC_ERROR_14                      = 0xFFFE,   // Generic error (use only o
 532:funsape/globalDefines.hpp **** 
 533:funsape/globalDefines.hpp ****     KEYPAD_COLUMNS_PIN_INDEX_INVALID                    = 0xFFF9,
 534:funsape/globalDefines.hpp ****     KEYPAD_LINES_PIN_INDEX_INVALID                      = 0xFFFA,
 535:funsape/globalDefines.hpp **** 
 536:funsape/globalDefines.hpp ****     KEYPAD_LINES_GPIO_PORT_INVALID                      = 0xFFFB,
 537:funsape/globalDefines.hpp ****     KEYPAD_COLUMNS_GPIO_PORT_INVALID                    = 0xFFFC,
 538:funsape/globalDefines.hpp ****     KEYPAD_TYPE_UNSUPPORTED                             = 0xFFFD,
 539:funsape/globalDefines.hpp ****     KEY_VALUES_NOT_SET                                  = 0xFFFE,
 540:funsape/globalDefines.hpp ****     // "I don't have the slightest idea" error code
 541:funsape/globalDefines.hpp ****     UNKNOWN                                             = 0xFFFF,   // Unknown error - Ops!!!!
 542:funsape/globalDefines.hpp **** };
 543:funsape/globalDefines.hpp **** 
 544:funsape/globalDefines.hpp **** // =============================================================================
 545:funsape/globalDefines.hpp **** // Macrofunctions
 546:funsape/globalDefines.hpp **** // =============================================================================
 547:funsape/globalDefines.hpp **** 
 548:funsape/globalDefines.hpp **** //     //////////////////////     DATA VALIDITY    //////////////////////     //
 549:funsape/globalDefines.hpp **** #define isGpioAddressValid(gpioPort)    (       \
 550:funsape/globalDefines.hpp ****         (IS_GPIO_ALL_INSTANCE(gpioPort))        \
 551:funsape/globalDefines.hpp ****         ? (bool_t)true                          \
 552:funsape/globalDefines.hpp ****         : (bool_t)false)
 553:funsape/globalDefines.hpp **** #define isGpioPinIndexValid(gpioPin)    (       \
 554:funsape/globalDefines.hpp ****         (IS_GPIO_ALL_PIN_NUMBER(gpioPin))       \
 555:funsape/globalDefines.hpp ****         ? (bool_t)true                          \
GAS LISTING C:\Users\kenne\AppData\Local\Temp\ccpPZdpD.s 			page 11


 556:funsape/globalDefines.hpp ****         : (bool_t)false)
 557:funsape/globalDefines.hpp **** #define isPointerValid(ptr)             (       \
 558:funsape/globalDefines.hpp ****         ((void *)(ptr))                         \
 559:funsape/globalDefines.hpp ****         ? (bool_t)true                          \
 560:funsape/globalDefines.hpp ****         : (bool_t)false)
 561:funsape/globalDefines.hpp **** 
 562:funsape/globalDefines.hpp **** //     //////////////////////     BIT HANDLING     //////////////////////     //
 563:funsape/globalDefines.hpp **** #ifndef setBit
 564:funsape/globalDefines.hpp **** #   define setBit(reg, bit)                     ((reg) |= (1 << (bit)))
 565:funsape/globalDefines.hpp **** #endif
 566:funsape/globalDefines.hpp **** #ifndef clrBit
 567:funsape/globalDefines.hpp **** #   define clrBit(reg, bit)                     ((reg) &= ~(1 << (bit)))
 568:funsape/globalDefines.hpp **** #endif
 569:funsape/globalDefines.hpp **** #ifndef cplBit
 570:funsape/globalDefines.hpp **** #   define cplBit(reg, bit)                     ((reg) ^= (1 << (bit)))
 571:funsape/globalDefines.hpp **** #endif
 572:funsape/globalDefines.hpp **** 
 573:funsape/globalDefines.hpp **** //     ///////////////////////     BIT TESTING    ///////////////////////     //
 574:funsape/globalDefines.hpp **** #ifndef isBitSet
 575:funsape/globalDefines.hpp **** #   define isBitSet(reg, bit)                   (((reg) >> (bit)) & 1)
 576:funsape/globalDefines.hpp **** #endif
 577:funsape/globalDefines.hpp **** #ifndef isBitClr
 578:funsape/globalDefines.hpp **** #   define isBitClr(reg, bit)                   (!isBitSet(reg,bit))
 579:funsape/globalDefines.hpp **** #endif
 580:funsape/globalDefines.hpp **** 
 581:funsape/globalDefines.hpp **** //     ///////////////////////     BIT LOOPING    ///////////////////////     //
 582:funsape/globalDefines.hpp **** #ifndef waitUntilBitIsSet
 583:funsape/globalDefines.hpp **** #   define waitUntilBitIsSet(reg, bit)          do{     \
 584:funsape/globalDefines.hpp ****         doNothing();                                    \
 585:funsape/globalDefines.hpp ****     } while (isBitClr((reg), (bit)))
 586:funsape/globalDefines.hpp **** #endif
 587:funsape/globalDefines.hpp **** #ifndef waitUntilBitIsClear
 588:funsape/globalDefines.hpp **** #   define waitUntilBitIsClear(reg, bit)        do{     \
 589:funsape/globalDefines.hpp ****         doNothing();                                    \
 590:funsape/globalDefines.hpp ****     }while(isBitSet((reg), (bit)))
 591:funsape/globalDefines.hpp **** #endif
 592:funsape/globalDefines.hpp **** 
 593:funsape/globalDefines.hpp **** //     ////////////////////     BIT MASK HANDLING    ////////////////////     //
 594:funsape/globalDefines.hpp **** #ifndef setMask
 595:funsape/globalDefines.hpp **** #   define setMask(reg, mask)                   ((reg) |= (mask))
 596:funsape/globalDefines.hpp **** #endif
 597:funsape/globalDefines.hpp **** #ifndef clrMask
 598:funsape/globalDefines.hpp **** #   define clrMask(reg, mask)                   ((reg) &= ~(mask))
 599:funsape/globalDefines.hpp **** #endif
 600:funsape/globalDefines.hpp **** #ifndef cplMask
 601:funsape/globalDefines.hpp **** #   define cplMask(reg, mask)                   ((reg) ^= (mask))
 602:funsape/globalDefines.hpp **** #endif
 603:funsape/globalDefines.hpp **** 
 604:funsape/globalDefines.hpp **** //     ////////////////     BIT MASK OFFSET HANDLING     ////////////////     //
 605:funsape/globalDefines.hpp **** #ifndef setMaskOffset
 606:funsape/globalDefines.hpp **** #   define setMaskOffset(reg, mask, offset)     ((reg) |= ((mask) << (offset)))
 607:funsape/globalDefines.hpp **** #endif
 608:funsape/globalDefines.hpp **** #ifndef clrMaskOffset
 609:funsape/globalDefines.hpp **** #   define clrMaskOffset(reg, mask, offset)     ((reg) &= ~((mask) << (offset)))
 610:funsape/globalDefines.hpp **** #endif
 611:funsape/globalDefines.hpp **** #ifndef cplMaskOffset
 612:funsape/globalDefines.hpp **** #   define cplMaskOffset(reg, mask, offset)     ((reg) ^= ((mask) << (offset)))
GAS LISTING C:\Users\kenne\AppData\Local\Temp\ccpPZdpD.s 			page 12


 613:funsape/globalDefines.hpp **** #endif
 614:funsape/globalDefines.hpp **** 
 615:funsape/globalDefines.hpp **** //     /////////////     DATA MANIPULATION (8-BITS WIDE)    /////////////     //
 616:funsape/globalDefines.hpp **** #define byteGetNibble1(dataByte)        (((dataByte) >> 4) & 0x0F)
 617:funsape/globalDefines.hpp **** #define byteGetNibble0(dataByte)        ((dataByte) & 0x0F)
 618:funsape/globalDefines.hpp **** #define byteSwitchNibbles(dataByte)     ((byteGetNibble0(dataByte) << 4) | \
 619:funsape/globalDefines.hpp ****         (byteGetNibble1(dataByte)))
 620:funsape/globalDefines.hpp **** 
 621:funsape/globalDefines.hpp **** //     ////////////     DATA MANIPULATION (16-BITS WIDE)     ////////////     //
 622:funsape/globalDefines.hpp **** #define hwordGetByte1(dataHword)        (((dataHword) >> 8) & 0x00FF)
 623:funsape/globalDefines.hpp **** #define hwordGetByte0(dataHword)        ((dataHword) & 0x00FF)
 624:funsape/globalDefines.hpp **** #define hwordSwitchBytes(dataHword)     ((hwordGetByte0(dataHword) << 8) | \
 625:funsape/globalDefines.hpp ****         (hwordGetByte1(dataHword)))
 626:funsape/globalDefines.hpp **** 
 627:funsape/globalDefines.hpp **** //     ////////////     DATA MANIPULATION (32-BITS WIDE)     ////////////     //
 628:funsape/globalDefines.hpp **** #define wordGetByte3(dataWord)          (((dataWord) >> 24) & 0x000000FF)
 629:funsape/globalDefines.hpp **** #define wordGetByte2(dataWord)          (((dataWord) >> 16) & 0x000000FF)
 630:funsape/globalDefines.hpp **** #define wordGetByte1(dataWord)          (((dataWord) >> 8) & 0x000000FF)
 631:funsape/globalDefines.hpp **** #define wordGetByte0(dataWord)          ((dataWord) & 0x000000FF)
 632:funsape/globalDefines.hpp **** #define wordSwitchBytes(dataWord)       ((wordGetByte0(dataWord) << 24)  | \
 633:funsape/globalDefines.hpp ****         (wordGetByte1(dataWord) << 16) | \
 634:funsape/globalDefines.hpp ****         (wordGetByte2(dataWord) << 8)  | \
 635:funsape/globalDefines.hpp ****         (wordGetByte3(dataWord)))
 636:funsape/globalDefines.hpp **** #define wordGetHword1(dataWord)         (((dataWord) >> 16) & 0x0000FFFF)
 637:funsape/globalDefines.hpp **** #define wordGetHword0(dataWord)         ((dataWord) & 0x0000FFFF)
 638:funsape/globalDefines.hpp **** #define wordSwitchHwords(dataWord)      ((wordGetHword0(dataWord) << 16) | \
 639:funsape/globalDefines.hpp ****         (wordGetHword1(dataWord)))
 640:funsape/globalDefines.hpp **** 
 641:funsape/globalDefines.hpp **** //     ////////////     DATA MANIPULATION (64-BITS WIDE)     ////////////     //
 642:funsape/globalDefines.hpp **** #define dwordGetByte7(dataDword)        (((dataDword) >> 56) & 0x00000000000000FF)
 643:funsape/globalDefines.hpp **** #define dwordGetByte6(dataDword)        (((dataDword) >> 48) & 0x00000000000000FF)
 644:funsape/globalDefines.hpp **** #define dwordGetByte5(dataDword)        (((dataDword) >> 40) & 0x00000000000000FF)
 645:funsape/globalDefines.hpp **** #define dwordGetByte4(dataDword)        (((dataDword) >> 32) & 0x00000000000000FF)
 646:funsape/globalDefines.hpp **** #define dwordGetByte3(dataDword)        (((dataDword) >> 24) & 0x00000000000000FF)
 647:funsape/globalDefines.hpp **** #define dwordGetByte2(dataDword)        (((dataDword) >> 16) & 0x00000000000000FF)
 648:funsape/globalDefines.hpp **** #define dwordGetByte1(dataDword)        (((dataDword) >> 8) & 0x00000000000000FF)
 649:funsape/globalDefines.hpp **** #define dwordGetByte0(dataDword)        ((dataDword) & 0x00000000000000FF)
 650:funsape/globalDefines.hpp **** #define dwordSwitchBytes(dataDword)     ((dwordGetByte0(dataDword) << 56)  | \
 651:funsape/globalDefines.hpp ****         (dwordGetByte1(dataDword) << 48) | \
 652:funsape/globalDefines.hpp ****         (dwordGetByte2(dataDword) << 40) | \
 653:funsape/globalDefines.hpp ****         (dwordGetByte3(dataDword) << 32) | \
 654:funsape/globalDefines.hpp ****         (dwordGetByte4(dataDword) << 24) | \
 655:funsape/globalDefines.hpp ****         (dwordGetByte5(dataDword) << 16) | \
 656:funsape/globalDefines.hpp ****         (dwordGetByte6(dataDword) << 8)  | \
 657:funsape/globalDefines.hpp ****         (dwordGetByte7(dataDword)))
 658:funsape/globalDefines.hpp **** #define dwordGetHword3(dataDword)       ((dataDword >> 48) & 0x000000000000FFFF)
 659:funsape/globalDefines.hpp **** #define dwordGetHword2(dataDword)       ((dataDword >> 32) & 0x000000000000FFFF)
 660:funsape/globalDefines.hpp **** #define dwordGetHword1(dataDword)       ((dataDword >> 16) & 0x000000000000FFFF)
 661:funsape/globalDefines.hpp **** #define dwordGetHword0(dataDword)       ((dataDword >> 0) & 0x000000000000FFFF)
 662:funsape/globalDefines.hpp **** #define dwordSwitchHwords(dataDword)    ((dwordGetHword0(dataDword) << 48)  | \
 663:funsape/globalDefines.hpp ****         (dwordGetHword1(dataDword) << 32) | \
 664:funsape/globalDefines.hpp ****         (dwordGetHword2(dataDword) << 16) | \
 665:funsape/globalDefines.hpp ****         (dwordGetHword3(dataDword)))
 666:funsape/globalDefines.hpp **** #define dwordGetWord1(dataDword)         (((dataDword) >> 32) & 0x00000000FFFFFFFF)
 667:funsape/globalDefines.hpp **** #define dwordGetWord0(dataDword)         ((dataDword) & 0x00000000FFFFFFFF)
 668:funsape/globalDefines.hpp **** #define dwordSwitchWords(dataDword)     ((dwordGetWord0(dataDword) << 32)  | \
 669:funsape/globalDefines.hpp ****         (dwordGetWord1(dataDword)))
GAS LISTING C:\Users\kenne\AppData\Local\Temp\ccpPZdpD.s 			page 13


 670:funsape/globalDefines.hpp **** 
 671:funsape/globalDefines.hpp **** //     /////////////////////     TRUNCATE VALUES    /////////////////////     //
 672:funsape/globalDefines.hpp **** #define getMaximumOf(var1, var2)        (       \
 673:funsape/globalDefines.hpp ****         ((var1) > (var2))                       \
 674:funsape/globalDefines.hpp ****         ? (var1)                                \
 675:funsape/globalDefines.hpp ****         : (var2))
 676:funsape/globalDefines.hpp **** #define getMinimumOf(var1, var2)        (       \
 677:funsape/globalDefines.hpp ****         ((var1) < (var2))                       \
 678:funsape/globalDefines.hpp ****         ? (var1)                                \
 679:funsape/globalDefines.hpp ****         : (var2))
 680:funsape/globalDefines.hpp **** #define truncateBetween(var, min, max)  (       \
 681:funsape/globalDefines.hpp ****         ((var) < (min))                         \
 682:funsape/globalDefines.hpp ****         ? (min)                                 \
 683:funsape/globalDefines.hpp ****         : (((var) > (max))                      \
 684:funsape/globalDefines.hpp ****                 ? (max)                         \
 685:funsape/globalDefines.hpp ****                 : (var)                         \
 686:funsape/globalDefines.hpp ****         ))
 687:funsape/globalDefines.hpp **** 
 688:funsape/globalDefines.hpp **** //     //////////////////////     STRINGIFYING    ///////////////////////     //
 689:funsape/globalDefines.hpp **** #define stringifyName(constant)         #constant
 690:funsape/globalDefines.hpp **** #define stringifyValue(constant)        stringifyName(constant)
 691:funsape/globalDefines.hpp **** 
 692:funsape/globalDefines.hpp **** // =============================================================================
 693:funsape/globalDefines.hpp **** // Extern global variables
 694:funsape/globalDefines.hpp **** // =============================================================================
 695:funsape/globalDefines.hpp **** 
 696:funsape/globalDefines.hpp **** // NONE
 697:funsape/globalDefines.hpp **** 
 698:funsape/globalDefines.hpp **** // =============================================================================
 699:funsape/globalDefines.hpp **** // Inline functions declaration
 700:funsape/globalDefines.hpp **** // =============================================================================
 701:funsape/globalDefines.hpp **** 
 702:funsape/globalDefines.hpp **** //     ///////////////////     CHARACTER HANDLING    ////////////////////     //
 703:funsape/globalDefines.hpp **** char_t inlined toLowerCase(cchar_t character_p);
 704:funsape/globalDefines.hpp **** char_t inlined toUpperCase(cchar_t character_p);
 705:funsape/globalDefines.hpp **** 
 706:funsape/globalDefines.hpp **** //     /////////////////////     DATA VALIDITY     //////////////////////     //
 707:funsape/globalDefines.hpp **** bool_t inlined isAsciiLowerCaseLetter(cchar_t character_p);
 708:funsape/globalDefines.hpp **** bool_t inlined isAsciiUpperCaseLetter(cchar_t character_p);
 709:funsape/globalDefines.hpp **** bool_t inlined isAsciiCommand(cchar_t character_p);
 710:funsape/globalDefines.hpp **** bool_t inlined isAsciiLetter(cchar_t character_p);
 711:funsape/globalDefines.hpp **** bool_t inlined isAsciiNumber(cchar_t character_p);
 712:funsape/globalDefines.hpp **** bool_t inlined isAsciiSymbol(cchar_t character_p);
 713:funsape/globalDefines.hpp **** 
 714:funsape/globalDefines.hpp **** //     /////////////////////     SYSTEM ACTIONS    //////////////////////     //
 715:funsape/globalDefines.hpp **** void inlined die(Error errorCode_p);
 716:funsape/globalDefines.hpp **** void inlined doNop(void);
 717:funsape/globalDefines.hpp **** void inlined doNothing(void);
 718:funsape/globalDefines.hpp **** void inlined systemHalt(void (*function_p)(void) = nullptr);
 719:funsape/globalDefines.hpp **** 
 720:funsape/globalDefines.hpp **** // =============================================================================
 721:funsape/globalDefines.hpp **** // Inline functions definitions
 722:funsape/globalDefines.hpp **** // =============================================================================
 723:funsape/globalDefines.hpp **** 
 724:funsape/globalDefines.hpp **** //     ///////////////////     CHARACTER HANDLING    ////////////////////     //
 725:funsape/globalDefines.hpp **** char_t inlined toLowerCase(cchar_t character_p)
 726:funsape/globalDefines.hpp **** {
GAS LISTING C:\Users\kenne\AppData\Local\Temp\ccpPZdpD.s 			page 14


 727:funsape/globalDefines.hpp ****     return ((isAsciiUpperCaseLetter(character_p)) ? (character_p + 0x20) : character_p);
 728:funsape/globalDefines.hpp **** }
 729:funsape/globalDefines.hpp **** 
 730:funsape/globalDefines.hpp **** char_t inlined toUpperCase(cchar_t character_p)
 731:funsape/globalDefines.hpp **** {
 732:funsape/globalDefines.hpp ****     return ((isAsciiLowerCaseLetter(character_p)) ? (character_p - 0x20) : character_p);
 733:funsape/globalDefines.hpp **** }
 734:funsape/globalDefines.hpp **** 
 735:funsape/globalDefines.hpp **** //     /////////////////////     DATA VALIDITY     //////////////////////     //
 736:funsape/globalDefines.hpp **** bool_t inlined isAsciiLowerCaseLetter(cchar_t character_p)
 737:funsape/globalDefines.hpp **** {
 738:funsape/globalDefines.hpp ****     return ((bool_t)(((character_p >= 'a') && (character_p <= 'z')) ? true : false));
 739:funsape/globalDefines.hpp **** }
 740:funsape/globalDefines.hpp **** 
 741:funsape/globalDefines.hpp **** bool_t inlined isAsciiUpperCaseLetter(cchar_t character_p)
 742:funsape/globalDefines.hpp **** {
 743:funsape/globalDefines.hpp ****     return ((bool_t)(((character_p >= 'A') && (character_p <= 'Z')) ? true : false));
 744:funsape/globalDefines.hpp **** }
 745:funsape/globalDefines.hpp **** 
 746:funsape/globalDefines.hpp **** bool_t inlined isAsciiCommand(cchar_t character_p)
 747:funsape/globalDefines.hpp **** {
 748:funsape/globalDefines.hpp ****     return ((bool_t)((character_p < ' ') ? true : false));
 749:funsape/globalDefines.hpp **** }
 750:funsape/globalDefines.hpp **** 
 751:funsape/globalDefines.hpp **** bool_t inlined isAsciiLetter(cchar_t character_p)
 752:funsape/globalDefines.hpp **** {
 753:funsape/globalDefines.hpp ****     return ((bool_t)((isAsciiLowerCaseLetter(character_p) || (isAsciiUpperCaseLetter(character_p)) 
 754:funsape/globalDefines.hpp **** }
 755:funsape/globalDefines.hpp **** 
 756:funsape/globalDefines.hpp **** bool_t inlined isAsciiNumber(cchar_t character_p)
 757:funsape/globalDefines.hpp **** {
 758:funsape/globalDefines.hpp ****     return ((bool_t)(((character_p >= '0') && (character_p <= '9')) ? true : false));
 759:funsape/globalDefines.hpp **** }
 760:funsape/globalDefines.hpp **** 
 761:funsape/globalDefines.hpp **** bool_t inlined isAsciiSymbol(cchar_t character_p)
 762:funsape/globalDefines.hpp **** {
 763:funsape/globalDefines.hpp ****     return ((bool_t)(((!isAsciiNumber(character_p)) && (!isAsciiCommand(character_p)) &&
 764:funsape/globalDefines.hpp ****                                     (!isAsciiLetter(character_p))) ? true : false));
 765:funsape/globalDefines.hpp **** }
 766:funsape/globalDefines.hpp **** 
 767:funsape/globalDefines.hpp **** //     /////////////////////     SYSTEM ACTIONS    //////////////////////     //
 768:funsape/globalDefines.hpp **** void inlined die(Error errorCode_p)
 769:funsape/globalDefines.hpp **** {
 770:funsape/globalDefines.hpp ****     printf("Failed with error=%u (0x%04x).\r", (cuint16_t)errorCode_p, (cuint16_t)errorCode_p);
 771:funsape/globalDefines.hpp ****     systemHalt();
 772:funsape/globalDefines.hpp **** 
 773:funsape/globalDefines.hpp ****     return;
 774:funsape/globalDefines.hpp **** }
 775:funsape/globalDefines.hpp **** 
 776:funsape/globalDefines.hpp **** void inlined doNop(void)
 777:funsape/globalDefines.hpp **** {
 778:funsape/globalDefines.hpp ****     asm volatile("nop");
 779:funsape/globalDefines.hpp **** 
 780:funsape/globalDefines.hpp ****     return;
 781:funsape/globalDefines.hpp **** }
 782:funsape/globalDefines.hpp **** 
 783:funsape/globalDefines.hpp **** void inlined doNothing(void)
GAS LISTING C:\Users\kenne\AppData\Local\Temp\ccpPZdpD.s 			page 15


 784:funsape/globalDefines.hpp **** {
 785:funsape/globalDefines.hpp ****     return;
 786:funsape/globalDefines.hpp **** }
 787:funsape/globalDefines.hpp **** 
 788:funsape/globalDefines.hpp **** void inlined systemHalt(void (*function_p)(void))
 789:funsape/globalDefines.hpp **** {
 790:funsape/globalDefines.hpp ****     if(isPointerValid(function_p)) {
 791:funsape/globalDefines.hpp ****         function_p();
 792:funsape/globalDefines.hpp ****     }
 793:funsape/globalDefines.hpp ****     while(1) {
 794:funsape/globalDefines.hpp ****         doNothing();
 795:funsape/globalDefines.hpp ****     }
 796:funsape/globalDefines.hpp **** 
 797:funsape/globalDefines.hpp ****     return;
 798:funsape/globalDefines.hpp **** }
 799:funsape/globalDefines.hpp **** 
 800:funsape/globalDefines.hpp **** // =============================================================================
 801:funsape/globalDefines.hpp **** // Public functions weakly defined
 802:funsape/globalDefines.hpp **** // =============================================================================
 803:funsape/globalDefines.hpp **** 
 804:funsape/globalDefines.hpp **** #define delayMs(time_p)                 _delay_ms(time_p)
 805:funsape/globalDefines.hpp **** #define delayUs(time_p)                 _delay_us(time_p)
 806:funsape/globalDefines.hpp **** 
 807:funsape/globalDefines.hpp **** weakened uint32_t getTick(void)
 808:funsape/globalDefines.hpp **** {
  17               		.loc 1 808 1 view -0
  18               		.cfi_startproc
  19               	/* prologue: function */
  20               	/* frame size = 0 */
  21               	/* stack size = 0 */
  22               	.L__stack_usage = 0
 809:funsape/globalDefines.hpp ****     // TODO
 810:funsape/globalDefines.hpp ****     return 0;
  23               		.loc 1 810 5 view .LVU1
 811:funsape/globalDefines.hpp **** }
  24               		.loc 1 811 1 is_stmt 0 view .LVU2
  25 0000 60E0      		ldi r22,0
  26 0002 70E0      		ldi r23,0
  27 0004 CB01      		movw r24,r22
  28               	/* epilogue start */
  29 0006 0895      		ret
  30               		.cfi_endproc
  31               	.LFE32:
  33               		.section	.text._ZN27Adafruit_Fingerprint_PacketC2EhjPh,"axG",@progbits,_ZN27Adafruit_Fingerprint_P
  34               		.weak	_ZN27Adafruit_Fingerprint_PacketC2EhjPh
  36               	_ZN27Adafruit_Fingerprint_PacketC2EhjPh:
  37               	.LVL0:
  38               	.LFB55:
  39               		.file 2 "Adafruit_Fingerprint.h"
   1:Adafruit_Fingerprint.h **** #ifndef ADAFRUIT_FINGERPRINT_H
   2:Adafruit_Fingerprint.h **** #define ADAFRUIT_FINGERPRINT_H
   3:Adafruit_Fingerprint.h **** #endif
   4:Adafruit_Fingerprint.h **** 
   5:Adafruit_Fingerprint.h **** #include "funsape/globalDefines.hpp"
   6:Adafruit_Fingerprint.h **** #include "funsape/peripheral/usart0.hpp"
   7:Adafruit_Fingerprint.h **** /*!
   8:Adafruit_Fingerprint.h ****  * @file Adafruit_Fingerprint.h
GAS LISTING C:\Users\kenne\AppData\Local\Temp\ccpPZdpD.s 			page 16


   9:Adafruit_Fingerprint.h ****  */
  10:Adafruit_Fingerprint.h **** 
  11:Adafruit_Fingerprint.h **** 
  12:Adafruit_Fingerprint.h **** 
  13:Adafruit_Fingerprint.h **** 
  14:Adafruit_Fingerprint.h **** #define FINGERPRINT_OK 0x00               //!< Command execution is complete
  15:Adafruit_Fingerprint.h **** #define FINGERPRINT_PACKETRECIEVEERR 0x01 //!< Error when receiving data package
  16:Adafruit_Fingerprint.h **** #define FINGERPRINT_NOFINGER 0x02         //!< No finger on the sensor
  17:Adafruit_Fingerprint.h **** #define FINGERPRINT_IMAGEFAIL 0x03        //!< Failed to enroll the finger
  18:Adafruit_Fingerprint.h **** #define FINGERPRINT_IMAGEMESS                                                  \
  19:Adafruit_Fingerprint.h ****   0x06 //!< Failed to generate character file due to overly disorderly
  20:Adafruit_Fingerprint.h ****        //!< fingerprint image
  21:Adafruit_Fingerprint.h **** #define FINGERPRINT_FEATUREFAIL                                                \
  22:Adafruit_Fingerprint.h ****   0x07 //!< Failed to generate character file due to the lack of character point
  23:Adafruit_Fingerprint.h ****        //!< or small fingerprint image
  24:Adafruit_Fingerprint.h **** #define FINGERPRINT_NOMATCH 0x08  //!< Finger doesn't match
  25:Adafruit_Fingerprint.h **** #define FINGERPRINT_NOTFOUND 0x09 //!< Failed to find matching finger
  26:Adafruit_Fingerprint.h **** #define FINGERPRINT_ENROLLMISMATCH                                             \
  27:Adafruit_Fingerprint.h ****   0x0A //!< Failed to combine the character files
  28:Adafruit_Fingerprint.h **** #define FINGERPRINT_BADLOCATION                                                \
  29:Adafruit_Fingerprint.h ****   0x0B //!< Addressed PageID is beyond the finger library
  30:Adafruit_Fingerprint.h **** #define FINGERPRINT_DBRANGEFAIL                                                \
  31:Adafruit_Fingerprint.h ****   0x0C //!< Error when reading template from library or invalid template
  32:Adafruit_Fingerprint.h **** #define FINGERPRINT_UPLOADFEATUREFAIL 0x0D //!< Error when uploading template
  33:Adafruit_Fingerprint.h **** #define FINGERPRINT_PACKETRESPONSEFAIL                                         \
  34:Adafruit_Fingerprint.h ****   0x0E //!< Module failed to receive the following data packages
  35:Adafruit_Fingerprint.h **** #define FINGERPRINT_UPLOADFAIL 0x0F  //!< Error when uploading image
  36:Adafruit_Fingerprint.h **** #define FINGERPRINT_DELETEFAIL 0x10  //!< Failed to delete the template
  37:Adafruit_Fingerprint.h **** #define FINGERPRINT_DBCLEARFAIL 0x11 //!< Failed to clear finger library
  38:Adafruit_Fingerprint.h **** #define FINGERPRINT_PASSFAIL                                                   \
  39:Adafruit_Fingerprint.h ****   0x13 //!< Find whether the fingerprint passed or failed
  40:Adafruit_Fingerprint.h **** #define FINGERPRINT_INVALIDIMAGE                                               \
  41:Adafruit_Fingerprint.h ****   0x15 //!< Failed to generate image because of lac of valid primary image
  42:Adafruit_Fingerprint.h **** #define FINGERPRINT_FLASHERR 0x18   //!< Error when writing flash
  43:Adafruit_Fingerprint.h **** #define FINGERPRINT_INVALIDREG 0x1A //!< Invalid register number
  44:Adafruit_Fingerprint.h **** #define FINGERPRINT_ADDRCODE 0x20   //!< Address code
  45:Adafruit_Fingerprint.h **** #define FINGERPRINT_PASSVERIFY 0x21 //!< Verify the fingerprint passed
  46:Adafruit_Fingerprint.h **** #define FINGERPRINT_STARTCODE                                                  \
  47:Adafruit_Fingerprint.h ****   0xEF01 //!< Fixed falue of EF01H; High byte transferred first
  48:Adafruit_Fingerprint.h **** 
  49:Adafruit_Fingerprint.h **** #define FINGERPRINT_COMMANDPACKET 0x1 //!< Command packet
  50:Adafruit_Fingerprint.h **** #define FINGERPRINT_DATAPACKET                                                 \
  51:Adafruit_Fingerprint.h ****   0x2 //!< Data packet, must follow command packet or acknowledge packet
  52:Adafruit_Fingerprint.h **** #define FINGERPRINT_ACKPACKET 0x7     //!< Acknowledge packet
  53:Adafruit_Fingerprint.h **** #define FINGERPRINT_ENDDATAPACKET 0x8 //!< End of data packet
  54:Adafruit_Fingerprint.h **** 
  55:Adafruit_Fingerprint.h **** #define FINGERPRINT_TIMEOUT 0xFF   //!< Timeout was reached
  56:Adafruit_Fingerprint.h **** #define FINGERPRINT_BADPACKET 0xFE //!< Bad packet was sent
  57:Adafruit_Fingerprint.h **** 
  58:Adafruit_Fingerprint.h **** #define FINGERPRINT_GETIMAGE 0x01 //!< Collect finger image
  59:Adafruit_Fingerprint.h **** #define FINGERPRINT_IMAGE2TZ 0x02 //!< Generate character file from image
  60:Adafruit_Fingerprint.h **** #define FINGERPRINT_SEARCH 0x04   //!< Search for fingerprint in slot
  61:Adafruit_Fingerprint.h **** #define FINGERPRINT_REGMODEL                                                   \
  62:Adafruit_Fingerprint.h ****   0x05 //!< Combine character files and generate template
  63:Adafruit_Fingerprint.h **** #define FINGERPRINT_STORE 0x06          //!< Store template
  64:Adafruit_Fingerprint.h **** #define FINGERPRINT_LOAD 0x07           //!< Read/load template
  65:Adafruit_Fingerprint.h **** #define FINGERPRINT_UPLOAD 0x08         //!< Upload template
GAS LISTING C:\Users\kenne\AppData\Local\Temp\ccpPZdpD.s 			page 17


  66:Adafruit_Fingerprint.h **** #define FINGERPRINT_DELETE 0x0C         //!< Delete templates
  67:Adafruit_Fingerprint.h **** #define FINGERPRINT_EMPTY 0x0D          //!< Empty library
  68:Adafruit_Fingerprint.h **** #define FINGERPRINT_READSYSPARAM 0x0F   //!< Read system parameters
  69:Adafruit_Fingerprint.h **** #define FINGERPRINT_SETPASSWORD 0x12    //!< Sets passwords
  70:Adafruit_Fingerprint.h **** #define FINGERPRINT_VERIFYPASSWORD 0x13 //!< Verifies the password
  71:Adafruit_Fingerprint.h **** #define FINGERPRINT_HISPEEDSEARCH                                              \
  72:Adafruit_Fingerprint.h ****   0x1B //!< Asks the sensor to search for a matching fingerprint template to the
  73:Adafruit_Fingerprint.h ****        //!< last model generated
  74:Adafruit_Fingerprint.h **** #define FINGERPRINT_TEMPLATECOUNT 0x1D //!< Read finger template numbers
  75:Adafruit_Fingerprint.h **** #define FINGERPRINT_AURALEDCONFIG 0x35 //!< Aura LED control
  76:Adafruit_Fingerprint.h **** #define FINGERPRINT_LEDON 0x50         //!< Turn on the onboard LED
  77:Adafruit_Fingerprint.h **** #define FINGERPRINT_LEDOFF 0x51        //!< Turn off the onboard LED
  78:Adafruit_Fingerprint.h **** 
  79:Adafruit_Fingerprint.h **** #define FINGERPRINT_LED_BREATHING 0x01   //!< Breathing light
  80:Adafruit_Fingerprint.h **** #define FINGERPRINT_LED_FLASHING 0x02    //!< Flashing light
  81:Adafruit_Fingerprint.h **** #define FINGERPRINT_LED_ON 0x03          //!< Always on
  82:Adafruit_Fingerprint.h **** #define FINGERPRINT_LED_OFF 0x04         //!< Always off
  83:Adafruit_Fingerprint.h **** #define FINGERPRINT_LED_GRADUAL_ON 0x05  //!< Gradually on
  84:Adafruit_Fingerprint.h **** #define FINGERPRINT_LED_GRADUAL_OFF 0x06 //!< Gradually off
  85:Adafruit_Fingerprint.h **** #define FINGERPRINT_LED_RED 0x01         //!< Red LED
  86:Adafruit_Fingerprint.h **** #define FINGERPRINT_LED_BLUE 0x02        //!< Blue LED
  87:Adafruit_Fingerprint.h **** #define FINGERPRINT_LED_PURPLE 0x03      //!< Purple LEDpassword
  88:Adafruit_Fingerprint.h **** 
  89:Adafruit_Fingerprint.h **** #define FINGERPRINT_REG_ADDR_ERROR 0x1A //!< shows register address error
  90:Adafruit_Fingerprint.h **** #define FINGERPRINT_WRITE_REG 0x0E      //!< Write system register instruction
  91:Adafruit_Fingerprint.h **** 
  92:Adafruit_Fingerprint.h **** #define FINGERPRINT_BAUD_REG_ADDR 0x4   //!< BAUDRATE register address
  93:Adafruit_Fingerprint.h **** #define FINGERPRINT_BAUDRATE_9600 0x1   //!< UART baud 9600
  94:Adafruit_Fingerprint.h **** #define FINGERPRINT_BAUDRATE_19200 0x2  //!< UART baud 19200
  95:Adafruit_Fingerprint.h **** #define FINGERPRINT_BAUDRATE_28800 0x3  //!< UART baud 28800
  96:Adafruit_Fingerprint.h **** #define FINGERPRINT_BAUDRATE_38400 0x4  //!< UART baud 38400
  97:Adafruit_Fingerprint.h **** #define FINGERPRINT_BAUDRATE_48000 0x5  //!< UART baud 48000
  98:Adafruit_Fingerprint.h **** #define FINGERPRINT_BAUDRATE_57600 0x6  //!< UART baud 57600
  99:Adafruit_Fingerprint.h **** #define FINGERPRINT_BAUDRATE_67200 0x7  //!< UART baud 67200
 100:Adafruit_Fingerprint.h **** #define FINGERPRINT_BAUDRATE_76800 0x8  //!< UART baud 76800
 101:Adafruit_Fingerprint.h **** #define FINGERPRINT_BAUDRATE_86400 0x9  //!< UART baud 86400
 102:Adafruit_Fingerprint.h **** #define FINGERPRINT_BAUDRATE_96000 0xA  //!< UART baud 96000
 103:Adafruit_Fingerprint.h **** #define FINGERPRINT_BAUDRATE_105600 0xB //!< UART baud 105600
 104:Adafruit_Fingerprint.h **** #define FINGERPRINT_BAUDRATE_115200 0xC //!< UART baud 115200
 105:Adafruit_Fingerprint.h **** 
 106:Adafruit_Fingerprint.h **** #define FINGERPRINT_SECURITY_REG_ADDR 0x5 //!< Security level register address
 107:Adafruit_Fingerprint.h **** // The safety level is 1 The highest rate of false recognition , The rejection
 108:Adafruit_Fingerprint.h **** // rate is the lowest . The safety level is 5 The lowest tate of false
 109:Adafruit_Fingerprint.h **** // recognition, The rejection rate is the highest .
 110:Adafruit_Fingerprint.h **** #define FINGERPRINT_SECURITY_LEVEL_1 0X1 //!< Security level 1
 111:Adafruit_Fingerprint.h **** #define FINGERPRINT_SECURITY_LEVEL_2 0X2 //!< Security level 2
 112:Adafruit_Fingerprint.h **** #define FINGERPRINT_SECURITY_LEVEL_3 0X3 //!< Security level 3
 113:Adafruit_Fingerprint.h **** #define FINGERPRINT_SECURITY_LEVEL_4 0X4 //!< Security level 4
 114:Adafruit_Fingerprint.h **** #define FINGERPRINT_SECURITY_LEVEL_5 0X5 //!< Security level 5
 115:Adafruit_Fingerprint.h **** 
 116:Adafruit_Fingerprint.h **** #define FINGERPRINT_PACKET_REG_ADDR 0x6 //!< Packet size register address
 117:Adafruit_Fingerprint.h **** #define FINGERPRINT_PACKET_SIZE_32 0X0  //!< Packet size is 32 Byte
 118:Adafruit_Fingerprint.h **** #define FINGERPRINT_PACKET_SIZE_64 0X1  //!< Packet size is 64 Byte
 119:Adafruit_Fingerprint.h **** #define FINGERPRINT_PACKET_SIZE_128 0X2 //!< Packet size is 128 Byte
 120:Adafruit_Fingerprint.h **** #define FINGERPRINT_PACKET_SIZE_256 0X3 //!< Packet size is 256 Byte
 121:Adafruit_Fingerprint.h **** 
 122:Adafruit_Fingerprint.h **** //#define FINGERPRINT_DEBUG
GAS LISTING C:\Users\kenne\AppData\Local\Temp\ccpPZdpD.s 			page 18


 123:Adafruit_Fingerprint.h **** 
 124:Adafruit_Fingerprint.h **** #define DEFAULTTIMEOUT 1000 //!< UART reading timeout in milliseconds
 125:Adafruit_Fingerprint.h **** 
 126:Adafruit_Fingerprint.h **** ///! Helper class to craft UART packets
 127:Adafruit_Fingerprint.h **** struct Adafruit_Fingerprint_Packet {
 128:Adafruit_Fingerprint.h **** 
 129:Adafruit_Fingerprint.h ****   /**************************************************************************/
 130:Adafruit_Fingerprint.h ****   /*!
 131:Adafruit_Fingerprint.h ****       @brief   Create a new UART-borne packet
 132:Adafruit_Fingerprint.h ****       @param   type Command, data, ack type packet
 133:Adafruit_Fingerprint.h ****       @param   length Size of payload
 134:Adafruit_Fingerprint.h ****       @param   data Pointer to bytes of size length we will memcopy into the
 135:Adafruit_Fingerprint.h ****      internal buffer
 136:Adafruit_Fingerprint.h ****   */
 137:Adafruit_Fingerprint.h ****   /**************************************************************************/
 138:Adafruit_Fingerprint.h **** 
 139:Adafruit_Fingerprint.h ****   Adafruit_Fingerprint_Packet(uint8_t type, uint16_t length, uint8_t *data) {
  40               		.loc 2 139 3 is_stmt 1 view -0
  41               		.cfi_startproc
  42               	/* prologue: function */
  43               	/* frame size = 0 */
  44               	/* stack size = 0 */
  45               	.L__stack_usage = 0
  46               		.loc 2 139 3 is_stmt 0 view .LVU4
  47 0000 A82F      		mov r26,r24
  48 0002 B92F      		mov r27,r25
  49 0004 842F      		mov r24,r20
  50               	.LVL1:
  51               		.loc 2 139 3 view .LVU5
  52 0006 952F      		mov r25,r21
  53 0008 E22F      		mov r30,r18
  54 000a 732F      		mov r23,r19
  55               	.LBB4:
 140:Adafruit_Fingerprint.h ****     this->start_code = FINGERPRINT_STARTCODE;
  56               		.loc 2 140 5 is_stmt 1 view .LVU6
  57               		.loc 2 140 22 is_stmt 0 view .LVU7
  58 000c 21E0      		ldi r18,lo8(1)
  59 000e 3FEE      		ldi r19,lo8(-17)
  60               	.LVL2:
  61               		.loc 2 140 22 view .LVU8
  62 0010 1196      		adiw r26,1
  63 0012 3C93      		st X,r19
  64 0014 2E93      		st -X,r18
 141:Adafruit_Fingerprint.h ****     this->type = type;
  65               		.loc 2 141 5 is_stmt 1 view .LVU9
  66               		.loc 2 141 16 is_stmt 0 view .LVU10
  67 0016 1696      		adiw r26,6
  68 0018 6C93      		st X,r22
  69 001a 1697      		sbiw r26,6
 142:Adafruit_Fingerprint.h ****     this->length = length;
  70               		.loc 2 142 5 is_stmt 1 view .LVU11
  71               		.loc 2 142 18 is_stmt 0 view .LVU12
  72 001c 1896      		adiw r26,7+1
  73 001e 9C93      		st X,r25
  74 0020 8E93      		st -X,r24
  75 0022 1797      		sbiw r26,7
 143:Adafruit_Fingerprint.h ****     address[0] = 0xFF;
GAS LISTING C:\Users\kenne\AppData\Local\Temp\ccpPZdpD.s 			page 19


  76               		.loc 2 143 5 is_stmt 1 view .LVU13
  77               		.loc 2 143 16 is_stmt 0 view .LVU14
  78 0024 4FEF      		ldi r20,lo8(-1)
  79               	.LVL3:
  80               		.loc 2 143 16 view .LVU15
  81 0026 1296      		adiw r26,2
  82 0028 4C93      		st X,r20
  83 002a 1297      		sbiw r26,2
 144:Adafruit_Fingerprint.h ****     address[1] = 0xFF;
  84               		.loc 2 144 5 is_stmt 1 view .LVU16
  85               		.loc 2 144 16 is_stmt 0 view .LVU17
  86 002c 1396      		adiw r26,3
  87 002e 4C93      		st X,r20
  88 0030 1397      		sbiw r26,3
 145:Adafruit_Fingerprint.h ****     address[2] = 0xFF;
  89               		.loc 2 145 5 is_stmt 1 view .LVU18
  90               		.loc 2 145 16 is_stmt 0 view .LVU19
  91 0032 1496      		adiw r26,4
  92 0034 4C93      		st X,r20
  93 0036 1497      		sbiw r26,4
 146:Adafruit_Fingerprint.h ****     address[3] = 0xFF;
  94               		.loc 2 146 5 is_stmt 1 view .LVU20
  95               		.loc 2 146 16 is_stmt 0 view .LVU21
  96 0038 1596      		adiw r26,5
  97 003a 4C93      		st X,r20
  98 003c 1597      		sbiw r26,5
 147:Adafruit_Fingerprint.h ****     if (length < 64)
  99               		.loc 2 147 5 is_stmt 1 view .LVU22
 100 003e 8034      		cpi r24,64
 101 0040 9105      		cpc r25,__zero_reg__
 102 0042 00F4      		brsh .L3
 148:Adafruit_Fingerprint.h ****       memcpy(this->data, data, length);
 103               		.loc 2 148 7 view .LVU23
 104               		.loc 2 148 13 is_stmt 0 view .LVU24
 105 0044 AC01      		movw r20,r24
 106 0046 6E2F      		mov r22,r30
 107               	.LVL4:
 108               		.loc 2 148 13 view .LVU25
 109 0048 CD01      		movw r24,r26
 110 004a 0996      		adiw r24,9
 111 004c 0E94 0000 		call memcpy
 112               	.LVL5:
 113               		.loc 2 148 13 view .LVU26
 114 0050 0895      		ret
 115               	.LVL6:
 116               	.L3:
 149:Adafruit_Fingerprint.h ****     else
 150:Adafruit_Fingerprint.h ****       memcpy(this->data, data, 64);
 117               		.loc 2 150 7 is_stmt 1 view .LVU27
 118               		.loc 2 150 20 is_stmt 0 view .LVU28
 119 0052 1996      		adiw r26,9
 120               		.loc 2 150 13 view .LVU29
 121 0054 80E4      		ldi r24,lo8(64)
 122 0056 F72F      		mov r31,r23
 123               		0:
 124 0058 0190      		ld r0,Z+
 125 005a 0D92      		st X+,r0
GAS LISTING C:\Users\kenne\AppData\Local\Temp\ccpPZdpD.s 			page 20


 126 005c 8A95      		dec r24
 127 005e 01F4      		brne 0b
 128               	/* epilogue start */
 129               	.LBE4:
 151:Adafruit_Fingerprint.h ****   }
 130               		.loc 2 151 3 view .LVU30
 131 0060 0895      		ret
 132               		.cfi_endproc
 133               	.LFE55:
 135               		.weak	_ZN27Adafruit_Fingerprint_PacketC1EhjPh
 136               		.set	_ZN27Adafruit_Fingerprint_PacketC1EhjPh,_ZN27Adafruit_Fingerprint_PacketC2EhjPh
 137               		.section	.text._ZN20Adafruit_FingerprintC2EP6Usart0m,"ax",@progbits
 138               	.global	_ZN20Adafruit_FingerprintC2EP6Usart0m
 140               	_ZN20Adafruit_FingerprintC2EP6Usart0m:
 141               	.LVL7:
 142               	.LFB58:
 143               		.file 3 "Adafruit_Fingerprint.cpp"
   1:Adafruit_Fingerprint.cpp **** /*!
   2:Adafruit_Fingerprint.cpp ****  * @file Adafruit_Fingerprint.cpp
   3:Adafruit_Fingerprint.cpp ****  *
   4:Adafruit_Fingerprint.cpp ****  * @mainpage Adafruit Fingerprint Sensor Library
   5:Adafruit_Fingerprint.cpp ****  *
   6:Adafruit_Fingerprint.cpp ****  * @section intro_sec Introduction
   7:Adafruit_Fingerprint.cpp ****  *
   8:Adafruit_Fingerprint.cpp ****  * This is a library for our optical Fingerprint sensor
   9:Adafruit_Fingerprint.cpp ****  *
  10:Adafruit_Fingerprint.cpp ****  * Designed specifically to work with the Adafruit Fingerprint sensor
  11:Adafruit_Fingerprint.cpp ****  * ----> http://www.adafruit.com/products/751
  12:Adafruit_Fingerprint.cpp ****  *
  13:Adafruit_Fingerprint.cpp ****  * These displays use TTL Serial to communicate, 2 pins are required to
  14:Adafruit_Fingerprint.cpp ****  * interface
  15:Adafruit_Fingerprint.cpp ****  * Adafruit invests time and resources providing this open source code,
  16:Adafruit_Fingerprint.cpp ****  * please support Adafruit and open-source hardware by purchasing
  17:Adafruit_Fingerprint.cpp ****  * products from Adafruit!
  18:Adafruit_Fingerprint.cpp ****  *
  19:Adafruit_Fingerprint.cpp ****  * @section author Author
  20:Adafruit_Fingerprint.cpp ****  *
  21:Adafruit_Fingerprint.cpp ****  * Written by Limor Fried/Ladyada for Adafruit Industries.
  22:Adafruit_Fingerprint.cpp ****  *
  23:Adafruit_Fingerprint.cpp ****  * @section license License
  24:Adafruit_Fingerprint.cpp ****  *
  25:Adafruit_Fingerprint.cpp ****  * BSD license, all text above must be included in any redistribution
  26:Adafruit_Fingerprint.cpp ****  *
  27:Adafruit_Fingerprint.cpp ****  */
  28:Adafruit_Fingerprint.cpp **** 
  29:Adafruit_Fingerprint.cpp **** #include "Adafruit_Fingerprint.h"
  30:Adafruit_Fingerprint.cpp **** 
  31:Adafruit_Fingerprint.cpp **** //#define FINGERPRINT_DEBUG
  32:Adafruit_Fingerprint.cpp **** 
  33:Adafruit_Fingerprint.cpp **** /*!
  34:Adafruit_Fingerprint.cpp ****  * @brief Gets the command packet
  35:Adafruit_Fingerprint.cpp ****  */
  36:Adafruit_Fingerprint.cpp **** #define GET_CMD_PACKET(...)                                                    \
  37:Adafruit_Fingerprint.cpp ****   uint8_t data[] = {__VA_ARGS__};                                              \
  38:Adafruit_Fingerprint.cpp ****   Adafruit_Fingerprint_Packet packet(FINGERPRINT_COMMANDPACKET, sizeof(data),  \
  39:Adafruit_Fingerprint.cpp ****                                      data);                                    \
  40:Adafruit_Fingerprint.cpp ****   writeStructuredPacket(packet);                                               \
GAS LISTING C:\Users\kenne\AppData\Local\Temp\ccpPZdpD.s 			page 21


  41:Adafruit_Fingerprint.cpp ****   if (getStructuredPacket(&packet) != FINGERPRINT_OK)                          \
  42:Adafruit_Fingerprint.cpp ****     return FINGERPRINT_PACKETRECIEVEERR;                                       \
  43:Adafruit_Fingerprint.cpp ****   if (packet.type != FINGERPRINT_ACKPACKET)                                    \
  44:Adafruit_Fingerprint.cpp ****     return FINGERPRINT_PACKETRECIEVEERR;
  45:Adafruit_Fingerprint.cpp **** 
  46:Adafruit_Fingerprint.cpp **** /*!
  47:Adafruit_Fingerprint.cpp ****  * @brief Sends the command packet
  48:Adafruit_Fingerprint.cpp ****  */
  49:Adafruit_Fingerprint.cpp **** #define SEND_CMD_PACKET(...)                                                   \
  50:Adafruit_Fingerprint.cpp ****   GET_CMD_PACKET(__VA_ARGS__);                                                 \
  51:Adafruit_Fingerprint.cpp ****   return packet.data[0];
  52:Adafruit_Fingerprint.cpp **** 
  53:Adafruit_Fingerprint.cpp **** /***************************************************************************
  54:Adafruit_Fingerprint.cpp ****  PUBLIC FUNCTIONS
  55:Adafruit_Fingerprint.cpp ****  ***************************************************************************/
  56:Adafruit_Fingerprint.cpp **** 
  57:Adafruit_Fingerprint.cpp **** 
  58:Adafruit_Fingerprint.cpp **** /**************************************************************************/
  59:Adafruit_Fingerprint.cpp **** /*!
  60:Adafruit_Fingerprint.cpp ****     @brief  Instantiates sensor with Hardware Serial
  61:Adafruit_Fingerprint.cpp ****     @param  hs Pointer to HardwareSerial object
  62:Adafruit_Fingerprint.cpp ****     @param  password 32-bit integer password (default is 0)
  63:Adafruit_Fingerprint.cpp **** 
  64:Adafruit_Fingerprint.cpp **** */
  65:Adafruit_Fingerprint.cpp **** /**************************************************************************/
  66:Adafruit_Fingerprint.cpp **** Adafruit_Fingerprint::Adafruit_Fingerprint(Usart0 *hs,
 144               		.loc 3 66 1 is_stmt 1 view -0
 145               		.cfi_startproc
 146               		.loc 3 66 1 is_stmt 0 view .LVU32
 147 0000 0F93      		push r16
 148               		.cfi_def_cfa_offset 3
 149               		.cfi_offset 16, -2
 150 0002 1F93      		push r17
 151               		.cfi_def_cfa_offset 4
 152               		.cfi_offset 17, -3
 153               	/* prologue: function */
 154               	/* frame size = 0 */
 155               	/* stack size = 2 */
 156               	.L__stack_usage = 2
 157 0004 E82F      		mov r30,r24
 158 0006 F92F      		mov r31,r25
 159               	.LBB5:
  67:Adafruit_Fingerprint.cpp ****                                            uint32_t password) {
 160               		.loc 3 67 61 view .LVU33
 161 0008 1782      		std Z+7,__zero_reg__
 162 000a 1682      		std Z+6,__zero_reg__
 163 000c 1186      		std Z+9,__zero_reg__
 164 000e 1086      		std Z+8,__zero_reg__
 165 0010 00E4      		ldi r16,lo8(64)
 166 0012 10E0      		ldi r17,0
 167 0014 1387      		std Z+11,r17
 168 0016 0287      		std Z+10,r16
 169 0018 1586      		std Z+13,__zero_reg__
 170 001a 1486      		std Z+12,__zero_reg__
 171 001c 8FEF      		ldi r24,lo8(-1)
 172 001e 9FEF      		ldi r25,lo8(-1)
 173 0020 DC01      		movw r26,r24
GAS LISTING C:\Users\kenne\AppData\Local\Temp\ccpPZdpD.s 			page 22


 174               	.LVL8:
 175               		.loc 3 67 61 view .LVU34
 176 0022 8687      		std Z+14,r24
 177 0024 9787      		std Z+15,r25
 178 0026 A08B      		std Z+16,r26
 179 0028 B18B      		std Z+17,r27
 180 002a 138B      		std Z+19,r17
 181 002c 028B      		std Z+18,r16
 182 002e 00E0      		ldi r16,0
 183 0030 11EE      		ldi r17,lo8(-31)
 184 0032 158B      		std Z+21,r17
 185 0034 048B      		std Z+20,r16
  68:Adafruit_Fingerprint.cpp ****   thePassword = password;
 186               		.loc 3 68 3 is_stmt 1 view .LVU35
 187               		.loc 3 68 15 is_stmt 0 view .LVU36
 188 0036 268B      		std Z+22,r18
 189 0038 378B      		std Z+23,r19
 190 003a 408F      		std Z+24,r20
 191 003c 518F      		std Z+25,r21
  69:Adafruit_Fingerprint.cpp ****   theAddress = 0xFFFFFFFF;
 192               		.loc 3 69 3 is_stmt 1 view .LVU37
 193               		.loc 3 69 14 is_stmt 0 view .LVU38
 194 003e 828F      		std Z+26,r24
 195 0040 938F      		std Z+27,r25
 196 0042 A48F      		std Z+28,r26
 197 0044 B58F      		std Z+29,r27
  70:Adafruit_Fingerprint.cpp ****   hwSerial = hs;
 198               		.loc 3 70 3 is_stmt 1 view .LVU39
 199               		.loc 3 70 12 is_stmt 0 view .LVU40
 200 0046 62AB      		std Z+50,r22
 201 0048 73AB      		std Z+51,r23
  71:Adafruit_Fingerprint.cpp ****   mySerial = hs;
 202               		.loc 3 71 3 is_stmt 1 view .LVU41
 203               		.loc 3 71 12 is_stmt 0 view .LVU42
 204 004a 64AB      		std Z+52,r22
 205 004c 75AB      		std Z+53,r23
 206               	/* epilogue start */
 207               	.LBE5:
  72:Adafruit_Fingerprint.cpp **** }
 208               		.loc 3 72 1 view .LVU43
 209 004e 1F91      		pop r17
 210 0050 0F91      		pop r16
 211 0052 0895      		ret
 212               		.cfi_endproc
 213               	.LFE58:
 215               	.global	_ZN20Adafruit_FingerprintC1EP6Usart0m
 216               		.set	_ZN20Adafruit_FingerprintC1EP6Usart0m,_ZN20Adafruit_FingerprintC2EP6Usart0m
 217               		.section	.text._ZN20Adafruit_Fingerprint5beginEm,"ax",@progbits
 218               	.global	_ZN20Adafruit_Fingerprint5beginEm
 220               	_ZN20Adafruit_Fingerprint5beginEm:
 221               	.LVL9:
 222               	.LFB60:
  73:Adafruit_Fingerprint.cpp **** 
  74:Adafruit_Fingerprint.cpp **** 
  75:Adafruit_Fingerprint.cpp **** 
  76:Adafruit_Fingerprint.cpp **** /**************************************************************************/
  77:Adafruit_Fingerprint.cpp **** /*!
GAS LISTING C:\Users\kenne\AppData\Local\Temp\ccpPZdpD.s 			page 23


  78:Adafruit_Fingerprint.cpp ****     @brief  Initializes serial interface and baud rate
  79:Adafruit_Fingerprint.cpp ****     @param  baudrate Sensor's UART baud rate (usually 57600, 9600 or 115200)
  80:Adafruit_Fingerprint.cpp **** */
  81:Adafruit_Fingerprint.cpp **** /**************************************************************************/
  82:Adafruit_Fingerprint.cpp **** void Adafruit_Fingerprint::begin(uint32_t baudrate) {
 223               		.loc 3 82 53 is_stmt 1 view -0
 224               		.cfi_startproc
 225               	/* prologue: function */
 226               	/* frame size = 0 */
 227               	/* stack size = 0 */
 228               	.L__stack_usage = 0
  83:Adafruit_Fingerprint.cpp ****   delayMs(1000); // one second delay to let the sensor 'boot up'
 229               		.loc 3 83 3 view .LVU45
 230               	.LBB6:
 231               	.LBI6:
 232               		.file 4 "c:\\d\\ifsc\\vscodeleandro\\ex\\toolchains\\avr-gcc\\avr\\include\\util\\delay.h"
   1:c:\d\ifsc\vscodeleandro\ex\toolchains\avr-gcc\avr\include\util\delay.h **** /* Copyright (c) 2002, Marek Michalkiewicz
   2:c:\d\ifsc\vscodeleandro\ex\toolchains\avr-gcc\avr\include\util\delay.h ****    Copyright (c) 2004,2005,2007 Joerg Wunsch
   3:c:\d\ifsc\vscodeleandro\ex\toolchains\avr-gcc\avr\include\util\delay.h ****    Copyright (c) 2007  Florin-Viorel Petrov
   4:c:\d\ifsc\vscodeleandro\ex\toolchains\avr-gcc\avr\include\util\delay.h ****    All rights reserved.
   5:c:\d\ifsc\vscodeleandro\ex\toolchains\avr-gcc\avr\include\util\delay.h **** 
   6:c:\d\ifsc\vscodeleandro\ex\toolchains\avr-gcc\avr\include\util\delay.h ****    Redistribution and use in source and binary forms, with or without
   7:c:\d\ifsc\vscodeleandro\ex\toolchains\avr-gcc\avr\include\util\delay.h ****    modification, are permitted provided that the following conditions are met:
   8:c:\d\ifsc\vscodeleandro\ex\toolchains\avr-gcc\avr\include\util\delay.h **** 
   9:c:\d\ifsc\vscodeleandro\ex\toolchains\avr-gcc\avr\include\util\delay.h ****    * Redistributions of source code must retain the above copyright
  10:c:\d\ifsc\vscodeleandro\ex\toolchains\avr-gcc\avr\include\util\delay.h ****      notice, this list of conditions and the following disclaimer.
  11:c:\d\ifsc\vscodeleandro\ex\toolchains\avr-gcc\avr\include\util\delay.h **** 
  12:c:\d\ifsc\vscodeleandro\ex\toolchains\avr-gcc\avr\include\util\delay.h ****    * Redistributions in binary form must reproduce the above copyright
  13:c:\d\ifsc\vscodeleandro\ex\toolchains\avr-gcc\avr\include\util\delay.h ****      notice, this list of conditions and the following disclaimer in
  14:c:\d\ifsc\vscodeleandro\ex\toolchains\avr-gcc\avr\include\util\delay.h ****      the documentation and/or other materials provided with the
  15:c:\d\ifsc\vscodeleandro\ex\toolchains\avr-gcc\avr\include\util\delay.h ****      distribution.
  16:c:\d\ifsc\vscodeleandro\ex\toolchains\avr-gcc\avr\include\util\delay.h **** 
  17:c:\d\ifsc\vscodeleandro\ex\toolchains\avr-gcc\avr\include\util\delay.h ****    * Neither the name of the copyright holders nor the names of
  18:c:\d\ifsc\vscodeleandro\ex\toolchains\avr-gcc\avr\include\util\delay.h ****      contributors may be used to endorse or promote products derived
  19:c:\d\ifsc\vscodeleandro\ex\toolchains\avr-gcc\avr\include\util\delay.h ****      from this software without specific prior written permission.
  20:c:\d\ifsc\vscodeleandro\ex\toolchains\avr-gcc\avr\include\util\delay.h **** 
  21:c:\d\ifsc\vscodeleandro\ex\toolchains\avr-gcc\avr\include\util\delay.h ****   THIS SOFTWARE IS PROVIDED BY THE COPYRIGHT HOLDERS AND CONTRIBUTORS "AS IS"
  22:c:\d\ifsc\vscodeleandro\ex\toolchains\avr-gcc\avr\include\util\delay.h ****   AND ANY EXPRESS OR IMPLIED WARRANTIES, INCLUDING, BUT NOT LIMITED TO, THE
  23:c:\d\ifsc\vscodeleandro\ex\toolchains\avr-gcc\avr\include\util\delay.h ****   IMPLIED WARRANTIES OF MERCHANTABILITY AND FITNESS FOR A PARTICULAR PURPOSE
  24:c:\d\ifsc\vscodeleandro\ex\toolchains\avr-gcc\avr\include\util\delay.h ****   ARE DISCLAIMED. IN NO EVENT SHALL THE COPYRIGHT OWNER OR CONTRIBUTORS BE
  25:c:\d\ifsc\vscodeleandro\ex\toolchains\avr-gcc\avr\include\util\delay.h ****   LIABLE FOR ANY DIRECT, INDIRECT, INCIDENTAL, SPECIAL, EXEMPLARY, OR
  26:c:\d\ifsc\vscodeleandro\ex\toolchains\avr-gcc\avr\include\util\delay.h ****   CONSEQUENTIAL DAMAGES (INCLUDING, BUT NOT LIMITED TO, PROCUREMENT OF
  27:c:\d\ifsc\vscodeleandro\ex\toolchains\avr-gcc\avr\include\util\delay.h ****   SUBSTITUTE GOODS OR SERVICES; LOSS OF USE, DATA, OR PROFITS; OR BUSINESS
  28:c:\d\ifsc\vscodeleandro\ex\toolchains\avr-gcc\avr\include\util\delay.h ****   INTERRUPTION) HOWEVER CAUSED AND ON ANY THEORY OF LIABILITY, WHETHER IN
  29:c:\d\ifsc\vscodeleandro\ex\toolchains\avr-gcc\avr\include\util\delay.h ****   CONTRACT, STRICT LIABILITY, OR TORT (INCLUDING NEGLIGENCE OR OTHERWISE)
  30:c:\d\ifsc\vscodeleandro\ex\toolchains\avr-gcc\avr\include\util\delay.h ****   ARISING IN ANY WAY OUT OF THE USE OF THIS SOFTWARE, EVEN IF ADVISED OF THE
  31:c:\d\ifsc\vscodeleandro\ex\toolchains\avr-gcc\avr\include\util\delay.h ****   POSSIBILITY OF SUCH DAMAGE. */
  32:c:\d\ifsc\vscodeleandro\ex\toolchains\avr-gcc\avr\include\util\delay.h **** 
  33:c:\d\ifsc\vscodeleandro\ex\toolchains\avr-gcc\avr\include\util\delay.h **** /* $Id$ */
  34:c:\d\ifsc\vscodeleandro\ex\toolchains\avr-gcc\avr\include\util\delay.h **** 
  35:c:\d\ifsc\vscodeleandro\ex\toolchains\avr-gcc\avr\include\util\delay.h **** #ifndef _UTIL_DELAY_H_
  36:c:\d\ifsc\vscodeleandro\ex\toolchains\avr-gcc\avr\include\util\delay.h **** #define _UTIL_DELAY_H_ 1
  37:c:\d\ifsc\vscodeleandro\ex\toolchains\avr-gcc\avr\include\util\delay.h **** 
  38:c:\d\ifsc\vscodeleandro\ex\toolchains\avr-gcc\avr\include\util\delay.h **** #ifndef __DOXYGEN__
  39:c:\d\ifsc\vscodeleandro\ex\toolchains\avr-gcc\avr\include\util\delay.h **** #  ifndef __HAS_DELAY_CYCLES
  40:c:\d\ifsc\vscodeleandro\ex\toolchains\avr-gcc\avr\include\util\delay.h **** #    define __HAS_DELAY_CYCLES 1
  41:c:\d\ifsc\vscodeleandro\ex\toolchains\avr-gcc\avr\include\util\delay.h **** #  endif
GAS LISTING C:\Users\kenne\AppData\Local\Temp\ccpPZdpD.s 			page 24


  42:c:\d\ifsc\vscodeleandro\ex\toolchains\avr-gcc\avr\include\util\delay.h **** #endif  /* __DOXYGEN__ */
  43:c:\d\ifsc\vscodeleandro\ex\toolchains\avr-gcc\avr\include\util\delay.h **** 
  44:c:\d\ifsc\vscodeleandro\ex\toolchains\avr-gcc\avr\include\util\delay.h **** #include <inttypes.h>
  45:c:\d\ifsc\vscodeleandro\ex\toolchains\avr-gcc\avr\include\util\delay.h **** #include <util/delay_basic.h>
  46:c:\d\ifsc\vscodeleandro\ex\toolchains\avr-gcc\avr\include\util\delay.h **** #include <math.h>
  47:c:\d\ifsc\vscodeleandro\ex\toolchains\avr-gcc\avr\include\util\delay.h **** 
  48:c:\d\ifsc\vscodeleandro\ex\toolchains\avr-gcc\avr\include\util\delay.h **** /** \file */
  49:c:\d\ifsc\vscodeleandro\ex\toolchains\avr-gcc\avr\include\util\delay.h **** /** \defgroup util_delay <util/delay.h>: Convenience functions for busy-wait delay loops
  50:c:\d\ifsc\vscodeleandro\ex\toolchains\avr-gcc\avr\include\util\delay.h ****     \code
  51:c:\d\ifsc\vscodeleandro\ex\toolchains\avr-gcc\avr\include\util\delay.h ****     #define F_CPU 1000000UL  // 1 MHz
  52:c:\d\ifsc\vscodeleandro\ex\toolchains\avr-gcc\avr\include\util\delay.h ****     //#define F_CPU 14.7456E6
  53:c:\d\ifsc\vscodeleandro\ex\toolchains\avr-gcc\avr\include\util\delay.h ****     #include <util/delay.h>
  54:c:\d\ifsc\vscodeleandro\ex\toolchains\avr-gcc\avr\include\util\delay.h ****     \endcode
  55:c:\d\ifsc\vscodeleandro\ex\toolchains\avr-gcc\avr\include\util\delay.h **** 
  56:c:\d\ifsc\vscodeleandro\ex\toolchains\avr-gcc\avr\include\util\delay.h ****     \note As an alternative method, it is possible to pass the
  57:c:\d\ifsc\vscodeleandro\ex\toolchains\avr-gcc\avr\include\util\delay.h ****     F_CPU macro down to the compiler from the Makefile.
  58:c:\d\ifsc\vscodeleandro\ex\toolchains\avr-gcc\avr\include\util\delay.h ****     Obviously, in that case, no \c \#define statement should be
  59:c:\d\ifsc\vscodeleandro\ex\toolchains\avr-gcc\avr\include\util\delay.h ****     used.
  60:c:\d\ifsc\vscodeleandro\ex\toolchains\avr-gcc\avr\include\util\delay.h **** 
  61:c:\d\ifsc\vscodeleandro\ex\toolchains\avr-gcc\avr\include\util\delay.h ****     The functions in this header file are wrappers around the basic
  62:c:\d\ifsc\vscodeleandro\ex\toolchains\avr-gcc\avr\include\util\delay.h ****     busy-wait functions from <util/delay_basic.h>.  They are meant as
  63:c:\d\ifsc\vscodeleandro\ex\toolchains\avr-gcc\avr\include\util\delay.h ****     convenience functions where actual time values can be specified
  64:c:\d\ifsc\vscodeleandro\ex\toolchains\avr-gcc\avr\include\util\delay.h ****     rather than a number of cycles to wait for.  The idea behind is
  65:c:\d\ifsc\vscodeleandro\ex\toolchains\avr-gcc\avr\include\util\delay.h ****     that compile-time constant expressions will be eliminated by
  66:c:\d\ifsc\vscodeleandro\ex\toolchains\avr-gcc\avr\include\util\delay.h ****     compiler optimization so floating-point expressions can be used
  67:c:\d\ifsc\vscodeleandro\ex\toolchains\avr-gcc\avr\include\util\delay.h ****     to calculate the number of delay cycles needed based on the CPU
  68:c:\d\ifsc\vscodeleandro\ex\toolchains\avr-gcc\avr\include\util\delay.h ****     frequency passed by the macro F_CPU.
  69:c:\d\ifsc\vscodeleandro\ex\toolchains\avr-gcc\avr\include\util\delay.h **** 
  70:c:\d\ifsc\vscodeleandro\ex\toolchains\avr-gcc\avr\include\util\delay.h ****     \note In order for these functions to work as intended, compiler
  71:c:\d\ifsc\vscodeleandro\ex\toolchains\avr-gcc\avr\include\util\delay.h ****     optimizations <em>must</em> be enabled, and the delay time
  72:c:\d\ifsc\vscodeleandro\ex\toolchains\avr-gcc\avr\include\util\delay.h ****     <em>must</em> be an expression that is a known constant at
  73:c:\d\ifsc\vscodeleandro\ex\toolchains\avr-gcc\avr\include\util\delay.h ****     compile-time.  If these requirements are not met, the resulting
  74:c:\d\ifsc\vscodeleandro\ex\toolchains\avr-gcc\avr\include\util\delay.h ****     delay will be much longer (and basically unpredictable), and
  75:c:\d\ifsc\vscodeleandro\ex\toolchains\avr-gcc\avr\include\util\delay.h ****     applications that otherwise do not use floating-point calculations
  76:c:\d\ifsc\vscodeleandro\ex\toolchains\avr-gcc\avr\include\util\delay.h ****     will experience severe code bloat by the floating-point library
  77:c:\d\ifsc\vscodeleandro\ex\toolchains\avr-gcc\avr\include\util\delay.h ****     routines linked into the application.
  78:c:\d\ifsc\vscodeleandro\ex\toolchains\avr-gcc\avr\include\util\delay.h **** 
  79:c:\d\ifsc\vscodeleandro\ex\toolchains\avr-gcc\avr\include\util\delay.h ****     The functions available allow the specification of microsecond, and
  80:c:\d\ifsc\vscodeleandro\ex\toolchains\avr-gcc\avr\include\util\delay.h ****     millisecond delays directly, using the application-supplied macro
  81:c:\d\ifsc\vscodeleandro\ex\toolchains\avr-gcc\avr\include\util\delay.h ****     F_CPU as the CPU clock frequency (in Hertz).
  82:c:\d\ifsc\vscodeleandro\ex\toolchains\avr-gcc\avr\include\util\delay.h **** 
  83:c:\d\ifsc\vscodeleandro\ex\toolchains\avr-gcc\avr\include\util\delay.h **** */
  84:c:\d\ifsc\vscodeleandro\ex\toolchains\avr-gcc\avr\include\util\delay.h **** 
  85:c:\d\ifsc\vscodeleandro\ex\toolchains\avr-gcc\avr\include\util\delay.h **** #if !defined(__DOXYGEN__)
  86:c:\d\ifsc\vscodeleandro\ex\toolchains\avr-gcc\avr\include\util\delay.h **** static __inline__ void _delay_us(double __us) __attribute__((__always_inline__));
  87:c:\d\ifsc\vscodeleandro\ex\toolchains\avr-gcc\avr\include\util\delay.h **** static __inline__ void _delay_ms(double __ms) __attribute__((__always_inline__));
  88:c:\d\ifsc\vscodeleandro\ex\toolchains\avr-gcc\avr\include\util\delay.h **** #endif
  89:c:\d\ifsc\vscodeleandro\ex\toolchains\avr-gcc\avr\include\util\delay.h **** 
  90:c:\d\ifsc\vscodeleandro\ex\toolchains\avr-gcc\avr\include\util\delay.h **** #ifndef F_CPU
  91:c:\d\ifsc\vscodeleandro\ex\toolchains\avr-gcc\avr\include\util\delay.h **** /* prevent compiler error by supplying a default */
  92:c:\d\ifsc\vscodeleandro\ex\toolchains\avr-gcc\avr\include\util\delay.h **** # warning "F_CPU not defined for <util/delay.h>"
  93:c:\d\ifsc\vscodeleandro\ex\toolchains\avr-gcc\avr\include\util\delay.h **** /** \ingroup util_delay
  94:c:\d\ifsc\vscodeleandro\ex\toolchains\avr-gcc\avr\include\util\delay.h ****     \def F_CPU
  95:c:\d\ifsc\vscodeleandro\ex\toolchains\avr-gcc\avr\include\util\delay.h ****     \brief CPU frequency in Hz
  96:c:\d\ifsc\vscodeleandro\ex\toolchains\avr-gcc\avr\include\util\delay.h **** 
  97:c:\d\ifsc\vscodeleandro\ex\toolchains\avr-gcc\avr\include\util\delay.h ****     The macro F_CPU specifies the CPU frequency to be considered by
  98:c:\d\ifsc\vscodeleandro\ex\toolchains\avr-gcc\avr\include\util\delay.h ****     the delay macros.  This macro is normally supplied by the
GAS LISTING C:\Users\kenne\AppData\Local\Temp\ccpPZdpD.s 			page 25


  99:c:\d\ifsc\vscodeleandro\ex\toolchains\avr-gcc\avr\include\util\delay.h ****     environment (e.g. from within a project header, or the project's
 100:c:\d\ifsc\vscodeleandro\ex\toolchains\avr-gcc\avr\include\util\delay.h ****     Makefile).  The value 1 MHz here is only provided as a "vanilla"
 101:c:\d\ifsc\vscodeleandro\ex\toolchains\avr-gcc\avr\include\util\delay.h ****     fallback if no such user-provided definition could be found.
 102:c:\d\ifsc\vscodeleandro\ex\toolchains\avr-gcc\avr\include\util\delay.h **** 
 103:c:\d\ifsc\vscodeleandro\ex\toolchains\avr-gcc\avr\include\util\delay.h ****     In terms of the delay functions, the CPU frequency can be given as
 104:c:\d\ifsc\vscodeleandro\ex\toolchains\avr-gcc\avr\include\util\delay.h ****     a floating-point constant (e.g. 3.6864E6 for 3.6864 MHz).
 105:c:\d\ifsc\vscodeleandro\ex\toolchains\avr-gcc\avr\include\util\delay.h ****     However, the macros in <util/setbaud.h> require it to be an
 106:c:\d\ifsc\vscodeleandro\ex\toolchains\avr-gcc\avr\include\util\delay.h ****     integer value.
 107:c:\d\ifsc\vscodeleandro\ex\toolchains\avr-gcc\avr\include\util\delay.h ****  */
 108:c:\d\ifsc\vscodeleandro\ex\toolchains\avr-gcc\avr\include\util\delay.h **** # define F_CPU 1000000UL
 109:c:\d\ifsc\vscodeleandro\ex\toolchains\avr-gcc\avr\include\util\delay.h **** #endif
 110:c:\d\ifsc\vscodeleandro\ex\toolchains\avr-gcc\avr\include\util\delay.h **** 
 111:c:\d\ifsc\vscodeleandro\ex\toolchains\avr-gcc\avr\include\util\delay.h **** #ifndef __OPTIMIZE__
 112:c:\d\ifsc\vscodeleandro\ex\toolchains\avr-gcc\avr\include\util\delay.h **** # warning "Compiler optimizations disabled; functions from <util/delay.h> won't work as designed"
 113:c:\d\ifsc\vscodeleandro\ex\toolchains\avr-gcc\avr\include\util\delay.h **** #endif
 114:c:\d\ifsc\vscodeleandro\ex\toolchains\avr-gcc\avr\include\util\delay.h **** 
 115:c:\d\ifsc\vscodeleandro\ex\toolchains\avr-gcc\avr\include\util\delay.h **** #if __HAS_DELAY_CYCLES && defined(__OPTIMIZE__) && \
 116:c:\d\ifsc\vscodeleandro\ex\toolchains\avr-gcc\avr\include\util\delay.h ****   !defined(__DELAY_BACKWARD_COMPATIBLE__) &&	   \
 117:c:\d\ifsc\vscodeleandro\ex\toolchains\avr-gcc\avr\include\util\delay.h ****   __STDC_HOSTED__
 118:c:\d\ifsc\vscodeleandro\ex\toolchains\avr-gcc\avr\include\util\delay.h **** #  include <math.h>
 119:c:\d\ifsc\vscodeleandro\ex\toolchains\avr-gcc\avr\include\util\delay.h **** #endif
 120:c:\d\ifsc\vscodeleandro\ex\toolchains\avr-gcc\avr\include\util\delay.h **** 
 121:c:\d\ifsc\vscodeleandro\ex\toolchains\avr-gcc\avr\include\util\delay.h **** /**
 122:c:\d\ifsc\vscodeleandro\ex\toolchains\avr-gcc\avr\include\util\delay.h ****    \ingroup util_delay
 123:c:\d\ifsc\vscodeleandro\ex\toolchains\avr-gcc\avr\include\util\delay.h **** 
 124:c:\d\ifsc\vscodeleandro\ex\toolchains\avr-gcc\avr\include\util\delay.h ****    Perform a delay of \c __ms milliseconds, using _delay_loop_2().
 125:c:\d\ifsc\vscodeleandro\ex\toolchains\avr-gcc\avr\include\util\delay.h **** 
 126:c:\d\ifsc\vscodeleandro\ex\toolchains\avr-gcc\avr\include\util\delay.h ****    The macro F_CPU is supposed to be defined to a
 127:c:\d\ifsc\vscodeleandro\ex\toolchains\avr-gcc\avr\include\util\delay.h ****    constant defining the CPU clock frequency (in Hertz).
 128:c:\d\ifsc\vscodeleandro\ex\toolchains\avr-gcc\avr\include\util\delay.h **** 
 129:c:\d\ifsc\vscodeleandro\ex\toolchains\avr-gcc\avr\include\util\delay.h ****    The maximal possible delay is 262.14 ms / F_CPU in MHz.
 130:c:\d\ifsc\vscodeleandro\ex\toolchains\avr-gcc\avr\include\util\delay.h **** 
 131:c:\d\ifsc\vscodeleandro\ex\toolchains\avr-gcc\avr\include\util\delay.h ****    When the user request delay which exceed the maximum possible one,
 132:c:\d\ifsc\vscodeleandro\ex\toolchains\avr-gcc\avr\include\util\delay.h ****    _delay_ms() provides a decreased resolution functionality. In this
 133:c:\d\ifsc\vscodeleandro\ex\toolchains\avr-gcc\avr\include\util\delay.h ****    mode _delay_ms() will work with a resolution of 1/10 ms, providing
 134:c:\d\ifsc\vscodeleandro\ex\toolchains\avr-gcc\avr\include\util\delay.h ****    delays up to 6.5535 seconds (independent from CPU frequency).  The
 135:c:\d\ifsc\vscodeleandro\ex\toolchains\avr-gcc\avr\include\util\delay.h ****    user will not be informed about decreased resolution.
 136:c:\d\ifsc\vscodeleandro\ex\toolchains\avr-gcc\avr\include\util\delay.h **** 
 137:c:\d\ifsc\vscodeleandro\ex\toolchains\avr-gcc\avr\include\util\delay.h ****    If the avr-gcc toolchain has __builtin_avr_delay_cycles()
 138:c:\d\ifsc\vscodeleandro\ex\toolchains\avr-gcc\avr\include\util\delay.h ****    support, maximal possible delay is 4294967.295 ms/ F_CPU in MHz. For
 139:c:\d\ifsc\vscodeleandro\ex\toolchains\avr-gcc\avr\include\util\delay.h ****    values greater than the maximal possible delay, overflows results in
 140:c:\d\ifsc\vscodeleandro\ex\toolchains\avr-gcc\avr\include\util\delay.h ****    no delay i.e., 0ms.
 141:c:\d\ifsc\vscodeleandro\ex\toolchains\avr-gcc\avr\include\util\delay.h **** 
 142:c:\d\ifsc\vscodeleandro\ex\toolchains\avr-gcc\avr\include\util\delay.h ****    Conversion of \c __ms into clock cycles may not always result in
 143:c:\d\ifsc\vscodeleandro\ex\toolchains\avr-gcc\avr\include\util\delay.h ****    integer.  By default, the clock cycles rounded up to next
 144:c:\d\ifsc\vscodeleandro\ex\toolchains\avr-gcc\avr\include\util\delay.h ****    integer. This ensures that the user gets at least \c __ms
 145:c:\d\ifsc\vscodeleandro\ex\toolchains\avr-gcc\avr\include\util\delay.h ****    microseconds of delay.
 146:c:\d\ifsc\vscodeleandro\ex\toolchains\avr-gcc\avr\include\util\delay.h **** 
 147:c:\d\ifsc\vscodeleandro\ex\toolchains\avr-gcc\avr\include\util\delay.h ****    Alternatively, by defining the macro \c __DELAY_ROUND_DOWN__, or
 148:c:\d\ifsc\vscodeleandro\ex\toolchains\avr-gcc\avr\include\util\delay.h ****    \c __DELAY_ROUND_CLOSEST__, before including this header file, the
 149:c:\d\ifsc\vscodeleandro\ex\toolchains\avr-gcc\avr\include\util\delay.h ****    algorithm can be made to round down, or round to closest integer,
 150:c:\d\ifsc\vscodeleandro\ex\toolchains\avr-gcc\avr\include\util\delay.h ****    respectively.
 151:c:\d\ifsc\vscodeleandro\ex\toolchains\avr-gcc\avr\include\util\delay.h **** 
 152:c:\d\ifsc\vscodeleandro\ex\toolchains\avr-gcc\avr\include\util\delay.h ****    \note
 153:c:\d\ifsc\vscodeleandro\ex\toolchains\avr-gcc\avr\include\util\delay.h **** 
 154:c:\d\ifsc\vscodeleandro\ex\toolchains\avr-gcc\avr\include\util\delay.h ****    The implementation of _delay_ms() based on
 155:c:\d\ifsc\vscodeleandro\ex\toolchains\avr-gcc\avr\include\util\delay.h ****    __builtin_avr_delay_cycles() is not backward compatible with older
GAS LISTING C:\Users\kenne\AppData\Local\Temp\ccpPZdpD.s 			page 26


 156:c:\d\ifsc\vscodeleandro\ex\toolchains\avr-gcc\avr\include\util\delay.h ****    implementations.  In order to get functionality backward compatible
 157:c:\d\ifsc\vscodeleandro\ex\toolchains\avr-gcc\avr\include\util\delay.h ****    with previous versions, the macro \c "__DELAY_BACKWARD_COMPATIBLE__"
 158:c:\d\ifsc\vscodeleandro\ex\toolchains\avr-gcc\avr\include\util\delay.h ****    must be defined before including this header file. Also, the
 159:c:\d\ifsc\vscodeleandro\ex\toolchains\avr-gcc\avr\include\util\delay.h ****    backward compatible algorithm will be chosen if the code is
 160:c:\d\ifsc\vscodeleandro\ex\toolchains\avr-gcc\avr\include\util\delay.h ****    compiled in a <em>freestanding environment</em> (GCC option
 161:c:\d\ifsc\vscodeleandro\ex\toolchains\avr-gcc\avr\include\util\delay.h ****    \c -ffreestanding), as the math functions required for rounding are
 162:c:\d\ifsc\vscodeleandro\ex\toolchains\avr-gcc\avr\include\util\delay.h ****    not available to the compiler then.
 163:c:\d\ifsc\vscodeleandro\ex\toolchains\avr-gcc\avr\include\util\delay.h **** 
 164:c:\d\ifsc\vscodeleandro\ex\toolchains\avr-gcc\avr\include\util\delay.h ****  */
 165:c:\d\ifsc\vscodeleandro\ex\toolchains\avr-gcc\avr\include\util\delay.h **** void
 166:c:\d\ifsc\vscodeleandro\ex\toolchains\avr-gcc\avr\include\util\delay.h **** _delay_ms(double __ms)
 233               		.loc 4 166 1 view .LVU46
 234               	.LBB7:
 167:c:\d\ifsc\vscodeleandro\ex\toolchains\avr-gcc\avr\include\util\delay.h **** {
 168:c:\d\ifsc\vscodeleandro\ex\toolchains\avr-gcc\avr\include\util\delay.h **** 	double __tmp ;
 235               		.loc 4 168 2 view .LVU47
 169:c:\d\ifsc\vscodeleandro\ex\toolchains\avr-gcc\avr\include\util\delay.h **** #if __HAS_DELAY_CYCLES && defined(__OPTIMIZE__) && \
 170:c:\d\ifsc\vscodeleandro\ex\toolchains\avr-gcc\avr\include\util\delay.h ****   !defined(__DELAY_BACKWARD_COMPATIBLE__) &&	   \
 171:c:\d\ifsc\vscodeleandro\ex\toolchains\avr-gcc\avr\include\util\delay.h ****   __STDC_HOSTED__
 172:c:\d\ifsc\vscodeleandro\ex\toolchains\avr-gcc\avr\include\util\delay.h **** 	uint32_t __ticks_dc;
 236               		.loc 4 172 2 view .LVU48
 173:c:\d\ifsc\vscodeleandro\ex\toolchains\avr-gcc\avr\include\util\delay.h **** 	extern void __builtin_avr_delay_cycles(unsigned long);
 237               		.loc 4 173 2 view .LVU49
 174:c:\d\ifsc\vscodeleandro\ex\toolchains\avr-gcc\avr\include\util\delay.h **** 	__tmp = ((F_CPU) / 1e3) * __ms;
 238               		.loc 4 174 2 view .LVU50
 175:c:\d\ifsc\vscodeleandro\ex\toolchains\avr-gcc\avr\include\util\delay.h **** 
 176:c:\d\ifsc\vscodeleandro\ex\toolchains\avr-gcc\avr\include\util\delay.h **** 	#if defined(__DELAY_ROUND_DOWN__)
 177:c:\d\ifsc\vscodeleandro\ex\toolchains\avr-gcc\avr\include\util\delay.h **** 		__ticks_dc = (uint32_t)fabs(__tmp);
 178:c:\d\ifsc\vscodeleandro\ex\toolchains\avr-gcc\avr\include\util\delay.h **** 
 179:c:\d\ifsc\vscodeleandro\ex\toolchains\avr-gcc\avr\include\util\delay.h **** 	#elif defined(__DELAY_ROUND_CLOSEST__)
 180:c:\d\ifsc\vscodeleandro\ex\toolchains\avr-gcc\avr\include\util\delay.h **** 		__ticks_dc = (uint32_t)(fabs(__tmp)+0.5);
 181:c:\d\ifsc\vscodeleandro\ex\toolchains\avr-gcc\avr\include\util\delay.h **** 
 182:c:\d\ifsc\vscodeleandro\ex\toolchains\avr-gcc\avr\include\util\delay.h **** 	#else
 183:c:\d\ifsc\vscodeleandro\ex\toolchains\avr-gcc\avr\include\util\delay.h **** 		//round up by default
 184:c:\d\ifsc\vscodeleandro\ex\toolchains\avr-gcc\avr\include\util\delay.h **** 		__ticks_dc = (uint32_t)(ceil(fabs(__tmp)));
 239               		.loc 4 184 3 view .LVU51
 185:c:\d\ifsc\vscodeleandro\ex\toolchains\avr-gcc\avr\include\util\delay.h **** 	#endif
 186:c:\d\ifsc\vscodeleandro\ex\toolchains\avr-gcc\avr\include\util\delay.h **** 
 187:c:\d\ifsc\vscodeleandro\ex\toolchains\avr-gcc\avr\include\util\delay.h **** 	__builtin_avr_delay_cycles(__ticks_dc);
 240               		.loc 4 187 2 view .LVU52
 241               		.loc 4 187 28 is_stmt 0 view .LVU53
 242 0000 2FEF      		ldi r18,lo8(3199999)
 243 0002 83ED      		ldi r24,hi8(3199999)
 244 0004 90E3      		ldi r25,hlo8(3199999)
 245 0006 2150      	1:	subi r18,1
 246 0008 8040      		sbci r24,0
 247 000a 9040      		sbci r25,0
 248 000c 01F4      		brne 1b
 249               	.LVL10:
 250               		.loc 4 187 28 view .LVU54
 251 000e 00C0      		rjmp .
 252 0010 0000      		nop
 253               	.LVL11:
 254               	/* epilogue start */
 255               		.loc 4 187 28 view .LVU55
 256               	.LBE7:
 257               	.LBE6:
GAS LISTING C:\Users\kenne\AppData\Local\Temp\ccpPZdpD.s 			page 27


  84:Adafruit_Fingerprint.cpp **** }
 258               		.loc 3 84 1 view .LVU56
 259 0012 0895      		ret
 260               		.cfi_endproc
 261               	.LFE60:
 263               		.section	.text._ZN20Adafruit_Fingerprint21writeStructuredPacketERK27Adafruit_Fingerprint_Packet,"a
 264               	.global	_ZN20Adafruit_Fingerprint21writeStructuredPacketERK27Adafruit_Fingerprint_Packet
 266               	_ZN20Adafruit_Fingerprint21writeStructuredPacketERK27Adafruit_Fingerprint_Packet:
 267               	.LVL12:
 268               	.LFB82:
  85:Adafruit_Fingerprint.cpp **** 
  86:Adafruit_Fingerprint.cpp **** /**************************************************************************/
  87:Adafruit_Fingerprint.cpp **** /*!
  88:Adafruit_Fingerprint.cpp ****     @brief  Verifies the sensors' access password (default password is
  89:Adafruit_Fingerprint.cpp ****    0x0000000). A good way to also check if the sensors is active and responding
  90:Adafruit_Fingerprint.cpp ****     @returns True if password is correct
  91:Adafruit_Fingerprint.cpp **** */
  92:Adafruit_Fingerprint.cpp **** /**************************************************************************/
  93:Adafruit_Fingerprint.cpp **** bool_t Adafruit_Fingerprint::verifyPassword(void) {
  94:Adafruit_Fingerprint.cpp ****   return checkPassword() == FINGERPRINT_OK;
  95:Adafruit_Fingerprint.cpp **** }
  96:Adafruit_Fingerprint.cpp **** 
  97:Adafruit_Fingerprint.cpp **** uint8_t Adafruit_Fingerprint::checkPassword(void) {
  98:Adafruit_Fingerprint.cpp ****   GET_CMD_PACKET(FINGERPRINT_VERIFYPASSWORD, (uint8_t)(thePassword >> 24),
  99:Adafruit_Fingerprint.cpp ****                  (uint8_t)(thePassword >> 16), (uint8_t)(thePassword >> 8),
 100:Adafruit_Fingerprint.cpp ****                  (uint8_t)(thePassword & 0xFF));
 101:Adafruit_Fingerprint.cpp ****   if (packet.data[0] == FINGERPRINT_OK)
 102:Adafruit_Fingerprint.cpp ****     return FINGERPRINT_OK;
 103:Adafruit_Fingerprint.cpp ****   else
 104:Adafruit_Fingerprint.cpp ****     return FINGERPRINT_PACKETRECIEVEERR;
 105:Adafruit_Fingerprint.cpp **** }
 106:Adafruit_Fingerprint.cpp **** 
 107:Adafruit_Fingerprint.cpp **** /**************************************************************************/
 108:Adafruit_Fingerprint.cpp **** /*!
 109:Adafruit_Fingerprint.cpp ****     @brief  Get the sensors parameters, fills in the member variables
 110:Adafruit_Fingerprint.cpp ****     status_reg, system_id, capacity, security_level, device_addr, packet_len
 111:Adafruit_Fingerprint.cpp ****     and baud_rate
 112:Adafruit_Fingerprint.cpp ****     @returns True if password is correct
 113:Adafruit_Fingerprint.cpp **** */
 114:Adafruit_Fingerprint.cpp **** /**************************************************************************/
 115:Adafruit_Fingerprint.cpp **** uint8_t Adafruit_Fingerprint::getParameters(void) {
 116:Adafruit_Fingerprint.cpp ****   GET_CMD_PACKET(FINGERPRINT_READSYSPARAM);
 117:Adafruit_Fingerprint.cpp **** 
 118:Adafruit_Fingerprint.cpp ****   status_reg = ((uint16_t)packet.data[1] << 8) | packet.data[2];
 119:Adafruit_Fingerprint.cpp ****   system_id = ((uint16_t)packet.data[3] << 8) | packet.data[4];
 120:Adafruit_Fingerprint.cpp ****   capacity = ((uint16_t)packet.data[5] << 8) | packet.data[6];
 121:Adafruit_Fingerprint.cpp ****   security_level = ((uint16_t)packet.data[7] << 8) | packet.data[8];
 122:Adafruit_Fingerprint.cpp ****   device_addr = ((uint32_t)packet.data[9] << 24) |
 123:Adafruit_Fingerprint.cpp ****                 ((uint32_t)packet.data[10] << 16) |
 124:Adafruit_Fingerprint.cpp ****                 ((uint32_t)packet.data[11] << 8) | (uint32_t)packet.data[12];
 125:Adafruit_Fingerprint.cpp ****   packet_len = ((uint16_t)packet.data[13] << 8) | packet.data[14];
 126:Adafruit_Fingerprint.cpp ****   if (packet_len == 0) {
 127:Adafruit_Fingerprint.cpp ****     packet_len = 32;
 128:Adafruit_Fingerprint.cpp ****   } else if (packet_len == 1) {
 129:Adafruit_Fingerprint.cpp ****     packet_len = 64;
 130:Adafruit_Fingerprint.cpp ****   } else if (packet_len == 2) {
 131:Adafruit_Fingerprint.cpp ****     packet_len = 128;
GAS LISTING C:\Users\kenne\AppData\Local\Temp\ccpPZdpD.s 			page 28


 132:Adafruit_Fingerprint.cpp ****   } else if (packet_len == 3) {
 133:Adafruit_Fingerprint.cpp ****     packet_len = 256;
 134:Adafruit_Fingerprint.cpp ****   }
 135:Adafruit_Fingerprint.cpp ****   baud_rate = (((uint16_t)packet.data[15] << 8) | packet.data[16]) * 9600;
 136:Adafruit_Fingerprint.cpp **** 
 137:Adafruit_Fingerprint.cpp ****   return packet.data[0];
 138:Adafruit_Fingerprint.cpp **** }
 139:Adafruit_Fingerprint.cpp **** 
 140:Adafruit_Fingerprint.cpp **** /**************************************************************************/
 141:Adafruit_Fingerprint.cpp **** /*!
 142:Adafruit_Fingerprint.cpp ****     @brief   Ask the sensor to take an image of the finger pressed on surface
 143:Adafruit_Fingerprint.cpp ****     @returns <code>FINGERPRINT_OK</code> on success
 144:Adafruit_Fingerprint.cpp ****     @returns <code>FINGERPRINT_NOFINGER</code> if no finger detected
 145:Adafruit_Fingerprint.cpp ****     @returns <code>FINGERPRINT_PACKETRECIEVEERR</code> on communication error
 146:Adafruit_Fingerprint.cpp ****     @returns <code>FINGERPRINT_IMAGEFAIL</code> on imaging error
 147:Adafruit_Fingerprint.cpp **** */
 148:Adafruit_Fingerprint.cpp **** /**************************************************************************/
 149:Adafruit_Fingerprint.cpp **** uint8_t Adafruit_Fingerprint::getImage(void) {
 150:Adafruit_Fingerprint.cpp ****   SEND_CMD_PACKET(FINGERPRINT_GETIMAGE);
 151:Adafruit_Fingerprint.cpp **** }
 152:Adafruit_Fingerprint.cpp **** 
 153:Adafruit_Fingerprint.cpp **** /**************************************************************************/
 154:Adafruit_Fingerprint.cpp **** /*!
 155:Adafruit_Fingerprint.cpp ****     @brief   Ask the sensor to convert image to feature template
 156:Adafruit_Fingerprint.cpp ****     @param slot Location to place feature template (put one in 1 and another in
 157:Adafruit_Fingerprint.cpp ****    2 for verification to create model)
 158:Adafruit_Fingerprint.cpp ****     @returns <code>FINGERPRINT_OK</code> on success
 159:Adafruit_Fingerprint.cpp ****     @returns <code>FINGERPRINT_IMAGEMESS</code> if image is too messy
 160:Adafruit_Fingerprint.cpp ****     @returns <code>FINGERPRINT_PACKETRECIEVEERR</code> on communication error
 161:Adafruit_Fingerprint.cpp ****     @returns <code>FINGERPRINT_FEATUREFAIL</code> on failure to identify
 162:Adafruit_Fingerprint.cpp ****    fingerprint features
 163:Adafruit_Fingerprint.cpp ****     @returns <code>FINGERPRINT_INVALIDIMAGE</code> on failure to identify
 164:Adafruit_Fingerprint.cpp ****    fingerprint features
 165:Adafruit_Fingerprint.cpp **** */
 166:Adafruit_Fingerprint.cpp **** uint8_t Adafruit_Fingerprint::image2Tz(uint8_t slot) {
 167:Adafruit_Fingerprint.cpp ****   SEND_CMD_PACKET(FINGERPRINT_IMAGE2TZ, slot);
 168:Adafruit_Fingerprint.cpp **** }
 169:Adafruit_Fingerprint.cpp **** 
 170:Adafruit_Fingerprint.cpp **** /**************************************************************************/
 171:Adafruit_Fingerprint.cpp **** /*!
 172:Adafruit_Fingerprint.cpp ****     @brief   Ask the sensor to take two print feature template and create a
 173:Adafruit_Fingerprint.cpp ****    model
 174:Adafruit_Fingerprint.cpp ****     @returns <code>FINGERPRINT_OK</code> on success
 175:Adafruit_Fingerprint.cpp ****     @returns <code>FINGERPRINT_PACKETRECIEVEERR</code> on communication error
 176:Adafruit_Fingerprint.cpp ****     @returns <code>FINGERPRINT_ENROLLMISMATCH</code> on mismatch of fingerprints
 177:Adafruit_Fingerprint.cpp **** */
 178:Adafruit_Fingerprint.cpp **** uint8_t Adafruit_Fingerprint::createModel(void) {
 179:Adafruit_Fingerprint.cpp ****   SEND_CMD_PACKET(FINGERPRINT_REGMODEL);
 180:Adafruit_Fingerprint.cpp **** }
 181:Adafruit_Fingerprint.cpp **** 
 182:Adafruit_Fingerprint.cpp **** /**************************************************************************/
 183:Adafruit_Fingerprint.cpp **** /*!
 184:Adafruit_Fingerprint.cpp ****     @brief   Ask the sensor to store the calculated model for later matching
 185:Adafruit_Fingerprint.cpp ****     @param   location The model location #
 186:Adafruit_Fingerprint.cpp ****     @returns <code>FINGERPRINT_OK</code> on success
 187:Adafruit_Fingerprint.cpp ****     @returns <code>FINGERPRINT_BADLOCATION</code> if the location is invalid
 188:Adafruit_Fingerprint.cpp ****     @returns <code>FINGERPRINT_FLASHERR</code> if the model couldn't be written
GAS LISTING C:\Users\kenne\AppData\Local\Temp\ccpPZdpD.s 			page 29


 189:Adafruit_Fingerprint.cpp ****    to flash memory
 190:Adafruit_Fingerprint.cpp ****     @returns <code>FINGERPRINT_PACKETRECIEVEERR</code> on communication error
 191:Adafruit_Fingerprint.cpp **** */
 192:Adafruit_Fingerprint.cpp **** uint8_t Adafruit_Fingerprint::storeModel(uint16_t location) {
 193:Adafruit_Fingerprint.cpp ****   SEND_CMD_PACKET(FINGERPRINT_STORE, 0x01, (uint8_t)(location >> 8),
 194:Adafruit_Fingerprint.cpp ****                   (uint8_t)(location & 0xFF));
 195:Adafruit_Fingerprint.cpp **** }
 196:Adafruit_Fingerprint.cpp **** 
 197:Adafruit_Fingerprint.cpp **** /**************************************************************************/
 198:Adafruit_Fingerprint.cpp **** /*!
 199:Adafruit_Fingerprint.cpp ****     @brief   Ask the sensor to load a fingerprint model from flash into buffer 1
 200:Adafruit_Fingerprint.cpp ****     @param   location The model location #
 201:Adafruit_Fingerprint.cpp ****     @returns <code>FINGERPRINT_OK</code> on success
 202:Adafruit_Fingerprint.cpp ****     @returns <code>FINGERPRINT_BADLOCATION</code> if the location is invalid
 203:Adafruit_Fingerprint.cpp ****     @returns <code>FINGERPRINT_PACKETRECIEVEERR</code> on communication error
 204:Adafruit_Fingerprint.cpp **** */
 205:Adafruit_Fingerprint.cpp **** uint8_t Adafruit_Fingerprint::loadModel(uint16_t location) {
 206:Adafruit_Fingerprint.cpp ****   SEND_CMD_PACKET(FINGERPRINT_LOAD, 0x01, (uint8_t)(location >> 8),
 207:Adafruit_Fingerprint.cpp ****                   (uint8_t)(location & 0xFF));
 208:Adafruit_Fingerprint.cpp **** }
 209:Adafruit_Fingerprint.cpp **** 
 210:Adafruit_Fingerprint.cpp **** /**************************************************************************/
 211:Adafruit_Fingerprint.cpp **** /*!
 212:Adafruit_Fingerprint.cpp ****     @brief   Ask the sensor to transfer 256-byte fingerprint template from the
 213:Adafruit_Fingerprint.cpp ****    buffer to the UART
 214:Adafruit_Fingerprint.cpp ****     @returns <code>FINGERPRINT_OK</code> on success
 215:Adafruit_Fingerprint.cpp ****     @returns <code>FINGERPRINT_PACKETRECIEVEERR</code> on communication error
 216:Adafruit_Fingerprint.cpp **** */
 217:Adafruit_Fingerprint.cpp **** uint8_t Adafruit_Fingerprint::getModel(void) {
 218:Adafruit_Fingerprint.cpp ****   SEND_CMD_PACKET(FINGERPRINT_UPLOAD, 0x01);
 219:Adafruit_Fingerprint.cpp **** }
 220:Adafruit_Fingerprint.cpp **** 
 221:Adafruit_Fingerprint.cpp **** /**************************************************************************/
 222:Adafruit_Fingerprint.cpp **** /*!
 223:Adafruit_Fingerprint.cpp ****     @brief   Ask the sensor to delete a model in memory
 224:Adafruit_Fingerprint.cpp ****     @param   location The model location #
 225:Adafruit_Fingerprint.cpp ****     @returns <code>FINGERPRINT_OK</code> on success
 226:Adafruit_Fingerprint.cpp ****     @returns <code>FINGERPRINT_BADLOCATION</code> if the location is invalid
 227:Adafruit_Fingerprint.cpp ****     @returns <code>FINGERPRINT_FLASHERR</code> if the model couldn't be written
 228:Adafruit_Fingerprint.cpp ****    to flash memory
 229:Adafruit_Fingerprint.cpp ****     @returns <code>FINGERPRINT_PACKETRECIEVEERR</code> on communication error
 230:Adafruit_Fingerprint.cpp **** */
 231:Adafruit_Fingerprint.cpp **** uint8_t Adafruit_Fingerprint::deleteModel(uint16_t location) {
 232:Adafruit_Fingerprint.cpp ****   SEND_CMD_PACKET(FINGERPRINT_DELETE, (uint8_t)(location >> 8),
 233:Adafruit_Fingerprint.cpp ****                   (uint8_t)(location & 0xFF), 0x00, 0x01);
 234:Adafruit_Fingerprint.cpp **** }
 235:Adafruit_Fingerprint.cpp **** 
 236:Adafruit_Fingerprint.cpp **** /**************************************************************************/
 237:Adafruit_Fingerprint.cpp **** /*!
 238:Adafruit_Fingerprint.cpp ****     @brief   Ask the sensor to delete ALL models in memory
 239:Adafruit_Fingerprint.cpp ****     @returns <code>FINGERPRINT_OK</code> on success
 240:Adafruit_Fingerprint.cpp ****     @returns <code>FINGERPRINT_BADLOCATION</code> if the location is invalid
 241:Adafruit_Fingerprint.cpp ****     @returns <code>FINGERPRINT_FLASHERR</code> if the model couldn't be written
 242:Adafruit_Fingerprint.cpp ****    to flash memory
 243:Adafruit_Fingerprint.cpp ****     @returns <code>FINGERPRINT_PACKETRECIEVEERR</code> on communication error
 244:Adafruit_Fingerprint.cpp **** */
 245:Adafruit_Fingerprint.cpp **** uint8_t Adafruit_Fingerprint::emptyDatabase(void) {
GAS LISTING C:\Users\kenne\AppData\Local\Temp\ccpPZdpD.s 			page 30


 246:Adafruit_Fingerprint.cpp ****   SEND_CMD_PACKET(FINGERPRINT_EMPTY);
 247:Adafruit_Fingerprint.cpp **** }
 248:Adafruit_Fingerprint.cpp **** 
 249:Adafruit_Fingerprint.cpp **** /**************************************************************************/
 250:Adafruit_Fingerprint.cpp **** /*!
 251:Adafruit_Fingerprint.cpp ****     @brief   Ask the sensor to search the current slot 1 fingerprint features to
 252:Adafruit_Fingerprint.cpp ****    match saved templates. The matching location is stored in <b>fingerID</b> and
 253:Adafruit_Fingerprint.cpp ****    the matching confidence in <b>confidence</b>
 254:Adafruit_Fingerprint.cpp ****     @returns <code>FINGERPRINT_OK</code> on fingerprint match success
 255:Adafruit_Fingerprint.cpp ****     @returns <code>FINGERPRINT_NOTFOUND</code> no match made
 256:Adafruit_Fingerprint.cpp ****     @returns <code>FINGERPRINT_PACKETRECIEVEERR</code> on communication error
 257:Adafruit_Fingerprint.cpp **** */
 258:Adafruit_Fingerprint.cpp **** /**************************************************************************/
 259:Adafruit_Fingerprint.cpp **** uint8_t Adafruit_Fingerprint::fingerFastSearch(void) {
 260:Adafruit_Fingerprint.cpp ****   // high speed search of slot #1 starting at page 0x0000 and page #0x00A3
 261:Adafruit_Fingerprint.cpp ****   GET_CMD_PACKET(FINGERPRINT_HISPEEDSEARCH, 0x01, 0x00, 0x00, 0x00, 0xA3);
 262:Adafruit_Fingerprint.cpp ****   fingerID = 0xFFFF;
 263:Adafruit_Fingerprint.cpp ****   confidence = 0xFFFF;
 264:Adafruit_Fingerprint.cpp **** 
 265:Adafruit_Fingerprint.cpp ****   fingerID = packet.data[1];
 266:Adafruit_Fingerprint.cpp ****   fingerID <<= 8;
 267:Adafruit_Fingerprint.cpp ****   fingerID |= packet.data[2];
 268:Adafruit_Fingerprint.cpp **** 
 269:Adafruit_Fingerprint.cpp ****   confidence = packet.data[3];
 270:Adafruit_Fingerprint.cpp ****   confidence <<= 8;
 271:Adafruit_Fingerprint.cpp ****   confidence |= packet.data[4];
 272:Adafruit_Fingerprint.cpp **** 
 273:Adafruit_Fingerprint.cpp ****   return packet.data[0];
 274:Adafruit_Fingerprint.cpp **** }
 275:Adafruit_Fingerprint.cpp **** 
 276:Adafruit_Fingerprint.cpp **** /**************************************************************************/
 277:Adafruit_Fingerprint.cpp **** /*!
 278:Adafruit_Fingerprint.cpp ****     @brief   Control the built in LED
 279:Adafruit_Fingerprint.cpp ****     @param on True if you want LED on, False to turn LED off
 280:Adafruit_Fingerprint.cpp ****     @returns <code>FINGERPRINT_OK</code> on success
 281:Adafruit_Fingerprint.cpp **** */
 282:Adafruit_Fingerprint.cpp **** /**************************************************************************/
 283:Adafruit_Fingerprint.cpp **** uint8_t Adafruit_Fingerprint::LEDcontrol(bool on) {
 284:Adafruit_Fingerprint.cpp ****   if (on) {
 285:Adafruit_Fingerprint.cpp ****     SEND_CMD_PACKET(FINGERPRINT_LEDON);
 286:Adafruit_Fingerprint.cpp ****   } else {
 287:Adafruit_Fingerprint.cpp ****     SEND_CMD_PACKET(FINGERPRINT_LEDOFF);
 288:Adafruit_Fingerprint.cpp ****   }
 289:Adafruit_Fingerprint.cpp **** }
 290:Adafruit_Fingerprint.cpp **** 
 291:Adafruit_Fingerprint.cpp **** /**************************************************************************/
 292:Adafruit_Fingerprint.cpp **** /*!
 293:Adafruit_Fingerprint.cpp ****     @brief   Control the built in Aura LED (if exists). Check datasheet/manual
 294:Adafruit_Fingerprint.cpp ****     for different colors and control codes available
 295:Adafruit_Fingerprint.cpp ****     @param control The control code (e.g. breathing, full on)
 296:Adafruit_Fingerprint.cpp ****     @param speed How fast to go through the breathing/blinking cycles
 297:Adafruit_Fingerprint.cpp ****     @param coloridx What color to light the indicator
 298:Adafruit_Fingerprint.cpp ****     @param count How many repeats of blinks/breathing cycles
 299:Adafruit_Fingerprint.cpp ****     @returns <code>FINGERPRINT_OK</code> on fingerprint match success
 300:Adafruit_Fingerprint.cpp ****     @returns <code>FINGERPRINT_NOTFOUND</code> no match made
 301:Adafruit_Fingerprint.cpp ****     @returns <code>FINGERPRINT_PACKETRECIEVEERR</code> on communication error
 302:Adafruit_Fingerprint.cpp **** */
GAS LISTING C:\Users\kenne\AppData\Local\Temp\ccpPZdpD.s 			page 31


 303:Adafruit_Fingerprint.cpp **** /**************************************************************************/
 304:Adafruit_Fingerprint.cpp **** uint8_t Adafruit_Fingerprint::LEDcontrol(uint8_t control, uint8_t speed,
 305:Adafruit_Fingerprint.cpp ****                                          uint8_t coloridx, uint8_t count) {
 306:Adafruit_Fingerprint.cpp ****   SEND_CMD_PACKET(FINGERPRINT_AURALEDCONFIG, control, speed, coloridx, count);
 307:Adafruit_Fingerprint.cpp **** }
 308:Adafruit_Fingerprint.cpp **** 
 309:Adafruit_Fingerprint.cpp **** /**************************************************************************/
 310:Adafruit_Fingerprint.cpp **** /*!
 311:Adafruit_Fingerprint.cpp ****     @brief   Ask the sensor to search the current slot fingerprint features to
 312:Adafruit_Fingerprint.cpp ****    match saved templates. The matching location is stored in <b>fingerID</b> and
 313:Adafruit_Fingerprint.cpp ****    the matching confidence in <b>confidence</b>
 314:Adafruit_Fingerprint.cpp ****    @param slot The slot to use for the print search, defaults to 1
 315:Adafruit_Fingerprint.cpp ****     @returns <code>FINGERPRINT_OK</code> on fingerprint match success
 316:Adafruit_Fingerprint.cpp ****     @returns <code>FINGERPRINT_NOTFOUND</code> no match made
 317:Adafruit_Fingerprint.cpp ****     @returns <code>FINGERPRINT_PACKETRECIEVEERR</code> on communication error
 318:Adafruit_Fingerprint.cpp **** */
 319:Adafruit_Fingerprint.cpp **** /**************************************************************************/
 320:Adafruit_Fingerprint.cpp **** uint8_t Adafruit_Fingerprint::fingerSearch(uint8_t slot) {
 321:Adafruit_Fingerprint.cpp ****   // search of slot starting thru the capacity
 322:Adafruit_Fingerprint.cpp ****   GET_CMD_PACKET(FINGERPRINT_SEARCH, slot, 0x00, 0x00, (uint8_t)(capacity >> 8),
 323:Adafruit_Fingerprint.cpp ****                  (uint8_t)(capacity & 0xFF));
 324:Adafruit_Fingerprint.cpp **** 
 325:Adafruit_Fingerprint.cpp ****   fingerID = 0xFFFF;
 326:Adafruit_Fingerprint.cpp ****   confidence = 0xFFFF;
 327:Adafruit_Fingerprint.cpp **** 
 328:Adafruit_Fingerprint.cpp ****   fingerID = packet.data[1];
 329:Adafruit_Fingerprint.cpp ****   fingerID <<= 8;
 330:Adafruit_Fingerprint.cpp ****   fingerID |= packet.data[2];
 331:Adafruit_Fingerprint.cpp **** 
 332:Adafruit_Fingerprint.cpp ****   confidence = packet.data[3];
 333:Adafruit_Fingerprint.cpp ****   confidence <<= 8;
 334:Adafruit_Fingerprint.cpp ****   confidence |= packet.data[4];
 335:Adafruit_Fingerprint.cpp **** 
 336:Adafruit_Fingerprint.cpp ****   return packet.data[0];
 337:Adafruit_Fingerprint.cpp **** }
 338:Adafruit_Fingerprint.cpp **** 
 339:Adafruit_Fingerprint.cpp **** /**************************************************************************/
 340:Adafruit_Fingerprint.cpp **** /*!
 341:Adafruit_Fingerprint.cpp ****     @brief   Ask the sensor for the number of templates stored in memory. The
 342:Adafruit_Fingerprint.cpp ****    number is stored in <b>templateCount</b> on success.
 343:Adafruit_Fingerprint.cpp ****     @returns <code>FINGERPRINT_OK</code> on success
 344:Adafruit_Fingerprint.cpp ****     @returns <code>FINGERPRINT_PACKETRECIEVEERR</code> on communication error
 345:Adafruit_Fingerprint.cpp **** */
 346:Adafruit_Fingerprint.cpp **** /**************************************************************************/
 347:Adafruit_Fingerprint.cpp **** uint8_t Adafruit_Fingerprint::getTemplateCount(void) {
 348:Adafruit_Fingerprint.cpp ****   GET_CMD_PACKET(FINGERPRINT_TEMPLATECOUNT);
 349:Adafruit_Fingerprint.cpp **** 
 350:Adafruit_Fingerprint.cpp ****   templateCount = packet.data[1];
 351:Adafruit_Fingerprint.cpp ****   templateCount <<= 8;
 352:Adafruit_Fingerprint.cpp ****   templateCount |= packet.data[2];
 353:Adafruit_Fingerprint.cpp **** 
 354:Adafruit_Fingerprint.cpp ****   return packet.data[0];
 355:Adafruit_Fingerprint.cpp **** }
 356:Adafruit_Fingerprint.cpp **** 
 357:Adafruit_Fingerprint.cpp **** /**************************************************************************/
 358:Adafruit_Fingerprint.cpp **** /*!
 359:Adafruit_Fingerprint.cpp ****     @brief   Set the password on the sensor (future communication will require
GAS LISTING C:\Users\kenne\AppData\Local\Temp\ccpPZdpD.s 			page 32


 360:Adafruit_Fingerprint.cpp ****    password verification so don't forget it!!!)
 361:Adafruit_Fingerprint.cpp ****     @param   password 32-bit password code
 362:Adafruit_Fingerprint.cpp ****     @returns <code>FINGERPRINT_OK</code> on success
 363:Adafruit_Fingerprint.cpp ****     @returns <code>FINGERPRINT_PACKETRECIEVEERR</code> on communication error
 364:Adafruit_Fingerprint.cpp **** */
 365:Adafruit_Fingerprint.cpp **** /**************************************************************************/
 366:Adafruit_Fingerprint.cpp **** uint8_t Adafruit_Fingerprint::setPassword(uint32_t password) {
 367:Adafruit_Fingerprint.cpp ****   SEND_CMD_PACKET(FINGERPRINT_SETPASSWORD, (uint8_t)(password >> 24),
 368:Adafruit_Fingerprint.cpp ****                   (uint8_t)(password >> 16), (uint8_t)(password >> 8),
 369:Adafruit_Fingerprint.cpp ****                   (uint8_t)(password & 0xFF));
 370:Adafruit_Fingerprint.cpp **** }
 371:Adafruit_Fingerprint.cpp **** 
 372:Adafruit_Fingerprint.cpp **** /**************************************************************************/
 373:Adafruit_Fingerprint.cpp **** /*!
 374:Adafruit_Fingerprint.cpp ****     @brief   Writing module registers
 375:Adafruit_Fingerprint.cpp ****     @param   regAdd 8-bit address of register
 376:Adafruit_Fingerprint.cpp ****     @param   value 8-bit value will write to register
 377:Adafruit_Fingerprint.cpp ****     @returns <code>FINGERPRINT_OK</code> on success
 378:Adafruit_Fingerprint.cpp ****     @returns <code>FINGERPRINT_PACKETRECIEVEERR</code> on communication error
 379:Adafruit_Fingerprint.cpp ****     @returns <code>FINGERPRINT_ADDRESS_ERROR</code> on register address error
 380:Adafruit_Fingerprint.cpp **** */
 381:Adafruit_Fingerprint.cpp **** /**************************************************************************/
 382:Adafruit_Fingerprint.cpp **** uint8_t Adafruit_Fingerprint::writeRegister(uint8_t regAdd, uint8_t value) {
 383:Adafruit_Fingerprint.cpp **** 
 384:Adafruit_Fingerprint.cpp ****   SEND_CMD_PACKET(FINGERPRINT_WRITE_REG, regAdd, value);
 385:Adafruit_Fingerprint.cpp **** }
 386:Adafruit_Fingerprint.cpp **** 
 387:Adafruit_Fingerprint.cpp **** /**************************************************************************/
 388:Adafruit_Fingerprint.cpp **** /*!
 389:Adafruit_Fingerprint.cpp ****     @brief   Change UART baudrate
 390:Adafruit_Fingerprint.cpp ****     @param   baudrate 8-bit Uart baudrate
 391:Adafruit_Fingerprint.cpp ****     @returns <code>FINGERPRINT_OK</code> on success
 392:Adafruit_Fingerprint.cpp ****     @returns <code>FINGERPRINT_PACKETRECIEVEERR</code> on communication error
 393:Adafruit_Fingerprint.cpp **** */
 394:Adafruit_Fingerprint.cpp **** /**************************************************************************/
 395:Adafruit_Fingerprint.cpp **** uint8_t Adafruit_Fingerprint::setBaudRate(uint8_t baudrate) {
 396:Adafruit_Fingerprint.cpp **** 
 397:Adafruit_Fingerprint.cpp ****   return (writeRegister(FINGERPRINT_BAUD_REG_ADDR, baud_rate));
 398:Adafruit_Fingerprint.cpp **** }
 399:Adafruit_Fingerprint.cpp **** 
 400:Adafruit_Fingerprint.cpp **** /**************************************************************************/
 401:Adafruit_Fingerprint.cpp **** /*!
 402:Adafruit_Fingerprint.cpp ****     @brief   Change security level
 403:Adafruit_Fingerprint.cpp ****     @param   level 8-bit security level
 404:Adafruit_Fingerprint.cpp ****     @returns <code>FINGERPRINT_OK</code> on success
 405:Adafruit_Fingerprint.cpp ****     @returns <code>FINGERPRINT_PACKETRECIEVEERR</code> on communication error
 406:Adafruit_Fingerprint.cpp **** */
 407:Adafruit_Fingerprint.cpp **** /**************************************************************************/
 408:Adafruit_Fingerprint.cpp **** uint8_t Adafruit_Fingerprint::setSecurityLevel(uint8_t level) {
 409:Adafruit_Fingerprint.cpp **** 
 410:Adafruit_Fingerprint.cpp ****   return (writeRegister(FINGERPRINT_SECURITY_REG_ADDR, level));
 411:Adafruit_Fingerprint.cpp **** }
 412:Adafruit_Fingerprint.cpp **** 
 413:Adafruit_Fingerprint.cpp **** /**************************************************************************/
 414:Adafruit_Fingerprint.cpp **** /*!
 415:Adafruit_Fingerprint.cpp ****     @brief   Change packet size
 416:Adafruit_Fingerprint.cpp ****     @param   size 8-bit packet size
GAS LISTING C:\Users\kenne\AppData\Local\Temp\ccpPZdpD.s 			page 33


 417:Adafruit_Fingerprint.cpp ****     @returns <code>FINGERPRINT_OK</code> on success
 418:Adafruit_Fingerprint.cpp ****     @returns <code>FINGERPRINT_PACKETRECIEVEERR</code> on communication error
 419:Adafruit_Fingerprint.cpp **** */
 420:Adafruit_Fingerprint.cpp **** /**************************************************************************/
 421:Adafruit_Fingerprint.cpp **** uint8_t Adafruit_Fingerprint::setPacketSize(uint8_t size) {
 422:Adafruit_Fingerprint.cpp **** 
 423:Adafruit_Fingerprint.cpp ****   return (writeRegister(FINGERPRINT_PACKET_REG_ADDR, size));
 424:Adafruit_Fingerprint.cpp **** }
 425:Adafruit_Fingerprint.cpp **** /**************************************************************************/
 426:Adafruit_Fingerprint.cpp **** /*!
 427:Adafruit_Fingerprint.cpp ****     @brief   Helper function to process a packet and send it over UART to the
 428:Adafruit_Fingerprint.cpp ****    sensor
 429:Adafruit_Fingerprint.cpp ****     @param   packet A structure containing the bytes to transmit
 430:Adafruit_Fingerprint.cpp **** */
 431:Adafruit_Fingerprint.cpp **** /**************************************************************************/
 432:Adafruit_Fingerprint.cpp **** 
 433:Adafruit_Fingerprint.cpp **** void Adafruit_Fingerprint::writeStructuredPacket(
 434:Adafruit_Fingerprint.cpp ****     const Adafruit_Fingerprint_Packet &packet) {
 269               		.loc 3 434 48 is_stmt 1 view -0
 270               		.cfi_startproc
 271               		.loc 3 434 48 is_stmt 0 view .LVU58
 272 0000 AF92      		push r10
 273               		.cfi_def_cfa_offset 3
 274               		.cfi_offset 10, -2
 275 0002 BF92      		push r11
 276               		.cfi_def_cfa_offset 4
 277               		.cfi_offset 11, -3
 278 0004 CF92      		push r12
 279               		.cfi_def_cfa_offset 5
 280               		.cfi_offset 12, -4
 281 0006 DF92      		push r13
 282               		.cfi_def_cfa_offset 6
 283               		.cfi_offset 13, -5
 284 0008 EF92      		push r14
 285               		.cfi_def_cfa_offset 7
 286               		.cfi_offset 14, -6
 287 000a FF92      		push r15
 288               		.cfi_def_cfa_offset 8
 289               		.cfi_offset 15, -7
 290 000c 0F93      		push r16
 291               		.cfi_def_cfa_offset 9
 292               		.cfi_offset 16, -8
 293 000e 1F93      		push r17
 294               		.cfi_def_cfa_offset 10
 295               		.cfi_offset 17, -9
 296 0010 CF93      		push r28
 297               		.cfi_def_cfa_offset 11
 298               		.cfi_offset 28, -10
 299               	/* prologue: function */
 300               	/* frame size = 0 */
 301               	/* stack size = 9 */
 302               	.L__stack_usage = 9
 303 0012 C82E      		mov r12,r24
 304 0014 D92E      		mov r13,r25
 305 0016 062F      		mov r16,r22
 306 0018 172F      		mov r17,r23
 435:Adafruit_Fingerprint.cpp **** 
GAS LISTING C:\Users\kenne\AppData\Local\Temp\ccpPZdpD.s 			page 34


 436:Adafruit_Fingerprint.cpp ****   mySerial->write((uint8_t)(packet.start_code >> 8));
 307               		.loc 3 436 3 is_stmt 1 view .LVU59
 308               		.loc 3 436 36 is_stmt 0 view .LVU60
 309 001a F801      		movw r30,r16
 310 001c 6181      		ldd r22,Z+1
 311               	.LVL13:
 312               		.loc 3 436 18 view .LVU61
 313 001e 70E0      		ldi r23,0
 314 0020 F601      		movw r30,r12
 315 0022 84A9      		ldd r24,Z+52
 316 0024 95A9      		ldd r25,Z+53
 317               	.LVL14:
 318               		.loc 3 436 18 view .LVU62
 319 0026 0E94 0000 		call _ZN6Usart05writeEj
 320               	.LVL15:
 437:Adafruit_Fingerprint.cpp ****   mySerial->write((uint8_t)(packet.start_code & 0xFF));
 321               		.loc 3 437 3 is_stmt 1 view .LVU63
 322               		.loc 3 437 36 is_stmt 0 view .LVU64
 323 002a F801      		movw r30,r16
 324 002c 6081      		ld r22,Z
 325 002e 7181      		ldd r23,Z+1
 326               		.loc 3 437 18 view .LVU65
 327 0030 7727      		clr r23
 328 0032 F601      		movw r30,r12
 329 0034 84A9      		ldd r24,Z+52
 330 0036 95A9      		ldd r25,Z+53
 331 0038 0E94 0000 		call _ZN6Usart05writeEj
 332               	.LVL16:
 438:Adafruit_Fingerprint.cpp ****   mySerial->write(packet.address[0]);
 333               		.loc 3 438 3 is_stmt 1 view .LVU66
 334               		.loc 3 438 35 is_stmt 0 view .LVU67
 335 003c F801      		movw r30,r16
 336 003e 6281      		ldd r22,Z+2
 337               		.loc 3 438 18 view .LVU68
 338 0040 70E0      		ldi r23,0
 339 0042 F601      		movw r30,r12
 340 0044 84A9      		ldd r24,Z+52
 341 0046 95A9      		ldd r25,Z+53
 342 0048 0E94 0000 		call _ZN6Usart05writeEj
 343               	.LVL17:
 439:Adafruit_Fingerprint.cpp ****   mySerial->write(packet.address[1]);
 344               		.loc 3 439 3 is_stmt 1 view .LVU69
 345               		.loc 3 439 35 is_stmt 0 view .LVU70
 346 004c F801      		movw r30,r16
 347 004e 6381      		ldd r22,Z+3
 348               		.loc 3 439 18 view .LVU71
 349 0050 70E0      		ldi r23,0
 350 0052 F601      		movw r30,r12
 351 0054 84A9      		ldd r24,Z+52
 352 0056 95A9      		ldd r25,Z+53
 353 0058 0E94 0000 		call _ZN6Usart05writeEj
 354               	.LVL18:
 440:Adafruit_Fingerprint.cpp ****   mySerial->write(packet.address[2]);
 355               		.loc 3 440 3 is_stmt 1 view .LVU72
 356               		.loc 3 440 35 is_stmt 0 view .LVU73
 357 005c F801      		movw r30,r16
 358 005e 6481      		ldd r22,Z+4
GAS LISTING C:\Users\kenne\AppData\Local\Temp\ccpPZdpD.s 			page 35


 359               		.loc 3 440 18 view .LVU74
 360 0060 70E0      		ldi r23,0
 361 0062 F601      		movw r30,r12
 362 0064 84A9      		ldd r24,Z+52
 363 0066 95A9      		ldd r25,Z+53
 364 0068 0E94 0000 		call _ZN6Usart05writeEj
 365               	.LVL19:
 441:Adafruit_Fingerprint.cpp ****   mySerial->write(packet.address[3]);
 366               		.loc 3 441 3 is_stmt 1 view .LVU75
 367               		.loc 3 441 35 is_stmt 0 view .LVU76
 368 006c F801      		movw r30,r16
 369 006e 6581      		ldd r22,Z+5
 370               		.loc 3 441 18 view .LVU77
 371 0070 70E0      		ldi r23,0
 372 0072 F601      		movw r30,r12
 373 0074 84A9      		ldd r24,Z+52
 374 0076 95A9      		ldd r25,Z+53
 375 0078 0E94 0000 		call _ZN6Usart05writeEj
 376               	.LVL20:
 442:Adafruit_Fingerprint.cpp ****   mySerial->write(packet.type);
 377               		.loc 3 442 3 is_stmt 1 view .LVU78
 378               		.loc 3 442 26 is_stmt 0 view .LVU79
 379 007c F801      		movw r30,r16
 380 007e 6681      		ldd r22,Z+6
 381               		.loc 3 442 18 view .LVU80
 382 0080 70E0      		ldi r23,0
 383 0082 F601      		movw r30,r12
 384 0084 84A9      		ldd r24,Z+52
 385 0086 95A9      		ldd r25,Z+53
 386 0088 0E94 0000 		call _ZN6Usart05writeEj
 387               	.LVL21:
 443:Adafruit_Fingerprint.cpp **** 
 444:Adafruit_Fingerprint.cpp ****   uint16_t wire_length = packet.length + 2;
 388               		.loc 3 444 3 is_stmt 1 view .LVU81
 389               		.loc 3 444 33 is_stmt 0 view .LVU82
 390 008c F801      		movw r30,r16
 391 008e A780      		ldd r10,Z+7
 392 0090 B084      		ldd r11,Z+8
 393               		.loc 3 444 12 view .LVU83
 394 0092 F2E0      		ldi r31,2
 395 0094 AF0E      		add r10,r31
 396 0096 B11C      		adc r11,__zero_reg__
 397               	.LVL22:
 445:Adafruit_Fingerprint.cpp ****   mySerial->write((uint8_t)(wire_length >> 8));
 398               		.loc 3 445 3 is_stmt 1 view .LVU84
 399               		.loc 3 445 41 is_stmt 0 view .LVU85
 400 0098 EB2C      		mov r14,r11
 401 009a FF24      		clr r15
 402               		.loc 3 445 18 view .LVU86
 403 009c B701      		movw r22,r14
 404 009e F601      		movw r30,r12
 405 00a0 84A9      		ldd r24,Z+52
 406 00a2 95A9      		ldd r25,Z+53
 407 00a4 0E94 0000 		call _ZN6Usart05writeEj
 408               	.LVL23:
 446:Adafruit_Fingerprint.cpp ****   mySerial->write((uint8_t)(wire_length & 0xFF));
 409               		.loc 3 446 3 is_stmt 1 view .LVU87
GAS LISTING C:\Users\kenne\AppData\Local\Temp\ccpPZdpD.s 			page 36


 410 00a8 BB24      		clr r11
 411               	.LVL24:
 412               		.loc 3 446 18 is_stmt 0 view .LVU88
 413 00aa B501      		movw r22,r10
 414 00ac F601      		movw r30,r12
 415 00ae 84A9      		ldd r24,Z+52
 416 00b0 95A9      		ldd r25,Z+53
 417 00b2 0E94 0000 		call _ZN6Usart05writeEj
 418               	.LVL25:
 447:Adafruit_Fingerprint.cpp **** 
 448:Adafruit_Fingerprint.cpp **** #ifdef FINGERPRINT_DEBUG
 449:Adafruit_Fingerprint.cpp ****   Serial.print("-> 0x");
 450:Adafruit_Fingerprint.cpp ****   Serial.print((uint8_t)(packet.start_code >> 8), HEX);
 451:Adafruit_Fingerprint.cpp ****   Serial.print(", 0x");
 452:Adafruit_Fingerprint.cpp ****   Serial.print((uint8_t)(packet.start_code & 0xFF), HEX);
 453:Adafruit_Fingerprint.cpp ****   Serial.print(", 0x");
 454:Adafruit_Fingerprint.cpp ****   Serial.print(packet.address[0], HEX);
 455:Adafruit_Fingerprint.cpp ****   Serial.print(", 0x");
 456:Adafruit_Fingerprint.cpp ****   Serial.print(packet.address[1], HEX);
 457:Adafruit_Fingerprint.cpp ****   Serial.print(", 0x");
 458:Adafruit_Fingerprint.cpp ****   Serial.print(packet.address[2], HEX);
 459:Adafruit_Fingerprint.cpp ****   Serial.print(", 0x");
 460:Adafruit_Fingerprint.cpp ****   Serial.print(packet.address[3], HEX);
 461:Adafruit_Fingerprint.cpp ****   Serial.print(", 0x");
 462:Adafruit_Fingerprint.cpp ****   Serial.print(packet.type, HEX);
 463:Adafruit_Fingerprint.cpp ****   Serial.print(", 0x");
 464:Adafruit_Fingerprint.cpp ****   Serial.print((uint8_t)(wire_length >> 8), HEX);
 465:Adafruit_Fingerprint.cpp ****   Serial.print(", 0x");
 466:Adafruit_Fingerprint.cpp ****   Serial.print((uint8_t)(wire_length & 0xFF), HEX);
 467:Adafruit_Fingerprint.cpp **** #endif
 468:Adafruit_Fingerprint.cpp **** 
 469:Adafruit_Fingerprint.cpp ****   uint16_t sum = ((wire_length) >> 8) + ((wire_length)&0xFF) + packet.type;
 419               		.loc 3 469 3 is_stmt 1 view .LVU89
 420               		.loc 3 469 39 is_stmt 0 view .LVU90
 421 00b6 EA0C      		add r14,r10
 422 00b8 FB1C      		adc r15,r11
 423               		.loc 3 469 71 view .LVU91
 424 00ba F801      		movw r30,r16
 425 00bc 8681      		ldd r24,Z+6
 426               		.loc 3 469 12 view .LVU92
 427 00be E80E      		add r14,r24
 428 00c0 F11C      		adc r15,__zero_reg__
 429               	.LVL26:
 470:Adafruit_Fingerprint.cpp ****   for (uint8_t i = 0; i < packet.length; i++) {
 430               		.loc 3 470 3 is_stmt 1 view .LVU93
 431               	.LBB8:
 432               		.loc 3 470 16 is_stmt 0 view .LVU94
 433 00c2 C0E0      		ldi r28,0
 434               		.loc 3 470 3 view .LVU95
 435 00c4 00C0      		rjmp .L8
 436               	.LVL27:
 437               	.L9:
 471:Adafruit_Fingerprint.cpp ****     mySerial->write(packet.data[i]);
 438               		.loc 3 471 5 is_stmt 1 discriminator 3 view .LVU96
 439               		.loc 3 471 34 is_stmt 0 discriminator 3 view .LVU97
 440 00c6 5801      		movw r10,r16
 441 00c8 AC0E      		add r10,r28
GAS LISTING C:\Users\kenne\AppData\Local\Temp\ccpPZdpD.s 			page 37


 442 00ca B11C      		adc r11,__zero_reg__
 443 00cc F501      		movw r30,r10
 444 00ce 6185      		ldd r22,Z+9
 445               		.loc 3 471 20 discriminator 3 view .LVU98
 446 00d0 70E0      		ldi r23,0
 447 00d2 F601      		movw r30,r12
 448 00d4 84A9      		ldd r24,Z+52
 449 00d6 95A9      		ldd r25,Z+53
 450               	.LVL28:
 451               		.loc 3 471 20 discriminator 3 view .LVU99
 452 00d8 0E94 0000 		call _ZN6Usart05writeEj
 453               	.LVL29:
 472:Adafruit_Fingerprint.cpp ****     sum += packet.data[i];
 454               		.loc 3 472 5 is_stmt 1 discriminator 3 view .LVU100
 455               		.loc 3 472 25 is_stmt 0 discriminator 3 view .LVU101
 456 00dc F501      		movw r30,r10
 457 00de 8185      		ldd r24,Z+9
 458               		.loc 3 472 9 discriminator 3 view .LVU102
 459 00e0 E80E      		add r14,r24
 460 00e2 F11C      		adc r15,__zero_reg__
 461               	.LVL30:
 470:Adafruit_Fingerprint.cpp ****   for (uint8_t i = 0; i < packet.length; i++) {
 462               		.loc 3 470 3 is_stmt 1 discriminator 3 view .LVU103
 463 00e4 CF5F      		subi r28,lo8(-(1))
 464               	.LVL31:
 465               	.L8:
 470:Adafruit_Fingerprint.cpp ****   for (uint8_t i = 0; i < packet.length; i++) {
 466               		.loc 3 470 25 discriminator 1 view .LVU104
 470:Adafruit_Fingerprint.cpp ****   for (uint8_t i = 0; i < packet.length; i++) {
 467               		.loc 3 470 23 is_stmt 0 discriminator 1 view .LVU105
 468 00e6 8C2F      		mov r24,r28
 469 00e8 90E0      		ldi r25,0
 470:Adafruit_Fingerprint.cpp ****   for (uint8_t i = 0; i < packet.length; i++) {
 470               		.loc 3 470 34 discriminator 1 view .LVU106
 471 00ea F801      		movw r30,r16
 472 00ec 2781      		ldd r18,Z+7
 473 00ee 3085      		ldd r19,Z+8
 470:Adafruit_Fingerprint.cpp ****   for (uint8_t i = 0; i < packet.length; i++) {
 474               		.loc 3 470 25 discriminator 1 view .LVU107
 475 00f0 8217      		cp r24,r18
 476 00f2 9307      		cpc r25,r19
 477 00f4 00F0      		brlo .L9
 470:Adafruit_Fingerprint.cpp ****   for (uint8_t i = 0; i < packet.length; i++) {
 478               		.loc 3 470 25 discriminator 1 view .LVU108
 479               	.LBE8:
 473:Adafruit_Fingerprint.cpp **** #ifdef FINGERPRINT_DEBUG
 474:Adafruit_Fingerprint.cpp ****     Serial.print(", 0x");
 475:Adafruit_Fingerprint.cpp ****     Serial.print(packet.data[i], HEX);
 476:Adafruit_Fingerprint.cpp **** #endif
 477:Adafruit_Fingerprint.cpp ****   }
 478:Adafruit_Fingerprint.cpp **** 
 479:Adafruit_Fingerprint.cpp ****   mySerial->write((uint8_t)(sum >> 8));
 480               		.loc 3 479 3 is_stmt 1 view .LVU109
 481               		.loc 3 479 18 is_stmt 0 view .LVU110
 482 00f6 6F2D      		mov r22,r15
 483 00f8 70E0      		ldi r23,0
 484 00fa F601      		movw r30,r12
GAS LISTING C:\Users\kenne\AppData\Local\Temp\ccpPZdpD.s 			page 38


 485 00fc 84A9      		ldd r24,Z+52
 486 00fe 95A9      		ldd r25,Z+53
 487 0100 0E94 0000 		call _ZN6Usart05writeEj
 488               	.LVL32:
 480:Adafruit_Fingerprint.cpp ****   mySerial->write((uint8_t)(sum & 0xFF));
 489               		.loc 3 480 3 is_stmt 1 view .LVU111
 490               		.loc 3 480 18 is_stmt 0 view .LVU112
 491 0104 B701      		movw r22,r14
 492 0106 7727      		clr r23
 493 0108 F601      		movw r30,r12
 494 010a 84A9      		ldd r24,Z+52
 495 010c 95A9      		ldd r25,Z+53
 496 010e 0E94 0000 		call _ZN6Usart05writeEj
 497               	.LVL33:
 481:Adafruit_Fingerprint.cpp **** 
 482:Adafruit_Fingerprint.cpp **** #ifdef FINGERPRINT_DEBUG
 483:Adafruit_Fingerprint.cpp ****   Serial.print(", 0x");
 484:Adafruit_Fingerprint.cpp ****   Serial.print((uint8_t)(sum >> 8), HEX);
 485:Adafruit_Fingerprint.cpp ****   Serial.print(", 0x");
 486:Adafruit_Fingerprint.cpp ****   Serial.println((uint8_t)(sum & 0xFF), HEX);
 487:Adafruit_Fingerprint.cpp **** #endif
 488:Adafruit_Fingerprint.cpp **** 
 489:Adafruit_Fingerprint.cpp ****   return;
 498               		.loc 3 489 3 is_stmt 1 view .LVU113
 499               	/* epilogue start */
 490:Adafruit_Fingerprint.cpp **** }
 500               		.loc 3 490 1 is_stmt 0 view .LVU114
 501 0112 CF91      		pop r28
 502               	.LVL34:
 503               		.loc 3 490 1 view .LVU115
 504 0114 1F91      		pop r17
 505 0116 0F91      		pop r16
 506 0118 FF90      		pop r15
 507 011a EF90      		pop r14
 508               	.LVL35:
 509               		.loc 3 490 1 view .LVU116
 510 011c DF90      		pop r13
 511 011e CF90      		pop r12
 512 0120 BF90      		pop r11
 513 0122 AF90      		pop r10
 514 0124 0895      		ret
 515               		.cfi_endproc
 516               	.LFE82:
 518               		.section	.text._ZN20Adafruit_Fingerprint19getStructuredPacketEP27Adafruit_Fingerprint_Packetj,"ax"
 519               	.global	_ZN20Adafruit_Fingerprint19getStructuredPacketEP27Adafruit_Fingerprint_Packetj
 521               	_ZN20Adafruit_Fingerprint19getStructuredPacketEP27Adafruit_Fingerprint_Packetj:
 522               	.LVL36:
 523               	.LFB83:
 491:Adafruit_Fingerprint.cpp **** 
 492:Adafruit_Fingerprint.cpp **** /**************************************************************************/
 493:Adafruit_Fingerprint.cpp **** /*!
 494:Adafruit_Fingerprint.cpp ****     @brief   Helper function to receive data over UART from the sensor and
 495:Adafruit_Fingerprint.cpp ****    process it into a packet
 496:Adafruit_Fingerprint.cpp ****     @param   packet A structure containing the bytes received
 497:Adafruit_Fingerprint.cpp ****     @param   timeout how many milliseconds we're willing to wait
 498:Adafruit_Fingerprint.cpp ****     @returns <code>FINGERPRINT_OK</code> on success
 499:Adafruit_Fingerprint.cpp ****     @returns <code>FINGERPRINT_TIMEOUT</code> or
GAS LISTING C:\Users\kenne\AppData\Local\Temp\ccpPZdpD.s 			page 39


 500:Adafruit_Fingerprint.cpp ****    <code>FINGERPRINT_BADPACKET</code> on failure
 501:Adafruit_Fingerprint.cpp **** */
 502:Adafruit_Fingerprint.cpp **** /**************************************************************************/
 503:Adafruit_Fingerprint.cpp **** uint8_t
 504:Adafruit_Fingerprint.cpp **** Adafruit_Fingerprint::getStructuredPacket(Adafruit_Fingerprint_Packet *packet,
 505:Adafruit_Fingerprint.cpp ****                                           uint16_t timeout) {
 524               		.loc 3 505 61 is_stmt 1 view -0
 525               		.cfi_startproc
 526               		.loc 3 505 61 is_stmt 0 view .LVU118
 527 0000 CF92      		push r12
 528               		.cfi_def_cfa_offset 3
 529               		.cfi_offset 12, -2
 530 0002 DF92      		push r13
 531               		.cfi_def_cfa_offset 4
 532               		.cfi_offset 13, -3
 533 0004 EF92      		push r14
 534               		.cfi_def_cfa_offset 5
 535               		.cfi_offset 14, -4
 536 0006 FF92      		push r15
 537               		.cfi_def_cfa_offset 6
 538               		.cfi_offset 15, -5
 539 0008 0F93      		push r16
 540               		.cfi_def_cfa_offset 7
 541               		.cfi_offset 16, -6
 542 000a 1F93      		push r17
 543               		.cfi_def_cfa_offset 8
 544               		.cfi_offset 17, -7
 545 000c CF93      		push r28
 546               		.cfi_def_cfa_offset 9
 547               		.cfi_offset 28, -8
 548 000e DF93      		push r29
 549               		.cfi_def_cfa_offset 10
 550               		.cfi_offset 29, -9
 551 0010 0F92      		push __tmp_reg__
 552               		.cfi_def_cfa_offset 11
 553 0012 CDB7      		in r28,__SP_L__
 554 0014 DEB7      		in r29,__SP_H__
 555               		.cfi_def_cfa_register 28
 556               	/* prologue: function */
 557               	/* frame size = 1 */
 558               	/* stack size = 9 */
 559               	.L__stack_usage = 9
 560 0016 C82E      		mov r12,r24
 561 0018 D92E      		mov r13,r25
 562 001a E62E      		mov r14,r22
 563 001c F72E      		mov r15,r23
 506:Adafruit_Fingerprint.cpp ****   uint8_t byte;
 564               		.loc 3 506 3 is_stmt 1 view .LVU119
 507:Adafruit_Fingerprint.cpp ****   uint16_t idx = 0, timer = 0;
 565               		.loc 3 507 3 view .LVU120
 566               	.LVL37:
 567               		.loc 3 507 12 is_stmt 0 view .LVU121
 568 001e 00E0      		ldi r16,0
 569 0020 10E0      		ldi r17,0
 570 0022 00C0      		rjmp .L11
 571               	.LVL38:
 572               	.L24:
GAS LISTING C:\Users\kenne\AppData\Local\Temp\ccpPZdpD.s 			page 40


 573               		.loc 3 507 12 view .LVU122
 574 0024 C801      		movw r24,r16
 575 0026 00C0      		rjmp .L21
 576               	.L29:
 508:Adafruit_Fingerprint.cpp **** 
 509:Adafruit_Fingerprint.cpp **** #ifdef FINGERPRINT_DEBUG
 510:Adafruit_Fingerprint.cpp ****   Serial.print("<- ");
 511:Adafruit_Fingerprint.cpp **** #endif
 512:Adafruit_Fingerprint.cpp **** 
 513:Adafruit_Fingerprint.cpp ****   while (true) {
 514:Adafruit_Fingerprint.cpp ****     mySerial->read(&byte);
 515:Adafruit_Fingerprint.cpp **** #ifdef FINGERPRINT_DEBUG
 516:Adafruit_Fingerprint.cpp ****     Serial.print("0x");
 517:Adafruit_Fingerprint.cpp ****     Serial.print(byte, HEX);
 518:Adafruit_Fingerprint.cpp ****     Serial.print(", ");
 519:Adafruit_Fingerprint.cpp **** #endif
 520:Adafruit_Fingerprint.cpp ****     switch (idx) {
 577               		.loc 3 520 5 view .LVU123
 578 0028 0115      		cp r16,__zero_reg__
 579 002a 1105      		cpc r17,__zero_reg__
 580 002c 01F0      		breq .+2
 581 002e 00C0      		rjmp .L17
 521:Adafruit_Fingerprint.cpp ****     case 0:
 582               		.loc 3 521 5 is_stmt 1 view .LVU124
 522:Adafruit_Fingerprint.cpp ****       if (byte != (FINGERPRINT_STARTCODE >> 8))
 583               		.loc 3 522 7 view .LVU125
 584               		.loc 3 522 16 is_stmt 0 view .LVU126
 585 0030 8981      		ldd r24,Y+1
 586               		.loc 3 522 7 view .LVU127
 587 0032 8F3E      		cpi r24,lo8(-17)
 588 0034 01F4      		brne .L24
 523:Adafruit_Fingerprint.cpp ****         continue;
 524:Adafruit_Fingerprint.cpp ****       packet->start_code = (uint16_t)byte << 8;
 589               		.loc 3 524 7 is_stmt 1 view .LVU128
 590               		.loc 3 524 26 is_stmt 0 view .LVU129
 591 0036 F701      		movw r30,r14
 592 0038 1082      		st Z,__zero_reg__
 593 003a 8183      		std Z+1,r24
 525:Adafruit_Fingerprint.cpp ****       break;
 594               		.loc 3 525 7 is_stmt 1 view .LVU130
 595 003c 00C0      		rjmp .L22
 596               	.L13:
 520:Adafruit_Fingerprint.cpp ****     case 0:
 597               		.loc 3 520 5 is_stmt 0 view .LVU131
 598 003e 0730      		cpi r16,7
 599 0040 1105      		cpc r17,__zero_reg__
 600 0042 01F4      		brne .+2
 601 0044 00C0      		rjmp .L19
 520:Adafruit_Fingerprint.cpp ****     case 0:
 602               		.loc 3 520 5 view .LVU132
 603 0046 0830      		cpi r16,8
 604 0048 1105      		cpc r17,__zero_reg__
 605 004a 01F0      		breq .+2
 606 004c 00C0      		rjmp .L17
 526:Adafruit_Fingerprint.cpp ****     case 1:
 527:Adafruit_Fingerprint.cpp ****       packet->start_code |= byte;
 528:Adafruit_Fingerprint.cpp ****       if (packet->start_code != FINGERPRINT_STARTCODE)
GAS LISTING C:\Users\kenne\AppData\Local\Temp\ccpPZdpD.s 			page 41


 529:Adafruit_Fingerprint.cpp ****         return FINGERPRINT_BADPACKET;
 530:Adafruit_Fingerprint.cpp ****       break;
 531:Adafruit_Fingerprint.cpp ****     case 2:
 532:Adafruit_Fingerprint.cpp ****     case 3:
 533:Adafruit_Fingerprint.cpp ****     case 4:
 534:Adafruit_Fingerprint.cpp ****     case 5:
 535:Adafruit_Fingerprint.cpp ****       packet->address[idx - 2] = byte;
 536:Adafruit_Fingerprint.cpp ****       break;
 537:Adafruit_Fingerprint.cpp ****     case 6:
 538:Adafruit_Fingerprint.cpp ****       packet->type = byte;
 539:Adafruit_Fingerprint.cpp ****       break;
 540:Adafruit_Fingerprint.cpp ****     case 7:
 541:Adafruit_Fingerprint.cpp ****       packet->length = (uint16_t)byte << 8;
 542:Adafruit_Fingerprint.cpp ****       break;
 543:Adafruit_Fingerprint.cpp ****     case 8:
 607               		.loc 3 543 5 is_stmt 1 view .LVU133
 544:Adafruit_Fingerprint.cpp ****       packet->length |= byte;
 608               		.loc 3 544 7 view .LVU134
 609               		.loc 3 544 15 is_stmt 0 view .LVU135
 610 004e F701      		movw r30,r14
 611 0050 8781      		ldd r24,Z+7
 612 0052 9085      		ldd r25,Z+8
 613               		.loc 3 544 25 view .LVU136
 614 0054 2981      		ldd r18,Y+1
 615               		.loc 3 544 22 view .LVU137
 616 0056 822B      		or r24,r18
 617 0058 9087      		std Z+8,r25
 618 005a 8783      		std Z+7,r24
 545:Adafruit_Fingerprint.cpp ****       break;
 619               		.loc 3 545 7 is_stmt 1 view .LVU138
 620 005c 00C0      		rjmp .L22
 621               	.L14:
 526:Adafruit_Fingerprint.cpp ****     case 1:
 622               		.loc 3 526 5 view .LVU139
 527:Adafruit_Fingerprint.cpp ****       if (packet->start_code != FINGERPRINT_STARTCODE)
 623               		.loc 3 527 7 view .LVU140
 527:Adafruit_Fingerprint.cpp ****       if (packet->start_code != FINGERPRINT_STARTCODE)
 624               		.loc 3 527 15 is_stmt 0 view .LVU141
 625 005e F701      		movw r30,r14
 626 0060 8081      		ld r24,Z
 627 0062 9181      		ldd r25,Z+1
 527:Adafruit_Fingerprint.cpp ****       if (packet->start_code != FINGERPRINT_STARTCODE)
 628               		.loc 3 527 29 view .LVU142
 629 0064 2981      		ldd r18,Y+1
 527:Adafruit_Fingerprint.cpp ****       if (packet->start_code != FINGERPRINT_STARTCODE)
 630               		.loc 3 527 26 view .LVU143
 631 0066 822B      		or r24,r18
 632 0068 9183      		std Z+1,r25
 633 006a 8083      		st Z,r24
 528:Adafruit_Fingerprint.cpp ****         return FINGERPRINT_BADPACKET;
 634               		.loc 3 528 7 is_stmt 1 view .LVU144
 635 006c 8130      		cpi r24,1
 636 006e 9F4E      		sbci r25,-17
 637 0070 01F0      		breq .L22
 529:Adafruit_Fingerprint.cpp ****       break;
 638               		.loc 3 529 16 is_stmt 0 view .LVU145
 639 0072 8EEF      		ldi r24,lo8(-2)
GAS LISTING C:\Users\kenne\AppData\Local\Temp\ccpPZdpD.s 			page 42


 640 0074 00C0      		rjmp .L10
 641               	.L12:
 537:Adafruit_Fingerprint.cpp ****       packet->type = byte;
 642               		.loc 3 537 5 is_stmt 1 view .LVU146
 538:Adafruit_Fingerprint.cpp ****       break;
 643               		.loc 3 538 7 view .LVU147
 538:Adafruit_Fingerprint.cpp ****       break;
 644               		.loc 3 538 20 is_stmt 0 view .LVU148
 645 0076 8981      		ldd r24,Y+1
 646 0078 F701      		movw r30,r14
 647 007a 8683      		std Z+6,r24
 539:Adafruit_Fingerprint.cpp ****     case 7:
 648               		.loc 3 539 7 is_stmt 1 view .LVU149
 649               	.L22:
 546:Adafruit_Fingerprint.cpp ****     default:
 547:Adafruit_Fingerprint.cpp ****       packet->data[idx - 9] = byte;
 548:Adafruit_Fingerprint.cpp ****       if ((idx - 8) == packet->length) {
 549:Adafruit_Fingerprint.cpp **** #ifdef FINGERPRINT_DEBUG
 550:Adafruit_Fingerprint.cpp ****         Serial.println(" OK ");
 551:Adafruit_Fingerprint.cpp **** #endif
 552:Adafruit_Fingerprint.cpp ****         return FINGERPRINT_OK;
 553:Adafruit_Fingerprint.cpp ****       }
 554:Adafruit_Fingerprint.cpp ****       break;
 555:Adafruit_Fingerprint.cpp ****     }
 556:Adafruit_Fingerprint.cpp ****     idx++;
 650               		.loc 3 556 5 view .LVU150
 651               		.loc 3 556 8 is_stmt 0 view .LVU151
 652 007c C801      		movw r24,r16
 653 007e 0196      		adiw r24,1
 654               	.LVL39:
 557:Adafruit_Fingerprint.cpp ****     if ((idx + 9) >= sizeof(packet->data)) {
 655               		.loc 3 557 5 is_stmt 1 view .LVU152
 656               		.loc 3 557 14 is_stmt 0 view .LVU153
 657 0080 065F      		subi r16,-10
 658 0082 1F4F      		sbci r17,-1
 659               		.loc 3 557 5 view .LVU154
 660 0084 0034      		cpi r16,64
 661 0086 1105      		cpc r17,__zero_reg__
 662 0088 00F4      		brsh .L28
 663               	.L21:
 664               		.loc 3 557 5 view .LVU155
 665 008a 8C01      		movw r16,r24
 666               	.LVL40:
 667               	.L11:
 513:Adafruit_Fingerprint.cpp ****     mySerial->read(&byte);
 668               		.loc 3 513 3 is_stmt 1 view .LVU156
 514:Adafruit_Fingerprint.cpp **** #ifdef FINGERPRINT_DEBUG
 669               		.loc 3 514 5 view .LVU157
 514:Adafruit_Fingerprint.cpp **** #ifdef FINGERPRINT_DEBUG
 670               		.loc 3 514 19 is_stmt 0 view .LVU158
 671 008c BE01      		movw r22,r28
 672 008e 6F5F      		subi r22,-1
 673 0090 7F4F      		sbci r23,-1
 674 0092 F601      		movw r30,r12
 675 0094 84A9      		ldd r24,Z+52
 676 0096 95A9      		ldd r25,Z+53
 677 0098 0E94 0000 		call _ZN6Usart04readEPh
GAS LISTING C:\Users\kenne\AppData\Local\Temp\ccpPZdpD.s 			page 43


 678               	.LVL41:
 520:Adafruit_Fingerprint.cpp ****     case 0:
 679               		.loc 3 520 5 is_stmt 1 view .LVU159
 680 009c 0630      		cpi r16,6
 681 009e 1105      		cpc r17,__zero_reg__
 682 00a0 01F0      		breq .L12
 683 00a2 00F4      		brsh .L13
 684 00a4 0130      		cpi r16,1
 685 00a6 1105      		cpc r17,__zero_reg__
 686 00a8 01F0      		breq .L14
 687 00aa 00F4      		brsh .+2
 688 00ac 00C0      		rjmp .L29
 689 00ae C801      		movw r24,r16
 690 00b0 0297      		sbiw r24,2
 691 00b2 0497      		sbiw r24,4
 692 00b4 00F4      		brsh .L17
 531:Adafruit_Fingerprint.cpp ****     case 3:
 693               		.loc 3 531 5 view .LVU160
 532:Adafruit_Fingerprint.cpp ****     case 4:
 694               		.loc 3 532 5 view .LVU161
 533:Adafruit_Fingerprint.cpp ****     case 5:
 695               		.loc 3 533 5 view .LVU162
 534:Adafruit_Fingerprint.cpp ****       packet->address[idx - 2] = byte;
 696               		.loc 3 534 5 view .LVU163
 535:Adafruit_Fingerprint.cpp ****       break;
 697               		.loc 3 535 7 view .LVU164
 535:Adafruit_Fingerprint.cpp ****       break;
 698               		.loc 3 535 27 is_stmt 0 view .LVU165
 699 00b6 F801      		movw r30,r16
 700 00b8 3297      		sbiw r30,2
 535:Adafruit_Fingerprint.cpp ****       break;
 701               		.loc 3 535 32 view .LVU166
 702 00ba EE0D      		add r30,r14
 703 00bc FF1D      		adc r31,r15
 704 00be 8981      		ldd r24,Y+1
 705 00c0 8283      		std Z+2,r24
 536:Adafruit_Fingerprint.cpp ****     case 6:
 706               		.loc 3 536 7 is_stmt 1 view .LVU167
 707 00c2 00C0      		rjmp .L22
 708               	.L19:
 540:Adafruit_Fingerprint.cpp ****       packet->length = (uint16_t)byte << 8;
 709               		.loc 3 540 5 view .LVU168
 541:Adafruit_Fingerprint.cpp ****       break;
 710               		.loc 3 541 7 view .LVU169
 541:Adafruit_Fingerprint.cpp ****       break;
 711               		.loc 3 541 24 is_stmt 0 view .LVU170
 712 00c4 8981      		ldd r24,Y+1
 541:Adafruit_Fingerprint.cpp ****       break;
 713               		.loc 3 541 22 view .LVU171
 714 00c6 F701      		movw r30,r14
 715 00c8 1782      		std Z+7,__zero_reg__
 716 00ca 8087      		std Z+8,r24
 542:Adafruit_Fingerprint.cpp ****     case 8:
 717               		.loc 3 542 7 is_stmt 1 view .LVU172
 718 00cc 00C0      		rjmp .L22
 719               	.L17:
 546:Adafruit_Fingerprint.cpp ****       packet->data[idx - 9] = byte;
GAS LISTING C:\Users\kenne\AppData\Local\Temp\ccpPZdpD.s 			page 44


 720               		.loc 3 546 5 view .LVU173
 547:Adafruit_Fingerprint.cpp ****       if ((idx - 8) == packet->length) {
 721               		.loc 3 547 7 view .LVU174
 547:Adafruit_Fingerprint.cpp ****       if ((idx - 8) == packet->length) {
 722               		.loc 3 547 24 is_stmt 0 view .LVU175
 723 00ce F801      		movw r30,r16
 724 00d0 3997      		sbiw r30,9
 547:Adafruit_Fingerprint.cpp ****       if ((idx - 8) == packet->length) {
 725               		.loc 3 547 29 view .LVU176
 726 00d2 EE0D      		add r30,r14
 727 00d4 FF1D      		adc r31,r15
 728 00d6 8981      		ldd r24,Y+1
 729 00d8 8187      		std Z+9,r24
 548:Adafruit_Fingerprint.cpp **** #ifdef FINGERPRINT_DEBUG
 730               		.loc 3 548 7 is_stmt 1 view .LVU177
 548:Adafruit_Fingerprint.cpp **** #ifdef FINGERPRINT_DEBUG
 731               		.loc 3 548 32 is_stmt 0 view .LVU178
 732 00da F701      		movw r30,r14
 733 00dc 2781      		ldd r18,Z+7
 734 00de 3085      		ldd r19,Z+8
 548:Adafruit_Fingerprint.cpp **** #ifdef FINGERPRINT_DEBUG
 735               		.loc 3 548 7 view .LVU179
 736 00e0 C801      		movw r24,r16
 737 00e2 0897      		sbiw r24,8
 738 00e4 8217      		cp r24,r18
 739 00e6 9307      		cpc r25,r19
 740 00e8 01F4      		brne .L22
 552:Adafruit_Fingerprint.cpp ****       }
 741               		.loc 3 552 16 view .LVU180
 742 00ea 80E0      		ldi r24,0
 743 00ec 00C0      		rjmp .L10
 744               	.LVL42:
 745               	.L28:
 558:Adafruit_Fingerprint.cpp ****       return FINGERPRINT_BADPACKET;
 746               		.loc 3 558 14 view .LVU181
 747 00ee 8EEF      		ldi r24,lo8(-2)
 748               	.LVL43:
 749               	.L10:
 750               	/* epilogue start */
 559:Adafruit_Fingerprint.cpp ****     }
 560:Adafruit_Fingerprint.cpp ****   }
 561:Adafruit_Fingerprint.cpp ****   // Shouldn't get here so...
 562:Adafruit_Fingerprint.cpp ****   return FINGERPRINT_BADPACKET;
 563:Adafruit_Fingerprint.cpp **** }
 751               		.loc 3 563 1 view .LVU182
 752 00f0 0F90      		pop __tmp_reg__
 753 00f2 DF91      		pop r29
 754 00f4 CF91      		pop r28
 755 00f6 1F91      		pop r17
 756 00f8 0F91      		pop r16
 757 00fa FF90      		pop r15
 758 00fc EF90      		pop r14
 759 00fe DF90      		pop r13
 760 0100 CF90      		pop r12
 761 0102 0895      		ret
 762               		.cfi_endproc
 763               	.LFE83:
GAS LISTING C:\Users\kenne\AppData\Local\Temp\ccpPZdpD.s 			page 45


 765               		.section	.text._ZN20Adafruit_Fingerprint13checkPasswordEv,"ax",@progbits
 766               	.global	_ZN20Adafruit_Fingerprint13checkPasswordEv
 768               	_ZN20Adafruit_Fingerprint13checkPasswordEv:
 769               	.LVL44:
 770               	.LFB62:
  97:Adafruit_Fingerprint.cpp ****   GET_CMD_PACKET(FINGERPRINT_VERIFYPASSWORD, (uint8_t)(thePassword >> 24),
 771               		.loc 3 97 51 is_stmt 1 view -0
 772               		.cfi_startproc
  97:Adafruit_Fingerprint.cpp ****   GET_CMD_PACKET(FINGERPRINT_VERIFYPASSWORD, (uint8_t)(thePassword >> 24),
 773               		.loc 3 97 51 is_stmt 0 view .LVU184
 774 0000 0F93      		push r16
 775               		.cfi_def_cfa_offset 3
 776               		.cfi_offset 16, -2
 777 0002 1F93      		push r17
 778               		.cfi_def_cfa_offset 4
 779               		.cfi_offset 17, -3
 780 0004 CF93      		push r28
 781               		.cfi_def_cfa_offset 5
 782               		.cfi_offset 28, -4
 783 0006 DF93      		push r29
 784               		.cfi_def_cfa_offset 6
 785               		.cfi_offset 29, -5
 786 0008 CDB7      		in r28,__SP_L__
 787 000a DEB7      		in r29,__SP_H__
 788               		.cfi_def_cfa_register 28
 789 000c CE54      		subi r28,78
 790 000e D109      		sbc r29,__zero_reg__
 791               		.cfi_def_cfa_offset 84
 792 0010 0FB6      		in __tmp_reg__,__SREG__
 793 0012 F894      		cli
 794 0014 DEBF      		out __SP_H__,r29
 795 0016 0FBE      		out __SREG__,__tmp_reg__
 796 0018 CDBF      		out __SP_L__,r28
 797               	/* prologue: function */
 798               	/* frame size = 78 */
 799               	/* stack size = 82 */
 800               	.L__stack_usage = 82
 801 001a 082F      		mov r16,r24
 802 001c 192F      		mov r17,r25
  98:Adafruit_Fingerprint.cpp ****                  (uint8_t)(thePassword >> 16), (uint8_t)(thePassword >> 8),
 803               		.loc 3 98 3 is_stmt 1 view .LVU185
 804 001e 9E01      		movw r18,r28
 805 0020 2F5F      		subi r18,-1
 806 0022 3F4F      		sbci r19,-1
 807 0024 85E0      		ldi r24,lo8(5)
 808               	.LVL45:
  98:Adafruit_Fingerprint.cpp ****                  (uint8_t)(thePassword >> 16), (uint8_t)(thePassword >> 8),
 809               		.loc 3 98 3 is_stmt 0 view .LVU186
 810 0026 F901      		movw r30,r18
 811               		0:
 812 0028 1192      		st Z+,__zero_reg__
 813 002a 8A95      		dec r24
 814 002c 01F4      		brne 0b
 815 002e 83E1      		ldi r24,lo8(19)
 816 0030 8983      		std Y+1,r24
 817 0032 F801      		movw r30,r16
 818 0034 8689      		ldd r24,Z+22
GAS LISTING C:\Users\kenne\AppData\Local\Temp\ccpPZdpD.s 			page 46


 819 0036 9789      		ldd r25,Z+23
 820 0038 408D      		ldd r20,Z+24
 821 003a 518D      		ldd r21,Z+25
 822 003c 5A83      		std Y+2,r21
 823 003e 4B83      		std Y+3,r20
 824 0040 9C83      		std Y+4,r25
 825 0042 8D83      		std Y+5,r24
  98:Adafruit_Fingerprint.cpp ****                  (uint8_t)(thePassword >> 16), (uint8_t)(thePassword >> 8),
 826               		.loc 3 98 3 is_stmt 1 view .LVU187
 827 0044 45E0      		ldi r20,lo8(5)
 828 0046 50E0      		ldi r21,0
 829 0048 61E0      		ldi r22,lo8(1)
 830 004a CE01      		movw r24,r28
 831 004c 0696      		adiw r24,6
 832 004e 0E94 0000 		call _ZN27Adafruit_Fingerprint_PacketC1EhjPh
 833               	.LVL46:
  98:Adafruit_Fingerprint.cpp ****                  (uint8_t)(thePassword >> 16), (uint8_t)(thePassword >> 8),
 834               		.loc 3 98 3 view .LVU188
 835 0052 BE01      		movw r22,r28
 836 0054 6A5F      		subi r22,-6
 837 0056 7F4F      		sbci r23,-1
 838 0058 C801      		movw r24,r16
 839 005a 0E94 0000 		call _ZN20Adafruit_Fingerprint21writeStructuredPacketERK27Adafruit_Fingerprint_Packet
 840               	.LVL47:
  98:Adafruit_Fingerprint.cpp ****                  (uint8_t)(thePassword >> 16), (uint8_t)(thePassword >> 8),
 841               		.loc 3 98 3 view .LVU189
 842 005e 48EE      		ldi r20,lo8(-24)
 843 0060 53E0      		ldi r21,lo8(3)
 844 0062 BE01      		movw r22,r28
 845 0064 6A5F      		subi r22,-6
 846 0066 7F4F      		sbci r23,-1
 847 0068 C801      		movw r24,r16
 848 006a 0E94 0000 		call _ZN20Adafruit_Fingerprint19getStructuredPacketEP27Adafruit_Fingerprint_Packetj
 849               	.LVL48:
 850 006e 8111      		cpse r24,__zero_reg__
 851 0070 00C0      		rjmp .L32
  98:Adafruit_Fingerprint.cpp ****                  (uint8_t)(thePassword >> 16), (uint8_t)(thePassword >> 8),
 852               		.loc 3 98 3 discriminator 2 view .LVU190
 853 0072 8C85      		ldd r24,Y+12
 854 0074 8730      		cpi r24,lo8(7)
 855 0076 01F4      		brne .L33
 100:Adafruit_Fingerprint.cpp ****   if (packet.data[0] == FINGERPRINT_OK)
 856               		.loc 3 100 48 view .LVU191
 101:Adafruit_Fingerprint.cpp ****     return FINGERPRINT_OK;
 857               		.loc 3 101 3 view .LVU192
 101:Adafruit_Fingerprint.cpp ****     return FINGERPRINT_OK;
 858               		.loc 3 101 20 is_stmt 0 view .LVU193
 859 0078 8F85      		ldd r24,Y+15
 101:Adafruit_Fingerprint.cpp ****     return FINGERPRINT_OK;
 860               		.loc 3 101 3 view .LVU194
 861 007a 8823      		tst r24
 862 007c 01F0      		breq .L30
 104:Adafruit_Fingerprint.cpp **** }
 863               		.loc 3 104 12 view .LVU195
 864 007e 81E0      		ldi r24,lo8(1)
 865 0080 00C0      		rjmp .L30
 866               	.L32:
GAS LISTING C:\Users\kenne\AppData\Local\Temp\ccpPZdpD.s 			page 47


  98:Adafruit_Fingerprint.cpp ****                  (uint8_t)(thePassword >> 16), (uint8_t)(thePassword >> 8),
 867               		.loc 3 98 3 view .LVU196
 868 0082 81E0      		ldi r24,lo8(1)
 869               	.L30:
 870               	/* epilogue start */
 105:Adafruit_Fingerprint.cpp **** 
 871               		.loc 3 105 1 view .LVU197
 872 0084 C25B      		subi r28,-78
 873 0086 DF4F      		sbci r29,-1
 874 0088 0FB6      		in __tmp_reg__,__SREG__
 875 008a F894      		cli
 876 008c DEBF      		out __SP_H__,r29
 877 008e 0FBE      		out __SREG__,__tmp_reg__
 878 0090 CDBF      		out __SP_L__,r28
 879 0092 DF91      		pop r29
 880 0094 CF91      		pop r28
 881 0096 1F91      		pop r17
 882 0098 0F91      		pop r16
 883 009a 0895      		ret
 884               	.L33:
  98:Adafruit_Fingerprint.cpp ****                  (uint8_t)(thePassword >> 16), (uint8_t)(thePassword >> 8),
 885               		.loc 3 98 3 view .LVU198
 886 009c 81E0      		ldi r24,lo8(1)
 887 009e 00C0      		rjmp .L30
 888               		.cfi_endproc
 889               	.LFE62:
 891               		.section	.text._ZN20Adafruit_Fingerprint14verifyPasswordEv,"ax",@progbits
 892               	.global	_ZN20Adafruit_Fingerprint14verifyPasswordEv
 894               	_ZN20Adafruit_Fingerprint14verifyPasswordEv:
 895               	.LVL49:
 896               	.LFB61:
  93:Adafruit_Fingerprint.cpp ****   return checkPassword() == FINGERPRINT_OK;
 897               		.loc 3 93 51 is_stmt 1 view -0
 898               		.cfi_startproc
 899               	/* prologue: function */
 900               	/* frame size = 0 */
 901               	/* stack size = 0 */
 902               	.L__stack_usage = 0
  94:Adafruit_Fingerprint.cpp **** }
 903               		.loc 3 94 3 view .LVU200
  94:Adafruit_Fingerprint.cpp **** }
 904               		.loc 3 94 23 is_stmt 0 view .LVU201
 905 0000 0E94 0000 		call _ZN20Adafruit_Fingerprint13checkPasswordEv
 906               	.LVL50:
  94:Adafruit_Fingerprint.cpp **** }
 907               		.loc 3 94 23 view .LVU202
 908 0004 982F      		mov r25,r24
  94:Adafruit_Fingerprint.cpp **** }
 909               		.loc 3 94 29 view .LVU203
 910 0006 81E0      		ldi r24,lo8(1)
 911 0008 9111      		cpse r25,__zero_reg__
 912 000a 80E0      		ldi r24,0
 913               	.L36:
 914               	/* epilogue start */
  95:Adafruit_Fingerprint.cpp **** 
 915               		.loc 3 95 1 view .LVU204
 916 000c 0895      		ret
GAS LISTING C:\Users\kenne\AppData\Local\Temp\ccpPZdpD.s 			page 48


 917               		.cfi_endproc
 918               	.LFE61:
 920               		.section	.text._ZN20Adafruit_Fingerprint13getParametersEv,"ax",@progbits
 921               	.global	_ZN20Adafruit_Fingerprint13getParametersEv
 923               	_ZN20Adafruit_Fingerprint13getParametersEv:
 924               	.LVL51:
 925               	.LFB63:
 115:Adafruit_Fingerprint.cpp ****   GET_CMD_PACKET(FINGERPRINT_READSYSPARAM);
 926               		.loc 3 115 51 is_stmt 1 view -0
 927               		.cfi_startproc
 115:Adafruit_Fingerprint.cpp ****   GET_CMD_PACKET(FINGERPRINT_READSYSPARAM);
 928               		.loc 3 115 51 is_stmt 0 view .LVU206
 929 0000 0F93      		push r16
 930               		.cfi_def_cfa_offset 3
 931               		.cfi_offset 16, -2
 932 0002 1F93      		push r17
 933               		.cfi_def_cfa_offset 4
 934               		.cfi_offset 17, -3
 935 0004 CF93      		push r28
 936               		.cfi_def_cfa_offset 5
 937               		.cfi_offset 28, -4
 938 0006 DF93      		push r29
 939               		.cfi_def_cfa_offset 6
 940               		.cfi_offset 29, -5
 941 0008 CDB7      		in r28,__SP_L__
 942 000a DEB7      		in r29,__SP_H__
 943               		.cfi_def_cfa_register 28
 944 000c CA54      		subi r28,74
 945 000e D109      		sbc r29,__zero_reg__
 946               		.cfi_def_cfa_offset 80
 947 0010 0FB6      		in __tmp_reg__,__SREG__
 948 0012 F894      		cli
 949 0014 DEBF      		out __SP_H__,r29
 950 0016 0FBE      		out __SREG__,__tmp_reg__
 951 0018 CDBF      		out __SP_L__,r28
 952               	/* prologue: function */
 953               	/* frame size = 74 */
 954               	/* stack size = 78 */
 955               	.L__stack_usage = 78
 956 001a 082F      		mov r16,r24
 957 001c 192F      		mov r17,r25
 116:Adafruit_Fingerprint.cpp **** 
 958               		.loc 3 116 3 is_stmt 1 view .LVU207
 959 001e 8FE0      		ldi r24,lo8(15)
 960               	.LVL52:
 116:Adafruit_Fingerprint.cpp **** 
 961               		.loc 3 116 3 is_stmt 0 view .LVU208
 962 0020 8983      		std Y+1,r24
 116:Adafruit_Fingerprint.cpp **** 
 963               		.loc 3 116 3 is_stmt 1 view .LVU209
 964 0022 9E01      		movw r18,r28
 965 0024 2F5F      		subi r18,-1
 966 0026 3F4F      		sbci r19,-1
 967 0028 41E0      		ldi r20,lo8(1)
 968 002a 50E0      		ldi r21,0
 969 002c 61E0      		ldi r22,lo8(1)
 970 002e CE01      		movw r24,r28
GAS LISTING C:\Users\kenne\AppData\Local\Temp\ccpPZdpD.s 			page 49


 971 0030 0296      		adiw r24,2
 972 0032 0E94 0000 		call _ZN27Adafruit_Fingerprint_PacketC1EhjPh
 973               	.LVL53:
 116:Adafruit_Fingerprint.cpp **** 
 974               		.loc 3 116 3 view .LVU210
 975 0036 BE01      		movw r22,r28
 976 0038 6E5F      		subi r22,-2
 977 003a 7F4F      		sbci r23,-1
 978 003c C801      		movw r24,r16
 979 003e 0E94 0000 		call _ZN20Adafruit_Fingerprint21writeStructuredPacketERK27Adafruit_Fingerprint_Packet
 980               	.LVL54:
 116:Adafruit_Fingerprint.cpp **** 
 981               		.loc 3 116 3 view .LVU211
 982 0042 48EE      		ldi r20,lo8(-24)
 983 0044 53E0      		ldi r21,lo8(3)
 984 0046 BE01      		movw r22,r28
 985 0048 6E5F      		subi r22,-2
 986 004a 7F4F      		sbci r23,-1
 987 004c C801      		movw r24,r16
 988 004e 0E94 0000 		call _ZN20Adafruit_Fingerprint19getStructuredPacketEP27Adafruit_Fingerprint_Packetj
 989               	.LVL55:
 990 0052 8111      		cpse r24,__zero_reg__
 991 0054 00C0      		rjmp .L43
 116:Adafruit_Fingerprint.cpp **** 
 992               		.loc 3 116 3 discriminator 2 view .LVU212
 993 0056 8885      		ldd r24,Y+8
 994 0058 8730      		cpi r24,lo8(7)
 995 005a 01F0      		breq .+2
 996 005c 00C0      		rjmp .L44
 116:Adafruit_Fingerprint.cpp **** 
 997               		.loc 3 116 43 discriminator 4 view .LVU213
 118:Adafruit_Fingerprint.cpp ****   system_id = ((uint16_t)packet.data[3] << 8) | packet.data[4];
 998               		.loc 3 118 3 discriminator 4 view .LVU214
 118:Adafruit_Fingerprint.cpp ****   system_id = ((uint16_t)packet.data[3] << 8) | packet.data[4];
 999               		.loc 3 118 40 is_stmt 0 discriminator 4 view .LVU215
 1000 005e 9C85      		ldd r25,Y+12
 118:Adafruit_Fingerprint.cpp ****   system_id = ((uint16_t)packet.data[3] << 8) | packet.data[4];
 1001               		.loc 3 118 63 discriminator 4 view .LVU216
 1002 0060 8D85      		ldd r24,Y+13
 118:Adafruit_Fingerprint.cpp ****   system_id = ((uint16_t)packet.data[3] << 8) | packet.data[4];
 1003               		.loc 3 118 14 discriminator 4 view .LVU217
 1004 0062 F801      		movw r30,r16
 1005 0064 9783      		std Z+7,r25
 1006 0066 8683      		std Z+6,r24
 119:Adafruit_Fingerprint.cpp ****   capacity = ((uint16_t)packet.data[5] << 8) | packet.data[6];
 1007               		.loc 3 119 3 is_stmt 1 discriminator 4 view .LVU218
 119:Adafruit_Fingerprint.cpp ****   capacity = ((uint16_t)packet.data[5] << 8) | packet.data[6];
 1008               		.loc 3 119 39 is_stmt 0 discriminator 4 view .LVU219
 1009 0068 9E85      		ldd r25,Y+14
 119:Adafruit_Fingerprint.cpp ****   capacity = ((uint16_t)packet.data[5] << 8) | packet.data[6];
 1010               		.loc 3 119 62 discriminator 4 view .LVU220
 1011 006a 8F85      		ldd r24,Y+15
 119:Adafruit_Fingerprint.cpp ****   capacity = ((uint16_t)packet.data[5] << 8) | packet.data[6];
 1012               		.loc 3 119 13 discriminator 4 view .LVU221
 1013 006c 9187      		std Z+9,r25
 1014 006e 8087      		std Z+8,r24
 120:Adafruit_Fingerprint.cpp ****   security_level = ((uint16_t)packet.data[7] << 8) | packet.data[8];
GAS LISTING C:\Users\kenne\AppData\Local\Temp\ccpPZdpD.s 			page 50


 1015               		.loc 3 120 3 is_stmt 1 discriminator 4 view .LVU222
 120:Adafruit_Fingerprint.cpp ****   security_level = ((uint16_t)packet.data[7] << 8) | packet.data[8];
 1016               		.loc 3 120 38 is_stmt 0 discriminator 4 view .LVU223
 1017 0070 9889      		ldd r25,Y+16
 120:Adafruit_Fingerprint.cpp ****   security_level = ((uint16_t)packet.data[7] << 8) | packet.data[8];
 1018               		.loc 3 120 61 discriminator 4 view .LVU224
 1019 0072 8989      		ldd r24,Y+17
 120:Adafruit_Fingerprint.cpp ****   security_level = ((uint16_t)packet.data[7] << 8) | packet.data[8];
 1020               		.loc 3 120 12 discriminator 4 view .LVU225
 1021 0074 9387      		std Z+11,r25
 1022 0076 8287      		std Z+10,r24
 121:Adafruit_Fingerprint.cpp ****   device_addr = ((uint32_t)packet.data[9] << 24) |
 1023               		.loc 3 121 3 is_stmt 1 discriminator 4 view .LVU226
 121:Adafruit_Fingerprint.cpp ****   device_addr = ((uint32_t)packet.data[9] << 24) |
 1024               		.loc 3 121 44 is_stmt 0 discriminator 4 view .LVU227
 1025 0078 9A89      		ldd r25,Y+18
 121:Adafruit_Fingerprint.cpp ****   device_addr = ((uint32_t)packet.data[9] << 24) |
 1026               		.loc 3 121 67 discriminator 4 view .LVU228
 1027 007a 8B89      		ldd r24,Y+19
 121:Adafruit_Fingerprint.cpp ****   device_addr = ((uint32_t)packet.data[9] << 24) |
 1028               		.loc 3 121 18 discriminator 4 view .LVU229
 1029 007c 9587      		std Z+13,r25
 1030 007e 8487      		std Z+12,r24
 122:Adafruit_Fingerprint.cpp ****                 ((uint32_t)packet.data[10] << 16) |
 1031               		.loc 3 122 3 is_stmt 1 discriminator 4 view .LVU230
 122:Adafruit_Fingerprint.cpp ****                 ((uint32_t)packet.data[10] << 16) |
 1032               		.loc 3 122 41 is_stmt 0 discriminator 4 view .LVU231
 1033 0080 8C89      		ldd r24,Y+20
 122:Adafruit_Fingerprint.cpp ****                 ((uint32_t)packet.data[10] << 16) |
 1034               		.loc 3 122 18 discriminator 4 view .LVU232
 1035 0082 90E0      		ldi r25,0
 1036 0084 A0E0      		ldi r26,0
 1037 0086 B0E0      		ldi r27,0
 122:Adafruit_Fingerprint.cpp ****                 ((uint32_t)packet.data[10] << 16) |
 1038               		.loc 3 122 43 discriminator 4 view .LVU233
 1039 0088 B82F      		mov r27,r24
 1040 008a AA27      		clr r26
 1041 008c 9927      		clr r25
 1042 008e 8827      		clr r24
 123:Adafruit_Fingerprint.cpp ****                 ((uint32_t)packet.data[11] << 8) | (uint32_t)packet.data[12];
 1043               		.loc 3 123 42 discriminator 4 view .LVU234
 1044 0090 4D89      		ldd r20,Y+21
 123:Adafruit_Fingerprint.cpp ****                 ((uint32_t)packet.data[11] << 8) | (uint32_t)packet.data[12];
 1045               		.loc 3 123 18 discriminator 4 view .LVU235
 1046 0092 50E0      		ldi r21,0
 1047 0094 60E0      		ldi r22,0
 1048 0096 70E0      		ldi r23,0
 123:Adafruit_Fingerprint.cpp ****                 ((uint32_t)packet.data[11] << 8) | (uint32_t)packet.data[12];
 1049               		.loc 3 123 44 discriminator 4 view .LVU236
 1050 0098 BA01      		movw r22,r20
 1051 009a 5527      		clr r21
 1052 009c 4427      		clr r20
 122:Adafruit_Fingerprint.cpp ****                 ((uint32_t)packet.data[10] << 16) |
 1053               		.loc 3 122 50 discriminator 4 view .LVU237
 1054 009e 842B      		or r24,r20
 1055 00a0 952B      		or r25,r21
 1056 00a2 A62B      		or r26,r22
GAS LISTING C:\Users\kenne\AppData\Local\Temp\ccpPZdpD.s 			page 51


 1057 00a4 B72B      		or r27,r23
 124:Adafruit_Fingerprint.cpp ****   packet_len = ((uint16_t)packet.data[13] << 8) | packet.data[14];
 1058               		.loc 3 124 42 discriminator 4 view .LVU238
 1059 00a6 4E89      		ldd r20,Y+22
 124:Adafruit_Fingerprint.cpp ****   packet_len = ((uint16_t)packet.data[13] << 8) | packet.data[14];
 1060               		.loc 3 124 18 discriminator 4 view .LVU239
 1061 00a8 50E0      		ldi r21,0
 1062 00aa 60E0      		ldi r22,0
 1063 00ac 70E0      		ldi r23,0
 124:Adafruit_Fingerprint.cpp ****   packet_len = ((uint16_t)packet.data[13] << 8) | packet.data[14];
 1064               		.loc 3 124 44 discriminator 4 view .LVU240
 1065 00ae 762F      		mov r23,r22
 1066 00b0 652F      		mov r22,r21
 1067 00b2 542F      		mov r21,r20
 1068 00b4 4427      		clr r20
 123:Adafruit_Fingerprint.cpp ****                 ((uint32_t)packet.data[11] << 8) | (uint32_t)packet.data[12];
 1069               		.loc 3 123 51 discriminator 4 view .LVU241
 1070 00b6 842B      		or r24,r20
 1071 00b8 952B      		or r25,r21
 1072 00ba A62B      		or r26,r22
 1073 00bc B72B      		or r27,r23
 124:Adafruit_Fingerprint.cpp ****   packet_len = ((uint16_t)packet.data[13] << 8) | packet.data[14];
 1074               		.loc 3 124 76 discriminator 4 view .LVU242
 1075 00be 2F89      		ldd r18,Y+23
 124:Adafruit_Fingerprint.cpp ****   packet_len = ((uint16_t)packet.data[13] << 8) | packet.data[14];
 1076               		.loc 3 124 50 discriminator 4 view .LVU243
 1077 00c0 822B      		or r24,r18
 122:Adafruit_Fingerprint.cpp ****                 ((uint32_t)packet.data[10] << 16) |
 1078               		.loc 3 122 15 discriminator 4 view .LVU244
 1079 00c2 8687      		std Z+14,r24
 1080 00c4 9787      		std Z+15,r25
 1081 00c6 A08B      		std Z+16,r26
 1082 00c8 B18B      		std Z+17,r27
 125:Adafruit_Fingerprint.cpp ****   if (packet_len == 0) {
 1083               		.loc 3 125 3 is_stmt 1 discriminator 4 view .LVU245
 125:Adafruit_Fingerprint.cpp ****   if (packet_len == 0) {
 1084               		.loc 3 125 41 is_stmt 0 discriminator 4 view .LVU246
 1085 00ca 988D      		ldd r25,Y+24
 125:Adafruit_Fingerprint.cpp ****   if (packet_len == 0) {
 1086               		.loc 3 125 65 discriminator 4 view .LVU247
 1087 00cc 898D      		ldd r24,Y+25
 125:Adafruit_Fingerprint.cpp ****   if (packet_len == 0) {
 1088               		.loc 3 125 14 discriminator 4 view .LVU248
 1089 00ce 938B      		std Z+19,r25
 1090 00d0 828B      		std Z+18,r24
 126:Adafruit_Fingerprint.cpp ****     packet_len = 32;
 1091               		.loc 3 126 3 is_stmt 1 discriminator 4 view .LVU249
 1092 00d2 0097      		sbiw r24,0
 1093 00d4 01F4      		brne .L39
 127:Adafruit_Fingerprint.cpp ****   } else if (packet_len == 1) {
 1094               		.loc 3 127 5 view .LVU250
 127:Adafruit_Fingerprint.cpp ****   } else if (packet_len == 1) {
 1095               		.loc 3 127 16 is_stmt 0 view .LVU251
 1096 00d6 80E2      		ldi r24,lo8(32)
 1097 00d8 90E0      		ldi r25,0
 1098 00da 938B      		std Z+19,r25
 1099 00dc 828B      		std Z+18,r24
GAS LISTING C:\Users\kenne\AppData\Local\Temp\ccpPZdpD.s 			page 52


 1100               	.L40:
 135:Adafruit_Fingerprint.cpp **** 
 1101               		.loc 3 135 3 is_stmt 1 view .LVU252
 135:Adafruit_Fingerprint.cpp **** 
 1102               		.loc 3 135 41 is_stmt 0 view .LVU253
 1103 00de 9A8D      		ldd r25,Y+26
 135:Adafruit_Fingerprint.cpp **** 
 1104               		.loc 3 135 65 view .LVU254
 1105 00e0 8B8D      		ldd r24,Y+27
 135:Adafruit_Fingerprint.cpp **** 
 1106               		.loc 3 135 68 view .LVU255
 1107 00e2 40E8      		ldi r20,lo8(-128)
 1108 00e4 55E2      		ldi r21,lo8(37)
 1109 00e6 849F      		mul r24,r20
 1110 00e8 9001      		movw r18,r0
 1111 00ea 859F      		mul r24,r21
 1112 00ec 300D      		add r19,r0
 1113 00ee 949F      		mul r25,r20
 1114 00f0 300D      		add r19,r0
 1115 00f2 1124      		clr r1
 135:Adafruit_Fingerprint.cpp **** 
 1116               		.loc 3 135 13 view .LVU256
 1117 00f4 F801      		movw r30,r16
 1118 00f6 358B      		std Z+21,r19
 1119 00f8 248B      		std Z+20,r18
 137:Adafruit_Fingerprint.cpp **** }
 1120               		.loc 3 137 3 is_stmt 1 view .LVU257
 137:Adafruit_Fingerprint.cpp **** }
 1121               		.loc 3 137 23 is_stmt 0 view .LVU258
 1122 00fa 8B85      		ldd r24,Y+11
 1123 00fc 00C0      		rjmp .L37
 1124               	.L39:
 128:Adafruit_Fingerprint.cpp ****     packet_len = 64;
 1125               		.loc 3 128 10 is_stmt 1 view .LVU259
 1126 00fe 8130      		cpi r24,1
 1127 0100 9105      		cpc r25,__zero_reg__
 1128 0102 01F0      		breq .L45
 130:Adafruit_Fingerprint.cpp ****     packet_len = 128;
 1129               		.loc 3 130 10 view .LVU260
 1130 0104 8230      		cpi r24,2
 1131 0106 9105      		cpc r25,__zero_reg__
 1132 0108 01F0      		breq .L46
 132:Adafruit_Fingerprint.cpp ****     packet_len = 256;
 1133               		.loc 3 132 10 view .LVU261
 1134 010a 0397      		sbiw r24,3
 1135 010c 01F4      		brne .L40
 133:Adafruit_Fingerprint.cpp ****   }
 1136               		.loc 3 133 5 view .LVU262
 133:Adafruit_Fingerprint.cpp ****   }
 1137               		.loc 3 133 16 is_stmt 0 view .LVU263
 1138 010e 80E0      		ldi r24,0
 1139 0110 91E0      		ldi r25,lo8(1)
 1140 0112 F801      		movw r30,r16
 1141 0114 938B      		std Z+19,r25
 1142 0116 828B      		std Z+18,r24
 1143 0118 00C0      		rjmp .L40
 1144               	.L45:
GAS LISTING C:\Users\kenne\AppData\Local\Temp\ccpPZdpD.s 			page 53


 129:Adafruit_Fingerprint.cpp ****   } else if (packet_len == 2) {
 1145               		.loc 3 129 5 is_stmt 1 view .LVU264
 129:Adafruit_Fingerprint.cpp ****   } else if (packet_len == 2) {
 1146               		.loc 3 129 16 is_stmt 0 view .LVU265
 1147 011a 80E4      		ldi r24,lo8(64)
 1148 011c 90E0      		ldi r25,0
 1149 011e F801      		movw r30,r16
 1150 0120 938B      		std Z+19,r25
 1151 0122 828B      		std Z+18,r24
 1152 0124 00C0      		rjmp .L40
 1153               	.L46:
 131:Adafruit_Fingerprint.cpp ****   } else if (packet_len == 3) {
 1154               		.loc 3 131 5 is_stmt 1 view .LVU266
 131:Adafruit_Fingerprint.cpp ****   } else if (packet_len == 3) {
 1155               		.loc 3 131 16 is_stmt 0 view .LVU267
 1156 0126 80E8      		ldi r24,lo8(-128)
 1157 0128 90E0      		ldi r25,0
 1158 012a F801      		movw r30,r16
 1159 012c 938B      		std Z+19,r25
 1160 012e 828B      		std Z+18,r24
 1161 0130 00C0      		rjmp .L40
 1162               	.L43:
 116:Adafruit_Fingerprint.cpp **** 
 1163               		.loc 3 116 3 view .LVU268
 1164 0132 81E0      		ldi r24,lo8(1)
 1165               	.L37:
 1166               	/* epilogue start */
 138:Adafruit_Fingerprint.cpp **** 
 1167               		.loc 3 138 1 view .LVU269
 1168 0134 C65B      		subi r28,-74
 1169 0136 DF4F      		sbci r29,-1
 1170 0138 0FB6      		in __tmp_reg__,__SREG__
 1171 013a F894      		cli
 1172 013c DEBF      		out __SP_H__,r29
 1173 013e 0FBE      		out __SREG__,__tmp_reg__
 1174 0140 CDBF      		out __SP_L__,r28
 1175 0142 DF91      		pop r29
 1176 0144 CF91      		pop r28
 1177 0146 1F91      		pop r17
 1178 0148 0F91      		pop r16
 1179 014a 0895      		ret
 1180               	.L44:
 116:Adafruit_Fingerprint.cpp **** 
 1181               		.loc 3 116 3 view .LVU270
 1182 014c 81E0      		ldi r24,lo8(1)
 1183 014e 00C0      		rjmp .L37
 1184               		.cfi_endproc
 1185               	.LFE63:
 1187               		.section	.text._ZN20Adafruit_Fingerprint8getImageEv,"ax",@progbits
 1188               	.global	_ZN20Adafruit_Fingerprint8getImageEv
 1190               	_ZN20Adafruit_Fingerprint8getImageEv:
 1191               	.LVL56:
 1192               	.LFB64:
 149:Adafruit_Fingerprint.cpp ****   SEND_CMD_PACKET(FINGERPRINT_GETIMAGE);
 1193               		.loc 3 149 46 is_stmt 1 view -0
 1194               		.cfi_startproc
 149:Adafruit_Fingerprint.cpp ****   SEND_CMD_PACKET(FINGERPRINT_GETIMAGE);
GAS LISTING C:\Users\kenne\AppData\Local\Temp\ccpPZdpD.s 			page 54


 1195               		.loc 3 149 46 is_stmt 0 view .LVU272
 1196 0000 0F93      		push r16
 1197               		.cfi_def_cfa_offset 3
 1198               		.cfi_offset 16, -2
 1199 0002 1F93      		push r17
 1200               		.cfi_def_cfa_offset 4
 1201               		.cfi_offset 17, -3
 1202 0004 CF93      		push r28
 1203               		.cfi_def_cfa_offset 5
 1204               		.cfi_offset 28, -4
 1205 0006 DF93      		push r29
 1206               		.cfi_def_cfa_offset 6
 1207               		.cfi_offset 29, -5
 1208 0008 CDB7      		in r28,__SP_L__
 1209 000a DEB7      		in r29,__SP_H__
 1210               		.cfi_def_cfa_register 28
 1211 000c CA54      		subi r28,74
 1212 000e D109      		sbc r29,__zero_reg__
 1213               		.cfi_def_cfa_offset 80
 1214 0010 0FB6      		in __tmp_reg__,__SREG__
 1215 0012 F894      		cli
 1216 0014 DEBF      		out __SP_H__,r29
 1217 0016 0FBE      		out __SREG__,__tmp_reg__
 1218 0018 CDBF      		out __SP_L__,r28
 1219               	/* prologue: function */
 1220               	/* frame size = 74 */
 1221               	/* stack size = 78 */
 1222               	.L__stack_usage = 78
 1223 001a 082F      		mov r16,r24
 1224 001c 192F      		mov r17,r25
 150:Adafruit_Fingerprint.cpp **** }
 1225               		.loc 3 150 3 is_stmt 1 view .LVU273
 1226 001e 81E0      		ldi r24,lo8(1)
 1227               	.LVL57:
 150:Adafruit_Fingerprint.cpp **** }
 1228               		.loc 3 150 3 is_stmt 0 view .LVU274
 1229 0020 8983      		std Y+1,r24
 150:Adafruit_Fingerprint.cpp **** }
 1230               		.loc 3 150 3 is_stmt 1 view .LVU275
 1231 0022 9E01      		movw r18,r28
 1232 0024 2F5F      		subi r18,-1
 1233 0026 3F4F      		sbci r19,-1
 1234 0028 41E0      		ldi r20,lo8(1)
 1235 002a 50E0      		ldi r21,0
 1236 002c 61E0      		ldi r22,lo8(1)
 1237 002e CE01      		movw r24,r28
 1238 0030 0296      		adiw r24,2
 1239 0032 0E94 0000 		call _ZN27Adafruit_Fingerprint_PacketC1EhjPh
 1240               	.LVL58:
 150:Adafruit_Fingerprint.cpp **** }
 1241               		.loc 3 150 3 view .LVU276
 1242 0036 BE01      		movw r22,r28
 1243 0038 6E5F      		subi r22,-2
 1244 003a 7F4F      		sbci r23,-1
 1245 003c 802F      		mov r24,r16
 1246 003e 912F      		mov r25,r17
 1247 0040 0E94 0000 		call _ZN20Adafruit_Fingerprint21writeStructuredPacketERK27Adafruit_Fingerprint_Packet
GAS LISTING C:\Users\kenne\AppData\Local\Temp\ccpPZdpD.s 			page 55


 1248               	.LVL59:
 150:Adafruit_Fingerprint.cpp **** }
 1249               		.loc 3 150 3 view .LVU277
 1250 0044 48EE      		ldi r20,lo8(-24)
 1251 0046 53E0      		ldi r21,lo8(3)
 1252 0048 BE01      		movw r22,r28
 1253 004a 6E5F      		subi r22,-2
 1254 004c 7F4F      		sbci r23,-1
 1255 004e 802F      		mov r24,r16
 1256 0050 912F      		mov r25,r17
 1257 0052 0E94 0000 		call _ZN20Adafruit_Fingerprint19getStructuredPacketEP27Adafruit_Fingerprint_Packetj
 1258               	.LVL60:
 1259 0056 8111      		cpse r24,__zero_reg__
 1260 0058 00C0      		rjmp .L49
 150:Adafruit_Fingerprint.cpp **** }
 1261               		.loc 3 150 3 discriminator 2 view .LVU278
 1262 005a 8885      		ldd r24,Y+8
 1263 005c 8730      		cpi r24,lo8(7)
 1264 005e 01F4      		brne .L50
 150:Adafruit_Fingerprint.cpp **** }
 1265               		.loc 3 150 3 discriminator 5 view .LVU279
 150:Adafruit_Fingerprint.cpp **** }
 1266               		.loc 3 150 3 discriminator 5 view .LVU280
 1267 0060 8B85      		ldd r24,Y+11
 1268 0062 00C0      		rjmp .L47
 1269               	.L49:
 150:Adafruit_Fingerprint.cpp **** }
 1270               		.loc 3 150 3 is_stmt 0 view .LVU281
 1271 0064 81E0      		ldi r24,lo8(1)
 1272               	.L47:
 1273               	/* epilogue start */
 151:Adafruit_Fingerprint.cpp **** 
 1274               		.loc 3 151 1 view .LVU282
 1275 0066 C65B      		subi r28,-74
 1276 0068 DF4F      		sbci r29,-1
 1277 006a 0FB6      		in __tmp_reg__,__SREG__
 1278 006c F894      		cli
 1279 006e DEBF      		out __SP_H__,r29
 1280 0070 0FBE      		out __SREG__,__tmp_reg__
 1281 0072 CDBF      		out __SP_L__,r28
 1282 0074 DF91      		pop r29
 1283 0076 CF91      		pop r28
 1284 0078 1F91      		pop r17
 1285 007a 0F91      		pop r16
 1286 007c 0895      		ret
 1287               	.L50:
 150:Adafruit_Fingerprint.cpp **** }
 1288               		.loc 3 150 3 view .LVU283
 1289 007e 81E0      		ldi r24,lo8(1)
 150:Adafruit_Fingerprint.cpp **** }
 1290               		.loc 3 150 40 is_stmt 1 view .LVU284
 1291 0080 00C0      		rjmp .L47
 1292               		.cfi_endproc
 1293               	.LFE64:
 1295               		.section	.text._ZN20Adafruit_Fingerprint8image2TzEh,"ax",@progbits
 1296               	.global	_ZN20Adafruit_Fingerprint8image2TzEh
 1298               	_ZN20Adafruit_Fingerprint8image2TzEh:
GAS LISTING C:\Users\kenne\AppData\Local\Temp\ccpPZdpD.s 			page 56


 1299               	.LVL61:
 1300               	.LFB65:
 166:Adafruit_Fingerprint.cpp ****   SEND_CMD_PACKET(FINGERPRINT_IMAGE2TZ, slot);
 1301               		.loc 3 166 54 view -0
 1302               		.cfi_startproc
 166:Adafruit_Fingerprint.cpp ****   SEND_CMD_PACKET(FINGERPRINT_IMAGE2TZ, slot);
 1303               		.loc 3 166 54 is_stmt 0 view .LVU286
 1304 0000 0F93      		push r16
 1305               		.cfi_def_cfa_offset 3
 1306               		.cfi_offset 16, -2
 1307 0002 1F93      		push r17
 1308               		.cfi_def_cfa_offset 4
 1309               		.cfi_offset 17, -3
 1310 0004 CF93      		push r28
 1311               		.cfi_def_cfa_offset 5
 1312               		.cfi_offset 28, -4
 1313 0006 DF93      		push r29
 1314               		.cfi_def_cfa_offset 6
 1315               		.cfi_offset 29, -5
 1316 0008 CDB7      		in r28,__SP_L__
 1317 000a DEB7      		in r29,__SP_H__
 1318               		.cfi_def_cfa_register 28
 1319 000c CB54      		subi r28,75
 1320 000e D109      		sbc r29,__zero_reg__
 1321               		.cfi_def_cfa_offset 81
 1322 0010 0FB6      		in __tmp_reg__,__SREG__
 1323 0012 F894      		cli
 1324 0014 DEBF      		out __SP_H__,r29
 1325 0016 0FBE      		out __SREG__,__tmp_reg__
 1326 0018 CDBF      		out __SP_L__,r28
 1327               	/* prologue: function */
 1328               	/* frame size = 75 */
 1329               	/* stack size = 79 */
 1330               	.L__stack_usage = 79
 1331 001a 082F      		mov r16,r24
 1332 001c 192F      		mov r17,r25
 167:Adafruit_Fingerprint.cpp **** }
 1333               		.loc 3 167 3 is_stmt 1 view .LVU287
 1334 001e 1A82      		std Y+2,__zero_reg__
 1335 0020 1982      		std Y+1,__zero_reg__
 1336 0022 82E0      		ldi r24,lo8(2)
 1337               	.LVL62:
 167:Adafruit_Fingerprint.cpp **** }
 1338               		.loc 3 167 3 is_stmt 0 view .LVU288
 1339 0024 8983      		std Y+1,r24
 1340 0026 6A83      		std Y+2,r22
 167:Adafruit_Fingerprint.cpp **** }
 1341               		.loc 3 167 3 is_stmt 1 view .LVU289
 1342 0028 9E01      		movw r18,r28
 1343 002a 2F5F      		subi r18,-1
 1344 002c 3F4F      		sbci r19,-1
 1345 002e 42E0      		ldi r20,lo8(2)
 1346 0030 50E0      		ldi r21,0
 1347 0032 61E0      		ldi r22,lo8(1)
 1348               	.LVL63:
 167:Adafruit_Fingerprint.cpp **** }
 1349               		.loc 3 167 3 is_stmt 0 view .LVU290
GAS LISTING C:\Users\kenne\AppData\Local\Temp\ccpPZdpD.s 			page 57


 1350 0034 CE01      		movw r24,r28
 1351 0036 0396      		adiw r24,3
 1352 0038 0E94 0000 		call _ZN27Adafruit_Fingerprint_PacketC1EhjPh
 1353               	.LVL64:
 167:Adafruit_Fingerprint.cpp **** }
 1354               		.loc 3 167 3 is_stmt 1 view .LVU291
 1355 003c BE01      		movw r22,r28
 1356 003e 6D5F      		subi r22,-3
 1357 0040 7F4F      		sbci r23,-1
 1358 0042 802F      		mov r24,r16
 1359 0044 912F      		mov r25,r17
 1360 0046 0E94 0000 		call _ZN20Adafruit_Fingerprint21writeStructuredPacketERK27Adafruit_Fingerprint_Packet
 1361               	.LVL65:
 167:Adafruit_Fingerprint.cpp **** }
 1362               		.loc 3 167 3 view .LVU292
 1363 004a 48EE      		ldi r20,lo8(-24)
 1364 004c 53E0      		ldi r21,lo8(3)
 1365 004e BE01      		movw r22,r28
 1366 0050 6D5F      		subi r22,-3
 1367 0052 7F4F      		sbci r23,-1
 1368 0054 802F      		mov r24,r16
 1369 0056 912F      		mov r25,r17
 1370 0058 0E94 0000 		call _ZN20Adafruit_Fingerprint19getStructuredPacketEP27Adafruit_Fingerprint_Packetj
 1371               	.LVL66:
 1372 005c 8111      		cpse r24,__zero_reg__
 1373 005e 00C0      		rjmp .L53
 167:Adafruit_Fingerprint.cpp **** }
 1374               		.loc 3 167 3 discriminator 2 view .LVU293
 1375 0060 8985      		ldd r24,Y+9
 1376 0062 8730      		cpi r24,lo8(7)
 1377 0064 01F4      		brne .L54
 167:Adafruit_Fingerprint.cpp **** }
 1378               		.loc 3 167 3 discriminator 5 view .LVU294
 167:Adafruit_Fingerprint.cpp **** }
 1379               		.loc 3 167 3 discriminator 5 view .LVU295
 1380 0066 8C85      		ldd r24,Y+12
 1381 0068 00C0      		rjmp .L51
 1382               	.L53:
 167:Adafruit_Fingerprint.cpp **** }
 1383               		.loc 3 167 3 is_stmt 0 view .LVU296
 1384 006a 81E0      		ldi r24,lo8(1)
 1385               	.L51:
 1386               	/* epilogue start */
 168:Adafruit_Fingerprint.cpp **** 
 1387               		.loc 3 168 1 view .LVU297
 1388 006c C55B      		subi r28,-75
 1389 006e DF4F      		sbci r29,-1
 1390 0070 0FB6      		in __tmp_reg__,__SREG__
 1391 0072 F894      		cli
 1392 0074 DEBF      		out __SP_H__,r29
 1393 0076 0FBE      		out __SREG__,__tmp_reg__
 1394 0078 CDBF      		out __SP_L__,r28
 1395 007a DF91      		pop r29
 1396 007c CF91      		pop r28
 1397 007e 1F91      		pop r17
 1398 0080 0F91      		pop r16
 1399 0082 0895      		ret
GAS LISTING C:\Users\kenne\AppData\Local\Temp\ccpPZdpD.s 			page 58


 1400               	.L54:
 167:Adafruit_Fingerprint.cpp **** }
 1401               		.loc 3 167 3 view .LVU298
 1402 0084 81E0      		ldi r24,lo8(1)
 167:Adafruit_Fingerprint.cpp **** }
 1403               		.loc 3 167 46 is_stmt 1 view .LVU299
 1404 0086 00C0      		rjmp .L51
 1405               		.cfi_endproc
 1406               	.LFE65:
 1408               		.section	.text._ZN20Adafruit_Fingerprint11createModelEv,"ax",@progbits
 1409               	.global	_ZN20Adafruit_Fingerprint11createModelEv
 1411               	_ZN20Adafruit_Fingerprint11createModelEv:
 1412               	.LVL67:
 1413               	.LFB66:
 178:Adafruit_Fingerprint.cpp ****   SEND_CMD_PACKET(FINGERPRINT_REGMODEL);
 1414               		.loc 3 178 49 view -0
 1415               		.cfi_startproc
 178:Adafruit_Fingerprint.cpp ****   SEND_CMD_PACKET(FINGERPRINT_REGMODEL);
 1416               		.loc 3 178 49 is_stmt 0 view .LVU301
 1417 0000 0F93      		push r16
 1418               		.cfi_def_cfa_offset 3
 1419               		.cfi_offset 16, -2
 1420 0002 1F93      		push r17
 1421               		.cfi_def_cfa_offset 4
 1422               		.cfi_offset 17, -3
 1423 0004 CF93      		push r28
 1424               		.cfi_def_cfa_offset 5
 1425               		.cfi_offset 28, -4
 1426 0006 DF93      		push r29
 1427               		.cfi_def_cfa_offset 6
 1428               		.cfi_offset 29, -5
 1429 0008 CDB7      		in r28,__SP_L__
 1430 000a DEB7      		in r29,__SP_H__
 1431               		.cfi_def_cfa_register 28
 1432 000c CA54      		subi r28,74
 1433 000e D109      		sbc r29,__zero_reg__
 1434               		.cfi_def_cfa_offset 80
 1435 0010 0FB6      		in __tmp_reg__,__SREG__
 1436 0012 F894      		cli
 1437 0014 DEBF      		out __SP_H__,r29
 1438 0016 0FBE      		out __SREG__,__tmp_reg__
 1439 0018 CDBF      		out __SP_L__,r28
 1440               	/* prologue: function */
 1441               	/* frame size = 74 */
 1442               	/* stack size = 78 */
 1443               	.L__stack_usage = 78
 1444 001a 082F      		mov r16,r24
 1445 001c 192F      		mov r17,r25
 179:Adafruit_Fingerprint.cpp **** }
 1446               		.loc 3 179 3 is_stmt 1 view .LVU302
 1447 001e 85E0      		ldi r24,lo8(5)
 1448               	.LVL68:
 179:Adafruit_Fingerprint.cpp **** }
 1449               		.loc 3 179 3 is_stmt 0 view .LVU303
 1450 0020 8983      		std Y+1,r24
 179:Adafruit_Fingerprint.cpp **** }
 1451               		.loc 3 179 3 is_stmt 1 view .LVU304
GAS LISTING C:\Users\kenne\AppData\Local\Temp\ccpPZdpD.s 			page 59


 1452 0022 9E01      		movw r18,r28
 1453 0024 2F5F      		subi r18,-1
 1454 0026 3F4F      		sbci r19,-1
 1455 0028 41E0      		ldi r20,lo8(1)
 1456 002a 50E0      		ldi r21,0
 1457 002c 61E0      		ldi r22,lo8(1)
 1458 002e CE01      		movw r24,r28
 1459 0030 0296      		adiw r24,2
 1460 0032 0E94 0000 		call _ZN27Adafruit_Fingerprint_PacketC1EhjPh
 1461               	.LVL69:
 179:Adafruit_Fingerprint.cpp **** }
 1462               		.loc 3 179 3 view .LVU305
 1463 0036 BE01      		movw r22,r28
 1464 0038 6E5F      		subi r22,-2
 1465 003a 7F4F      		sbci r23,-1
 1466 003c 802F      		mov r24,r16
 1467 003e 912F      		mov r25,r17
 1468 0040 0E94 0000 		call _ZN20Adafruit_Fingerprint21writeStructuredPacketERK27Adafruit_Fingerprint_Packet
 1469               	.LVL70:
 179:Adafruit_Fingerprint.cpp **** }
 1470               		.loc 3 179 3 view .LVU306
 1471 0044 48EE      		ldi r20,lo8(-24)
 1472 0046 53E0      		ldi r21,lo8(3)
 1473 0048 BE01      		movw r22,r28
 1474 004a 6E5F      		subi r22,-2
 1475 004c 7F4F      		sbci r23,-1
 1476 004e 802F      		mov r24,r16
 1477 0050 912F      		mov r25,r17
 1478 0052 0E94 0000 		call _ZN20Adafruit_Fingerprint19getStructuredPacketEP27Adafruit_Fingerprint_Packetj
 1479               	.LVL71:
 1480 0056 8111      		cpse r24,__zero_reg__
 1481 0058 00C0      		rjmp .L57
 179:Adafruit_Fingerprint.cpp **** }
 1482               		.loc 3 179 3 discriminator 2 view .LVU307
 1483 005a 8885      		ldd r24,Y+8
 1484 005c 8730      		cpi r24,lo8(7)
 1485 005e 01F4      		brne .L58
 179:Adafruit_Fingerprint.cpp **** }
 1486               		.loc 3 179 3 discriminator 5 view .LVU308
 179:Adafruit_Fingerprint.cpp **** }
 1487               		.loc 3 179 3 discriminator 5 view .LVU309
 1488 0060 8B85      		ldd r24,Y+11
 1489 0062 00C0      		rjmp .L55
 1490               	.L57:
 179:Adafruit_Fingerprint.cpp **** }
 1491               		.loc 3 179 3 is_stmt 0 view .LVU310
 1492 0064 81E0      		ldi r24,lo8(1)
 1493               	.L55:
 1494               	/* epilogue start */
 180:Adafruit_Fingerprint.cpp **** 
 1495               		.loc 3 180 1 view .LVU311
 1496 0066 C65B      		subi r28,-74
 1497 0068 DF4F      		sbci r29,-1
 1498 006a 0FB6      		in __tmp_reg__,__SREG__
 1499 006c F894      		cli
 1500 006e DEBF      		out __SP_H__,r29
 1501 0070 0FBE      		out __SREG__,__tmp_reg__
GAS LISTING C:\Users\kenne\AppData\Local\Temp\ccpPZdpD.s 			page 60


 1502 0072 CDBF      		out __SP_L__,r28
 1503 0074 DF91      		pop r29
 1504 0076 CF91      		pop r28
 1505 0078 1F91      		pop r17
 1506 007a 0F91      		pop r16
 1507 007c 0895      		ret
 1508               	.L58:
 179:Adafruit_Fingerprint.cpp **** }
 1509               		.loc 3 179 3 view .LVU312
 1510 007e 81E0      		ldi r24,lo8(1)
 179:Adafruit_Fingerprint.cpp **** }
 1511               		.loc 3 179 40 is_stmt 1 view .LVU313
 1512 0080 00C0      		rjmp .L55
 1513               		.cfi_endproc
 1514               	.LFE66:
 1516               		.section	.text._ZN20Adafruit_Fingerprint10storeModelEj,"ax",@progbits
 1517               	.global	_ZN20Adafruit_Fingerprint10storeModelEj
 1519               	_ZN20Adafruit_Fingerprint10storeModelEj:
 1520               	.LVL72:
 1521               	.LFB67:
 192:Adafruit_Fingerprint.cpp ****   SEND_CMD_PACKET(FINGERPRINT_STORE, 0x01, (uint8_t)(location >> 8),
 1522               		.loc 3 192 61 view -0
 1523               		.cfi_startproc
 192:Adafruit_Fingerprint.cpp ****   SEND_CMD_PACKET(FINGERPRINT_STORE, 0x01, (uint8_t)(location >> 8),
 1524               		.loc 3 192 61 is_stmt 0 view .LVU315
 1525 0000 0F93      		push r16
 1526               		.cfi_def_cfa_offset 3
 1527               		.cfi_offset 16, -2
 1528 0002 1F93      		push r17
 1529               		.cfi_def_cfa_offset 4
 1530               		.cfi_offset 17, -3
 1531 0004 CF93      		push r28
 1532               		.cfi_def_cfa_offset 5
 1533               		.cfi_offset 28, -4
 1534 0006 DF93      		push r29
 1535               		.cfi_def_cfa_offset 6
 1536               		.cfi_offset 29, -5
 1537 0008 CDB7      		in r28,__SP_L__
 1538 000a DEB7      		in r29,__SP_H__
 1539               		.cfi_def_cfa_register 28
 1540 000c CD54      		subi r28,77
 1541 000e D109      		sbc r29,__zero_reg__
 1542               		.cfi_def_cfa_offset 83
 1543 0010 0FB6      		in __tmp_reg__,__SREG__
 1544 0012 F894      		cli
 1545 0014 DEBF      		out __SP_H__,r29
 1546 0016 0FBE      		out __SREG__,__tmp_reg__
 1547 0018 CDBF      		out __SP_L__,r28
 1548               	/* prologue: function */
 1549               	/* frame size = 77 */
 1550               	/* stack size = 81 */
 1551               	.L__stack_usage = 81
 1552 001a 082F      		mov r16,r24
 1553 001c 192F      		mov r17,r25
 193:Adafruit_Fingerprint.cpp ****                   (uint8_t)(location & 0xFF));
 1554               		.loc 3 193 3 is_stmt 1 view .LVU316
 1555 001e 1982      		std Y+1,__zero_reg__
GAS LISTING C:\Users\kenne\AppData\Local\Temp\ccpPZdpD.s 			page 61


 1556 0020 1A82      		std Y+2,__zero_reg__
 1557 0022 1B82      		std Y+3,__zero_reg__
 1558 0024 1C82      		std Y+4,__zero_reg__
 1559 0026 86E0      		ldi r24,lo8(6)
 1560               	.LVL73:
 193:Adafruit_Fingerprint.cpp ****                   (uint8_t)(location & 0xFF));
 1561               		.loc 3 193 3 is_stmt 0 view .LVU317
 1562 0028 8983      		std Y+1,r24
 1563 002a 81E0      		ldi r24,lo8(1)
 1564 002c 8A83      		std Y+2,r24
 1565 002e 7B83      		std Y+3,r23
 1566 0030 6C83      		std Y+4,r22
 193:Adafruit_Fingerprint.cpp ****                   (uint8_t)(location & 0xFF));
 1567               		.loc 3 193 3 is_stmt 1 view .LVU318
 1568 0032 9E01      		movw r18,r28
 1569 0034 2F5F      		subi r18,-1
 1570 0036 3F4F      		sbci r19,-1
 1571 0038 44E0      		ldi r20,lo8(4)
 1572 003a 50E0      		ldi r21,0
 1573 003c 61E0      		ldi r22,lo8(1)
 1574               	.LVL74:
 193:Adafruit_Fingerprint.cpp ****                   (uint8_t)(location & 0xFF));
 1575               		.loc 3 193 3 is_stmt 0 view .LVU319
 1576 003e CE01      		movw r24,r28
 1577 0040 0596      		adiw r24,5
 1578 0042 0E94 0000 		call _ZN27Adafruit_Fingerprint_PacketC1EhjPh
 1579               	.LVL75:
 193:Adafruit_Fingerprint.cpp ****                   (uint8_t)(location & 0xFF));
 1580               		.loc 3 193 3 is_stmt 1 view .LVU320
 1581 0046 BE01      		movw r22,r28
 1582 0048 6B5F      		subi r22,-5
 1583 004a 7F4F      		sbci r23,-1
 1584 004c 802F      		mov r24,r16
 1585 004e 912F      		mov r25,r17
 1586 0050 0E94 0000 		call _ZN20Adafruit_Fingerprint21writeStructuredPacketERK27Adafruit_Fingerprint_Packet
 1587               	.LVL76:
 193:Adafruit_Fingerprint.cpp ****                   (uint8_t)(location & 0xFF));
 1588               		.loc 3 193 3 view .LVU321
 1589 0054 48EE      		ldi r20,lo8(-24)
 1590 0056 53E0      		ldi r21,lo8(3)
 1591 0058 BE01      		movw r22,r28
 1592 005a 6B5F      		subi r22,-5
 1593 005c 7F4F      		sbci r23,-1
 1594 005e 802F      		mov r24,r16
 1595 0060 912F      		mov r25,r17
 1596 0062 0E94 0000 		call _ZN20Adafruit_Fingerprint19getStructuredPacketEP27Adafruit_Fingerprint_Packetj
 1597               	.LVL77:
 1598 0066 8111      		cpse r24,__zero_reg__
 1599 0068 00C0      		rjmp .L61
 193:Adafruit_Fingerprint.cpp ****                   (uint8_t)(location & 0xFF));
 1600               		.loc 3 193 3 discriminator 2 view .LVU322
 1601 006a 8B85      		ldd r24,Y+11
 1602 006c 8730      		cpi r24,lo8(7)
 1603 006e 01F4      		brne .L62
 193:Adafruit_Fingerprint.cpp ****                   (uint8_t)(location & 0xFF));
 1604               		.loc 3 193 3 discriminator 4 view .LVU323
 193:Adafruit_Fingerprint.cpp ****                   (uint8_t)(location & 0xFF));
GAS LISTING C:\Users\kenne\AppData\Local\Temp\ccpPZdpD.s 			page 62


 1605               		.loc 3 193 3 discriminator 4 view .LVU324
 1606 0070 8E85      		ldd r24,Y+14
 1607 0072 00C0      		rjmp .L59
 1608               	.L61:
 193:Adafruit_Fingerprint.cpp ****                   (uint8_t)(location & 0xFF));
 1609               		.loc 3 193 3 is_stmt 0 view .LVU325
 1610 0074 81E0      		ldi r24,lo8(1)
 1611               	.L59:
 1612               	/* epilogue start */
 195:Adafruit_Fingerprint.cpp **** 
 1613               		.loc 3 195 1 view .LVU326
 1614 0076 C35B      		subi r28,-77
 1615 0078 DF4F      		sbci r29,-1
 1616 007a 0FB6      		in __tmp_reg__,__SREG__
 1617 007c F894      		cli
 1618 007e DEBF      		out __SP_H__,r29
 1619 0080 0FBE      		out __SREG__,__tmp_reg__
 1620 0082 CDBF      		out __SP_L__,r28
 1621 0084 DF91      		pop r29
 1622 0086 CF91      		pop r28
 1623 0088 1F91      		pop r17
 1624 008a 0F91      		pop r16
 1625 008c 0895      		ret
 1626               	.L62:
 193:Adafruit_Fingerprint.cpp ****                   (uint8_t)(location & 0xFF));
 1627               		.loc 3 193 3 view .LVU327
 1628 008e 81E0      		ldi r24,lo8(1)
 194:Adafruit_Fingerprint.cpp **** }
 1629               		.loc 3 194 46 is_stmt 1 view .LVU328
 1630 0090 00C0      		rjmp .L59
 1631               		.cfi_endproc
 1632               	.LFE67:
 1634               		.section	.text._ZN20Adafruit_Fingerprint9loadModelEj,"ax",@progbits
 1635               	.global	_ZN20Adafruit_Fingerprint9loadModelEj
 1637               	_ZN20Adafruit_Fingerprint9loadModelEj:
 1638               	.LVL78:
 1639               	.LFB68:
 205:Adafruit_Fingerprint.cpp ****   SEND_CMD_PACKET(FINGERPRINT_LOAD, 0x01, (uint8_t)(location >> 8),
 1640               		.loc 3 205 60 view -0
 1641               		.cfi_startproc
 205:Adafruit_Fingerprint.cpp ****   SEND_CMD_PACKET(FINGERPRINT_LOAD, 0x01, (uint8_t)(location >> 8),
 1642               		.loc 3 205 60 is_stmt 0 view .LVU330
 1643 0000 0F93      		push r16
 1644               		.cfi_def_cfa_offset 3
 1645               		.cfi_offset 16, -2
 1646 0002 1F93      		push r17
 1647               		.cfi_def_cfa_offset 4
 1648               		.cfi_offset 17, -3
 1649 0004 CF93      		push r28
 1650               		.cfi_def_cfa_offset 5
 1651               		.cfi_offset 28, -4
 1652 0006 DF93      		push r29
 1653               		.cfi_def_cfa_offset 6
 1654               		.cfi_offset 29, -5
 1655 0008 CDB7      		in r28,__SP_L__
 1656 000a DEB7      		in r29,__SP_H__
 1657               		.cfi_def_cfa_register 28
GAS LISTING C:\Users\kenne\AppData\Local\Temp\ccpPZdpD.s 			page 63


 1658 000c CD54      		subi r28,77
 1659 000e D109      		sbc r29,__zero_reg__
 1660               		.cfi_def_cfa_offset 83
 1661 0010 0FB6      		in __tmp_reg__,__SREG__
 1662 0012 F894      		cli
 1663 0014 DEBF      		out __SP_H__,r29
 1664 0016 0FBE      		out __SREG__,__tmp_reg__
 1665 0018 CDBF      		out __SP_L__,r28
 1666               	/* prologue: function */
 1667               	/* frame size = 77 */
 1668               	/* stack size = 81 */
 1669               	.L__stack_usage = 81
 1670 001a 082F      		mov r16,r24
 1671 001c 192F      		mov r17,r25
 206:Adafruit_Fingerprint.cpp ****                   (uint8_t)(location & 0xFF));
 1672               		.loc 3 206 3 is_stmt 1 view .LVU331
 1673 001e 1982      		std Y+1,__zero_reg__
 1674 0020 1A82      		std Y+2,__zero_reg__
 1675 0022 1B82      		std Y+3,__zero_reg__
 1676 0024 1C82      		std Y+4,__zero_reg__
 1677 0026 87E0      		ldi r24,lo8(7)
 1678               	.LVL79:
 206:Adafruit_Fingerprint.cpp ****                   (uint8_t)(location & 0xFF));
 1679               		.loc 3 206 3 is_stmt 0 view .LVU332
 1680 0028 8983      		std Y+1,r24
 1681 002a 81E0      		ldi r24,lo8(1)
 1682 002c 8A83      		std Y+2,r24
 1683 002e 7B83      		std Y+3,r23
 1684 0030 6C83      		std Y+4,r22
 206:Adafruit_Fingerprint.cpp ****                   (uint8_t)(location & 0xFF));
 1685               		.loc 3 206 3 is_stmt 1 view .LVU333
 1686 0032 9E01      		movw r18,r28
 1687 0034 2F5F      		subi r18,-1
 1688 0036 3F4F      		sbci r19,-1
 1689 0038 44E0      		ldi r20,lo8(4)
 1690 003a 50E0      		ldi r21,0
 1691 003c 61E0      		ldi r22,lo8(1)
 1692               	.LVL80:
 206:Adafruit_Fingerprint.cpp ****                   (uint8_t)(location & 0xFF));
 1693               		.loc 3 206 3 is_stmt 0 view .LVU334
 1694 003e CE01      		movw r24,r28
 1695 0040 0596      		adiw r24,5
 1696 0042 0E94 0000 		call _ZN27Adafruit_Fingerprint_PacketC1EhjPh
 1697               	.LVL81:
 206:Adafruit_Fingerprint.cpp ****                   (uint8_t)(location & 0xFF));
 1698               		.loc 3 206 3 is_stmt 1 view .LVU335
 1699 0046 BE01      		movw r22,r28
 1700 0048 6B5F      		subi r22,-5
 1701 004a 7F4F      		sbci r23,-1
 1702 004c 802F      		mov r24,r16
 1703 004e 912F      		mov r25,r17
 1704 0050 0E94 0000 		call _ZN20Adafruit_Fingerprint21writeStructuredPacketERK27Adafruit_Fingerprint_Packet
 1705               	.LVL82:
 206:Adafruit_Fingerprint.cpp ****                   (uint8_t)(location & 0xFF));
 1706               		.loc 3 206 3 view .LVU336
 1707 0054 48EE      		ldi r20,lo8(-24)
 1708 0056 53E0      		ldi r21,lo8(3)
GAS LISTING C:\Users\kenne\AppData\Local\Temp\ccpPZdpD.s 			page 64


 1709 0058 BE01      		movw r22,r28
 1710 005a 6B5F      		subi r22,-5
 1711 005c 7F4F      		sbci r23,-1
 1712 005e 802F      		mov r24,r16
 1713 0060 912F      		mov r25,r17
 1714 0062 0E94 0000 		call _ZN20Adafruit_Fingerprint19getStructuredPacketEP27Adafruit_Fingerprint_Packetj
 1715               	.LVL83:
 1716 0066 8111      		cpse r24,__zero_reg__
 1717 0068 00C0      		rjmp .L65
 206:Adafruit_Fingerprint.cpp ****                   (uint8_t)(location & 0xFF));
 1718               		.loc 3 206 3 discriminator 2 view .LVU337
 1719 006a 8B85      		ldd r24,Y+11
 1720 006c 8730      		cpi r24,lo8(7)
 1721 006e 01F4      		brne .L66
 206:Adafruit_Fingerprint.cpp ****                   (uint8_t)(location & 0xFF));
 1722               		.loc 3 206 3 discriminator 4 view .LVU338
 206:Adafruit_Fingerprint.cpp ****                   (uint8_t)(location & 0xFF));
 1723               		.loc 3 206 3 discriminator 4 view .LVU339
 1724 0070 8E85      		ldd r24,Y+14
 1725 0072 00C0      		rjmp .L63
 1726               	.L65:
 206:Adafruit_Fingerprint.cpp ****                   (uint8_t)(location & 0xFF));
 1727               		.loc 3 206 3 is_stmt 0 view .LVU340
 1728 0074 81E0      		ldi r24,lo8(1)
 1729               	.L63:
 1730               	/* epilogue start */
 208:Adafruit_Fingerprint.cpp **** 
 1731               		.loc 3 208 1 view .LVU341
 1732 0076 C35B      		subi r28,-77
 1733 0078 DF4F      		sbci r29,-1
 1734 007a 0FB6      		in __tmp_reg__,__SREG__
 1735 007c F894      		cli
 1736 007e DEBF      		out __SP_H__,r29
 1737 0080 0FBE      		out __SREG__,__tmp_reg__
 1738 0082 CDBF      		out __SP_L__,r28
 1739 0084 DF91      		pop r29
 1740 0086 CF91      		pop r28
 1741 0088 1F91      		pop r17
 1742 008a 0F91      		pop r16
 1743 008c 0895      		ret
 1744               	.L66:
 206:Adafruit_Fingerprint.cpp ****                   (uint8_t)(location & 0xFF));
 1745               		.loc 3 206 3 view .LVU342
 1746 008e 81E0      		ldi r24,lo8(1)
 207:Adafruit_Fingerprint.cpp **** }
 1747               		.loc 3 207 46 is_stmt 1 view .LVU343
 1748 0090 00C0      		rjmp .L63
 1749               		.cfi_endproc
 1750               	.LFE68:
 1752               		.section	.text._ZN20Adafruit_Fingerprint8getModelEv,"ax",@progbits
 1753               	.global	_ZN20Adafruit_Fingerprint8getModelEv
 1755               	_ZN20Adafruit_Fingerprint8getModelEv:
 1756               	.LVL84:
 1757               	.LFB69:
 217:Adafruit_Fingerprint.cpp ****   SEND_CMD_PACKET(FINGERPRINT_UPLOAD, 0x01);
 1758               		.loc 3 217 46 view -0
 1759               		.cfi_startproc
GAS LISTING C:\Users\kenne\AppData\Local\Temp\ccpPZdpD.s 			page 65


 217:Adafruit_Fingerprint.cpp ****   SEND_CMD_PACKET(FINGERPRINT_UPLOAD, 0x01);
 1760               		.loc 3 217 46 is_stmt 0 view .LVU345
 1761 0000 0F93      		push r16
 1762               		.cfi_def_cfa_offset 3
 1763               		.cfi_offset 16, -2
 1764 0002 1F93      		push r17
 1765               		.cfi_def_cfa_offset 4
 1766               		.cfi_offset 17, -3
 1767 0004 CF93      		push r28
 1768               		.cfi_def_cfa_offset 5
 1769               		.cfi_offset 28, -4
 1770 0006 DF93      		push r29
 1771               		.cfi_def_cfa_offset 6
 1772               		.cfi_offset 29, -5
 1773 0008 CDB7      		in r28,__SP_L__
 1774 000a DEB7      		in r29,__SP_H__
 1775               		.cfi_def_cfa_register 28
 1776 000c CB54      		subi r28,75
 1777 000e D109      		sbc r29,__zero_reg__
 1778               		.cfi_def_cfa_offset 81
 1779 0010 0FB6      		in __tmp_reg__,__SREG__
 1780 0012 F894      		cli
 1781 0014 DEBF      		out __SP_H__,r29
 1782 0016 0FBE      		out __SREG__,__tmp_reg__
 1783 0018 CDBF      		out __SP_L__,r28
 1784               	/* prologue: function */
 1785               	/* frame size = 75 */
 1786               	/* stack size = 79 */
 1787               	.L__stack_usage = 79
 1788 001a 082F      		mov r16,r24
 1789 001c 192F      		mov r17,r25
 218:Adafruit_Fingerprint.cpp **** }
 1790               		.loc 3 218 3 is_stmt 1 view .LVU346
 1791 001e 88E0      		ldi r24,lo8(8)
 1792 0020 91E0      		ldi r25,lo8(1)
 1793               	.LVL85:
 218:Adafruit_Fingerprint.cpp **** }
 1794               		.loc 3 218 3 is_stmt 0 view .LVU347
 1795 0022 9A83      		std Y+2,r25
 1796 0024 8983      		std Y+1,r24
 218:Adafruit_Fingerprint.cpp **** }
 1797               		.loc 3 218 3 is_stmt 1 view .LVU348
 1798 0026 9E01      		movw r18,r28
 1799 0028 2F5F      		subi r18,-1
 1800 002a 3F4F      		sbci r19,-1
 1801 002c 42E0      		ldi r20,lo8(2)
 1802 002e 50E0      		ldi r21,0
 1803 0030 61E0      		ldi r22,lo8(1)
 1804 0032 CE01      		movw r24,r28
 1805 0034 0396      		adiw r24,3
 1806 0036 0E94 0000 		call _ZN27Adafruit_Fingerprint_PacketC1EhjPh
 1807               	.LVL86:
 218:Adafruit_Fingerprint.cpp **** }
 1808               		.loc 3 218 3 view .LVU349
 1809 003a BE01      		movw r22,r28
 1810 003c 6D5F      		subi r22,-3
 1811 003e 7F4F      		sbci r23,-1
GAS LISTING C:\Users\kenne\AppData\Local\Temp\ccpPZdpD.s 			page 66


 1812 0040 802F      		mov r24,r16
 1813 0042 912F      		mov r25,r17
 1814 0044 0E94 0000 		call _ZN20Adafruit_Fingerprint21writeStructuredPacketERK27Adafruit_Fingerprint_Packet
 1815               	.LVL87:
 218:Adafruit_Fingerprint.cpp **** }
 1816               		.loc 3 218 3 view .LVU350
 1817 0048 48EE      		ldi r20,lo8(-24)
 1818 004a 53E0      		ldi r21,lo8(3)
 1819 004c BE01      		movw r22,r28
 1820 004e 6D5F      		subi r22,-3
 1821 0050 7F4F      		sbci r23,-1
 1822 0052 802F      		mov r24,r16
 1823 0054 912F      		mov r25,r17
 1824 0056 0E94 0000 		call _ZN20Adafruit_Fingerprint19getStructuredPacketEP27Adafruit_Fingerprint_Packetj
 1825               	.LVL88:
 1826 005a 8111      		cpse r24,__zero_reg__
 1827 005c 00C0      		rjmp .L69
 218:Adafruit_Fingerprint.cpp **** }
 1828               		.loc 3 218 3 discriminator 2 view .LVU351
 1829 005e 8985      		ldd r24,Y+9
 1830 0060 8730      		cpi r24,lo8(7)
 1831 0062 01F4      		brne .L70
 218:Adafruit_Fingerprint.cpp **** }
 1832               		.loc 3 218 3 discriminator 5 view .LVU352
 218:Adafruit_Fingerprint.cpp **** }
 1833               		.loc 3 218 3 discriminator 5 view .LVU353
 1834 0064 8C85      		ldd r24,Y+12
 1835 0066 00C0      		rjmp .L67
 1836               	.L69:
 218:Adafruit_Fingerprint.cpp **** }
 1837               		.loc 3 218 3 is_stmt 0 view .LVU354
 1838 0068 81E0      		ldi r24,lo8(1)
 1839               	.L67:
 1840               	/* epilogue start */
 219:Adafruit_Fingerprint.cpp **** 
 1841               		.loc 3 219 1 view .LVU355
 1842 006a C55B      		subi r28,-75
 1843 006c DF4F      		sbci r29,-1
 1844 006e 0FB6      		in __tmp_reg__,__SREG__
 1845 0070 F894      		cli
 1846 0072 DEBF      		out __SP_H__,r29
 1847 0074 0FBE      		out __SREG__,__tmp_reg__
 1848 0076 CDBF      		out __SP_L__,r28
 1849 0078 DF91      		pop r29
 1850 007a CF91      		pop r28
 1851 007c 1F91      		pop r17
 1852 007e 0F91      		pop r16
 1853 0080 0895      		ret
 1854               	.L70:
 218:Adafruit_Fingerprint.cpp **** }
 1855               		.loc 3 218 3 view .LVU356
 1856 0082 81E0      		ldi r24,lo8(1)
 218:Adafruit_Fingerprint.cpp **** }
 1857               		.loc 3 218 44 is_stmt 1 view .LVU357
 1858 0084 00C0      		rjmp .L67
 1859               		.cfi_endproc
 1860               	.LFE69:
GAS LISTING C:\Users\kenne\AppData\Local\Temp\ccpPZdpD.s 			page 67


 1862               		.section	.text._ZN20Adafruit_Fingerprint11deleteModelEj,"ax",@progbits
 1863               	.global	_ZN20Adafruit_Fingerprint11deleteModelEj
 1865               	_ZN20Adafruit_Fingerprint11deleteModelEj:
 1866               	.LVL89:
 1867               	.LFB70:
 231:Adafruit_Fingerprint.cpp ****   SEND_CMD_PACKET(FINGERPRINT_DELETE, (uint8_t)(location >> 8),
 1868               		.loc 3 231 62 view -0
 1869               		.cfi_startproc
 231:Adafruit_Fingerprint.cpp ****   SEND_CMD_PACKET(FINGERPRINT_DELETE, (uint8_t)(location >> 8),
 1870               		.loc 3 231 62 is_stmt 0 view .LVU359
 1871 0000 0F93      		push r16
 1872               		.cfi_def_cfa_offset 3
 1873               		.cfi_offset 16, -2
 1874 0002 1F93      		push r17
 1875               		.cfi_def_cfa_offset 4
 1876               		.cfi_offset 17, -3
 1877 0004 CF93      		push r28
 1878               		.cfi_def_cfa_offset 5
 1879               		.cfi_offset 28, -4
 1880 0006 DF93      		push r29
 1881               		.cfi_def_cfa_offset 6
 1882               		.cfi_offset 29, -5
 1883 0008 CDB7      		in r28,__SP_L__
 1884 000a DEB7      		in r29,__SP_H__
 1885               		.cfi_def_cfa_register 28
 1886 000c CE54      		subi r28,78
 1887 000e D109      		sbc r29,__zero_reg__
 1888               		.cfi_def_cfa_offset 84
 1889 0010 0FB6      		in __tmp_reg__,__SREG__
 1890 0012 F894      		cli
 1891 0014 DEBF      		out __SP_H__,r29
 1892 0016 0FBE      		out __SREG__,__tmp_reg__
 1893 0018 CDBF      		out __SP_L__,r28
 1894               	/* prologue: function */
 1895               	/* frame size = 78 */
 1896               	/* stack size = 82 */
 1897               	.L__stack_usage = 82
 1898 001a 082F      		mov r16,r24
 1899 001c 192F      		mov r17,r25
 232:Adafruit_Fingerprint.cpp ****                   (uint8_t)(location & 0xFF), 0x00, 0x01);
 1900               		.loc 3 232 3 is_stmt 1 view .LVU360
 1901 001e 9E01      		movw r18,r28
 1902 0020 2F5F      		subi r18,-1
 1903 0022 3F4F      		sbci r19,-1
 1904 0024 85E0      		ldi r24,lo8(5)
 1905               	.LVL90:
 232:Adafruit_Fingerprint.cpp ****                   (uint8_t)(location & 0xFF), 0x00, 0x01);
 1906               		.loc 3 232 3 is_stmt 0 view .LVU361
 1907 0026 F901      		movw r30,r18
 1908               		0:
 1909 0028 1192      		st Z+,__zero_reg__
 1910 002a 8A95      		dec r24
 1911 002c 01F4      		brne 0b
 1912 002e 8CE0      		ldi r24,lo8(12)
 1913 0030 8983      		std Y+1,r24
 1914 0032 81E0      		ldi r24,lo8(1)
 1915 0034 8D83      		std Y+5,r24
GAS LISTING C:\Users\kenne\AppData\Local\Temp\ccpPZdpD.s 			page 68


 1916 0036 7A83      		std Y+2,r23
 1917 0038 6B83      		std Y+3,r22
 232:Adafruit_Fingerprint.cpp ****                   (uint8_t)(location & 0xFF), 0x00, 0x01);
 1918               		.loc 3 232 3 is_stmt 1 view .LVU362
 1919 003a 45E0      		ldi r20,lo8(5)
 1920 003c 50E0      		ldi r21,0
 1921 003e 61E0      		ldi r22,lo8(1)
 1922               	.LVL91:
 232:Adafruit_Fingerprint.cpp ****                   (uint8_t)(location & 0xFF), 0x00, 0x01);
 1923               		.loc 3 232 3 is_stmt 0 view .LVU363
 1924 0040 CE01      		movw r24,r28
 1925 0042 0696      		adiw r24,6
 1926 0044 0E94 0000 		call _ZN27Adafruit_Fingerprint_PacketC1EhjPh
 1927               	.LVL92:
 232:Adafruit_Fingerprint.cpp ****                   (uint8_t)(location & 0xFF), 0x00, 0x01);
 1928               		.loc 3 232 3 is_stmt 1 view .LVU364
 1929 0048 BE01      		movw r22,r28
 1930 004a 6A5F      		subi r22,-6
 1931 004c 7F4F      		sbci r23,-1
 1932 004e 802F      		mov r24,r16
 1933 0050 912F      		mov r25,r17
 1934 0052 0E94 0000 		call _ZN20Adafruit_Fingerprint21writeStructuredPacketERK27Adafruit_Fingerprint_Packet
 1935               	.LVL93:
 232:Adafruit_Fingerprint.cpp ****                   (uint8_t)(location & 0xFF), 0x00, 0x01);
 1936               		.loc 3 232 3 view .LVU365
 1937 0056 48EE      		ldi r20,lo8(-24)
 1938 0058 53E0      		ldi r21,lo8(3)
 1939 005a BE01      		movw r22,r28
 1940 005c 6A5F      		subi r22,-6
 1941 005e 7F4F      		sbci r23,-1
 1942 0060 802F      		mov r24,r16
 1943 0062 912F      		mov r25,r17
 1944 0064 0E94 0000 		call _ZN20Adafruit_Fingerprint19getStructuredPacketEP27Adafruit_Fingerprint_Packetj
 1945               	.LVL94:
 1946 0068 8111      		cpse r24,__zero_reg__
 1947 006a 00C0      		rjmp .L73
 232:Adafruit_Fingerprint.cpp ****                   (uint8_t)(location & 0xFF), 0x00, 0x01);
 1948               		.loc 3 232 3 discriminator 2 view .LVU366
 1949 006c 8C85      		ldd r24,Y+12
 1950 006e 8730      		cpi r24,lo8(7)
 1951 0070 01F4      		brne .L74
 232:Adafruit_Fingerprint.cpp ****                   (uint8_t)(location & 0xFF), 0x00, 0x01);
 1952               		.loc 3 232 3 discriminator 4 view .LVU367
 232:Adafruit_Fingerprint.cpp ****                   (uint8_t)(location & 0xFF), 0x00, 0x01);
 1953               		.loc 3 232 3 discriminator 4 view .LVU368
 1954 0072 8F85      		ldd r24,Y+15
 1955 0074 00C0      		rjmp .L71
 1956               	.L73:
 232:Adafruit_Fingerprint.cpp ****                   (uint8_t)(location & 0xFF), 0x00, 0x01);
 1957               		.loc 3 232 3 is_stmt 0 view .LVU369
 1958 0076 81E0      		ldi r24,lo8(1)
 1959               	.L71:
 1960               	/* epilogue start */
 234:Adafruit_Fingerprint.cpp **** 
 1961               		.loc 3 234 1 view .LVU370
 1962 0078 C25B      		subi r28,-78
 1963 007a DF4F      		sbci r29,-1
GAS LISTING C:\Users\kenne\AppData\Local\Temp\ccpPZdpD.s 			page 69


 1964 007c 0FB6      		in __tmp_reg__,__SREG__
 1965 007e F894      		cli
 1966 0080 DEBF      		out __SP_H__,r29
 1967 0082 0FBE      		out __SREG__,__tmp_reg__
 1968 0084 CDBF      		out __SP_L__,r28
 1969 0086 DF91      		pop r29
 1970 0088 CF91      		pop r28
 1971 008a 1F91      		pop r17
 1972 008c 0F91      		pop r16
 1973 008e 0895      		ret
 1974               	.L74:
 232:Adafruit_Fingerprint.cpp ****                   (uint8_t)(location & 0xFF), 0x00, 0x01);
 1975               		.loc 3 232 3 view .LVU371
 1976 0090 81E0      		ldi r24,lo8(1)
 233:Adafruit_Fingerprint.cpp **** }
 1977               		.loc 3 233 58 is_stmt 1 view .LVU372
 1978 0092 00C0      		rjmp .L71
 1979               		.cfi_endproc
 1980               	.LFE70:
 1982               		.section	.text._ZN20Adafruit_Fingerprint13emptyDatabaseEv,"ax",@progbits
 1983               	.global	_ZN20Adafruit_Fingerprint13emptyDatabaseEv
 1985               	_ZN20Adafruit_Fingerprint13emptyDatabaseEv:
 1986               	.LVL95:
 1987               	.LFB71:
 245:Adafruit_Fingerprint.cpp ****   SEND_CMD_PACKET(FINGERPRINT_EMPTY);
 1988               		.loc 3 245 51 view -0
 1989               		.cfi_startproc
 245:Adafruit_Fingerprint.cpp ****   SEND_CMD_PACKET(FINGERPRINT_EMPTY);
 1990               		.loc 3 245 51 is_stmt 0 view .LVU374
 1991 0000 0F93      		push r16
 1992               		.cfi_def_cfa_offset 3
 1993               		.cfi_offset 16, -2
 1994 0002 1F93      		push r17
 1995               		.cfi_def_cfa_offset 4
 1996               		.cfi_offset 17, -3
 1997 0004 CF93      		push r28
 1998               		.cfi_def_cfa_offset 5
 1999               		.cfi_offset 28, -4
 2000 0006 DF93      		push r29
 2001               		.cfi_def_cfa_offset 6
 2002               		.cfi_offset 29, -5
 2003 0008 CDB7      		in r28,__SP_L__
 2004 000a DEB7      		in r29,__SP_H__
 2005               		.cfi_def_cfa_register 28
 2006 000c CA54      		subi r28,74
 2007 000e D109      		sbc r29,__zero_reg__
 2008               		.cfi_def_cfa_offset 80
 2009 0010 0FB6      		in __tmp_reg__,__SREG__
 2010 0012 F894      		cli
 2011 0014 DEBF      		out __SP_H__,r29
 2012 0016 0FBE      		out __SREG__,__tmp_reg__
 2013 0018 CDBF      		out __SP_L__,r28
 2014               	/* prologue: function */
 2015               	/* frame size = 74 */
 2016               	/* stack size = 78 */
 2017               	.L__stack_usage = 78
 2018 001a 082F      		mov r16,r24
GAS LISTING C:\Users\kenne\AppData\Local\Temp\ccpPZdpD.s 			page 70


 2019 001c 192F      		mov r17,r25
 246:Adafruit_Fingerprint.cpp **** }
 2020               		.loc 3 246 3 is_stmt 1 view .LVU375
 2021 001e 8DE0      		ldi r24,lo8(13)
 2022               	.LVL96:
 246:Adafruit_Fingerprint.cpp **** }
 2023               		.loc 3 246 3 is_stmt 0 view .LVU376
 2024 0020 8983      		std Y+1,r24
 246:Adafruit_Fingerprint.cpp **** }
 2025               		.loc 3 246 3 is_stmt 1 view .LVU377
 2026 0022 9E01      		movw r18,r28
 2027 0024 2F5F      		subi r18,-1
 2028 0026 3F4F      		sbci r19,-1
 2029 0028 41E0      		ldi r20,lo8(1)
 2030 002a 50E0      		ldi r21,0
 2031 002c 61E0      		ldi r22,lo8(1)
 2032 002e CE01      		movw r24,r28
 2033 0030 0296      		adiw r24,2
 2034 0032 0E94 0000 		call _ZN27Adafruit_Fingerprint_PacketC1EhjPh
 2035               	.LVL97:
 246:Adafruit_Fingerprint.cpp **** }
 2036               		.loc 3 246 3 view .LVU378
 2037 0036 BE01      		movw r22,r28
 2038 0038 6E5F      		subi r22,-2
 2039 003a 7F4F      		sbci r23,-1
 2040 003c 802F      		mov r24,r16
 2041 003e 912F      		mov r25,r17
 2042 0040 0E94 0000 		call _ZN20Adafruit_Fingerprint21writeStructuredPacketERK27Adafruit_Fingerprint_Packet
 2043               	.LVL98:
 246:Adafruit_Fingerprint.cpp **** }
 2044               		.loc 3 246 3 view .LVU379
 2045 0044 48EE      		ldi r20,lo8(-24)
 2046 0046 53E0      		ldi r21,lo8(3)
 2047 0048 BE01      		movw r22,r28
 2048 004a 6E5F      		subi r22,-2
 2049 004c 7F4F      		sbci r23,-1
 2050 004e 802F      		mov r24,r16
 2051 0050 912F      		mov r25,r17
 2052 0052 0E94 0000 		call _ZN20Adafruit_Fingerprint19getStructuredPacketEP27Adafruit_Fingerprint_Packetj
 2053               	.LVL99:
 2054 0056 8111      		cpse r24,__zero_reg__
 2055 0058 00C0      		rjmp .L77
 246:Adafruit_Fingerprint.cpp **** }
 2056               		.loc 3 246 3 discriminator 2 view .LVU380
 2057 005a 8885      		ldd r24,Y+8
 2058 005c 8730      		cpi r24,lo8(7)
 2059 005e 01F4      		brne .L78
 246:Adafruit_Fingerprint.cpp **** }
 2060               		.loc 3 246 3 discriminator 5 view .LVU381
 246:Adafruit_Fingerprint.cpp **** }
 2061               		.loc 3 246 3 discriminator 5 view .LVU382
 2062 0060 8B85      		ldd r24,Y+11
 2063 0062 00C0      		rjmp .L75
 2064               	.L77:
 246:Adafruit_Fingerprint.cpp **** }
 2065               		.loc 3 246 3 is_stmt 0 view .LVU383
 2066 0064 81E0      		ldi r24,lo8(1)
GAS LISTING C:\Users\kenne\AppData\Local\Temp\ccpPZdpD.s 			page 71


 2067               	.L75:
 2068               	/* epilogue start */
 247:Adafruit_Fingerprint.cpp **** 
 2069               		.loc 3 247 1 view .LVU384
 2070 0066 C65B      		subi r28,-74
 2071 0068 DF4F      		sbci r29,-1
 2072 006a 0FB6      		in __tmp_reg__,__SREG__
 2073 006c F894      		cli
 2074 006e DEBF      		out __SP_H__,r29
 2075 0070 0FBE      		out __SREG__,__tmp_reg__
 2076 0072 CDBF      		out __SP_L__,r28
 2077 0074 DF91      		pop r29
 2078 0076 CF91      		pop r28
 2079 0078 1F91      		pop r17
 2080 007a 0F91      		pop r16
 2081 007c 0895      		ret
 2082               	.L78:
 246:Adafruit_Fingerprint.cpp **** }
 2083               		.loc 3 246 3 view .LVU385
 2084 007e 81E0      		ldi r24,lo8(1)
 246:Adafruit_Fingerprint.cpp **** }
 2085               		.loc 3 246 37 is_stmt 1 view .LVU386
 2086 0080 00C0      		rjmp .L75
 2087               		.cfi_endproc
 2088               	.LFE71:
 2090               		.section	.rodata
 2091               	.LC0:
 2092 0000 1B01 00   		.string	"\033\001"
 2093 0003 00        		.string	""
 2094 0004 00        		.string	""
 2095 0005 A3        		.ascii	"\243"
 2096               		.section	.text._ZN20Adafruit_Fingerprint16fingerFastSearchEv,"ax",@progbits
 2097               	.global	_ZN20Adafruit_Fingerprint16fingerFastSearchEv
 2099               	_ZN20Adafruit_Fingerprint16fingerFastSearchEv:
 2100               	.LVL100:
 2101               	.LFB72:
 259:Adafruit_Fingerprint.cpp ****   // high speed search of slot #1 starting at page 0x0000 and page #0x00A3
 2102               		.loc 3 259 54 view -0
 2103               		.cfi_startproc
 259:Adafruit_Fingerprint.cpp ****   // high speed search of slot #1 starting at page 0x0000 and page #0x00A3
 2104               		.loc 3 259 54 is_stmt 0 view .LVU388
 2105 0000 0F93      		push r16
 2106               		.cfi_def_cfa_offset 3
 2107               		.cfi_offset 16, -2
 2108 0002 1F93      		push r17
 2109               		.cfi_def_cfa_offset 4
 2110               		.cfi_offset 17, -3
 2111 0004 CF93      		push r28
 2112               		.cfi_def_cfa_offset 5
 2113               		.cfi_offset 28, -4
 2114 0006 DF93      		push r29
 2115               		.cfi_def_cfa_offset 6
 2116               		.cfi_offset 29, -5
 2117 0008 CDB7      		in r28,__SP_L__
 2118 000a DEB7      		in r29,__SP_H__
 2119               		.cfi_def_cfa_register 28
 2120 000c CF54      		subi r28,79
GAS LISTING C:\Users\kenne\AppData\Local\Temp\ccpPZdpD.s 			page 72


 2121 000e D109      		sbc r29,__zero_reg__
 2122               		.cfi_def_cfa_offset 85
 2123 0010 0FB6      		in __tmp_reg__,__SREG__
 2124 0012 F894      		cli
 2125 0014 DEBF      		out __SP_H__,r29
 2126 0016 0FBE      		out __SREG__,__tmp_reg__
 2127 0018 CDBF      		out __SP_L__,r28
 2128               	/* prologue: function */
 2129               	/* frame size = 79 */
 2130               	/* stack size = 83 */
 2131               	.L__stack_usage = 83
 2132 001a 082F      		mov r16,r24
 2133 001c 192F      		mov r17,r25
 261:Adafruit_Fingerprint.cpp ****   fingerID = 0xFFFF;
 2134               		.loc 3 261 3 is_stmt 1 view .LVU389
 2135 001e 86E0      		ldi r24,lo8(6)
 2136               	.LVL101:
 261:Adafruit_Fingerprint.cpp ****   fingerID = 0xFFFF;
 2137               		.loc 3 261 3 is_stmt 0 view .LVU390
 2138 0020 E0E0      		ldi r30,lo8(.LC0)
 2139 0022 F0E0      		ldi r31,hi8(.LC0)
 2140 0024 DE01      		movw r26,r28
 2141 0026 1196      		adiw r26,1
 2142               		0:
 2143 0028 0190      		ld r0,Z+
 2144 002a 0D92      		st X+,r0
 2145 002c 8A95      		dec r24
 2146 002e 01F4      		brne 0b
 261:Adafruit_Fingerprint.cpp ****   fingerID = 0xFFFF;
 2147               		.loc 3 261 3 is_stmt 1 view .LVU391
 2148 0030 9E01      		movw r18,r28
 2149 0032 2F5F      		subi r18,-1
 2150 0034 3F4F      		sbci r19,-1
 2151 0036 46E0      		ldi r20,lo8(6)
 2152 0038 50E0      		ldi r21,0
 2153 003a 61E0      		ldi r22,lo8(1)
 2154 003c CE01      		movw r24,r28
 2155 003e 0796      		adiw r24,7
 2156 0040 0E94 0000 		call _ZN27Adafruit_Fingerprint_PacketC1EhjPh
 2157               	.LVL102:
 261:Adafruit_Fingerprint.cpp ****   fingerID = 0xFFFF;
 2158               		.loc 3 261 3 view .LVU392
 2159 0044 BE01      		movw r22,r28
 2160 0046 695F      		subi r22,-7
 2161 0048 7F4F      		sbci r23,-1
 2162 004a C801      		movw r24,r16
 2163 004c 0E94 0000 		call _ZN20Adafruit_Fingerprint21writeStructuredPacketERK27Adafruit_Fingerprint_Packet
 2164               	.LVL103:
 261:Adafruit_Fingerprint.cpp ****   fingerID = 0xFFFF;
 2165               		.loc 3 261 3 view .LVU393
 2166 0050 48EE      		ldi r20,lo8(-24)
 2167 0052 53E0      		ldi r21,lo8(3)
 2168 0054 BE01      		movw r22,r28
 2169 0056 695F      		subi r22,-7
 2170 0058 7F4F      		sbci r23,-1
 2171 005a C801      		movw r24,r16
 2172 005c 0E94 0000 		call _ZN20Adafruit_Fingerprint19getStructuredPacketEP27Adafruit_Fingerprint_Packetj
GAS LISTING C:\Users\kenne\AppData\Local\Temp\ccpPZdpD.s 			page 73


 2173               	.LVL104:
 2174 0060 8111      		cpse r24,__zero_reg__
 2175 0062 00C0      		rjmp .L81
 261:Adafruit_Fingerprint.cpp ****   fingerID = 0xFFFF;
 2176               		.loc 3 261 3 discriminator 2 view .LVU394
 2177 0064 8D85      		ldd r24,Y+13
 2178 0066 8730      		cpi r24,lo8(7)
 2179 0068 01F4      		brne .L82
 261:Adafruit_Fingerprint.cpp ****   fingerID = 0xFFFF;
 2180               		.loc 3 261 74 discriminator 4 view .LVU395
 262:Adafruit_Fingerprint.cpp ****   confidence = 0xFFFF;
 2181               		.loc 3 262 3 discriminator 4 view .LVU396
 262:Adafruit_Fingerprint.cpp ****   confidence = 0xFFFF;
 2182               		.loc 3 262 12 is_stmt 0 discriminator 4 view .LVU397
 2183 006a 8FEF      		ldi r24,lo8(-1)
 2184 006c 9FEF      		ldi r25,lo8(-1)
 2185 006e F801      		movw r30,r16
 2186 0070 9183      		std Z+1,r25
 2187 0072 8083      		st Z,r24
 263:Adafruit_Fingerprint.cpp **** 
 2188               		.loc 3 263 3 is_stmt 1 discriminator 4 view .LVU398
 263:Adafruit_Fingerprint.cpp **** 
 2189               		.loc 3 263 14 is_stmt 0 discriminator 4 view .LVU399
 2190 0074 9383      		std Z+3,r25
 2191 0076 8283      		std Z+2,r24
 265:Adafruit_Fingerprint.cpp ****   fingerID <<= 8;
 2192               		.loc 3 265 3 is_stmt 1 discriminator 4 view .LVU400
 265:Adafruit_Fingerprint.cpp ****   fingerID <<= 8;
 2193               		.loc 3 265 27 is_stmt 0 discriminator 4 view .LVU401
 2194 0078 8989      		ldd r24,Y+17
 2195 007a 90E0      		ldi r25,0
 265:Adafruit_Fingerprint.cpp ****   fingerID <<= 8;
 2196               		.loc 3 265 12 discriminator 4 view .LVU402
 2197 007c 9183      		std Z+1,r25
 2198 007e 8083      		st Z,r24
 266:Adafruit_Fingerprint.cpp ****   fingerID |= packet.data[2];
 2199               		.loc 3 266 3 is_stmt 1 discriminator 4 view .LVU403
 266:Adafruit_Fingerprint.cpp ****   fingerID |= packet.data[2];
 2200               		.loc 3 266 12 is_stmt 0 discriminator 4 view .LVU404
 2201 0080 982F      		mov r25,r24
 2202 0082 8827      		clr r24
 2203 0084 9183      		std Z+1,r25
 2204 0086 8083      		st Z,r24
 267:Adafruit_Fingerprint.cpp **** 
 2205               		.loc 3 267 3 is_stmt 1 discriminator 4 view .LVU405
 267:Adafruit_Fingerprint.cpp **** 
 2206               		.loc 3 267 28 is_stmt 0 discriminator 4 view .LVU406
 2207 0088 2A89      		ldd r18,Y+18
 267:Adafruit_Fingerprint.cpp **** 
 2208               		.loc 3 267 12 discriminator 4 view .LVU407
 2209 008a 822B      		or r24,r18
 2210 008c 9183      		std Z+1,r25
 2211 008e 8083      		st Z,r24
 269:Adafruit_Fingerprint.cpp ****   confidence <<= 8;
 2212               		.loc 3 269 3 is_stmt 1 discriminator 4 view .LVU408
 269:Adafruit_Fingerprint.cpp ****   confidence <<= 8;
 2213               		.loc 3 269 29 is_stmt 0 discriminator 4 view .LVU409
GAS LISTING C:\Users\kenne\AppData\Local\Temp\ccpPZdpD.s 			page 74


 2214 0090 8B89      		ldd r24,Y+19
 2215 0092 90E0      		ldi r25,0
 269:Adafruit_Fingerprint.cpp ****   confidence <<= 8;
 2216               		.loc 3 269 14 discriminator 4 view .LVU410
 2217 0094 9383      		std Z+3,r25
 2218 0096 8283      		std Z+2,r24
 270:Adafruit_Fingerprint.cpp ****   confidence |= packet.data[4];
 2219               		.loc 3 270 3 is_stmt 1 discriminator 4 view .LVU411
 270:Adafruit_Fingerprint.cpp ****   confidence |= packet.data[4];
 2220               		.loc 3 270 14 is_stmt 0 discriminator 4 view .LVU412
 2221 0098 982F      		mov r25,r24
 2222 009a 8827      		clr r24
 2223 009c 9383      		std Z+3,r25
 2224 009e 8283      		std Z+2,r24
 271:Adafruit_Fingerprint.cpp **** 
 2225               		.loc 3 271 3 is_stmt 1 discriminator 4 view .LVU413
 271:Adafruit_Fingerprint.cpp **** 
 2226               		.loc 3 271 30 is_stmt 0 discriminator 4 view .LVU414
 2227 00a0 2C89      		ldd r18,Y+20
 271:Adafruit_Fingerprint.cpp **** 
 2228               		.loc 3 271 14 discriminator 4 view .LVU415
 2229 00a2 822B      		or r24,r18
 2230 00a4 9383      		std Z+3,r25
 2231 00a6 8283      		std Z+2,r24
 273:Adafruit_Fingerprint.cpp **** }
 2232               		.loc 3 273 3 is_stmt 1 discriminator 4 view .LVU416
 273:Adafruit_Fingerprint.cpp **** }
 2233               		.loc 3 273 23 is_stmt 0 discriminator 4 view .LVU417
 2234 00a8 8889      		ldd r24,Y+16
 2235 00aa 00C0      		rjmp .L79
 2236               	.L81:
 261:Adafruit_Fingerprint.cpp ****   fingerID = 0xFFFF;
 2237               		.loc 3 261 3 view .LVU418
 2238 00ac 81E0      		ldi r24,lo8(1)
 2239               	.L79:
 2240               	/* epilogue start */
 274:Adafruit_Fingerprint.cpp **** 
 2241               		.loc 3 274 1 view .LVU419
 2242 00ae C15B      		subi r28,-79
 2243 00b0 DF4F      		sbci r29,-1
 2244 00b2 0FB6      		in __tmp_reg__,__SREG__
 2245 00b4 F894      		cli
 2246 00b6 DEBF      		out __SP_H__,r29
 2247 00b8 0FBE      		out __SREG__,__tmp_reg__
 2248 00ba CDBF      		out __SP_L__,r28
 2249 00bc DF91      		pop r29
 2250 00be CF91      		pop r28
 2251 00c0 1F91      		pop r17
 2252 00c2 0F91      		pop r16
 2253 00c4 0895      		ret
 2254               	.L82:
 261:Adafruit_Fingerprint.cpp ****   fingerID = 0xFFFF;
 2255               		.loc 3 261 3 view .LVU420
 2256 00c6 81E0      		ldi r24,lo8(1)
 2257 00c8 00C0      		rjmp .L79
 2258               		.cfi_endproc
 2259               	.LFE72:
GAS LISTING C:\Users\kenne\AppData\Local\Temp\ccpPZdpD.s 			page 75


 2261               		.section	.text._ZN20Adafruit_Fingerprint10LEDcontrolEb,"ax",@progbits
 2262               	.global	_ZN20Adafruit_Fingerprint10LEDcontrolEb
 2264               	_ZN20Adafruit_Fingerprint10LEDcontrolEb:
 2265               	.LVL105:
 2266               	.LFB73:
 283:Adafruit_Fingerprint.cpp ****   if (on) {
 2267               		.loc 3 283 51 is_stmt 1 view -0
 2268               		.cfi_startproc
 283:Adafruit_Fingerprint.cpp ****   if (on) {
 2269               		.loc 3 283 51 is_stmt 0 view .LVU422
 2270 0000 0F93      		push r16
 2271               		.cfi_def_cfa_offset 3
 2272               		.cfi_offset 16, -2
 2273 0002 1F93      		push r17
 2274               		.cfi_def_cfa_offset 4
 2275               		.cfi_offset 17, -3
 2276 0004 CF93      		push r28
 2277               		.cfi_def_cfa_offset 5
 2278               		.cfi_offset 28, -4
 2279 0006 DF93      		push r29
 2280               		.cfi_def_cfa_offset 6
 2281               		.cfi_offset 29, -5
 2282 0008 CDB7      		in r28,__SP_L__
 2283 000a DEB7      		in r29,__SP_H__
 2284               		.cfi_def_cfa_register 28
 2285 000c CA54      		subi r28,74
 2286 000e D109      		sbc r29,__zero_reg__
 2287               		.cfi_def_cfa_offset 80
 2288 0010 0FB6      		in __tmp_reg__,__SREG__
 2289 0012 F894      		cli
 2290 0014 DEBF      		out __SP_H__,r29
 2291 0016 0FBE      		out __SREG__,__tmp_reg__
 2292 0018 CDBF      		out __SP_L__,r28
 2293               	/* prologue: function */
 2294               	/* frame size = 74 */
 2295               	/* stack size = 78 */
 2296               	.L__stack_usage = 78
 2297 001a 082F      		mov r16,r24
 2298 001c 192F      		mov r17,r25
 284:Adafruit_Fingerprint.cpp ****     SEND_CMD_PACKET(FINGERPRINT_LEDON);
 2299               		.loc 3 284 3 is_stmt 1 view .LVU423
 2300               	.LBB9:
 2301 001e 6623      		tst r22
 2302 0020 01F0      		breq .L84
 2303               	.LBB10:
 285:Adafruit_Fingerprint.cpp ****   } else {
 2304               		.loc 3 285 5 view .LVU424
 2305 0022 80E5      		ldi r24,lo8(80)
 2306               	.LVL106:
 285:Adafruit_Fingerprint.cpp ****   } else {
 2307               		.loc 3 285 5 is_stmt 0 view .LVU425
 2308 0024 2B96      		adiw r28,74-63
 2309 0026 8FAF      		std Y+63,r24
 2310 0028 2B97      		sbiw r28,74-63
 285:Adafruit_Fingerprint.cpp ****   } else {
 2311               		.loc 3 285 5 is_stmt 1 view .LVU426
 2312 002a 9E01      		movw r18,r28
GAS LISTING C:\Users\kenne\AppData\Local\Temp\ccpPZdpD.s 			page 76


 2313 002c 265B      		subi r18,-74
 2314 002e 3F4F      		sbci r19,-1
 2315 0030 41E0      		ldi r20,lo8(1)
 2316 0032 50E0      		ldi r21,0
 2317 0034 61E0      		ldi r22,lo8(1)
 2318               	.LVL107:
 285:Adafruit_Fingerprint.cpp ****   } else {
 2319               		.loc 3 285 5 is_stmt 0 view .LVU427
 2320 0036 CE01      		movw r24,r28
 2321 0038 0196      		adiw r24,1
 2322 003a 0E94 0000 		call _ZN27Adafruit_Fingerprint_PacketC1EhjPh
 2323               	.LVL108:
 285:Adafruit_Fingerprint.cpp ****   } else {
 2324               		.loc 3 285 5 is_stmt 1 view .LVU428
 2325 003e BE01      		movw r22,r28
 2326 0040 6F5F      		subi r22,-1
 2327 0042 7F4F      		sbci r23,-1
 2328 0044 802F      		mov r24,r16
 2329 0046 912F      		mov r25,r17
 2330 0048 0E94 0000 		call _ZN20Adafruit_Fingerprint21writeStructuredPacketERK27Adafruit_Fingerprint_Packet
 2331               	.LVL109:
 285:Adafruit_Fingerprint.cpp ****   } else {
 2332               		.loc 3 285 5 view .LVU429
 2333 004c 48EE      		ldi r20,lo8(-24)
 2334 004e 53E0      		ldi r21,lo8(3)
 2335 0050 BE01      		movw r22,r28
 2336 0052 6F5F      		subi r22,-1
 2337 0054 7F4F      		sbci r23,-1
 2338 0056 802F      		mov r24,r16
 2339 0058 912F      		mov r25,r17
 2340 005a 0E94 0000 		call _ZN20Adafruit_Fingerprint19getStructuredPacketEP27Adafruit_Fingerprint_Packetj
 2341               	.LVL110:
 2342 005e 8111      		cpse r24,__zero_reg__
 2343 0060 00C0      		rjmp .L88
 285:Adafruit_Fingerprint.cpp ****   } else {
 2344               		.loc 3 285 5 discriminator 2 view .LVU430
 2345 0062 8F81      		ldd r24,Y+7
 2346 0064 8730      		cpi r24,lo8(7)
 2347 0066 01F0      		breq .L92
 285:Adafruit_Fingerprint.cpp ****   } else {
 2348               		.loc 3 285 5 is_stmt 0 view .LVU431
 2349 0068 81E0      		ldi r24,lo8(1)
 285:Adafruit_Fingerprint.cpp ****   } else {
 2350               		.loc 3 285 39 is_stmt 1 view .LVU432
 2351               	.L83:
 2352               	/* epilogue start */
 2353               	.LBE10:
 2354               	.LBE9:
 289:Adafruit_Fingerprint.cpp **** 
 2355               		.loc 3 289 1 is_stmt 0 view .LVU433
 2356 006a C65B      		subi r28,-74
 2357 006c DF4F      		sbci r29,-1
 2358 006e 0FB6      		in __tmp_reg__,__SREG__
 2359 0070 F894      		cli
 2360 0072 DEBF      		out __SP_H__,r29
 2361 0074 0FBE      		out __SREG__,__tmp_reg__
 2362 0076 CDBF      		out __SP_L__,r28
GAS LISTING C:\Users\kenne\AppData\Local\Temp\ccpPZdpD.s 			page 77


 2363 0078 DF91      		pop r29
 2364 007a CF91      		pop r28
 2365 007c 1F91      		pop r17
 2366 007e 0F91      		pop r16
 2367 0080 0895      		ret
 2368               	.L92:
 2369               	.LBB13:
 2370               	.LBB11:
 285:Adafruit_Fingerprint.cpp ****   } else {
 2371               		.loc 3 285 5 is_stmt 1 discriminator 5 view .LVU434
 285:Adafruit_Fingerprint.cpp ****   } else {
 2372               		.loc 3 285 5 discriminator 5 view .LVU435
 2373 0082 8A85      		ldd r24,Y+10
 2374 0084 00C0      		rjmp .L83
 2375               	.L88:
 285:Adafruit_Fingerprint.cpp ****   } else {
 2376               		.loc 3 285 5 is_stmt 0 view .LVU436
 2377 0086 81E0      		ldi r24,lo8(1)
 2378 0088 00C0      		rjmp .L83
 2379               	.LVL111:
 2380               	.L84:
 285:Adafruit_Fingerprint.cpp ****   } else {
 2381               		.loc 3 285 5 view .LVU437
 2382               	.LBE11:
 2383               	.LBB12:
 287:Adafruit_Fingerprint.cpp ****   }
 2384               		.loc 3 287 5 is_stmt 1 view .LVU438
 2385 008a 81E5      		ldi r24,lo8(81)
 2386               	.LVL112:
 287:Adafruit_Fingerprint.cpp ****   }
 2387               		.loc 3 287 5 is_stmt 0 view .LVU439
 2388 008c 2B96      		adiw r28,74-63
 2389 008e 8FAF      		std Y+63,r24
 2390 0090 2B97      		sbiw r28,74-63
 287:Adafruit_Fingerprint.cpp ****   }
 2391               		.loc 3 287 5 is_stmt 1 view .LVU440
 2392 0092 9E01      		movw r18,r28
 2393 0094 265B      		subi r18,-74
 2394 0096 3F4F      		sbci r19,-1
 2395 0098 41E0      		ldi r20,lo8(1)
 2396 009a 50E0      		ldi r21,0
 2397 009c 61E0      		ldi r22,lo8(1)
 2398               	.LVL113:
 287:Adafruit_Fingerprint.cpp ****   }
 2399               		.loc 3 287 5 is_stmt 0 view .LVU441
 2400 009e CE01      		movw r24,r28
 2401 00a0 0196      		adiw r24,1
 2402 00a2 0E94 0000 		call _ZN27Adafruit_Fingerprint_PacketC1EhjPh
 2403               	.LVL114:
 287:Adafruit_Fingerprint.cpp ****   }
 2404               		.loc 3 287 5 is_stmt 1 view .LVU442
 2405 00a6 BE01      		movw r22,r28
 2406 00a8 6F5F      		subi r22,-1
 2407 00aa 7F4F      		sbci r23,-1
 2408 00ac 802F      		mov r24,r16
 2409 00ae 912F      		mov r25,r17
 2410 00b0 0E94 0000 		call _ZN20Adafruit_Fingerprint21writeStructuredPacketERK27Adafruit_Fingerprint_Packet
GAS LISTING C:\Users\kenne\AppData\Local\Temp\ccpPZdpD.s 			page 78


 2411               	.LVL115:
 287:Adafruit_Fingerprint.cpp ****   }
 2412               		.loc 3 287 5 view .LVU443
 2413 00b4 48EE      		ldi r20,lo8(-24)
 2414 00b6 53E0      		ldi r21,lo8(3)
 2415 00b8 BE01      		movw r22,r28
 2416 00ba 6F5F      		subi r22,-1
 2417 00bc 7F4F      		sbci r23,-1
 2418 00be 802F      		mov r24,r16
 2419 00c0 912F      		mov r25,r17
 2420 00c2 0E94 0000 		call _ZN20Adafruit_Fingerprint19getStructuredPacketEP27Adafruit_Fingerprint_Packetj
 2421               	.LVL116:
 2422 00c6 8111      		cpse r24,__zero_reg__
 2423 00c8 00C0      		rjmp .L90
 287:Adafruit_Fingerprint.cpp ****   }
 2424               		.loc 3 287 5 discriminator 2 view .LVU444
 2425 00ca 8F81      		ldd r24,Y+7
 2426 00cc 8730      		cpi r24,lo8(7)
 2427 00ce 01F0      		breq .L93
 287:Adafruit_Fingerprint.cpp ****   }
 2428               		.loc 3 287 5 is_stmt 0 view .LVU445
 2429 00d0 81E0      		ldi r24,lo8(1)
 287:Adafruit_Fingerprint.cpp ****   }
 2430               		.loc 3 287 40 is_stmt 1 view .LVU446
 2431 00d2 00C0      		rjmp .L83
 2432               	.L93:
 287:Adafruit_Fingerprint.cpp ****   }
 2433               		.loc 3 287 5 discriminator 5 view .LVU447
 287:Adafruit_Fingerprint.cpp ****   }
 2434               		.loc 3 287 5 discriminator 5 view .LVU448
 2435 00d4 8A85      		ldd r24,Y+10
 2436 00d6 00C0      		rjmp .L83
 2437               	.L90:
 287:Adafruit_Fingerprint.cpp ****   }
 2438               		.loc 3 287 5 is_stmt 0 view .LVU449
 2439 00d8 81E0      		ldi r24,lo8(1)
 2440 00da 00C0      		rjmp .L83
 2441               	.LBE12:
 2442               	.LBE13:
 2443               		.cfi_endproc
 2444               	.LFE73:
 2446               		.section	.text._ZN20Adafruit_Fingerprint10LEDcontrolEhhhh,"ax",@progbits
 2447               	.global	_ZN20Adafruit_Fingerprint10LEDcontrolEhhhh
 2449               	_ZN20Adafruit_Fingerprint10LEDcontrolEhhhh:
 2450               	.LVL117:
 2451               	.LFB74:
 305:Adafruit_Fingerprint.cpp ****   SEND_CMD_PACKET(FINGERPRINT_AURALEDCONFIG, control, speed, coloridx, count);
 2452               		.loc 3 305 75 is_stmt 1 view -0
 2453               		.cfi_startproc
 305:Adafruit_Fingerprint.cpp ****   SEND_CMD_PACKET(FINGERPRINT_AURALEDCONFIG, control, speed, coloridx, count);
 2454               		.loc 3 305 75 is_stmt 0 view .LVU451
 2455 0000 FF92      		push r15
 2456               		.cfi_def_cfa_offset 3
 2457               		.cfi_offset 15, -2
 2458 0002 0F93      		push r16
 2459               		.cfi_def_cfa_offset 4
 2460               		.cfi_offset 16, -3
GAS LISTING C:\Users\kenne\AppData\Local\Temp\ccpPZdpD.s 			page 79


 2461 0004 1F93      		push r17
 2462               		.cfi_def_cfa_offset 5
 2463               		.cfi_offset 17, -4
 2464 0006 CF93      		push r28
 2465               		.cfi_def_cfa_offset 6
 2466               		.cfi_offset 28, -5
 2467 0008 DF93      		push r29
 2468               		.cfi_def_cfa_offset 7
 2469               		.cfi_offset 29, -6
 2470 000a CDB7      		in r28,__SP_L__
 2471 000c DEB7      		in r29,__SP_H__
 2472               		.cfi_def_cfa_register 28
 2473 000e CE54      		subi r28,78
 2474 0010 D109      		sbc r29,__zero_reg__
 2475               		.cfi_def_cfa_offset 85
 2476 0012 0FB6      		in __tmp_reg__,__SREG__
 2477 0014 F894      		cli
 2478 0016 DEBF      		out __SP_H__,r29
 2479 0018 0FBE      		out __SREG__,__tmp_reg__
 2480 001a CDBF      		out __SP_L__,r28
 2481               	/* prologue: function */
 2482               	/* frame size = 78 */
 2483               	/* stack size = 83 */
 2484               	.L__stack_usage = 83
 2485 001c F82E      		mov r15,r24
 2486 001e 192F      		mov r17,r25
 306:Adafruit_Fingerprint.cpp **** }
 2487               		.loc 3 306 3 is_stmt 1 view .LVU452
 2488 0020 FE01      		movw r30,r28
 2489 0022 3196      		adiw r30,1
 2490 0024 85E0      		ldi r24,lo8(5)
 2491               	.LVL118:
 306:Adafruit_Fingerprint.cpp **** }
 2492               		.loc 3 306 3 is_stmt 0 view .LVU453
 2493 0026 DF01      		movw r26,r30
 2494               		0:
 2495 0028 1D92      		st X+,__zero_reg__
 2496 002a 8A95      		dec r24
 2497 002c 01F4      		brne 0b
 2498 002e 85E3      		ldi r24,lo8(53)
 2499 0030 8983      		std Y+1,r24
 2500 0032 6A83      		std Y+2,r22
 2501 0034 4B83      		std Y+3,r20
 2502 0036 2C83      		std Y+4,r18
 2503 0038 0D83      		std Y+5,r16
 306:Adafruit_Fingerprint.cpp **** }
 2504               		.loc 3 306 3 is_stmt 1 view .LVU454
 2505 003a 9F01      		movw r18,r30
 2506               	.LVL119:
 306:Adafruit_Fingerprint.cpp **** }
 2507               		.loc 3 306 3 is_stmt 0 view .LVU455
 2508 003c 45E0      		ldi r20,lo8(5)
 2509 003e 50E0      		ldi r21,0
 2510               	.LVL120:
 306:Adafruit_Fingerprint.cpp **** }
 2511               		.loc 3 306 3 view .LVU456
 2512 0040 61E0      		ldi r22,lo8(1)
GAS LISTING C:\Users\kenne\AppData\Local\Temp\ccpPZdpD.s 			page 80


 2513               	.LVL121:
 306:Adafruit_Fingerprint.cpp **** }
 2514               		.loc 3 306 3 view .LVU457
 2515 0042 CE01      		movw r24,r28
 2516 0044 0696      		adiw r24,6
 2517 0046 0E94 0000 		call _ZN27Adafruit_Fingerprint_PacketC1EhjPh
 2518               	.LVL122:
 306:Adafruit_Fingerprint.cpp **** }
 2519               		.loc 3 306 3 is_stmt 1 view .LVU458
 2520 004a BE01      		movw r22,r28
 2521 004c 6A5F      		subi r22,-6
 2522 004e 7F4F      		sbci r23,-1
 2523 0050 8F2D      		mov r24,r15
 2524 0052 912F      		mov r25,r17
 2525 0054 0E94 0000 		call _ZN20Adafruit_Fingerprint21writeStructuredPacketERK27Adafruit_Fingerprint_Packet
 2526               	.LVL123:
 306:Adafruit_Fingerprint.cpp **** }
 2527               		.loc 3 306 3 view .LVU459
 2528 0058 48EE      		ldi r20,lo8(-24)
 2529 005a 53E0      		ldi r21,lo8(3)
 2530 005c BE01      		movw r22,r28
 2531 005e 6A5F      		subi r22,-6
 2532 0060 7F4F      		sbci r23,-1
 2533 0062 8F2D      		mov r24,r15
 2534 0064 912F      		mov r25,r17
 2535 0066 0E94 0000 		call _ZN20Adafruit_Fingerprint19getStructuredPacketEP27Adafruit_Fingerprint_Packetj
 2536               	.LVL124:
 2537 006a 8111      		cpse r24,__zero_reg__
 2538 006c 00C0      		rjmp .L96
 306:Adafruit_Fingerprint.cpp **** }
 2539               		.loc 3 306 3 discriminator 2 view .LVU460
 2540 006e 8C85      		ldd r24,Y+12
 2541 0070 8730      		cpi r24,lo8(7)
 2542 0072 01F4      		brne .L97
 306:Adafruit_Fingerprint.cpp **** }
 2543               		.loc 3 306 3 discriminator 5 view .LVU461
 306:Adafruit_Fingerprint.cpp **** }
 2544               		.loc 3 306 3 discriminator 5 view .LVU462
 2545 0074 8F85      		ldd r24,Y+15
 2546 0076 00C0      		rjmp .L94
 2547               	.L96:
 306:Adafruit_Fingerprint.cpp **** }
 2548               		.loc 3 306 3 is_stmt 0 view .LVU463
 2549 0078 81E0      		ldi r24,lo8(1)
 2550               	.L94:
 2551               	/* epilogue start */
 307:Adafruit_Fingerprint.cpp **** 
 2552               		.loc 3 307 1 view .LVU464
 2553 007a C25B      		subi r28,-78
 2554 007c DF4F      		sbci r29,-1
 2555 007e 0FB6      		in __tmp_reg__,__SREG__
 2556 0080 F894      		cli
 2557 0082 DEBF      		out __SP_H__,r29
 2558 0084 0FBE      		out __SREG__,__tmp_reg__
 2559 0086 CDBF      		out __SP_L__,r28
 2560 0088 DF91      		pop r29
 2561 008a CF91      		pop r28
GAS LISTING C:\Users\kenne\AppData\Local\Temp\ccpPZdpD.s 			page 81


 2562 008c 1F91      		pop r17
 2563 008e 0F91      		pop r16
 2564               	.LVL125:
 307:Adafruit_Fingerprint.cpp **** 
 2565               		.loc 3 307 1 view .LVU465
 2566 0090 FF90      		pop r15
 2567 0092 0895      		ret
 2568               	.LVL126:
 2569               	.L97:
 306:Adafruit_Fingerprint.cpp **** }
 2570               		.loc 3 306 3 view .LVU466
 2571 0094 81E0      		ldi r24,lo8(1)
 306:Adafruit_Fingerprint.cpp **** }
 2572               		.loc 3 306 78 is_stmt 1 view .LVU467
 2573 0096 00C0      		rjmp .L94
 2574               		.cfi_endproc
 2575               	.LFE74:
 2577               		.section	.text._ZN20Adafruit_Fingerprint12fingerSearchEh,"ax",@progbits
 2578               	.global	_ZN20Adafruit_Fingerprint12fingerSearchEh
 2580               	_ZN20Adafruit_Fingerprint12fingerSearchEh:
 2581               	.LVL127:
 2582               	.LFB75:
 320:Adafruit_Fingerprint.cpp ****   // search of slot starting thru the capacity
 2583               		.loc 3 320 58 view -0
 2584               		.cfi_startproc
 320:Adafruit_Fingerprint.cpp ****   // search of slot starting thru the capacity
 2585               		.loc 3 320 58 is_stmt 0 view .LVU469
 2586 0000 0F93      		push r16
 2587               		.cfi_def_cfa_offset 3
 2588               		.cfi_offset 16, -2
 2589 0002 1F93      		push r17
 2590               		.cfi_def_cfa_offset 4
 2591               		.cfi_offset 17, -3
 2592 0004 CF93      		push r28
 2593               		.cfi_def_cfa_offset 5
 2594               		.cfi_offset 28, -4
 2595 0006 DF93      		push r29
 2596               		.cfi_def_cfa_offset 6
 2597               		.cfi_offset 29, -5
 2598 0008 CDB7      		in r28,__SP_L__
 2599 000a DEB7      		in r29,__SP_H__
 2600               		.cfi_def_cfa_register 28
 2601 000c CF54      		subi r28,79
 2602 000e D109      		sbc r29,__zero_reg__
 2603               		.cfi_def_cfa_offset 85
 2604 0010 0FB6      		in __tmp_reg__,__SREG__
 2605 0012 F894      		cli
 2606 0014 DEBF      		out __SP_H__,r29
 2607 0016 0FBE      		out __SREG__,__tmp_reg__
 2608 0018 CDBF      		out __SP_L__,r28
 2609               	/* prologue: function */
 2610               	/* frame size = 79 */
 2611               	/* stack size = 83 */
 2612               	.L__stack_usage = 83
 2613 001a 082F      		mov r16,r24
 2614 001c 192F      		mov r17,r25
 322:Adafruit_Fingerprint.cpp ****                  (uint8_t)(capacity & 0xFF));
GAS LISTING C:\Users\kenne\AppData\Local\Temp\ccpPZdpD.s 			page 82


 2615               		.loc 3 322 3 is_stmt 1 view .LVU470
 2616 001e 9E01      		movw r18,r28
 2617 0020 2F5F      		subi r18,-1
 2618 0022 3F4F      		sbci r19,-1
 2619 0024 86E0      		ldi r24,lo8(6)
 2620               	.LVL128:
 322:Adafruit_Fingerprint.cpp ****                  (uint8_t)(capacity & 0xFF));
 2621               		.loc 3 322 3 is_stmt 0 view .LVU471
 2622 0026 F901      		movw r30,r18
 2623               		0:
 2624 0028 1192      		st Z+,__zero_reg__
 2625 002a 8A95      		dec r24
 2626 002c 01F4      		brne 0b
 2627 002e 84E0      		ldi r24,lo8(4)
 2628 0030 8983      		std Y+1,r24
 2629 0032 6A83      		std Y+2,r22
 2630 0034 F801      		movw r30,r16
 2631 0036 8285      		ldd r24,Z+10
 2632 0038 9385      		ldd r25,Z+11
 2633 003a 9D83      		std Y+5,r25
 2634 003c 8E83      		std Y+6,r24
 322:Adafruit_Fingerprint.cpp ****                  (uint8_t)(capacity & 0xFF));
 2635               		.loc 3 322 3 is_stmt 1 view .LVU472
 2636 003e 46E0      		ldi r20,lo8(6)
 2637 0040 50E0      		ldi r21,0
 2638 0042 61E0      		ldi r22,lo8(1)
 2639               	.LVL129:
 322:Adafruit_Fingerprint.cpp ****                  (uint8_t)(capacity & 0xFF));
 2640               		.loc 3 322 3 is_stmt 0 view .LVU473
 2641 0044 CE01      		movw r24,r28
 2642 0046 0796      		adiw r24,7
 2643 0048 0E94 0000 		call _ZN27Adafruit_Fingerprint_PacketC1EhjPh
 2644               	.LVL130:
 322:Adafruit_Fingerprint.cpp ****                  (uint8_t)(capacity & 0xFF));
 2645               		.loc 3 322 3 is_stmt 1 view .LVU474
 2646 004c BE01      		movw r22,r28
 2647 004e 695F      		subi r22,-7
 2648 0050 7F4F      		sbci r23,-1
 2649 0052 C801      		movw r24,r16
 2650 0054 0E94 0000 		call _ZN20Adafruit_Fingerprint21writeStructuredPacketERK27Adafruit_Fingerprint_Packet
 2651               	.LVL131:
 322:Adafruit_Fingerprint.cpp ****                  (uint8_t)(capacity & 0xFF));
 2652               		.loc 3 322 3 view .LVU475
 2653 0058 48EE      		ldi r20,lo8(-24)
 2654 005a 53E0      		ldi r21,lo8(3)
 2655 005c BE01      		movw r22,r28
 2656 005e 695F      		subi r22,-7
 2657 0060 7F4F      		sbci r23,-1
 2658 0062 C801      		movw r24,r16
 2659 0064 0E94 0000 		call _ZN20Adafruit_Fingerprint19getStructuredPacketEP27Adafruit_Fingerprint_Packetj
 2660               	.LVL132:
 2661 0068 8111      		cpse r24,__zero_reg__
 2662 006a 00C0      		rjmp .L100
 322:Adafruit_Fingerprint.cpp ****                  (uint8_t)(capacity & 0xFF));
 2663               		.loc 3 322 3 discriminator 2 view .LVU476
 2664 006c 8D85      		ldd r24,Y+13
 2665 006e 8730      		cpi r24,lo8(7)
GAS LISTING C:\Users\kenne\AppData\Local\Temp\ccpPZdpD.s 			page 83


 2666 0070 01F4      		brne .L101
 323:Adafruit_Fingerprint.cpp **** 
 2667               		.loc 3 323 45 view .LVU477
 325:Adafruit_Fingerprint.cpp ****   confidence = 0xFFFF;
 2668               		.loc 3 325 3 view .LVU478
 325:Adafruit_Fingerprint.cpp ****   confidence = 0xFFFF;
 2669               		.loc 3 325 12 is_stmt 0 view .LVU479
 2670 0072 8FEF      		ldi r24,lo8(-1)
 2671 0074 9FEF      		ldi r25,lo8(-1)
 2672 0076 F801      		movw r30,r16
 2673 0078 9183      		std Z+1,r25
 2674 007a 8083      		st Z,r24
 326:Adafruit_Fingerprint.cpp **** 
 2675               		.loc 3 326 3 is_stmt 1 view .LVU480
 326:Adafruit_Fingerprint.cpp **** 
 2676               		.loc 3 326 14 is_stmt 0 view .LVU481
 2677 007c 9383      		std Z+3,r25
 2678 007e 8283      		std Z+2,r24
 328:Adafruit_Fingerprint.cpp ****   fingerID <<= 8;
 2679               		.loc 3 328 3 is_stmt 1 view .LVU482
 328:Adafruit_Fingerprint.cpp ****   fingerID <<= 8;
 2680               		.loc 3 328 27 is_stmt 0 view .LVU483
 2681 0080 8989      		ldd r24,Y+17
 2682 0082 90E0      		ldi r25,0
 328:Adafruit_Fingerprint.cpp ****   fingerID <<= 8;
 2683               		.loc 3 328 12 view .LVU484
 2684 0084 9183      		std Z+1,r25
 2685 0086 8083      		st Z,r24
 329:Adafruit_Fingerprint.cpp ****   fingerID |= packet.data[2];
 2686               		.loc 3 329 3 is_stmt 1 view .LVU485
 329:Adafruit_Fingerprint.cpp ****   fingerID |= packet.data[2];
 2687               		.loc 3 329 12 is_stmt 0 view .LVU486
 2688 0088 982F      		mov r25,r24
 2689 008a 8827      		clr r24
 2690 008c 9183      		std Z+1,r25
 2691 008e 8083      		st Z,r24
 330:Adafruit_Fingerprint.cpp **** 
 2692               		.loc 3 330 3 is_stmt 1 view .LVU487
 330:Adafruit_Fingerprint.cpp **** 
 2693               		.loc 3 330 28 is_stmt 0 view .LVU488
 2694 0090 2A89      		ldd r18,Y+18
 330:Adafruit_Fingerprint.cpp **** 
 2695               		.loc 3 330 12 view .LVU489
 2696 0092 822B      		or r24,r18
 2697 0094 9183      		std Z+1,r25
 2698 0096 8083      		st Z,r24
 332:Adafruit_Fingerprint.cpp ****   confidence <<= 8;
 2699               		.loc 3 332 3 is_stmt 1 view .LVU490
 332:Adafruit_Fingerprint.cpp ****   confidence <<= 8;
 2700               		.loc 3 332 29 is_stmt 0 view .LVU491
 2701 0098 8B89      		ldd r24,Y+19
 2702 009a 90E0      		ldi r25,0
 332:Adafruit_Fingerprint.cpp ****   confidence <<= 8;
 2703               		.loc 3 332 14 view .LVU492
 2704 009c 9383      		std Z+3,r25
 2705 009e 8283      		std Z+2,r24
 333:Adafruit_Fingerprint.cpp ****   confidence |= packet.data[4];
GAS LISTING C:\Users\kenne\AppData\Local\Temp\ccpPZdpD.s 			page 84


 2706               		.loc 3 333 3 is_stmt 1 view .LVU493
 333:Adafruit_Fingerprint.cpp ****   confidence |= packet.data[4];
 2707               		.loc 3 333 14 is_stmt 0 view .LVU494
 2708 00a0 982F      		mov r25,r24
 2709 00a2 8827      		clr r24
 2710 00a4 9383      		std Z+3,r25
 2711 00a6 8283      		std Z+2,r24
 334:Adafruit_Fingerprint.cpp **** 
 2712               		.loc 3 334 3 is_stmt 1 view .LVU495
 334:Adafruit_Fingerprint.cpp **** 
 2713               		.loc 3 334 30 is_stmt 0 view .LVU496
 2714 00a8 2C89      		ldd r18,Y+20
 334:Adafruit_Fingerprint.cpp **** 
 2715               		.loc 3 334 14 view .LVU497
 2716 00aa 822B      		or r24,r18
 2717 00ac 9383      		std Z+3,r25
 2718 00ae 8283      		std Z+2,r24
 336:Adafruit_Fingerprint.cpp **** }
 2719               		.loc 3 336 3 is_stmt 1 view .LVU498
 336:Adafruit_Fingerprint.cpp **** }
 2720               		.loc 3 336 23 is_stmt 0 view .LVU499
 2721 00b0 8889      		ldd r24,Y+16
 2722 00b2 00C0      		rjmp .L98
 2723               	.L100:
 322:Adafruit_Fingerprint.cpp ****                  (uint8_t)(capacity & 0xFF));
 2724               		.loc 3 322 3 view .LVU500
 2725 00b4 81E0      		ldi r24,lo8(1)
 2726               	.L98:
 2727               	/* epilogue start */
 337:Adafruit_Fingerprint.cpp **** 
 2728               		.loc 3 337 1 view .LVU501
 2729 00b6 C15B      		subi r28,-79
 2730 00b8 DF4F      		sbci r29,-1
 2731 00ba 0FB6      		in __tmp_reg__,__SREG__
 2732 00bc F894      		cli
 2733 00be DEBF      		out __SP_H__,r29
 2734 00c0 0FBE      		out __SREG__,__tmp_reg__
 2735 00c2 CDBF      		out __SP_L__,r28
 2736 00c4 DF91      		pop r29
 2737 00c6 CF91      		pop r28
 2738 00c8 1F91      		pop r17
 2739 00ca 0F91      		pop r16
 2740 00cc 0895      		ret
 2741               	.L101:
 322:Adafruit_Fingerprint.cpp ****                  (uint8_t)(capacity & 0xFF));
 2742               		.loc 3 322 3 view .LVU502
 2743 00ce 81E0      		ldi r24,lo8(1)
 2744 00d0 00C0      		rjmp .L98
 2745               		.cfi_endproc
 2746               	.LFE75:
 2748               		.section	.text._ZN20Adafruit_Fingerprint16getTemplateCountEv,"ax",@progbits
 2749               	.global	_ZN20Adafruit_Fingerprint16getTemplateCountEv
 2751               	_ZN20Adafruit_Fingerprint16getTemplateCountEv:
 2752               	.LVL133:
 2753               	.LFB76:
 347:Adafruit_Fingerprint.cpp ****   GET_CMD_PACKET(FINGERPRINT_TEMPLATECOUNT);
 2754               		.loc 3 347 54 is_stmt 1 view -0
GAS LISTING C:\Users\kenne\AppData\Local\Temp\ccpPZdpD.s 			page 85


 2755               		.cfi_startproc
 347:Adafruit_Fingerprint.cpp ****   GET_CMD_PACKET(FINGERPRINT_TEMPLATECOUNT);
 2756               		.loc 3 347 54 is_stmt 0 view .LVU504
 2757 0000 0F93      		push r16
 2758               		.cfi_def_cfa_offset 3
 2759               		.cfi_offset 16, -2
 2760 0002 1F93      		push r17
 2761               		.cfi_def_cfa_offset 4
 2762               		.cfi_offset 17, -3
 2763 0004 CF93      		push r28
 2764               		.cfi_def_cfa_offset 5
 2765               		.cfi_offset 28, -4
 2766 0006 DF93      		push r29
 2767               		.cfi_def_cfa_offset 6
 2768               		.cfi_offset 29, -5
 2769 0008 CDB7      		in r28,__SP_L__
 2770 000a DEB7      		in r29,__SP_H__
 2771               		.cfi_def_cfa_register 28
 2772 000c CA54      		subi r28,74
 2773 000e D109      		sbc r29,__zero_reg__
 2774               		.cfi_def_cfa_offset 80
 2775 0010 0FB6      		in __tmp_reg__,__SREG__
 2776 0012 F894      		cli
 2777 0014 DEBF      		out __SP_H__,r29
 2778 0016 0FBE      		out __SREG__,__tmp_reg__
 2779 0018 CDBF      		out __SP_L__,r28
 2780               	/* prologue: function */
 2781               	/* frame size = 74 */
 2782               	/* stack size = 78 */
 2783               	.L__stack_usage = 78
 2784 001a 082F      		mov r16,r24
 2785 001c 192F      		mov r17,r25
 348:Adafruit_Fingerprint.cpp **** 
 2786               		.loc 3 348 3 is_stmt 1 view .LVU505
 2787 001e 8DE1      		ldi r24,lo8(29)
 2788               	.LVL134:
 348:Adafruit_Fingerprint.cpp **** 
 2789               		.loc 3 348 3 is_stmt 0 view .LVU506
 2790 0020 8983      		std Y+1,r24
 348:Adafruit_Fingerprint.cpp **** 
 2791               		.loc 3 348 3 is_stmt 1 view .LVU507
 2792 0022 9E01      		movw r18,r28
 2793 0024 2F5F      		subi r18,-1
 2794 0026 3F4F      		sbci r19,-1
 2795 0028 41E0      		ldi r20,lo8(1)
 2796 002a 50E0      		ldi r21,0
 2797 002c 61E0      		ldi r22,lo8(1)
 2798 002e CE01      		movw r24,r28
 2799 0030 0296      		adiw r24,2
 2800 0032 0E94 0000 		call _ZN27Adafruit_Fingerprint_PacketC1EhjPh
 2801               	.LVL135:
 348:Adafruit_Fingerprint.cpp **** 
 2802               		.loc 3 348 3 view .LVU508
 2803 0036 BE01      		movw r22,r28
 2804 0038 6E5F      		subi r22,-2
 2805 003a 7F4F      		sbci r23,-1
 2806 003c C801      		movw r24,r16
GAS LISTING C:\Users\kenne\AppData\Local\Temp\ccpPZdpD.s 			page 86


 2807 003e 0E94 0000 		call _ZN20Adafruit_Fingerprint21writeStructuredPacketERK27Adafruit_Fingerprint_Packet
 2808               	.LVL136:
 348:Adafruit_Fingerprint.cpp **** 
 2809               		.loc 3 348 3 view .LVU509
 2810 0042 48EE      		ldi r20,lo8(-24)
 2811 0044 53E0      		ldi r21,lo8(3)
 2812 0046 BE01      		movw r22,r28
 2813 0048 6E5F      		subi r22,-2
 2814 004a 7F4F      		sbci r23,-1
 2815 004c C801      		movw r24,r16
 2816 004e 0E94 0000 		call _ZN20Adafruit_Fingerprint19getStructuredPacketEP27Adafruit_Fingerprint_Packetj
 2817               	.LVL137:
 2818 0052 8111      		cpse r24,__zero_reg__
 2819 0054 00C0      		rjmp .L104
 348:Adafruit_Fingerprint.cpp **** 
 2820               		.loc 3 348 3 discriminator 2 view .LVU510
 2821 0056 8885      		ldd r24,Y+8
 2822 0058 8730      		cpi r24,lo8(7)
 2823 005a 01F4      		brne .L105
 348:Adafruit_Fingerprint.cpp **** 
 2824               		.loc 3 348 44 discriminator 4 view .LVU511
 350:Adafruit_Fingerprint.cpp ****   templateCount <<= 8;
 2825               		.loc 3 350 3 discriminator 4 view .LVU512
 350:Adafruit_Fingerprint.cpp ****   templateCount <<= 8;
 2826               		.loc 3 350 32 is_stmt 0 discriminator 4 view .LVU513
 2827 005c 8C85      		ldd r24,Y+12
 2828 005e 90E0      		ldi r25,0
 350:Adafruit_Fingerprint.cpp ****   templateCount <<= 8;
 2829               		.loc 3 350 17 discriminator 4 view .LVU514
 2830 0060 F801      		movw r30,r16
 2831 0062 9583      		std Z+5,r25
 2832 0064 8483      		std Z+4,r24
 351:Adafruit_Fingerprint.cpp ****   templateCount |= packet.data[2];
 2833               		.loc 3 351 3 is_stmt 1 discriminator 4 view .LVU515
 351:Adafruit_Fingerprint.cpp ****   templateCount |= packet.data[2];
 2834               		.loc 3 351 17 is_stmt 0 discriminator 4 view .LVU516
 2835 0066 982F      		mov r25,r24
 2836 0068 8827      		clr r24
 2837 006a 9583      		std Z+5,r25
 2838 006c 8483      		std Z+4,r24
 352:Adafruit_Fingerprint.cpp **** 
 2839               		.loc 3 352 3 is_stmt 1 discriminator 4 view .LVU517
 352:Adafruit_Fingerprint.cpp **** 
 2840               		.loc 3 352 33 is_stmt 0 discriminator 4 view .LVU518
 2841 006e 2D85      		ldd r18,Y+13
 352:Adafruit_Fingerprint.cpp **** 
 2842               		.loc 3 352 17 discriminator 4 view .LVU519
 2843 0070 822B      		or r24,r18
 2844 0072 9583      		std Z+5,r25
 2845 0074 8483      		std Z+4,r24
 354:Adafruit_Fingerprint.cpp **** }
 2846               		.loc 3 354 3 is_stmt 1 discriminator 4 view .LVU520
 354:Adafruit_Fingerprint.cpp **** }
 2847               		.loc 3 354 23 is_stmt 0 discriminator 4 view .LVU521
 2848 0076 8B85      		ldd r24,Y+11
 2849 0078 00C0      		rjmp .L102
 2850               	.L104:
GAS LISTING C:\Users\kenne\AppData\Local\Temp\ccpPZdpD.s 			page 87


 348:Adafruit_Fingerprint.cpp **** 
 2851               		.loc 3 348 3 view .LVU522
 2852 007a 81E0      		ldi r24,lo8(1)
 2853               	.L102:
 2854               	/* epilogue start */
 355:Adafruit_Fingerprint.cpp **** 
 2855               		.loc 3 355 1 view .LVU523
 2856 007c C65B      		subi r28,-74
 2857 007e DF4F      		sbci r29,-1
 2858 0080 0FB6      		in __tmp_reg__,__SREG__
 2859 0082 F894      		cli
 2860 0084 DEBF      		out __SP_H__,r29
 2861 0086 0FBE      		out __SREG__,__tmp_reg__
 2862 0088 CDBF      		out __SP_L__,r28
 2863 008a DF91      		pop r29
 2864 008c CF91      		pop r28
 2865 008e 1F91      		pop r17
 2866 0090 0F91      		pop r16
 2867 0092 0895      		ret
 2868               	.L105:
 348:Adafruit_Fingerprint.cpp **** 
 2869               		.loc 3 348 3 view .LVU524
 2870 0094 81E0      		ldi r24,lo8(1)
 2871 0096 00C0      		rjmp .L102
 2872               		.cfi_endproc
 2873               	.LFE76:
 2875               		.section	.text._ZN20Adafruit_Fingerprint11setPasswordEm,"ax",@progbits
 2876               	.global	_ZN20Adafruit_Fingerprint11setPasswordEm
 2878               	_ZN20Adafruit_Fingerprint11setPasswordEm:
 2879               	.LVL138:
 2880               	.LFB77:
 366:Adafruit_Fingerprint.cpp ****   SEND_CMD_PACKET(FINGERPRINT_SETPASSWORD, (uint8_t)(password >> 24),
 2881               		.loc 3 366 62 is_stmt 1 view -0
 2882               		.cfi_startproc
 366:Adafruit_Fingerprint.cpp ****   SEND_CMD_PACKET(FINGERPRINT_SETPASSWORD, (uint8_t)(password >> 24),
 2883               		.loc 3 366 62 is_stmt 0 view .LVU526
 2884 0000 0F93      		push r16
 2885               		.cfi_def_cfa_offset 3
 2886               		.cfi_offset 16, -2
 2887 0002 1F93      		push r17
 2888               		.cfi_def_cfa_offset 4
 2889               		.cfi_offset 17, -3
 2890 0004 CF93      		push r28
 2891               		.cfi_def_cfa_offset 5
 2892               		.cfi_offset 28, -4
 2893 0006 DF93      		push r29
 2894               		.cfi_def_cfa_offset 6
 2895               		.cfi_offset 29, -5
 2896 0008 CDB7      		in r28,__SP_L__
 2897 000a DEB7      		in r29,__SP_H__
 2898               		.cfi_def_cfa_register 28
 2899 000c CE54      		subi r28,78
 2900 000e D109      		sbc r29,__zero_reg__
 2901               		.cfi_def_cfa_offset 84
 2902 0010 0FB6      		in __tmp_reg__,__SREG__
 2903 0012 F894      		cli
 2904 0014 DEBF      		out __SP_H__,r29
GAS LISTING C:\Users\kenne\AppData\Local\Temp\ccpPZdpD.s 			page 88


 2905 0016 0FBE      		out __SREG__,__tmp_reg__
 2906 0018 CDBF      		out __SP_L__,r28
 2907               	/* prologue: function */
 2908               	/* frame size = 78 */
 2909               	/* stack size = 82 */
 2910               	.L__stack_usage = 82
 2911 001a 082F      		mov r16,r24
 2912 001c 192F      		mov r17,r25
 367:Adafruit_Fingerprint.cpp ****                   (uint8_t)(password >> 16), (uint8_t)(password >> 8),
 2913               		.loc 3 367 3 is_stmt 1 view .LVU527
 2914 001e 9E01      		movw r18,r28
 2915 0020 2F5F      		subi r18,-1
 2916 0022 3F4F      		sbci r19,-1
 2917 0024 85E0      		ldi r24,lo8(5)
 2918               	.LVL139:
 367:Adafruit_Fingerprint.cpp ****                   (uint8_t)(password >> 16), (uint8_t)(password >> 8),
 2919               		.loc 3 367 3 is_stmt 0 view .LVU528
 2920 0026 F901      		movw r30,r18
 2921               		0:
 2922 0028 1192      		st Z+,__zero_reg__
 2923 002a 8A95      		dec r24
 2924 002c 01F4      		brne 0b
 2925 002e 82E1      		ldi r24,lo8(18)
 2926 0030 8983      		std Y+1,r24
 2927 0032 7A83      		std Y+2,r23
 2928 0034 6B83      		std Y+3,r22
 2929 0036 5C83      		std Y+4,r21
 2930 0038 4D83      		std Y+5,r20
 367:Adafruit_Fingerprint.cpp ****                   (uint8_t)(password >> 16), (uint8_t)(password >> 8),
 2931               		.loc 3 367 3 is_stmt 1 view .LVU529
 2932 003a 45E0      		ldi r20,lo8(5)
 2933 003c 50E0      		ldi r21,0
 2934               	.LVL140:
 367:Adafruit_Fingerprint.cpp ****                   (uint8_t)(password >> 16), (uint8_t)(password >> 8),
 2935               		.loc 3 367 3 is_stmt 0 view .LVU530
 2936 003e 61E0      		ldi r22,lo8(1)
 2937 0040 CE01      		movw r24,r28
 2938 0042 0696      		adiw r24,6
 2939 0044 0E94 0000 		call _ZN27Adafruit_Fingerprint_PacketC1EhjPh
 2940               	.LVL141:
 367:Adafruit_Fingerprint.cpp ****                   (uint8_t)(password >> 16), (uint8_t)(password >> 8),
 2941               		.loc 3 367 3 is_stmt 1 view .LVU531
 2942 0048 BE01      		movw r22,r28
 2943 004a 6A5F      		subi r22,-6
 2944 004c 7F4F      		sbci r23,-1
 2945 004e 802F      		mov r24,r16
 2946 0050 912F      		mov r25,r17
 2947 0052 0E94 0000 		call _ZN20Adafruit_Fingerprint21writeStructuredPacketERK27Adafruit_Fingerprint_Packet
 2948               	.LVL142:
 367:Adafruit_Fingerprint.cpp ****                   (uint8_t)(password >> 16), (uint8_t)(password >> 8),
 2949               		.loc 3 367 3 view .LVU532
 2950 0056 48EE      		ldi r20,lo8(-24)
 2951 0058 53E0      		ldi r21,lo8(3)
 2952 005a BE01      		movw r22,r28
 2953 005c 6A5F      		subi r22,-6
 2954 005e 7F4F      		sbci r23,-1
 2955 0060 802F      		mov r24,r16
GAS LISTING C:\Users\kenne\AppData\Local\Temp\ccpPZdpD.s 			page 89


 2956 0062 912F      		mov r25,r17
 2957 0064 0E94 0000 		call _ZN20Adafruit_Fingerprint19getStructuredPacketEP27Adafruit_Fingerprint_Packetj
 2958               	.LVL143:
 2959 0068 8111      		cpse r24,__zero_reg__
 2960 006a 00C0      		rjmp .L108
 367:Adafruit_Fingerprint.cpp ****                   (uint8_t)(password >> 16), (uint8_t)(password >> 8),
 2961               		.loc 3 367 3 discriminator 2 view .LVU533
 2962 006c 8C85      		ldd r24,Y+12
 2963 006e 8730      		cpi r24,lo8(7)
 2964 0070 01F4      		brne .L109
 367:Adafruit_Fingerprint.cpp ****                   (uint8_t)(password >> 16), (uint8_t)(password >> 8),
 2965               		.loc 3 367 3 discriminator 4 view .LVU534
 367:Adafruit_Fingerprint.cpp ****                   (uint8_t)(password >> 16), (uint8_t)(password >> 8),
 2966               		.loc 3 367 3 discriminator 4 view .LVU535
 2967 0072 8F85      		ldd r24,Y+15
 2968 0074 00C0      		rjmp .L106
 2969               	.L108:
 367:Adafruit_Fingerprint.cpp ****                   (uint8_t)(password >> 16), (uint8_t)(password >> 8),
 2970               		.loc 3 367 3 is_stmt 0 view .LVU536
 2971 0076 81E0      		ldi r24,lo8(1)
 2972               	.L106:
 2973               	/* epilogue start */
 370:Adafruit_Fingerprint.cpp **** 
 2974               		.loc 3 370 1 view .LVU537
 2975 0078 C25B      		subi r28,-78
 2976 007a DF4F      		sbci r29,-1
 2977 007c 0FB6      		in __tmp_reg__,__SREG__
 2978 007e F894      		cli
 2979 0080 DEBF      		out __SP_H__,r29
 2980 0082 0FBE      		out __SREG__,__tmp_reg__
 2981 0084 CDBF      		out __SP_L__,r28
 2982 0086 DF91      		pop r29
 2983 0088 CF91      		pop r28
 2984 008a 1F91      		pop r17
 2985 008c 0F91      		pop r16
 2986 008e 0895      		ret
 2987               	.L109:
 367:Adafruit_Fingerprint.cpp ****                   (uint8_t)(password >> 16), (uint8_t)(password >> 8),
 2988               		.loc 3 367 3 view .LVU538
 2989 0090 81E0      		ldi r24,lo8(1)
 369:Adafruit_Fingerprint.cpp **** }
 2990               		.loc 3 369 46 is_stmt 1 view .LVU539
 2991 0092 00C0      		rjmp .L106
 2992               		.cfi_endproc
 2993               	.LFE77:
 2995               		.section	.text._ZN20Adafruit_Fingerprint13writeRegisterEhh,"ax",@progbits
 2996               	.global	_ZN20Adafruit_Fingerprint13writeRegisterEhh
 2998               	_ZN20Adafruit_Fingerprint13writeRegisterEhh:
 2999               	.LVL144:
 3000               	.LFB78:
 382:Adafruit_Fingerprint.cpp **** 
 3001               		.loc 3 382 76 view -0
 3002               		.cfi_startproc
 382:Adafruit_Fingerprint.cpp **** 
 3003               		.loc 3 382 76 is_stmt 0 view .LVU541
 3004 0000 0F93      		push r16
 3005               		.cfi_def_cfa_offset 3
GAS LISTING C:\Users\kenne\AppData\Local\Temp\ccpPZdpD.s 			page 90


 3006               		.cfi_offset 16, -2
 3007 0002 1F93      		push r17
 3008               		.cfi_def_cfa_offset 4
 3009               		.cfi_offset 17, -3
 3010 0004 CF93      		push r28
 3011               		.cfi_def_cfa_offset 5
 3012               		.cfi_offset 28, -4
 3013 0006 DF93      		push r29
 3014               		.cfi_def_cfa_offset 6
 3015               		.cfi_offset 29, -5
 3016 0008 CDB7      		in r28,__SP_L__
 3017 000a DEB7      		in r29,__SP_H__
 3018               		.cfi_def_cfa_register 28
 3019 000c CC54      		subi r28,76
 3020 000e D109      		sbc r29,__zero_reg__
 3021               		.cfi_def_cfa_offset 82
 3022 0010 0FB6      		in __tmp_reg__,__SREG__
 3023 0012 F894      		cli
 3024 0014 DEBF      		out __SP_H__,r29
 3025 0016 0FBE      		out __SREG__,__tmp_reg__
 3026 0018 CDBF      		out __SP_L__,r28
 3027               	/* prologue: function */
 3028               	/* frame size = 76 */
 3029               	/* stack size = 80 */
 3030               	.L__stack_usage = 80
 3031 001a 082F      		mov r16,r24
 3032 001c 192F      		mov r17,r25
 384:Adafruit_Fingerprint.cpp **** }
 3033               		.loc 3 384 3 is_stmt 1 view .LVU542
 3034 001e 1982      		std Y+1,__zero_reg__
 3035 0020 1A82      		std Y+2,__zero_reg__
 3036 0022 1B82      		std Y+3,__zero_reg__
 3037 0024 8EE0      		ldi r24,lo8(14)
 3038               	.LVL145:
 384:Adafruit_Fingerprint.cpp **** }
 3039               		.loc 3 384 3 is_stmt 0 view .LVU543
 3040 0026 8983      		std Y+1,r24
 3041 0028 6A83      		std Y+2,r22
 3042 002a 4B83      		std Y+3,r20
 384:Adafruit_Fingerprint.cpp **** }
 3043               		.loc 3 384 3 is_stmt 1 view .LVU544
 3044 002c 9E01      		movw r18,r28
 3045 002e 2F5F      		subi r18,-1
 3046 0030 3F4F      		sbci r19,-1
 3047 0032 43E0      		ldi r20,lo8(3)
 3048 0034 50E0      		ldi r21,0
 3049               	.LVL146:
 384:Adafruit_Fingerprint.cpp **** }
 3050               		.loc 3 384 3 is_stmt 0 view .LVU545
 3051 0036 61E0      		ldi r22,lo8(1)
 3052               	.LVL147:
 384:Adafruit_Fingerprint.cpp **** }
 3053               		.loc 3 384 3 view .LVU546
 3054 0038 CE01      		movw r24,r28
 3055 003a 0496      		adiw r24,4
 3056 003c 0E94 0000 		call _ZN27Adafruit_Fingerprint_PacketC1EhjPh
 3057               	.LVL148:
GAS LISTING C:\Users\kenne\AppData\Local\Temp\ccpPZdpD.s 			page 91


 384:Adafruit_Fingerprint.cpp **** }
 3058               		.loc 3 384 3 is_stmt 1 view .LVU547
 3059 0040 BE01      		movw r22,r28
 3060 0042 6C5F      		subi r22,-4
 3061 0044 7F4F      		sbci r23,-1
 3062 0046 802F      		mov r24,r16
 3063 0048 912F      		mov r25,r17
 3064 004a 0E94 0000 		call _ZN20Adafruit_Fingerprint21writeStructuredPacketERK27Adafruit_Fingerprint_Packet
 3065               	.LVL149:
 384:Adafruit_Fingerprint.cpp **** }
 3066               		.loc 3 384 3 view .LVU548
 3067 004e 48EE      		ldi r20,lo8(-24)
 3068 0050 53E0      		ldi r21,lo8(3)
 3069 0052 BE01      		movw r22,r28
 3070 0054 6C5F      		subi r22,-4
 3071 0056 7F4F      		sbci r23,-1
 3072 0058 802F      		mov r24,r16
 3073 005a 912F      		mov r25,r17
 3074 005c 0E94 0000 		call _ZN20Adafruit_Fingerprint19getStructuredPacketEP27Adafruit_Fingerprint_Packetj
 3075               	.LVL150:
 3076 0060 8111      		cpse r24,__zero_reg__
 3077 0062 00C0      		rjmp .L112
 384:Adafruit_Fingerprint.cpp **** }
 3078               		.loc 3 384 3 discriminator 2 view .LVU549
 3079 0064 8A85      		ldd r24,Y+10
 3080 0066 8730      		cpi r24,lo8(7)
 3081 0068 01F4      		brne .L113
 384:Adafruit_Fingerprint.cpp **** }
 3082               		.loc 3 384 3 discriminator 5 view .LVU550
 384:Adafruit_Fingerprint.cpp **** }
 3083               		.loc 3 384 3 discriminator 5 view .LVU551
 3084 006a 8D85      		ldd r24,Y+13
 3085 006c 00C0      		rjmp .L110
 3086               	.L112:
 384:Adafruit_Fingerprint.cpp **** }
 3087               		.loc 3 384 3 is_stmt 0 view .LVU552
 3088 006e 81E0      		ldi r24,lo8(1)
 3089               	.L110:
 3090               	/* epilogue start */
 385:Adafruit_Fingerprint.cpp **** 
 3091               		.loc 3 385 1 view .LVU553
 3092 0070 C45B      		subi r28,-76
 3093 0072 DF4F      		sbci r29,-1
 3094 0074 0FB6      		in __tmp_reg__,__SREG__
 3095 0076 F894      		cli
 3096 0078 DEBF      		out __SP_H__,r29
 3097 007a 0FBE      		out __SREG__,__tmp_reg__
 3098 007c CDBF      		out __SP_L__,r28
 3099 007e DF91      		pop r29
 3100 0080 CF91      		pop r28
 3101 0082 1F91      		pop r17
 3102 0084 0F91      		pop r16
 3103 0086 0895      		ret
 3104               	.L113:
 384:Adafruit_Fingerprint.cpp **** }
 3105               		.loc 3 384 3 view .LVU554
 3106 0088 81E0      		ldi r24,lo8(1)
GAS LISTING C:\Users\kenne\AppData\Local\Temp\ccpPZdpD.s 			page 92


 384:Adafruit_Fingerprint.cpp **** }
 3107               		.loc 3 384 56 is_stmt 1 view .LVU555
 3108 008a 00C0      		rjmp .L110
 3109               		.cfi_endproc
 3110               	.LFE78:
 3112               		.section	.text._ZN20Adafruit_Fingerprint11setBaudRateEh,"ax",@progbits
 3113               	.global	_ZN20Adafruit_Fingerprint11setBaudRateEh
 3115               	_ZN20Adafruit_Fingerprint11setBaudRateEh:
 3116               	.LVL151:
 3117               	.LFB79:
 395:Adafruit_Fingerprint.cpp **** 
 3118               		.loc 3 395 61 view -0
 3119               		.cfi_startproc
 3120               	/* prologue: function */
 3121               	/* frame size = 0 */
 3122               	/* stack size = 0 */
 3123               	.L__stack_usage = 0
 395:Adafruit_Fingerprint.cpp **** 
 3124               		.loc 3 395 61 is_stmt 0 view .LVU557
 3125 0000 E82F      		mov r30,r24
 3126 0002 F92F      		mov r31,r25
 397:Adafruit_Fingerprint.cpp **** }
 3127               		.loc 3 397 3 is_stmt 1 view .LVU558
 397:Adafruit_Fingerprint.cpp **** }
 3128               		.loc 3 397 52 is_stmt 0 view .LVU559
 3129 0004 4489      		ldd r20,Z+20
 397:Adafruit_Fingerprint.cpp **** }
 3130               		.loc 3 397 24 view .LVU560
 3131 0006 64E0      		ldi r22,lo8(4)
 3132               	.LVL152:
 397:Adafruit_Fingerprint.cpp **** }
 3133               		.loc 3 397 24 view .LVU561
 3134 0008 CF01      		movw r24,r30
 3135               	.LVL153:
 397:Adafruit_Fingerprint.cpp **** }
 3136               		.loc 3 397 24 view .LVU562
 3137 000a 0E94 0000 		call _ZN20Adafruit_Fingerprint13writeRegisterEhh
 3138               	.LVL154:
 3139               	/* epilogue start */
 398:Adafruit_Fingerprint.cpp **** 
 3140               		.loc 3 398 1 view .LVU563
 3141 000e 0895      		ret
 3142               		.cfi_endproc
 3143               	.LFE79:
 3145               		.section	.text._ZN20Adafruit_Fingerprint16setSecurityLevelEh,"ax",@progbits
 3146               	.global	_ZN20Adafruit_Fingerprint16setSecurityLevelEh
 3148               	_ZN20Adafruit_Fingerprint16setSecurityLevelEh:
 3149               	.LVL155:
 3150               	.LFB80:
 408:Adafruit_Fingerprint.cpp **** 
 3151               		.loc 3 408 63 is_stmt 1 view -0
 3152               		.cfi_startproc
 3153               	/* prologue: function */
 3154               	/* frame size = 0 */
 3155               	/* stack size = 0 */
 3156               	.L__stack_usage = 0
 408:Adafruit_Fingerprint.cpp **** 
GAS LISTING C:\Users\kenne\AppData\Local\Temp\ccpPZdpD.s 			page 93


 3157               		.loc 3 408 63 is_stmt 0 view .LVU565
 3158 0000 462F      		mov r20,r22
 410:Adafruit_Fingerprint.cpp **** }
 3159               		.loc 3 410 3 is_stmt 1 view .LVU566
 410:Adafruit_Fingerprint.cpp **** }
 3160               		.loc 3 410 24 is_stmt 0 view .LVU567
 3161 0002 65E0      		ldi r22,lo8(5)
 3162               	.LVL156:
 410:Adafruit_Fingerprint.cpp **** }
 3163               		.loc 3 410 24 view .LVU568
 3164 0004 0E94 0000 		call _ZN20Adafruit_Fingerprint13writeRegisterEhh
 3165               	.LVL157:
 3166               	/* epilogue start */
 411:Adafruit_Fingerprint.cpp **** 
 3167               		.loc 3 411 1 view .LVU569
 3168 0008 0895      		ret
 3169               		.cfi_endproc
 3170               	.LFE80:
 3172               		.section	.text._ZN20Adafruit_Fingerprint13setPacketSizeEh,"ax",@progbits
 3173               	.global	_ZN20Adafruit_Fingerprint13setPacketSizeEh
 3175               	_ZN20Adafruit_Fingerprint13setPacketSizeEh:
 3176               	.LVL158:
 3177               	.LFB81:
 421:Adafruit_Fingerprint.cpp **** 
 3178               		.loc 3 421 59 is_stmt 1 view -0
 3179               		.cfi_startproc
 3180               	/* prologue: function */
 3181               	/* frame size = 0 */
 3182               	/* stack size = 0 */
 3183               	.L__stack_usage = 0
 421:Adafruit_Fingerprint.cpp **** 
 3184               		.loc 3 421 59 is_stmt 0 view .LVU571
 3185 0000 462F      		mov r20,r22
 423:Adafruit_Fingerprint.cpp **** }
 3186               		.loc 3 423 3 is_stmt 1 view .LVU572
 423:Adafruit_Fingerprint.cpp **** }
 3187               		.loc 3 423 24 is_stmt 0 view .LVU573
 3188 0002 66E0      		ldi r22,lo8(6)
 3189               	.LVL159:
 423:Adafruit_Fingerprint.cpp **** }
 3190               		.loc 3 423 24 view .LVU574
 3191 0004 0E94 0000 		call _ZN20Adafruit_Fingerprint13writeRegisterEhh
 3192               	.LVL160:
 3193               	/* epilogue start */
 424:Adafruit_Fingerprint.cpp **** /**************************************************************************/
 3194               		.loc 3 424 1 view .LVU575
 3195 0008 0895      		ret
 3196               		.cfi_endproc
 3197               	.LFE81:
 3199               		.text
 3200               	.Letext0:
 3201               		.file 5 "c:\\d\\ifsc\\vscodeleandro\\ex\\toolchains\\avr-gcc\\avr\\include\\stdint.h"
 3202               		.file 6 "c:\\d\\ifsc\\vscodeleandro\\ex\\toolchains\\avr-gcc\\lib\\gcc\\avr\\12.1.0\\include\\stdd
 3203               		.file 7 "c:\\d\\ifsc\\vscodeleandro\\ex\\toolchains\\avr-gcc\\avr\\include\\stdio.h"
 3204               		.file 8 "funsape/peripheral/usart0.hpp"
 3205               		.file 9 "c:\\d\\ifsc\\vscodeleandro\\ex\\toolchains\\avr-gcc\\avr\\include\\string.h"
 3206               		.file 10 "c:\\d\\ifsc\\vscodeleandro\\ex\\toolchains\\avr-gcc\\avr\\include\\math.h"
GAS LISTING C:\Users\kenne\AppData\Local\Temp\ccpPZdpD.s 			page 94


GAS LISTING C:\Users\kenne\AppData\Local\Temp\ccpPZdpD.s 			page 95


DEFINED SYMBOLS
                            *ABS*:00000000 Adafruit_Fingerprint.cpp
C:\Users\kenne\AppData\Local\Temp\ccpPZdpD.s:2      *ABS*:0000003e __SP_H__
C:\Users\kenne\AppData\Local\Temp\ccpPZdpD.s:3      *ABS*:0000003d __SP_L__
C:\Users\kenne\AppData\Local\Temp\ccpPZdpD.s:4      *ABS*:0000003f __SREG__
C:\Users\kenne\AppData\Local\Temp\ccpPZdpD.s:5      *ABS*:00000000 __tmp_reg__
C:\Users\kenne\AppData\Local\Temp\ccpPZdpD.s:6      *ABS*:00000001 __zero_reg__
C:\Users\kenne\AppData\Local\Temp\ccpPZdpD.s:14     .text._Z7getTickv:00000000 _Z7getTickv
C:\Users\kenne\AppData\Local\Temp\ccpPZdpD.s:17     .text._Z7getTickv:00000000 .Loc.0
C:\Users\kenne\AppData\Local\Temp\ccpPZdpD.s:18     .text._Z7getTickv:00000000 L0
C:\Users\kenne\AppData\Local\Temp\ccpPZdpD.s:23     .text._Z7getTickv:00000000 .Loc.1
C:\Users\kenne\AppData\Local\Temp\ccpPZdpD.s:24     .text._Z7getTickv:00000000 .Loc.2
C:\Users\kenne\AppData\Local\Temp\ccpPZdpD.s:30     .text._Z7getTickv:00000008 L0
C:\Users\kenne\AppData\Local\Temp\ccpPZdpD.s:36     .text._ZN27Adafruit_Fingerprint_PacketC2EhjPh:00000000 _ZN27Adafruit_Fingerprint_PacketC2EhjPh
C:\Users\kenne\AppData\Local\Temp\ccpPZdpD.s:40     .text._ZN27Adafruit_Fingerprint_PacketC2EhjPh:00000000 .Loc.3
C:\Users\kenne\AppData\Local\Temp\ccpPZdpD.s:41     .text._ZN27Adafruit_Fingerprint_PacketC2EhjPh:00000000 L0
C:\Users\kenne\AppData\Local\Temp\ccpPZdpD.s:46     .text._ZN27Adafruit_Fingerprint_PacketC2EhjPh:00000000 .Loc.4
C:\Users\kenne\AppData\Local\Temp\ccpPZdpD.s:51     .text._ZN27Adafruit_Fingerprint_PacketC2EhjPh:00000006 .Loc.5
C:\Users\kenne\AppData\Local\Temp\ccpPZdpD.s:56     .text._ZN27Adafruit_Fingerprint_PacketC2EhjPh:0000000c .Loc.6
C:\Users\kenne\AppData\Local\Temp\ccpPZdpD.s:57     .text._ZN27Adafruit_Fingerprint_PacketC2EhjPh:0000000c .Loc.7
C:\Users\kenne\AppData\Local\Temp\ccpPZdpD.s:61     .text._ZN27Adafruit_Fingerprint_PacketC2EhjPh:00000010 .Loc.8
C:\Users\kenne\AppData\Local\Temp\ccpPZdpD.s:65     .text._ZN27Adafruit_Fingerprint_PacketC2EhjPh:00000016 .Loc.9
C:\Users\kenne\AppData\Local\Temp\ccpPZdpD.s:66     .text._ZN27Adafruit_Fingerprint_PacketC2EhjPh:00000016 .Loc.10
C:\Users\kenne\AppData\Local\Temp\ccpPZdpD.s:70     .text._ZN27Adafruit_Fingerprint_PacketC2EhjPh:0000001c .Loc.11
C:\Users\kenne\AppData\Local\Temp\ccpPZdpD.s:71     .text._ZN27Adafruit_Fingerprint_PacketC2EhjPh:0000001c .Loc.12
C:\Users\kenne\AppData\Local\Temp\ccpPZdpD.s:76     .text._ZN27Adafruit_Fingerprint_PacketC2EhjPh:00000024 .Loc.13
C:\Users\kenne\AppData\Local\Temp\ccpPZdpD.s:77     .text._ZN27Adafruit_Fingerprint_PacketC2EhjPh:00000024 .Loc.14
C:\Users\kenne\AppData\Local\Temp\ccpPZdpD.s:80     .text._ZN27Adafruit_Fingerprint_PacketC2EhjPh:00000026 .Loc.15
C:\Users\kenne\AppData\Local\Temp\ccpPZdpD.s:84     .text._ZN27Adafruit_Fingerprint_PacketC2EhjPh:0000002c .Loc.16
C:\Users\kenne\AppData\Local\Temp\ccpPZdpD.s:85     .text._ZN27Adafruit_Fingerprint_PacketC2EhjPh:0000002c .Loc.17
C:\Users\kenne\AppData\Local\Temp\ccpPZdpD.s:89     .text._ZN27Adafruit_Fingerprint_PacketC2EhjPh:00000032 .Loc.18
C:\Users\kenne\AppData\Local\Temp\ccpPZdpD.s:90     .text._ZN27Adafruit_Fingerprint_PacketC2EhjPh:00000032 .Loc.19
C:\Users\kenne\AppData\Local\Temp\ccpPZdpD.s:94     .text._ZN27Adafruit_Fingerprint_PacketC2EhjPh:00000038 .Loc.20
C:\Users\kenne\AppData\Local\Temp\ccpPZdpD.s:95     .text._ZN27Adafruit_Fingerprint_PacketC2EhjPh:00000038 .Loc.21
C:\Users\kenne\AppData\Local\Temp\ccpPZdpD.s:99     .text._ZN27Adafruit_Fingerprint_PacketC2EhjPh:0000003e .Loc.22
C:\Users\kenne\AppData\Local\Temp\ccpPZdpD.s:103    .text._ZN27Adafruit_Fingerprint_PacketC2EhjPh:00000044 .Loc.23
C:\Users\kenne\AppData\Local\Temp\ccpPZdpD.s:104    .text._ZN27Adafruit_Fingerprint_PacketC2EhjPh:00000044 .Loc.24
C:\Users\kenne\AppData\Local\Temp\ccpPZdpD.s:108    .text._ZN27Adafruit_Fingerprint_PacketC2EhjPh:00000048 .Loc.25
C:\Users\kenne\AppData\Local\Temp\ccpPZdpD.s:113    .text._ZN27Adafruit_Fingerprint_PacketC2EhjPh:00000050 .Loc.26
C:\Users\kenne\AppData\Local\Temp\ccpPZdpD.s:117    .text._ZN27Adafruit_Fingerprint_PacketC2EhjPh:00000052 .Loc.27
C:\Users\kenne\AppData\Local\Temp\ccpPZdpD.s:118    .text._ZN27Adafruit_Fingerprint_PacketC2EhjPh:00000052 .Loc.28
C:\Users\kenne\AppData\Local\Temp\ccpPZdpD.s:120    .text._ZN27Adafruit_Fingerprint_PacketC2EhjPh:00000054 .Loc.29
C:\Users\kenne\AppData\Local\Temp\ccpPZdpD.s:130    .text._ZN27Adafruit_Fingerprint_PacketC2EhjPh:00000060 .Loc.30
C:\Users\kenne\AppData\Local\Temp\ccpPZdpD.s:132    .text._ZN27Adafruit_Fingerprint_PacketC2EhjPh:00000062 L0
C:\Users\kenne\AppData\Local\Temp\ccpPZdpD.s:36     .text._ZN27Adafruit_Fingerprint_PacketC2EhjPh:00000000 _ZN27Adafruit_Fingerprint_PacketC1EhjPh
C:\Users\kenne\AppData\Local\Temp\ccpPZdpD.s:140    .text._ZN20Adafruit_FingerprintC2EP6Usart0m:00000000 _ZN20Adafruit_FingerprintC2EP6Usart0m
C:\Users\kenne\AppData\Local\Temp\ccpPZdpD.s:144    .text._ZN20Adafruit_FingerprintC2EP6Usart0m:00000000 .Loc.31
C:\Users\kenne\AppData\Local\Temp\ccpPZdpD.s:145    .text._ZN20Adafruit_FingerprintC2EP6Usart0m:00000000 L0
C:\Users\kenne\AppData\Local\Temp\ccpPZdpD.s:146    .text._ZN20Adafruit_FingerprintC2EP6Usart0m:00000000 .Loc.32
C:\Users\kenne\AppData\Local\Temp\ccpPZdpD.s:160    .text._ZN20Adafruit_FingerprintC2EP6Usart0m:00000008 .Loc.33
C:\Users\kenne\AppData\Local\Temp\ccpPZdpD.s:175    .text._ZN20Adafruit_FingerprintC2EP6Usart0m:00000022 .Loc.34
C:\Users\kenne\AppData\Local\Temp\ccpPZdpD.s:186    .text._ZN20Adafruit_FingerprintC2EP6Usart0m:00000036 .Loc.35
C:\Users\kenne\AppData\Local\Temp\ccpPZdpD.s:187    .text._ZN20Adafruit_FingerprintC2EP6Usart0m:00000036 .Loc.36
C:\Users\kenne\AppData\Local\Temp\ccpPZdpD.s:192    .text._ZN20Adafruit_FingerprintC2EP6Usart0m:0000003e .Loc.37
C:\Users\kenne\AppData\Local\Temp\ccpPZdpD.s:193    .text._ZN20Adafruit_FingerprintC2EP6Usart0m:0000003e .Loc.38
C:\Users\kenne\AppData\Local\Temp\ccpPZdpD.s:198    .text._ZN20Adafruit_FingerprintC2EP6Usart0m:00000046 .Loc.39
C:\Users\kenne\AppData\Local\Temp\ccpPZdpD.s:199    .text._ZN20Adafruit_FingerprintC2EP6Usart0m:00000046 .Loc.40
GAS LISTING C:\Users\kenne\AppData\Local\Temp\ccpPZdpD.s 			page 96


C:\Users\kenne\AppData\Local\Temp\ccpPZdpD.s:202    .text._ZN20Adafruit_FingerprintC2EP6Usart0m:0000004a .Loc.41
C:\Users\kenne\AppData\Local\Temp\ccpPZdpD.s:203    .text._ZN20Adafruit_FingerprintC2EP6Usart0m:0000004a .Loc.42
C:\Users\kenne\AppData\Local\Temp\ccpPZdpD.s:208    .text._ZN20Adafruit_FingerprintC2EP6Usart0m:0000004e .Loc.43
C:\Users\kenne\AppData\Local\Temp\ccpPZdpD.s:212    .text._ZN20Adafruit_FingerprintC2EP6Usart0m:00000054 L0
C:\Users\kenne\AppData\Local\Temp\ccpPZdpD.s:140    .text._ZN20Adafruit_FingerprintC2EP6Usart0m:00000000 _ZN20Adafruit_FingerprintC1EP6Usart0m
C:\Users\kenne\AppData\Local\Temp\ccpPZdpD.s:220    .text._ZN20Adafruit_Fingerprint5beginEm:00000000 _ZN20Adafruit_Fingerprint5beginEm
C:\Users\kenne\AppData\Local\Temp\ccpPZdpD.s:223    .text._ZN20Adafruit_Fingerprint5beginEm:00000000 .Loc.44
C:\Users\kenne\AppData\Local\Temp\ccpPZdpD.s:224    .text._ZN20Adafruit_Fingerprint5beginEm:00000000 L0
C:\Users\kenne\AppData\Local\Temp\ccpPZdpD.s:229    .text._ZN20Adafruit_Fingerprint5beginEm:00000000 .Loc.45
C:\Users\kenne\AppData\Local\Temp\ccpPZdpD.s:233    .text._ZN20Adafruit_Fingerprint5beginEm:00000000 .Loc.46
C:\Users\kenne\AppData\Local\Temp\ccpPZdpD.s:235    .text._ZN20Adafruit_Fingerprint5beginEm:00000000 .Loc.47
C:\Users\kenne\AppData\Local\Temp\ccpPZdpD.s:236    .text._ZN20Adafruit_Fingerprint5beginEm:00000000 .Loc.48
C:\Users\kenne\AppData\Local\Temp\ccpPZdpD.s:237    .text._ZN20Adafruit_Fingerprint5beginEm:00000000 .Loc.49
C:\Users\kenne\AppData\Local\Temp\ccpPZdpD.s:238    .text._ZN20Adafruit_Fingerprint5beginEm:00000000 .Loc.50
C:\Users\kenne\AppData\Local\Temp\ccpPZdpD.s:239    .text._ZN20Adafruit_Fingerprint5beginEm:00000000 .Loc.51
C:\Users\kenne\AppData\Local\Temp\ccpPZdpD.s:240    .text._ZN20Adafruit_Fingerprint5beginEm:00000000 .Loc.52
C:\Users\kenne\AppData\Local\Temp\ccpPZdpD.s:241    .text._ZN20Adafruit_Fingerprint5beginEm:00000000 .Loc.53
C:\Users\kenne\AppData\Local\Temp\ccpPZdpD.s:250    .text._ZN20Adafruit_Fingerprint5beginEm:0000000e .Loc.54
C:\Users\kenne\AppData\Local\Temp\ccpPZdpD.s:251    .text._ZN20Adafruit_Fingerprint5beginEm:00000010 L0
C:\Users\kenne\AppData\Local\Temp\ccpPZdpD.s:255    .text._ZN20Adafruit_Fingerprint5beginEm:00000012 .Loc.55
C:\Users\kenne\AppData\Local\Temp\ccpPZdpD.s:258    .text._ZN20Adafruit_Fingerprint5beginEm:00000012 .Loc.56
C:\Users\kenne\AppData\Local\Temp\ccpPZdpD.s:260    .text._ZN20Adafruit_Fingerprint5beginEm:00000014 L0
C:\Users\kenne\AppData\Local\Temp\ccpPZdpD.s:266    .text._ZN20Adafruit_Fingerprint21writeStructuredPacketERK27Adafruit_Fingerprint_Packet:00000000 _ZN20Adafruit_Fingerprint21writeStructuredPacketERK27Adafruit_Fingerprint_Packet
C:\Users\kenne\AppData\Local\Temp\ccpPZdpD.s:269    .text._ZN20Adafruit_Fingerprint21writeStructuredPacketERK27Adafruit_Fingerprint_Packet:00000000 .Loc.57
C:\Users\kenne\AppData\Local\Temp\ccpPZdpD.s:270    .text._ZN20Adafruit_Fingerprint21writeStructuredPacketERK27Adafruit_Fingerprint_Packet:00000000 L0
C:\Users\kenne\AppData\Local\Temp\ccpPZdpD.s:271    .text._ZN20Adafruit_Fingerprint21writeStructuredPacketERK27Adafruit_Fingerprint_Packet:00000000 .Loc.58
C:\Users\kenne\AppData\Local\Temp\ccpPZdpD.s:307    .text._ZN20Adafruit_Fingerprint21writeStructuredPacketERK27Adafruit_Fingerprint_Packet:0000001a .Loc.59
C:\Users\kenne\AppData\Local\Temp\ccpPZdpD.s:308    .text._ZN20Adafruit_Fingerprint21writeStructuredPacketERK27Adafruit_Fingerprint_Packet:0000001a .Loc.60
C:\Users\kenne\AppData\Local\Temp\ccpPZdpD.s:312    .text._ZN20Adafruit_Fingerprint21writeStructuredPacketERK27Adafruit_Fingerprint_Packet:0000001e .Loc.61
C:\Users\kenne\AppData\Local\Temp\ccpPZdpD.s:318    .text._ZN20Adafruit_Fingerprint21writeStructuredPacketERK27Adafruit_Fingerprint_Packet:00000026 .Loc.62
C:\Users\kenne\AppData\Local\Temp\ccpPZdpD.s:321    .text._ZN20Adafruit_Fingerprint21writeStructuredPacketERK27Adafruit_Fingerprint_Packet:0000002a .Loc.63
C:\Users\kenne\AppData\Local\Temp\ccpPZdpD.s:322    .text._ZN20Adafruit_Fingerprint21writeStructuredPacketERK27Adafruit_Fingerprint_Packet:0000002a .Loc.64
C:\Users\kenne\AppData\Local\Temp\ccpPZdpD.s:326    .text._ZN20Adafruit_Fingerprint21writeStructuredPacketERK27Adafruit_Fingerprint_Packet:00000030 .Loc.65
C:\Users\kenne\AppData\Local\Temp\ccpPZdpD.s:333    .text._ZN20Adafruit_Fingerprint21writeStructuredPacketERK27Adafruit_Fingerprint_Packet:0000003c .Loc.66
C:\Users\kenne\AppData\Local\Temp\ccpPZdpD.s:334    .text._ZN20Adafruit_Fingerprint21writeStructuredPacketERK27Adafruit_Fingerprint_Packet:0000003c .Loc.67
C:\Users\kenne\AppData\Local\Temp\ccpPZdpD.s:337    .text._ZN20Adafruit_Fingerprint21writeStructuredPacketERK27Adafruit_Fingerprint_Packet:00000040 .Loc.68
C:\Users\kenne\AppData\Local\Temp\ccpPZdpD.s:344    .text._ZN20Adafruit_Fingerprint21writeStructuredPacketERK27Adafruit_Fingerprint_Packet:0000004c .Loc.69
C:\Users\kenne\AppData\Local\Temp\ccpPZdpD.s:345    .text._ZN20Adafruit_Fingerprint21writeStructuredPacketERK27Adafruit_Fingerprint_Packet:0000004c .Loc.70
C:\Users\kenne\AppData\Local\Temp\ccpPZdpD.s:348    .text._ZN20Adafruit_Fingerprint21writeStructuredPacketERK27Adafruit_Fingerprint_Packet:00000050 .Loc.71
C:\Users\kenne\AppData\Local\Temp\ccpPZdpD.s:355    .text._ZN20Adafruit_Fingerprint21writeStructuredPacketERK27Adafruit_Fingerprint_Packet:0000005c .Loc.72
C:\Users\kenne\AppData\Local\Temp\ccpPZdpD.s:356    .text._ZN20Adafruit_Fingerprint21writeStructuredPacketERK27Adafruit_Fingerprint_Packet:0000005c .Loc.73
C:\Users\kenne\AppData\Local\Temp\ccpPZdpD.s:359    .text._ZN20Adafruit_Fingerprint21writeStructuredPacketERK27Adafruit_Fingerprint_Packet:00000060 .Loc.74
C:\Users\kenne\AppData\Local\Temp\ccpPZdpD.s:366    .text._ZN20Adafruit_Fingerprint21writeStructuredPacketERK27Adafruit_Fingerprint_Packet:0000006c .Loc.75
C:\Users\kenne\AppData\Local\Temp\ccpPZdpD.s:367    .text._ZN20Adafruit_Fingerprint21writeStructuredPacketERK27Adafruit_Fingerprint_Packet:0000006c .Loc.76
C:\Users\kenne\AppData\Local\Temp\ccpPZdpD.s:370    .text._ZN20Adafruit_Fingerprint21writeStructuredPacketERK27Adafruit_Fingerprint_Packet:00000070 .Loc.77
C:\Users\kenne\AppData\Local\Temp\ccpPZdpD.s:377    .text._ZN20Adafruit_Fingerprint21writeStructuredPacketERK27Adafruit_Fingerprint_Packet:0000007c .Loc.78
C:\Users\kenne\AppData\Local\Temp\ccpPZdpD.s:378    .text._ZN20Adafruit_Fingerprint21writeStructuredPacketERK27Adafruit_Fingerprint_Packet:0000007c .Loc.79
C:\Users\kenne\AppData\Local\Temp\ccpPZdpD.s:381    .text._ZN20Adafruit_Fingerprint21writeStructuredPacketERK27Adafruit_Fingerprint_Packet:00000080 .Loc.80
C:\Users\kenne\AppData\Local\Temp\ccpPZdpD.s:388    .text._ZN20Adafruit_Fingerprint21writeStructuredPacketERK27Adafruit_Fingerprint_Packet:0000008c .Loc.81
C:\Users\kenne\AppData\Local\Temp\ccpPZdpD.s:389    .text._ZN20Adafruit_Fingerprint21writeStructuredPacketERK27Adafruit_Fingerprint_Packet:0000008c .Loc.82
C:\Users\kenne\AppData\Local\Temp\ccpPZdpD.s:393    .text._ZN20Adafruit_Fingerprint21writeStructuredPacketERK27Adafruit_Fingerprint_Packet:00000092 .Loc.83
C:\Users\kenne\AppData\Local\Temp\ccpPZdpD.s:398    .text._ZN20Adafruit_Fingerprint21writeStructuredPacketERK27Adafruit_Fingerprint_Packet:00000098 .Loc.84
C:\Users\kenne\AppData\Local\Temp\ccpPZdpD.s:399    .text._ZN20Adafruit_Fingerprint21writeStructuredPacketERK27Adafruit_Fingerprint_Packet:00000098 .Loc.85
C:\Users\kenne\AppData\Local\Temp\ccpPZdpD.s:402    .text._ZN20Adafruit_Fingerprint21writeStructuredPacketERK27Adafruit_Fingerprint_Packet:0000009c .Loc.86
C:\Users\kenne\AppData\Local\Temp\ccpPZdpD.s:409    .text._ZN20Adafruit_Fingerprint21writeStructuredPacketERK27Adafruit_Fingerprint_Packet:000000a8 .Loc.87
C:\Users\kenne\AppData\Local\Temp\ccpPZdpD.s:412    .text._ZN20Adafruit_Fingerprint21writeStructuredPacketERK27Adafruit_Fingerprint_Packet:000000aa .Loc.88
C:\Users\kenne\AppData\Local\Temp\ccpPZdpD.s:419    .text._ZN20Adafruit_Fingerprint21writeStructuredPacketERK27Adafruit_Fingerprint_Packet:000000b6 .Loc.89
GAS LISTING C:\Users\kenne\AppData\Local\Temp\ccpPZdpD.s 			page 97


C:\Users\kenne\AppData\Local\Temp\ccpPZdpD.s:420    .text._ZN20Adafruit_Fingerprint21writeStructuredPacketERK27Adafruit_Fingerprint_Packet:000000b6 .Loc.90
C:\Users\kenne\AppData\Local\Temp\ccpPZdpD.s:423    .text._ZN20Adafruit_Fingerprint21writeStructuredPacketERK27Adafruit_Fingerprint_Packet:000000ba .Loc.91
C:\Users\kenne\AppData\Local\Temp\ccpPZdpD.s:426    .text._ZN20Adafruit_Fingerprint21writeStructuredPacketERK27Adafruit_Fingerprint_Packet:000000be .Loc.92
C:\Users\kenne\AppData\Local\Temp\ccpPZdpD.s:430    .text._ZN20Adafruit_Fingerprint21writeStructuredPacketERK27Adafruit_Fingerprint_Packet:000000c2 .Loc.93
C:\Users\kenne\AppData\Local\Temp\ccpPZdpD.s:432    .text._ZN20Adafruit_Fingerprint21writeStructuredPacketERK27Adafruit_Fingerprint_Packet:000000c2 .Loc.94
C:\Users\kenne\AppData\Local\Temp\ccpPZdpD.s:434    .text._ZN20Adafruit_Fingerprint21writeStructuredPacketERK27Adafruit_Fingerprint_Packet:000000c4 .Loc.95
C:\Users\kenne\AppData\Local\Temp\ccpPZdpD.s:438    .text._ZN20Adafruit_Fingerprint21writeStructuredPacketERK27Adafruit_Fingerprint_Packet:000000c6 .Loc.96
C:\Users\kenne\AppData\Local\Temp\ccpPZdpD.s:439    .text._ZN20Adafruit_Fingerprint21writeStructuredPacketERK27Adafruit_Fingerprint_Packet:000000c6 .Loc.97
C:\Users\kenne\AppData\Local\Temp\ccpPZdpD.s:445    .text._ZN20Adafruit_Fingerprint21writeStructuredPacketERK27Adafruit_Fingerprint_Packet:000000d0 .Loc.98
C:\Users\kenne\AppData\Local\Temp\ccpPZdpD.s:451    .text._ZN20Adafruit_Fingerprint21writeStructuredPacketERK27Adafruit_Fingerprint_Packet:000000d8 .Loc.99
C:\Users\kenne\AppData\Local\Temp\ccpPZdpD.s:454    .text._ZN20Adafruit_Fingerprint21writeStructuredPacketERK27Adafruit_Fingerprint_Packet:000000dc .Loc.100
C:\Users\kenne\AppData\Local\Temp\ccpPZdpD.s:455    .text._ZN20Adafruit_Fingerprint21writeStructuredPacketERK27Adafruit_Fingerprint_Packet:000000dc .Loc.101
C:\Users\kenne\AppData\Local\Temp\ccpPZdpD.s:458    .text._ZN20Adafruit_Fingerprint21writeStructuredPacketERK27Adafruit_Fingerprint_Packet:000000e0 .Loc.102
C:\Users\kenne\AppData\Local\Temp\ccpPZdpD.s:462    .text._ZN20Adafruit_Fingerprint21writeStructuredPacketERK27Adafruit_Fingerprint_Packet:000000e4 .Loc.103
C:\Users\kenne\AppData\Local\Temp\ccpPZdpD.s:466    .text._ZN20Adafruit_Fingerprint21writeStructuredPacketERK27Adafruit_Fingerprint_Packet:000000e6 .Loc.104
C:\Users\kenne\AppData\Local\Temp\ccpPZdpD.s:467    .text._ZN20Adafruit_Fingerprint21writeStructuredPacketERK27Adafruit_Fingerprint_Packet:000000e6 .Loc.105
C:\Users\kenne\AppData\Local\Temp\ccpPZdpD.s:470    .text._ZN20Adafruit_Fingerprint21writeStructuredPacketERK27Adafruit_Fingerprint_Packet:000000ea .Loc.106
C:\Users\kenne\AppData\Local\Temp\ccpPZdpD.s:474    .text._ZN20Adafruit_Fingerprint21writeStructuredPacketERK27Adafruit_Fingerprint_Packet:000000f0 .Loc.107
C:\Users\kenne\AppData\Local\Temp\ccpPZdpD.s:478    .text._ZN20Adafruit_Fingerprint21writeStructuredPacketERK27Adafruit_Fingerprint_Packet:000000f6 .Loc.108
C:\Users\kenne\AppData\Local\Temp\ccpPZdpD.s:480    .text._ZN20Adafruit_Fingerprint21writeStructuredPacketERK27Adafruit_Fingerprint_Packet:000000f6 .Loc.109
C:\Users\kenne\AppData\Local\Temp\ccpPZdpD.s:481    .text._ZN20Adafruit_Fingerprint21writeStructuredPacketERK27Adafruit_Fingerprint_Packet:000000f6 .Loc.110
C:\Users\kenne\AppData\Local\Temp\ccpPZdpD.s:489    .text._ZN20Adafruit_Fingerprint21writeStructuredPacketERK27Adafruit_Fingerprint_Packet:00000104 .Loc.111
C:\Users\kenne\AppData\Local\Temp\ccpPZdpD.s:490    .text._ZN20Adafruit_Fingerprint21writeStructuredPacketERK27Adafruit_Fingerprint_Packet:00000104 .Loc.112
C:\Users\kenne\AppData\Local\Temp\ccpPZdpD.s:498    .text._ZN20Adafruit_Fingerprint21writeStructuredPacketERK27Adafruit_Fingerprint_Packet:00000112 .Loc.113
C:\Users\kenne\AppData\Local\Temp\ccpPZdpD.s:500    .text._ZN20Adafruit_Fingerprint21writeStructuredPacketERK27Adafruit_Fingerprint_Packet:00000112 .Loc.114
C:\Users\kenne\AppData\Local\Temp\ccpPZdpD.s:503    .text._ZN20Adafruit_Fingerprint21writeStructuredPacketERK27Adafruit_Fingerprint_Packet:00000114 .Loc.115
C:\Users\kenne\AppData\Local\Temp\ccpPZdpD.s:509    .text._ZN20Adafruit_Fingerprint21writeStructuredPacketERK27Adafruit_Fingerprint_Packet:0000011c .Loc.116
C:\Users\kenne\AppData\Local\Temp\ccpPZdpD.s:515    .text._ZN20Adafruit_Fingerprint21writeStructuredPacketERK27Adafruit_Fingerprint_Packet:00000126 L0
C:\Users\kenne\AppData\Local\Temp\ccpPZdpD.s:521    .text._ZN20Adafruit_Fingerprint19getStructuredPacketEP27Adafruit_Fingerprint_Packetj:00000000 _ZN20Adafruit_Fingerprint19getStructuredPacketEP27Adafruit_Fingerprint_Packetj
C:\Users\kenne\AppData\Local\Temp\ccpPZdpD.s:524    .text._ZN20Adafruit_Fingerprint19getStructuredPacketEP27Adafruit_Fingerprint_Packetj:00000000 .Loc.117
C:\Users\kenne\AppData\Local\Temp\ccpPZdpD.s:525    .text._ZN20Adafruit_Fingerprint19getStructuredPacketEP27Adafruit_Fingerprint_Packetj:00000000 L0
C:\Users\kenne\AppData\Local\Temp\ccpPZdpD.s:526    .text._ZN20Adafruit_Fingerprint19getStructuredPacketEP27Adafruit_Fingerprint_Packetj:00000000 .Loc.118
C:\Users\kenne\AppData\Local\Temp\ccpPZdpD.s:564    .text._ZN20Adafruit_Fingerprint19getStructuredPacketEP27Adafruit_Fingerprint_Packetj:0000001e .Loc.119
C:\Users\kenne\AppData\Local\Temp\ccpPZdpD.s:565    .text._ZN20Adafruit_Fingerprint19getStructuredPacketEP27Adafruit_Fingerprint_Packetj:0000001e .Loc.120
C:\Users\kenne\AppData\Local\Temp\ccpPZdpD.s:567    .text._ZN20Adafruit_Fingerprint19getStructuredPacketEP27Adafruit_Fingerprint_Packetj:0000001e .Loc.121
C:\Users\kenne\AppData\Local\Temp\ccpPZdpD.s:573    .text._ZN20Adafruit_Fingerprint19getStructuredPacketEP27Adafruit_Fingerprint_Packetj:00000024 .Loc.122
C:\Users\kenne\AppData\Local\Temp\ccpPZdpD.s:577    .text._ZN20Adafruit_Fingerprint19getStructuredPacketEP27Adafruit_Fingerprint_Packetj:00000028 .Loc.123
C:\Users\kenne\AppData\Local\Temp\ccpPZdpD.s:580    .text._ZN20Adafruit_Fingerprint19getStructuredPacketEP27Adafruit_Fingerprint_Packetj:0000002e L0
C:\Users\kenne\AppData\Local\Temp\ccpPZdpD.s:582    .text._ZN20Adafruit_Fingerprint19getStructuredPacketEP27Adafruit_Fingerprint_Packetj:00000030 .Loc.124
C:\Users\kenne\AppData\Local\Temp\ccpPZdpD.s:583    .text._ZN20Adafruit_Fingerprint19getStructuredPacketEP27Adafruit_Fingerprint_Packetj:00000030 .Loc.125
C:\Users\kenne\AppData\Local\Temp\ccpPZdpD.s:584    .text._ZN20Adafruit_Fingerprint19getStructuredPacketEP27Adafruit_Fingerprint_Packetj:00000030 .Loc.126
C:\Users\kenne\AppData\Local\Temp\ccpPZdpD.s:586    .text._ZN20Adafruit_Fingerprint19getStructuredPacketEP27Adafruit_Fingerprint_Packetj:00000032 .Loc.127
C:\Users\kenne\AppData\Local\Temp\ccpPZdpD.s:589    .text._ZN20Adafruit_Fingerprint19getStructuredPacketEP27Adafruit_Fingerprint_Packetj:00000036 .Loc.128
C:\Users\kenne\AppData\Local\Temp\ccpPZdpD.s:590    .text._ZN20Adafruit_Fingerprint19getStructuredPacketEP27Adafruit_Fingerprint_Packetj:00000036 .Loc.129
C:\Users\kenne\AppData\Local\Temp\ccpPZdpD.s:594    .text._ZN20Adafruit_Fingerprint19getStructuredPacketEP27Adafruit_Fingerprint_Packetj:0000003c .Loc.130
C:\Users\kenne\AppData\Local\Temp\ccpPZdpD.s:597    .text._ZN20Adafruit_Fingerprint19getStructuredPacketEP27Adafruit_Fingerprint_Packetj:0000003e .Loc.131
C:\Users\kenne\AppData\Local\Temp\ccpPZdpD.s:600    .text._ZN20Adafruit_Fingerprint19getStructuredPacketEP27Adafruit_Fingerprint_Packetj:00000044 L0
C:\Users\kenne\AppData\Local\Temp\ccpPZdpD.s:602    .text._ZN20Adafruit_Fingerprint19getStructuredPacketEP27Adafruit_Fingerprint_Packetj:00000046 .Loc.132
C:\Users\kenne\AppData\Local\Temp\ccpPZdpD.s:605    .text._ZN20Adafruit_Fingerprint19getStructuredPacketEP27Adafruit_Fingerprint_Packetj:0000004c L0
C:\Users\kenne\AppData\Local\Temp\ccpPZdpD.s:607    .text._ZN20Adafruit_Fingerprint19getStructuredPacketEP27Adafruit_Fingerprint_Packetj:0000004e .Loc.133
C:\Users\kenne\AppData\Local\Temp\ccpPZdpD.s:608    .text._ZN20Adafruit_Fingerprint19getStructuredPacketEP27Adafruit_Fingerprint_Packetj:0000004e .Loc.134
C:\Users\kenne\AppData\Local\Temp\ccpPZdpD.s:609    .text._ZN20Adafruit_Fingerprint19getStructuredPacketEP27Adafruit_Fingerprint_Packetj:0000004e .Loc.135
C:\Users\kenne\AppData\Local\Temp\ccpPZdpD.s:613    .text._ZN20Adafruit_Fingerprint19getStructuredPacketEP27Adafruit_Fingerprint_Packetj:00000054 .Loc.136
C:\Users\kenne\AppData\Local\Temp\ccpPZdpD.s:615    .text._ZN20Adafruit_Fingerprint19getStructuredPacketEP27Adafruit_Fingerprint_Packetj:00000056 .Loc.137
C:\Users\kenne\AppData\Local\Temp\ccpPZdpD.s:619    .text._ZN20Adafruit_Fingerprint19getStructuredPacketEP27Adafruit_Fingerprint_Packetj:0000005c .Loc.138
C:\Users\kenne\AppData\Local\Temp\ccpPZdpD.s:622    .text._ZN20Adafruit_Fingerprint19getStructuredPacketEP27Adafruit_Fingerprint_Packetj:0000005e .Loc.139
C:\Users\kenne\AppData\Local\Temp\ccpPZdpD.s:623    .text._ZN20Adafruit_Fingerprint19getStructuredPacketEP27Adafruit_Fingerprint_Packetj:0000005e .Loc.140
GAS LISTING C:\Users\kenne\AppData\Local\Temp\ccpPZdpD.s 			page 98


C:\Users\kenne\AppData\Local\Temp\ccpPZdpD.s:624    .text._ZN20Adafruit_Fingerprint19getStructuredPacketEP27Adafruit_Fingerprint_Packetj:0000005e .Loc.141
C:\Users\kenne\AppData\Local\Temp\ccpPZdpD.s:628    .text._ZN20Adafruit_Fingerprint19getStructuredPacketEP27Adafruit_Fingerprint_Packetj:00000064 .Loc.142
C:\Users\kenne\AppData\Local\Temp\ccpPZdpD.s:630    .text._ZN20Adafruit_Fingerprint19getStructuredPacketEP27Adafruit_Fingerprint_Packetj:00000066 .Loc.143
C:\Users\kenne\AppData\Local\Temp\ccpPZdpD.s:634    .text._ZN20Adafruit_Fingerprint19getStructuredPacketEP27Adafruit_Fingerprint_Packetj:0000006c .Loc.144
C:\Users\kenne\AppData\Local\Temp\ccpPZdpD.s:638    .text._ZN20Adafruit_Fingerprint19getStructuredPacketEP27Adafruit_Fingerprint_Packetj:00000072 .Loc.145
C:\Users\kenne\AppData\Local\Temp\ccpPZdpD.s:642    .text._ZN20Adafruit_Fingerprint19getStructuredPacketEP27Adafruit_Fingerprint_Packetj:00000076 .Loc.146
C:\Users\kenne\AppData\Local\Temp\ccpPZdpD.s:643    .text._ZN20Adafruit_Fingerprint19getStructuredPacketEP27Adafruit_Fingerprint_Packetj:00000076 .Loc.147
C:\Users\kenne\AppData\Local\Temp\ccpPZdpD.s:644    .text._ZN20Adafruit_Fingerprint19getStructuredPacketEP27Adafruit_Fingerprint_Packetj:00000076 .Loc.148
C:\Users\kenne\AppData\Local\Temp\ccpPZdpD.s:648    .text._ZN20Adafruit_Fingerprint19getStructuredPacketEP27Adafruit_Fingerprint_Packetj:0000007c .Loc.149
C:\Users\kenne\AppData\Local\Temp\ccpPZdpD.s:650    .text._ZN20Adafruit_Fingerprint19getStructuredPacketEP27Adafruit_Fingerprint_Packetj:0000007c .Loc.150
C:\Users\kenne\AppData\Local\Temp\ccpPZdpD.s:651    .text._ZN20Adafruit_Fingerprint19getStructuredPacketEP27Adafruit_Fingerprint_Packetj:0000007c .Loc.151
C:\Users\kenne\AppData\Local\Temp\ccpPZdpD.s:655    .text._ZN20Adafruit_Fingerprint19getStructuredPacketEP27Adafruit_Fingerprint_Packetj:00000080 .Loc.152
C:\Users\kenne\AppData\Local\Temp\ccpPZdpD.s:656    .text._ZN20Adafruit_Fingerprint19getStructuredPacketEP27Adafruit_Fingerprint_Packetj:00000080 .Loc.153
C:\Users\kenne\AppData\Local\Temp\ccpPZdpD.s:659    .text._ZN20Adafruit_Fingerprint19getStructuredPacketEP27Adafruit_Fingerprint_Packetj:00000084 .Loc.154
C:\Users\kenne\AppData\Local\Temp\ccpPZdpD.s:664    .text._ZN20Adafruit_Fingerprint19getStructuredPacketEP27Adafruit_Fingerprint_Packetj:0000008a .Loc.155
C:\Users\kenne\AppData\Local\Temp\ccpPZdpD.s:668    .text._ZN20Adafruit_Fingerprint19getStructuredPacketEP27Adafruit_Fingerprint_Packetj:0000008c .Loc.156
C:\Users\kenne\AppData\Local\Temp\ccpPZdpD.s:669    .text._ZN20Adafruit_Fingerprint19getStructuredPacketEP27Adafruit_Fingerprint_Packetj:0000008c .Loc.157
C:\Users\kenne\AppData\Local\Temp\ccpPZdpD.s:670    .text._ZN20Adafruit_Fingerprint19getStructuredPacketEP27Adafruit_Fingerprint_Packetj:0000008c .Loc.158
C:\Users\kenne\AppData\Local\Temp\ccpPZdpD.s:679    .text._ZN20Adafruit_Fingerprint19getStructuredPacketEP27Adafruit_Fingerprint_Packetj:0000009c .Loc.159
C:\Users\kenne\AppData\Local\Temp\ccpPZdpD.s:687    .text._ZN20Adafruit_Fingerprint19getStructuredPacketEP27Adafruit_Fingerprint_Packetj:000000ac L0
C:\Users\kenne\AppData\Local\Temp\ccpPZdpD.s:693    .text._ZN20Adafruit_Fingerprint19getStructuredPacketEP27Adafruit_Fingerprint_Packetj:000000b6 .Loc.160
C:\Users\kenne\AppData\Local\Temp\ccpPZdpD.s:694    .text._ZN20Adafruit_Fingerprint19getStructuredPacketEP27Adafruit_Fingerprint_Packetj:000000b6 .Loc.161
C:\Users\kenne\AppData\Local\Temp\ccpPZdpD.s:695    .text._ZN20Adafruit_Fingerprint19getStructuredPacketEP27Adafruit_Fingerprint_Packetj:000000b6 .Loc.162
C:\Users\kenne\AppData\Local\Temp\ccpPZdpD.s:696    .text._ZN20Adafruit_Fingerprint19getStructuredPacketEP27Adafruit_Fingerprint_Packetj:000000b6 .Loc.163
C:\Users\kenne\AppData\Local\Temp\ccpPZdpD.s:697    .text._ZN20Adafruit_Fingerprint19getStructuredPacketEP27Adafruit_Fingerprint_Packetj:000000b6 .Loc.164
C:\Users\kenne\AppData\Local\Temp\ccpPZdpD.s:698    .text._ZN20Adafruit_Fingerprint19getStructuredPacketEP27Adafruit_Fingerprint_Packetj:000000b6 .Loc.165
C:\Users\kenne\AppData\Local\Temp\ccpPZdpD.s:701    .text._ZN20Adafruit_Fingerprint19getStructuredPacketEP27Adafruit_Fingerprint_Packetj:000000ba .Loc.166
C:\Users\kenne\AppData\Local\Temp\ccpPZdpD.s:706    .text._ZN20Adafruit_Fingerprint19getStructuredPacketEP27Adafruit_Fingerprint_Packetj:000000c2 .Loc.167
C:\Users\kenne\AppData\Local\Temp\ccpPZdpD.s:709    .text._ZN20Adafruit_Fingerprint19getStructuredPacketEP27Adafruit_Fingerprint_Packetj:000000c4 .Loc.168
C:\Users\kenne\AppData\Local\Temp\ccpPZdpD.s:710    .text._ZN20Adafruit_Fingerprint19getStructuredPacketEP27Adafruit_Fingerprint_Packetj:000000c4 .Loc.169
C:\Users\kenne\AppData\Local\Temp\ccpPZdpD.s:711    .text._ZN20Adafruit_Fingerprint19getStructuredPacketEP27Adafruit_Fingerprint_Packetj:000000c4 .Loc.170
C:\Users\kenne\AppData\Local\Temp\ccpPZdpD.s:713    .text._ZN20Adafruit_Fingerprint19getStructuredPacketEP27Adafruit_Fingerprint_Packetj:000000c6 .Loc.171
C:\Users\kenne\AppData\Local\Temp\ccpPZdpD.s:717    .text._ZN20Adafruit_Fingerprint19getStructuredPacketEP27Adafruit_Fingerprint_Packetj:000000cc .Loc.172
C:\Users\kenne\AppData\Local\Temp\ccpPZdpD.s:720    .text._ZN20Adafruit_Fingerprint19getStructuredPacketEP27Adafruit_Fingerprint_Packetj:000000ce .Loc.173
C:\Users\kenne\AppData\Local\Temp\ccpPZdpD.s:721    .text._ZN20Adafruit_Fingerprint19getStructuredPacketEP27Adafruit_Fingerprint_Packetj:000000ce .Loc.174
C:\Users\kenne\AppData\Local\Temp\ccpPZdpD.s:722    .text._ZN20Adafruit_Fingerprint19getStructuredPacketEP27Adafruit_Fingerprint_Packetj:000000ce .Loc.175
C:\Users\kenne\AppData\Local\Temp\ccpPZdpD.s:725    .text._ZN20Adafruit_Fingerprint19getStructuredPacketEP27Adafruit_Fingerprint_Packetj:000000d2 .Loc.176
C:\Users\kenne\AppData\Local\Temp\ccpPZdpD.s:730    .text._ZN20Adafruit_Fingerprint19getStructuredPacketEP27Adafruit_Fingerprint_Packetj:000000da .Loc.177
C:\Users\kenne\AppData\Local\Temp\ccpPZdpD.s:731    .text._ZN20Adafruit_Fingerprint19getStructuredPacketEP27Adafruit_Fingerprint_Packetj:000000da .Loc.178
C:\Users\kenne\AppData\Local\Temp\ccpPZdpD.s:735    .text._ZN20Adafruit_Fingerprint19getStructuredPacketEP27Adafruit_Fingerprint_Packetj:000000e0 .Loc.179
C:\Users\kenne\AppData\Local\Temp\ccpPZdpD.s:741    .text._ZN20Adafruit_Fingerprint19getStructuredPacketEP27Adafruit_Fingerprint_Packetj:000000ea .Loc.180
C:\Users\kenne\AppData\Local\Temp\ccpPZdpD.s:746    .text._ZN20Adafruit_Fingerprint19getStructuredPacketEP27Adafruit_Fingerprint_Packetj:000000ee .Loc.181
C:\Users\kenne\AppData\Local\Temp\ccpPZdpD.s:751    .text._ZN20Adafruit_Fingerprint19getStructuredPacketEP27Adafruit_Fingerprint_Packetj:000000f0 .Loc.182
C:\Users\kenne\AppData\Local\Temp\ccpPZdpD.s:762    .text._ZN20Adafruit_Fingerprint19getStructuredPacketEP27Adafruit_Fingerprint_Packetj:00000104 L0
C:\Users\kenne\AppData\Local\Temp\ccpPZdpD.s:768    .text._ZN20Adafruit_Fingerprint13checkPasswordEv:00000000 _ZN20Adafruit_Fingerprint13checkPasswordEv
C:\Users\kenne\AppData\Local\Temp\ccpPZdpD.s:771    .text._ZN20Adafruit_Fingerprint13checkPasswordEv:00000000 .Loc.183
C:\Users\kenne\AppData\Local\Temp\ccpPZdpD.s:772    .text._ZN20Adafruit_Fingerprint13checkPasswordEv:00000000 L0
C:\Users\kenne\AppData\Local\Temp\ccpPZdpD.s:773    .text._ZN20Adafruit_Fingerprint13checkPasswordEv:00000000 .Loc.184
C:\Users\kenne\AppData\Local\Temp\ccpPZdpD.s:803    .text._ZN20Adafruit_Fingerprint13checkPasswordEv:0000001e .Loc.185
C:\Users\kenne\AppData\Local\Temp\ccpPZdpD.s:809    .text._ZN20Adafruit_Fingerprint13checkPasswordEv:00000026 .Loc.186
C:\Users\kenne\AppData\Local\Temp\ccpPZdpD.s:826    .text._ZN20Adafruit_Fingerprint13checkPasswordEv:00000044 .Loc.187
C:\Users\kenne\AppData\Local\Temp\ccpPZdpD.s:834    .text._ZN20Adafruit_Fingerprint13checkPasswordEv:00000052 .Loc.188
C:\Users\kenne\AppData\Local\Temp\ccpPZdpD.s:841    .text._ZN20Adafruit_Fingerprint13checkPasswordEv:0000005e .Loc.189
C:\Users\kenne\AppData\Local\Temp\ccpPZdpD.s:852    .text._ZN20Adafruit_Fingerprint13checkPasswordEv:00000072 .Loc.190
C:\Users\kenne\AppData\Local\Temp\ccpPZdpD.s:856    .text._ZN20Adafruit_Fingerprint13checkPasswordEv:00000078 .Loc.191
C:\Users\kenne\AppData\Local\Temp\ccpPZdpD.s:857    .text._ZN20Adafruit_Fingerprint13checkPasswordEv:00000078 .Loc.192
C:\Users\kenne\AppData\Local\Temp\ccpPZdpD.s:858    .text._ZN20Adafruit_Fingerprint13checkPasswordEv:00000078 .Loc.193
GAS LISTING C:\Users\kenne\AppData\Local\Temp\ccpPZdpD.s 			page 99


C:\Users\kenne\AppData\Local\Temp\ccpPZdpD.s:860    .text._ZN20Adafruit_Fingerprint13checkPasswordEv:0000007a .Loc.194
C:\Users\kenne\AppData\Local\Temp\ccpPZdpD.s:863    .text._ZN20Adafruit_Fingerprint13checkPasswordEv:0000007e .Loc.195
C:\Users\kenne\AppData\Local\Temp\ccpPZdpD.s:867    .text._ZN20Adafruit_Fingerprint13checkPasswordEv:00000082 .Loc.196
C:\Users\kenne\AppData\Local\Temp\ccpPZdpD.s:871    .text._ZN20Adafruit_Fingerprint13checkPasswordEv:00000084 .Loc.197
C:\Users\kenne\AppData\Local\Temp\ccpPZdpD.s:885    .text._ZN20Adafruit_Fingerprint13checkPasswordEv:0000009c .Loc.198
C:\Users\kenne\AppData\Local\Temp\ccpPZdpD.s:888    .text._ZN20Adafruit_Fingerprint13checkPasswordEv:000000a0 L0
C:\Users\kenne\AppData\Local\Temp\ccpPZdpD.s:894    .text._ZN20Adafruit_Fingerprint14verifyPasswordEv:00000000 _ZN20Adafruit_Fingerprint14verifyPasswordEv
C:\Users\kenne\AppData\Local\Temp\ccpPZdpD.s:897    .text._ZN20Adafruit_Fingerprint14verifyPasswordEv:00000000 .Loc.199
C:\Users\kenne\AppData\Local\Temp\ccpPZdpD.s:898    .text._ZN20Adafruit_Fingerprint14verifyPasswordEv:00000000 L0
C:\Users\kenne\AppData\Local\Temp\ccpPZdpD.s:903    .text._ZN20Adafruit_Fingerprint14verifyPasswordEv:00000000 .Loc.200
C:\Users\kenne\AppData\Local\Temp\ccpPZdpD.s:904    .text._ZN20Adafruit_Fingerprint14verifyPasswordEv:00000000 .Loc.201
C:\Users\kenne\AppData\Local\Temp\ccpPZdpD.s:907    .text._ZN20Adafruit_Fingerprint14verifyPasswordEv:00000004 .Loc.202
C:\Users\kenne\AppData\Local\Temp\ccpPZdpD.s:909    .text._ZN20Adafruit_Fingerprint14verifyPasswordEv:00000006 .Loc.203
C:\Users\kenne\AppData\Local\Temp\ccpPZdpD.s:915    .text._ZN20Adafruit_Fingerprint14verifyPasswordEv:0000000c .Loc.204
C:\Users\kenne\AppData\Local\Temp\ccpPZdpD.s:917    .text._ZN20Adafruit_Fingerprint14verifyPasswordEv:0000000e L0
C:\Users\kenne\AppData\Local\Temp\ccpPZdpD.s:923    .text._ZN20Adafruit_Fingerprint13getParametersEv:00000000 _ZN20Adafruit_Fingerprint13getParametersEv
C:\Users\kenne\AppData\Local\Temp\ccpPZdpD.s:926    .text._ZN20Adafruit_Fingerprint13getParametersEv:00000000 .Loc.205
C:\Users\kenne\AppData\Local\Temp\ccpPZdpD.s:927    .text._ZN20Adafruit_Fingerprint13getParametersEv:00000000 L0
C:\Users\kenne\AppData\Local\Temp\ccpPZdpD.s:928    .text._ZN20Adafruit_Fingerprint13getParametersEv:00000000 .Loc.206
C:\Users\kenne\AppData\Local\Temp\ccpPZdpD.s:958    .text._ZN20Adafruit_Fingerprint13getParametersEv:0000001e .Loc.207
C:\Users\kenne\AppData\Local\Temp\ccpPZdpD.s:961    .text._ZN20Adafruit_Fingerprint13getParametersEv:00000020 .Loc.208
C:\Users\kenne\AppData\Local\Temp\ccpPZdpD.s:963    .text._ZN20Adafruit_Fingerprint13getParametersEv:00000022 .Loc.209
C:\Users\kenne\AppData\Local\Temp\ccpPZdpD.s:974    .text._ZN20Adafruit_Fingerprint13getParametersEv:00000036 .Loc.210
C:\Users\kenne\AppData\Local\Temp\ccpPZdpD.s:981    .text._ZN20Adafruit_Fingerprint13getParametersEv:00000042 .Loc.211
C:\Users\kenne\AppData\Local\Temp\ccpPZdpD.s:992    .text._ZN20Adafruit_Fingerprint13getParametersEv:00000056 .Loc.212
C:\Users\kenne\AppData\Local\Temp\ccpPZdpD.s:995    .text._ZN20Adafruit_Fingerprint13getParametersEv:0000005c L0
C:\Users\kenne\AppData\Local\Temp\ccpPZdpD.s:997    .text._ZN20Adafruit_Fingerprint13getParametersEv:0000005e .Loc.213
C:\Users\kenne\AppData\Local\Temp\ccpPZdpD.s:998    .text._ZN20Adafruit_Fingerprint13getParametersEv:0000005e .Loc.214
C:\Users\kenne\AppData\Local\Temp\ccpPZdpD.s:999    .text._ZN20Adafruit_Fingerprint13getParametersEv:0000005e .Loc.215
C:\Users\kenne\AppData\Local\Temp\ccpPZdpD.s:1001   .text._ZN20Adafruit_Fingerprint13getParametersEv:00000060 .Loc.216
C:\Users\kenne\AppData\Local\Temp\ccpPZdpD.s:1003   .text._ZN20Adafruit_Fingerprint13getParametersEv:00000062 .Loc.217
C:\Users\kenne\AppData\Local\Temp\ccpPZdpD.s:1007   .text._ZN20Adafruit_Fingerprint13getParametersEv:00000068 .Loc.218
C:\Users\kenne\AppData\Local\Temp\ccpPZdpD.s:1008   .text._ZN20Adafruit_Fingerprint13getParametersEv:00000068 .Loc.219
C:\Users\kenne\AppData\Local\Temp\ccpPZdpD.s:1010   .text._ZN20Adafruit_Fingerprint13getParametersEv:0000006a .Loc.220
C:\Users\kenne\AppData\Local\Temp\ccpPZdpD.s:1012   .text._ZN20Adafruit_Fingerprint13getParametersEv:0000006c .Loc.221
C:\Users\kenne\AppData\Local\Temp\ccpPZdpD.s:1015   .text._ZN20Adafruit_Fingerprint13getParametersEv:00000070 .Loc.222
C:\Users\kenne\AppData\Local\Temp\ccpPZdpD.s:1016   .text._ZN20Adafruit_Fingerprint13getParametersEv:00000070 .Loc.223
C:\Users\kenne\AppData\Local\Temp\ccpPZdpD.s:1018   .text._ZN20Adafruit_Fingerprint13getParametersEv:00000072 .Loc.224
C:\Users\kenne\AppData\Local\Temp\ccpPZdpD.s:1020   .text._ZN20Adafruit_Fingerprint13getParametersEv:00000074 .Loc.225
C:\Users\kenne\AppData\Local\Temp\ccpPZdpD.s:1023   .text._ZN20Adafruit_Fingerprint13getParametersEv:00000078 .Loc.226
C:\Users\kenne\AppData\Local\Temp\ccpPZdpD.s:1024   .text._ZN20Adafruit_Fingerprint13getParametersEv:00000078 .Loc.227
C:\Users\kenne\AppData\Local\Temp\ccpPZdpD.s:1026   .text._ZN20Adafruit_Fingerprint13getParametersEv:0000007a .Loc.228
C:\Users\kenne\AppData\Local\Temp\ccpPZdpD.s:1028   .text._ZN20Adafruit_Fingerprint13getParametersEv:0000007c .Loc.229
C:\Users\kenne\AppData\Local\Temp\ccpPZdpD.s:1031   .text._ZN20Adafruit_Fingerprint13getParametersEv:00000080 .Loc.230
C:\Users\kenne\AppData\Local\Temp\ccpPZdpD.s:1032   .text._ZN20Adafruit_Fingerprint13getParametersEv:00000080 .Loc.231
C:\Users\kenne\AppData\Local\Temp\ccpPZdpD.s:1034   .text._ZN20Adafruit_Fingerprint13getParametersEv:00000082 .Loc.232
C:\Users\kenne\AppData\Local\Temp\ccpPZdpD.s:1038   .text._ZN20Adafruit_Fingerprint13getParametersEv:00000088 .Loc.233
C:\Users\kenne\AppData\Local\Temp\ccpPZdpD.s:1043   .text._ZN20Adafruit_Fingerprint13getParametersEv:00000090 .Loc.234
C:\Users\kenne\AppData\Local\Temp\ccpPZdpD.s:1045   .text._ZN20Adafruit_Fingerprint13getParametersEv:00000092 .Loc.235
C:\Users\kenne\AppData\Local\Temp\ccpPZdpD.s:1049   .text._ZN20Adafruit_Fingerprint13getParametersEv:00000098 .Loc.236
C:\Users\kenne\AppData\Local\Temp\ccpPZdpD.s:1053   .text._ZN20Adafruit_Fingerprint13getParametersEv:0000009e .Loc.237
C:\Users\kenne\AppData\Local\Temp\ccpPZdpD.s:1058   .text._ZN20Adafruit_Fingerprint13getParametersEv:000000a6 .Loc.238
C:\Users\kenne\AppData\Local\Temp\ccpPZdpD.s:1060   .text._ZN20Adafruit_Fingerprint13getParametersEv:000000a8 .Loc.239
C:\Users\kenne\AppData\Local\Temp\ccpPZdpD.s:1064   .text._ZN20Adafruit_Fingerprint13getParametersEv:000000ae .Loc.240
C:\Users\kenne\AppData\Local\Temp\ccpPZdpD.s:1069   .text._ZN20Adafruit_Fingerprint13getParametersEv:000000b6 .Loc.241
C:\Users\kenne\AppData\Local\Temp\ccpPZdpD.s:1074   .text._ZN20Adafruit_Fingerprint13getParametersEv:000000be .Loc.242
C:\Users\kenne\AppData\Local\Temp\ccpPZdpD.s:1076   .text._ZN20Adafruit_Fingerprint13getParametersEv:000000c0 .Loc.243
GAS LISTING C:\Users\kenne\AppData\Local\Temp\ccpPZdpD.s 			page 100


C:\Users\kenne\AppData\Local\Temp\ccpPZdpD.s:1078   .text._ZN20Adafruit_Fingerprint13getParametersEv:000000c2 .Loc.244
C:\Users\kenne\AppData\Local\Temp\ccpPZdpD.s:1083   .text._ZN20Adafruit_Fingerprint13getParametersEv:000000ca .Loc.245
C:\Users\kenne\AppData\Local\Temp\ccpPZdpD.s:1084   .text._ZN20Adafruit_Fingerprint13getParametersEv:000000ca .Loc.246
C:\Users\kenne\AppData\Local\Temp\ccpPZdpD.s:1086   .text._ZN20Adafruit_Fingerprint13getParametersEv:000000cc .Loc.247
C:\Users\kenne\AppData\Local\Temp\ccpPZdpD.s:1088   .text._ZN20Adafruit_Fingerprint13getParametersEv:000000ce .Loc.248
C:\Users\kenne\AppData\Local\Temp\ccpPZdpD.s:1091   .text._ZN20Adafruit_Fingerprint13getParametersEv:000000d2 .Loc.249
C:\Users\kenne\AppData\Local\Temp\ccpPZdpD.s:1094   .text._ZN20Adafruit_Fingerprint13getParametersEv:000000d6 .Loc.250
C:\Users\kenne\AppData\Local\Temp\ccpPZdpD.s:1095   .text._ZN20Adafruit_Fingerprint13getParametersEv:000000d6 .Loc.251
C:\Users\kenne\AppData\Local\Temp\ccpPZdpD.s:1101   .text._ZN20Adafruit_Fingerprint13getParametersEv:000000de .Loc.252
C:\Users\kenne\AppData\Local\Temp\ccpPZdpD.s:1102   .text._ZN20Adafruit_Fingerprint13getParametersEv:000000de .Loc.253
C:\Users\kenne\AppData\Local\Temp\ccpPZdpD.s:1104   .text._ZN20Adafruit_Fingerprint13getParametersEv:000000e0 .Loc.254
C:\Users\kenne\AppData\Local\Temp\ccpPZdpD.s:1106   .text._ZN20Adafruit_Fingerprint13getParametersEv:000000e2 .Loc.255
C:\Users\kenne\AppData\Local\Temp\ccpPZdpD.s:1116   .text._ZN20Adafruit_Fingerprint13getParametersEv:000000f4 .Loc.256
C:\Users\kenne\AppData\Local\Temp\ccpPZdpD.s:1120   .text._ZN20Adafruit_Fingerprint13getParametersEv:000000fa .Loc.257
C:\Users\kenne\AppData\Local\Temp\ccpPZdpD.s:1121   .text._ZN20Adafruit_Fingerprint13getParametersEv:000000fa .Loc.258
C:\Users\kenne\AppData\Local\Temp\ccpPZdpD.s:1125   .text._ZN20Adafruit_Fingerprint13getParametersEv:000000fe .Loc.259
C:\Users\kenne\AppData\Local\Temp\ccpPZdpD.s:1129   .text._ZN20Adafruit_Fingerprint13getParametersEv:00000104 .Loc.260
C:\Users\kenne\AppData\Local\Temp\ccpPZdpD.s:1133   .text._ZN20Adafruit_Fingerprint13getParametersEv:0000010a .Loc.261
C:\Users\kenne\AppData\Local\Temp\ccpPZdpD.s:1136   .text._ZN20Adafruit_Fingerprint13getParametersEv:0000010e .Loc.262
C:\Users\kenne\AppData\Local\Temp\ccpPZdpD.s:1137   .text._ZN20Adafruit_Fingerprint13getParametersEv:0000010e .Loc.263
C:\Users\kenne\AppData\Local\Temp\ccpPZdpD.s:1145   .text._ZN20Adafruit_Fingerprint13getParametersEv:0000011a .Loc.264
C:\Users\kenne\AppData\Local\Temp\ccpPZdpD.s:1146   .text._ZN20Adafruit_Fingerprint13getParametersEv:0000011a .Loc.265
C:\Users\kenne\AppData\Local\Temp\ccpPZdpD.s:1154   .text._ZN20Adafruit_Fingerprint13getParametersEv:00000126 .Loc.266
C:\Users\kenne\AppData\Local\Temp\ccpPZdpD.s:1155   .text._ZN20Adafruit_Fingerprint13getParametersEv:00000126 .Loc.267
C:\Users\kenne\AppData\Local\Temp\ccpPZdpD.s:1163   .text._ZN20Adafruit_Fingerprint13getParametersEv:00000132 .Loc.268
C:\Users\kenne\AppData\Local\Temp\ccpPZdpD.s:1167   .text._ZN20Adafruit_Fingerprint13getParametersEv:00000134 .Loc.269
C:\Users\kenne\AppData\Local\Temp\ccpPZdpD.s:1181   .text._ZN20Adafruit_Fingerprint13getParametersEv:0000014c .Loc.270
C:\Users\kenne\AppData\Local\Temp\ccpPZdpD.s:1184   .text._ZN20Adafruit_Fingerprint13getParametersEv:00000150 L0
C:\Users\kenne\AppData\Local\Temp\ccpPZdpD.s:1190   .text._ZN20Adafruit_Fingerprint8getImageEv:00000000 _ZN20Adafruit_Fingerprint8getImageEv
C:\Users\kenne\AppData\Local\Temp\ccpPZdpD.s:1193   .text._ZN20Adafruit_Fingerprint8getImageEv:00000000 .Loc.271
C:\Users\kenne\AppData\Local\Temp\ccpPZdpD.s:1194   .text._ZN20Adafruit_Fingerprint8getImageEv:00000000 L0
C:\Users\kenne\AppData\Local\Temp\ccpPZdpD.s:1195   .text._ZN20Adafruit_Fingerprint8getImageEv:00000000 .Loc.272
C:\Users\kenne\AppData\Local\Temp\ccpPZdpD.s:1225   .text._ZN20Adafruit_Fingerprint8getImageEv:0000001e .Loc.273
C:\Users\kenne\AppData\Local\Temp\ccpPZdpD.s:1228   .text._ZN20Adafruit_Fingerprint8getImageEv:00000020 .Loc.274
C:\Users\kenne\AppData\Local\Temp\ccpPZdpD.s:1230   .text._ZN20Adafruit_Fingerprint8getImageEv:00000022 .Loc.275
C:\Users\kenne\AppData\Local\Temp\ccpPZdpD.s:1241   .text._ZN20Adafruit_Fingerprint8getImageEv:00000036 .Loc.276
C:\Users\kenne\AppData\Local\Temp\ccpPZdpD.s:1249   .text._ZN20Adafruit_Fingerprint8getImageEv:00000044 .Loc.277
C:\Users\kenne\AppData\Local\Temp\ccpPZdpD.s:1261   .text._ZN20Adafruit_Fingerprint8getImageEv:0000005a .Loc.278
C:\Users\kenne\AppData\Local\Temp\ccpPZdpD.s:1265   .text._ZN20Adafruit_Fingerprint8getImageEv:00000060 .Loc.279
C:\Users\kenne\AppData\Local\Temp\ccpPZdpD.s:1266   .text._ZN20Adafruit_Fingerprint8getImageEv:00000060 .Loc.280
C:\Users\kenne\AppData\Local\Temp\ccpPZdpD.s:1270   .text._ZN20Adafruit_Fingerprint8getImageEv:00000064 .Loc.281
C:\Users\kenne\AppData\Local\Temp\ccpPZdpD.s:1274   .text._ZN20Adafruit_Fingerprint8getImageEv:00000066 .Loc.282
C:\Users\kenne\AppData\Local\Temp\ccpPZdpD.s:1288   .text._ZN20Adafruit_Fingerprint8getImageEv:0000007e .Loc.283
C:\Users\kenne\AppData\Local\Temp\ccpPZdpD.s:1290   .text._ZN20Adafruit_Fingerprint8getImageEv:00000080 .Loc.284
C:\Users\kenne\AppData\Local\Temp\ccpPZdpD.s:1292   .text._ZN20Adafruit_Fingerprint8getImageEv:00000082 L0
C:\Users\kenne\AppData\Local\Temp\ccpPZdpD.s:1298   .text._ZN20Adafruit_Fingerprint8image2TzEh:00000000 _ZN20Adafruit_Fingerprint8image2TzEh
C:\Users\kenne\AppData\Local\Temp\ccpPZdpD.s:1301   .text._ZN20Adafruit_Fingerprint8image2TzEh:00000000 .Loc.285
C:\Users\kenne\AppData\Local\Temp\ccpPZdpD.s:1302   .text._ZN20Adafruit_Fingerprint8image2TzEh:00000000 L0
C:\Users\kenne\AppData\Local\Temp\ccpPZdpD.s:1303   .text._ZN20Adafruit_Fingerprint8image2TzEh:00000000 .Loc.286
C:\Users\kenne\AppData\Local\Temp\ccpPZdpD.s:1333   .text._ZN20Adafruit_Fingerprint8image2TzEh:0000001e .Loc.287
C:\Users\kenne\AppData\Local\Temp\ccpPZdpD.s:1338   .text._ZN20Adafruit_Fingerprint8image2TzEh:00000024 .Loc.288
C:\Users\kenne\AppData\Local\Temp\ccpPZdpD.s:1341   .text._ZN20Adafruit_Fingerprint8image2TzEh:00000028 .Loc.289
C:\Users\kenne\AppData\Local\Temp\ccpPZdpD.s:1349   .text._ZN20Adafruit_Fingerprint8image2TzEh:00000034 .Loc.290
C:\Users\kenne\AppData\Local\Temp\ccpPZdpD.s:1354   .text._ZN20Adafruit_Fingerprint8image2TzEh:0000003c .Loc.291
C:\Users\kenne\AppData\Local\Temp\ccpPZdpD.s:1362   .text._ZN20Adafruit_Fingerprint8image2TzEh:0000004a .Loc.292
C:\Users\kenne\AppData\Local\Temp\ccpPZdpD.s:1374   .text._ZN20Adafruit_Fingerprint8image2TzEh:00000060 .Loc.293
C:\Users\kenne\AppData\Local\Temp\ccpPZdpD.s:1378   .text._ZN20Adafruit_Fingerprint8image2TzEh:00000066 .Loc.294
GAS LISTING C:\Users\kenne\AppData\Local\Temp\ccpPZdpD.s 			page 101


C:\Users\kenne\AppData\Local\Temp\ccpPZdpD.s:1379   .text._ZN20Adafruit_Fingerprint8image2TzEh:00000066 .Loc.295
C:\Users\kenne\AppData\Local\Temp\ccpPZdpD.s:1383   .text._ZN20Adafruit_Fingerprint8image2TzEh:0000006a .Loc.296
C:\Users\kenne\AppData\Local\Temp\ccpPZdpD.s:1387   .text._ZN20Adafruit_Fingerprint8image2TzEh:0000006c .Loc.297
C:\Users\kenne\AppData\Local\Temp\ccpPZdpD.s:1401   .text._ZN20Adafruit_Fingerprint8image2TzEh:00000084 .Loc.298
C:\Users\kenne\AppData\Local\Temp\ccpPZdpD.s:1403   .text._ZN20Adafruit_Fingerprint8image2TzEh:00000086 .Loc.299
C:\Users\kenne\AppData\Local\Temp\ccpPZdpD.s:1405   .text._ZN20Adafruit_Fingerprint8image2TzEh:00000088 L0
C:\Users\kenne\AppData\Local\Temp\ccpPZdpD.s:1411   .text._ZN20Adafruit_Fingerprint11createModelEv:00000000 _ZN20Adafruit_Fingerprint11createModelEv
C:\Users\kenne\AppData\Local\Temp\ccpPZdpD.s:1414   .text._ZN20Adafruit_Fingerprint11createModelEv:00000000 .Loc.300
C:\Users\kenne\AppData\Local\Temp\ccpPZdpD.s:1415   .text._ZN20Adafruit_Fingerprint11createModelEv:00000000 L0
C:\Users\kenne\AppData\Local\Temp\ccpPZdpD.s:1416   .text._ZN20Adafruit_Fingerprint11createModelEv:00000000 .Loc.301
C:\Users\kenne\AppData\Local\Temp\ccpPZdpD.s:1446   .text._ZN20Adafruit_Fingerprint11createModelEv:0000001e .Loc.302
C:\Users\kenne\AppData\Local\Temp\ccpPZdpD.s:1449   .text._ZN20Adafruit_Fingerprint11createModelEv:00000020 .Loc.303
C:\Users\kenne\AppData\Local\Temp\ccpPZdpD.s:1451   .text._ZN20Adafruit_Fingerprint11createModelEv:00000022 .Loc.304
C:\Users\kenne\AppData\Local\Temp\ccpPZdpD.s:1462   .text._ZN20Adafruit_Fingerprint11createModelEv:00000036 .Loc.305
C:\Users\kenne\AppData\Local\Temp\ccpPZdpD.s:1470   .text._ZN20Adafruit_Fingerprint11createModelEv:00000044 .Loc.306
C:\Users\kenne\AppData\Local\Temp\ccpPZdpD.s:1482   .text._ZN20Adafruit_Fingerprint11createModelEv:0000005a .Loc.307
C:\Users\kenne\AppData\Local\Temp\ccpPZdpD.s:1486   .text._ZN20Adafruit_Fingerprint11createModelEv:00000060 .Loc.308
C:\Users\kenne\AppData\Local\Temp\ccpPZdpD.s:1487   .text._ZN20Adafruit_Fingerprint11createModelEv:00000060 .Loc.309
C:\Users\kenne\AppData\Local\Temp\ccpPZdpD.s:1491   .text._ZN20Adafruit_Fingerprint11createModelEv:00000064 .Loc.310
C:\Users\kenne\AppData\Local\Temp\ccpPZdpD.s:1495   .text._ZN20Adafruit_Fingerprint11createModelEv:00000066 .Loc.311
C:\Users\kenne\AppData\Local\Temp\ccpPZdpD.s:1509   .text._ZN20Adafruit_Fingerprint11createModelEv:0000007e .Loc.312
C:\Users\kenne\AppData\Local\Temp\ccpPZdpD.s:1511   .text._ZN20Adafruit_Fingerprint11createModelEv:00000080 .Loc.313
C:\Users\kenne\AppData\Local\Temp\ccpPZdpD.s:1513   .text._ZN20Adafruit_Fingerprint11createModelEv:00000082 L0
C:\Users\kenne\AppData\Local\Temp\ccpPZdpD.s:1519   .text._ZN20Adafruit_Fingerprint10storeModelEj:00000000 _ZN20Adafruit_Fingerprint10storeModelEj
C:\Users\kenne\AppData\Local\Temp\ccpPZdpD.s:1522   .text._ZN20Adafruit_Fingerprint10storeModelEj:00000000 .Loc.314
C:\Users\kenne\AppData\Local\Temp\ccpPZdpD.s:1523   .text._ZN20Adafruit_Fingerprint10storeModelEj:00000000 L0
C:\Users\kenne\AppData\Local\Temp\ccpPZdpD.s:1524   .text._ZN20Adafruit_Fingerprint10storeModelEj:00000000 .Loc.315
C:\Users\kenne\AppData\Local\Temp\ccpPZdpD.s:1554   .text._ZN20Adafruit_Fingerprint10storeModelEj:0000001e .Loc.316
C:\Users\kenne\AppData\Local\Temp\ccpPZdpD.s:1561   .text._ZN20Adafruit_Fingerprint10storeModelEj:00000028 .Loc.317
C:\Users\kenne\AppData\Local\Temp\ccpPZdpD.s:1567   .text._ZN20Adafruit_Fingerprint10storeModelEj:00000032 .Loc.318
C:\Users\kenne\AppData\Local\Temp\ccpPZdpD.s:1575   .text._ZN20Adafruit_Fingerprint10storeModelEj:0000003e .Loc.319
C:\Users\kenne\AppData\Local\Temp\ccpPZdpD.s:1580   .text._ZN20Adafruit_Fingerprint10storeModelEj:00000046 .Loc.320
C:\Users\kenne\AppData\Local\Temp\ccpPZdpD.s:1588   .text._ZN20Adafruit_Fingerprint10storeModelEj:00000054 .Loc.321
C:\Users\kenne\AppData\Local\Temp\ccpPZdpD.s:1600   .text._ZN20Adafruit_Fingerprint10storeModelEj:0000006a .Loc.322
C:\Users\kenne\AppData\Local\Temp\ccpPZdpD.s:1604   .text._ZN20Adafruit_Fingerprint10storeModelEj:00000070 .Loc.323
C:\Users\kenne\AppData\Local\Temp\ccpPZdpD.s:1605   .text._ZN20Adafruit_Fingerprint10storeModelEj:00000070 .Loc.324
C:\Users\kenne\AppData\Local\Temp\ccpPZdpD.s:1609   .text._ZN20Adafruit_Fingerprint10storeModelEj:00000074 .Loc.325
C:\Users\kenne\AppData\Local\Temp\ccpPZdpD.s:1613   .text._ZN20Adafruit_Fingerprint10storeModelEj:00000076 .Loc.326
C:\Users\kenne\AppData\Local\Temp\ccpPZdpD.s:1627   .text._ZN20Adafruit_Fingerprint10storeModelEj:0000008e .Loc.327
C:\Users\kenne\AppData\Local\Temp\ccpPZdpD.s:1629   .text._ZN20Adafruit_Fingerprint10storeModelEj:00000090 .Loc.328
C:\Users\kenne\AppData\Local\Temp\ccpPZdpD.s:1631   .text._ZN20Adafruit_Fingerprint10storeModelEj:00000092 L0
C:\Users\kenne\AppData\Local\Temp\ccpPZdpD.s:1637   .text._ZN20Adafruit_Fingerprint9loadModelEj:00000000 _ZN20Adafruit_Fingerprint9loadModelEj
C:\Users\kenne\AppData\Local\Temp\ccpPZdpD.s:1640   .text._ZN20Adafruit_Fingerprint9loadModelEj:00000000 .Loc.329
C:\Users\kenne\AppData\Local\Temp\ccpPZdpD.s:1641   .text._ZN20Adafruit_Fingerprint9loadModelEj:00000000 L0
C:\Users\kenne\AppData\Local\Temp\ccpPZdpD.s:1642   .text._ZN20Adafruit_Fingerprint9loadModelEj:00000000 .Loc.330
C:\Users\kenne\AppData\Local\Temp\ccpPZdpD.s:1672   .text._ZN20Adafruit_Fingerprint9loadModelEj:0000001e .Loc.331
C:\Users\kenne\AppData\Local\Temp\ccpPZdpD.s:1679   .text._ZN20Adafruit_Fingerprint9loadModelEj:00000028 .Loc.332
C:\Users\kenne\AppData\Local\Temp\ccpPZdpD.s:1685   .text._ZN20Adafruit_Fingerprint9loadModelEj:00000032 .Loc.333
C:\Users\kenne\AppData\Local\Temp\ccpPZdpD.s:1693   .text._ZN20Adafruit_Fingerprint9loadModelEj:0000003e .Loc.334
C:\Users\kenne\AppData\Local\Temp\ccpPZdpD.s:1698   .text._ZN20Adafruit_Fingerprint9loadModelEj:00000046 .Loc.335
C:\Users\kenne\AppData\Local\Temp\ccpPZdpD.s:1706   .text._ZN20Adafruit_Fingerprint9loadModelEj:00000054 .Loc.336
C:\Users\kenne\AppData\Local\Temp\ccpPZdpD.s:1718   .text._ZN20Adafruit_Fingerprint9loadModelEj:0000006a .Loc.337
C:\Users\kenne\AppData\Local\Temp\ccpPZdpD.s:1722   .text._ZN20Adafruit_Fingerprint9loadModelEj:00000070 .Loc.338
C:\Users\kenne\AppData\Local\Temp\ccpPZdpD.s:1723   .text._ZN20Adafruit_Fingerprint9loadModelEj:00000070 .Loc.339
C:\Users\kenne\AppData\Local\Temp\ccpPZdpD.s:1727   .text._ZN20Adafruit_Fingerprint9loadModelEj:00000074 .Loc.340
C:\Users\kenne\AppData\Local\Temp\ccpPZdpD.s:1731   .text._ZN20Adafruit_Fingerprint9loadModelEj:00000076 .Loc.341
C:\Users\kenne\AppData\Local\Temp\ccpPZdpD.s:1745   .text._ZN20Adafruit_Fingerprint9loadModelEj:0000008e .Loc.342
GAS LISTING C:\Users\kenne\AppData\Local\Temp\ccpPZdpD.s 			page 102


C:\Users\kenne\AppData\Local\Temp\ccpPZdpD.s:1747   .text._ZN20Adafruit_Fingerprint9loadModelEj:00000090 .Loc.343
C:\Users\kenne\AppData\Local\Temp\ccpPZdpD.s:1749   .text._ZN20Adafruit_Fingerprint9loadModelEj:00000092 L0
C:\Users\kenne\AppData\Local\Temp\ccpPZdpD.s:1755   .text._ZN20Adafruit_Fingerprint8getModelEv:00000000 _ZN20Adafruit_Fingerprint8getModelEv
C:\Users\kenne\AppData\Local\Temp\ccpPZdpD.s:1758   .text._ZN20Adafruit_Fingerprint8getModelEv:00000000 .Loc.344
C:\Users\kenne\AppData\Local\Temp\ccpPZdpD.s:1759   .text._ZN20Adafruit_Fingerprint8getModelEv:00000000 L0
C:\Users\kenne\AppData\Local\Temp\ccpPZdpD.s:1760   .text._ZN20Adafruit_Fingerprint8getModelEv:00000000 .Loc.345
C:\Users\kenne\AppData\Local\Temp\ccpPZdpD.s:1790   .text._ZN20Adafruit_Fingerprint8getModelEv:0000001e .Loc.346
C:\Users\kenne\AppData\Local\Temp\ccpPZdpD.s:1794   .text._ZN20Adafruit_Fingerprint8getModelEv:00000022 .Loc.347
C:\Users\kenne\AppData\Local\Temp\ccpPZdpD.s:1797   .text._ZN20Adafruit_Fingerprint8getModelEv:00000026 .Loc.348
C:\Users\kenne\AppData\Local\Temp\ccpPZdpD.s:1808   .text._ZN20Adafruit_Fingerprint8getModelEv:0000003a .Loc.349
C:\Users\kenne\AppData\Local\Temp\ccpPZdpD.s:1816   .text._ZN20Adafruit_Fingerprint8getModelEv:00000048 .Loc.350
C:\Users\kenne\AppData\Local\Temp\ccpPZdpD.s:1828   .text._ZN20Adafruit_Fingerprint8getModelEv:0000005e .Loc.351
C:\Users\kenne\AppData\Local\Temp\ccpPZdpD.s:1832   .text._ZN20Adafruit_Fingerprint8getModelEv:00000064 .Loc.352
C:\Users\kenne\AppData\Local\Temp\ccpPZdpD.s:1833   .text._ZN20Adafruit_Fingerprint8getModelEv:00000064 .Loc.353
C:\Users\kenne\AppData\Local\Temp\ccpPZdpD.s:1837   .text._ZN20Adafruit_Fingerprint8getModelEv:00000068 .Loc.354
C:\Users\kenne\AppData\Local\Temp\ccpPZdpD.s:1841   .text._ZN20Adafruit_Fingerprint8getModelEv:0000006a .Loc.355
C:\Users\kenne\AppData\Local\Temp\ccpPZdpD.s:1855   .text._ZN20Adafruit_Fingerprint8getModelEv:00000082 .Loc.356
C:\Users\kenne\AppData\Local\Temp\ccpPZdpD.s:1857   .text._ZN20Adafruit_Fingerprint8getModelEv:00000084 .Loc.357
C:\Users\kenne\AppData\Local\Temp\ccpPZdpD.s:1859   .text._ZN20Adafruit_Fingerprint8getModelEv:00000086 L0
C:\Users\kenne\AppData\Local\Temp\ccpPZdpD.s:1865   .text._ZN20Adafruit_Fingerprint11deleteModelEj:00000000 _ZN20Adafruit_Fingerprint11deleteModelEj
C:\Users\kenne\AppData\Local\Temp\ccpPZdpD.s:1868   .text._ZN20Adafruit_Fingerprint11deleteModelEj:00000000 .Loc.358
C:\Users\kenne\AppData\Local\Temp\ccpPZdpD.s:1869   .text._ZN20Adafruit_Fingerprint11deleteModelEj:00000000 L0
C:\Users\kenne\AppData\Local\Temp\ccpPZdpD.s:1870   .text._ZN20Adafruit_Fingerprint11deleteModelEj:00000000 .Loc.359
C:\Users\kenne\AppData\Local\Temp\ccpPZdpD.s:1900   .text._ZN20Adafruit_Fingerprint11deleteModelEj:0000001e .Loc.360
C:\Users\kenne\AppData\Local\Temp\ccpPZdpD.s:1906   .text._ZN20Adafruit_Fingerprint11deleteModelEj:00000026 .Loc.361
C:\Users\kenne\AppData\Local\Temp\ccpPZdpD.s:1918   .text._ZN20Adafruit_Fingerprint11deleteModelEj:0000003a .Loc.362
C:\Users\kenne\AppData\Local\Temp\ccpPZdpD.s:1923   .text._ZN20Adafruit_Fingerprint11deleteModelEj:00000040 .Loc.363
C:\Users\kenne\AppData\Local\Temp\ccpPZdpD.s:1928   .text._ZN20Adafruit_Fingerprint11deleteModelEj:00000048 .Loc.364
C:\Users\kenne\AppData\Local\Temp\ccpPZdpD.s:1936   .text._ZN20Adafruit_Fingerprint11deleteModelEj:00000056 .Loc.365
C:\Users\kenne\AppData\Local\Temp\ccpPZdpD.s:1948   .text._ZN20Adafruit_Fingerprint11deleteModelEj:0000006c .Loc.366
C:\Users\kenne\AppData\Local\Temp\ccpPZdpD.s:1952   .text._ZN20Adafruit_Fingerprint11deleteModelEj:00000072 .Loc.367
C:\Users\kenne\AppData\Local\Temp\ccpPZdpD.s:1953   .text._ZN20Adafruit_Fingerprint11deleteModelEj:00000072 .Loc.368
C:\Users\kenne\AppData\Local\Temp\ccpPZdpD.s:1957   .text._ZN20Adafruit_Fingerprint11deleteModelEj:00000076 .Loc.369
C:\Users\kenne\AppData\Local\Temp\ccpPZdpD.s:1961   .text._ZN20Adafruit_Fingerprint11deleteModelEj:00000078 .Loc.370
C:\Users\kenne\AppData\Local\Temp\ccpPZdpD.s:1975   .text._ZN20Adafruit_Fingerprint11deleteModelEj:00000090 .Loc.371
C:\Users\kenne\AppData\Local\Temp\ccpPZdpD.s:1977   .text._ZN20Adafruit_Fingerprint11deleteModelEj:00000092 .Loc.372
C:\Users\kenne\AppData\Local\Temp\ccpPZdpD.s:1979   .text._ZN20Adafruit_Fingerprint11deleteModelEj:00000094 L0
C:\Users\kenne\AppData\Local\Temp\ccpPZdpD.s:1985   .text._ZN20Adafruit_Fingerprint13emptyDatabaseEv:00000000 _ZN20Adafruit_Fingerprint13emptyDatabaseEv
C:\Users\kenne\AppData\Local\Temp\ccpPZdpD.s:1988   .text._ZN20Adafruit_Fingerprint13emptyDatabaseEv:00000000 .Loc.373
C:\Users\kenne\AppData\Local\Temp\ccpPZdpD.s:1989   .text._ZN20Adafruit_Fingerprint13emptyDatabaseEv:00000000 L0
C:\Users\kenne\AppData\Local\Temp\ccpPZdpD.s:1990   .text._ZN20Adafruit_Fingerprint13emptyDatabaseEv:00000000 .Loc.374
C:\Users\kenne\AppData\Local\Temp\ccpPZdpD.s:2020   .text._ZN20Adafruit_Fingerprint13emptyDatabaseEv:0000001e .Loc.375
C:\Users\kenne\AppData\Local\Temp\ccpPZdpD.s:2023   .text._ZN20Adafruit_Fingerprint13emptyDatabaseEv:00000020 .Loc.376
C:\Users\kenne\AppData\Local\Temp\ccpPZdpD.s:2025   .text._ZN20Adafruit_Fingerprint13emptyDatabaseEv:00000022 .Loc.377
C:\Users\kenne\AppData\Local\Temp\ccpPZdpD.s:2036   .text._ZN20Adafruit_Fingerprint13emptyDatabaseEv:00000036 .Loc.378
C:\Users\kenne\AppData\Local\Temp\ccpPZdpD.s:2044   .text._ZN20Adafruit_Fingerprint13emptyDatabaseEv:00000044 .Loc.379
C:\Users\kenne\AppData\Local\Temp\ccpPZdpD.s:2056   .text._ZN20Adafruit_Fingerprint13emptyDatabaseEv:0000005a .Loc.380
C:\Users\kenne\AppData\Local\Temp\ccpPZdpD.s:2060   .text._ZN20Adafruit_Fingerprint13emptyDatabaseEv:00000060 .Loc.381
C:\Users\kenne\AppData\Local\Temp\ccpPZdpD.s:2061   .text._ZN20Adafruit_Fingerprint13emptyDatabaseEv:00000060 .Loc.382
C:\Users\kenne\AppData\Local\Temp\ccpPZdpD.s:2065   .text._ZN20Adafruit_Fingerprint13emptyDatabaseEv:00000064 .Loc.383
C:\Users\kenne\AppData\Local\Temp\ccpPZdpD.s:2069   .text._ZN20Adafruit_Fingerprint13emptyDatabaseEv:00000066 .Loc.384
C:\Users\kenne\AppData\Local\Temp\ccpPZdpD.s:2083   .text._ZN20Adafruit_Fingerprint13emptyDatabaseEv:0000007e .Loc.385
C:\Users\kenne\AppData\Local\Temp\ccpPZdpD.s:2085   .text._ZN20Adafruit_Fingerprint13emptyDatabaseEv:00000080 .Loc.386
C:\Users\kenne\AppData\Local\Temp\ccpPZdpD.s:2087   .text._ZN20Adafruit_Fingerprint13emptyDatabaseEv:00000082 L0
C:\Users\kenne\AppData\Local\Temp\ccpPZdpD.s:2099   .text._ZN20Adafruit_Fingerprint16fingerFastSearchEv:00000000 _ZN20Adafruit_Fingerprint16fingerFastSearchEv
C:\Users\kenne\AppData\Local\Temp\ccpPZdpD.s:2102   .text._ZN20Adafruit_Fingerprint16fingerFastSearchEv:00000000 .Loc.387
C:\Users\kenne\AppData\Local\Temp\ccpPZdpD.s:2103   .text._ZN20Adafruit_Fingerprint16fingerFastSearchEv:00000000 L0
GAS LISTING C:\Users\kenne\AppData\Local\Temp\ccpPZdpD.s 			page 103


C:\Users\kenne\AppData\Local\Temp\ccpPZdpD.s:2104   .text._ZN20Adafruit_Fingerprint16fingerFastSearchEv:00000000 .Loc.388
C:\Users\kenne\AppData\Local\Temp\ccpPZdpD.s:2134   .text._ZN20Adafruit_Fingerprint16fingerFastSearchEv:0000001e .Loc.389
C:\Users\kenne\AppData\Local\Temp\ccpPZdpD.s:2137   .text._ZN20Adafruit_Fingerprint16fingerFastSearchEv:00000020 .Loc.390
C:\Users\kenne\AppData\Local\Temp\ccpPZdpD.s:2147   .text._ZN20Adafruit_Fingerprint16fingerFastSearchEv:00000030 .Loc.391
C:\Users\kenne\AppData\Local\Temp\ccpPZdpD.s:2158   .text._ZN20Adafruit_Fingerprint16fingerFastSearchEv:00000044 .Loc.392
C:\Users\kenne\AppData\Local\Temp\ccpPZdpD.s:2165   .text._ZN20Adafruit_Fingerprint16fingerFastSearchEv:00000050 .Loc.393
C:\Users\kenne\AppData\Local\Temp\ccpPZdpD.s:2176   .text._ZN20Adafruit_Fingerprint16fingerFastSearchEv:00000064 .Loc.394
C:\Users\kenne\AppData\Local\Temp\ccpPZdpD.s:2180   .text._ZN20Adafruit_Fingerprint16fingerFastSearchEv:0000006a .Loc.395
C:\Users\kenne\AppData\Local\Temp\ccpPZdpD.s:2181   .text._ZN20Adafruit_Fingerprint16fingerFastSearchEv:0000006a .Loc.396
C:\Users\kenne\AppData\Local\Temp\ccpPZdpD.s:2182   .text._ZN20Adafruit_Fingerprint16fingerFastSearchEv:0000006a .Loc.397
C:\Users\kenne\AppData\Local\Temp\ccpPZdpD.s:2188   .text._ZN20Adafruit_Fingerprint16fingerFastSearchEv:00000074 .Loc.398
C:\Users\kenne\AppData\Local\Temp\ccpPZdpD.s:2189   .text._ZN20Adafruit_Fingerprint16fingerFastSearchEv:00000074 .Loc.399
C:\Users\kenne\AppData\Local\Temp\ccpPZdpD.s:2192   .text._ZN20Adafruit_Fingerprint16fingerFastSearchEv:00000078 .Loc.400
C:\Users\kenne\AppData\Local\Temp\ccpPZdpD.s:2193   .text._ZN20Adafruit_Fingerprint16fingerFastSearchEv:00000078 .Loc.401
C:\Users\kenne\AppData\Local\Temp\ccpPZdpD.s:2196   .text._ZN20Adafruit_Fingerprint16fingerFastSearchEv:0000007c .Loc.402
C:\Users\kenne\AppData\Local\Temp\ccpPZdpD.s:2199   .text._ZN20Adafruit_Fingerprint16fingerFastSearchEv:00000080 .Loc.403
C:\Users\kenne\AppData\Local\Temp\ccpPZdpD.s:2200   .text._ZN20Adafruit_Fingerprint16fingerFastSearchEv:00000080 .Loc.404
C:\Users\kenne\AppData\Local\Temp\ccpPZdpD.s:2205   .text._ZN20Adafruit_Fingerprint16fingerFastSearchEv:00000088 .Loc.405
C:\Users\kenne\AppData\Local\Temp\ccpPZdpD.s:2206   .text._ZN20Adafruit_Fingerprint16fingerFastSearchEv:00000088 .Loc.406
C:\Users\kenne\AppData\Local\Temp\ccpPZdpD.s:2208   .text._ZN20Adafruit_Fingerprint16fingerFastSearchEv:0000008a .Loc.407
C:\Users\kenne\AppData\Local\Temp\ccpPZdpD.s:2212   .text._ZN20Adafruit_Fingerprint16fingerFastSearchEv:00000090 .Loc.408
C:\Users\kenne\AppData\Local\Temp\ccpPZdpD.s:2213   .text._ZN20Adafruit_Fingerprint16fingerFastSearchEv:00000090 .Loc.409
C:\Users\kenne\AppData\Local\Temp\ccpPZdpD.s:2216   .text._ZN20Adafruit_Fingerprint16fingerFastSearchEv:00000094 .Loc.410
C:\Users\kenne\AppData\Local\Temp\ccpPZdpD.s:2219   .text._ZN20Adafruit_Fingerprint16fingerFastSearchEv:00000098 .Loc.411
C:\Users\kenne\AppData\Local\Temp\ccpPZdpD.s:2220   .text._ZN20Adafruit_Fingerprint16fingerFastSearchEv:00000098 .Loc.412
C:\Users\kenne\AppData\Local\Temp\ccpPZdpD.s:2225   .text._ZN20Adafruit_Fingerprint16fingerFastSearchEv:000000a0 .Loc.413
C:\Users\kenne\AppData\Local\Temp\ccpPZdpD.s:2226   .text._ZN20Adafruit_Fingerprint16fingerFastSearchEv:000000a0 .Loc.414
C:\Users\kenne\AppData\Local\Temp\ccpPZdpD.s:2228   .text._ZN20Adafruit_Fingerprint16fingerFastSearchEv:000000a2 .Loc.415
C:\Users\kenne\AppData\Local\Temp\ccpPZdpD.s:2232   .text._ZN20Adafruit_Fingerprint16fingerFastSearchEv:000000a8 .Loc.416
C:\Users\kenne\AppData\Local\Temp\ccpPZdpD.s:2233   .text._ZN20Adafruit_Fingerprint16fingerFastSearchEv:000000a8 .Loc.417
C:\Users\kenne\AppData\Local\Temp\ccpPZdpD.s:2237   .text._ZN20Adafruit_Fingerprint16fingerFastSearchEv:000000ac .Loc.418
C:\Users\kenne\AppData\Local\Temp\ccpPZdpD.s:2241   .text._ZN20Adafruit_Fingerprint16fingerFastSearchEv:000000ae .Loc.419
C:\Users\kenne\AppData\Local\Temp\ccpPZdpD.s:2255   .text._ZN20Adafruit_Fingerprint16fingerFastSearchEv:000000c6 .Loc.420
C:\Users\kenne\AppData\Local\Temp\ccpPZdpD.s:2258   .text._ZN20Adafruit_Fingerprint16fingerFastSearchEv:000000ca L0
C:\Users\kenne\AppData\Local\Temp\ccpPZdpD.s:2264   .text._ZN20Adafruit_Fingerprint10LEDcontrolEb:00000000 _ZN20Adafruit_Fingerprint10LEDcontrolEb
C:\Users\kenne\AppData\Local\Temp\ccpPZdpD.s:2267   .text._ZN20Adafruit_Fingerprint10LEDcontrolEb:00000000 .Loc.421
C:\Users\kenne\AppData\Local\Temp\ccpPZdpD.s:2268   .text._ZN20Adafruit_Fingerprint10LEDcontrolEb:00000000 L0
C:\Users\kenne\AppData\Local\Temp\ccpPZdpD.s:2269   .text._ZN20Adafruit_Fingerprint10LEDcontrolEb:00000000 .Loc.422
C:\Users\kenne\AppData\Local\Temp\ccpPZdpD.s:2299   .text._ZN20Adafruit_Fingerprint10LEDcontrolEb:0000001e .Loc.423
C:\Users\kenne\AppData\Local\Temp\ccpPZdpD.s:2304   .text._ZN20Adafruit_Fingerprint10LEDcontrolEb:00000022 .Loc.424
C:\Users\kenne\AppData\Local\Temp\ccpPZdpD.s:2307   .text._ZN20Adafruit_Fingerprint10LEDcontrolEb:00000024 .Loc.425
C:\Users\kenne\AppData\Local\Temp\ccpPZdpD.s:2311   .text._ZN20Adafruit_Fingerprint10LEDcontrolEb:0000002a .Loc.426
C:\Users\kenne\AppData\Local\Temp\ccpPZdpD.s:2319   .text._ZN20Adafruit_Fingerprint10LEDcontrolEb:00000036 .Loc.427
C:\Users\kenne\AppData\Local\Temp\ccpPZdpD.s:2324   .text._ZN20Adafruit_Fingerprint10LEDcontrolEb:0000003e .Loc.428
C:\Users\kenne\AppData\Local\Temp\ccpPZdpD.s:2332   .text._ZN20Adafruit_Fingerprint10LEDcontrolEb:0000004c .Loc.429
C:\Users\kenne\AppData\Local\Temp\ccpPZdpD.s:2344   .text._ZN20Adafruit_Fingerprint10LEDcontrolEb:00000062 .Loc.430
C:\Users\kenne\AppData\Local\Temp\ccpPZdpD.s:2348   .text._ZN20Adafruit_Fingerprint10LEDcontrolEb:00000068 .Loc.431
C:\Users\kenne\AppData\Local\Temp\ccpPZdpD.s:2350   .text._ZN20Adafruit_Fingerprint10LEDcontrolEb:0000006a .Loc.432
C:\Users\kenne\AppData\Local\Temp\ccpPZdpD.s:2355   .text._ZN20Adafruit_Fingerprint10LEDcontrolEb:0000006a .Loc.433
C:\Users\kenne\AppData\Local\Temp\ccpPZdpD.s:2371   .text._ZN20Adafruit_Fingerprint10LEDcontrolEb:00000082 .Loc.434
C:\Users\kenne\AppData\Local\Temp\ccpPZdpD.s:2372   .text._ZN20Adafruit_Fingerprint10LEDcontrolEb:00000082 .Loc.435
C:\Users\kenne\AppData\Local\Temp\ccpPZdpD.s:2376   .text._ZN20Adafruit_Fingerprint10LEDcontrolEb:00000086 .Loc.436
C:\Users\kenne\AppData\Local\Temp\ccpPZdpD.s:2381   .text._ZN20Adafruit_Fingerprint10LEDcontrolEb:0000008a .Loc.437
C:\Users\kenne\AppData\Local\Temp\ccpPZdpD.s:2384   .text._ZN20Adafruit_Fingerprint10LEDcontrolEb:0000008a .Loc.438
C:\Users\kenne\AppData\Local\Temp\ccpPZdpD.s:2387   .text._ZN20Adafruit_Fingerprint10LEDcontrolEb:0000008c .Loc.439
C:\Users\kenne\AppData\Local\Temp\ccpPZdpD.s:2391   .text._ZN20Adafruit_Fingerprint10LEDcontrolEb:00000092 .Loc.440
C:\Users\kenne\AppData\Local\Temp\ccpPZdpD.s:2399   .text._ZN20Adafruit_Fingerprint10LEDcontrolEb:0000009e .Loc.441
GAS LISTING C:\Users\kenne\AppData\Local\Temp\ccpPZdpD.s 			page 104


C:\Users\kenne\AppData\Local\Temp\ccpPZdpD.s:2404   .text._ZN20Adafruit_Fingerprint10LEDcontrolEb:000000a6 .Loc.442
C:\Users\kenne\AppData\Local\Temp\ccpPZdpD.s:2412   .text._ZN20Adafruit_Fingerprint10LEDcontrolEb:000000b4 .Loc.443
C:\Users\kenne\AppData\Local\Temp\ccpPZdpD.s:2424   .text._ZN20Adafruit_Fingerprint10LEDcontrolEb:000000ca .Loc.444
C:\Users\kenne\AppData\Local\Temp\ccpPZdpD.s:2428   .text._ZN20Adafruit_Fingerprint10LEDcontrolEb:000000d0 .Loc.445
C:\Users\kenne\AppData\Local\Temp\ccpPZdpD.s:2430   .text._ZN20Adafruit_Fingerprint10LEDcontrolEb:000000d2 .Loc.446
C:\Users\kenne\AppData\Local\Temp\ccpPZdpD.s:2433   .text._ZN20Adafruit_Fingerprint10LEDcontrolEb:000000d4 .Loc.447
C:\Users\kenne\AppData\Local\Temp\ccpPZdpD.s:2434   .text._ZN20Adafruit_Fingerprint10LEDcontrolEb:000000d4 .Loc.448
C:\Users\kenne\AppData\Local\Temp\ccpPZdpD.s:2438   .text._ZN20Adafruit_Fingerprint10LEDcontrolEb:000000d8 .Loc.449
C:\Users\kenne\AppData\Local\Temp\ccpPZdpD.s:2443   .text._ZN20Adafruit_Fingerprint10LEDcontrolEb:000000dc L0
C:\Users\kenne\AppData\Local\Temp\ccpPZdpD.s:2449   .text._ZN20Adafruit_Fingerprint10LEDcontrolEhhhh:00000000 _ZN20Adafruit_Fingerprint10LEDcontrolEhhhh
C:\Users\kenne\AppData\Local\Temp\ccpPZdpD.s:2452   .text._ZN20Adafruit_Fingerprint10LEDcontrolEhhhh:00000000 .Loc.450
C:\Users\kenne\AppData\Local\Temp\ccpPZdpD.s:2453   .text._ZN20Adafruit_Fingerprint10LEDcontrolEhhhh:00000000 L0
C:\Users\kenne\AppData\Local\Temp\ccpPZdpD.s:2454   .text._ZN20Adafruit_Fingerprint10LEDcontrolEhhhh:00000000 .Loc.451
C:\Users\kenne\AppData\Local\Temp\ccpPZdpD.s:2487   .text._ZN20Adafruit_Fingerprint10LEDcontrolEhhhh:00000020 .Loc.452
C:\Users\kenne\AppData\Local\Temp\ccpPZdpD.s:2492   .text._ZN20Adafruit_Fingerprint10LEDcontrolEhhhh:00000026 .Loc.453
C:\Users\kenne\AppData\Local\Temp\ccpPZdpD.s:2504   .text._ZN20Adafruit_Fingerprint10LEDcontrolEhhhh:0000003a .Loc.454
C:\Users\kenne\AppData\Local\Temp\ccpPZdpD.s:2507   .text._ZN20Adafruit_Fingerprint10LEDcontrolEhhhh:0000003c .Loc.455
C:\Users\kenne\AppData\Local\Temp\ccpPZdpD.s:2511   .text._ZN20Adafruit_Fingerprint10LEDcontrolEhhhh:00000040 .Loc.456
C:\Users\kenne\AppData\Local\Temp\ccpPZdpD.s:2514   .text._ZN20Adafruit_Fingerprint10LEDcontrolEhhhh:00000042 .Loc.457
C:\Users\kenne\AppData\Local\Temp\ccpPZdpD.s:2519   .text._ZN20Adafruit_Fingerprint10LEDcontrolEhhhh:0000004a .Loc.458
C:\Users\kenne\AppData\Local\Temp\ccpPZdpD.s:2527   .text._ZN20Adafruit_Fingerprint10LEDcontrolEhhhh:00000058 .Loc.459
C:\Users\kenne\AppData\Local\Temp\ccpPZdpD.s:2539   .text._ZN20Adafruit_Fingerprint10LEDcontrolEhhhh:0000006e .Loc.460
C:\Users\kenne\AppData\Local\Temp\ccpPZdpD.s:2543   .text._ZN20Adafruit_Fingerprint10LEDcontrolEhhhh:00000074 .Loc.461
C:\Users\kenne\AppData\Local\Temp\ccpPZdpD.s:2544   .text._ZN20Adafruit_Fingerprint10LEDcontrolEhhhh:00000074 .Loc.462
C:\Users\kenne\AppData\Local\Temp\ccpPZdpD.s:2548   .text._ZN20Adafruit_Fingerprint10LEDcontrolEhhhh:00000078 .Loc.463
C:\Users\kenne\AppData\Local\Temp\ccpPZdpD.s:2552   .text._ZN20Adafruit_Fingerprint10LEDcontrolEhhhh:0000007a .Loc.464
C:\Users\kenne\AppData\Local\Temp\ccpPZdpD.s:2565   .text._ZN20Adafruit_Fingerprint10LEDcontrolEhhhh:00000090 .Loc.465
C:\Users\kenne\AppData\Local\Temp\ccpPZdpD.s:2570   .text._ZN20Adafruit_Fingerprint10LEDcontrolEhhhh:00000094 .Loc.466
C:\Users\kenne\AppData\Local\Temp\ccpPZdpD.s:2572   .text._ZN20Adafruit_Fingerprint10LEDcontrolEhhhh:00000096 .Loc.467
C:\Users\kenne\AppData\Local\Temp\ccpPZdpD.s:2574   .text._ZN20Adafruit_Fingerprint10LEDcontrolEhhhh:00000098 L0
C:\Users\kenne\AppData\Local\Temp\ccpPZdpD.s:2580   .text._ZN20Adafruit_Fingerprint12fingerSearchEh:00000000 _ZN20Adafruit_Fingerprint12fingerSearchEh
C:\Users\kenne\AppData\Local\Temp\ccpPZdpD.s:2583   .text._ZN20Adafruit_Fingerprint12fingerSearchEh:00000000 .Loc.468
C:\Users\kenne\AppData\Local\Temp\ccpPZdpD.s:2584   .text._ZN20Adafruit_Fingerprint12fingerSearchEh:00000000 L0
C:\Users\kenne\AppData\Local\Temp\ccpPZdpD.s:2585   .text._ZN20Adafruit_Fingerprint12fingerSearchEh:00000000 .Loc.469
C:\Users\kenne\AppData\Local\Temp\ccpPZdpD.s:2615   .text._ZN20Adafruit_Fingerprint12fingerSearchEh:0000001e .Loc.470
C:\Users\kenne\AppData\Local\Temp\ccpPZdpD.s:2621   .text._ZN20Adafruit_Fingerprint12fingerSearchEh:00000026 .Loc.471
C:\Users\kenne\AppData\Local\Temp\ccpPZdpD.s:2635   .text._ZN20Adafruit_Fingerprint12fingerSearchEh:0000003e .Loc.472
C:\Users\kenne\AppData\Local\Temp\ccpPZdpD.s:2640   .text._ZN20Adafruit_Fingerprint12fingerSearchEh:00000044 .Loc.473
C:\Users\kenne\AppData\Local\Temp\ccpPZdpD.s:2645   .text._ZN20Adafruit_Fingerprint12fingerSearchEh:0000004c .Loc.474
C:\Users\kenne\AppData\Local\Temp\ccpPZdpD.s:2652   .text._ZN20Adafruit_Fingerprint12fingerSearchEh:00000058 .Loc.475
C:\Users\kenne\AppData\Local\Temp\ccpPZdpD.s:2663   .text._ZN20Adafruit_Fingerprint12fingerSearchEh:0000006c .Loc.476
C:\Users\kenne\AppData\Local\Temp\ccpPZdpD.s:2667   .text._ZN20Adafruit_Fingerprint12fingerSearchEh:00000072 .Loc.477
C:\Users\kenne\AppData\Local\Temp\ccpPZdpD.s:2668   .text._ZN20Adafruit_Fingerprint12fingerSearchEh:00000072 .Loc.478
C:\Users\kenne\AppData\Local\Temp\ccpPZdpD.s:2669   .text._ZN20Adafruit_Fingerprint12fingerSearchEh:00000072 .Loc.479
C:\Users\kenne\AppData\Local\Temp\ccpPZdpD.s:2675   .text._ZN20Adafruit_Fingerprint12fingerSearchEh:0000007c .Loc.480
C:\Users\kenne\AppData\Local\Temp\ccpPZdpD.s:2676   .text._ZN20Adafruit_Fingerprint12fingerSearchEh:0000007c .Loc.481
C:\Users\kenne\AppData\Local\Temp\ccpPZdpD.s:2679   .text._ZN20Adafruit_Fingerprint12fingerSearchEh:00000080 .Loc.482
C:\Users\kenne\AppData\Local\Temp\ccpPZdpD.s:2680   .text._ZN20Adafruit_Fingerprint12fingerSearchEh:00000080 .Loc.483
C:\Users\kenne\AppData\Local\Temp\ccpPZdpD.s:2683   .text._ZN20Adafruit_Fingerprint12fingerSearchEh:00000084 .Loc.484
C:\Users\kenne\AppData\Local\Temp\ccpPZdpD.s:2686   .text._ZN20Adafruit_Fingerprint12fingerSearchEh:00000088 .Loc.485
C:\Users\kenne\AppData\Local\Temp\ccpPZdpD.s:2687   .text._ZN20Adafruit_Fingerprint12fingerSearchEh:00000088 .Loc.486
C:\Users\kenne\AppData\Local\Temp\ccpPZdpD.s:2692   .text._ZN20Adafruit_Fingerprint12fingerSearchEh:00000090 .Loc.487
C:\Users\kenne\AppData\Local\Temp\ccpPZdpD.s:2693   .text._ZN20Adafruit_Fingerprint12fingerSearchEh:00000090 .Loc.488
C:\Users\kenne\AppData\Local\Temp\ccpPZdpD.s:2695   .text._ZN20Adafruit_Fingerprint12fingerSearchEh:00000092 .Loc.489
C:\Users\kenne\AppData\Local\Temp\ccpPZdpD.s:2699   .text._ZN20Adafruit_Fingerprint12fingerSearchEh:00000098 .Loc.490
C:\Users\kenne\AppData\Local\Temp\ccpPZdpD.s:2700   .text._ZN20Adafruit_Fingerprint12fingerSearchEh:00000098 .Loc.491
C:\Users\kenne\AppData\Local\Temp\ccpPZdpD.s:2703   .text._ZN20Adafruit_Fingerprint12fingerSearchEh:0000009c .Loc.492
GAS LISTING C:\Users\kenne\AppData\Local\Temp\ccpPZdpD.s 			page 105


C:\Users\kenne\AppData\Local\Temp\ccpPZdpD.s:2706   .text._ZN20Adafruit_Fingerprint12fingerSearchEh:000000a0 .Loc.493
C:\Users\kenne\AppData\Local\Temp\ccpPZdpD.s:2707   .text._ZN20Adafruit_Fingerprint12fingerSearchEh:000000a0 .Loc.494
C:\Users\kenne\AppData\Local\Temp\ccpPZdpD.s:2712   .text._ZN20Adafruit_Fingerprint12fingerSearchEh:000000a8 .Loc.495
C:\Users\kenne\AppData\Local\Temp\ccpPZdpD.s:2713   .text._ZN20Adafruit_Fingerprint12fingerSearchEh:000000a8 .Loc.496
C:\Users\kenne\AppData\Local\Temp\ccpPZdpD.s:2715   .text._ZN20Adafruit_Fingerprint12fingerSearchEh:000000aa .Loc.497
C:\Users\kenne\AppData\Local\Temp\ccpPZdpD.s:2719   .text._ZN20Adafruit_Fingerprint12fingerSearchEh:000000b0 .Loc.498
C:\Users\kenne\AppData\Local\Temp\ccpPZdpD.s:2720   .text._ZN20Adafruit_Fingerprint12fingerSearchEh:000000b0 .Loc.499
C:\Users\kenne\AppData\Local\Temp\ccpPZdpD.s:2724   .text._ZN20Adafruit_Fingerprint12fingerSearchEh:000000b4 .Loc.500
C:\Users\kenne\AppData\Local\Temp\ccpPZdpD.s:2728   .text._ZN20Adafruit_Fingerprint12fingerSearchEh:000000b6 .Loc.501
C:\Users\kenne\AppData\Local\Temp\ccpPZdpD.s:2742   .text._ZN20Adafruit_Fingerprint12fingerSearchEh:000000ce .Loc.502
C:\Users\kenne\AppData\Local\Temp\ccpPZdpD.s:2745   .text._ZN20Adafruit_Fingerprint12fingerSearchEh:000000d2 L0
C:\Users\kenne\AppData\Local\Temp\ccpPZdpD.s:2751   .text._ZN20Adafruit_Fingerprint16getTemplateCountEv:00000000 _ZN20Adafruit_Fingerprint16getTemplateCountEv
C:\Users\kenne\AppData\Local\Temp\ccpPZdpD.s:2754   .text._ZN20Adafruit_Fingerprint16getTemplateCountEv:00000000 .Loc.503
C:\Users\kenne\AppData\Local\Temp\ccpPZdpD.s:2755   .text._ZN20Adafruit_Fingerprint16getTemplateCountEv:00000000 L0
C:\Users\kenne\AppData\Local\Temp\ccpPZdpD.s:2756   .text._ZN20Adafruit_Fingerprint16getTemplateCountEv:00000000 .Loc.504
C:\Users\kenne\AppData\Local\Temp\ccpPZdpD.s:2786   .text._ZN20Adafruit_Fingerprint16getTemplateCountEv:0000001e .Loc.505
C:\Users\kenne\AppData\Local\Temp\ccpPZdpD.s:2789   .text._ZN20Adafruit_Fingerprint16getTemplateCountEv:00000020 .Loc.506
C:\Users\kenne\AppData\Local\Temp\ccpPZdpD.s:2791   .text._ZN20Adafruit_Fingerprint16getTemplateCountEv:00000022 .Loc.507
C:\Users\kenne\AppData\Local\Temp\ccpPZdpD.s:2802   .text._ZN20Adafruit_Fingerprint16getTemplateCountEv:00000036 .Loc.508
C:\Users\kenne\AppData\Local\Temp\ccpPZdpD.s:2809   .text._ZN20Adafruit_Fingerprint16getTemplateCountEv:00000042 .Loc.509
C:\Users\kenne\AppData\Local\Temp\ccpPZdpD.s:2820   .text._ZN20Adafruit_Fingerprint16getTemplateCountEv:00000056 .Loc.510
C:\Users\kenne\AppData\Local\Temp\ccpPZdpD.s:2824   .text._ZN20Adafruit_Fingerprint16getTemplateCountEv:0000005c .Loc.511
C:\Users\kenne\AppData\Local\Temp\ccpPZdpD.s:2825   .text._ZN20Adafruit_Fingerprint16getTemplateCountEv:0000005c .Loc.512
C:\Users\kenne\AppData\Local\Temp\ccpPZdpD.s:2826   .text._ZN20Adafruit_Fingerprint16getTemplateCountEv:0000005c .Loc.513
C:\Users\kenne\AppData\Local\Temp\ccpPZdpD.s:2829   .text._ZN20Adafruit_Fingerprint16getTemplateCountEv:00000060 .Loc.514
C:\Users\kenne\AppData\Local\Temp\ccpPZdpD.s:2833   .text._ZN20Adafruit_Fingerprint16getTemplateCountEv:00000066 .Loc.515
C:\Users\kenne\AppData\Local\Temp\ccpPZdpD.s:2834   .text._ZN20Adafruit_Fingerprint16getTemplateCountEv:00000066 .Loc.516
C:\Users\kenne\AppData\Local\Temp\ccpPZdpD.s:2839   .text._ZN20Adafruit_Fingerprint16getTemplateCountEv:0000006e .Loc.517
C:\Users\kenne\AppData\Local\Temp\ccpPZdpD.s:2840   .text._ZN20Adafruit_Fingerprint16getTemplateCountEv:0000006e .Loc.518
C:\Users\kenne\AppData\Local\Temp\ccpPZdpD.s:2842   .text._ZN20Adafruit_Fingerprint16getTemplateCountEv:00000070 .Loc.519
C:\Users\kenne\AppData\Local\Temp\ccpPZdpD.s:2846   .text._ZN20Adafruit_Fingerprint16getTemplateCountEv:00000076 .Loc.520
C:\Users\kenne\AppData\Local\Temp\ccpPZdpD.s:2847   .text._ZN20Adafruit_Fingerprint16getTemplateCountEv:00000076 .Loc.521
C:\Users\kenne\AppData\Local\Temp\ccpPZdpD.s:2851   .text._ZN20Adafruit_Fingerprint16getTemplateCountEv:0000007a .Loc.522
C:\Users\kenne\AppData\Local\Temp\ccpPZdpD.s:2855   .text._ZN20Adafruit_Fingerprint16getTemplateCountEv:0000007c .Loc.523
C:\Users\kenne\AppData\Local\Temp\ccpPZdpD.s:2869   .text._ZN20Adafruit_Fingerprint16getTemplateCountEv:00000094 .Loc.524
C:\Users\kenne\AppData\Local\Temp\ccpPZdpD.s:2872   .text._ZN20Adafruit_Fingerprint16getTemplateCountEv:00000098 L0
C:\Users\kenne\AppData\Local\Temp\ccpPZdpD.s:2878   .text._ZN20Adafruit_Fingerprint11setPasswordEm:00000000 _ZN20Adafruit_Fingerprint11setPasswordEm
C:\Users\kenne\AppData\Local\Temp\ccpPZdpD.s:2881   .text._ZN20Adafruit_Fingerprint11setPasswordEm:00000000 .Loc.525
C:\Users\kenne\AppData\Local\Temp\ccpPZdpD.s:2882   .text._ZN20Adafruit_Fingerprint11setPasswordEm:00000000 L0
C:\Users\kenne\AppData\Local\Temp\ccpPZdpD.s:2883   .text._ZN20Adafruit_Fingerprint11setPasswordEm:00000000 .Loc.526
C:\Users\kenne\AppData\Local\Temp\ccpPZdpD.s:2913   .text._ZN20Adafruit_Fingerprint11setPasswordEm:0000001e .Loc.527
C:\Users\kenne\AppData\Local\Temp\ccpPZdpD.s:2919   .text._ZN20Adafruit_Fingerprint11setPasswordEm:00000026 .Loc.528
C:\Users\kenne\AppData\Local\Temp\ccpPZdpD.s:2931   .text._ZN20Adafruit_Fingerprint11setPasswordEm:0000003a .Loc.529
C:\Users\kenne\AppData\Local\Temp\ccpPZdpD.s:2935   .text._ZN20Adafruit_Fingerprint11setPasswordEm:0000003e .Loc.530
C:\Users\kenne\AppData\Local\Temp\ccpPZdpD.s:2941   .text._ZN20Adafruit_Fingerprint11setPasswordEm:00000048 .Loc.531
C:\Users\kenne\AppData\Local\Temp\ccpPZdpD.s:2949   .text._ZN20Adafruit_Fingerprint11setPasswordEm:00000056 .Loc.532
C:\Users\kenne\AppData\Local\Temp\ccpPZdpD.s:2961   .text._ZN20Adafruit_Fingerprint11setPasswordEm:0000006c .Loc.533
C:\Users\kenne\AppData\Local\Temp\ccpPZdpD.s:2965   .text._ZN20Adafruit_Fingerprint11setPasswordEm:00000072 .Loc.534
C:\Users\kenne\AppData\Local\Temp\ccpPZdpD.s:2966   .text._ZN20Adafruit_Fingerprint11setPasswordEm:00000072 .Loc.535
C:\Users\kenne\AppData\Local\Temp\ccpPZdpD.s:2970   .text._ZN20Adafruit_Fingerprint11setPasswordEm:00000076 .Loc.536
C:\Users\kenne\AppData\Local\Temp\ccpPZdpD.s:2974   .text._ZN20Adafruit_Fingerprint11setPasswordEm:00000078 .Loc.537
C:\Users\kenne\AppData\Local\Temp\ccpPZdpD.s:2988   .text._ZN20Adafruit_Fingerprint11setPasswordEm:00000090 .Loc.538
C:\Users\kenne\AppData\Local\Temp\ccpPZdpD.s:2990   .text._ZN20Adafruit_Fingerprint11setPasswordEm:00000092 .Loc.539
C:\Users\kenne\AppData\Local\Temp\ccpPZdpD.s:2992   .text._ZN20Adafruit_Fingerprint11setPasswordEm:00000094 L0
C:\Users\kenne\AppData\Local\Temp\ccpPZdpD.s:2998   .text._ZN20Adafruit_Fingerprint13writeRegisterEhh:00000000 _ZN20Adafruit_Fingerprint13writeRegisterEhh
C:\Users\kenne\AppData\Local\Temp\ccpPZdpD.s:3001   .text._ZN20Adafruit_Fingerprint13writeRegisterEhh:00000000 .Loc.540
C:\Users\kenne\AppData\Local\Temp\ccpPZdpD.s:3002   .text._ZN20Adafruit_Fingerprint13writeRegisterEhh:00000000 L0
GAS LISTING C:\Users\kenne\AppData\Local\Temp\ccpPZdpD.s 			page 106


C:\Users\kenne\AppData\Local\Temp\ccpPZdpD.s:3003   .text._ZN20Adafruit_Fingerprint13writeRegisterEhh:00000000 .Loc.541
C:\Users\kenne\AppData\Local\Temp\ccpPZdpD.s:3033   .text._ZN20Adafruit_Fingerprint13writeRegisterEhh:0000001e .Loc.542
C:\Users\kenne\AppData\Local\Temp\ccpPZdpD.s:3039   .text._ZN20Adafruit_Fingerprint13writeRegisterEhh:00000026 .Loc.543
C:\Users\kenne\AppData\Local\Temp\ccpPZdpD.s:3043   .text._ZN20Adafruit_Fingerprint13writeRegisterEhh:0000002c .Loc.544
C:\Users\kenne\AppData\Local\Temp\ccpPZdpD.s:3050   .text._ZN20Adafruit_Fingerprint13writeRegisterEhh:00000036 .Loc.545
C:\Users\kenne\AppData\Local\Temp\ccpPZdpD.s:3053   .text._ZN20Adafruit_Fingerprint13writeRegisterEhh:00000038 .Loc.546
C:\Users\kenne\AppData\Local\Temp\ccpPZdpD.s:3058   .text._ZN20Adafruit_Fingerprint13writeRegisterEhh:00000040 .Loc.547
C:\Users\kenne\AppData\Local\Temp\ccpPZdpD.s:3066   .text._ZN20Adafruit_Fingerprint13writeRegisterEhh:0000004e .Loc.548
C:\Users\kenne\AppData\Local\Temp\ccpPZdpD.s:3078   .text._ZN20Adafruit_Fingerprint13writeRegisterEhh:00000064 .Loc.549
C:\Users\kenne\AppData\Local\Temp\ccpPZdpD.s:3082   .text._ZN20Adafruit_Fingerprint13writeRegisterEhh:0000006a .Loc.550
C:\Users\kenne\AppData\Local\Temp\ccpPZdpD.s:3083   .text._ZN20Adafruit_Fingerprint13writeRegisterEhh:0000006a .Loc.551
C:\Users\kenne\AppData\Local\Temp\ccpPZdpD.s:3087   .text._ZN20Adafruit_Fingerprint13writeRegisterEhh:0000006e .Loc.552
C:\Users\kenne\AppData\Local\Temp\ccpPZdpD.s:3091   .text._ZN20Adafruit_Fingerprint13writeRegisterEhh:00000070 .Loc.553
C:\Users\kenne\AppData\Local\Temp\ccpPZdpD.s:3105   .text._ZN20Adafruit_Fingerprint13writeRegisterEhh:00000088 .Loc.554
C:\Users\kenne\AppData\Local\Temp\ccpPZdpD.s:3107   .text._ZN20Adafruit_Fingerprint13writeRegisterEhh:0000008a .Loc.555
C:\Users\kenne\AppData\Local\Temp\ccpPZdpD.s:3109   .text._ZN20Adafruit_Fingerprint13writeRegisterEhh:0000008c L0
C:\Users\kenne\AppData\Local\Temp\ccpPZdpD.s:3115   .text._ZN20Adafruit_Fingerprint11setBaudRateEh:00000000 _ZN20Adafruit_Fingerprint11setBaudRateEh
C:\Users\kenne\AppData\Local\Temp\ccpPZdpD.s:3118   .text._ZN20Adafruit_Fingerprint11setBaudRateEh:00000000 .Loc.556
C:\Users\kenne\AppData\Local\Temp\ccpPZdpD.s:3119   .text._ZN20Adafruit_Fingerprint11setBaudRateEh:00000000 L0
C:\Users\kenne\AppData\Local\Temp\ccpPZdpD.s:3124   .text._ZN20Adafruit_Fingerprint11setBaudRateEh:00000000 .Loc.557
C:\Users\kenne\AppData\Local\Temp\ccpPZdpD.s:3127   .text._ZN20Adafruit_Fingerprint11setBaudRateEh:00000004 .Loc.558
C:\Users\kenne\AppData\Local\Temp\ccpPZdpD.s:3128   .text._ZN20Adafruit_Fingerprint11setBaudRateEh:00000004 .Loc.559
C:\Users\kenne\AppData\Local\Temp\ccpPZdpD.s:3130   .text._ZN20Adafruit_Fingerprint11setBaudRateEh:00000006 .Loc.560
C:\Users\kenne\AppData\Local\Temp\ccpPZdpD.s:3133   .text._ZN20Adafruit_Fingerprint11setBaudRateEh:00000008 .Loc.561
C:\Users\kenne\AppData\Local\Temp\ccpPZdpD.s:3136   .text._ZN20Adafruit_Fingerprint11setBaudRateEh:0000000a .Loc.562
C:\Users\kenne\AppData\Local\Temp\ccpPZdpD.s:3140   .text._ZN20Adafruit_Fingerprint11setBaudRateEh:0000000e .Loc.563
C:\Users\kenne\AppData\Local\Temp\ccpPZdpD.s:3142   .text._ZN20Adafruit_Fingerprint11setBaudRateEh:00000010 L0
C:\Users\kenne\AppData\Local\Temp\ccpPZdpD.s:3148   .text._ZN20Adafruit_Fingerprint16setSecurityLevelEh:00000000 _ZN20Adafruit_Fingerprint16setSecurityLevelEh
C:\Users\kenne\AppData\Local\Temp\ccpPZdpD.s:3151   .text._ZN20Adafruit_Fingerprint16setSecurityLevelEh:00000000 .Loc.564
C:\Users\kenne\AppData\Local\Temp\ccpPZdpD.s:3152   .text._ZN20Adafruit_Fingerprint16setSecurityLevelEh:00000000 L0
C:\Users\kenne\AppData\Local\Temp\ccpPZdpD.s:3157   .text._ZN20Adafruit_Fingerprint16setSecurityLevelEh:00000000 .Loc.565
C:\Users\kenne\AppData\Local\Temp\ccpPZdpD.s:3159   .text._ZN20Adafruit_Fingerprint16setSecurityLevelEh:00000002 .Loc.566
C:\Users\kenne\AppData\Local\Temp\ccpPZdpD.s:3160   .text._ZN20Adafruit_Fingerprint16setSecurityLevelEh:00000002 .Loc.567
C:\Users\kenne\AppData\Local\Temp\ccpPZdpD.s:3163   .text._ZN20Adafruit_Fingerprint16setSecurityLevelEh:00000004 .Loc.568
C:\Users\kenne\AppData\Local\Temp\ccpPZdpD.s:3167   .text._ZN20Adafruit_Fingerprint16setSecurityLevelEh:00000008 .Loc.569
C:\Users\kenne\AppData\Local\Temp\ccpPZdpD.s:3169   .text._ZN20Adafruit_Fingerprint16setSecurityLevelEh:0000000a L0
C:\Users\kenne\AppData\Local\Temp\ccpPZdpD.s:3175   .text._ZN20Adafruit_Fingerprint13setPacketSizeEh:00000000 _ZN20Adafruit_Fingerprint13setPacketSizeEh
C:\Users\kenne\AppData\Local\Temp\ccpPZdpD.s:3178   .text._ZN20Adafruit_Fingerprint13setPacketSizeEh:00000000 .Loc.570
C:\Users\kenne\AppData\Local\Temp\ccpPZdpD.s:3179   .text._ZN20Adafruit_Fingerprint13setPacketSizeEh:00000000 L0
C:\Users\kenne\AppData\Local\Temp\ccpPZdpD.s:3184   .text._ZN20Adafruit_Fingerprint13setPacketSizeEh:00000000 .Loc.571
C:\Users\kenne\AppData\Local\Temp\ccpPZdpD.s:3186   .text._ZN20Adafruit_Fingerprint13setPacketSizeEh:00000002 .Loc.572
C:\Users\kenne\AppData\Local\Temp\ccpPZdpD.s:3187   .text._ZN20Adafruit_Fingerprint13setPacketSizeEh:00000002 .Loc.573
C:\Users\kenne\AppData\Local\Temp\ccpPZdpD.s:3190   .text._ZN20Adafruit_Fingerprint13setPacketSizeEh:00000004 .Loc.574
C:\Users\kenne\AppData\Local\Temp\ccpPZdpD.s:3194   .text._ZN20Adafruit_Fingerprint13setPacketSizeEh:00000008 .Loc.575
C:\Users\kenne\AppData\Local\Temp\ccpPZdpD.s:3196   .text._ZN20Adafruit_Fingerprint13setPacketSizeEh:0000000a L0
C:\Users\kenne\AppData\Local\Temp\ccpPZdpD.s:33     .text._Z7getTickv:00000008 L0
C:\Users\kenne\AppData\Local\Temp\ccpPZdpD.s:137    .text._ZN27Adafruit_Fingerprint_PacketC2EhjPh:00000062 L0
C:\Users\kenne\AppData\Local\Temp\ccpPZdpD.s:217    .text._ZN20Adafruit_FingerprintC2EP6Usart0m:00000054 L0
C:\Users\kenne\AppData\Local\Temp\ccpPZdpD.s:263    .text._ZN20Adafruit_Fingerprint5beginEm:00000014 L0
C:\Users\kenne\AppData\Local\Temp\ccpPZdpD.s:518    .text._ZN20Adafruit_Fingerprint21writeStructuredPacketERK27Adafruit_Fingerprint_Packet:00000126 L0
C:\Users\kenne\AppData\Local\Temp\ccpPZdpD.s:765    .text._ZN20Adafruit_Fingerprint19getStructuredPacketEP27Adafruit_Fingerprint_Packetj:00000104 L0
C:\Users\kenne\AppData\Local\Temp\ccpPZdpD.s:891    .text._ZN20Adafruit_Fingerprint13checkPasswordEv:000000a0 L0
C:\Users\kenne\AppData\Local\Temp\ccpPZdpD.s:920    .text._ZN20Adafruit_Fingerprint14verifyPasswordEv:0000000e L0
C:\Users\kenne\AppData\Local\Temp\ccpPZdpD.s:1187   .text._ZN20Adafruit_Fingerprint13getParametersEv:00000150 L0
C:\Users\kenne\AppData\Local\Temp\ccpPZdpD.s:1295   .text._ZN20Adafruit_Fingerprint8getImageEv:00000082 L0
C:\Users\kenne\AppData\Local\Temp\ccpPZdpD.s:1408   .text._ZN20Adafruit_Fingerprint8image2TzEh:00000088 L0
C:\Users\kenne\AppData\Local\Temp\ccpPZdpD.s:1516   .text._ZN20Adafruit_Fingerprint11createModelEv:00000082 L0
GAS LISTING C:\Users\kenne\AppData\Local\Temp\ccpPZdpD.s 			page 107


C:\Users\kenne\AppData\Local\Temp\ccpPZdpD.s:1634   .text._ZN20Adafruit_Fingerprint10storeModelEj:00000092 L0
C:\Users\kenne\AppData\Local\Temp\ccpPZdpD.s:1752   .text._ZN20Adafruit_Fingerprint9loadModelEj:00000092 L0
C:\Users\kenne\AppData\Local\Temp\ccpPZdpD.s:1862   .text._ZN20Adafruit_Fingerprint8getModelEv:00000086 L0
C:\Users\kenne\AppData\Local\Temp\ccpPZdpD.s:1982   .text._ZN20Adafruit_Fingerprint11deleteModelEj:00000094 L0
C:\Users\kenne\AppData\Local\Temp\ccpPZdpD.s:2090   .text._ZN20Adafruit_Fingerprint13emptyDatabaseEv:00000082 L0
C:\Users\kenne\AppData\Local\Temp\ccpPZdpD.s:2261   .text._ZN20Adafruit_Fingerprint16fingerFastSearchEv:000000ca L0
C:\Users\kenne\AppData\Local\Temp\ccpPZdpD.s:2446   .text._ZN20Adafruit_Fingerprint10LEDcontrolEb:000000dc L0
C:\Users\kenne\AppData\Local\Temp\ccpPZdpD.s:2577   .text._ZN20Adafruit_Fingerprint10LEDcontrolEhhhh:00000098 L0
C:\Users\kenne\AppData\Local\Temp\ccpPZdpD.s:2748   .text._ZN20Adafruit_Fingerprint12fingerSearchEh:000000d2 L0
C:\Users\kenne\AppData\Local\Temp\ccpPZdpD.s:2875   .text._ZN20Adafruit_Fingerprint16getTemplateCountEv:00000098 L0
C:\Users\kenne\AppData\Local\Temp\ccpPZdpD.s:2995   .text._ZN20Adafruit_Fingerprint11setPasswordEm:00000094 L0
C:\Users\kenne\AppData\Local\Temp\ccpPZdpD.s:3112   .text._ZN20Adafruit_Fingerprint13writeRegisterEhh:0000008c L0
C:\Users\kenne\AppData\Local\Temp\ccpPZdpD.s:3145   .text._ZN20Adafruit_Fingerprint11setBaudRateEh:00000010 L0
C:\Users\kenne\AppData\Local\Temp\ccpPZdpD.s:3172   .text._ZN20Adafruit_Fingerprint16setSecurityLevelEh:0000000a L0
C:\Users\kenne\AppData\Local\Temp\ccpPZdpD.s:3199   .text._ZN20Adafruit_Fingerprint13setPacketSizeEh:0000000a L0
                     .debug_frame:00000000 L0
C:\Users\kenne\AppData\Local\Temp\ccpPZdpD.s:116    .text._ZN27Adafruit_Fingerprint_PacketC2EhjPh:00000052 .L3
C:\Users\kenne\AppData\Local\Temp\ccpPZdpD.s:123    .text._ZN27Adafruit_Fingerprint_PacketC2EhjPh:00000058 .L1
C:\Users\kenne\AppData\Local\Temp\ccpPZdpD.s:245    .text._ZN20Adafruit_Fingerprint5beginEm:00000006 .L11
C:\Users\kenne\AppData\Local\Temp\ccpPZdpD.s:465    .text._ZN20Adafruit_Fingerprint21writeStructuredPacketERK27Adafruit_Fingerprint_Packet:000000e6 .L8
C:\Users\kenne\AppData\Local\Temp\ccpPZdpD.s:437    .text._ZN20Adafruit_Fingerprint21writeStructuredPacketERK27Adafruit_Fingerprint_Packet:000000c6 .L9
C:\Users\kenne\AppData\Local\Temp\ccpPZdpD.s:667    .text._ZN20Adafruit_Fingerprint19getStructuredPacketEP27Adafruit_Fingerprint_Packetj:0000008c .L11
C:\Users\kenne\AppData\Local\Temp\ccpPZdpD.s:663    .text._ZN20Adafruit_Fingerprint19getStructuredPacketEP27Adafruit_Fingerprint_Packetj:0000008a .L21
C:\Users\kenne\AppData\Local\Temp\ccpPZdpD.s:719    .text._ZN20Adafruit_Fingerprint19getStructuredPacketEP27Adafruit_Fingerprint_Packetj:000000ce .L17
C:\Users\kenne\AppData\Local\Temp\ccpPZdpD.s:572    .text._ZN20Adafruit_Fingerprint19getStructuredPacketEP27Adafruit_Fingerprint_Packetj:00000024 .L24
C:\Users\kenne\AppData\Local\Temp\ccpPZdpD.s:649    .text._ZN20Adafruit_Fingerprint19getStructuredPacketEP27Adafruit_Fingerprint_Packetj:0000007c .L22
C:\Users\kenne\AppData\Local\Temp\ccpPZdpD.s:708    .text._ZN20Adafruit_Fingerprint19getStructuredPacketEP27Adafruit_Fingerprint_Packetj:000000c4 .L19
C:\Users\kenne\AppData\Local\Temp\ccpPZdpD.s:749    .text._ZN20Adafruit_Fingerprint19getStructuredPacketEP27Adafruit_Fingerprint_Packetj:000000f0 .L10
C:\Users\kenne\AppData\Local\Temp\ccpPZdpD.s:745    .text._ZN20Adafruit_Fingerprint19getStructuredPacketEP27Adafruit_Fingerprint_Packetj:000000ee .L28
C:\Users\kenne\AppData\Local\Temp\ccpPZdpD.s:641    .text._ZN20Adafruit_Fingerprint19getStructuredPacketEP27Adafruit_Fingerprint_Packetj:00000076 .L12
C:\Users\kenne\AppData\Local\Temp\ccpPZdpD.s:596    .text._ZN20Adafruit_Fingerprint19getStructuredPacketEP27Adafruit_Fingerprint_Packetj:0000003e .L13
C:\Users\kenne\AppData\Local\Temp\ccpPZdpD.s:621    .text._ZN20Adafruit_Fingerprint19getStructuredPacketEP27Adafruit_Fingerprint_Packetj:0000005e .L14
C:\Users\kenne\AppData\Local\Temp\ccpPZdpD.s:576    .text._ZN20Adafruit_Fingerprint19getStructuredPacketEP27Adafruit_Fingerprint_Packetj:00000028 .L29
C:\Users\kenne\AppData\Local\Temp\ccpPZdpD.s:811    .text._ZN20Adafruit_Fingerprint13checkPasswordEv:00000028 .L2
C:\Users\kenne\AppData\Local\Temp\ccpPZdpD.s:866    .text._ZN20Adafruit_Fingerprint13checkPasswordEv:00000082 .L32
C:\Users\kenne\AppData\Local\Temp\ccpPZdpD.s:884    .text._ZN20Adafruit_Fingerprint13checkPasswordEv:0000009c .L33
C:\Users\kenne\AppData\Local\Temp\ccpPZdpD.s:869    .text._ZN20Adafruit_Fingerprint13checkPasswordEv:00000084 .L30
C:\Users\kenne\AppData\Local\Temp\ccpPZdpD.s:1162   .text._ZN20Adafruit_Fingerprint13getParametersEv:00000132 .L43
C:\Users\kenne\AppData\Local\Temp\ccpPZdpD.s:1180   .text._ZN20Adafruit_Fingerprint13getParametersEv:0000014c .L44
C:\Users\kenne\AppData\Local\Temp\ccpPZdpD.s:1124   .text._ZN20Adafruit_Fingerprint13getParametersEv:000000fe .L39
C:\Users\kenne\AppData\Local\Temp\ccpPZdpD.s:1165   .text._ZN20Adafruit_Fingerprint13getParametersEv:00000134 .L37
C:\Users\kenne\AppData\Local\Temp\ccpPZdpD.s:1144   .text._ZN20Adafruit_Fingerprint13getParametersEv:0000011a .L45
C:\Users\kenne\AppData\Local\Temp\ccpPZdpD.s:1153   .text._ZN20Adafruit_Fingerprint13getParametersEv:00000126 .L46
C:\Users\kenne\AppData\Local\Temp\ccpPZdpD.s:1100   .text._ZN20Adafruit_Fingerprint13getParametersEv:000000de .L40
C:\Users\kenne\AppData\Local\Temp\ccpPZdpD.s:1269   .text._ZN20Adafruit_Fingerprint8getImageEv:00000064 .L49
C:\Users\kenne\AppData\Local\Temp\ccpPZdpD.s:1287   .text._ZN20Adafruit_Fingerprint8getImageEv:0000007e .L50
C:\Users\kenne\AppData\Local\Temp\ccpPZdpD.s:1272   .text._ZN20Adafruit_Fingerprint8getImageEv:00000066 .L47
C:\Users\kenne\AppData\Local\Temp\ccpPZdpD.s:1382   .text._ZN20Adafruit_Fingerprint8image2TzEh:0000006a .L53
C:\Users\kenne\AppData\Local\Temp\ccpPZdpD.s:1400   .text._ZN20Adafruit_Fingerprint8image2TzEh:00000084 .L54
C:\Users\kenne\AppData\Local\Temp\ccpPZdpD.s:1385   .text._ZN20Adafruit_Fingerprint8image2TzEh:0000006c .L51
C:\Users\kenne\AppData\Local\Temp\ccpPZdpD.s:1490   .text._ZN20Adafruit_Fingerprint11createModelEv:00000064 .L57
C:\Users\kenne\AppData\Local\Temp\ccpPZdpD.s:1508   .text._ZN20Adafruit_Fingerprint11createModelEv:0000007e .L58
C:\Users\kenne\AppData\Local\Temp\ccpPZdpD.s:1493   .text._ZN20Adafruit_Fingerprint11createModelEv:00000066 .L55
C:\Users\kenne\AppData\Local\Temp\ccpPZdpD.s:1608   .text._ZN20Adafruit_Fingerprint10storeModelEj:00000074 .L61
C:\Users\kenne\AppData\Local\Temp\ccpPZdpD.s:1626   .text._ZN20Adafruit_Fingerprint10storeModelEj:0000008e .L62
C:\Users\kenne\AppData\Local\Temp\ccpPZdpD.s:1611   .text._ZN20Adafruit_Fingerprint10storeModelEj:00000076 .L59
C:\Users\kenne\AppData\Local\Temp\ccpPZdpD.s:1726   .text._ZN20Adafruit_Fingerprint9loadModelEj:00000074 .L65
GAS LISTING C:\Users\kenne\AppData\Local\Temp\ccpPZdpD.s 			page 108


C:\Users\kenne\AppData\Local\Temp\ccpPZdpD.s:1744   .text._ZN20Adafruit_Fingerprint9loadModelEj:0000008e .L66
C:\Users\kenne\AppData\Local\Temp\ccpPZdpD.s:1729   .text._ZN20Adafruit_Fingerprint9loadModelEj:00000076 .L63
C:\Users\kenne\AppData\Local\Temp\ccpPZdpD.s:1836   .text._ZN20Adafruit_Fingerprint8getModelEv:00000068 .L69
C:\Users\kenne\AppData\Local\Temp\ccpPZdpD.s:1854   .text._ZN20Adafruit_Fingerprint8getModelEv:00000082 .L70
C:\Users\kenne\AppData\Local\Temp\ccpPZdpD.s:1839   .text._ZN20Adafruit_Fingerprint8getModelEv:0000006a .L67
C:\Users\kenne\AppData\Local\Temp\ccpPZdpD.s:1908   .text._ZN20Adafruit_Fingerprint11deleteModelEj:00000028 .L3
C:\Users\kenne\AppData\Local\Temp\ccpPZdpD.s:1956   .text._ZN20Adafruit_Fingerprint11deleteModelEj:00000076 .L73
C:\Users\kenne\AppData\Local\Temp\ccpPZdpD.s:1974   .text._ZN20Adafruit_Fingerprint11deleteModelEj:00000090 .L74
C:\Users\kenne\AppData\Local\Temp\ccpPZdpD.s:1959   .text._ZN20Adafruit_Fingerprint11deleteModelEj:00000078 .L71
C:\Users\kenne\AppData\Local\Temp\ccpPZdpD.s:2064   .text._ZN20Adafruit_Fingerprint13emptyDatabaseEv:00000064 .L77
C:\Users\kenne\AppData\Local\Temp\ccpPZdpD.s:2082   .text._ZN20Adafruit_Fingerprint13emptyDatabaseEv:0000007e .L78
C:\Users\kenne\AppData\Local\Temp\ccpPZdpD.s:2067   .text._ZN20Adafruit_Fingerprint13emptyDatabaseEv:00000066 .L75
C:\Users\kenne\AppData\Local\Temp\ccpPZdpD.s:2091   .rodata:00000000 .LC0
C:\Users\kenne\AppData\Local\Temp\ccpPZdpD.s:2142   .text._ZN20Adafruit_Fingerprint16fingerFastSearchEv:00000028 .L4
C:\Users\kenne\AppData\Local\Temp\ccpPZdpD.s:2236   .text._ZN20Adafruit_Fingerprint16fingerFastSearchEv:000000ac .L81
C:\Users\kenne\AppData\Local\Temp\ccpPZdpD.s:2254   .text._ZN20Adafruit_Fingerprint16fingerFastSearchEv:000000c6 .L82
C:\Users\kenne\AppData\Local\Temp\ccpPZdpD.s:2239   .text._ZN20Adafruit_Fingerprint16fingerFastSearchEv:000000ae .L79
C:\Users\kenne\AppData\Local\Temp\ccpPZdpD.s:2380   .text._ZN20Adafruit_Fingerprint10LEDcontrolEb:0000008a .L84
C:\Users\kenne\AppData\Local\Temp\ccpPZdpD.s:2375   .text._ZN20Adafruit_Fingerprint10LEDcontrolEb:00000086 .L88
C:\Users\kenne\AppData\Local\Temp\ccpPZdpD.s:2368   .text._ZN20Adafruit_Fingerprint10LEDcontrolEb:00000082 .L92
C:\Users\kenne\AppData\Local\Temp\ccpPZdpD.s:2351   .text._ZN20Adafruit_Fingerprint10LEDcontrolEb:0000006a .L83
C:\Users\kenne\AppData\Local\Temp\ccpPZdpD.s:2437   .text._ZN20Adafruit_Fingerprint10LEDcontrolEb:000000d8 .L90
C:\Users\kenne\AppData\Local\Temp\ccpPZdpD.s:2432   .text._ZN20Adafruit_Fingerprint10LEDcontrolEb:000000d4 .L93
C:\Users\kenne\AppData\Local\Temp\ccpPZdpD.s:2494   .text._ZN20Adafruit_Fingerprint10LEDcontrolEhhhh:00000028 .L5
C:\Users\kenne\AppData\Local\Temp\ccpPZdpD.s:2547   .text._ZN20Adafruit_Fingerprint10LEDcontrolEhhhh:00000078 .L96
C:\Users\kenne\AppData\Local\Temp\ccpPZdpD.s:2569   .text._ZN20Adafruit_Fingerprint10LEDcontrolEhhhh:00000094 .L97
C:\Users\kenne\AppData\Local\Temp\ccpPZdpD.s:2550   .text._ZN20Adafruit_Fingerprint10LEDcontrolEhhhh:0000007a .L94
C:\Users\kenne\AppData\Local\Temp\ccpPZdpD.s:2623   .text._ZN20Adafruit_Fingerprint12fingerSearchEh:00000028 .L6
C:\Users\kenne\AppData\Local\Temp\ccpPZdpD.s:2723   .text._ZN20Adafruit_Fingerprint12fingerSearchEh:000000b4 .L100
C:\Users\kenne\AppData\Local\Temp\ccpPZdpD.s:2741   .text._ZN20Adafruit_Fingerprint12fingerSearchEh:000000ce .L101
C:\Users\kenne\AppData\Local\Temp\ccpPZdpD.s:2726   .text._ZN20Adafruit_Fingerprint12fingerSearchEh:000000b6 .L98
C:\Users\kenne\AppData\Local\Temp\ccpPZdpD.s:2850   .text._ZN20Adafruit_Fingerprint16getTemplateCountEv:0000007a .L104
C:\Users\kenne\AppData\Local\Temp\ccpPZdpD.s:2868   .text._ZN20Adafruit_Fingerprint16getTemplateCountEv:00000094 .L105
C:\Users\kenne\AppData\Local\Temp\ccpPZdpD.s:2853   .text._ZN20Adafruit_Fingerprint16getTemplateCountEv:0000007c .L102
C:\Users\kenne\AppData\Local\Temp\ccpPZdpD.s:2921   .text._ZN20Adafruit_Fingerprint11setPasswordEm:00000028 .L7
C:\Users\kenne\AppData\Local\Temp\ccpPZdpD.s:2969   .text._ZN20Adafruit_Fingerprint11setPasswordEm:00000076 .L108
C:\Users\kenne\AppData\Local\Temp\ccpPZdpD.s:2987   .text._ZN20Adafruit_Fingerprint11setPasswordEm:00000090 .L109
C:\Users\kenne\AppData\Local\Temp\ccpPZdpD.s:2972   .text._ZN20Adafruit_Fingerprint11setPasswordEm:00000078 .L106
C:\Users\kenne\AppData\Local\Temp\ccpPZdpD.s:3086   .text._ZN20Adafruit_Fingerprint13writeRegisterEhh:0000006e .L112
C:\Users\kenne\AppData\Local\Temp\ccpPZdpD.s:3104   .text._ZN20Adafruit_Fingerprint13writeRegisterEhh:00000088 .L113
C:\Users\kenne\AppData\Local\Temp\ccpPZdpD.s:3089   .text._ZN20Adafruit_Fingerprint13writeRegisterEhh:00000070 .L110
C:\Users\kenne\AppData\Local\Temp\ccpPZdpD.s:7291   .debug_abbrev:00000000 .Ldebug_abbrev0
C:\Users\kenne\AppData\Local\Temp\ccpPZdpD.s:10027  .debug_rnglists:00000018 .LLRL56
C:\Users\kenne\AppData\Local\Temp\ccpPZdpD.s:10112  .debug_line:00000000 .Ldebug_line0
C:\Users\kenne\AppData\Local\Temp\ccpPZdpD.s:523    .text._ZN20Adafruit_Fingerprint19getStructuredPacketEP27Adafruit_Fingerprint_Packetj:00000000 .LFB83
C:\Users\kenne\AppData\Local\Temp\ccpPZdpD.s:763    .text._ZN20Adafruit_Fingerprint19getStructuredPacketEP27Adafruit_Fingerprint_Packetj:00000104 .LFE83
C:\Users\kenne\AppData\Local\Temp\ccpPZdpD.s:8483   .debug_loclists:00000010 .LLST14
C:\Users\kenne\AppData\Local\Temp\ccpPZdpD.s:8478   .debug_loclists:0000000c .LVUS14
C:\Users\kenne\AppData\Local\Temp\ccpPZdpD.s:8510   .debug_loclists:0000002d .LLST15
C:\Users\kenne\AppData\Local\Temp\ccpPZdpD.s:8505   .debug_loclists:00000029 .LVUS15
C:\Users\kenne\AppData\Local\Temp\ccpPZdpD.s:8537   .debug_loclists:0000004a .LLST16
C:\Users\kenne\AppData\Local\Temp\ccpPZdpD.s:8532   .debug_loclists:00000046 .LVUS16
C:\Users\kenne\AppData\Local\Temp\ccpPZdpD.s:8570   .debug_loclists:0000006d .LLST17
C:\Users\kenne\AppData\Local\Temp\ccpPZdpD.s:8559   .debug_loclists:00000063 .LVUS17
C:\Users\kenne\AppData\Local\Temp\ccpPZdpD.s:678    .text._ZN20Adafruit_Fingerprint19getStructuredPacketEP27Adafruit_Fingerprint_Packetj:0000009c .LVL41
C:\Users\kenne\AppData\Local\Temp\ccpPZdpD.s:268    .text._ZN20Adafruit_Fingerprint21writeStructuredPacketERK27Adafruit_Fingerprint_Packet:00000000 .LFB82
C:\Users\kenne\AppData\Local\Temp\ccpPZdpD.s:516    .text._ZN20Adafruit_Fingerprint21writeStructuredPacketERK27Adafruit_Fingerprint_Packet:00000126 .LFE82
GAS LISTING C:\Users\kenne\AppData\Local\Temp\ccpPZdpD.s 			page 109


C:\Users\kenne\AppData\Local\Temp\ccpPZdpD.s:8625   .debug_loclists:000000a8 .LLST9
C:\Users\kenne\AppData\Local\Temp\ccpPZdpD.s:8620   .debug_loclists:000000a4 .LVUS9
C:\Users\kenne\AppData\Local\Temp\ccpPZdpD.s:8652   .debug_loclists:000000c5 .LLST10
C:\Users\kenne\AppData\Local\Temp\ccpPZdpD.s:8647   .debug_loclists:000000c1 .LVUS10
C:\Users\kenne\AppData\Local\Temp\ccpPZdpD.s:8677   .debug_loclists:000000e0 .LLST11
C:\Users\kenne\AppData\Local\Temp\ccpPZdpD.s:8674   .debug_loclists:000000de .LVUS11
C:\Users\kenne\AppData\Local\Temp\ccpPZdpD.s:8692   .debug_loclists:000000f0 .LLST12
C:\Users\kenne\AppData\Local\Temp\ccpPZdpD.s:8689   .debug_loclists:000000ee .LVUS12
C:\Users\kenne\AppData\Local\Temp\ccpPZdpD.s:431    .text._ZN20Adafruit_Fingerprint21writeStructuredPacketERK27Adafruit_Fingerprint_Packet:000000c2 .LBB8
C:\Users\kenne\AppData\Local\Temp\ccpPZdpD.s:479    .text._ZN20Adafruit_Fingerprint21writeStructuredPacketERK27Adafruit_Fingerprint_Packet:000000f6 .LBE8
C:\Users\kenne\AppData\Local\Temp\ccpPZdpD.s:8711   .debug_loclists:00000104 .LLST13
C:\Users\kenne\AppData\Local\Temp\ccpPZdpD.s:8704   .debug_loclists:000000fe .LVUS13
C:\Users\kenne\AppData\Local\Temp\ccpPZdpD.s:453    .text._ZN20Adafruit_Fingerprint21writeStructuredPacketERK27Adafruit_Fingerprint_Packet:000000dc .LVL29
C:\Users\kenne\AppData\Local\Temp\ccpPZdpD.s:320    .text._ZN20Adafruit_Fingerprint21writeStructuredPacketERK27Adafruit_Fingerprint_Packet:0000002a .LVL15
C:\Users\kenne\AppData\Local\Temp\ccpPZdpD.s:332    .text._ZN20Adafruit_Fingerprint21writeStructuredPacketERK27Adafruit_Fingerprint_Packet:0000003c .LVL16
C:\Users\kenne\AppData\Local\Temp\ccpPZdpD.s:343    .text._ZN20Adafruit_Fingerprint21writeStructuredPacketERK27Adafruit_Fingerprint_Packet:0000004c .LVL17
C:\Users\kenne\AppData\Local\Temp\ccpPZdpD.s:354    .text._ZN20Adafruit_Fingerprint21writeStructuredPacketERK27Adafruit_Fingerprint_Packet:0000005c .LVL18
C:\Users\kenne\AppData\Local\Temp\ccpPZdpD.s:365    .text._ZN20Adafruit_Fingerprint21writeStructuredPacketERK27Adafruit_Fingerprint_Packet:0000006c .LVL19
C:\Users\kenne\AppData\Local\Temp\ccpPZdpD.s:376    .text._ZN20Adafruit_Fingerprint21writeStructuredPacketERK27Adafruit_Fingerprint_Packet:0000007c .LVL20
C:\Users\kenne\AppData\Local\Temp\ccpPZdpD.s:387    .text._ZN20Adafruit_Fingerprint21writeStructuredPacketERK27Adafruit_Fingerprint_Packet:0000008c .LVL21
C:\Users\kenne\AppData\Local\Temp\ccpPZdpD.s:408    .text._ZN20Adafruit_Fingerprint21writeStructuredPacketERK27Adafruit_Fingerprint_Packet:000000a8 .LVL23
C:\Users\kenne\AppData\Local\Temp\ccpPZdpD.s:418    .text._ZN20Adafruit_Fingerprint21writeStructuredPacketERK27Adafruit_Fingerprint_Packet:000000b6 .LVL25
C:\Users\kenne\AppData\Local\Temp\ccpPZdpD.s:488    .text._ZN20Adafruit_Fingerprint21writeStructuredPacketERK27Adafruit_Fingerprint_Packet:00000104 .LVL32
C:\Users\kenne\AppData\Local\Temp\ccpPZdpD.s:497    .text._ZN20Adafruit_Fingerprint21writeStructuredPacketERK27Adafruit_Fingerprint_Packet:00000112 .LVL33
C:\Users\kenne\AppData\Local\Temp\ccpPZdpD.s:3177   .text._ZN20Adafruit_Fingerprint13setPacketSizeEh:00000000 .LFB81
C:\Users\kenne\AppData\Local\Temp\ccpPZdpD.s:3197   .text._ZN20Adafruit_Fingerprint13setPacketSizeEh:0000000a .LFE81
C:\Users\kenne\AppData\Local\Temp\ccpPZdpD.s:8736   .debug_loclists:0000011e .LLST54
C:\Users\kenne\AppData\Local\Temp\ccpPZdpD.s:8731   .debug_loclists:0000011a .LVUS54
C:\Users\kenne\AppData\Local\Temp\ccpPZdpD.s:8765   .debug_loclists:0000013c .LLST55
C:\Users\kenne\AppData\Local\Temp\ccpPZdpD.s:8758   .debug_loclists:00000136 .LVUS55
C:\Users\kenne\AppData\Local\Temp\ccpPZdpD.s:3192   .text._ZN20Adafruit_Fingerprint13setPacketSizeEh:00000008 .LVL160
C:\Users\kenne\AppData\Local\Temp\ccpPZdpD.s:3150   .text._ZN20Adafruit_Fingerprint16setSecurityLevelEh:00000000 .LFB80
C:\Users\kenne\AppData\Local\Temp\ccpPZdpD.s:3170   .text._ZN20Adafruit_Fingerprint16setSecurityLevelEh:0000000a .LFE80
C:\Users\kenne\AppData\Local\Temp\ccpPZdpD.s:8792   .debug_loclists:00000158 .LLST52
C:\Users\kenne\AppData\Local\Temp\ccpPZdpD.s:8787   .debug_loclists:00000154 .LVUS52
C:\Users\kenne\AppData\Local\Temp\ccpPZdpD.s:8821   .debug_loclists:00000176 .LLST53
C:\Users\kenne\AppData\Local\Temp\ccpPZdpD.s:8814   .debug_loclists:00000170 .LVUS53
C:\Users\kenne\AppData\Local\Temp\ccpPZdpD.s:3165   .text._ZN20Adafruit_Fingerprint16setSecurityLevelEh:00000008 .LVL157
C:\Users\kenne\AppData\Local\Temp\ccpPZdpD.s:3117   .text._ZN20Adafruit_Fingerprint11setBaudRateEh:00000000 .LFB79
C:\Users\kenne\AppData\Local\Temp\ccpPZdpD.s:3143   .text._ZN20Adafruit_Fingerprint11setBaudRateEh:00000010 .LFE79
C:\Users\kenne\AppData\Local\Temp\ccpPZdpD.s:8848   .debug_loclists:00000192 .LLST50
C:\Users\kenne\AppData\Local\Temp\ccpPZdpD.s:8843   .debug_loclists:0000018e .LVUS50
C:\Users\kenne\AppData\Local\Temp\ccpPZdpD.s:8875   .debug_loclists:000001ae .LLST51
C:\Users\kenne\AppData\Local\Temp\ccpPZdpD.s:8870   .debug_loclists:000001aa .LVUS51
C:\Users\kenne\AppData\Local\Temp\ccpPZdpD.s:3138   .text._ZN20Adafruit_Fingerprint11setBaudRateEh:0000000e .LVL154
C:\Users\kenne\AppData\Local\Temp\ccpPZdpD.s:3000   .text._ZN20Adafruit_Fingerprint13writeRegisterEhh:00000000 .LFB78
C:\Users\kenne\AppData\Local\Temp\ccpPZdpD.s:3110   .text._ZN20Adafruit_Fingerprint13writeRegisterEhh:0000008c .LFE78
C:\Users\kenne\AppData\Local\Temp\ccpPZdpD.s:8897   .debug_loclists:000001c5 .LLST47
C:\Users\kenne\AppData\Local\Temp\ccpPZdpD.s:8892   .debug_loclists:000001c1 .LVUS47
C:\Users\kenne\AppData\Local\Temp\ccpPZdpD.s:8924   .debug_loclists:000001e2 .LLST48
C:\Users\kenne\AppData\Local\Temp\ccpPZdpD.s:8919   .debug_loclists:000001de .LVUS48
C:\Users\kenne\AppData\Local\Temp\ccpPZdpD.s:8946   .debug_loclists:000001fa .LLST49
C:\Users\kenne\AppData\Local\Temp\ccpPZdpD.s:8941   .debug_loclists:000001f6 .LVUS49
C:\Users\kenne\AppData\Local\Temp\ccpPZdpD.s:3057   .text._ZN20Adafruit_Fingerprint13writeRegisterEhh:00000040 .LVL148
C:\Users\kenne\AppData\Local\Temp\ccpPZdpD.s:3065   .text._ZN20Adafruit_Fingerprint13writeRegisterEhh:0000004e .LVL149
C:\Users\kenne\AppData\Local\Temp\ccpPZdpD.s:3075   .text._ZN20Adafruit_Fingerprint13writeRegisterEhh:00000060 .LVL150
C:\Users\kenne\AppData\Local\Temp\ccpPZdpD.s:2880   .text._ZN20Adafruit_Fingerprint11setPasswordEm:00000000 .LFB77
GAS LISTING C:\Users\kenne\AppData\Local\Temp\ccpPZdpD.s 			page 110


C:\Users\kenne\AppData\Local\Temp\ccpPZdpD.s:2993   .text._ZN20Adafruit_Fingerprint11setPasswordEm:00000094 .LFE77
C:\Users\kenne\AppData\Local\Temp\ccpPZdpD.s:8968   .debug_loclists:00000212 .LLST45
C:\Users\kenne\AppData\Local\Temp\ccpPZdpD.s:8963   .debug_loclists:0000020e .LVUS45
C:\Users\kenne\AppData\Local\Temp\ccpPZdpD.s:8995   .debug_loclists:0000022f .LLST46
C:\Users\kenne\AppData\Local\Temp\ccpPZdpD.s:8990   .debug_loclists:0000022b .LVUS46
C:\Users\kenne\AppData\Local\Temp\ccpPZdpD.s:2940   .text._ZN20Adafruit_Fingerprint11setPasswordEm:00000048 .LVL141
C:\Users\kenne\AppData\Local\Temp\ccpPZdpD.s:2948   .text._ZN20Adafruit_Fingerprint11setPasswordEm:00000056 .LVL142
C:\Users\kenne\AppData\Local\Temp\ccpPZdpD.s:2958   .text._ZN20Adafruit_Fingerprint11setPasswordEm:00000068 .LVL143
C:\Users\kenne\AppData\Local\Temp\ccpPZdpD.s:2753   .text._ZN20Adafruit_Fingerprint16getTemplateCountEv:00000000 .LFB76
C:\Users\kenne\AppData\Local\Temp\ccpPZdpD.s:2873   .text._ZN20Adafruit_Fingerprint16getTemplateCountEv:00000098 .LFE76
C:\Users\kenne\AppData\Local\Temp\ccpPZdpD.s:9028   .debug_loclists:00000252 .LLST44
C:\Users\kenne\AppData\Local\Temp\ccpPZdpD.s:9023   .debug_loclists:0000024e .LVUS44
C:\Users\kenne\AppData\Local\Temp\ccpPZdpD.s:2801   .text._ZN20Adafruit_Fingerprint16getTemplateCountEv:00000036 .LVL135
C:\Users\kenne\AppData\Local\Temp\ccpPZdpD.s:2808   .text._ZN20Adafruit_Fingerprint16getTemplateCountEv:00000042 .LVL136
C:\Users\kenne\AppData\Local\Temp\ccpPZdpD.s:2817   .text._ZN20Adafruit_Fingerprint16getTemplateCountEv:00000052 .LVL137
C:\Users\kenne\AppData\Local\Temp\ccpPZdpD.s:2582   .text._ZN20Adafruit_Fingerprint12fingerSearchEh:00000000 .LFB75
C:\Users\kenne\AppData\Local\Temp\ccpPZdpD.s:2746   .text._ZN20Adafruit_Fingerprint12fingerSearchEh:000000d2 .LFE75
C:\Users\kenne\AppData\Local\Temp\ccpPZdpD.s:9055   .debug_loclists:0000026f .LLST42
C:\Users\kenne\AppData\Local\Temp\ccpPZdpD.s:9050   .debug_loclists:0000026b .LVUS42
C:\Users\kenne\AppData\Local\Temp\ccpPZdpD.s:9082   .debug_loclists:0000028c .LLST43
C:\Users\kenne\AppData\Local\Temp\ccpPZdpD.s:9077   .debug_loclists:00000288 .LVUS43
C:\Users\kenne\AppData\Local\Temp\ccpPZdpD.s:2644   .text._ZN20Adafruit_Fingerprint12fingerSearchEh:0000004c .LVL130
C:\Users\kenne\AppData\Local\Temp\ccpPZdpD.s:2651   .text._ZN20Adafruit_Fingerprint12fingerSearchEh:00000058 .LVL131
C:\Users\kenne\AppData\Local\Temp\ccpPZdpD.s:2660   .text._ZN20Adafruit_Fingerprint12fingerSearchEh:00000068 .LVL132
C:\Users\kenne\AppData\Local\Temp\ccpPZdpD.s:2451   .text._ZN20Adafruit_Fingerprint10LEDcontrolEhhhh:00000000 .LFB74
C:\Users\kenne\AppData\Local\Temp\ccpPZdpD.s:2575   .text._ZN20Adafruit_Fingerprint10LEDcontrolEhhhh:00000098 .LFE74
C:\Users\kenne\AppData\Local\Temp\ccpPZdpD.s:9104   .debug_loclists:000002a4 .LLST37
C:\Users\kenne\AppData\Local\Temp\ccpPZdpD.s:9099   .debug_loclists:000002a0 .LVUS37
C:\Users\kenne\AppData\Local\Temp\ccpPZdpD.s:9131   .debug_loclists:000002c1 .LLST38
C:\Users\kenne\AppData\Local\Temp\ccpPZdpD.s:9126   .debug_loclists:000002bd .LVUS38
C:\Users\kenne\AppData\Local\Temp\ccpPZdpD.s:9153   .debug_loclists:000002d9 .LLST39
C:\Users\kenne\AppData\Local\Temp\ccpPZdpD.s:9148   .debug_loclists:000002d5 .LVUS39
C:\Users\kenne\AppData\Local\Temp\ccpPZdpD.s:9175   .debug_loclists:000002f1 .LLST40
C:\Users\kenne\AppData\Local\Temp\ccpPZdpD.s:9170   .debug_loclists:000002ed .LVUS40
C:\Users\kenne\AppData\Local\Temp\ccpPZdpD.s:9199   .debug_loclists:0000030b .LLST41
C:\Users\kenne\AppData\Local\Temp\ccpPZdpD.s:9192   .debug_loclists:00000305 .LVUS41
C:\Users\kenne\AppData\Local\Temp\ccpPZdpD.s:2518   .text._ZN20Adafruit_Fingerprint10LEDcontrolEhhhh:0000004a .LVL122
C:\Users\kenne\AppData\Local\Temp\ccpPZdpD.s:2526   .text._ZN20Adafruit_Fingerprint10LEDcontrolEhhhh:00000058 .LVL123
C:\Users\kenne\AppData\Local\Temp\ccpPZdpD.s:2536   .text._ZN20Adafruit_Fingerprint10LEDcontrolEhhhh:0000006a .LVL124
C:\Users\kenne\AppData\Local\Temp\ccpPZdpD.s:2266   .text._ZN20Adafruit_Fingerprint10LEDcontrolEb:00000000 .LFB73
C:\Users\kenne\AppData\Local\Temp\ccpPZdpD.s:2444   .text._ZN20Adafruit_Fingerprint10LEDcontrolEb:000000dc .LFE73
C:\Users\kenne\AppData\Local\Temp\ccpPZdpD.s:9230   .debug_loclists:00000330 .LLST34
C:\Users\kenne\AppData\Local\Temp\ccpPZdpD.s:9221   .debug_loclists:00000328 .LVUS34
C:\Users\kenne\AppData\Local\Temp\ccpPZdpD.s:9279   .debug_loclists:00000367 .LLST35
C:\Users\kenne\AppData\Local\Temp\ccpPZdpD.s:9270   .debug_loclists:0000035f .LVUS35
C:\Users\kenne\AppData\Local\Temp\ccpPZdpD.s:10017  .debug_rnglists:0000000c .LLRL36
C:\Users\kenne\AppData\Local\Temp\ccpPZdpD.s:2323   .text._ZN20Adafruit_Fingerprint10LEDcontrolEb:0000003e .LVL108
C:\Users\kenne\AppData\Local\Temp\ccpPZdpD.s:2331   .text._ZN20Adafruit_Fingerprint10LEDcontrolEb:0000004c .LVL109
C:\Users\kenne\AppData\Local\Temp\ccpPZdpD.s:2341   .text._ZN20Adafruit_Fingerprint10LEDcontrolEb:0000005e .LVL110
C:\Users\kenne\AppData\Local\Temp\ccpPZdpD.s:2383   .text._ZN20Adafruit_Fingerprint10LEDcontrolEb:0000008a .LBB12
C:\Users\kenne\AppData\Local\Temp\ccpPZdpD.s:2441   .text._ZN20Adafruit_Fingerprint10LEDcontrolEb:000000dc .LBE12
C:\Users\kenne\AppData\Local\Temp\ccpPZdpD.s:2403   .text._ZN20Adafruit_Fingerprint10LEDcontrolEb:000000a6 .LVL114
C:\Users\kenne\AppData\Local\Temp\ccpPZdpD.s:2411   .text._ZN20Adafruit_Fingerprint10LEDcontrolEb:000000b4 .LVL115
C:\Users\kenne\AppData\Local\Temp\ccpPZdpD.s:2421   .text._ZN20Adafruit_Fingerprint10LEDcontrolEb:000000c6 .LVL116
C:\Users\kenne\AppData\Local\Temp\ccpPZdpD.s:2101   .text._ZN20Adafruit_Fingerprint16fingerFastSearchEv:00000000 .LFB72
C:\Users\kenne\AppData\Local\Temp\ccpPZdpD.s:2259   .text._ZN20Adafruit_Fingerprint16fingerFastSearchEv:000000ca .LFE72
C:\Users\kenne\AppData\Local\Temp\ccpPZdpD.s:9314   .debug_loclists:00000390 .LLST33
GAS LISTING C:\Users\kenne\AppData\Local\Temp\ccpPZdpD.s 			page 111


C:\Users\kenne\AppData\Local\Temp\ccpPZdpD.s:9309   .debug_loclists:0000038c .LVUS33
C:\Users\kenne\AppData\Local\Temp\ccpPZdpD.s:2157   .text._ZN20Adafruit_Fingerprint16fingerFastSearchEv:00000044 .LVL102
C:\Users\kenne\AppData\Local\Temp\ccpPZdpD.s:2164   .text._ZN20Adafruit_Fingerprint16fingerFastSearchEv:00000050 .LVL103
C:\Users\kenne\AppData\Local\Temp\ccpPZdpD.s:2173   .text._ZN20Adafruit_Fingerprint16fingerFastSearchEv:00000060 .LVL104
C:\Users\kenne\AppData\Local\Temp\ccpPZdpD.s:1987   .text._ZN20Adafruit_Fingerprint13emptyDatabaseEv:00000000 .LFB71
C:\Users\kenne\AppData\Local\Temp\ccpPZdpD.s:2088   .text._ZN20Adafruit_Fingerprint13emptyDatabaseEv:00000082 .LFE71
C:\Users\kenne\AppData\Local\Temp\ccpPZdpD.s:9341   .debug_loclists:000003ad .LLST32
C:\Users\kenne\AppData\Local\Temp\ccpPZdpD.s:9336   .debug_loclists:000003a9 .LVUS32
C:\Users\kenne\AppData\Local\Temp\ccpPZdpD.s:2035   .text._ZN20Adafruit_Fingerprint13emptyDatabaseEv:00000036 .LVL97
C:\Users\kenne\AppData\Local\Temp\ccpPZdpD.s:2043   .text._ZN20Adafruit_Fingerprint13emptyDatabaseEv:00000044 .LVL98
C:\Users\kenne\AppData\Local\Temp\ccpPZdpD.s:2053   .text._ZN20Adafruit_Fingerprint13emptyDatabaseEv:00000056 .LVL99
C:\Users\kenne\AppData\Local\Temp\ccpPZdpD.s:1867   .text._ZN20Adafruit_Fingerprint11deleteModelEj:00000000 .LFB70
C:\Users\kenne\AppData\Local\Temp\ccpPZdpD.s:1980   .text._ZN20Adafruit_Fingerprint11deleteModelEj:00000094 .LFE70
C:\Users\kenne\AppData\Local\Temp\ccpPZdpD.s:9368   .debug_loclists:000003ca .LLST30
C:\Users\kenne\AppData\Local\Temp\ccpPZdpD.s:9363   .debug_loclists:000003c6 .LVUS30
C:\Users\kenne\AppData\Local\Temp\ccpPZdpD.s:9395   .debug_loclists:000003e7 .LLST31
C:\Users\kenne\AppData\Local\Temp\ccpPZdpD.s:9390   .debug_loclists:000003e3 .LVUS31
C:\Users\kenne\AppData\Local\Temp\ccpPZdpD.s:1927   .text._ZN20Adafruit_Fingerprint11deleteModelEj:00000048 .LVL92
C:\Users\kenne\AppData\Local\Temp\ccpPZdpD.s:1935   .text._ZN20Adafruit_Fingerprint11deleteModelEj:00000056 .LVL93
C:\Users\kenne\AppData\Local\Temp\ccpPZdpD.s:1945   .text._ZN20Adafruit_Fingerprint11deleteModelEj:00000068 .LVL94
C:\Users\kenne\AppData\Local\Temp\ccpPZdpD.s:1757   .text._ZN20Adafruit_Fingerprint8getModelEv:00000000 .LFB69
C:\Users\kenne\AppData\Local\Temp\ccpPZdpD.s:1860   .text._ZN20Adafruit_Fingerprint8getModelEv:00000086 .LFE69
C:\Users\kenne\AppData\Local\Temp\ccpPZdpD.s:9422   .debug_loclists:00000404 .LLST29
C:\Users\kenne\AppData\Local\Temp\ccpPZdpD.s:9417   .debug_loclists:00000400 .LVUS29
C:\Users\kenne\AppData\Local\Temp\ccpPZdpD.s:1807   .text._ZN20Adafruit_Fingerprint8getModelEv:0000003a .LVL86
C:\Users\kenne\AppData\Local\Temp\ccpPZdpD.s:1815   .text._ZN20Adafruit_Fingerprint8getModelEv:00000048 .LVL87
C:\Users\kenne\AppData\Local\Temp\ccpPZdpD.s:1825   .text._ZN20Adafruit_Fingerprint8getModelEv:0000005a .LVL88
C:\Users\kenne\AppData\Local\Temp\ccpPZdpD.s:1639   .text._ZN20Adafruit_Fingerprint9loadModelEj:00000000 .LFB68
C:\Users\kenne\AppData\Local\Temp\ccpPZdpD.s:1750   .text._ZN20Adafruit_Fingerprint9loadModelEj:00000092 .LFE68
C:\Users\kenne\AppData\Local\Temp\ccpPZdpD.s:9449   .debug_loclists:00000421 .LLST27
C:\Users\kenne\AppData\Local\Temp\ccpPZdpD.s:9444   .debug_loclists:0000041d .LVUS27
C:\Users\kenne\AppData\Local\Temp\ccpPZdpD.s:9476   .debug_loclists:0000043e .LLST28
C:\Users\kenne\AppData\Local\Temp\ccpPZdpD.s:9471   .debug_loclists:0000043a .LVUS28
C:\Users\kenne\AppData\Local\Temp\ccpPZdpD.s:1697   .text._ZN20Adafruit_Fingerprint9loadModelEj:00000046 .LVL81
C:\Users\kenne\AppData\Local\Temp\ccpPZdpD.s:1705   .text._ZN20Adafruit_Fingerprint9loadModelEj:00000054 .LVL82
C:\Users\kenne\AppData\Local\Temp\ccpPZdpD.s:1715   .text._ZN20Adafruit_Fingerprint9loadModelEj:00000066 .LVL83
C:\Users\kenne\AppData\Local\Temp\ccpPZdpD.s:1521   .text._ZN20Adafruit_Fingerprint10storeModelEj:00000000 .LFB67
C:\Users\kenne\AppData\Local\Temp\ccpPZdpD.s:1632   .text._ZN20Adafruit_Fingerprint10storeModelEj:00000092 .LFE67
C:\Users\kenne\AppData\Local\Temp\ccpPZdpD.s:9503   .debug_loclists:0000045b .LLST25
C:\Users\kenne\AppData\Local\Temp\ccpPZdpD.s:9498   .debug_loclists:00000457 .LVUS25
C:\Users\kenne\AppData\Local\Temp\ccpPZdpD.s:9530   .debug_loclists:00000478 .LLST26
C:\Users\kenne\AppData\Local\Temp\ccpPZdpD.s:9525   .debug_loclists:00000474 .LVUS26
C:\Users\kenne\AppData\Local\Temp\ccpPZdpD.s:1579   .text._ZN20Adafruit_Fingerprint10storeModelEj:00000046 .LVL75
C:\Users\kenne\AppData\Local\Temp\ccpPZdpD.s:1587   .text._ZN20Adafruit_Fingerprint10storeModelEj:00000054 .LVL76
C:\Users\kenne\AppData\Local\Temp\ccpPZdpD.s:1597   .text._ZN20Adafruit_Fingerprint10storeModelEj:00000066 .LVL77
C:\Users\kenne\AppData\Local\Temp\ccpPZdpD.s:1413   .text._ZN20Adafruit_Fingerprint11createModelEv:00000000 .LFB66
C:\Users\kenne\AppData\Local\Temp\ccpPZdpD.s:1514   .text._ZN20Adafruit_Fingerprint11createModelEv:00000082 .LFE66
C:\Users\kenne\AppData\Local\Temp\ccpPZdpD.s:9557   .debug_loclists:00000495 .LLST24
C:\Users\kenne\AppData\Local\Temp\ccpPZdpD.s:9552   .debug_loclists:00000491 .LVUS24
C:\Users\kenne\AppData\Local\Temp\ccpPZdpD.s:1461   .text._ZN20Adafruit_Fingerprint11createModelEv:00000036 .LVL69
C:\Users\kenne\AppData\Local\Temp\ccpPZdpD.s:1469   .text._ZN20Adafruit_Fingerprint11createModelEv:00000044 .LVL70
C:\Users\kenne\AppData\Local\Temp\ccpPZdpD.s:1479   .text._ZN20Adafruit_Fingerprint11createModelEv:00000056 .LVL71
C:\Users\kenne\AppData\Local\Temp\ccpPZdpD.s:1300   .text._ZN20Adafruit_Fingerprint8image2TzEh:00000000 .LFB65
C:\Users\kenne\AppData\Local\Temp\ccpPZdpD.s:1406   .text._ZN20Adafruit_Fingerprint8image2TzEh:00000088 .LFE65
C:\Users\kenne\AppData\Local\Temp\ccpPZdpD.s:9584   .debug_loclists:000004b2 .LLST22
C:\Users\kenne\AppData\Local\Temp\ccpPZdpD.s:9579   .debug_loclists:000004ae .LVUS22
C:\Users\kenne\AppData\Local\Temp\ccpPZdpD.s:9611   .debug_loclists:000004cf .LLST23
GAS LISTING C:\Users\kenne\AppData\Local\Temp\ccpPZdpD.s 			page 112


C:\Users\kenne\AppData\Local\Temp\ccpPZdpD.s:9606   .debug_loclists:000004cb .LVUS23
C:\Users\kenne\AppData\Local\Temp\ccpPZdpD.s:1353   .text._ZN20Adafruit_Fingerprint8image2TzEh:0000003c .LVL64
C:\Users\kenne\AppData\Local\Temp\ccpPZdpD.s:1361   .text._ZN20Adafruit_Fingerprint8image2TzEh:0000004a .LVL65
C:\Users\kenne\AppData\Local\Temp\ccpPZdpD.s:1371   .text._ZN20Adafruit_Fingerprint8image2TzEh:0000005c .LVL66
C:\Users\kenne\AppData\Local\Temp\ccpPZdpD.s:1192   .text._ZN20Adafruit_Fingerprint8getImageEv:00000000 .LFB64
C:\Users\kenne\AppData\Local\Temp\ccpPZdpD.s:1293   .text._ZN20Adafruit_Fingerprint8getImageEv:00000082 .LFE64
C:\Users\kenne\AppData\Local\Temp\ccpPZdpD.s:9633   .debug_loclists:000004e7 .LLST21
C:\Users\kenne\AppData\Local\Temp\ccpPZdpD.s:9628   .debug_loclists:000004e3 .LVUS21
C:\Users\kenne\AppData\Local\Temp\ccpPZdpD.s:1240   .text._ZN20Adafruit_Fingerprint8getImageEv:00000036 .LVL58
C:\Users\kenne\AppData\Local\Temp\ccpPZdpD.s:1248   .text._ZN20Adafruit_Fingerprint8getImageEv:00000044 .LVL59
C:\Users\kenne\AppData\Local\Temp\ccpPZdpD.s:1258   .text._ZN20Adafruit_Fingerprint8getImageEv:00000056 .LVL60
C:\Users\kenne\AppData\Local\Temp\ccpPZdpD.s:925    .text._ZN20Adafruit_Fingerprint13getParametersEv:00000000 .LFB63
C:\Users\kenne\AppData\Local\Temp\ccpPZdpD.s:1185   .text._ZN20Adafruit_Fingerprint13getParametersEv:00000150 .LFE63
C:\Users\kenne\AppData\Local\Temp\ccpPZdpD.s:9660   .debug_loclists:00000504 .LLST20
C:\Users\kenne\AppData\Local\Temp\ccpPZdpD.s:9655   .debug_loclists:00000500 .LVUS20
C:\Users\kenne\AppData\Local\Temp\ccpPZdpD.s:973    .text._ZN20Adafruit_Fingerprint13getParametersEv:00000036 .LVL53
C:\Users\kenne\AppData\Local\Temp\ccpPZdpD.s:980    .text._ZN20Adafruit_Fingerprint13getParametersEv:00000042 .LVL54
C:\Users\kenne\AppData\Local\Temp\ccpPZdpD.s:989    .text._ZN20Adafruit_Fingerprint13getParametersEv:00000052 .LVL55
C:\Users\kenne\AppData\Local\Temp\ccpPZdpD.s:770    .text._ZN20Adafruit_Fingerprint13checkPasswordEv:00000000 .LFB62
C:\Users\kenne\AppData\Local\Temp\ccpPZdpD.s:889    .text._ZN20Adafruit_Fingerprint13checkPasswordEv:000000a0 .LFE62
C:\Users\kenne\AppData\Local\Temp\ccpPZdpD.s:9687   .debug_loclists:00000521 .LLST18
C:\Users\kenne\AppData\Local\Temp\ccpPZdpD.s:9682   .debug_loclists:0000051d .LVUS18
C:\Users\kenne\AppData\Local\Temp\ccpPZdpD.s:833    .text._ZN20Adafruit_Fingerprint13checkPasswordEv:00000052 .LVL46
C:\Users\kenne\AppData\Local\Temp\ccpPZdpD.s:840    .text._ZN20Adafruit_Fingerprint13checkPasswordEv:0000005e .LVL47
C:\Users\kenne\AppData\Local\Temp\ccpPZdpD.s:849    .text._ZN20Adafruit_Fingerprint13checkPasswordEv:0000006e .LVL48
C:\Users\kenne\AppData\Local\Temp\ccpPZdpD.s:896    .text._ZN20Adafruit_Fingerprint14verifyPasswordEv:00000000 .LFB61
C:\Users\kenne\AppData\Local\Temp\ccpPZdpD.s:918    .text._ZN20Adafruit_Fingerprint14verifyPasswordEv:0000000e .LFE61
C:\Users\kenne\AppData\Local\Temp\ccpPZdpD.s:9714   .debug_loclists:0000053e .LLST19
C:\Users\kenne\AppData\Local\Temp\ccpPZdpD.s:9709   .debug_loclists:0000053a .LVUS19
C:\Users\kenne\AppData\Local\Temp\ccpPZdpD.s:906    .text._ZN20Adafruit_Fingerprint14verifyPasswordEv:00000004 .LVL50
C:\Users\kenne\AppData\Local\Temp\ccpPZdpD.s:222    .text._ZN20Adafruit_Fingerprint5beginEm:00000000 .LFB60
C:\Users\kenne\AppData\Local\Temp\ccpPZdpD.s:261    .text._ZN20Adafruit_Fingerprint5beginEm:00000014 .LFE60
C:\Users\kenne\AppData\Local\Temp\ccpPZdpD.s:9741   .debug_loclists:0000055a .LLST5
C:\Users\kenne\AppData\Local\Temp\ccpPZdpD.s:9736   .debug_loclists:00000556 .LVUS5
C:\Users\kenne\AppData\Local\Temp\ccpPZdpD.s:231    .text._ZN20Adafruit_Fingerprint5beginEm:00000000 .LBI6
C:\Users\kenne\AppData\Local\Temp\ccpPZdpD.s:230    .text._ZN20Adafruit_Fingerprint5beginEm:00000000 .LBB6
C:\Users\kenne\AppData\Local\Temp\ccpPZdpD.s:257    .text._ZN20Adafruit_Fingerprint5beginEm:00000012 .LBE6
C:\Users\kenne\AppData\Local\Temp\ccpPZdpD.s:9766   .debug_loclists:00000574 .LLST6
C:\Users\kenne\AppData\Local\Temp\ccpPZdpD.s:9763   .debug_loclists:00000572 .LVUS6
C:\Users\kenne\AppData\Local\Temp\ccpPZdpD.s:9778   .debug_loclists:00000584 .LLST7
C:\Users\kenne\AppData\Local\Temp\ccpPZdpD.s:9775   .debug_loclists:00000582 .LVUS7
C:\Users\kenne\AppData\Local\Temp\ccpPZdpD.s:9790   .debug_loclists:00000594 .LLST8
C:\Users\kenne\AppData\Local\Temp\ccpPZdpD.s:9787   .debug_loclists:00000592 .LVUS8
C:\Users\kenne\AppData\Local\Temp\ccpPZdpD.s:142    .text._ZN20Adafruit_FingerprintC2EP6Usart0m:00000000 .LFB58
C:\Users\kenne\AppData\Local\Temp\ccpPZdpD.s:213    .text._ZN20Adafruit_FingerprintC2EP6Usart0m:00000054 .LFE58
C:\Users\kenne\AppData\Local\Temp\ccpPZdpD.s:9804   .debug_loclists:000005a6 .LLST4
C:\Users\kenne\AppData\Local\Temp\ccpPZdpD.s:9799   .debug_loclists:000005a2 .LVUS4
C:\Users\kenne\AppData\Local\Temp\ccpPZdpD.s:38     .text._ZN27Adafruit_Fingerprint_PacketC2EhjPh:00000000 .LFB55
C:\Users\kenne\AppData\Local\Temp\ccpPZdpD.s:133    .text._ZN27Adafruit_Fingerprint_PacketC2EhjPh:00000062 .LFE55
C:\Users\kenne\AppData\Local\Temp\ccpPZdpD.s:9831   .debug_loclists:000005c2 .LLST0
C:\Users\kenne\AppData\Local\Temp\ccpPZdpD.s:9826   .debug_loclists:000005be .LVUS0
C:\Users\kenne\AppData\Local\Temp\ccpPZdpD.s:9862   .debug_loclists:000005e2 .LLST1
C:\Users\kenne\AppData\Local\Temp\ccpPZdpD.s:9853   .debug_loclists:000005da .LVUS1
C:\Users\kenne\AppData\Local\Temp\ccpPZdpD.s:9895   .debug_loclists:00000604 .LLST2
C:\Users\kenne\AppData\Local\Temp\ccpPZdpD.s:9890   .debug_loclists:00000600 .LVUS2
C:\Users\kenne\AppData\Local\Temp\ccpPZdpD.s:9922   .debug_loclists:00000620 .LLST3
C:\Users\kenne\AppData\Local\Temp\ccpPZdpD.s:9917   .debug_loclists:0000061c .LVUS3
GAS LISTING C:\Users\kenne\AppData\Local\Temp\ccpPZdpD.s 			page 113


C:\Users\kenne\AppData\Local\Temp\ccpPZdpD.s:112    .text._ZN27Adafruit_Fingerprint_PacketC2EhjPh:00000050 .LVL5
C:\Users\kenne\AppData\Local\Temp\ccpPZdpD.s:15     .text._Z7getTickv:00000000 .LFB32
C:\Users\kenne\AppData\Local\Temp\ccpPZdpD.s:31     .text._Z7getTickv:00000008 .LFE32
C:\Users\kenne\AppData\Local\Temp\ccpPZdpD.s:522    .text._ZN20Adafruit_Fingerprint19getStructuredPacketEP27Adafruit_Fingerprint_Packetj:00000000 .LVL36
C:\Users\kenne\AppData\Local\Temp\ccpPZdpD.s:566    .text._ZN20Adafruit_Fingerprint19getStructuredPacketEP27Adafruit_Fingerprint_Packetj:0000001e .LVL37
C:\Users\kenne\AppData\Local\Temp\ccpPZdpD.s:267    .text._ZN20Adafruit_Fingerprint21writeStructuredPacketERK27Adafruit_Fingerprint_Packet:00000000 .LVL12
C:\Users\kenne\AppData\Local\Temp\ccpPZdpD.s:397    .text._ZN20Adafruit_Fingerprint21writeStructuredPacketERK27Adafruit_Fingerprint_Packet:00000098 .LVL22
C:\Users\kenne\AppData\Local\Temp\ccpPZdpD.s:429    .text._ZN20Adafruit_Fingerprint21writeStructuredPacketERK27Adafruit_Fingerprint_Packet:000000c2 .LVL26
C:\Users\kenne\AppData\Local\Temp\ccpPZdpD.s:3176   .text._ZN20Adafruit_Fingerprint13setPacketSizeEh:00000000 .LVL158
C:\Users\kenne\AppData\Local\Temp\ccpPZdpD.s:3149   .text._ZN20Adafruit_Fingerprint16setSecurityLevelEh:00000000 .LVL155
C:\Users\kenne\AppData\Local\Temp\ccpPZdpD.s:3116   .text._ZN20Adafruit_Fingerprint11setBaudRateEh:00000000 .LVL151
C:\Users\kenne\AppData\Local\Temp\ccpPZdpD.s:2999   .text._ZN20Adafruit_Fingerprint13writeRegisterEhh:00000000 .LVL144
C:\Users\kenne\AppData\Local\Temp\ccpPZdpD.s:2879   .text._ZN20Adafruit_Fingerprint11setPasswordEm:00000000 .LVL138
C:\Users\kenne\AppData\Local\Temp\ccpPZdpD.s:2752   .text._ZN20Adafruit_Fingerprint16getTemplateCountEv:00000000 .LVL133
C:\Users\kenne\AppData\Local\Temp\ccpPZdpD.s:2581   .text._ZN20Adafruit_Fingerprint12fingerSearchEh:00000000 .LVL127
C:\Users\kenne\AppData\Local\Temp\ccpPZdpD.s:2450   .text._ZN20Adafruit_Fingerprint10LEDcontrolEhhhh:00000000 .LVL117
C:\Users\kenne\AppData\Local\Temp\ccpPZdpD.s:2265   .text._ZN20Adafruit_Fingerprint10LEDcontrolEb:00000000 .LVL105
C:\Users\kenne\AppData\Local\Temp\ccpPZdpD.s:2100   .text._ZN20Adafruit_Fingerprint16fingerFastSearchEv:00000000 .LVL100
C:\Users\kenne\AppData\Local\Temp\ccpPZdpD.s:1986   .text._ZN20Adafruit_Fingerprint13emptyDatabaseEv:00000000 .LVL95
C:\Users\kenne\AppData\Local\Temp\ccpPZdpD.s:1866   .text._ZN20Adafruit_Fingerprint11deleteModelEj:00000000 .LVL89
C:\Users\kenne\AppData\Local\Temp\ccpPZdpD.s:1756   .text._ZN20Adafruit_Fingerprint8getModelEv:00000000 .LVL84
C:\Users\kenne\AppData\Local\Temp\ccpPZdpD.s:1638   .text._ZN20Adafruit_Fingerprint9loadModelEj:00000000 .LVL78
C:\Users\kenne\AppData\Local\Temp\ccpPZdpD.s:1520   .text._ZN20Adafruit_Fingerprint10storeModelEj:00000000 .LVL72
C:\Users\kenne\AppData\Local\Temp\ccpPZdpD.s:1412   .text._ZN20Adafruit_Fingerprint11createModelEv:00000000 .LVL67
C:\Users\kenne\AppData\Local\Temp\ccpPZdpD.s:1299   .text._ZN20Adafruit_Fingerprint8image2TzEh:00000000 .LVL61
C:\Users\kenne\AppData\Local\Temp\ccpPZdpD.s:1191   .text._ZN20Adafruit_Fingerprint8getImageEv:00000000 .LVL56
C:\Users\kenne\AppData\Local\Temp\ccpPZdpD.s:924    .text._ZN20Adafruit_Fingerprint13getParametersEv:00000000 .LVL51
C:\Users\kenne\AppData\Local\Temp\ccpPZdpD.s:769    .text._ZN20Adafruit_Fingerprint13checkPasswordEv:00000000 .LVL44
C:\Users\kenne\AppData\Local\Temp\ccpPZdpD.s:895    .text._ZN20Adafruit_Fingerprint14verifyPasswordEv:00000000 .LVL49
C:\Users\kenne\AppData\Local\Temp\ccpPZdpD.s:221    .text._ZN20Adafruit_Fingerprint5beginEm:00000000 .LVL9
C:\Users\kenne\AppData\Local\Temp\ccpPZdpD.s:141    .text._ZN20Adafruit_FingerprintC2EP6Usart0m:00000000 .LVL7
C:\Users\kenne\AppData\Local\Temp\ccpPZdpD.s:37     .text._ZN27Adafruit_Fingerprint_PacketC2EhjPh:00000000 .LVL0
C:\Users\kenne\AppData\Local\Temp\ccpPZdpD.s:3208   .debug_info:00000000 .Ldebug_info0
C:\Users\kenne\AppData\Local\Temp\ccpPZdpD.s:2303   .text._ZN20Adafruit_Fingerprint10LEDcontrolEb:00000022 .LBB10
                           .group:00000000 _ZN27Adafruit_Fingerprint_PacketC5EhjPh

UNDEFINED SYMBOLS
memcpy
_ZN6Usart05writeEj
_ZN6Usart04readEPh
__do_copy_data
