GAS LISTING C:\Users\kenne\AppData\Local\Temp\cc6xNdAw.s 			page 1


   1               		.file	"twi.cpp"
   2               	__SP_H__ = 0x3e
   3               	__SP_L__ = 0x3d
   4               	__SREG__ = 0x3f
   5               	__tmp_reg__ = 0
   6               	__zero_reg__ = 1
   7               		.text
   8               	.Ltext0:
   9               		.cfi_sections	.debug_frame
  10               		.file 0 "F:\\IMPORTANTE\\Faculdade\\MCC\\MCC-AVR-Projects\\projects\\final_laptop" "funsape/periph
  11               		.section	.text._ZN3Bus7readRegEhPhj,"axG",@progbits,_ZN3Bus7readRegEhPhj,comdat
  12               		.weak	_ZN3Bus7readRegEhPhj
  14               	_ZN3Bus7readRegEhPhj:
  15               	.LVL0:
  16               	.LFB33:
  17               		.file 1 "funsape/peripheral/../util/bus.hpp"
   1:funsape/peripheral/../util/bus.hpp **** //!
   2:funsape/peripheral/../util/bus.hpp **** //! \file           bus.hpp
   3:funsape/peripheral/../util/bus.hpp **** //! \brief          Bus Handler support to Funsape AVR8 Library
   4:funsape/peripheral/../util/bus.hpp **** //! \author         Leandro Schwarz (bladabuska+funsapeavr8lib@gmail.com)
   5:funsape/peripheral/../util/bus.hpp **** //! \date           2023-05-16
   6:funsape/peripheral/../util/bus.hpp **** //! \version        23.04
   7:funsape/peripheral/../util/bus.hpp **** //! \copyright      license
   8:funsape/peripheral/../util/bus.hpp **** //! \details        This file provides a virtual class to handle a digital
   9:funsape/peripheral/../util/bus.hpp **** //!                     communication bus for the Funsape AVR8 Library
  10:funsape/peripheral/../util/bus.hpp **** //!
  11:funsape/peripheral/../util/bus.hpp **** 
  12:funsape/peripheral/../util/bus.hpp **** // =============================================================================
  13:funsape/peripheral/../util/bus.hpp **** // Include guard (START)
  14:funsape/peripheral/../util/bus.hpp **** // =============================================================================
  15:funsape/peripheral/../util/bus.hpp **** 
  16:funsape/peripheral/../util/bus.hpp **** #ifndef __BUS_HPP
  17:funsape/peripheral/../util/bus.hpp **** #define __BUS_HPP                       2304
  18:funsape/peripheral/../util/bus.hpp **** 
  19:funsape/peripheral/../util/bus.hpp **** // =============================================================================
  20:funsape/peripheral/../util/bus.hpp **** // Dependencies
  21:funsape/peripheral/../util/bus.hpp **** // =============================================================================
  22:funsape/peripheral/../util/bus.hpp **** 
  23:funsape/peripheral/../util/bus.hpp **** //     /////////////////     GLOBAL DEFINITIONS FILE    /////////////////     //
  24:funsape/peripheral/../util/bus.hpp **** #include "../globalDefines.hpp"
  25:funsape/peripheral/../util/bus.hpp **** #if !defined(__GLOBAL_DEFINES_HPP)
  26:funsape/peripheral/../util/bus.hpp **** #   error "Global definitions file is corrupted!"
  27:funsape/peripheral/../util/bus.hpp **** #elif __GLOBAL_DEFINES_HPP != __BUS_HPP
  28:funsape/peripheral/../util/bus.hpp **** #   error "Version mismatch between file header and global definitions file!"
  29:funsape/peripheral/../util/bus.hpp **** #endif
  30:funsape/peripheral/../util/bus.hpp **** 
  31:funsape/peripheral/../util/bus.hpp **** //     //////////////////     LIBRARY DEPENDENCIES     //////////////////     //
  32:funsape/peripheral/../util/bus.hpp **** #include "debug.hpp"
  33:funsape/peripheral/../util/bus.hpp **** #if !defined(__DEBUG_HPP)
  34:funsape/peripheral/../util/bus.hpp **** #   error "Header file (debug.hpp) is corrupted!"
  35:funsape/peripheral/../util/bus.hpp **** #elif __DEBUG_HPP != __BUS_HPP
  36:funsape/peripheral/../util/bus.hpp **** #   error "Version mismatch between header file and library dependency (debug.hpp)!"
  37:funsape/peripheral/../util/bus.hpp **** #endif
  38:funsape/peripheral/../util/bus.hpp **** 
  39:funsape/peripheral/../util/bus.hpp **** // #include "../peripheral/gpio.hpp"
  40:funsape/peripheral/../util/bus.hpp **** // #if !defined(__GPIO_HPP)
  41:funsape/peripheral/../util/bus.hpp **** // #   error "Header file (gpio.hpp) is corrupted!"
GAS LISTING C:\Users\kenne\AppData\Local\Temp\cc6xNdAw.s 			page 2


  42:funsape/peripheral/../util/bus.hpp **** // #elif __GPIO_HPP != __BUS_HPP
  43:funsape/peripheral/../util/bus.hpp **** // #   error "Version mismatch between header file and library dependency (gpio.hpp)!"
  44:funsape/peripheral/../util/bus.hpp **** // #endif
  45:funsape/peripheral/../util/bus.hpp **** 
  46:funsape/peripheral/../util/bus.hpp **** // =============================================================================
  47:funsape/peripheral/../util/bus.hpp **** // Undefining previous definitions
  48:funsape/peripheral/../util/bus.hpp **** // =============================================================================
  49:funsape/peripheral/../util/bus.hpp **** 
  50:funsape/peripheral/../util/bus.hpp **** // NONE
  51:funsape/peripheral/../util/bus.hpp **** 
  52:funsape/peripheral/../util/bus.hpp **** // =============================================================================
  53:funsape/peripheral/../util/bus.hpp **** // Constant definitions
  54:funsape/peripheral/../util/bus.hpp **** // =============================================================================
  55:funsape/peripheral/../util/bus.hpp **** 
  56:funsape/peripheral/../util/bus.hpp **** #define DEBUG_BUS                       0x33FF
  57:funsape/peripheral/../util/bus.hpp **** 
  58:funsape/peripheral/../util/bus.hpp **** // =============================================================================
  59:funsape/peripheral/../util/bus.hpp **** // New data types
  60:funsape/peripheral/../util/bus.hpp **** // =============================================================================
  61:funsape/peripheral/../util/bus.hpp **** 
  62:funsape/peripheral/../util/bus.hpp **** // NONE
  63:funsape/peripheral/../util/bus.hpp **** 
  64:funsape/peripheral/../util/bus.hpp **** // =============================================================================
  65:funsape/peripheral/../util/bus.hpp **** // Interrupt callback functions
  66:funsape/peripheral/../util/bus.hpp **** // =============================================================================
  67:funsape/peripheral/../util/bus.hpp **** 
  68:funsape/peripheral/../util/bus.hpp **** // NONE
  69:funsape/peripheral/../util/bus.hpp **** 
  70:funsape/peripheral/../util/bus.hpp **** // =============================================================================
  71:funsape/peripheral/../util/bus.hpp **** // Bus Class
  72:funsape/peripheral/../util/bus.hpp **** // =============================================================================
  73:funsape/peripheral/../util/bus.hpp **** 
  74:funsape/peripheral/../util/bus.hpp **** //!
  75:funsape/peripheral/../util/bus.hpp **** //! \brief          Bus class
  76:funsape/peripheral/../util/bus.hpp **** //! \details        Bus class
  77:funsape/peripheral/../util/bus.hpp **** //!
  78:funsape/peripheral/../util/bus.hpp **** class Bus
  79:funsape/peripheral/../util/bus.hpp **** {
  80:funsape/peripheral/../util/bus.hpp ****     // -------------------------------------------------------------------------
  81:funsape/peripheral/../util/bus.hpp ****     // New data types ----------------------------------------------------------
  82:funsape/peripheral/../util/bus.hpp **** public:
  83:funsape/peripheral/../util/bus.hpp ****     //     //////////////////////     Bus Type    ///////////////////////     //
  84:funsape/peripheral/../util/bus.hpp ****     //!
  85:funsape/peripheral/../util/bus.hpp ****     //! \brief      Bus type enumeration
  86:funsape/peripheral/../util/bus.hpp ****     //! \details    Bus type options associated with the bus.
  87:funsape/peripheral/../util/bus.hpp ****     //!
  88:funsape/peripheral/../util/bus.hpp ****     enum class BusType {
  89:funsape/peripheral/../util/bus.hpp ****         NONE                            = 0,    //!< Bus is not initialized
  90:funsape/peripheral/../util/bus.hpp ****         OWI                             = 1,    //!< One Wire Interface
  91:funsape/peripheral/../util/bus.hpp ****         PARALLEL                        = 2,    //!< Simple parallel bitbang interface
  92:funsape/peripheral/../util/bus.hpp ****         SERIAL                          = 3,    //!< Simple serial bitbang interface
  93:funsape/peripheral/../util/bus.hpp ****         SPI                             = 4,    //!< Serial Peripheral Interface
  94:funsape/peripheral/../util/bus.hpp ****         TWI                             = 5,    //!< Two Wire Interface (I2C)
  95:funsape/peripheral/../util/bus.hpp ****         UART                            = 6,    //!< Universal Sync./Async. Receiver Transmitter
  96:funsape/peripheral/../util/bus.hpp ****     };
  97:funsape/peripheral/../util/bus.hpp **** 
  98:funsape/peripheral/../util/bus.hpp **** private:
GAS LISTING C:\Users\kenne\AppData\Local\Temp\cc6xNdAw.s 			page 3


  99:funsape/peripheral/../util/bus.hpp ****     // NONE
 100:funsape/peripheral/../util/bus.hpp **** 
 101:funsape/peripheral/../util/bus.hpp **** protected:
 102:funsape/peripheral/../util/bus.hpp ****     // NONE
 103:funsape/peripheral/../util/bus.hpp **** 
 104:funsape/peripheral/../util/bus.hpp ****     // -------------------------------------------------------------------------
 105:funsape/peripheral/../util/bus.hpp ****     // Operator overloading ----------------------------------------------------
 106:funsape/peripheral/../util/bus.hpp **** public:
 107:funsape/peripheral/../util/bus.hpp ****     // NONE
 108:funsape/peripheral/../util/bus.hpp **** 
 109:funsape/peripheral/../util/bus.hpp **** private:
 110:funsape/peripheral/../util/bus.hpp ****     // NONE
 111:funsape/peripheral/../util/bus.hpp **** 
 112:funsape/peripheral/../util/bus.hpp **** protected:
 113:funsape/peripheral/../util/bus.hpp ****     // NONE
 114:funsape/peripheral/../util/bus.hpp **** 
 115:funsape/peripheral/../util/bus.hpp ****     // -------------------------------------------------------------------------
 116:funsape/peripheral/../util/bus.hpp ****     // Constructors ------------------------------------------------------------
 117:funsape/peripheral/../util/bus.hpp **** public:
 118:funsape/peripheral/../util/bus.hpp ****     // NONE
 119:funsape/peripheral/../util/bus.hpp **** 
 120:funsape/peripheral/../util/bus.hpp ****     // -------------------------------------------------------------------------
 121:funsape/peripheral/../util/bus.hpp ****     // Methods - Inherited methods ---------------------------------------------
 122:funsape/peripheral/../util/bus.hpp **** public:
 123:funsape/peripheral/../util/bus.hpp ****     // NONE
 124:funsape/peripheral/../util/bus.hpp **** 
 125:funsape/peripheral/../util/bus.hpp **** protected:
 126:funsape/peripheral/../util/bus.hpp ****     // NONE
 127:funsape/peripheral/../util/bus.hpp **** 
 128:funsape/peripheral/../util/bus.hpp ****     // -------------------------------------------------------------------------
 129:funsape/peripheral/../util/bus.hpp ****     // Methods - Class own methods ---------------------------------------------
 130:funsape/peripheral/../util/bus.hpp **** public:
 131:funsape/peripheral/../util/bus.hpp ****     //     ////////////////////    DATA TRANSFER     ////////////////////     //
 132:funsape/peripheral/../util/bus.hpp ****     //!
 133:funsape/peripheral/../util/bus.hpp ****     //! \brief          Reads data from an address.
 134:funsape/peripheral/../util/bus.hpp ****     //! \details        This function reads a block of data from the given
 135:funsape/peripheral/../util/bus.hpp ****     //!                     register address.
 136:funsape/peripheral/../util/bus.hpp ****     //! \param[in]      reg_p           register address
 137:funsape/peripheral/../util/bus.hpp ****     //! \param[out]     buffData_p      pointer to data vector
 138:funsape/peripheral/../util/bus.hpp ****     //! \param[in]      buffSize_p      number of data elements to read
 139:funsape/peripheral/../util/bus.hpp ****     //! \return         bool_t          True on success / False on failure
 140:funsape/peripheral/../util/bus.hpp ****     //!
 141:funsape/peripheral/../util/bus.hpp ****     virtual bool_t readReg(
  18               		.loc 1 141 20 view -0
  19               		.cfi_startproc
  20               	/* prologue: function */
  21               	/* frame size = 0 */
  22               	/* stack size = 0 */
  23               	.L__stack_usage = 0
 142:funsape/peripheral/../util/bus.hpp ****             cuint8_t reg_p,
 143:funsape/peripheral/../util/bus.hpp ****             uint8_t *buffData_p,
 144:funsape/peripheral/../util/bus.hpp ****             cuint16_t buffSize_p
 145:funsape/peripheral/../util/bus.hpp ****     ) {
 146:funsape/peripheral/../util/bus.hpp ****         // Mark passage for debugging purpose
 147:funsape/peripheral/../util/bus.hpp ****         debugMark("Bus::readReg(cuint8_t, uint8_t *, cuint16_t)", DEBUG_BUS);
  24               		.loc 1 147 9 view .LVU1
  25               		.loc 1 147 77 view .LVU2
GAS LISTING C:\Users\kenne\AppData\Local\Temp\cc6xNdAw.s 			page 4


 148:funsape/peripheral/../util/bus.hpp **** 
 149:funsape/peripheral/../util/bus.hpp ****         // Returns error
 150:funsape/peripheral/../util/bus.hpp ****         this->_lastError = Error::FEATURE_NOT_SUPPORTED;
  26               		.loc 1 150 9 view .LVU3
  27               		.loc 1 150 26 is_stmt 0 view .LVU4
  28 0000 27E0      		ldi r18,lo8(7)
  29 0002 30E0      		ldi r19,0
  30               	.LVL1:
  31               		.loc 1 150 26 view .LVU5
  32 0004 FC01      		movw r30,r24
  33 0006 3383      		std Z+3,r19
  34 0008 2283      		std Z+2,r18
 151:funsape/peripheral/../util/bus.hpp ****         debugMessage(Error::FEATURE_NOT_SUPPORTED, DEBUG_BUS);
  35               		.loc 1 151 9 is_stmt 1 view .LVU6
  36               		.loc 1 151 62 view .LVU7
 152:funsape/peripheral/../util/bus.hpp ****         return false;
  37               		.loc 1 152 9 view .LVU8
 153:funsape/peripheral/../util/bus.hpp ****     };
  38               		.loc 1 153 5 is_stmt 0 view .LVU9
  39 000a 80E0      		ldi r24,0
  40               	.LVL2:
  41               	/* epilogue start */
  42               		.loc 1 153 5 view .LVU10
  43 000c 0895      		ret
  44               		.cfi_endproc
  45               	.LFE33:
  47               		.section	.text._ZN3Bus8sendDataEPhj,"axG",@progbits,_ZN3Bus8sendDataEPhj,comdat
  48               		.weak	_ZN3Bus8sendDataEPhj
  50               	_ZN3Bus8sendDataEPhj:
  51               	.LVL3:
  52               	.LFB34:
 154:funsape/peripheral/../util/bus.hpp **** 
 155:funsape/peripheral/../util/bus.hpp ****     //!
 156:funsape/peripheral/../util/bus.hpp ****     //! \brief          Sends (exchange) data to the bus.
 157:funsape/peripheral/../util/bus.hpp ****     //! \details        This function exchanges (sends and receives) a block of
 158:funsape/peripheral/../util/bus.hpp ****     //!                     data to the bus. The data to be sent is read from
 159:funsape/peripheral/../util/bus.hpp ****     //!                     the data vector, and the data received is stored at
 160:funsape/peripheral/../util/bus.hpp ****     //!                     the same vector, overwriting its data.
 161:funsape/peripheral/../util/bus.hpp ****     //! \param[in,out]  buffData_p      pointer to data vector to exchange
 162:funsape/peripheral/../util/bus.hpp ****     //! \param[in]      buffSize_p      number of data elements to exchange
 163:funsape/peripheral/../util/bus.hpp ****     //! \return         bool_t          True on success / False on failure
 164:funsape/peripheral/../util/bus.hpp ****     //!
 165:funsape/peripheral/../util/bus.hpp ****     virtual bool_t sendData(
  53               		.loc 1 165 20 is_stmt 1 view -0
  54               		.cfi_startproc
  55               	/* prologue: function */
  56               	/* frame size = 0 */
  57               	/* stack size = 0 */
  58               	.L__stack_usage = 0
 166:funsape/peripheral/../util/bus.hpp ****             uint8_t *buffData_p,
 167:funsape/peripheral/../util/bus.hpp ****             cuint16_t buffSize_p
 168:funsape/peripheral/../util/bus.hpp ****     ) {
 169:funsape/peripheral/../util/bus.hpp ****         // Mark passage for debugging purpose
 170:funsape/peripheral/../util/bus.hpp ****         debugMark("Bus::sendData(uint8_t *, cuint16_t)", DEBUG_BUS);
  59               		.loc 1 170 9 view .LVU12
  60               		.loc 1 170 68 view .LVU13
 171:funsape/peripheral/../util/bus.hpp **** 
GAS LISTING C:\Users\kenne\AppData\Local\Temp\cc6xNdAw.s 			page 5


 172:funsape/peripheral/../util/bus.hpp ****         // Returns error
 173:funsape/peripheral/../util/bus.hpp ****         this->_lastError = Error::FEATURE_NOT_SUPPORTED;
  61               		.loc 1 173 9 view .LVU14
  62               		.loc 1 173 26 is_stmt 0 view .LVU15
  63 0000 27E0      		ldi r18,lo8(7)
  64 0002 30E0      		ldi r19,0
  65 0004 FC01      		movw r30,r24
  66 0006 3383      		std Z+3,r19
  67 0008 2283      		std Z+2,r18
 174:funsape/peripheral/../util/bus.hpp ****         debugMessage(Error::FEATURE_NOT_SUPPORTED, DEBUG_BUS);
  68               		.loc 1 174 9 is_stmt 1 view .LVU16
  69               		.loc 1 174 62 view .LVU17
 175:funsape/peripheral/../util/bus.hpp ****         return false;
  70               		.loc 1 175 9 view .LVU18
 176:funsape/peripheral/../util/bus.hpp ****     };
  71               		.loc 1 176 5 is_stmt 0 view .LVU19
  72 000a 80E0      		ldi r24,0
  73               	.LVL4:
  74               	/* epilogue start */
  75               		.loc 1 176 5 view .LVU20
  76 000c 0895      		ret
  77               		.cfi_endproc
  78               	.LFE34:
  80               		.section	.text._ZN3Bus8sendDataEPKhPhj,"axG",@progbits,_ZN3Bus8sendDataEPKhPhj,comdat
  81               		.weak	_ZN3Bus8sendDataEPKhPhj
  83               	_ZN3Bus8sendDataEPKhPhj:
  84               	.LVL5:
  85               	.LFB35:
 177:funsape/peripheral/../util/bus.hpp **** 
 178:funsape/peripheral/../util/bus.hpp ****     //!
 179:funsape/peripheral/../util/bus.hpp ****     //! \brief          Sends (exchange) data to the bus.
 180:funsape/peripheral/../util/bus.hpp ****     //! \details        This function exchanges (sends and receives) a block of
 181:funsape/peripheral/../util/bus.hpp ****     //!                     data to the bus. The data to be sent and the
 182:funsape/peripheral/../util/bus.hpp ****     //!                     received data are stored in separate data vectors.
 183:funsape/peripheral/../util/bus.hpp ****     //! \param[in]      txBuffData_p    pointer to the tx data vector
 184:funsape/peripheral/../util/bus.hpp ****     //! \param[out]     rxBuffData_p    pointer to the rx data vector
 185:funsape/peripheral/../util/bus.hpp ****     //! \param[in]      buffSize_p      number of data elements to exchange
 186:funsape/peripheral/../util/bus.hpp ****     //! \return         bool_t          True on success / False on failure
 187:funsape/peripheral/../util/bus.hpp ****     //!
 188:funsape/peripheral/../util/bus.hpp ****     virtual bool_t sendData(
  86               		.loc 1 188 20 is_stmt 1 view -0
  87               		.cfi_startproc
  88               	/* prologue: function */
  89               	/* frame size = 0 */
  90               	/* stack size = 0 */
  91               	.L__stack_usage = 0
 189:funsape/peripheral/../util/bus.hpp ****             cuint8_t *txBuffData_p,
 190:funsape/peripheral/../util/bus.hpp ****             uint8_t *rxBuffData_p,
 191:funsape/peripheral/../util/bus.hpp ****             cuint16_t buffSize_p
 192:funsape/peripheral/../util/bus.hpp ****     ) {
 193:funsape/peripheral/../util/bus.hpp ****         // Mark passage for debugging purpose
 194:funsape/peripheral/../util/bus.hpp ****         debugMark("Bus::sendData(cuint8_t *, uint8_t *, cuint16_t)", DEBUG_BUS);
  92               		.loc 1 194 9 view .LVU22
  93               		.loc 1 194 80 view .LVU23
 195:funsape/peripheral/../util/bus.hpp **** 
 196:funsape/peripheral/../util/bus.hpp ****         // Returns error
 197:funsape/peripheral/../util/bus.hpp ****         this->_lastError = Error::FEATURE_NOT_SUPPORTED;
GAS LISTING C:\Users\kenne\AppData\Local\Temp\cc6xNdAw.s 			page 6


  94               		.loc 1 197 9 view .LVU24
  95               		.loc 1 197 26 is_stmt 0 view .LVU25
  96 0000 27E0      		ldi r18,lo8(7)
  97 0002 30E0      		ldi r19,0
  98               	.LVL6:
  99               		.loc 1 197 26 view .LVU26
 100 0004 FC01      		movw r30,r24
 101 0006 3383      		std Z+3,r19
 102 0008 2283      		std Z+2,r18
 198:funsape/peripheral/../util/bus.hpp ****         debugMessage(Error::FEATURE_NOT_SUPPORTED, DEBUG_BUS);
 103               		.loc 1 198 9 is_stmt 1 view .LVU27
 104               		.loc 1 198 62 view .LVU28
 199:funsape/peripheral/../util/bus.hpp ****         return false;
 105               		.loc 1 199 9 view .LVU29
 200:funsape/peripheral/../util/bus.hpp ****     };
 106               		.loc 1 200 5 is_stmt 0 view .LVU30
 107 000a 80E0      		ldi r24,0
 108               	.LVL7:
 109               	/* epilogue start */
 110               		.loc 1 200 5 view .LVU31
 111 000c 0895      		ret
 112               		.cfi_endproc
 113               	.LFE35:
 115               		.section	.text._ZN3Bus8writeRegEhPKhj,"axG",@progbits,_ZN3Bus8writeRegEhPKhj,comdat
 116               		.weak	_ZN3Bus8writeRegEhPKhj
 118               	_ZN3Bus8writeRegEhPKhj:
 119               	.LVL8:
 120               	.LFB36:
 201:funsape/peripheral/../util/bus.hpp **** 
 202:funsape/peripheral/../util/bus.hpp ****     //!
 203:funsape/peripheral/../util/bus.hpp ****     //! \brief          Writes data at an address.
 204:funsape/peripheral/../util/bus.hpp ****     //! \details        This function writes a block of data at the given
 205:funsape/peripheral/../util/bus.hpp ****     //!                     register address.
 206:funsape/peripheral/../util/bus.hpp ****     //! \param[in]      reg_p           register address
 207:funsape/peripheral/../util/bus.hpp ****     //! \param[in]      buffData_p      pointer to data vector
 208:funsape/peripheral/../util/bus.hpp ****     //! \param[in]      buffSize_p      number of data elements to write
 209:funsape/peripheral/../util/bus.hpp ****     //! \return         bool_t          True on success / False on failure
 210:funsape/peripheral/../util/bus.hpp ****     //!
 211:funsape/peripheral/../util/bus.hpp ****     virtual bool_t writeReg(
 121               		.loc 1 211 20 is_stmt 1 view -0
 122               		.cfi_startproc
 123               	/* prologue: function */
 124               	/* frame size = 0 */
 125               	/* stack size = 0 */
 126               	.L__stack_usage = 0
 212:funsape/peripheral/../util/bus.hpp ****             cuint8_t reg_p,
 213:funsape/peripheral/../util/bus.hpp ****             cuint8_t *buffData_p,
 214:funsape/peripheral/../util/bus.hpp ****             cuint16_t buffSize_p
 215:funsape/peripheral/../util/bus.hpp ****     ) {
 216:funsape/peripheral/../util/bus.hpp ****         // Mark passage for debugging purpose
 217:funsape/peripheral/../util/bus.hpp ****         debugMark("Bus::writeReg(cuint8_t, cuint8_t *, cuint16_t)", DEBUG_BUS);
 127               		.loc 1 217 9 view .LVU33
 128               		.loc 1 217 79 view .LVU34
 218:funsape/peripheral/../util/bus.hpp **** 
 219:funsape/peripheral/../util/bus.hpp ****         // Returns error
 220:funsape/peripheral/../util/bus.hpp ****         this->_lastError = Error::FEATURE_NOT_SUPPORTED;
 129               		.loc 1 220 9 view .LVU35
GAS LISTING C:\Users\kenne\AppData\Local\Temp\cc6xNdAw.s 			page 7


 130               		.loc 1 220 26 is_stmt 0 view .LVU36
 131 0000 27E0      		ldi r18,lo8(7)
 132 0002 30E0      		ldi r19,0
 133               	.LVL9:
 134               		.loc 1 220 26 view .LVU37
 135 0004 FC01      		movw r30,r24
 136 0006 3383      		std Z+3,r19
 137 0008 2283      		std Z+2,r18
 221:funsape/peripheral/../util/bus.hpp ****         debugMessage(Error::FEATURE_NOT_SUPPORTED, DEBUG_BUS);
 138               		.loc 1 221 9 is_stmt 1 view .LVU38
 139               		.loc 1 221 62 view .LVU39
 222:funsape/peripheral/../util/bus.hpp ****         return false;
 140               		.loc 1 222 9 view .LVU40
 223:funsape/peripheral/../util/bus.hpp ****     };
 141               		.loc 1 223 5 is_stmt 0 view .LVU41
 142 000a 80E0      		ldi r24,0
 143               	.LVL10:
 144               	/* epilogue start */
 145               		.loc 1 223 5 view .LVU42
 146 000c 0895      		ret
 147               		.cfi_endproc
 148               	.LFE36:
 150               		.section	.text._ZN3Bus9setDeviceEjb,"axG",@progbits,_ZN3Bus9setDeviceEjb,comdat
 151               		.weak	_ZN3Bus9setDeviceEjb
 153               	_ZN3Bus9setDeviceEjb:
 154               	.LVL11:
 155               	.LFB37:
 224:funsape/peripheral/../util/bus.hpp **** 
 225:funsape/peripheral/../util/bus.hpp ****     //     ////////////////     TWI PROTOCOL METHODS     ////////////////     //
 226:funsape/peripheral/../util/bus.hpp ****     //!
 227:funsape/peripheral/../util/bus.hpp ****     //! \brief          Sets the device slave address.
 228:funsape/peripheral/../util/bus.hpp ****     //! \details        This function sets the device slave address.
 229:funsape/peripheral/../util/bus.hpp ****     //! \param[in]      address_p           slave address
 230:funsape/peripheral/../util/bus.hpp ****     //! \param[in]      useLongAddress_p    use 10-bits slave address
 231:funsape/peripheral/../util/bus.hpp ****     //! \return         bool_t          True on success / False on failure
 232:funsape/peripheral/../util/bus.hpp ****     //!
 233:funsape/peripheral/../util/bus.hpp ****     virtual bool_t setDevice(
 156               		.loc 1 233 20 is_stmt 1 view -0
 157               		.cfi_startproc
 158               	/* prologue: function */
 159               	/* frame size = 0 */
 160               	/* stack size = 0 */
 161               	.L__stack_usage = 0
 234:funsape/peripheral/../util/bus.hpp ****             cuint16_t address_p,
 235:funsape/peripheral/../util/bus.hpp ****             cbool_t useLongAddress_p = false
 236:funsape/peripheral/../util/bus.hpp ****     ) {
 237:funsape/peripheral/../util/bus.hpp ****         // Mark passage for debugging purpose
 238:funsape/peripheral/../util/bus.hpp ****         debugMark("Bus::setDevice(cuint16_t, cbool_t)", DEBUG_BUS);
 162               		.loc 1 238 9 view .LVU44
 163               		.loc 1 238 67 view .LVU45
 239:funsape/peripheral/../util/bus.hpp **** 
 240:funsape/peripheral/../util/bus.hpp ****         // Returns error
 241:funsape/peripheral/../util/bus.hpp ****         this->_lastError = Error::FEATURE_NOT_SUPPORTED;
 164               		.loc 1 241 9 view .LVU46
 165               		.loc 1 241 26 is_stmt 0 view .LVU47
 166 0000 27E0      		ldi r18,lo8(7)
 167 0002 30E0      		ldi r19,0
GAS LISTING C:\Users\kenne\AppData\Local\Temp\cc6xNdAw.s 			page 8


 168 0004 FC01      		movw r30,r24
 169 0006 3383      		std Z+3,r19
 170 0008 2283      		std Z+2,r18
 242:funsape/peripheral/../util/bus.hpp ****         debugMessage(Error::FEATURE_NOT_SUPPORTED, DEBUG_BUS);
 171               		.loc 1 242 9 is_stmt 1 view .LVU48
 172               		.loc 1 242 62 view .LVU49
 243:funsape/peripheral/../util/bus.hpp ****         return false;
 173               		.loc 1 243 9 view .LVU50
 244:funsape/peripheral/../util/bus.hpp ****     };
 174               		.loc 1 244 5 is_stmt 0 view .LVU51
 175 000a 80E0      		ldi r24,0
 176               	.LVL12:
 177               	/* epilogue start */
 178               		.loc 1 244 5 view .LVU52
 179 000c 0895      		ret
 180               		.cfi_endproc
 181               	.LFE37:
 183               		.section	.text._ZN3Bus9setDeviceEPFvvES1_,"axG",@progbits,_ZN3Bus9setDeviceEPFvvES1_,comdat
 184               		.weak	_ZN3Bus9setDeviceEPFvvES1_
 186               	_ZN3Bus9setDeviceEPFvvES1_:
 187               	.LVL13:
 188               	.LFB38:
 245:funsape/peripheral/../util/bus.hpp **** 
 246:funsape/peripheral/../util/bus.hpp ****     //     ////////////////     SPI PROTOCOL METHODS     ////////////////     //
 247:funsape/peripheral/../util/bus.hpp ****     //!
 248:funsape/peripheral/../util/bus.hpp ****     //! \brief          Sets the device slave select functions.
 249:funsape/peripheral/../util/bus.hpp ****     //! \details        This function sets the device slave select functions.
 250:funsape/peripheral/../util/bus.hpp ****     //! \param[in]      actFunc_p       pointer to slave select function
 251:funsape/peripheral/../util/bus.hpp ****     //! \param[in]      deactFunc_p     pointer to slave release function
 252:funsape/peripheral/../util/bus.hpp ****     //! \return         bool_t          True on success / False on failure
 253:funsape/peripheral/../util/bus.hpp ****     //!
 254:funsape/peripheral/../util/bus.hpp ****     virtual bool_t setDevice(
 189               		.loc 1 254 20 is_stmt 1 view -0
 190               		.cfi_startproc
 191               	/* prologue: function */
 192               	/* frame size = 0 */
 193               	/* stack size = 0 */
 194               	.L__stack_usage = 0
 255:funsape/peripheral/../util/bus.hpp ****             void (* actFunc_p)(void),
 256:funsape/peripheral/../util/bus.hpp ****             void (* deactFunc_p)(void)
 257:funsape/peripheral/../util/bus.hpp ****     ) {
 258:funsape/peripheral/../util/bus.hpp ****         // Mark passage for debugging purpose
 259:funsape/peripheral/../util/bus.hpp ****         debugMark("Bus::setDevice(void *(void), void *(void))", DEBUG_BUS);
 195               		.loc 1 259 9 view .LVU54
 196               		.loc 1 259 75 view .LVU55
 260:funsape/peripheral/../util/bus.hpp **** 
 261:funsape/peripheral/../util/bus.hpp ****         // Returns error
 262:funsape/peripheral/../util/bus.hpp ****         this->_lastError = Error::FEATURE_NOT_SUPPORTED;
 197               		.loc 1 262 9 view .LVU56
 198               		.loc 1 262 26 is_stmt 0 view .LVU57
 199 0000 27E0      		ldi r18,lo8(7)
 200 0002 30E0      		ldi r19,0
 201 0004 FC01      		movw r30,r24
 202 0006 3383      		std Z+3,r19
 203 0008 2283      		std Z+2,r18
 263:funsape/peripheral/../util/bus.hpp ****         debugMessage(Error::FEATURE_NOT_SUPPORTED, DEBUG_BUS);
 204               		.loc 1 263 9 is_stmt 1 view .LVU58
GAS LISTING C:\Users\kenne\AppData\Local\Temp\cc6xNdAw.s 			page 9


 205               		.loc 1 263 62 view .LVU59
 264:funsape/peripheral/../util/bus.hpp ****         return false;
 206               		.loc 1 264 9 view .LVU60
 265:funsape/peripheral/../util/bus.hpp ****     };
 207               		.loc 1 265 5 is_stmt 0 view .LVU61
 208 000a 80E0      		ldi r24,0
 209               	.LVL14:
 210               	/* epilogue start */
 211               		.loc 1 265 5 view .LVU62
 212 000c 0895      		ret
 213               		.cfi_endproc
 214               	.LFE38:
 216               		.section	.text._ZN3Bus10getBusTypeEv,"axG",@progbits,_ZN3Bus10getBusTypeEv,comdat
 217               		.weak	_ZN3Bus10getBusTypeEv
 219               	_ZN3Bus10getBusTypeEv:
 220               	.LVL15:
 221               	.LFB39:
 266:funsape/peripheral/../util/bus.hpp **** 
 267:funsape/peripheral/../util/bus.hpp ****     //!
 268:funsape/peripheral/../util/bus.hpp ****     //! \brief          Sets the device slave select Gpio pin.
 269:funsape/peripheral/../util/bus.hpp ****     //! \details        This function sets the device slave select Gpio pin.
 270:funsape/peripheral/../util/bus.hpp ****     //! \param[in]      csPin_p         pointer Gpio slave select pin object
 271:funsape/peripheral/../util/bus.hpp ****     //! \return         bool_t          True on success / False on failure
 272:funsape/peripheral/../util/bus.hpp ****     //!
 273:funsape/peripheral/../util/bus.hpp ****     // virtual bool_t setDevice(
 274:funsape/peripheral/../util/bus.hpp ****     //         const Gpio *csPin_p
 275:funsape/peripheral/../util/bus.hpp ****     // ) {
 276:funsape/peripheral/../util/bus.hpp ****     //     // Mark passage for debugging purpose
 277:funsape/peripheral/../util/bus.hpp ****     //     debugMark("Bus::setDevice(const Gpio *)", DEBUG_BUS);
 278:funsape/peripheral/../util/bus.hpp **** 
 279:funsape/peripheral/../util/bus.hpp ****     //     // Returns error
 280:funsape/peripheral/../util/bus.hpp ****     //     this->_lastError = Error::FEATURE_NOT_SUPPORTED;
 281:funsape/peripheral/../util/bus.hpp ****     //     debugMessage(Error::FEATURE_NOT_SUPPORTED, DEBUG_BUS);
 282:funsape/peripheral/../util/bus.hpp ****     //     return false;
 283:funsape/peripheral/../util/bus.hpp ****     // };
 284:funsape/peripheral/../util/bus.hpp **** 
 285:funsape/peripheral/../util/bus.hpp ****     //     /////////////////     CONTROL AND STATUS     /////////////////     //
 286:funsape/peripheral/../util/bus.hpp ****     //!
 287:funsape/peripheral/../util/bus.hpp ****     //! \brief          Retuns the bus type.
 288:funsape/peripheral/../util/bus.hpp ****     //! \details        This function returns the bus type interface.
 289:funsape/peripheral/../util/bus.hpp ****     //! \return         BusType         Bus type
 290:funsape/peripheral/../util/bus.hpp ****     //!
 291:funsape/peripheral/../util/bus.hpp ****     virtual Bus::BusType getBusType(void) {
 222               		.loc 1 291 26 is_stmt 1 view -0
 223               		.cfi_startproc
 224               	/* prologue: function */
 225               	/* frame size = 0 */
 226               	/* stack size = 0 */
 227               	.L__stack_usage = 0
 292:funsape/peripheral/../util/bus.hpp ****         // Mark passage for debugging purpose
 293:funsape/peripheral/../util/bus.hpp ****         debugMark("Bus::getBusType(void)", DEBUG_BUS);
 228               		.loc 1 293 9 view .LVU64
 229               		.loc 1 293 54 view .LVU65
 294:funsape/peripheral/../util/bus.hpp **** 
 295:funsape/peripheral/../util/bus.hpp ****         // Returns default handler
 296:funsape/peripheral/../util/bus.hpp ****         return BusType::NONE;
 230               		.loc 1 296 9 view .LVU66
GAS LISTING C:\Users\kenne\AppData\Local\Temp\cc6xNdAw.s 			page 10


 297:funsape/peripheral/../util/bus.hpp ****     }
 231               		.loc 1 297 5 is_stmt 0 view .LVU67
 232 0000 80E0      		ldi r24,0
 233 0002 90E0      		ldi r25,0
 234               	.LVL16:
 235               	/* epilogue start */
 236               		.loc 1 297 5 view .LVU68
 237 0004 0895      		ret
 238               		.cfi_endproc
 239               	.LFE39:
 241               		.section	.text._ZN3Bus12getLastErrorEv,"axG",@progbits,_ZN3Bus12getLastErrorEv,comdat
 242               		.weak	_ZN3Bus12getLastErrorEv
 244               	_ZN3Bus12getLastErrorEv:
 245               	.LVL17:
 246               	.LFB40:
 298:funsape/peripheral/../util/bus.hpp **** 
 299:funsape/peripheral/../util/bus.hpp ****     //!
 300:funsape/peripheral/../util/bus.hpp ****     //! \brief          Retuns the last error.
 301:funsape/peripheral/../util/bus.hpp ****     //! \details        This function returns the error code associated with the
 302:funsape/peripheral/../util/bus.hpp ****     //!                     last operation.
 303:funsape/peripheral/../util/bus.hpp ****     //! \return         Error           Error code
 304:funsape/peripheral/../util/bus.hpp ****     //!
 305:funsape/peripheral/../util/bus.hpp ****     virtual Error getLastError(void) {
 247               		.loc 1 305 19 is_stmt 1 view -0
 248               		.cfi_startproc
 249               	/* prologue: function */
 250               	/* frame size = 0 */
 251               	/* stack size = 0 */
 252               	.L__stack_usage = 0
 306:funsape/peripheral/../util/bus.hpp ****         // Returns last error
 307:funsape/peripheral/../util/bus.hpp ****         return this->_lastError;
 253               		.loc 1 307 9 view .LVU70
 308:funsape/peripheral/../util/bus.hpp ****     }
 254               		.loc 1 308 5 is_stmt 0 view .LVU71
 255 0000 FC01      		movw r30,r24
 256 0002 8281      		ldd r24,Z+2
 257 0004 9381      		ldd r25,Z+3
 258               	.LVL18:
 259               	/* epilogue start */
 260               		.loc 1 308 5 view .LVU72
 261 0006 0895      		ret
 262               		.cfi_endproc
 263               	.LFE40:
 265               		.section	.text._ZN3Twi9setDeviceEjb,"ax",@progbits
 266               	.global	_ZN3Twi9setDeviceEjb
 268               	_ZN3Twi9setDeviceEjb:
 269               	.LVL19:
 270               	.LFB54:
 271               		.file 2 "funsape/peripheral/twi.cpp"
   1:funsape/peripheral/twi.cpp **** //!
   2:funsape/peripheral/twi.cpp **** //! \file           twi.cpp
   3:funsape/peripheral/twi.cpp **** //! \brief          TWI peripheral control for the FunSAPE AVR8 Library
   4:funsape/peripheral/twi.cpp **** //! \author         Leandro Schwarz (bladabuska+funsapeavr8lib@gmail.com)
   5:funsape/peripheral/twi.cpp **** //! \date           2023-05-16
   6:funsape/peripheral/twi.cpp **** //! \version        23.04
   7:funsape/peripheral/twi.cpp **** //! \copyright      license
   8:funsape/peripheral/twi.cpp **** //! \details        TWI peripheral control for the FunSAPE AVR8 Library
GAS LISTING C:\Users\kenne\AppData\Local\Temp\cc6xNdAw.s 			page 11


   9:funsape/peripheral/twi.cpp **** //!
  10:funsape/peripheral/twi.cpp **** 
  11:funsape/peripheral/twi.cpp **** // =============================================================================
  12:funsape/peripheral/twi.cpp **** // System file dependencies
  13:funsape/peripheral/twi.cpp **** // =============================================================================
  14:funsape/peripheral/twi.cpp **** 
  15:funsape/peripheral/twi.cpp **** #include "twi.hpp"
  16:funsape/peripheral/twi.cpp **** #if !defined(__TWI_HPP)
  17:funsape/peripheral/twi.cpp **** #    error "Header file is corrupted!"
  18:funsape/peripheral/twi.cpp **** #elif __TWI_HPP != 2304
  19:funsape/peripheral/twi.cpp **** #    error "Version mismatch between source and header files!"
  20:funsape/peripheral/twi.cpp **** #endif
  21:funsape/peripheral/twi.cpp **** 
  22:funsape/peripheral/twi.cpp **** #include <avr/interrupt.h>
  23:funsape/peripheral/twi.cpp **** 
  24:funsape/peripheral/twi.cpp **** // =============================================================================
  25:funsape/peripheral/twi.cpp **** // File exclusive - Constants
  26:funsape/peripheral/twi.cpp **** // =============================================================================
  27:funsape/peripheral/twi.cpp **** 
  28:funsape/peripheral/twi.cpp **** #define DEBUG_TWI                       0x1F1F
  29:funsape/peripheral/twi.cpp **** #define TWI_MAX_BIT_RATE                400000UL
  30:funsape/peripheral/twi.cpp **** #define TWI_MIN_BIT_RATE                1000UL
  31:funsape/peripheral/twi.cpp **** #define TWI_MIN_BUFFER_SIZE             10
  32:funsape/peripheral/twi.cpp **** #define TWI_MAX_BUFFER_SIZE             100
  33:funsape/peripheral/twi.cpp **** #define TWI_DEFAULT_TIME_OUT            20
  34:funsape/peripheral/twi.cpp **** 
  35:funsape/peripheral/twi.cpp **** // =============================================================================
  36:funsape/peripheral/twi.cpp **** // File exclusive - New data types
  37:funsape/peripheral/twi.cpp **** // =============================================================================
  38:funsape/peripheral/twi.cpp **** 
  39:funsape/peripheral/twi.cpp **** // NONE
  40:funsape/peripheral/twi.cpp **** 
  41:funsape/peripheral/twi.cpp **** // =============================================================================
  42:funsape/peripheral/twi.cpp **** // File exclusive - Global variables
  43:funsape/peripheral/twi.cpp **** // =============================================================================
  44:funsape/peripheral/twi.cpp **** 
  45:funsape/peripheral/twi.cpp **** Twi twi;
  46:funsape/peripheral/twi.cpp **** 
  47:funsape/peripheral/twi.cpp **** // =============================================================================
  48:funsape/peripheral/twi.cpp **** // File exclusive - Macro-functions
  49:funsape/peripheral/twi.cpp **** // =============================================================================
  50:funsape/peripheral/twi.cpp **** 
  51:funsape/peripheral/twi.cpp **** // NONE
  52:funsape/peripheral/twi.cpp **** 
  53:funsape/peripheral/twi.cpp **** // =============================================================================
  54:funsape/peripheral/twi.cpp **** // Class constructors
  55:funsape/peripheral/twi.cpp **** // =============================================================================
  56:funsape/peripheral/twi.cpp **** 
  57:funsape/peripheral/twi.cpp **** Twi::Twi(void)
  58:funsape/peripheral/twi.cpp **** {
  59:funsape/peripheral/twi.cpp ****     // Reset data members
  60:funsape/peripheral/twi.cpp ****     this->_bufferData = nullptr;
  61:funsape/peripheral/twi.cpp ****     this->_bufferIndex = 0;
  62:funsape/peripheral/twi.cpp ****     this->_bufferLength = 0;
  63:funsape/peripheral/twi.cpp ****     this->_bufferMaxSize = 0;
  64:funsape/peripheral/twi.cpp ****     this->_initialized = false;
  65:funsape/peripheral/twi.cpp ****     this->_lastTransOk = false;
GAS LISTING C:\Users\kenne\AppData\Local\Temp\cc6xNdAw.s 			page 12


  66:funsape/peripheral/twi.cpp ****     this->_timeout = TWI_DEFAULT_TIME_OUT;
  67:funsape/peripheral/twi.cpp **** 
  68:funsape/peripheral/twi.cpp ****     // Returns successfully
  69:funsape/peripheral/twi.cpp ****     this->_lastError = Error::NONE;
  70:funsape/peripheral/twi.cpp ****     return;
  71:funsape/peripheral/twi.cpp **** }
  72:funsape/peripheral/twi.cpp **** 
  73:funsape/peripheral/twi.cpp **** Twi::~Twi(void)
  74:funsape/peripheral/twi.cpp **** {
  75:funsape/peripheral/twi.cpp ****     // Returns successfully
  76:funsape/peripheral/twi.cpp ****     return;
  77:funsape/peripheral/twi.cpp **** }
  78:funsape/peripheral/twi.cpp **** 
  79:funsape/peripheral/twi.cpp **** // =============================================================================
  80:funsape/peripheral/twi.cpp **** // Class public methods - Inhirited methods
  81:funsape/peripheral/twi.cpp **** // =============================================================================
  82:funsape/peripheral/twi.cpp **** 
  83:funsape/peripheral/twi.cpp **** bool_t Twi::readReg(cuint8_t reg_p, uint8_t *buffData_p, cuint16_t buffSize_p)
  84:funsape/peripheral/twi.cpp **** {
  85:funsape/peripheral/twi.cpp ****     if(!this->_devAddressSet) {
  86:funsape/peripheral/twi.cpp ****         // Error - Device address not set
  87:funsape/peripheral/twi.cpp ****         this->_lastError = Error::COMMUNICATION_NO_DEVICE_SELECTED;
  88:funsape/peripheral/twi.cpp ****         return false;
  89:funsape/peripheral/twi.cpp ****     }
  90:funsape/peripheral/twi.cpp **** 
  91:funsape/peripheral/twi.cpp ****     // Sends data
  92:funsape/peripheral/twi.cpp ****     // FIXME - implement support to 10-bit address
  93:funsape/peripheral/twi.cpp ****     bool_t auxBool = this->sendData((uint8_t)this->_devAddress, Operation::READ, reg_p, buffData_p,
  94:funsape/peripheral/twi.cpp ****     if(!auxBool) {
  95:funsape/peripheral/twi.cpp ****         // Error - Communication error
  96:funsape/peripheral/twi.cpp ****         return false;
  97:funsape/peripheral/twi.cpp ****     }
  98:funsape/peripheral/twi.cpp **** 
  99:funsape/peripheral/twi.cpp ****     // Returns successfully
 100:funsape/peripheral/twi.cpp ****     this->_lastError = Error::NONE;
 101:funsape/peripheral/twi.cpp ****     return true;
 102:funsape/peripheral/twi.cpp **** }
 103:funsape/peripheral/twi.cpp **** 
 104:funsape/peripheral/twi.cpp **** bool_t Twi::writeReg(cuint8_t reg_p, cuint8_t *buffData_p, cuint16_t buffSize_p)
 105:funsape/peripheral/twi.cpp **** {
 106:funsape/peripheral/twi.cpp ****     if(!this->_devAddressSet) {
 107:funsape/peripheral/twi.cpp ****         // Error - Device address not set
 108:funsape/peripheral/twi.cpp ****         this->_lastError = Error::COMMUNICATION_NO_DEVICE_SELECTED;
 109:funsape/peripheral/twi.cpp ****         return false;
 110:funsape/peripheral/twi.cpp ****     }
 111:funsape/peripheral/twi.cpp **** 
 112:funsape/peripheral/twi.cpp ****     // Sends data
 113:funsape/peripheral/twi.cpp ****     // FIXME - implement support to 10-bit address
 114:funsape/peripheral/twi.cpp ****     bool_t auxBool = this->sendData((uint8_t)this->_devAddress, Operation::WRITE, reg_p, (uint8_t *
 115:funsape/peripheral/twi.cpp ****     if(!auxBool) {
 116:funsape/peripheral/twi.cpp ****         // Error - Communication error
 117:funsape/peripheral/twi.cpp ****         return false;
 118:funsape/peripheral/twi.cpp ****     }
 119:funsape/peripheral/twi.cpp **** 
 120:funsape/peripheral/twi.cpp ****     // Returns successfully
 121:funsape/peripheral/twi.cpp ****     this->_lastError = Error::NONE;
 122:funsape/peripheral/twi.cpp ****     return true;
GAS LISTING C:\Users\kenne\AppData\Local\Temp\cc6xNdAw.s 			page 13


 123:funsape/peripheral/twi.cpp **** }
 124:funsape/peripheral/twi.cpp **** 
 125:funsape/peripheral/twi.cpp **** bool_t Twi::setDevice(cuint16_t address_p, cbool_t useLongAddress_p)
 126:funsape/peripheral/twi.cpp **** {
 272               		.loc 2 126 1 is_stmt 1 view -0
 273               		.cfi_startproc
 274               	/* prologue: function */
 275               	/* frame size = 0 */
 276               	/* stack size = 0 */
 277               	.L__stack_usage = 0
 278               		.loc 2 126 1 is_stmt 0 view .LVU74
 279 0000 E82F      		mov r30,r24
 280 0002 F92F      		mov r31,r25
 127:funsape/peripheral/twi.cpp ****     // Update data members
 128:funsape/peripheral/twi.cpp ****     this->_devAddress = address_p;
 281               		.loc 2 128 5 is_stmt 1 view .LVU75
 282               		.loc 2 128 25 is_stmt 0 view .LVU76
 283 0004 9B01      		movw r18,r22
 284 0006 3370      		andi r19,3
 285               		.loc 2 128 23 view .LVU77
 286 0008 862F      		mov r24,r22
 287               	.LVL20:
 288               		.loc 2 128 23 view .LVU78
 289 000a 8295      		swap r24
 290 000c 880F      		lsl r24
 291 000e 807E      		andi r24,lo8(-32)
 292 0010 9585      		ldd r25,Z+13
 293 0012 9F71      		andi r25,lo8(31)
 294 0014 892B      		or r24,r25
 295 0016 8587      		std Z+13,r24
 296 0018 6695      		lsr r22
 297 001a 6695      		lsr r22
 298 001c 6695      		lsr r22
 299               	.LVL21:
 300               		.loc 2 128 23 view .LVU79
 301 001e 8685      		ldd r24,Z+14
 302 0020 807E      		andi r24,lo8(-32)
 303 0022 682B      		or r22,r24
 304 0024 6687      		std Z+14,r22
 305 0026 832F      		mov r24,r19
 306 0028 8370      		andi r24,lo8(3)
 307 002a 8295      		swap r24
 308 002c 880F      		lsl r24
 309 002e 807E      		andi r24,lo8(-32)
 310 0030 6F79      		andi r22,lo8(-97)
 311 0032 862B      		or r24,r22
 312 0034 8687      		std Z+14,r24
 129:funsape/peripheral/twi.cpp ****     this->_useLongAddress = useLongAddress_p;
 313               		.loc 2 129 5 is_stmt 1 view .LVU80
 314               		.loc 2 129 27 is_stmt 0 view .LVU81
 315 0036 8681      		ldd r24,Z+6
 316 0038 40FB      		bst r20,0
 317 003a 80F9      		bld r24,0
 318 003c 8683      		std Z+6,r24
 130:funsape/peripheral/twi.cpp ****     this->_devAddressSet = true;
 319               		.loc 2 130 5 is_stmt 1 view .LVU82
 320               		.loc 2 130 26 is_stmt 0 view .LVU83
GAS LISTING C:\Users\kenne\AppData\Local\Temp\cc6xNdAw.s 			page 14


 321 003e 8481      		ldd r24,Z+4
 322 0040 8160      		ori r24,lo8(1<<0)
 323 0042 8483      		std Z+4,r24
 131:funsape/peripheral/twi.cpp **** 
 132:funsape/peripheral/twi.cpp ****     // Returns successfully
 133:funsape/peripheral/twi.cpp ****     this->_lastError = Error::NONE;
 324               		.loc 2 133 5 is_stmt 1 view .LVU84
 325               		.loc 2 133 22 is_stmt 0 view .LVU85
 326 0044 1086      		std Z+8,__zero_reg__
 327 0046 1782      		std Z+7,__zero_reg__
 134:funsape/peripheral/twi.cpp ****     return true;
 328               		.loc 2 134 5 is_stmt 1 view .LVU86
 135:funsape/peripheral/twi.cpp **** }
 329               		.loc 2 135 1 is_stmt 0 view .LVU87
 330 0048 81E0      		ldi r24,lo8(1)
 331               	/* epilogue start */
 332 004a 0895      		ret
 333               		.cfi_endproc
 334               	.LFE54:
 336               		.section	.text._ZN3Twi10getBusTypeEv,"ax",@progbits
 337               	.global	_ZN3Twi10getBusTypeEv
 339               	_ZN3Twi10getBusTypeEv:
 340               	.LVL22:
 341               	.LFB56:
 136:funsape/peripheral/twi.cpp **** 
 137:funsape/peripheral/twi.cpp **** bool_t Twi::sendData(uint8_t devAddress_p, Operation readWrite_p, uint8_t reg_p, uint8_t *msg_p, ui
 138:funsape/peripheral/twi.cpp **** {
 139:funsape/peripheral/twi.cpp ****     // Check for errors - NOT Initialized
 140:funsape/peripheral/twi.cpp ****     if(!this->_initialized) {
 141:funsape/peripheral/twi.cpp ****         this->_lastError = Error::NOT_INITIALIZED;
 142:funsape/peripheral/twi.cpp ****         return false;
 143:funsape/peripheral/twi.cpp ****     }
 144:funsape/peripheral/twi.cpp ****     // Check for errors - Message pointer
 145:funsape/peripheral/twi.cpp ****     if((msgSize_p > 0) && (msg_p == NULL)) {
 146:funsape/peripheral/twi.cpp ****         this->_lastError = Error::ARGUMENT_POINTER_NULL;
 147:funsape/peripheral/twi.cpp ****         return false;
 148:funsape/peripheral/twi.cpp ****     }
 149:funsape/peripheral/twi.cpp **** 
 150:funsape/peripheral/twi.cpp ****     // Wait last transmission ends
 151:funsape/peripheral/twi.cpp ****     if(!this->_waitWhileIsBusy()) {
 152:funsape/peripheral/twi.cpp ****         return false;
 153:funsape/peripheral/twi.cpp ****     }
 154:funsape/peripheral/twi.cpp **** 
 155:funsape/peripheral/twi.cpp ****     // Prepare to send data
 156:funsape/peripheral/twi.cpp ****     if(readWrite_p == Operation::WRITE) {       // Write operation
 157:funsape/peripheral/twi.cpp ****         this->_bufferData[0] = (devAddress_p << 1) | (uint8_t)(Operation::WRITE);
 158:funsape/peripheral/twi.cpp ****         this->_bufferData[1] = reg_p;
 159:funsape/peripheral/twi.cpp ****         for(uint8_t i = 0; i < msgSize_p; i++) {
 160:funsape/peripheral/twi.cpp ****             this->_bufferData[i + 2] = msg_p[i];
 161:funsape/peripheral/twi.cpp ****         }
 162:funsape/peripheral/twi.cpp ****         this->_bufferLength = msgSize_p + 2;
 163:funsape/peripheral/twi.cpp ****         this->_startTrasmission();
 164:funsape/peripheral/twi.cpp ****     } else {                            // Read operation
 165:funsape/peripheral/twi.cpp ****         // Set pointer first
 166:funsape/peripheral/twi.cpp ****         this->_bufferData[0] = (devAddress_p << 1) | (uint8_t)(Operation::WRITE);
 167:funsape/peripheral/twi.cpp ****         this->_bufferData[1] = reg_p;
 168:funsape/peripheral/twi.cpp ****         this->_bufferLength = 2;
GAS LISTING C:\Users\kenne\AppData\Local\Temp\cc6xNdAw.s 			page 15


 169:funsape/peripheral/twi.cpp ****         this->_startTrasmission();
 170:funsape/peripheral/twi.cpp ****         // Wait last transmission ends
 171:funsape/peripheral/twi.cpp ****         if(!this->_waitWhileIsBusy()) {
 172:funsape/peripheral/twi.cpp ****             return false;
 173:funsape/peripheral/twi.cpp ****         }
 174:funsape/peripheral/twi.cpp ****         // Read data
 175:funsape/peripheral/twi.cpp ****         this->_bufferData[0] = (devAddress_p << 1) | (uint8_t)(Operation::READ);
 176:funsape/peripheral/twi.cpp ****         this->_bufferLength = msgSize_p + 1;
 177:funsape/peripheral/twi.cpp ****         this->_startTrasmission();
 178:funsape/peripheral/twi.cpp ****         if(!this->_waitWhileIsBusy()) {
 179:funsape/peripheral/twi.cpp ****             return false;
 180:funsape/peripheral/twi.cpp ****         }
 181:funsape/peripheral/twi.cpp ****         if(!this->_readFromBuffer(msg_p, msgSize_p)) {
 182:funsape/peripheral/twi.cpp ****             return false;
 183:funsape/peripheral/twi.cpp ****         }
 184:funsape/peripheral/twi.cpp ****     }
 185:funsape/peripheral/twi.cpp **** 
 186:funsape/peripheral/twi.cpp ****     this->_lastError = Error::NONE;
 187:funsape/peripheral/twi.cpp ****     return true;
 188:funsape/peripheral/twi.cpp **** }
 189:funsape/peripheral/twi.cpp **** 
 190:funsape/peripheral/twi.cpp **** Bus::BusType Twi::getBusType(void)
 191:funsape/peripheral/twi.cpp **** {
 342               		.loc 2 191 1 is_stmt 1 view -0
 343               		.cfi_startproc
 344               	/* prologue: function */
 345               	/* frame size = 0 */
 346               	/* stack size = 0 */
 347               	.L__stack_usage = 0
 192:funsape/peripheral/twi.cpp ****     // Returns bus type
 193:funsape/peripheral/twi.cpp ****     return Bus::BusType::TWI;
 348               		.loc 2 193 5 view .LVU89
 194:funsape/peripheral/twi.cpp **** }
 349               		.loc 2 194 1 is_stmt 0 view .LVU90
 350 0000 85E0      		ldi r24,lo8(5)
 351 0002 90E0      		ldi r25,0
 352               	.LVL23:
 353               	/* epilogue start */
 354               		.loc 2 194 1 view .LVU91
 355 0004 0895      		ret
 356               		.cfi_endproc
 357               	.LFE56:
 359               		.section	.text._ZN3Twi12getLastErrorEv,"ax",@progbits
 360               	.global	_ZN3Twi12getLastErrorEv
 362               	_ZN3Twi12getLastErrorEv:
 363               	.LVL24:
 364               	.LFB59:
 195:funsape/peripheral/twi.cpp **** 
 196:funsape/peripheral/twi.cpp **** // =============================================================================
 197:funsape/peripheral/twi.cpp **** // Class public methods - Own methods
 198:funsape/peripheral/twi.cpp **** // =============================================================================
 199:funsape/peripheral/twi.cpp **** 
 200:funsape/peripheral/twi.cpp **** bool_t Twi::init(cuint32_t clockSpeed_p, cuint8_t bufferSize_p)
 201:funsape/peripheral/twi.cpp **** {
 202:funsape/peripheral/twi.cpp ****     // Local variables
 203:funsape/peripheral/twi.cpp ****     uint32_t aux32 = 0;
 204:funsape/peripheral/twi.cpp ****     uint16_t aux16 = 0;
GAS LISTING C:\Users\kenne\AppData\Local\Temp\cc6xNdAw.s 			page 16


 205:funsape/peripheral/twi.cpp ****     uint8_t aux8 = 0;
 206:funsape/peripheral/twi.cpp **** 
 207:funsape/peripheral/twi.cpp ****     // Disables TWI and reset all registers
 208:funsape/peripheral/twi.cpp ****     clrBit(TWCR, TWEN);
 209:funsape/peripheral/twi.cpp ****     TWCR = 0x00;
 210:funsape/peripheral/twi.cpp ****     TWSR = 0x00;
 211:funsape/peripheral/twi.cpp ****     TWBR = 0;
 212:funsape/peripheral/twi.cpp ****     TWAR = 0;
 213:funsape/peripheral/twi.cpp ****     TWAMR = 0;
 214:funsape/peripheral/twi.cpp **** 
 215:funsape/peripheral/twi.cpp ****     // Check for errors - Clock speed
 216:funsape/peripheral/twi.cpp ****     if(clockSpeed_p < TWI_MIN_BIT_RATE) {
 217:funsape/peripheral/twi.cpp ****         this->_lastError = Error::CLOCK_SPEED_TOO_LOW;
 218:funsape/peripheral/twi.cpp ****         return false;
 219:funsape/peripheral/twi.cpp ****     } else if(clockSpeed_p > TWI_MAX_BIT_RATE) {
 220:funsape/peripheral/twi.cpp ****         this->_lastError = Error::CLOCK_SPEED_TOO_HIGH;
 221:funsape/peripheral/twi.cpp ****         return false;
 222:funsape/peripheral/twi.cpp ****     }
 223:funsape/peripheral/twi.cpp ****     // Check for errors - Buffer size
 224:funsape/peripheral/twi.cpp ****     if(bufferSize_p < TWI_MIN_BUFFER_SIZE) {
 225:funsape/peripheral/twi.cpp ****         this->_lastError = Error::BUFFER_SIZE_TOO_SMALL;
 226:funsape/peripheral/twi.cpp ****         return false;
 227:funsape/peripheral/twi.cpp ****     } else if(bufferSize_p > TWI_MAX_BUFFER_SIZE) {
 228:funsape/peripheral/twi.cpp ****         this->_lastError = Error::BUFFER_SIZE_TOO_LARGE;
 229:funsape/peripheral/twi.cpp ****         return false;
 230:funsape/peripheral/twi.cpp ****     }
 231:funsape/peripheral/twi.cpp **** 
 232:funsape/peripheral/twi.cpp ****     // Allocate memory (Free first if already allocated)
 233:funsape/peripheral/twi.cpp ****     if(this->_bufferData != nullptr) {
 234:funsape/peripheral/twi.cpp ****         free(this->_bufferData);
 235:funsape/peripheral/twi.cpp ****         this->_bufferData = nullptr;
 236:funsape/peripheral/twi.cpp ****     }
 237:funsape/peripheral/twi.cpp ****     this->_bufferData = (uint8_t *)calloc((bufferSize_p + 2), sizeof(uint8_t));
 238:funsape/peripheral/twi.cpp ****     if(this->_bufferData == nullptr) {
 239:funsape/peripheral/twi.cpp ****         this->_lastError = Error::MEMORY_ALLOCATION;
 240:funsape/peripheral/twi.cpp ****         return false;
 241:funsape/peripheral/twi.cpp ****     }
 242:funsape/peripheral/twi.cpp ****     this->_bufferMaxSize = bufferSize_p + 2;
 243:funsape/peripheral/twi.cpp ****     this->_bufferIndex = 0;
 244:funsape/peripheral/twi.cpp ****     this->_bufferLength = 0;
 245:funsape/peripheral/twi.cpp **** 
 246:funsape/peripheral/twi.cpp ****     // Evaluate BIT RATE and PRESCALER
 247:funsape/peripheral/twi.cpp ****     aux32 = systemStatus.getCpuClock();
 248:funsape/peripheral/twi.cpp ****     aux32 /= clockSpeed_p;
 249:funsape/peripheral/twi.cpp ****     aux16 = (uint16_t)aux32;
 250:funsape/peripheral/twi.cpp ****     aux16 -= 16;
 251:funsape/peripheral/twi.cpp ****     aux16 /= 2;
 252:funsape/peripheral/twi.cpp ****     if(aux16 <= 255) {                      // Prescaler 1
 253:funsape/peripheral/twi.cpp ****         aux8 = (uint8_t)aux16;
 254:funsape/peripheral/twi.cpp ****     } else if(aux16 <= 1020) {              // Prescaler 4
 255:funsape/peripheral/twi.cpp ****         aux8 = (uint8_t)(aux16 / 4);
 256:funsape/peripheral/twi.cpp ****         TWSR |= (1 << TWPS0);
 257:funsape/peripheral/twi.cpp ****     } else if(aux16 <= 4080) {              // Prescaler 16
 258:funsape/peripheral/twi.cpp ****         aux8 = (uint8_t)(aux16 / 16);
 259:funsape/peripheral/twi.cpp ****         TWSR |= (2 << TWPS0);
 260:funsape/peripheral/twi.cpp ****     } else if(aux16 <= 16320) {         // Prescaler 64
 261:funsape/peripheral/twi.cpp ****         aux8 = (uint8_t)(aux16 / 64);
GAS LISTING C:\Users\kenne\AppData\Local\Temp\cc6xNdAw.s 			page 17


 262:funsape/peripheral/twi.cpp ****         TWSR |= (3 << TWPS0);
 263:funsape/peripheral/twi.cpp ****     }
 264:funsape/peripheral/twi.cpp **** 
 265:funsape/peripheral/twi.cpp ****     // Update TWI registers
 266:funsape/peripheral/twi.cpp ****     TWBR = aux8;
 267:funsape/peripheral/twi.cpp ****     TWDR = 0xFF;                       // Release SDA
 268:funsape/peripheral/twi.cpp ****     setBit(TWCR, TWEN);  // Activate TWI interface
 269:funsape/peripheral/twi.cpp **** 
 270:funsape/peripheral/twi.cpp ****     this->_initialized = true;
 271:funsape/peripheral/twi.cpp ****     this->_lastError = Error::NONE;
 272:funsape/peripheral/twi.cpp ****     return true;
 273:funsape/peripheral/twi.cpp **** }
 274:funsape/peripheral/twi.cpp **** 
 275:funsape/peripheral/twi.cpp **** bool_t Twi::setTimeout(cuint16_t timeout_p)
 276:funsape/peripheral/twi.cpp **** {
 277:funsape/peripheral/twi.cpp ****     this->_timeout = timeout_p;
 278:funsape/peripheral/twi.cpp ****     this->_lastError = Error::NONE;
 279:funsape/peripheral/twi.cpp ****     return true;
 280:funsape/peripheral/twi.cpp **** }
 281:funsape/peripheral/twi.cpp **** 
 282:funsape/peripheral/twi.cpp **** Error Twi::getLastError(void)
 283:funsape/peripheral/twi.cpp **** {
 365               		.loc 2 283 1 is_stmt 1 view -0
 366               		.cfi_startproc
 367               	/* prologue: function */
 368               	/* frame size = 0 */
 369               	/* stack size = 0 */
 370               	.L__stack_usage = 0
 284:funsape/peripheral/twi.cpp ****     // Returns last error
 285:funsape/peripheral/twi.cpp ****     return this->_lastError;
 371               		.loc 2 285 5 view .LVU93
 286:funsape/peripheral/twi.cpp **** }
 372               		.loc 2 286 1 is_stmt 0 view .LVU94
 373 0000 FC01      		movw r30,r24
 374 0002 8781      		ldd r24,Z+7
 375 0004 9085      		ldd r25,Z+8
 376               	.LVL25:
 377               	/* epilogue start */
 378               		.loc 2 286 1 view .LVU95
 379 0006 0895      		ret
 380               		.cfi_endproc
 381               	.LFE59:
 383               		.section	.text._Z7getTickv,"ax",@progbits
 384               		.weak	_Z7getTickv
 386               	_Z7getTickv:
 387               	.LFB32:
 388               		.file 3 "funsape/peripheral/../globalDefines.hpp"
   1:funsape/peripheral/../globalDefines.hpp **** //!
   2:funsape/peripheral/../globalDefines.hpp **** //! \file           globalDefines.hpp
   3:funsape/peripheral/../globalDefines.hpp **** //! \brief          Global definitions file
   4:funsape/peripheral/../globalDefines.hpp **** //! \author         Leandro Schwarz (bladabuska+funsapeavr8lib@gmail.com)
   5:funsape/peripheral/../globalDefines.hpp **** //! \date           2023-04-05
   6:funsape/peripheral/../globalDefines.hpp **** //! \version        23.04
   7:funsape/peripheral/../globalDefines.hpp **** //! \copyright      license
   8:funsape/peripheral/../globalDefines.hpp **** //! \details        Global definitions file.
   9:funsape/peripheral/../globalDefines.hpp **** //! \todo           Todo list
  10:funsape/peripheral/../globalDefines.hpp **** //!
GAS LISTING C:\Users\kenne\AppData\Local\Temp\cc6xNdAw.s 			page 18


  11:funsape/peripheral/../globalDefines.hpp **** 
  12:funsape/peripheral/../globalDefines.hpp **** // =============================================================================
  13:funsape/peripheral/../globalDefines.hpp **** // Include guard (START)
  14:funsape/peripheral/../globalDefines.hpp **** // =============================================================================
  15:funsape/peripheral/../globalDefines.hpp **** 
  16:funsape/peripheral/../globalDefines.hpp **** #ifndef __GLOBAL_DEFINES_HPP
  17:funsape/peripheral/../globalDefines.hpp **** #define __GLOBAL_DEFINES_HPP                    2304
  18:funsape/peripheral/../globalDefines.hpp **** 
  19:funsape/peripheral/../globalDefines.hpp **** // =============================================================================
  20:funsape/peripheral/../globalDefines.hpp **** // Basic definitions
  21:funsape/peripheral/../globalDefines.hpp **** // =============================================================================
  22:funsape/peripheral/../globalDefines.hpp **** 
  23:funsape/peripheral/../globalDefines.hpp **** #ifndef F_CPU
  24:funsape/peripheral/../globalDefines.hpp **** #   define F_CPU    16000000UL
  25:funsape/peripheral/../globalDefines.hpp **** #endif
  26:funsape/peripheral/../globalDefines.hpp **** 
  27:funsape/peripheral/../globalDefines.hpp **** // =============================================================================
  28:funsape/peripheral/../globalDefines.hpp **** // Dependencies
  29:funsape/peripheral/../globalDefines.hpp **** // =============================================================================
  30:funsape/peripheral/../globalDefines.hpp **** 
  31:funsape/peripheral/../globalDefines.hpp **** //     //////////////////     AVR STANDARD LIBRARY     //////////////////     //
  32:funsape/peripheral/../globalDefines.hpp **** #include <avr/io.h>
  33:funsape/peripheral/../globalDefines.hpp **** #include <avr/interrupt.h>
  34:funsape/peripheral/../globalDefines.hpp **** #include <util/delay.h>
  35:funsape/peripheral/../globalDefines.hpp **** #include <util/atomic.h>
  36:funsape/peripheral/../globalDefines.hpp **** 
  37:funsape/peripheral/../globalDefines.hpp **** //     ///////////////////     STANDARD C LIBRARY     ///////////////////     //
  38:funsape/peripheral/../globalDefines.hpp **** #include <stddef.h>
  39:funsape/peripheral/../globalDefines.hpp **** #include <stdint.h>
  40:funsape/peripheral/../globalDefines.hpp **** #include <stdio.h>
  41:funsape/peripheral/../globalDefines.hpp **** #include <stdlib.h>
  42:funsape/peripheral/../globalDefines.hpp **** #include <string.h>
  43:funsape/peripheral/../globalDefines.hpp **** 
  44:funsape/peripheral/../globalDefines.hpp **** //     //////////////////     LIBRARY DEPENDENCIES     //////////////////     //
  45:funsape/peripheral/../globalDefines.hpp **** #include "pinout.hpp"
  46:funsape/peripheral/../globalDefines.hpp **** #if !defined(__PINOUT_HPP)
  47:funsape/peripheral/../globalDefines.hpp **** #   error "Header file (pinout.hpp) is corrupted!"
  48:funsape/peripheral/../globalDefines.hpp **** #elif __PINOUT_HPP != __GLOBAL_DEFINES_HPP
  49:funsape/peripheral/../globalDefines.hpp **** #   error "Version mismatch between header file and library dependency (pinout.hpp)!"
  50:funsape/peripheral/../globalDefines.hpp **** #endif
  51:funsape/peripheral/../globalDefines.hpp **** 
  52:funsape/peripheral/../globalDefines.hpp **** // =============================================================================
  53:funsape/peripheral/../globalDefines.hpp **** // Undefining previous definitions
  54:funsape/peripheral/../globalDefines.hpp **** // =============================================================================
  55:funsape/peripheral/../globalDefines.hpp **** 
  56:funsape/peripheral/../globalDefines.hpp **** // NONE
  57:funsape/peripheral/../globalDefines.hpp **** 
  58:funsape/peripheral/../globalDefines.hpp **** // =============================================================================
  59:funsape/peripheral/../globalDefines.hpp **** // Constant definitions
  60:funsape/peripheral/../globalDefines.hpp **** // =============================================================================
  61:funsape/peripheral/../globalDefines.hpp **** 
  62:funsape/peripheral/../globalDefines.hpp **** #define inlined                         inline __attribute__((always_inline))
  63:funsape/peripheral/../globalDefines.hpp **** #define weakened                        __attribute__((weak))
  64:funsape/peripheral/../globalDefines.hpp **** 
  65:funsape/peripheral/../globalDefines.hpp **** // =============================================================================
  66:funsape/peripheral/../globalDefines.hpp **** // New data types
  67:funsape/peripheral/../globalDefines.hpp **** // =============================================================================
GAS LISTING C:\Users\kenne\AppData\Local\Temp\cc6xNdAw.s 			page 19


  68:funsape/peripheral/../globalDefines.hpp **** 
  69:funsape/peripheral/../globalDefines.hpp **** //     ////////////////////     BASIC VARIABLES     /////////////////////     //
  70:funsape/peripheral/../globalDefines.hpp **** typedef bool                            bool_t;
  71:funsape/peripheral/../globalDefines.hpp **** typedef char                            char_t;
  72:funsape/peripheral/../globalDefines.hpp **** 
  73:funsape/peripheral/../globalDefines.hpp **** //     ///////////////////     CONSTANT VARIABLES    ////////////////////     //
  74:funsape/peripheral/../globalDefines.hpp **** typedef const bool_t                    cbool_t;
  75:funsape/peripheral/../globalDefines.hpp **** typedef const char_t                    cchar_t;
  76:funsape/peripheral/../globalDefines.hpp **** typedef const int8_t                    cint8_t;
  77:funsape/peripheral/../globalDefines.hpp **** typedef const int16_t                   cint16_t;
  78:funsape/peripheral/../globalDefines.hpp **** typedef const int32_t                   cint32_t;
  79:funsape/peripheral/../globalDefines.hpp **** typedef const int64_t                   cint64_t;
  80:funsape/peripheral/../globalDefines.hpp **** typedef const uint8_t                   cuint8_t;
  81:funsape/peripheral/../globalDefines.hpp **** typedef const uint16_t                  cuint16_t;
  82:funsape/peripheral/../globalDefines.hpp **** typedef const uint32_t                  cuint32_t;
  83:funsape/peripheral/../globalDefines.hpp **** typedef const uint64_t                  cuint64_t;
  84:funsape/peripheral/../globalDefines.hpp **** 
  85:funsape/peripheral/../globalDefines.hpp **** //     ///////////////////     VOLATILE VARIABLES    ////////////////////     //
  86:funsape/peripheral/../globalDefines.hpp **** typedef volatile bool_t                 vbool_t;
  87:funsape/peripheral/../globalDefines.hpp **** typedef volatile char_t                 vchar_t;
  88:funsape/peripheral/../globalDefines.hpp **** typedef volatile int8_t                 vint8_t;
  89:funsape/peripheral/../globalDefines.hpp **** typedef volatile int16_t                vint16_t;
  90:funsape/peripheral/../globalDefines.hpp **** typedef volatile int32_t                vint32_t;
  91:funsape/peripheral/../globalDefines.hpp **** typedef volatile int64_t                vint64_t;
  92:funsape/peripheral/../globalDefines.hpp **** typedef volatile uint8_t                vuint8_t;
  93:funsape/peripheral/../globalDefines.hpp **** typedef volatile uint16_t               vuint16_t;
  94:funsape/peripheral/../globalDefines.hpp **** typedef volatile uint32_t               vuint32_t;
  95:funsape/peripheral/../globalDefines.hpp **** typedef volatile uint64_t               vuint64_t;
  96:funsape/peripheral/../globalDefines.hpp **** 
  97:funsape/peripheral/../globalDefines.hpp **** //     /////////////////     AVR PLATFORM VARIABLES    //////////////////     //
  98:funsape/peripheral/../globalDefines.hpp **** typedef int16_t                         int_t;          // 16-bit (AVR)
  99:funsape/peripheral/../globalDefines.hpp **** typedef uint16_t                        uint_t;         // 16-bit (AVR)
 100:funsape/peripheral/../globalDefines.hpp **** typedef cint16_t                        cint_t;         // 16-bit (AVR)
 101:funsape/peripheral/../globalDefines.hpp **** typedef cuint16_t                       cuint_t;        // 16-bit (AVR)
 102:funsape/peripheral/../globalDefines.hpp **** typedef vint16_t                        vint_t;         // 16-bit (AVR)
 103:funsape/peripheral/../globalDefines.hpp **** typedef vuint16_t                       vuint_t;        // 16-bit (AVR)
 104:funsape/peripheral/../globalDefines.hpp **** typedef uint8_t                         ioPinIndex_t;   // 8-bit (AVR)
 105:funsape/peripheral/../globalDefines.hpp **** typedef vuint8_t                       *ioRegAddress_t; // 8-bit address (AVR)
 106:funsape/peripheral/../globalDefines.hpp **** 
 107:funsape/peripheral/../globalDefines.hpp **** //     //////////////////     BINARY ENUMERATIONS     ///////////////////     //
 108:funsape/peripheral/../globalDefines.hpp **** enum class Activation : cbool_t {
 109:funsape/peripheral/../globalDefines.hpp ****     OFF                                 = false,
 110:funsape/peripheral/../globalDefines.hpp ****     ON                                  = true
 111:funsape/peripheral/../globalDefines.hpp **** };
 112:funsape/peripheral/../globalDefines.hpp **** 
 113:funsape/peripheral/../globalDefines.hpp **** enum class DisplayOrientation : cbool_t {
 114:funsape/peripheral/../globalDefines.hpp ****     LANDSCAPE                           = false,
 115:funsape/peripheral/../globalDefines.hpp ****     PORTRAIT                            = true
 116:funsape/peripheral/../globalDefines.hpp **** };
 117:funsape/peripheral/../globalDefines.hpp **** 
 118:funsape/peripheral/../globalDefines.hpp **** enum class DriverMode : cbool_t {
 119:funsape/peripheral/../globalDefines.hpp ****     PUSH_PULL                           = false,
 120:funsape/peripheral/../globalDefines.hpp ****     OPEN_DRAIN                          = true,
 121:funsape/peripheral/../globalDefines.hpp **** };
 122:funsape/peripheral/../globalDefines.hpp **** 
 123:funsape/peripheral/../globalDefines.hpp **** enum class Edge : cbool_t {
 124:funsape/peripheral/../globalDefines.hpp ****     FALLING                             = false,
GAS LISTING C:\Users\kenne\AppData\Local\Temp\cc6xNdAw.s 			page 20


 125:funsape/peripheral/../globalDefines.hpp ****     RISING                              = true
 126:funsape/peripheral/../globalDefines.hpp **** };
 127:funsape/peripheral/../globalDefines.hpp **** 
 128:funsape/peripheral/../globalDefines.hpp **** enum class IoOperation : cbool_t {
 129:funsape/peripheral/../globalDefines.hpp ****     WRITE                               = false,
 130:funsape/peripheral/../globalDefines.hpp ****     READ                                = true
 131:funsape/peripheral/../globalDefines.hpp **** };
 132:funsape/peripheral/../globalDefines.hpp **** 
 133:funsape/peripheral/../globalDefines.hpp **** enum class LogicLevel : cbool_t {
 134:funsape/peripheral/../globalDefines.hpp ****     LOW                                 = false,
 135:funsape/peripheral/../globalDefines.hpp ****     HIGH                                = true
 136:funsape/peripheral/../globalDefines.hpp **** };
 137:funsape/peripheral/../globalDefines.hpp **** 
 138:funsape/peripheral/../globalDefines.hpp **** enum class PinDirection : cbool_t {
 139:funsape/peripheral/../globalDefines.hpp ****     INPUT                               = false,
 140:funsape/peripheral/../globalDefines.hpp ****     OUTPUT                              = true,
 141:funsape/peripheral/../globalDefines.hpp **** };
 142:funsape/peripheral/../globalDefines.hpp **** 
 143:funsape/peripheral/../globalDefines.hpp **** enum class Rotation : cbool_t {
 144:funsape/peripheral/../globalDefines.hpp ****     CLOCKWISE                           = false,
 145:funsape/peripheral/../globalDefines.hpp ****     COUNTERCLOCKWISE                    = true
 146:funsape/peripheral/../globalDefines.hpp **** };
 147:funsape/peripheral/../globalDefines.hpp **** 
 148:funsape/peripheral/../globalDefines.hpp **** enum class State : cbool_t {
 149:funsape/peripheral/../globalDefines.hpp ****     OFF                                 = false,
 150:funsape/peripheral/../globalDefines.hpp ****     ON                                  = true
 151:funsape/peripheral/../globalDefines.hpp **** };
 152:funsape/peripheral/../globalDefines.hpp **** 
 153:funsape/peripheral/../globalDefines.hpp **** //     ///////////////////     PLAIN ENUMERATIONS    ////////////////////     //
 154:funsape/peripheral/../globalDefines.hpp **** enum class Axis : cuint8_t {
 155:funsape/peripheral/../globalDefines.hpp ****     //                                     Z-AXIS     Y-AXIS     X-AXIS
 156:funsape/peripheral/../globalDefines.hpp ****     NONE                                = (0 << 2) | (0 << 1) | (0 << 0),
 157:funsape/peripheral/../globalDefines.hpp ****     X                                   = (0 << 2) | (0 << 1) | (1 << 0),
 158:funsape/peripheral/../globalDefines.hpp ****     Y                                   = (0 << 2) | (1 << 1) | (0 << 0),
 159:funsape/peripheral/../globalDefines.hpp ****     XY                                  = (0 << 2) | (1 << 1) | (1 << 0),
 160:funsape/peripheral/../globalDefines.hpp ****     Z                                   = (1 << 2) | (0 << 1) | (0 << 0),
 161:funsape/peripheral/../globalDefines.hpp ****     XZ                                  = (1 << 2) | (0 << 1) | (1 << 0),
 162:funsape/peripheral/../globalDefines.hpp ****     YZ                                  = (1 << 2) | (1 << 1) | (0 << 0),
 163:funsape/peripheral/../globalDefines.hpp ****     ALL                                 = (1 << 2) | (1 << 1) | (1 << 0)
 164:funsape/peripheral/../globalDefines.hpp **** };
 165:funsape/peripheral/../globalDefines.hpp **** 
 166:funsape/peripheral/../globalDefines.hpp **** inlined Axis operator|(Axis a, Axis b)
 167:funsape/peripheral/../globalDefines.hpp **** {
 168:funsape/peripheral/../globalDefines.hpp ****     return static_cast<Axis>(static_cast<cint8_t>(a) | static_cast<uint8_t>(b));
 169:funsape/peripheral/../globalDefines.hpp **** }
 170:funsape/peripheral/../globalDefines.hpp **** 
 171:funsape/peripheral/../globalDefines.hpp **** inlined Axis &operator|=(Axis &a, Axis b)
 172:funsape/peripheral/../globalDefines.hpp **** {
 173:funsape/peripheral/../globalDefines.hpp ****     return a = static_cast<Axis>(static_cast<uint8_t>(a) | static_cast<uint8_t>(b));
 174:funsape/peripheral/../globalDefines.hpp **** }
 175:funsape/peripheral/../globalDefines.hpp **** 
 176:funsape/peripheral/../globalDefines.hpp **** inlined Axis operator&(Axis a, Axis b)
 177:funsape/peripheral/../globalDefines.hpp **** {
 178:funsape/peripheral/../globalDefines.hpp ****     return static_cast<Axis>(static_cast<uint8_t>(a) & static_cast<uint8_t>(b));
 179:funsape/peripheral/../globalDefines.hpp **** }
 180:funsape/peripheral/../globalDefines.hpp **** 
 181:funsape/peripheral/../globalDefines.hpp **** inlined Axis &operator&=(Axis &a, Axis b)
GAS LISTING C:\Users\kenne\AppData\Local\Temp\cc6xNdAw.s 			page 21


 182:funsape/peripheral/../globalDefines.hpp **** {
 183:funsape/peripheral/../globalDefines.hpp ****     return a = static_cast<Axis>(static_cast<uint8_t>(a) & static_cast<uint8_t>(b));
 184:funsape/peripheral/../globalDefines.hpp **** }
 185:funsape/peripheral/../globalDefines.hpp **** 
 186:funsape/peripheral/../globalDefines.hpp **** enum class Direction : cuint8_t {
 187:funsape/peripheral/../globalDefines.hpp ****     LEFT                                = 0,
 188:funsape/peripheral/../globalDefines.hpp ****     RIGHT                               = 1,
 189:funsape/peripheral/../globalDefines.hpp ****     UP                                  = 2,
 190:funsape/peripheral/../globalDefines.hpp ****     DOWN                                = 3
 191:funsape/peripheral/../globalDefines.hpp **** };
 192:funsape/peripheral/../globalDefines.hpp **** 
 193:funsape/peripheral/../globalDefines.hpp **** enum class InterfaceMode : cuint8_t {
 194:funsape/peripheral/../globalDefines.hpp ****     BLOCKING_MODE                       = 0,
 195:funsape/peripheral/../globalDefines.hpp ****     INTERRUPT_MODE                      = 1,
 196:funsape/peripheral/../globalDefines.hpp ****     DMA_MODE                            = 2
 197:funsape/peripheral/../globalDefines.hpp **** };
 198:funsape/peripheral/../globalDefines.hpp **** 
 199:funsape/peripheral/../globalDefines.hpp **** enum class ThermometricScale : cuint8_t {
 200:funsape/peripheral/../globalDefines.hpp ****     CELSIUS                             = 0,
 201:funsape/peripheral/../globalDefines.hpp ****     DELISLE                             = 1,
 202:funsape/peripheral/../globalDefines.hpp ****     FAHRENHEIT                          = 2,
 203:funsape/peripheral/../globalDefines.hpp ****     KELVIN                              = 3,
 204:funsape/peripheral/../globalDefines.hpp ****     NEWTON                              = 4,
 205:funsape/peripheral/../globalDefines.hpp ****     RANKINE                             = 5,
 206:funsape/peripheral/../globalDefines.hpp ****     REAUMUR                             = 6,
 207:funsape/peripheral/../globalDefines.hpp ****     ROMER                               = 7
 208:funsape/peripheral/../globalDefines.hpp **** };
 209:funsape/peripheral/../globalDefines.hpp **** 
 210:funsape/peripheral/../globalDefines.hpp **** enum class Error : cuint16_t {
 211:funsape/peripheral/../globalDefines.hpp ****     // General error codes
 212:funsape/peripheral/../globalDefines.hpp ****     NONE                                                = 0x0000,   // Success - No errors occurred
 213:funsape/peripheral/../globalDefines.hpp ****     AXIS_INVALID                                        = 0x0001,   // Invalid axis
 214:funsape/peripheral/../globalDefines.hpp ****     NOT_IMPLEMENTED                                     = 0x0002,   // Not implemented yet
 215:funsape/peripheral/../globalDefines.hpp ****     UNDER_DEVELOPMENT                                   = 0x0003,   // This part of the code is sti
 216:funsape/peripheral/../globalDefines.hpp ****     NOT_INITIALIZED                                     = 0x0004,   // Not initialized
 217:funsape/peripheral/../globalDefines.hpp ****     // BUSY                                                = 0x0005,   // TODO: Describe parameter
 218:funsape/peripheral/../globalDefines.hpp ****     // DEVICE_NOT_SUPPORTED                                = 0x0006,   // Device is not currently s
 219:funsape/peripheral/../globalDefines.hpp ****     FEATURE_NOT_SUPPORTED                               = 0x0007,   // Unsupported feature or confi
 220:funsape/peripheral/../globalDefines.hpp ****     // FUNCTION_POINTER_NULL                               = 0x0008,   // TODO: Describe parameter
 221:funsape/peripheral/../globalDefines.hpp ****     // INSTANCE_INVALID                                    = 0x0009,   // Invalid instance
 222:funsape/peripheral/../globalDefines.hpp ****     // LOCKED                                              = 0x000A,   // Accessed a locked device
 223:funsape/peripheral/../globalDefines.hpp ****     MEMORY_ALLOCATION                                   = 0x000B,   // Memory allocation failed
 224:funsape/peripheral/../globalDefines.hpp ****     // MODE_NOT_SUPPORTED                                  = 0x000C,   // Mode is not currently sup
 225:funsape/peripheral/../globalDefines.hpp ****     // NOT_READY                                           = 0x000D,   // TODO: Describe parameter
 226:funsape/peripheral/../globalDefines.hpp ****     // READ_PROTECTED                                      = 0x000E,   // Tried to read a read prot
 227:funsape/peripheral/../globalDefines.hpp ****     // WRITE_PROTECTED                                     = 0x000F,   // Tried to write a write pr
 228:funsape/peripheral/../globalDefines.hpp **** 
 229:funsape/peripheral/../globalDefines.hpp ****     // Function arguments related error codes
 230:funsape/peripheral/../globalDefines.hpp ****     ARGUMENT_CANNOT_BE_ZERO                             = 0x0010,   // TODO: Describe parameter
 231:funsape/peripheral/../globalDefines.hpp ****     ARGUMENT_POINTER_NULL                               = 0x0011,   // NULL pointer was passed as a
 232:funsape/peripheral/../globalDefines.hpp ****     ARGUMENT_VALUE_INVALID                              = 0x0012,   // TODO: Describe parameter
 233:funsape/peripheral/../globalDefines.hpp ****     // ARGUMENTS_MISMATCH                                  = 0x0013,   // A function was called wit
 234:funsape/peripheral/../globalDefines.hpp ****     // ARGUMENTS_WRONG_NUMBER                              = 0x0014,   // A function was called wit
 235:funsape/peripheral/../globalDefines.hpp ****     // ARGUMENT_GENERIC_ERROR_5                            = 0x0015,   // Generic error (use only o
 236:funsape/peripheral/../globalDefines.hpp ****     // ARGUMENT_GENERIC_ERROR_6                            = 0x0016,   // Generic error (use only o
 237:funsape/peripheral/../globalDefines.hpp ****     // ARGUMENT_GENERIC_ERROR_7                            = 0x0017,   // Generic error (use only o
 238:funsape/peripheral/../globalDefines.hpp ****     // ARGUMENT_GENERIC_ERROR_8                            = 0x0018,   // Generic error (use only o
GAS LISTING C:\Users\kenne\AppData\Local\Temp\cc6xNdAw.s 			page 22


 239:funsape/peripheral/../globalDefines.hpp ****     // ARGUMENT_GENERIC_ERROR_9                            = 0x0019,   // Generic error (use only o
 240:funsape/peripheral/../globalDefines.hpp ****     // ARGUMENT_GENERIC_ERROR_10                           = 0x001A,   // Generic error (use only o
 241:funsape/peripheral/../globalDefines.hpp ****     // ARGUMENT_GENERIC_ERROR_11                           = 0x001B,   // Generic error (use only o
 242:funsape/peripheral/../globalDefines.hpp ****     // ARGUMENT_GENERIC_ERROR_12                           = 0x001C,   // Generic error (use only o
 243:funsape/peripheral/../globalDefines.hpp ****     // ARGUMENT_GENERIC_ERROR_13                           = 0x001D,   // Generic error (use only o
 244:funsape/peripheral/../globalDefines.hpp ****     // ARGUMENT_GENERIC_ERROR_14                           = 0x001E,   // Generic error (use only o
 245:funsape/peripheral/../globalDefines.hpp ****     // ARGUMENT_GENERIC_ERROR                              = 0x001F,   // Generic error (use only o
 246:funsape/peripheral/../globalDefines.hpp **** 
 247:funsape/peripheral/../globalDefines.hpp ****     // Buffer related error codes
 248:funsape/peripheral/../globalDefines.hpp ****     // BUFFER_EMPTY                                        = 0x0020,   // Buffer is empty
 249:funsape/peripheral/../globalDefines.hpp ****     // BUFFER_FULL                                         = 0x0021,   // Buffer is full
 250:funsape/peripheral/../globalDefines.hpp ****     // BUFFER_NOT_ENOUGH_ELEMENTS                          = 0x0022,   // Not enough space in buffe
 251:funsape/peripheral/../globalDefines.hpp ****     // BUFFER_NOT_ENOUGH_SPACE                             = 0x0023,   // Not enough space in buffe
 252:funsape/peripheral/../globalDefines.hpp ****     // BUFFER_POINTER_NULL                                 = 0x0024,   // Buffer size was set to ze
 253:funsape/peripheral/../globalDefines.hpp ****     BUFFER_SIZE_TOO_LARGE                               = 0x0025,   // Buffer size was set to a lar
 254:funsape/peripheral/../globalDefines.hpp ****     BUFFER_SIZE_TOO_SMALL                               = 0x0026,   // Buffer size was set to a ver
 255:funsape/peripheral/../globalDefines.hpp ****     // BUFFER_SIZE_ZERO                                    = 0x0027,   // Buffer size was set to ze
 256:funsape/peripheral/../globalDefines.hpp ****     // BUFFER_GENERIC_ERROR_8                              = 0x0028,   // Generic error (use only o
 257:funsape/peripheral/../globalDefines.hpp ****     // BUFFER_GENERIC_ERROR_9                              = 0x0029,   // Generic error (use only o
 258:funsape/peripheral/../globalDefines.hpp ****     // BUFFER_GENERIC_ERROR_10                             = 0x002A,   // Generic error (use only o
 259:funsape/peripheral/../globalDefines.hpp ****     // BUFFER_GENERIC_ERROR_11                             = 0x002B,   // Generic error (use only o
 260:funsape/peripheral/../globalDefines.hpp ****     // BUFFER_GENERIC_ERROR_12                             = 0x002C,   // Generic error (use only o
 261:funsape/peripheral/../globalDefines.hpp ****     // BUFFER_GENERIC_ERROR_13                             = 0x002D,   // Generic error (use only o
 262:funsape/peripheral/../globalDefines.hpp ****     // BUFFER_GENERIC_ERROR_14                             = 0x002E,   // Generic error (use only o
 263:funsape/peripheral/../globalDefines.hpp ****     // BUFFER_GENERIC_ERROR_15                             = 0x002F,   // Generic error (use only o
 264:funsape/peripheral/../globalDefines.hpp **** 
 265:funsape/peripheral/../globalDefines.hpp ****     // Clock configuration related error codes
 266:funsape/peripheral/../globalDefines.hpp ****     CLOCK_PRESCALER_CHANGE_FAILED                       = 0x0030,   // Clock prescaler change faile
 267:funsape/peripheral/../globalDefines.hpp ****     CLOCK_PRESCALER_NOT_SUPPORTED                       = 0x0031,   // Clock prescaler configuratio
 268:funsape/peripheral/../globalDefines.hpp ****     CLOCK_SPEED_TOO_HIGH                                = 0x0032,   // TODO: Describe parameter
 269:funsape/peripheral/../globalDefines.hpp ****     CLOCK_SPEED_TOO_LOW                                 = 0x0033,   // TODO: Describe parameter
 270:funsape/peripheral/../globalDefines.hpp ****     // CLOCK_GENERIC_ERROR_4                               = 0x0034,   // Generic error (use only o
 271:funsape/peripheral/../globalDefines.hpp ****     // CLOCK_GENERIC_ERROR_5                               = 0x0035,   // Generic error (use only o
 272:funsape/peripheral/../globalDefines.hpp ****     // CLOCK_GENERIC_ERROR_6                               = 0x0036,   // Generic error (use only o
 273:funsape/peripheral/../globalDefines.hpp ****     // CLOCK_GENERIC_ERROR_7                               = 0x0037,   // Generic error (use only o
 274:funsape/peripheral/../globalDefines.hpp ****     // CLOCK_GENERIC_ERROR_8                               = 0x0038,   // Generic error (use only o
 275:funsape/peripheral/../globalDefines.hpp ****     // CLOCK_GENERIC_ERROR_9                               = 0x0039,   // Generic error (use only o
 276:funsape/peripheral/../globalDefines.hpp ****     // CLOCK_GENERIC_ERROR_10                              = 0x003A,   // Generic error (use only o
 277:funsape/peripheral/../globalDefines.hpp ****     // CLOCK_GENERIC_ERROR_11                              = 0x003B,   // Generic error (use only o
 278:funsape/peripheral/../globalDefines.hpp ****     // CLOCK_GENERIC_ERROR_12                              = 0x003C,   // Generic error (use only o
 279:funsape/peripheral/../globalDefines.hpp ****     // CLOCK_GENERIC_ERROR_13                              = 0x003D,   // Generic error (use only o
 280:funsape/peripheral/../globalDefines.hpp ****     // CLOCK_GENERIC_ERROR_14                              = 0x003E,   // Generic error (use only o
 281:funsape/peripheral/../globalDefines.hpp ****     // CLOCK_GENERIC_ERROR_15                              = 0x003F,   // Generic error (use only o
 282:funsape/peripheral/../globalDefines.hpp **** 
 283:funsape/peripheral/../globalDefines.hpp ****     // Communication related error codes
 284:funsape/peripheral/../globalDefines.hpp ****     COMMUNICATION_FAILED                                = 0x0040,   // TODO: Describe parameter
 285:funsape/peripheral/../globalDefines.hpp ****     COMMUNICATION_NO_DEVICE_SELECTED                    = 0x0041,   // TODO: Describe parameter
 286:funsape/peripheral/../globalDefines.hpp ****     // COMMUNICATION_PORT_NOT_SET                          = 0x0042,   // TODO: Describe parameter
 287:funsape/peripheral/../globalDefines.hpp ****     COMMUNICATION_TIMEOUT                               = 0x0043,   // The operation timed out
 288:funsape/peripheral/../globalDefines.hpp ****     // COMMUNICATION_DEVICE_ID_MATCH_FAILED                = 0x0044,   // TODO: Describe parameter
 289:funsape/peripheral/../globalDefines.hpp ****     // CHECKSUM_ERROR                                      = 0x0045,   // TODO: Describe parameter
 290:funsape/peripheral/../globalDefines.hpp ****     // FRAME_ERROR                                         = 0x0046,   // TODO: Describe parameter
 291:funsape/peripheral/../globalDefines.hpp ****     // PACKAGE_AWAITING                                    = 0x0047,   // Try to write data to a re
 292:funsape/peripheral/../globalDefines.hpp ****     // PACKAGE_NOT_READY                                   = 0x0048,   // Try to read data from a n
 293:funsape/peripheral/../globalDefines.hpp ****     // COMMUNICATION_GENERIC_ERROR_9                       = 0x0049,   // Generic error (use only o
 294:funsape/peripheral/../globalDefines.hpp ****     // COMMUNICATION_GENERIC_ERROR_10                      = 0x004A,   // Generic error (use only o
 295:funsape/peripheral/../globalDefines.hpp ****     // COMMUNICATION_GENERIC_ERROR_11                      = 0x004B,   // Generic error (use only o
GAS LISTING C:\Users\kenne\AppData\Local\Temp\cc6xNdAw.s 			page 23


 296:funsape/peripheral/../globalDefines.hpp ****     // COMMUNICATION_GENERIC_ERROR_12                      = 0x004C,   // Generic error (use only o
 297:funsape/peripheral/../globalDefines.hpp ****     // COMMUNICATION_GENERIC_ERROR_13                      = 0x004D,   // Generic error (use only o
 298:funsape/peripheral/../globalDefines.hpp ****     // COMMUNICATION_GENERIC_ERROR_14                      = 0x004E,   // Generic error (use only o
 299:funsape/peripheral/../globalDefines.hpp ****     // COMMUNICATION_GENERIC_ERROR_15                      = 0x004F,   // Generic error (use only o
 300:funsape/peripheral/../globalDefines.hpp **** 
 301:funsape/peripheral/../globalDefines.hpp ****     // DateTime class related error codes
 302:funsape/peripheral/../globalDefines.hpp ****     DATE_NOT_INITIALIZED                                = 0x0050,   // TODO: Describe parameter
 303:funsape/peripheral/../globalDefines.hpp ****     // HOUR_INVALID                                        = 0x0051,   // TODO: Describe parameter
 304:funsape/peripheral/../globalDefines.hpp ****     // MILLISECOND_INVALID                                 = 0x0052,   // TODO: Describe parameter
 305:funsape/peripheral/../globalDefines.hpp ****     // MINUTE_INVALID                                      = 0x0053,   // TODO: Describe parameter
 306:funsape/peripheral/../globalDefines.hpp ****     // MONTH_DAY_INVALID                                   = 0x0054,   // TODO: Describe parameter
 307:funsape/peripheral/../globalDefines.hpp ****     // MONTH_INVALID                                       = 0x0055,   // TODO: Describe parameter
 308:funsape/peripheral/../globalDefines.hpp ****     // SECOND_INVALID                                      = 0x0056,   // TODO: Describe parameter
 309:funsape/peripheral/../globalDefines.hpp ****     TIME_NOT_INITIALIZED                                = 0x0057,   // TODO: Describe parameter
 310:funsape/peripheral/../globalDefines.hpp ****     // TIMEZONE_INVALID                                    = 0x0058,   // TODO: Describe parameter
 311:funsape/peripheral/../globalDefines.hpp ****     // YEAR_INVALID                                        = 0x0059,   // TODO: Describe parameter
 312:funsape/peripheral/../globalDefines.hpp ****     DATE_INVALID                                        = 0x005A,   // TODO: Describe parameter
 313:funsape/peripheral/../globalDefines.hpp ****     TIME_INVALID                                        = 0x005B,   // TODO: Describe parameter
 314:funsape/peripheral/../globalDefines.hpp ****     // GENERIC_ERROR_13                                    = 0x005C,   // Generic error (use only o
 315:funsape/peripheral/../globalDefines.hpp ****     // GENERIC_ERROR_14                                    = 0x005D,   // Generic error (use only o
 316:funsape/peripheral/../globalDefines.hpp ****     // GENERIC_ERROR_15                                    = 0x005F,   // Generic error (use only o
 317:funsape/peripheral/../globalDefines.hpp **** 
 318:funsape/peripheral/../globalDefines.hpp ****     // Handler related error codes
 319:funsape/peripheral/../globalDefines.hpp ****     BUS_HANDLER_NOT_SUPPORTED                           = 0x0060,   // TODO: Describe parameter
 320:funsape/peripheral/../globalDefines.hpp ****     BUS_HANDLER_POINTER_NULL                            = 0x0061,   // TODO: Describe parameter
 321:funsape/peripheral/../globalDefines.hpp ****     // HANDLER_GENERIC_ERROR_2                             = 0x0062,   // Generic error (use only o
 322:funsape/peripheral/../globalDefines.hpp ****     // HANDLER_GENERIC_ERROR_3                             = 0x0063,   // Generic error (use only o
 323:funsape/peripheral/../globalDefines.hpp ****     // HANDLER_GENERIC_ERROR_4                             = 0x0064,   // Generic error (use only o
 324:funsape/peripheral/../globalDefines.hpp ****     // HANDLER_GENERIC_ERROR_5                             = 0x0065,   // Generic error (use only o
 325:funsape/peripheral/../globalDefines.hpp ****     // HANDLER_GENERIC_ERROR_6                             = 0x0066,   // Generic error (use only o
 326:funsape/peripheral/../globalDefines.hpp ****     // HANDLER_GENERIC_ERROR_7                             = 0x0067,   // Generic error (use only o
 327:funsape/peripheral/../globalDefines.hpp ****     // HANDLER_GENERIC_ERROR_8                             = 0x0068,   // Generic error (use only o
 328:funsape/peripheral/../globalDefines.hpp ****     // HANDLER_GENERIC_ERROR_9                             = 0x0069,   // Generic error (use only o
 329:funsape/peripheral/../globalDefines.hpp ****     // HANDLER_GENERIC_ERROR_10                            = 0x006A,   // Generic error (use only o
 330:funsape/peripheral/../globalDefines.hpp ****     // HANDLER_GENERIC_ERROR_11                            = 0x006B,   // Generic error (use only o
 331:funsape/peripheral/../globalDefines.hpp ****     // HANDLER_GENERIC_ERROR_12                            = 0x006C,   // Generic error (use only o
 332:funsape/peripheral/../globalDefines.hpp ****     // HANDLER_GENERIC_ERROR_13                            = 0x006D,   // Generic error (use only o
 333:funsape/peripheral/../globalDefines.hpp ****     // HANDLER_GENERIC_ERROR_14                            = 0x006E,   // Generic error (use only o
 334:funsape/peripheral/../globalDefines.hpp ****     // HANDLER_GENERIC_ERROR_15                            = 0x006F,   // Generic error (use only o
 335:funsape/peripheral/../globalDefines.hpp **** 
 336:funsape/peripheral/../globalDefines.hpp ****     // External interrupts related error codes
 337:funsape/peripheral/../globalDefines.hpp ****     // INTERRUPT_NOT_AVAILABLE                             = 0x0070,   // TODO: Describe parameter
 338:funsape/peripheral/../globalDefines.hpp ****     // INTERRUPT_PORT_OUTPUT_MODE_NOT_SUPPORTED            = 0x0071,   // TODO: Describe parameter
 339:funsape/peripheral/../globalDefines.hpp ****     // INTERRUPT_SENSE_MODE_NOT_SUPPORTED                  = 0x0072,   // TODO: Describe parameter
 340:funsape/peripheral/../globalDefines.hpp ****     // INTERRUPT_GENERIC_ERROR_3                           = 0x0073,   // Generic error (use only o
 341:funsape/peripheral/../globalDefines.hpp ****     // INTERRUPT_GENERIC_ERROR_4                           = 0x0074,   // Generic error (use only o
 342:funsape/peripheral/../globalDefines.hpp ****     // INTERRUPT_GENERIC_ERROR_5                           = 0x0075,   // Generic error (use only o
 343:funsape/peripheral/../globalDefines.hpp ****     // INTERRUPT_GENERIC_ERROR_6                           = 0x0076,   // Generic error (use only o
 344:funsape/peripheral/../globalDefines.hpp ****     // INTERRUPT_GENERIC_ERROR_7                           = 0x0077,   // Generic error (use only o
 345:funsape/peripheral/../globalDefines.hpp ****     // INTERRUPT_GENERIC_ERROR_8                           = 0x0078,   // Generic error (use only o
 346:funsape/peripheral/../globalDefines.hpp ****     // INTERRUPT_GENERIC_ERROR_9                           = 0x0079,   // Generic error (use only o
 347:funsape/peripheral/../globalDefines.hpp ****     // INTERRUPT_GENERIC_ERROR_10                          = 0x007A,   // Generic error (use only o
 348:funsape/peripheral/../globalDefines.hpp ****     // INTERRUPT_GENERIC_ERROR_11                          = 0x007B,   // Generic error (use only o
 349:funsape/peripheral/../globalDefines.hpp ****     // INTERRUPT_GENERIC_ERROR_12                          = 0x007C,   // Generic error (use only o
 350:funsape/peripheral/../globalDefines.hpp ****     // INTERRUPT_GENERIC_ERROR_13                          = 0x007D,   // Generic error (use only o
 351:funsape/peripheral/../globalDefines.hpp ****     // INTERRUPT_GENERIC_ERROR_14                          = 0x007E,   // Generic error (use only o
 352:funsape/peripheral/../globalDefines.hpp ****     // INTERRUPT_GENERIC_ERROR_15                          = 0x007F,   // Generic error (use only o
GAS LISTING C:\Users\kenne\AppData\Local\Temp\cc6xNdAw.s 			page 24


 353:funsape/peripheral/../globalDefines.hpp **** 
 354:funsape/peripheral/../globalDefines.hpp **** 
 355:funsape/peripheral/../globalDefines.hpp ****     // Package API class related error codes
 356:funsape/peripheral/../globalDefines.hpp ****     // PACKAGE_API_PACKAGE_DATA_FULL                       = 0x0080,   // TODO: Describe parameter
 357:funsape/peripheral/../globalDefines.hpp ****     // PACKAGE_API_PACKAGE_NOT_READY                       = 0x0081,   // TODO: Describe parameter
 358:funsape/peripheral/../globalDefines.hpp ****     // PACKAGE_API_PAYLOAD_DATA_NULL                       = 0x0082,   // TODO: Describe parameter
 359:funsape/peripheral/../globalDefines.hpp ****     // PACKAGE_API_PAYLOAD_SIZE_NULL                       = 0x0083,   // TODO: Describe parameter
 360:funsape/peripheral/../globalDefines.hpp ****     // PACKAGE_API_SOURCE_ADDRESS_INVALID                  = 0x0084,   // TODO: Describe parameter
 361:funsape/peripheral/../globalDefines.hpp ****     // PACKAGE_API_GENERIC_ERROR_5                         = 0x0085,   // Generic error (use only o
 362:funsape/peripheral/../globalDefines.hpp ****     // PACKAGE_API_GENERIC_ERROR_6                         = 0x0086,   // Generic error (use only o
 363:funsape/peripheral/../globalDefines.hpp ****     // PACKAGE_API_GENERIC_ERROR_7                         = 0x0087,   // Generic error (use only o
 364:funsape/peripheral/../globalDefines.hpp ****     // PACKAGE_API_GENERIC_ERROR_8                         = 0x0088,   // Generic error (use only o
 365:funsape/peripheral/../globalDefines.hpp ****     // PACKAGE_API_GENERIC_ERROR_9                         = 0x0089,   // Generic error (use only o
 366:funsape/peripheral/../globalDefines.hpp ****     // PACKAGE_API_GENERIC_ERROR_10                        = 0x008A,   // Generic error (use only o
 367:funsape/peripheral/../globalDefines.hpp ****     // PACKAGE_API_GENERIC_ERROR_11                        = 0x008B,   // Generic error (use only o
 368:funsape/peripheral/../globalDefines.hpp ****     // PACKAGE_API_GENERIC_ERROR_12                        = 0x008C,   // Generic error (use only o
 369:funsape/peripheral/../globalDefines.hpp ****     // PACKAGE_API_GENERIC_ERROR_13                        = 0x008D,   // Generic error (use only o
 370:funsape/peripheral/../globalDefines.hpp ****     // PACKAGE_API_GENERIC_ERROR_14                        = 0x008E,   // Generic error (use only o
 371:funsape/peripheral/../globalDefines.hpp ****     // PACKAGE_API_GENERIC_ERROR_15                        = 0x008F,   // Generic error (use only o
 372:funsape/peripheral/../globalDefines.hpp **** 
 373:funsape/peripheral/../globalDefines.hpp ****     // SPI related error codes
 374:funsape/peripheral/../globalDefines.hpp ****     // SPI_BUSY_FLAG                                       = 0x0090,   // TODO: Describe parameter
 375:funsape/peripheral/../globalDefines.hpp ****     // SPI_CRC                                             = 0x0091,   // TODO: Describe parameter
 376:funsape/peripheral/../globalDefines.hpp ****     // SPI_DMA                                             = 0x0092,   // TODO: Describe parameter
 377:funsape/peripheral/../globalDefines.hpp ****     // SPI_MODE_FAULT                                      = 0x0093,   // TODO: Describe parameter
 378:funsape/peripheral/../globalDefines.hpp ****     // SPI_OVERRUN                                         = 0x0094,   // TODO: Describe parameter
 379:funsape/peripheral/../globalDefines.hpp ****     // SPI_GENERIC_ERROR_5                                 = 0x0095,   // Generic error (use only o
 380:funsape/peripheral/../globalDefines.hpp ****     // SPI_GENERIC_ERROR_6                                 = 0x0096,   // Generic error (use only o
 381:funsape/peripheral/../globalDefines.hpp ****     // SPI_GENERIC_ERROR_7                                 = 0x0097,   // Generic error (use only o
 382:funsape/peripheral/../globalDefines.hpp ****     // SPI_GENERIC_ERROR_8                                 = 0x0098,   // Generic error (use only o
 383:funsape/peripheral/../globalDefines.hpp ****     // SPI_GENERIC_ERROR_9                                 = 0x0099,   // Generic error (use only o
 384:funsape/peripheral/../globalDefines.hpp ****     // SPI_GENERIC_ERROR_10                                = 0x009A,   // Generic error (use only o
 385:funsape/peripheral/../globalDefines.hpp ****     // SPI_GENERIC_ERROR_11                                = 0x009B,   // Generic error (use only o
 386:funsape/peripheral/../globalDefines.hpp ****     // SPI_GENERIC_ERROR_12                                = 0x009C,   // Generic error (use only o
 387:funsape/peripheral/../globalDefines.hpp ****     // SPI_GENERIC_ERROR_13                                = 0x009D,   // Generic error (use only o
 388:funsape/peripheral/../globalDefines.hpp ****     // SPI_GENERIC_ERROR_14                                = 0x009E,   // Generic error (use only o
 389:funsape/peripheral/../globalDefines.hpp ****     // SPI_GENERIC_ERROR_15                                = 0x009F,   // Generic error (use only o
 390:funsape/peripheral/../globalDefines.hpp **** 
 391:funsape/peripheral/../globalDefines.hpp ****     // TWI related error codes
 392:funsape/peripheral/../globalDefines.hpp ****     // TWI_AF_FLAG                                         = 0x00A0,   // TWI AF flag error
 393:funsape/peripheral/../globalDefines.hpp ****     // TWI_ARBITRATION_LOST                                = 0x00A1,   // TWI bus arbitration lost
 394:funsape/peripheral/../globalDefines.hpp ****     // TWI_BUS_ERROR                                       = 0x00A2,   // TWI bus error
 395:funsape/peripheral/../globalDefines.hpp ****     // TWI_DMA                                             = 0x00A3,   // DMA parameter error
 396:funsape/peripheral/../globalDefines.hpp ****     // TWI_DMA_PARAM                                       = 0x00A4,   // DMA transfer error
 397:funsape/peripheral/../globalDefines.hpp ****     // TWI_OVERRUN                                         = 0x00A5,   // TWI overrun
 398:funsape/peripheral/../globalDefines.hpp ****     // TWI_SIZE_MANAGEMENT_ERROR                           = 0x00A6,   // Size management error
 399:funsape/peripheral/../globalDefines.hpp ****     // TWI_INVALID_DEVICE_ADDRESS                          = 0x00A7,   // TODO: Describe parameter
 400:funsape/peripheral/../globalDefines.hpp ****     // TWI_GENERIC_ERROR_8                                 = 0x00A8,   // Generic error (use only o
 401:funsape/peripheral/../globalDefines.hpp ****     // TWI_GENERIC_ERROR_9                                 = 0x00A9,   // Generic error (use only o
 402:funsape/peripheral/../globalDefines.hpp ****     // TWI_GENERIC_ERROR_10                                = 0x00AA,   // Generic error (use only o
 403:funsape/peripheral/../globalDefines.hpp ****     // TWI_GENERIC_ERROR_11                                = 0x00AB,   // Generic error (use only o
 404:funsape/peripheral/../globalDefines.hpp ****     // TWI_GENERIC_ERROR_12                                = 0x00AC,   // Generic error (use only o
 405:funsape/peripheral/../globalDefines.hpp ****     // TWI_GENERIC_ERROR_13                                = 0x00AD,   // Generic error (use only o
 406:funsape/peripheral/../globalDefines.hpp ****     // TWI_GENERIC_ERROR_14                                = 0x00AE,   // Generic error (use only o
 407:funsape/peripheral/../globalDefines.hpp ****     // TWI_GENERIC_ERROR_15                                = 0x00AF,   // Generic error (use only o
 408:funsape/peripheral/../globalDefines.hpp **** 
 409:funsape/peripheral/../globalDefines.hpp ****     // USART related error codes
GAS LISTING C:\Users\kenne\AppData\Local\Temp\cc6xNdAw.s 			page 25


 410:funsape/peripheral/../globalDefines.hpp ****     USART_BAUD_RATE_NOT_SUPPORTED                       = 0x00B0,   // TODO: Describe parameter
 411:funsape/peripheral/../globalDefines.hpp ****     // USART_CONFIGURATION_PARAMETER_WRONG                 = 0x00B1,   // TODO: Describe parameter
 412:funsape/peripheral/../globalDefines.hpp ****     USART_DATA_SIZE_NOT_SUPPORTED                       = 0x00B2,   // TODO: Describe parameter
 413:funsape/peripheral/../globalDefines.hpp ****     USART_FRAME_FORMAT_NOT_SUPPORTED                    = 0x00B3,   // TODO: Describe parameter
 414:funsape/peripheral/../globalDefines.hpp ****     USART_PARITY_NOT_SUPPORTED                          = 0x00B4,   // TODO: Describe parameter
 415:funsape/peripheral/../globalDefines.hpp ****     USART_STOP_BIT_NOT_SUPPORTED                        = 0x00B5,   // TODO: Describe parameter
 416:funsape/peripheral/../globalDefines.hpp ****     USART_MODE_NOT_SUPPORTED                            = 0x00B6,   // TODO: Describe parameter
 417:funsape/peripheral/../globalDefines.hpp ****     // USART_GENERIC_ERROR_7                               = 0x00B7,   // Generic error (use only o
 418:funsape/peripheral/../globalDefines.hpp ****     // USART_GENERIC_ERROR_8                               = 0x00B8,   // Generic error (use only o
 419:funsape/peripheral/../globalDefines.hpp ****     // USART_GENERIC_ERROR_9                               = 0x00B9,   // Generic error (use only o
 420:funsape/peripheral/../globalDefines.hpp ****     // USART_GENERIC_ERROR_10                              = 0x00BA,   // Generic error (use only o
 421:funsape/peripheral/../globalDefines.hpp ****     // USART_GENERIC_ERROR_11                              = 0x00BB,   // Generic error (use only o
 422:funsape/peripheral/../globalDefines.hpp ****     // USART_GENERIC_ERROR_12                              = 0x00BC,   // Generic error (use only o
 423:funsape/peripheral/../globalDefines.hpp ****     // USART_GENERIC_ERROR_13                              = 0x00BD,   // Generic error (use only o
 424:funsape/peripheral/../globalDefines.hpp ****     // USART_GENERIC_ERROR_14                              = 0x00BE,   // Generic error (use only o
 425:funsape/peripheral/../globalDefines.hpp ****     // USART_GENERIC_ERROR_15                              = 0x00BF,   // Generic error (use only o
 426:funsape/peripheral/../globalDefines.hpp **** 
 427:funsape/peripheral/../globalDefines.hpp ****     // LCD related error codes
 428:funsape/peripheral/../globalDefines.hpp ****     // LCD_CONTROL_PORT_NOT_SET                            = 0x00C0,   // TODO: Describe parameter
 429:funsape/peripheral/../globalDefines.hpp ****     // LCD_CONTROL_PIN_E_INVALID                           = 0x00C1,   // TODO: Describe parameter
 430:funsape/peripheral/../globalDefines.hpp ****     // LCD_CONTROL_PIN_RS_INVALID                          = 0x00C2,   // TODO: Describe parameter
 431:funsape/peripheral/../globalDefines.hpp ****     // LCD_CONTROL_PIN_RW_INVALID                          = 0x00C3,   // TODO: Describe parameter
 432:funsape/peripheral/../globalDefines.hpp ****     // LCD_DATA_PORT_NOT_SET                               = 0x00C4,   // TODO: Describe parameter
 433:funsape/peripheral/../globalDefines.hpp ****     // LCD_DATA_PIN_INDEX_OUT_OF_BOUNDARIES                = 0x00C5,   // TODO: Describe parameter
 434:funsape/peripheral/../globalDefines.hpp ****     // LCD_GENERIC_ERROR_6                                 = 0x00C6,   // Generic error (use only o
 435:funsape/peripheral/../globalDefines.hpp ****     // LCD_GENERIC_ERROR_7                                 = 0x00C7,   // Generic error (use only o
 436:funsape/peripheral/../globalDefines.hpp ****     // LCD_GENERIC_ERROR_8                                 = 0x00C8,   // Generic error (use only o
 437:funsape/peripheral/../globalDefines.hpp ****     // LCD_GENERIC_ERROR_9                                 = 0x00C9,   // Generic error (use only o
 438:funsape/peripheral/../globalDefines.hpp ****     // LCD_GENERIC_ERROR_10                                = 0x00CA,   // Generic error (use only o
 439:funsape/peripheral/../globalDefines.hpp ****     // LCD_GENERIC_ERROR_11                                = 0x00CB,   // Generic error (use only o
 440:funsape/peripheral/../globalDefines.hpp ****     // LCD_GENERIC_ERROR_12                                = 0x00CC,   // Generic error (use only o
 441:funsape/peripheral/../globalDefines.hpp ****     // LCD_GENERIC_ERROR_13                                = 0x00CD,   // Generic error (use only o
 442:funsape/peripheral/../globalDefines.hpp ****     // LCD_GENERIC_ERROR_14                                = 0x00CE,   // Generic error (use only o
 443:funsape/peripheral/../globalDefines.hpp ****     // LCD_GENERIC_ERROR_15                                = 0x00CF,   // Generic error (use only o
 444:funsape/peripheral/../globalDefines.hpp **** 
 445:funsape/peripheral/../globalDefines.hpp ****     // GPIO related error codes
 446:funsape/peripheral/../globalDefines.hpp ****     GPIO_PORT_NOT_SET                                   = 0x00D0,   // Gpio port was not set before
 447:funsape/peripheral/../globalDefines.hpp ****     GPIO_DATA_PORT_NOT_SET                              = 0x00D1,   // Gpio data port was not set b
 448:funsape/peripheral/../globalDefines.hpp ****     GPIO_CONTROL_PORT_NOT_SET                           = 0x00D2,   // Gpio control port was not se
 449:funsape/peripheral/../globalDefines.hpp ****     GPIO_PORT_INVALID                                   = 0x00D3,   // Gpio port address is invalid
 450:funsape/peripheral/../globalDefines.hpp ****     GPIO_DATA_PORT_INVALID                              = 0x00D4,   // Gpio data port address is in
 451:funsape/peripheral/../globalDefines.hpp ****     GPIO_CONTROL_PORT_INVALID                           = 0x00D5,   // Gpio control port address is
 452:funsape/peripheral/../globalDefines.hpp ****     GPIO_PIN_INDEX_INVALID                              = 0x00D6,   // Invalid GPIO Pin
 453:funsape/peripheral/../globalDefines.hpp ****     GPIO_PIN_INDEX_OUT_OF_BOUNDARIES                    = 0x00D7,   // Gpio pin index was out of bo
 454:funsape/peripheral/../globalDefines.hpp ****     // GPIO_NO_PIN_SET                                     = 0x00D8,   // No pin selected at Gpio p
 455:funsape/peripheral/../globalDefines.hpp ****     // GPIO_ADDRESS_INVALID                                = 0x00D9,   // Invalid GPIO Port
 456:funsape/peripheral/../globalDefines.hpp ****     // GPIO_PORT_LOGIC_CONTENTION                          = 0x00DA,   // TODO: Describe parameter
 457:funsape/peripheral/../globalDefines.hpp ****     // GPIO_GENERIC_ERROR_11                               = 0x00DB,   // Generic error (use only o
 458:funsape/peripheral/../globalDefines.hpp ****     // GPIO_GENERIC_ERROR_12                               = 0x00DC,   // Generic error (use only o
 459:funsape/peripheral/../globalDefines.hpp ****     // GPIO_GENERIC_ERROR_13                               = 0x00DD,   // Generic error (use only o
 460:funsape/peripheral/../globalDefines.hpp ****     // GPIO_GENERIC_ERROR_14                               = 0x00DE,   // Generic error (use only o
 461:funsape/peripheral/../globalDefines.hpp ****     // GPIO_GENERIC_ERROR_15                               = 0x00DF,   // Generic error (use only o
 462:funsape/peripheral/../globalDefines.hpp **** 
 463:funsape/peripheral/../globalDefines.hpp ****     // HAL related error codes
 464:funsape/peripheral/../globalDefines.hpp ****     // HAL_UNKNOWN_ERROR                                   = 0x00E0,   // TODO: Describe parameter
 465:funsape/peripheral/../globalDefines.hpp ****     // HAL_STATUS_ERROR                                    = 0x00E1,   // TODO: Describe parameter
 466:funsape/peripheral/../globalDefines.hpp ****     // HAL_STATUS_BUSY                                     = 0x00E2,   // TODO: Describe parameter
GAS LISTING C:\Users\kenne\AppData\Local\Temp\cc6xNdAw.s 			page 26


 467:funsape/peripheral/../globalDefines.hpp ****     // HAL_STATUS_TIMEOUT                                  = 0x00E3,   // TODO: Describe parameter
 468:funsape/peripheral/../globalDefines.hpp ****     // HAL_GENERIC_ERROR_4                                 = 0x00E4,   // Generic error (use only o
 469:funsape/peripheral/../globalDefines.hpp ****     // HAL_GENERIC_ERROR_5                                 = 0x00E5,   // Generic error (use only o
 470:funsape/peripheral/../globalDefines.hpp ****     // HAL_GENERIC_ERROR_6                                 = 0x00E6,   // Generic error (use only o
 471:funsape/peripheral/../globalDefines.hpp ****     // HAL_GENERIC_ERROR_7                                 = 0x00E7,   // Generic error (use only o
 472:funsape/peripheral/../globalDefines.hpp ****     // HAL_GENERIC_ERROR_8                                 = 0x00E8,   // Generic error (use only o
 473:funsape/peripheral/../globalDefines.hpp ****     // HAL_GENERIC_ERROR_9                                 = 0x00E9,   // Generic error (use only o
 474:funsape/peripheral/../globalDefines.hpp ****     // HAL_GENERIC_ERROR_10                                = 0x00EA,   // Generic error (use only o
 475:funsape/peripheral/../globalDefines.hpp ****     // HAL_GENERIC_ERROR_11                                = 0x00EB,   // Generic error (use only o
 476:funsape/peripheral/../globalDefines.hpp ****     // HAL_GENERIC_ERROR_12                                = 0x00EC,   // Generic error (use only o
 477:funsape/peripheral/../globalDefines.hpp ****     // HAL_GENERIC_ERROR_13                                = 0x00ED,   // Generic error (use only o
 478:funsape/peripheral/../globalDefines.hpp ****     // HAL_GENERIC_ERROR_14                                = 0x00EE,   // Generic error (use only o
 479:funsape/peripheral/../globalDefines.hpp ****     // HAL_GENERIC_ERROR_15                                = 0x00EF,   // Generic error (use only o
 480:funsape/peripheral/../globalDefines.hpp **** 
 481:funsape/peripheral/../globalDefines.hpp ****     // System related error codes
 482:funsape/peripheral/../globalDefines.hpp ****     // SYSTEM_US_TIMER_HANDLER_NULL                        = 0x00F0,   // TODO: Describe parameter
 483:funsape/peripheral/../globalDefines.hpp ****     // SYSTEM_GENERIC_ERROR_1                              = 0x00F1,   // Generic error (use only o
 484:funsape/peripheral/../globalDefines.hpp ****     // SYSTEM_GENERIC_ERROR_2                              = 0x00F2,   // Generic error (use only o
 485:funsape/peripheral/../globalDefines.hpp ****     // SYSTEM_GENERIC_ERROR_3                              = 0x00F3,   // Generic error (use only o
 486:funsape/peripheral/../globalDefines.hpp ****     // SYSTEM_GENERIC_ERROR_4                              = 0x00F4,   // Generic error (use only o
 487:funsape/peripheral/../globalDefines.hpp ****     // SYSTEM_GENERIC_ERROR_5                              = 0x00F5,   // Generic error (use only o
 488:funsape/peripheral/../globalDefines.hpp ****     // SYSTEM_GENERIC_ERROR_6                              = 0x00F6,   // Generic error (use only o
 489:funsape/peripheral/../globalDefines.hpp ****     // SYSTEM_GENERIC_ERROR_7                              = 0x00F7,   // Generic error (use only o
 490:funsape/peripheral/../globalDefines.hpp ****     // SYSTEM_GENERIC_ERROR_8                              = 0x00F8,   // Generic error (use only o
 491:funsape/peripheral/../globalDefines.hpp ****     // SYSTEM_GENERIC_ERROR_9                              = 0x00F9,   // Generic error (use only o
 492:funsape/peripheral/../globalDefines.hpp ****     // SYSTEM_GENERIC_ERROR_10                             = 0x00FA,   // Generic error (use only o
 493:funsape/peripheral/../globalDefines.hpp ****     // SYSTEM_GENERIC_ERROR_11                             = 0x00FB,   // Generic error (use only o
 494:funsape/peripheral/../globalDefines.hpp ****     // SYSTEM_GENERIC_ERROR_12                             = 0x00FC,   // Generic error (use only o
 495:funsape/peripheral/../globalDefines.hpp ****     // SYSTEM_GENERIC_ERROR_13                             = 0x00FD,   // Generic error (use only o
 496:funsape/peripheral/../globalDefines.hpp ****     // SYSTEM_GENERIC_ERROR_14                             = 0x00FE,   // Generic error (use only o
 497:funsape/peripheral/../globalDefines.hpp ****     // SYSTEM_GENERIC_ERROR_15                             = 0x00FF,   // Generic error (use only o
 498:funsape/peripheral/../globalDefines.hpp **** 
 499:funsape/peripheral/../globalDefines.hpp ****     // FatFs related error codes
 500:funsape/peripheral/../globalDefines.hpp ****     // FAT_FS_UNKNOWN_ERROR                                = 0x0100,   // TODO: Describe parameter
 501:funsape/peripheral/../globalDefines.hpp ****     // FAT_FS_DRIVE_UNSUPPORTED                            = 0x0101,   // TODO: Describe parameter
 502:funsape/peripheral/../globalDefines.hpp ****     // FAT_FS_DISK_NOT_INSERTED                            = 0x0102,   // TODO: Describe parameter
 503:funsape/peripheral/../globalDefines.hpp ****     // FAT_FS_INITIALIZATION_FAILED                        = 0x0103,   // TODO: Describe parameter
 504:funsape/peripheral/../globalDefines.hpp ****     // FAT_FS_GENERIC_ERROR_4                              = 0x0104,   // Generic error (use only o
 505:funsape/peripheral/../globalDefines.hpp ****     // FAT_FS_GENERIC_ERROR_5                              = 0x0105,   // Generic error (use only o
 506:funsape/peripheral/../globalDefines.hpp ****     // FAT_FS_GENERIC_ERROR_6                              = 0x0106,   // Generic error (use only o
 507:funsape/peripheral/../globalDefines.hpp ****     // FAT_FS_GENERIC_ERROR_7                              = 0x0107,   // Generic error (use only o
 508:funsape/peripheral/../globalDefines.hpp ****     // FAT_FS_GENERIC_ERROR_8                              = 0x0108,   // Generic error (use only o
 509:funsape/peripheral/../globalDefines.hpp ****     // FAT_FS_GENERIC_ERROR_9                              = 0x0109,   // Generic error (use only o
 510:funsape/peripheral/../globalDefines.hpp ****     // FAT_FS_GENERIC_ERROR_10                             = 0x010A,   // Generic error (use only o
 511:funsape/peripheral/../globalDefines.hpp ****     // FAT_FS_GENERIC_ERROR_11                             = 0x010B,   // Generic error (use only o
 512:funsape/peripheral/../globalDefines.hpp ****     // FAT_FS_GENERIC_ERROR_12                             = 0x010C,   // Generic error (use only o
 513:funsape/peripheral/../globalDefines.hpp ****     // FAT_FS_GENERIC_ERROR_13                             = 0x010D,   // Generic error (use only o
 514:funsape/peripheral/../globalDefines.hpp ****     // FAT_FS_GENERIC_ERROR_14                             = 0x010E,   // Generic error (use only o
 515:funsape/peripheral/../globalDefines.hpp ****     // FAT_FS_GENERIC_ERROR_15                             = 0x010F,   // Generic error (use only o
 516:funsape/peripheral/../globalDefines.hpp **** 
 517:funsape/peripheral/../globalDefines.hpp ****     // Uncategorized error codes
 518:funsape/peripheral/../globalDefines.hpp ****     // LCD_OUT_OF_BOUNDARIES                               = 0xFFF1,   // TODO: Describe parameter
 519:funsape/peripheral/../globalDefines.hpp ****     // CONTROLLER_NOT_SUPPORTED                            = 0xFFF2,   // Unsupported controller
 520:funsape/peripheral/../globalDefines.hpp ****     // DEVICE_ID_MATCH_FAILED                              = 0xFFF3,   // Device ID doesn't match
 521:funsape/peripheral/../globalDefines.hpp ****     // DMA_NOT_SUPPORTED                                   = 0xFFF4,   // DMA interface mode is not
 522:funsape/peripheral/../globalDefines.hpp ****     // DMA_TRANSFER_ERROR                                  = 0xFFF5,   // DMA transfer error
 523:funsape/peripheral/../globalDefines.hpp ****     // MESSAGE_TOO_LONG                                    = 0xFFF6,   // Message is to long to be 
GAS LISTING C:\Users\kenne\AppData\Local\Temp\cc6xNdAw.s 			page 27


 524:funsape/peripheral/../globalDefines.hpp ****     // VALID_DATA_NOT_AVAILABLE                            = 0xFFF7,   // Valid data was unavailabl
 525:funsape/peripheral/../globalDefines.hpp ****     // PERIPHERAL_NOT_READY                                = 0xFFF8,   // TODO: Describe parameter
 526:funsape/peripheral/../globalDefines.hpp ****     // STOPWATCH_NOT_STARTED                               = 0xFFF9,   // TODO: Describe parameter
 527:funsape/peripheral/../globalDefines.hpp ****     // UNCATEGORIZED_GENERIC_ERROR_10                      = 0xFFFA,   // Generic error (use only o
 528:funsape/peripheral/../globalDefines.hpp ****     // UNCATEGORIZED_GENERIC_ERROR_11                      = 0xFFFB,   // Generic error (use only o
 529:funsape/peripheral/../globalDefines.hpp ****     // UNCATEGORIZED_GENERIC_ERROR_12                      = 0xFFFC,   // Generic error (use only o
 530:funsape/peripheral/../globalDefines.hpp ****     // UNCATEGORIZED_GENERIC_ERROR_13                      = 0xFFFD,   // Generic error (use only o
 531:funsape/peripheral/../globalDefines.hpp ****     // UNCATEGORIZED_GENERIC_ERROR_14                      = 0xFFFE,   // Generic error (use only o
 532:funsape/peripheral/../globalDefines.hpp **** 
 533:funsape/peripheral/../globalDefines.hpp ****     KEYPAD_COLUMNS_PIN_INDEX_INVALID                    = 0xFFF9,
 534:funsape/peripheral/../globalDefines.hpp ****     KEYPAD_LINES_PIN_INDEX_INVALID                      = 0xFFFA,
 535:funsape/peripheral/../globalDefines.hpp **** 
 536:funsape/peripheral/../globalDefines.hpp ****     KEYPAD_LINES_GPIO_PORT_INVALID                      = 0xFFFB,
 537:funsape/peripheral/../globalDefines.hpp ****     KEYPAD_COLUMNS_GPIO_PORT_INVALID                    = 0xFFFC,
 538:funsape/peripheral/../globalDefines.hpp ****     KEYPAD_TYPE_UNSUPPORTED                             = 0xFFFD,
 539:funsape/peripheral/../globalDefines.hpp ****     KEY_VALUES_NOT_SET                                  = 0xFFFE,
 540:funsape/peripheral/../globalDefines.hpp ****     // "I don't have the slightest idea" error code
 541:funsape/peripheral/../globalDefines.hpp ****     UNKNOWN                                             = 0xFFFF,   // Unknown error - Ops!!!!
 542:funsape/peripheral/../globalDefines.hpp **** };
 543:funsape/peripheral/../globalDefines.hpp **** 
 544:funsape/peripheral/../globalDefines.hpp **** // =============================================================================
 545:funsape/peripheral/../globalDefines.hpp **** // Macrofunctions
 546:funsape/peripheral/../globalDefines.hpp **** // =============================================================================
 547:funsape/peripheral/../globalDefines.hpp **** 
 548:funsape/peripheral/../globalDefines.hpp **** //     //////////////////////     DATA VALIDITY    //////////////////////     //
 549:funsape/peripheral/../globalDefines.hpp **** #define isGpioAddressValid(gpioPort)    (       \
 550:funsape/peripheral/../globalDefines.hpp ****         (IS_GPIO_ALL_INSTANCE(gpioPort))        \
 551:funsape/peripheral/../globalDefines.hpp ****         ? (bool_t)true                          \
 552:funsape/peripheral/../globalDefines.hpp ****         : (bool_t)false)
 553:funsape/peripheral/../globalDefines.hpp **** #define isGpioPinIndexValid(gpioPin)    (       \
 554:funsape/peripheral/../globalDefines.hpp ****         (IS_GPIO_ALL_PIN_NUMBER(gpioPin))       \
 555:funsape/peripheral/../globalDefines.hpp ****         ? (bool_t)true                          \
 556:funsape/peripheral/../globalDefines.hpp ****         : (bool_t)false)
 557:funsape/peripheral/../globalDefines.hpp **** #define isPointerValid(ptr)             (       \
 558:funsape/peripheral/../globalDefines.hpp ****         ((void *)(ptr))                         \
 559:funsape/peripheral/../globalDefines.hpp ****         ? (bool_t)true                          \
 560:funsape/peripheral/../globalDefines.hpp ****         : (bool_t)false)
 561:funsape/peripheral/../globalDefines.hpp **** 
 562:funsape/peripheral/../globalDefines.hpp **** //     //////////////////////     BIT HANDLING     //////////////////////     //
 563:funsape/peripheral/../globalDefines.hpp **** #ifndef setBit
 564:funsape/peripheral/../globalDefines.hpp **** #   define setBit(reg, bit)                     ((reg) |= (1 << (bit)))
 565:funsape/peripheral/../globalDefines.hpp **** #endif
 566:funsape/peripheral/../globalDefines.hpp **** #ifndef clrBit
 567:funsape/peripheral/../globalDefines.hpp **** #   define clrBit(reg, bit)                     ((reg) &= ~(1 << (bit)))
 568:funsape/peripheral/../globalDefines.hpp **** #endif
 569:funsape/peripheral/../globalDefines.hpp **** #ifndef cplBit
 570:funsape/peripheral/../globalDefines.hpp **** #   define cplBit(reg, bit)                     ((reg) ^= (1 << (bit)))
 571:funsape/peripheral/../globalDefines.hpp **** #endif
 572:funsape/peripheral/../globalDefines.hpp **** 
 573:funsape/peripheral/../globalDefines.hpp **** //     ///////////////////////     BIT TESTING    ///////////////////////     //
 574:funsape/peripheral/../globalDefines.hpp **** #ifndef isBitSet
 575:funsape/peripheral/../globalDefines.hpp **** #   define isBitSet(reg, bit)                   (((reg) >> (bit)) & 1)
 576:funsape/peripheral/../globalDefines.hpp **** #endif
 577:funsape/peripheral/../globalDefines.hpp **** #ifndef isBitClr
 578:funsape/peripheral/../globalDefines.hpp **** #   define isBitClr(reg, bit)                   (!isBitSet(reg,bit))
 579:funsape/peripheral/../globalDefines.hpp **** #endif
 580:funsape/peripheral/../globalDefines.hpp **** 
GAS LISTING C:\Users\kenne\AppData\Local\Temp\cc6xNdAw.s 			page 28


 581:funsape/peripheral/../globalDefines.hpp **** //     ///////////////////////     BIT LOOPING    ///////////////////////     //
 582:funsape/peripheral/../globalDefines.hpp **** #ifndef waitUntilBitIsSet
 583:funsape/peripheral/../globalDefines.hpp **** #   define waitUntilBitIsSet(reg, bit)          do{     \
 584:funsape/peripheral/../globalDefines.hpp ****         doNothing();                                    \
 585:funsape/peripheral/../globalDefines.hpp ****     } while (isBitClr((reg), (bit)))
 586:funsape/peripheral/../globalDefines.hpp **** #endif
 587:funsape/peripheral/../globalDefines.hpp **** #ifndef waitUntilBitIsClear
 588:funsape/peripheral/../globalDefines.hpp **** #   define waitUntilBitIsClear(reg, bit)        do{     \
 589:funsape/peripheral/../globalDefines.hpp ****         doNothing();                                    \
 590:funsape/peripheral/../globalDefines.hpp ****     }while(isBitSet((reg), (bit)))
 591:funsape/peripheral/../globalDefines.hpp **** #endif
 592:funsape/peripheral/../globalDefines.hpp **** 
 593:funsape/peripheral/../globalDefines.hpp **** //     ////////////////////     BIT MASK HANDLING    ////////////////////     //
 594:funsape/peripheral/../globalDefines.hpp **** #ifndef setMask
 595:funsape/peripheral/../globalDefines.hpp **** #   define setMask(reg, mask)                   ((reg) |= (mask))
 596:funsape/peripheral/../globalDefines.hpp **** #endif
 597:funsape/peripheral/../globalDefines.hpp **** #ifndef clrMask
 598:funsape/peripheral/../globalDefines.hpp **** #   define clrMask(reg, mask)                   ((reg) &= ~(mask))
 599:funsape/peripheral/../globalDefines.hpp **** #endif
 600:funsape/peripheral/../globalDefines.hpp **** #ifndef cplMask
 601:funsape/peripheral/../globalDefines.hpp **** #   define cplMask(reg, mask)                   ((reg) ^= (mask))
 602:funsape/peripheral/../globalDefines.hpp **** #endif
 603:funsape/peripheral/../globalDefines.hpp **** 
 604:funsape/peripheral/../globalDefines.hpp **** //     ////////////////     BIT MASK OFFSET HANDLING     ////////////////     //
 605:funsape/peripheral/../globalDefines.hpp **** #ifndef setMaskOffset
 606:funsape/peripheral/../globalDefines.hpp **** #   define setMaskOffset(reg, mask, offset)     ((reg) |= ((mask) << (offset)))
 607:funsape/peripheral/../globalDefines.hpp **** #endif
 608:funsape/peripheral/../globalDefines.hpp **** #ifndef clrMaskOffset
 609:funsape/peripheral/../globalDefines.hpp **** #   define clrMaskOffset(reg, mask, offset)     ((reg) &= ~((mask) << (offset)))
 610:funsape/peripheral/../globalDefines.hpp **** #endif
 611:funsape/peripheral/../globalDefines.hpp **** #ifndef cplMaskOffset
 612:funsape/peripheral/../globalDefines.hpp **** #   define cplMaskOffset(reg, mask, offset)     ((reg) ^= ((mask) << (offset)))
 613:funsape/peripheral/../globalDefines.hpp **** #endif
 614:funsape/peripheral/../globalDefines.hpp **** 
 615:funsape/peripheral/../globalDefines.hpp **** //     /////////////     DATA MANIPULATION (8-BITS WIDE)    /////////////     //
 616:funsape/peripheral/../globalDefines.hpp **** #define byteGetNibble1(dataByte)        (((dataByte) >> 4) & 0x0F)
 617:funsape/peripheral/../globalDefines.hpp **** #define byteGetNibble0(dataByte)        ((dataByte) & 0x0F)
 618:funsape/peripheral/../globalDefines.hpp **** #define byteSwitchNibbles(dataByte)     ((byteGetNibble0(dataByte) << 4) | \
 619:funsape/peripheral/../globalDefines.hpp ****         (byteGetNibble1(dataByte)))
 620:funsape/peripheral/../globalDefines.hpp **** 
 621:funsape/peripheral/../globalDefines.hpp **** //     ////////////     DATA MANIPULATION (16-BITS WIDE)     ////////////     //
 622:funsape/peripheral/../globalDefines.hpp **** #define hwordGetByte1(dataHword)        (((dataHword) >> 8) & 0x00FF)
 623:funsape/peripheral/../globalDefines.hpp **** #define hwordGetByte0(dataHword)        ((dataHword) & 0x00FF)
 624:funsape/peripheral/../globalDefines.hpp **** #define hwordSwitchBytes(dataHword)     ((hwordGetByte0(dataHword) << 8) | \
 625:funsape/peripheral/../globalDefines.hpp ****         (hwordGetByte1(dataHword)))
 626:funsape/peripheral/../globalDefines.hpp **** 
 627:funsape/peripheral/../globalDefines.hpp **** //     ////////////     DATA MANIPULATION (32-BITS WIDE)     ////////////     //
 628:funsape/peripheral/../globalDefines.hpp **** #define wordGetByte3(dataWord)          (((dataWord) >> 24) & 0x000000FF)
 629:funsape/peripheral/../globalDefines.hpp **** #define wordGetByte2(dataWord)          (((dataWord) >> 16) & 0x000000FF)
 630:funsape/peripheral/../globalDefines.hpp **** #define wordGetByte1(dataWord)          (((dataWord) >> 8) & 0x000000FF)
 631:funsape/peripheral/../globalDefines.hpp **** #define wordGetByte0(dataWord)          ((dataWord) & 0x000000FF)
 632:funsape/peripheral/../globalDefines.hpp **** #define wordSwitchBytes(dataWord)       ((wordGetByte0(dataWord) << 24)  | \
 633:funsape/peripheral/../globalDefines.hpp ****         (wordGetByte1(dataWord) << 16) | \
 634:funsape/peripheral/../globalDefines.hpp ****         (wordGetByte2(dataWord) << 8)  | \
 635:funsape/peripheral/../globalDefines.hpp ****         (wordGetByte3(dataWord)))
 636:funsape/peripheral/../globalDefines.hpp **** #define wordGetHword1(dataWord)         (((dataWord) >> 16) & 0x0000FFFF)
 637:funsape/peripheral/../globalDefines.hpp **** #define wordGetHword0(dataWord)         ((dataWord) & 0x0000FFFF)
GAS LISTING C:\Users\kenne\AppData\Local\Temp\cc6xNdAw.s 			page 29


 638:funsape/peripheral/../globalDefines.hpp **** #define wordSwitchHwords(dataWord)      ((wordGetHword0(dataWord) << 16) | \
 639:funsape/peripheral/../globalDefines.hpp ****         (wordGetHword1(dataWord)))
 640:funsape/peripheral/../globalDefines.hpp **** 
 641:funsape/peripheral/../globalDefines.hpp **** //     ////////////     DATA MANIPULATION (64-BITS WIDE)     ////////////     //
 642:funsape/peripheral/../globalDefines.hpp **** #define dwordGetByte7(dataDword)        (((dataDword) >> 56) & 0x00000000000000FF)
 643:funsape/peripheral/../globalDefines.hpp **** #define dwordGetByte6(dataDword)        (((dataDword) >> 48) & 0x00000000000000FF)
 644:funsape/peripheral/../globalDefines.hpp **** #define dwordGetByte5(dataDword)        (((dataDword) >> 40) & 0x00000000000000FF)
 645:funsape/peripheral/../globalDefines.hpp **** #define dwordGetByte4(dataDword)        (((dataDword) >> 32) & 0x00000000000000FF)
 646:funsape/peripheral/../globalDefines.hpp **** #define dwordGetByte3(dataDword)        (((dataDword) >> 24) & 0x00000000000000FF)
 647:funsape/peripheral/../globalDefines.hpp **** #define dwordGetByte2(dataDword)        (((dataDword) >> 16) & 0x00000000000000FF)
 648:funsape/peripheral/../globalDefines.hpp **** #define dwordGetByte1(dataDword)        (((dataDword) >> 8) & 0x00000000000000FF)
 649:funsape/peripheral/../globalDefines.hpp **** #define dwordGetByte0(dataDword)        ((dataDword) & 0x00000000000000FF)
 650:funsape/peripheral/../globalDefines.hpp **** #define dwordSwitchBytes(dataDword)     ((dwordGetByte0(dataDword) << 56)  | \
 651:funsape/peripheral/../globalDefines.hpp ****         (dwordGetByte1(dataDword) << 48) | \
 652:funsape/peripheral/../globalDefines.hpp ****         (dwordGetByte2(dataDword) << 40) | \
 653:funsape/peripheral/../globalDefines.hpp ****         (dwordGetByte3(dataDword) << 32) | \
 654:funsape/peripheral/../globalDefines.hpp ****         (dwordGetByte4(dataDword) << 24) | \
 655:funsape/peripheral/../globalDefines.hpp ****         (dwordGetByte5(dataDword) << 16) | \
 656:funsape/peripheral/../globalDefines.hpp ****         (dwordGetByte6(dataDword) << 8)  | \
 657:funsape/peripheral/../globalDefines.hpp ****         (dwordGetByte7(dataDword)))
 658:funsape/peripheral/../globalDefines.hpp **** #define dwordGetHword3(dataDword)       ((dataDword >> 48) & 0x000000000000FFFF)
 659:funsape/peripheral/../globalDefines.hpp **** #define dwordGetHword2(dataDword)       ((dataDword >> 32) & 0x000000000000FFFF)
 660:funsape/peripheral/../globalDefines.hpp **** #define dwordGetHword1(dataDword)       ((dataDword >> 16) & 0x000000000000FFFF)
 661:funsape/peripheral/../globalDefines.hpp **** #define dwordGetHword0(dataDword)       ((dataDword >> 0) & 0x000000000000FFFF)
 662:funsape/peripheral/../globalDefines.hpp **** #define dwordSwitchHwords(dataDword)    ((dwordGetHword0(dataDword) << 48)  | \
 663:funsape/peripheral/../globalDefines.hpp ****         (dwordGetHword1(dataDword) << 32) | \
 664:funsape/peripheral/../globalDefines.hpp ****         (dwordGetHword2(dataDword) << 16) | \
 665:funsape/peripheral/../globalDefines.hpp ****         (dwordGetHword3(dataDword)))
 666:funsape/peripheral/../globalDefines.hpp **** #define dwordGetWord1(dataDword)         (((dataDword) >> 32) & 0x00000000FFFFFFFF)
 667:funsape/peripheral/../globalDefines.hpp **** #define dwordGetWord0(dataDword)         ((dataDword) & 0x00000000FFFFFFFF)
 668:funsape/peripheral/../globalDefines.hpp **** #define dwordSwitchWords(dataDword)     ((dwordGetWord0(dataDword) << 32)  | \
 669:funsape/peripheral/../globalDefines.hpp ****         (dwordGetWord1(dataDword)))
 670:funsape/peripheral/../globalDefines.hpp **** 
 671:funsape/peripheral/../globalDefines.hpp **** //     /////////////////////     TRUNCATE VALUES    /////////////////////     //
 672:funsape/peripheral/../globalDefines.hpp **** #define getMaximumOf(var1, var2)        (       \
 673:funsape/peripheral/../globalDefines.hpp ****         ((var1) > (var2))                       \
 674:funsape/peripheral/../globalDefines.hpp ****         ? (var1)                                \
 675:funsape/peripheral/../globalDefines.hpp ****         : (var2))
 676:funsape/peripheral/../globalDefines.hpp **** #define getMinimumOf(var1, var2)        (       \
 677:funsape/peripheral/../globalDefines.hpp ****         ((var1) < (var2))                       \
 678:funsape/peripheral/../globalDefines.hpp ****         ? (var1)                                \
 679:funsape/peripheral/../globalDefines.hpp ****         : (var2))
 680:funsape/peripheral/../globalDefines.hpp **** #define truncateBetween(var, min, max)  (       \
 681:funsape/peripheral/../globalDefines.hpp ****         ((var) < (min))                         \
 682:funsape/peripheral/../globalDefines.hpp ****         ? (min)                                 \
 683:funsape/peripheral/../globalDefines.hpp ****         : (((var) > (max))                      \
 684:funsape/peripheral/../globalDefines.hpp ****                 ? (max)                         \
 685:funsape/peripheral/../globalDefines.hpp ****                 : (var)                         \
 686:funsape/peripheral/../globalDefines.hpp ****         ))
 687:funsape/peripheral/../globalDefines.hpp **** 
 688:funsape/peripheral/../globalDefines.hpp **** //     //////////////////////     STRINGIFYING    ///////////////////////     //
 689:funsape/peripheral/../globalDefines.hpp **** #define stringifyName(constant)         #constant
 690:funsape/peripheral/../globalDefines.hpp **** #define stringifyValue(constant)        stringifyName(constant)
 691:funsape/peripheral/../globalDefines.hpp **** 
 692:funsape/peripheral/../globalDefines.hpp **** // =============================================================================
 693:funsape/peripheral/../globalDefines.hpp **** // Extern global variables
 694:funsape/peripheral/../globalDefines.hpp **** // =============================================================================
GAS LISTING C:\Users\kenne\AppData\Local\Temp\cc6xNdAw.s 			page 30


 695:funsape/peripheral/../globalDefines.hpp **** 
 696:funsape/peripheral/../globalDefines.hpp **** // NONE
 697:funsape/peripheral/../globalDefines.hpp **** 
 698:funsape/peripheral/../globalDefines.hpp **** // =============================================================================
 699:funsape/peripheral/../globalDefines.hpp **** // Inline functions declaration
 700:funsape/peripheral/../globalDefines.hpp **** // =============================================================================
 701:funsape/peripheral/../globalDefines.hpp **** 
 702:funsape/peripheral/../globalDefines.hpp **** //     ///////////////////     CHARACTER HANDLING    ////////////////////     //
 703:funsape/peripheral/../globalDefines.hpp **** char_t inlined toLowerCase(cchar_t character_p);
 704:funsape/peripheral/../globalDefines.hpp **** char_t inlined toUpperCase(cchar_t character_p);
 705:funsape/peripheral/../globalDefines.hpp **** 
 706:funsape/peripheral/../globalDefines.hpp **** //     /////////////////////     DATA VALIDITY     //////////////////////     //
 707:funsape/peripheral/../globalDefines.hpp **** bool_t inlined isAsciiLowerCaseLetter(cchar_t character_p);
 708:funsape/peripheral/../globalDefines.hpp **** bool_t inlined isAsciiUpperCaseLetter(cchar_t character_p);
 709:funsape/peripheral/../globalDefines.hpp **** bool_t inlined isAsciiCommand(cchar_t character_p);
 710:funsape/peripheral/../globalDefines.hpp **** bool_t inlined isAsciiLetter(cchar_t character_p);
 711:funsape/peripheral/../globalDefines.hpp **** bool_t inlined isAsciiNumber(cchar_t character_p);
 712:funsape/peripheral/../globalDefines.hpp **** bool_t inlined isAsciiSymbol(cchar_t character_p);
 713:funsape/peripheral/../globalDefines.hpp **** 
 714:funsape/peripheral/../globalDefines.hpp **** //     /////////////////////     SYSTEM ACTIONS    //////////////////////     //
 715:funsape/peripheral/../globalDefines.hpp **** void inlined die(Error errorCode_p);
 716:funsape/peripheral/../globalDefines.hpp **** void inlined doNop(void);
 717:funsape/peripheral/../globalDefines.hpp **** void inlined doNothing(void);
 718:funsape/peripheral/../globalDefines.hpp **** void inlined systemHalt(void (*function_p)(void) = nullptr);
 719:funsape/peripheral/../globalDefines.hpp **** 
 720:funsape/peripheral/../globalDefines.hpp **** // =============================================================================
 721:funsape/peripheral/../globalDefines.hpp **** // Inline functions definitions
 722:funsape/peripheral/../globalDefines.hpp **** // =============================================================================
 723:funsape/peripheral/../globalDefines.hpp **** 
 724:funsape/peripheral/../globalDefines.hpp **** //     ///////////////////     CHARACTER HANDLING    ////////////////////     //
 725:funsape/peripheral/../globalDefines.hpp **** char_t inlined toLowerCase(cchar_t character_p)
 726:funsape/peripheral/../globalDefines.hpp **** {
 727:funsape/peripheral/../globalDefines.hpp ****     return ((isAsciiUpperCaseLetter(character_p)) ? (character_p + 0x20) : character_p);
 728:funsape/peripheral/../globalDefines.hpp **** }
 729:funsape/peripheral/../globalDefines.hpp **** 
 730:funsape/peripheral/../globalDefines.hpp **** char_t inlined toUpperCase(cchar_t character_p)
 731:funsape/peripheral/../globalDefines.hpp **** {
 732:funsape/peripheral/../globalDefines.hpp ****     return ((isAsciiLowerCaseLetter(character_p)) ? (character_p - 0x20) : character_p);
 733:funsape/peripheral/../globalDefines.hpp **** }
 734:funsape/peripheral/../globalDefines.hpp **** 
 735:funsape/peripheral/../globalDefines.hpp **** //     /////////////////////     DATA VALIDITY     //////////////////////     //
 736:funsape/peripheral/../globalDefines.hpp **** bool_t inlined isAsciiLowerCaseLetter(cchar_t character_p)
 737:funsape/peripheral/../globalDefines.hpp **** {
 738:funsape/peripheral/../globalDefines.hpp ****     return ((bool_t)(((character_p >= 'a') && (character_p <= 'z')) ? true : false));
 739:funsape/peripheral/../globalDefines.hpp **** }
 740:funsape/peripheral/../globalDefines.hpp **** 
 741:funsape/peripheral/../globalDefines.hpp **** bool_t inlined isAsciiUpperCaseLetter(cchar_t character_p)
 742:funsape/peripheral/../globalDefines.hpp **** {
 743:funsape/peripheral/../globalDefines.hpp ****     return ((bool_t)(((character_p >= 'A') && (character_p <= 'Z')) ? true : false));
 744:funsape/peripheral/../globalDefines.hpp **** }
 745:funsape/peripheral/../globalDefines.hpp **** 
 746:funsape/peripheral/../globalDefines.hpp **** bool_t inlined isAsciiCommand(cchar_t character_p)
 747:funsape/peripheral/../globalDefines.hpp **** {
 748:funsape/peripheral/../globalDefines.hpp ****     return ((bool_t)((character_p < ' ') ? true : false));
 749:funsape/peripheral/../globalDefines.hpp **** }
 750:funsape/peripheral/../globalDefines.hpp **** 
 751:funsape/peripheral/../globalDefines.hpp **** bool_t inlined isAsciiLetter(cchar_t character_p)
GAS LISTING C:\Users\kenne\AppData\Local\Temp\cc6xNdAw.s 			page 31


 752:funsape/peripheral/../globalDefines.hpp **** {
 753:funsape/peripheral/../globalDefines.hpp ****     return ((bool_t)((isAsciiLowerCaseLetter(character_p) || (isAsciiUpperCaseLetter(character_p)) 
 754:funsape/peripheral/../globalDefines.hpp **** }
 755:funsape/peripheral/../globalDefines.hpp **** 
 756:funsape/peripheral/../globalDefines.hpp **** bool_t inlined isAsciiNumber(cchar_t character_p)
 757:funsape/peripheral/../globalDefines.hpp **** {
 758:funsape/peripheral/../globalDefines.hpp ****     return ((bool_t)(((character_p >= '0') && (character_p <= '9')) ? true : false));
 759:funsape/peripheral/../globalDefines.hpp **** }
 760:funsape/peripheral/../globalDefines.hpp **** 
 761:funsape/peripheral/../globalDefines.hpp **** bool_t inlined isAsciiSymbol(cchar_t character_p)
 762:funsape/peripheral/../globalDefines.hpp **** {
 763:funsape/peripheral/../globalDefines.hpp ****     return ((bool_t)(((!isAsciiNumber(character_p)) && (!isAsciiCommand(character_p)) &&
 764:funsape/peripheral/../globalDefines.hpp ****                                     (!isAsciiLetter(character_p))) ? true : false));
 765:funsape/peripheral/../globalDefines.hpp **** }
 766:funsape/peripheral/../globalDefines.hpp **** 
 767:funsape/peripheral/../globalDefines.hpp **** //     /////////////////////     SYSTEM ACTIONS    //////////////////////     //
 768:funsape/peripheral/../globalDefines.hpp **** void inlined die(Error errorCode_p)
 769:funsape/peripheral/../globalDefines.hpp **** {
 770:funsape/peripheral/../globalDefines.hpp ****     printf("Failed with error=%u (0x%04x).\r", (cuint16_t)errorCode_p, (cuint16_t)errorCode_p);
 771:funsape/peripheral/../globalDefines.hpp ****     systemHalt();
 772:funsape/peripheral/../globalDefines.hpp **** 
 773:funsape/peripheral/../globalDefines.hpp ****     return;
 774:funsape/peripheral/../globalDefines.hpp **** }
 775:funsape/peripheral/../globalDefines.hpp **** 
 776:funsape/peripheral/../globalDefines.hpp **** void inlined doNop(void)
 777:funsape/peripheral/../globalDefines.hpp **** {
 778:funsape/peripheral/../globalDefines.hpp ****     asm volatile("nop");
 779:funsape/peripheral/../globalDefines.hpp **** 
 780:funsape/peripheral/../globalDefines.hpp ****     return;
 781:funsape/peripheral/../globalDefines.hpp **** }
 782:funsape/peripheral/../globalDefines.hpp **** 
 783:funsape/peripheral/../globalDefines.hpp **** void inlined doNothing(void)
 784:funsape/peripheral/../globalDefines.hpp **** {
 785:funsape/peripheral/../globalDefines.hpp ****     return;
 786:funsape/peripheral/../globalDefines.hpp **** }
 787:funsape/peripheral/../globalDefines.hpp **** 
 788:funsape/peripheral/../globalDefines.hpp **** void inlined systemHalt(void (*function_p)(void))
 789:funsape/peripheral/../globalDefines.hpp **** {
 790:funsape/peripheral/../globalDefines.hpp ****     if(isPointerValid(function_p)) {
 791:funsape/peripheral/../globalDefines.hpp ****         function_p();
 792:funsape/peripheral/../globalDefines.hpp ****     }
 793:funsape/peripheral/../globalDefines.hpp ****     while(1) {
 794:funsape/peripheral/../globalDefines.hpp ****         doNothing();
 795:funsape/peripheral/../globalDefines.hpp ****     }
 796:funsape/peripheral/../globalDefines.hpp **** 
 797:funsape/peripheral/../globalDefines.hpp ****     return;
 798:funsape/peripheral/../globalDefines.hpp **** }
 799:funsape/peripheral/../globalDefines.hpp **** 
 800:funsape/peripheral/../globalDefines.hpp **** // =============================================================================
 801:funsape/peripheral/../globalDefines.hpp **** // Public functions weakly defined
 802:funsape/peripheral/../globalDefines.hpp **** // =============================================================================
 803:funsape/peripheral/../globalDefines.hpp **** 
 804:funsape/peripheral/../globalDefines.hpp **** #define delayMs(time_p)                 _delay_ms(time_p)
 805:funsape/peripheral/../globalDefines.hpp **** #define delayUs(time_p)                 _delay_us(time_p)
 806:funsape/peripheral/../globalDefines.hpp **** 
 807:funsape/peripheral/../globalDefines.hpp **** weakened uint32_t getTick(void)
 808:funsape/peripheral/../globalDefines.hpp **** {
GAS LISTING C:\Users\kenne\AppData\Local\Temp\cc6xNdAw.s 			page 32


 389               		.loc 3 808 1 is_stmt 1 view -0
 390               		.cfi_startproc
 391               	/* prologue: function */
 392               	/* frame size = 0 */
 393               	/* stack size = 0 */
 394               	.L__stack_usage = 0
 809:funsape/peripheral/../globalDefines.hpp ****     // TODO
 810:funsape/peripheral/../globalDefines.hpp ****     return 0;
 395               		.loc 3 810 5 view .LVU97
 811:funsape/peripheral/../globalDefines.hpp **** }
 396               		.loc 3 811 1 is_stmt 0 view .LVU98
 397 0000 60E0      		ldi r22,0
 398 0002 70E0      		ldi r23,0
 399 0004 CB01      		movw r24,r22
 400               	/* epilogue start */
 401 0006 0895      		ret
 402               		.cfi_endproc
 403               	.LFE32:
 405               		.section	.text._ZN3TwiC2Ev,"ax",@progbits
 406               	.global	_ZN3TwiC2Ev
 408               	_ZN3TwiC2Ev:
 409               	.LVL26:
 410               	.LFB47:
  57:funsape/peripheral/twi.cpp **** {
 411               		.loc 2 57 1 is_stmt 1 view -0
 412               		.cfi_startproc
 413               	/* prologue: function */
 414               	/* frame size = 0 */
 415               	/* stack size = 0 */
 416               	.L__stack_usage = 0
  57:funsape/peripheral/twi.cpp **** {
 417               		.loc 2 57 1 is_stmt 0 view .LVU100
 418 0000 E82F      		mov r30,r24
 419 0002 F92F      		mov r31,r25
 420               	.LVL27:
 421               	.LBB6:
 422               	.LBB7:
 423               	.LBI7:
  78:funsape/peripheral/../util/bus.hpp **** {
 424               		.loc 1 78 7 is_stmt 1 view .LVU101
 425               	.LBB8:
 426 0004 80E0      		ldi r24,lo8(_ZTV3Bus+4)
 427 0006 90E0      		ldi r25,hi8(_ZTV3Bus+4)
 428               	.LVL28:
  78:funsape/peripheral/../util/bus.hpp **** {
 429               		.loc 1 78 7 is_stmt 0 view .LVU102
 430 0008 9183      		std Z+1,r25
 431 000a 8083      		st Z,r24
 432               	.LVL29:
  78:funsape/peripheral/../util/bus.hpp **** {
 433               		.loc 1 78 7 view .LVU103
 434               	.LBE8:
 435               	.LBE7:
  57:funsape/peripheral/twi.cpp **** {
 436               		.loc 2 57 14 view .LVU104
 437 000c 80E0      		ldi r24,lo8(_ZTV3Twi+4)
 438 000e 90E0      		ldi r25,hi8(_ZTV3Twi+4)
GAS LISTING C:\Users\kenne\AppData\Local\Temp\cc6xNdAw.s 			page 33


 439 0010 9183      		std Z+1,r25
 440 0012 8083      		st Z,r24
  60:funsape/peripheral/twi.cpp ****     this->_bufferIndex = 0;
 441               		.loc 2 60 5 is_stmt 1 view .LVU105
  60:funsape/peripheral/twi.cpp ****     this->_bufferIndex = 0;
 442               		.loc 2 60 23 is_stmt 0 view .LVU106
 443 0014 128A      		std Z+18,__zero_reg__
 444 0016 118A      		std Z+17,__zero_reg__
  61:funsape/peripheral/twi.cpp ****     this->_bufferLength = 0;
 445               		.loc 2 61 5 is_stmt 1 view .LVU107
  61:funsape/peripheral/twi.cpp ****     this->_bufferLength = 0;
 446               		.loc 2 61 24 is_stmt 0 view .LVU108
 447 0018 8385      		ldd r24,Z+11
 448 001a 8078      		andi r24,lo8(-128)
 449 001c 8387      		std Z+11,r24
  62:funsape/peripheral/twi.cpp ****     this->_bufferMaxSize = 0;
 450               		.loc 2 62 5 is_stmt 1 view .LVU109
  62:funsape/peripheral/twi.cpp ****     this->_bufferMaxSize = 0;
 451               		.loc 2 62 25 is_stmt 0 view .LVU110
 452 001e 1386      		std Z+11,__zero_reg__
 453 0020 8485      		ldd r24,Z+12
 454 0022 807C      		andi r24,lo8(-64)
 455 0024 8487      		std Z+12,r24
  63:funsape/peripheral/twi.cpp ****     this->_initialized = false;
 456               		.loc 2 63 5 is_stmt 1 view .LVU111
  63:funsape/peripheral/twi.cpp ****     this->_initialized = false;
 457               		.loc 2 63 26 is_stmt 0 view .LVU112
 458 0026 1486      		std Z+12,__zero_reg__
 459 0028 8585      		ldd r24,Z+13
 460 002a 807E      		andi r24,lo8(-32)
 461 002c 8587      		std Z+13,r24
  64:funsape/peripheral/twi.cpp ****     this->_lastTransOk = false;
 462               		.loc 2 64 5 is_stmt 1 view .LVU113
  64:funsape/peripheral/twi.cpp ****     this->_lastTransOk = false;
 463               		.loc 2 64 24 is_stmt 0 view .LVU114
 464 002e 8481      		ldd r24,Z+4
 465 0030 8D7F      		andi r24,lo8(~(1<<1))
 466 0032 8483      		std Z+4,r24
  65:funsape/peripheral/twi.cpp ****     this->_timeout = TWI_DEFAULT_TIME_OUT;
 467               		.loc 2 65 5 is_stmt 1 view .LVU115
  65:funsape/peripheral/twi.cpp ****     this->_timeout = TWI_DEFAULT_TIME_OUT;
 468               		.loc 2 65 24 is_stmt 0 view .LVU116
 469 0034 8B7F      		andi r24,lo8(~(1<<2))
 470 0036 8483      		std Z+4,r24
  66:funsape/peripheral/twi.cpp **** 
 471               		.loc 2 66 5 is_stmt 1 view .LVU117
  66:funsape/peripheral/twi.cpp **** 
 472               		.loc 2 66 20 is_stmt 0 view .LVU118
 473 0038 84E1      		ldi r24,lo8(20)
 474 003a 90E0      		ldi r25,0
 475 003c 908B      		std Z+16,r25
 476 003e 8787      		std Z+15,r24
  69:funsape/peripheral/twi.cpp ****     return;
 477               		.loc 2 69 5 is_stmt 1 view .LVU119
  69:funsape/peripheral/twi.cpp ****     return;
 478               		.loc 2 69 22 is_stmt 0 view .LVU120
 479 0040 1086      		std Z+8,__zero_reg__
GAS LISTING C:\Users\kenne\AppData\Local\Temp\cc6xNdAw.s 			page 34


 480 0042 1782      		std Z+7,__zero_reg__
  70:funsape/peripheral/twi.cpp **** }
 481               		.loc 2 70 5 is_stmt 1 view .LVU121
 482               	/* epilogue start */
 483               	.LBE6:
  71:funsape/peripheral/twi.cpp **** 
 484               		.loc 2 71 1 is_stmt 0 view .LVU122
 485 0044 0895      		ret
 486               		.cfi_endproc
 487               	.LFE47:
 489               	.global	_ZN3TwiC1Ev
 490               		.set	_ZN3TwiC1Ev,_ZN3TwiC2Ev
 491               		.section	.text._ZN3TwiD2Ev,"ax",@progbits
 492               	.global	_ZN3TwiD2Ev
 494               	_ZN3TwiD2Ev:
 495               	.LVL30:
 496               	.LFB50:
  73:funsape/peripheral/twi.cpp **** {
 497               		.loc 2 73 1 is_stmt 1 view -0
 498               		.cfi_startproc
 499               	/* prologue: function */
 500               	/* frame size = 0 */
 501               	/* stack size = 0 */
 502               	.L__stack_usage = 0
 503               	.LBB9:
  73:funsape/peripheral/twi.cpp **** {
 504               		.loc 2 73 15 is_stmt 0 view .LVU124
 505 0000 20E0      		ldi r18,lo8(_ZTV3Twi+4)
 506 0002 30E0      		ldi r19,hi8(_ZTV3Twi+4)
 507 0004 FC01      		movw r30,r24
 508 0006 3183      		std Z+1,r19
 509 0008 2083      		st Z,r18
  76:funsape/peripheral/twi.cpp **** }
 510               		.loc 2 76 5 is_stmt 1 view .LVU125
 511               	/* epilogue start */
 512               	.LBE9:
  77:funsape/peripheral/twi.cpp **** 
 513               		.loc 2 77 1 is_stmt 0 view .LVU126
 514 000a 0895      		ret
 515               		.cfi_endproc
 516               	.LFE50:
 518               	.global	_ZN3TwiD1Ev
 519               		.set	_ZN3TwiD1Ev,_ZN3TwiD2Ev
 520               		.section	.text._Z41__static_initialization_and_destruction_0ii,"ax",@progbits
 522               	_Z41__static_initialization_and_destruction_0ii:
 523               	.LVL31:
 524               	.LFB65:
 287:funsape/peripheral/twi.cpp **** 
 288:funsape/peripheral/twi.cpp **** // =============================================================================
 289:funsape/peripheral/twi.cpp **** // Class private methods
 290:funsape/peripheral/twi.cpp **** // =============================================================================
 291:funsape/peripheral/twi.cpp **** 
 292:funsape/peripheral/twi.cpp **** bool_t Twi::_waitWhileIsBusy(void)
 293:funsape/peripheral/twi.cpp **** {
 294:funsape/peripheral/twi.cpp ****     // Local variables
 295:funsape/peripheral/twi.cpp ****     uint32_t stopwatchMark;
 296:funsape/peripheral/twi.cpp ****     uint32_t stopwatchDeadline;
GAS LISTING C:\Users\kenne\AppData\Local\Temp\cc6xNdAw.s 			page 35


 297:funsape/peripheral/twi.cpp **** 
 298:funsape/peripheral/twi.cpp ****     // Evaluates stopwatch deadline
 299:funsape/peripheral/twi.cpp ****     if(this->_timeout == 0) {
 300:funsape/peripheral/twi.cpp ****         stopwatchDeadline = 0xFFFFFFFF;
 301:funsape/peripheral/twi.cpp ****     } else {
 302:funsape/peripheral/twi.cpp ****         stopwatchDeadline = systemStatus.readStopwatch() + this->_timeout;
 303:funsape/peripheral/twi.cpp ****     }
 304:funsape/peripheral/twi.cpp **** 
 305:funsape/peripheral/twi.cpp ****     // Wait until TWI is ready for next transmission
 306:funsape/peripheral/twi.cpp ****     do {
 307:funsape/peripheral/twi.cpp ****         stopwatchMark = systemStatus.readStopwatch();
 308:funsape/peripheral/twi.cpp ****         if(stopwatchMark > stopwatchDeadline) {
 309:funsape/peripheral/twi.cpp ****             this->_lastError = Error::COMMUNICATION_TIMEOUT;
 310:funsape/peripheral/twi.cpp ****             return false;
 311:funsape/peripheral/twi.cpp ****         }
 312:funsape/peripheral/twi.cpp ****     } while(isBitSet(TWCR, TWIE));
 313:funsape/peripheral/twi.cpp **** 
 314:funsape/peripheral/twi.cpp ****     this->_lastError = Error::NONE;
 315:funsape/peripheral/twi.cpp ****     return true;
 316:funsape/peripheral/twi.cpp **** }
 317:funsape/peripheral/twi.cpp **** 
 318:funsape/peripheral/twi.cpp **** bool_t Twi::_startTrasmission(void)
 319:funsape/peripheral/twi.cpp **** {
 320:funsape/peripheral/twi.cpp ****     this->_lastTransOk = false;
 321:funsape/peripheral/twi.cpp ****     this->_state = State::NO_STATE;
 322:funsape/peripheral/twi.cpp ****     TWCR = (1 << TWEN) |
 323:funsape/peripheral/twi.cpp ****             (1 << TWIE) |
 324:funsape/peripheral/twi.cpp ****             (1 << TWINT) |
 325:funsape/peripheral/twi.cpp ****             (1 << TWSTA);
 326:funsape/peripheral/twi.cpp **** 
 327:funsape/peripheral/twi.cpp ****     this->_lastError = Error::NONE;
 328:funsape/peripheral/twi.cpp ****     return true;
 329:funsape/peripheral/twi.cpp **** }
 330:funsape/peripheral/twi.cpp **** 
 331:funsape/peripheral/twi.cpp **** bool_t Twi::_readFromBuffer(uint8_t *msg_p, cuint8_t msgSize_p)
 332:funsape/peripheral/twi.cpp **** {
 333:funsape/peripheral/twi.cpp ****     // Check for errors
 334:funsape/peripheral/twi.cpp ****     if(!this->_lastTransOk) {
 335:funsape/peripheral/twi.cpp ****         this->_lastError = Error::COMMUNICATION_FAILED;
 336:funsape/peripheral/twi.cpp ****         return false;
 337:funsape/peripheral/twi.cpp ****     }
 338:funsape/peripheral/twi.cpp ****     for(uint8_t i = 0; i < msgSize_p; i++) {
 339:funsape/peripheral/twi.cpp ****         msg_p[i] = this->_bufferData[i + 1];
 340:funsape/peripheral/twi.cpp ****     }
 341:funsape/peripheral/twi.cpp ****     this->_lastError = Error::NONE;
 342:funsape/peripheral/twi.cpp ****     return true;
 343:funsape/peripheral/twi.cpp **** }
 344:funsape/peripheral/twi.cpp **** 
 345:funsape/peripheral/twi.cpp **** // =============================================================================
 346:funsape/peripheral/twi.cpp **** // Class protected methods
 347:funsape/peripheral/twi.cpp **** // =============================================================================
 348:funsape/peripheral/twi.cpp **** 
 349:funsape/peripheral/twi.cpp **** // NONE
 350:funsape/peripheral/twi.cpp **** 
 351:funsape/peripheral/twi.cpp **** // =============================================================================
 352:funsape/peripheral/twi.cpp **** // General public functions definitions
 353:funsape/peripheral/twi.cpp **** // =============================================================================
GAS LISTING C:\Users\kenne\AppData\Local\Temp\cc6xNdAw.s 			page 36


 354:funsape/peripheral/twi.cpp **** 
 355:funsape/peripheral/twi.cpp **** // NONE
 356:funsape/peripheral/twi.cpp **** 
 357:funsape/peripheral/twi.cpp **** // =============================================================================
 358:funsape/peripheral/twi.cpp **** // Interrupt callback functions
 359:funsape/peripheral/twi.cpp **** // =============================================================================
 360:funsape/peripheral/twi.cpp **** 
 361:funsape/peripheral/twi.cpp **** void Twi::interruptHandler(void)
 362:funsape/peripheral/twi.cpp **** {
 363:funsape/peripheral/twi.cpp ****     static uint8_t twiBufferPointer;
 364:funsape/peripheral/twi.cpp **** 
 365:funsape/peripheral/twi.cpp ****     State twiState = (Twi::State)(TWSR & 0xFC);
 366:funsape/peripheral/twi.cpp **** 
 367:funsape/peripheral/twi.cpp ****     switch(twiState) {
 368:funsape/peripheral/twi.cpp ****     case Twi::State::START:             // START has been transmitted
 369:funsape/peripheral/twi.cpp ****     case Twi::State::REP_START:         // Repeated START has been transmitted
 370:funsape/peripheral/twi.cpp ****         twiBufferPointer = 0;   // Set buffer pointer to the TWI Address location
 371:funsape/peripheral/twi.cpp ****     case Twi::State::MTX_ADR_ACK:       // SLA+W has been transmitted and ACK received
 372:funsape/peripheral/twi.cpp ****     case Twi::State::MTX_DATA_ACK:      // Data byte has been transmitted and ACK received
 373:funsape/peripheral/twi.cpp ****         if(twiBufferPointer < this->_bufferLength) {
 374:funsape/peripheral/twi.cpp ****             TWDR = this->_bufferData[twiBufferPointer++];
 375:funsape/peripheral/twi.cpp ****             TWCR = (1 << TWEN) | (1 << TWIE) | (1 << TWINT);
 376:funsape/peripheral/twi.cpp ****         } else {            // Send STOP after last byte
 377:funsape/peripheral/twi.cpp ****             this->_lastTransOk = true;  // Set status bits to completed successfully
 378:funsape/peripheral/twi.cpp ****             TWCR = (1 << TWEN) | (1 << TWINT) | (1 << TWSTO);
 379:funsape/peripheral/twi.cpp ****         }
 380:funsape/peripheral/twi.cpp ****         break;
 381:funsape/peripheral/twi.cpp ****     case Twi::State::MRX_DATA_ACK:      // Data byte has been received and ACK transmitted
 382:funsape/peripheral/twi.cpp ****         this->_bufferData[twiBufferPointer++] = TWDR;
 383:funsape/peripheral/twi.cpp ****     case Twi::State::MRX_ADR_ACK:       // SLA+R has been transmitted and ACK received
 384:funsape/peripheral/twi.cpp ****         if(twiBufferPointer < (this->_bufferLength - 1)) {  // Detect the last byte to NACK it
 385:funsape/peripheral/twi.cpp ****             TWCR = (1 << TWEN) | (1 << TWIE) | (1 << TWINT) | (1 << TWEA);
 386:funsape/peripheral/twi.cpp ****         } else {                // Send NACK after next reception
 387:funsape/peripheral/twi.cpp ****             TWCR = (1 << TWEN) | (1 << TWIE) | (1 << TWINT);
 388:funsape/peripheral/twi.cpp ****         }
 389:funsape/peripheral/twi.cpp ****         break;
 390:funsape/peripheral/twi.cpp ****     case Twi::State::MRX_DATA_NACK:     // Data byte has been received and NACK transmitted
 391:funsape/peripheral/twi.cpp ****         this->_bufferData[twiBufferPointer] = TWDR;
 392:funsape/peripheral/twi.cpp ****         this->_lastTransOk = true;  // Set status bits to completed successfully
 393:funsape/peripheral/twi.cpp ****         TWCR = (1 << TWEN) | (1 << TWINT) | (1 << TWSTO);
 394:funsape/peripheral/twi.cpp ****         break;
 395:funsape/peripheral/twi.cpp ****     case Twi::State::ARB_LOST:          // Arbitration lost
 396:funsape/peripheral/twi.cpp ****         TWCR = (1 << TWEN) | (1 << TWIE) | (1 << TWINT) | (1 << TWSTA);
 397:funsape/peripheral/twi.cpp ****         break;
 398:funsape/peripheral/twi.cpp ****     case Twi::State::MTX_ADR_NACK:      // SLA+W has been transmitted and NACK received
 399:funsape/peripheral/twi.cpp ****     case Twi::State::MRX_ADR_NACK:      // SLA+R has been transmitted and NACK received
 400:funsape/peripheral/twi.cpp ****     case Twi::State::MTX_DATA_NACK:     // Data byte has been transmitted and NACK received
 401:funsape/peripheral/twi.cpp ****     case Twi::State::BUS_ERROR:         // Bus error due to an illegal START or STOP condition
 402:funsape/peripheral/twi.cpp ****     default:
 403:funsape/peripheral/twi.cpp ****         this->_twiError = TWSR;        // Store TWSR and automatically sets clears noErrors bit
 404:funsape/peripheral/twi.cpp ****         TWCR = (1 << TWEN);     // Reset TWI Interface
 405:funsape/peripheral/twi.cpp ****         break;
 406:funsape/peripheral/twi.cpp ****     }
 407:funsape/peripheral/twi.cpp **** }
 408:funsape/peripheral/twi.cpp **** 
 409:funsape/peripheral/twi.cpp **** // =============================================================================
 410:funsape/peripheral/twi.cpp **** // Interrupt handlers
GAS LISTING C:\Users\kenne\AppData\Local\Temp\cc6xNdAw.s 			page 37


 411:funsape/peripheral/twi.cpp **** // =============================================================================
 412:funsape/peripheral/twi.cpp **** 
 413:funsape/peripheral/twi.cpp **** ISR(TWI_vect)
 414:funsape/peripheral/twi.cpp **** {
 415:funsape/peripheral/twi.cpp ****     twi.interruptHandler();
 416:funsape/peripheral/twi.cpp **** }
 525               		.loc 2 416 1 is_stmt 1 view -0
 526               		.cfi_startproc
 527               		.loc 2 416 1 is_stmt 0 view .LVU128
 528 0000 0F93      		push r16
 529               		.cfi_def_cfa_offset 3
 530               		.cfi_offset 16, -2
 531 0002 1F93      		push r17
 532               		.cfi_def_cfa_offset 4
 533               		.cfi_offset 17, -3
 534 0004 CF93      		push r28
 535               		.cfi_def_cfa_offset 5
 536               		.cfi_offset 28, -4
 537 0006 DF93      		push r29
 538               		.cfi_def_cfa_offset 6
 539               		.cfi_offset 29, -5
 540               	/* prologue: function */
 541               	/* frame size = 0 */
 542               	/* stack size = 4 */
 543               	.L__stack_usage = 4
 544 0008 C82F      		mov r28,r24
 545 000a D92F      		mov r29,r25
 546 000c 062F      		mov r16,r22
 547 000e 172F      		mov r17,r23
 548               		.loc 2 416 1 view .LVU129
 549 0010 C130      		cpi r28,1
 550 0012 D105      		cpc r29,__zero_reg__
 551 0014 01F0      		breq .L18
 552               	.LVL32:
 553               	.L16:
  45:funsape/peripheral/twi.cpp **** 
 554               		.loc 2 45 5 view .LVU130
 555 0016 CD2B      		or r28,r29
 556 0018 01F4      		brne .L15
  45:funsape/peripheral/twi.cpp **** 
 557               		.loc 2 45 5 discriminator 1 view .LVU131
 558 001a 0F3F      		cpi r16,-1
 559 001c 1F4F      		sbci r17,-1
 560 001e 01F0      		breq .L19
 561               	.L15:
 562               	/* epilogue start */
 563               		.loc 2 416 1 view .LVU132
 564 0020 DF91      		pop r29
 565 0022 CF91      		pop r28
 566 0024 1F91      		pop r17
 567 0026 0F91      		pop r16
 568 0028 0895      		ret
 569               	.LVL33:
 570               	.L18:
 571               		.loc 2 416 1 discriminator 1 view .LVU133
 572 002a 0F3F      		cpi r16,-1
 573 002c 1007      		cpc r17,r16
GAS LISTING C:\Users\kenne\AppData\Local\Temp\cc6xNdAw.s 			page 38


 574               	.LVL34:
 575               		.loc 2 416 1 discriminator 1 view .LVU134
 576 002e 01F4      		brne .L16
  45:funsape/peripheral/twi.cpp **** 
 577               		.loc 2 45 5 view .LVU135
 578 0030 80E0      		ldi r24,lo8(twi)
 579 0032 90E0      		ldi r25,hi8(twi)
 580 0034 0E94 0000 		call _ZN3TwiC1Ev
 581               	.LVL35:
  45:funsape/peripheral/twi.cpp **** 
 582               		.loc 2 45 5 view .LVU136
 583 0038 00C0      		rjmp .L16
 584               	.L19:
  45:funsape/peripheral/twi.cpp **** 
 585               		.loc 2 45 5 discriminator 2 view .LVU137
 586 003a 80E0      		ldi r24,lo8(twi)
 587 003c 90E0      		ldi r25,hi8(twi)
 588 003e 0E94 0000 		call _ZN3TwiD1Ev
 589               	.LVL36:
 590               		.loc 2 416 1 discriminator 2 view .LVU138
 591 0042 00C0      		rjmp .L15
 592               		.cfi_endproc
 593               	.LFE65:
 595               		.section	.text._ZN3Twi4initEmh,"ax",@progbits
 596               	.global	_ZN3Twi4initEmh
 598               	_ZN3Twi4initEmh:
 599               	.LVL37:
 600               	.LFB57:
 201:funsape/peripheral/twi.cpp ****     // Local variables
 601               		.loc 2 201 1 is_stmt 1 view -0
 602               		.cfi_startproc
 201:funsape/peripheral/twi.cpp ****     // Local variables
 603               		.loc 2 201 1 is_stmt 0 view .LVU140
 604 0000 CF92      		push r12
 605               		.cfi_def_cfa_offset 3
 606               		.cfi_offset 12, -2
 607 0002 DF92      		push r13
 608               		.cfi_def_cfa_offset 4
 609               		.cfi_offset 13, -3
 610 0004 EF92      		push r14
 611               		.cfi_def_cfa_offset 5
 612               		.cfi_offset 14, -4
 613 0006 FF92      		push r15
 614               		.cfi_def_cfa_offset 6
 615               		.cfi_offset 15, -5
 616 0008 1F93      		push r17
 617               		.cfi_def_cfa_offset 7
 618               		.cfi_offset 17, -6
 619 000a CF93      		push r28
 620               		.cfi_def_cfa_offset 8
 621               		.cfi_offset 28, -7
 622 000c DF93      		push r29
 623               		.cfi_def_cfa_offset 9
 624               		.cfi_offset 29, -8
 625 000e 00D0      		rcall .
 626 0010 00D0      		rcall .
 627 0012 00D0      		rcall .
GAS LISTING C:\Users\kenne\AppData\Local\Temp\cc6xNdAw.s 			page 39


 628               		.cfi_def_cfa_offset 15
 629 0014 CDB7      		in r28,__SP_L__
 630 0016 DEB7      		in r29,__SP_H__
 631               		.cfi_def_cfa_register 28
 632               	/* prologue: function */
 633               	/* frame size = 6 */
 634               	/* stack size = 13 */
 635               	.L__stack_usage = 13
 636 0018 8D83      		std Y+5,r24
 637 001a 9E83      		std Y+6,r25
 638 001c C42E      		mov r12,r20
 639 001e D52E      		mov r13,r21
 640 0020 E62E      		mov r14,r22
 641 0022 F72E      		mov r15,r23
 642 0024 122F      		mov r17,r18
 203:funsape/peripheral/twi.cpp ****     uint16_t aux16 = 0;
 643               		.loc 2 203 5 is_stmt 1 view .LVU141
 644               	.LVL38:
 204:funsape/peripheral/twi.cpp ****     uint8_t aux8 = 0;
 645               		.loc 2 204 5 view .LVU142
 205:funsape/peripheral/twi.cpp **** 
 646               		.loc 2 205 5 view .LVU143
 208:funsape/peripheral/twi.cpp ****     TWCR = 0x00;
 647               		.loc 2 208 5 view .LVU144
 648 0026 ECEB      		ldi r30,lo8(-68)
 649 0028 F0E0      		ldi r31,0
 650 002a 8081      		ld r24,Z
 651               	.LVL39:
 208:funsape/peripheral/twi.cpp ****     TWCR = 0x00;
 652               		.loc 2 208 5 is_stmt 0 view .LVU145
 653 002c 8B7F      		andi r24,lo8(-5)
 654 002e 8083      		st Z,r24
 209:funsape/peripheral/twi.cpp ****     TWSR = 0x00;
 655               		.loc 2 209 5 is_stmt 1 view .LVU146
 209:funsape/peripheral/twi.cpp ****     TWSR = 0x00;
 656               		.loc 2 209 10 is_stmt 0 view .LVU147
 657 0030 1082      		st Z,__zero_reg__
 210:funsape/peripheral/twi.cpp ****     TWBR = 0;
 658               		.loc 2 210 5 is_stmt 1 view .LVU148
 210:funsape/peripheral/twi.cpp ****     TWBR = 0;
 659               		.loc 2 210 10 is_stmt 0 view .LVU149
 660 0032 1092 B900 		sts 185,__zero_reg__
 211:funsape/peripheral/twi.cpp ****     TWAR = 0;
 661               		.loc 2 211 5 is_stmt 1 view .LVU150
 211:funsape/peripheral/twi.cpp ****     TWAR = 0;
 662               		.loc 2 211 10 is_stmt 0 view .LVU151
 663 0036 1092 B800 		sts 184,__zero_reg__
 212:funsape/peripheral/twi.cpp ****     TWAMR = 0;
 664               		.loc 2 212 5 is_stmt 1 view .LVU152
 212:funsape/peripheral/twi.cpp ****     TWAMR = 0;
 665               		.loc 2 212 10 is_stmt 0 view .LVU153
 666 003a 1092 BA00 		sts 186,__zero_reg__
 213:funsape/peripheral/twi.cpp **** 
 667               		.loc 2 213 5 is_stmt 1 view .LVU154
 213:funsape/peripheral/twi.cpp **** 
 668               		.loc 2 213 11 is_stmt 0 view .LVU155
 669 003e 1092 BD00 		sts 189,__zero_reg__
GAS LISTING C:\Users\kenne\AppData\Local\Temp\cc6xNdAw.s 			page 40


 216:funsape/peripheral/twi.cpp ****         this->_lastError = Error::CLOCK_SPEED_TOO_LOW;
 670               		.loc 2 216 5 is_stmt 1 view .LVU156
 671 0042 48EE      		ldi r20,-24
 672 0044 C416      		cp r12,r20
 673 0046 43E0      		ldi r20,3
 674 0048 D406      		cpc r13,r20
 675 004a E104      		cpc r14,__zero_reg__
 676 004c F104      		cpc r15,__zero_reg__
 677               	.LVL40:
 216:funsape/peripheral/twi.cpp ****         this->_lastError = Error::CLOCK_SPEED_TOO_LOW;
 678               		.loc 2 216 5 is_stmt 0 view .LVU157
 679 004e 00F4      		brsh .+2
 680 0050 00C0      		rjmp .L33
 219:funsape/peripheral/twi.cpp ****         this->_lastError = Error::CLOCK_SPEED_TOO_HIGH;
 681               		.loc 2 219 12 is_stmt 1 view .LVU158
 682 0052 F1E8      		ldi r31,-127
 683 0054 CF16      		cp r12,r31
 684 0056 FAE1      		ldi r31,26
 685 0058 DF06      		cpc r13,r31
 686 005a F6E0      		ldi r31,6
 687 005c EF06      		cpc r14,r31
 688 005e F104      		cpc r15,__zero_reg__
 689 0060 00F0      		brlo .+2
 690 0062 00C0      		rjmp .L34
 224:funsape/peripheral/twi.cpp ****         this->_lastError = Error::BUFFER_SIZE_TOO_SMALL;
 691               		.loc 2 224 5 view .LVU159
 692 0064 2A30      		cpi r18,lo8(10)
 693 0066 00F4      		brsh .+2
 694 0068 00C0      		rjmp .L35
 227:funsape/peripheral/twi.cpp ****         this->_lastError = Error::BUFFER_SIZE_TOO_LARGE;
 695               		.loc 2 227 12 view .LVU160
 696 006a 2536      		cpi r18,lo8(101)
 697 006c 00F0      		brlo .+2
 698 006e 00C0      		rjmp .L36
 233:funsape/peripheral/twi.cpp ****         free(this->_bufferData);
 699               		.loc 2 233 5 view .LVU161
 233:funsape/peripheral/twi.cpp ****         free(this->_bufferData);
 700               		.loc 2 233 14 is_stmt 0 view .LVU162
 701 0070 ED81      		ldd r30,Y+5
 702 0072 FE81      		ldd r31,Y+6
 703 0074 8189      		ldd r24,Z+17
 704 0076 9289      		ldd r25,Z+18
 233:funsape/peripheral/twi.cpp ****         free(this->_bufferData);
 705               		.loc 2 233 5 view .LVU163
 706 0078 0097      		sbiw r24,0
 707 007a 01F0      		breq .L26
 234:funsape/peripheral/twi.cpp ****         this->_bufferData = nullptr;
 708               		.loc 2 234 9 is_stmt 1 view .LVU164
 234:funsape/peripheral/twi.cpp ****         this->_bufferData = nullptr;
 709               		.loc 2 234 13 is_stmt 0 view .LVU165
 710 007c 0E94 0000 		call free
 711               	.LVL41:
 235:funsape/peripheral/twi.cpp ****     }
 712               		.loc 2 235 9 is_stmt 1 view .LVU166
 235:funsape/peripheral/twi.cpp ****     }
 713               		.loc 2 235 27 is_stmt 0 view .LVU167
 714 0080 ED81      		ldd r30,Y+5
GAS LISTING C:\Users\kenne\AppData\Local\Temp\cc6xNdAw.s 			page 41


 715 0082 FE81      		ldd r31,Y+6
 716 0084 128A      		std Z+18,__zero_reg__
 717 0086 118A      		std Z+17,__zero_reg__
 718               	.L26:
 237:funsape/peripheral/twi.cpp ****     if(this->_bufferData == nullptr) {
 719               		.loc 2 237 5 is_stmt 1 view .LVU168
 237:funsape/peripheral/twi.cpp ****     if(this->_bufferData == nullptr) {
 720               		.loc 2 237 44 is_stmt 0 view .LVU169
 721 0088 812F      		mov r24,r17
 722 008a 90E0      		ldi r25,0
 237:funsape/peripheral/twi.cpp ****     if(this->_bufferData == nullptr) {
 723               		.loc 2 237 42 view .LVU170
 724 008c 61E0      		ldi r22,lo8(1)
 725 008e 70E0      		ldi r23,0
 726 0090 0296      		adiw r24,2
 727 0092 0E94 0000 		call calloc
 728               	.LVL42:
 729 0096 282F      		mov r18,r24
 730 0098 392F      		mov r19,r25
 237:funsape/peripheral/twi.cpp ****     if(this->_bufferData == nullptr) {
 731               		.loc 2 237 23 view .LVU171
 732 009a ED81      		ldd r30,Y+5
 733 009c FE81      		ldd r31,Y+6
 734 009e 328B      		std Z+18,r19
 735 00a0 218B      		std Z+17,r18
 238:funsape/peripheral/twi.cpp ****         this->_lastError = Error::MEMORY_ALLOCATION;
 736               		.loc 2 238 5 is_stmt 1 view .LVU172
 737 00a2 232B      		or r18,r19
 738 00a4 01F4      		brne .+2
 739 00a6 00C0      		rjmp .L37
 242:funsape/peripheral/twi.cpp ****     this->_bufferIndex = 0;
 740               		.loc 2 242 5 view .LVU173
 242:funsape/peripheral/twi.cpp ****     this->_bufferIndex = 0;
 741               		.loc 2 242 41 is_stmt 0 view .LVU174
 742 00a8 1E5F      		subi r17,lo8(-(2))
 743               	.LVL43:
 242:funsape/peripheral/twi.cpp ****     this->_bufferIndex = 0;
 744               		.loc 2 242 26 view .LVU175
 745 00aa 812F      		mov r24,r17
 746 00ac 8295      		swap r24
 747 00ae 880F      		lsl r24
 748 00b0 880F      		lsl r24
 749 00b2 807C      		andi r24,lo8(-64)
 750 00b4 ED81      		ldd r30,Y+5
 751 00b6 FE81      		ldd r31,Y+6
 752 00b8 9485      		ldd r25,Z+12
 753 00ba 9F73      		andi r25,lo8(63)
 754 00bc 892B      		or r24,r25
 755 00be 8487      		std Z+12,r24
 756 00c0 1695      		lsr r17
 757 00c2 1695      		lsr r17
 758               	.LVL44:
 242:funsape/peripheral/twi.cpp ****     this->_bufferIndex = 0;
 759               		.loc 2 242 26 view .LVU176
 760 00c4 1F71      		andi r17,lo8(31)
 761 00c6 9585      		ldd r25,Z+13
 762 00c8 907E      		andi r25,lo8(-32)
GAS LISTING C:\Users\kenne\AppData\Local\Temp\cc6xNdAw.s 			page 42


 763 00ca 912B      		or r25,r17
 764 00cc 9587      		std Z+13,r25
 243:funsape/peripheral/twi.cpp ****     this->_bufferLength = 0;
 765               		.loc 2 243 5 is_stmt 1 view .LVU177
 243:funsape/peripheral/twi.cpp ****     this->_bufferLength = 0;
 766               		.loc 2 243 24 is_stmt 0 view .LVU178
 767 00ce 9385      		ldd r25,Z+11
 768 00d0 9078      		andi r25,lo8(-128)
 769 00d2 9387      		std Z+11,r25
 244:funsape/peripheral/twi.cpp **** 
 770               		.loc 2 244 5 is_stmt 1 view .LVU179
 244:funsape/peripheral/twi.cpp **** 
 771               		.loc 2 244 25 is_stmt 0 view .LVU180
 772 00d4 1386      		std Z+11,__zero_reg__
 773 00d6 807C      		andi r24,lo8(-64)
 774 00d8 8487      		std Z+12,r24
 247:funsape/peripheral/twi.cpp ****     aux32 /= clockSpeed_p;
 775               		.loc 2 247 5 is_stmt 1 view .LVU181
 247:funsape/peripheral/twi.cpp ****     aux32 /= clockSpeed_p;
 776               		.loc 2 247 37 is_stmt 0 view .LVU182
 777 00da 80E0      		ldi r24,lo8(systemStatus)
 778 00dc 90E0      		ldi r25,hi8(systemStatus)
 779 00de 0E94 0000 		call _ZN12SystemStatus11getCpuClockEv
 780               	.LVL45:
 781 00e2 6983      		std Y+1,r22
 782 00e4 7A83      		std Y+2,r23
 783 00e6 8B83      		std Y+3,r24
 784 00e8 9C83      		std Y+4,r25
 785               	.LVL46:
 248:funsape/peripheral/twi.cpp ****     aux16 = (uint16_t)aux32;
 786               		.loc 2 248 5 is_stmt 1 view .LVU183
 248:funsape/peripheral/twi.cpp ****     aux16 = (uint16_t)aux32;
 787               		.loc 2 248 11 is_stmt 0 view .LVU184
 788 00ea A701      		movw r20,r14
 789 00ec 9601      		movw r18,r12
 790 00ee 0E94 0000 		call __udivmodsi4
 791               	.LVL47:
 249:funsape/peripheral/twi.cpp ****     aux16 -= 16;
 792               		.loc 2 249 5 is_stmt 1 view .LVU185
 250:funsape/peripheral/twi.cpp ****     aux16 /= 2;
 793               		.loc 2 250 5 view .LVU186
 250:funsape/peripheral/twi.cpp ****     aux16 /= 2;
 794               		.loc 2 250 11 is_stmt 0 view .LVU187
 795 00f2 2051      		subi r18,16
 796 00f4 3109      		sbc r19,__zero_reg__
 797               	.LVL48:
 251:funsape/peripheral/twi.cpp ****     if(aux16 <= 255) {                      // Prescaler 1
 798               		.loc 2 251 5 is_stmt 1 view .LVU188
 251:funsape/peripheral/twi.cpp ****     if(aux16 <= 255) {                      // Prescaler 1
 799               		.loc 2 251 11 is_stmt 0 view .LVU189
 800 00f6 C901      		movw r24,r18
 801 00f8 9695      		lsr r25
 802 00fa 8795      		ror r24
 803               	.LVL49:
 252:funsape/peripheral/twi.cpp ****         aux8 = (uint8_t)aux16;
 804               		.loc 2 252 5 is_stmt 1 view .LVU190
 805 00fc 2115      		cp r18,__zero_reg__
GAS LISTING C:\Users\kenne\AppData\Local\Temp\cc6xNdAw.s 			page 43


 806 00fe F2E0      		ldi r31,2
 807 0100 3F07      		cpc r19,r31
 808 0102 00F0      		brlo .L29
 254:funsape/peripheral/twi.cpp ****         aux8 = (uint8_t)(aux16 / 4);
 809               		.loc 2 254 12 view .LVU191
 810 0104 2A3F      		cpi r18,-6
 811 0106 47E0      		ldi r20,7
 812 0108 3407      		cpc r19,r20
 813 010a 00F0      		brlo .+2
 814 010c 00C0      		rjmp .L30
 255:funsape/peripheral/twi.cpp ****         TWSR |= (1 << TWPS0);
 815               		.loc 2 255 9 view .LVU192
 255:funsape/peripheral/twi.cpp ****         TWSR |= (1 << TWPS0);
 816               		.loc 2 255 32 is_stmt 0 view .LVU193
 817 010e C901      		movw r24,r18
 818               	.LVL50:
 255:funsape/peripheral/twi.cpp ****         TWSR |= (1 << TWPS0);
 819               		.loc 2 255 32 view .LVU194
 820 0110 9695      		lsr r25
 821 0112 8795      		ror r24
 822 0114 9695      		lsr r25
 823 0116 8795      		ror r24
 824 0118 9695      		lsr r25
 825 011a 8795      		ror r24
 826               	.LVL51:
 256:funsape/peripheral/twi.cpp ****     } else if(aux16 <= 4080) {              // Prescaler 16
 827               		.loc 2 256 9 is_stmt 1 view .LVU195
 828 011c E9EB      		ldi r30,lo8(-71)
 829 011e F0E0      		ldi r31,0
 830 0120 9081      		ld r25,Z
 256:funsape/peripheral/twi.cpp ****     } else if(aux16 <= 4080) {              // Prescaler 16
 831               		.loc 2 256 14 is_stmt 0 view .LVU196
 832 0122 9160      		ori r25,lo8(1)
 833 0124 9083      		st Z,r25
 834               	.LVL52:
 835               	.L29:
 266:funsape/peripheral/twi.cpp ****     TWDR = 0xFF;                       // Release SDA
 836               		.loc 2 266 5 is_stmt 1 view .LVU197
 266:funsape/peripheral/twi.cpp ****     TWDR = 0xFF;                       // Release SDA
 837               		.loc 2 266 10 is_stmt 0 view .LVU198
 838 0126 8093 B800 		sts 184,r24
 267:funsape/peripheral/twi.cpp ****     setBit(TWCR, TWEN);  // Activate TWI interface
 839               		.loc 2 267 5 is_stmt 1 view .LVU199
 267:funsape/peripheral/twi.cpp ****     setBit(TWCR, TWEN);  // Activate TWI interface
 840               		.loc 2 267 10 is_stmt 0 view .LVU200
 841 012a 8FEF      		ldi r24,lo8(-1)
 842               	.LVL53:
 267:funsape/peripheral/twi.cpp ****     setBit(TWCR, TWEN);  // Activate TWI interface
 843               		.loc 2 267 10 view .LVU201
 844 012c 8093 BB00 		sts 187,r24
 845               	.LVL54:
 268:funsape/peripheral/twi.cpp **** 
 846               		.loc 2 268 5 is_stmt 1 view .LVU202
 847 0130 ECEB      		ldi r30,lo8(-68)
 848 0132 F0E0      		ldi r31,0
 849 0134 8081      		ld r24,Z
 850 0136 8460      		ori r24,lo8(4)
GAS LISTING C:\Users\kenne\AppData\Local\Temp\cc6xNdAw.s 			page 44


 851 0138 8083      		st Z,r24
 270:funsape/peripheral/twi.cpp ****     this->_lastError = Error::NONE;
 852               		.loc 2 270 5 view .LVU203
 270:funsape/peripheral/twi.cpp ****     this->_lastError = Error::NONE;
 853               		.loc 2 270 24 is_stmt 0 view .LVU204
 854 013a ED81      		ldd r30,Y+5
 855 013c FE81      		ldd r31,Y+6
 856 013e 8481      		ldd r24,Z+4
 857 0140 8260      		ori r24,lo8(1<<1)
 858 0142 8483      		std Z+4,r24
 271:funsape/peripheral/twi.cpp ****     return true;
 859               		.loc 2 271 5 is_stmt 1 view .LVU205
 271:funsape/peripheral/twi.cpp ****     return true;
 860               		.loc 2 271 22 is_stmt 0 view .LVU206
 861 0144 1086      		std Z+8,__zero_reg__
 862 0146 1782      		std Z+7,__zero_reg__
 272:funsape/peripheral/twi.cpp **** }
 863               		.loc 2 272 5 is_stmt 1 view .LVU207
 272:funsape/peripheral/twi.cpp **** }
 864               		.loc 2 272 12 is_stmt 0 view .LVU208
 865 0148 81E0      		ldi r24,lo8(1)
 866 014a 00C0      		rjmp .L20
 867               	.LVL55:
 868               	.L33:
 217:funsape/peripheral/twi.cpp ****         return false;
 869               		.loc 2 217 9 is_stmt 1 view .LVU209
 217:funsape/peripheral/twi.cpp ****         return false;
 870               		.loc 2 217 26 is_stmt 0 view .LVU210
 871 014c 83E3      		ldi r24,lo8(51)
 872 014e 90E0      		ldi r25,0
 873 0150 ED81      		ldd r30,Y+5
 874 0152 FE81      		ldd r31,Y+6
 875 0154 9087      		std Z+8,r25
 876 0156 8783      		std Z+7,r24
 218:funsape/peripheral/twi.cpp ****     } else if(clockSpeed_p > TWI_MAX_BIT_RATE) {
 877               		.loc 2 218 9 is_stmt 1 view .LVU211
 218:funsape/peripheral/twi.cpp ****     } else if(clockSpeed_p > TWI_MAX_BIT_RATE) {
 878               		.loc 2 218 16 is_stmt 0 view .LVU212
 879 0158 80E0      		ldi r24,0
 880               	.LVL56:
 881               	.L20:
 882               	/* epilogue start */
 273:funsape/peripheral/twi.cpp **** 
 883               		.loc 2 273 1 view .LVU213
 884 015a 0F90      		pop __tmp_reg__
 885 015c 0F90      		pop __tmp_reg__
 886 015e 0F90      		pop __tmp_reg__
 887 0160 0F90      		pop __tmp_reg__
 888 0162 0F90      		pop __tmp_reg__
 889 0164 0F90      		pop __tmp_reg__
 890 0166 DF91      		pop r29
 891 0168 CF91      		pop r28
 892 016a 1F91      		pop r17
 893 016c FF90      		pop r15
 894 016e EF90      		pop r14
 895 0170 DF90      		pop r13
 896 0172 CF90      		pop r12
GAS LISTING C:\Users\kenne\AppData\Local\Temp\cc6xNdAw.s 			page 45


 897 0174 0895      		ret
 898               	.LVL57:
 899               	.L34:
 220:funsape/peripheral/twi.cpp ****         return false;
 900               		.loc 2 220 9 is_stmt 1 view .LVU214
 220:funsape/peripheral/twi.cpp ****         return false;
 901               		.loc 2 220 26 is_stmt 0 view .LVU215
 902 0176 82E3      		ldi r24,lo8(50)
 903 0178 90E0      		ldi r25,0
 904 017a ED81      		ldd r30,Y+5
 905 017c FE81      		ldd r31,Y+6
 906 017e 9087      		std Z+8,r25
 907 0180 8783      		std Z+7,r24
 221:funsape/peripheral/twi.cpp ****     }
 908               		.loc 2 221 9 is_stmt 1 view .LVU216
 221:funsape/peripheral/twi.cpp ****     }
 909               		.loc 2 221 16 is_stmt 0 view .LVU217
 910 0182 80E0      		ldi r24,0
 911 0184 00C0      		rjmp .L20
 912               	.L35:
 225:funsape/peripheral/twi.cpp ****         return false;
 913               		.loc 2 225 9 is_stmt 1 view .LVU218
 225:funsape/peripheral/twi.cpp ****         return false;
 914               		.loc 2 225 26 is_stmt 0 view .LVU219
 915 0186 86E2      		ldi r24,lo8(38)
 916 0188 90E0      		ldi r25,0
 917 018a ED81      		ldd r30,Y+5
 918 018c FE81      		ldd r31,Y+6
 919 018e 9087      		std Z+8,r25
 920 0190 8783      		std Z+7,r24
 226:funsape/peripheral/twi.cpp ****     } else if(bufferSize_p > TWI_MAX_BUFFER_SIZE) {
 921               		.loc 2 226 9 is_stmt 1 view .LVU220
 226:funsape/peripheral/twi.cpp ****     } else if(bufferSize_p > TWI_MAX_BUFFER_SIZE) {
 922               		.loc 2 226 16 is_stmt 0 view .LVU221
 923 0192 80E0      		ldi r24,0
 924 0194 00C0      		rjmp .L20
 925               	.L36:
 228:funsape/peripheral/twi.cpp ****         return false;
 926               		.loc 2 228 9 is_stmt 1 view .LVU222
 228:funsape/peripheral/twi.cpp ****         return false;
 927               		.loc 2 228 26 is_stmt 0 view .LVU223
 928 0196 85E2      		ldi r24,lo8(37)
 929 0198 90E0      		ldi r25,0
 930 019a ED81      		ldd r30,Y+5
 931 019c FE81      		ldd r31,Y+6
 932 019e 9087      		std Z+8,r25
 933 01a0 8783      		std Z+7,r24
 229:funsape/peripheral/twi.cpp ****     }
 934               		.loc 2 229 9 is_stmt 1 view .LVU224
 229:funsape/peripheral/twi.cpp ****     }
 935               		.loc 2 229 16 is_stmt 0 view .LVU225
 936 01a2 80E0      		ldi r24,0
 937 01a4 00C0      		rjmp .L20
 938               	.L37:
 239:funsape/peripheral/twi.cpp ****         return false;
 939               		.loc 2 239 9 is_stmt 1 view .LVU226
 239:funsape/peripheral/twi.cpp ****         return false;
GAS LISTING C:\Users\kenne\AppData\Local\Temp\cc6xNdAw.s 			page 46


 940               		.loc 2 239 26 is_stmt 0 view .LVU227
 941 01a6 8BE0      		ldi r24,lo8(11)
 942 01a8 90E0      		ldi r25,0
 943 01aa 9087      		std Z+8,r25
 944 01ac 8783      		std Z+7,r24
 240:funsape/peripheral/twi.cpp ****     }
 945               		.loc 2 240 9 is_stmt 1 view .LVU228
 240:funsape/peripheral/twi.cpp ****     }
 946               		.loc 2 240 16 is_stmt 0 view .LVU229
 947 01ae 80E0      		ldi r24,0
 948 01b0 00C0      		rjmp .L20
 949               	.LVL58:
 950               	.L30:
 257:funsape/peripheral/twi.cpp ****         aux8 = (uint8_t)(aux16 / 16);
 951               		.loc 2 257 12 is_stmt 1 view .LVU230
 952 01b2 223E      		cpi r18,-30
 953 01b4 8FE1      		ldi r24,31
 954 01b6 3807      		cpc r19,r24
 955               	.LVL59:
 257:funsape/peripheral/twi.cpp ****         aux8 = (uint8_t)(aux16 / 16);
 956               		.loc 2 257 12 is_stmt 0 view .LVU231
 957 01b8 00F4      		brsh .L31
 258:funsape/peripheral/twi.cpp ****         TWSR |= (2 << TWPS0);
 958               		.loc 2 258 9 is_stmt 1 view .LVU232
 258:funsape/peripheral/twi.cpp ****         TWSR |= (2 << TWPS0);
 959               		.loc 2 258 32 is_stmt 0 view .LVU233
 960 01ba C901      		movw r24,r18
 961 01bc 9695      		lsr r25
 962 01be 8795      		ror r24
 963 01c0 9295      		swap r25
 964 01c2 8295      		swap r24
 965 01c4 8F70      		andi r24,0x0f
 966 01c6 8927      		eor r24,r25
 967 01c8 9F70      		andi r25,0x0f
 968 01ca 8927      		eor r24,r25
 969               	.LVL60:
 259:funsape/peripheral/twi.cpp ****     } else if(aux16 <= 16320) {         // Prescaler 64
 970               		.loc 2 259 9 is_stmt 1 view .LVU234
 971 01cc E9EB      		ldi r30,lo8(-71)
 972 01ce F0E0      		ldi r31,0
 973 01d0 9081      		ld r25,Z
 259:funsape/peripheral/twi.cpp ****     } else if(aux16 <= 16320) {         // Prescaler 64
 974               		.loc 2 259 14 is_stmt 0 view .LVU235
 975 01d2 9260      		ori r25,lo8(2)
 976 01d4 9083      		st Z,r25
 977 01d6 00C0      		rjmp .L29
 978               	.LVL61:
 979               	.L31:
 260:funsape/peripheral/twi.cpp ****         aux8 = (uint8_t)(aux16 / 64);
 980               		.loc 2 260 12 is_stmt 1 view .LVU236
 981 01d8 2238      		cpi r18,-126
 982 01da EFE7      		ldi r30,127
 983 01dc 3E07      		cpc r19,r30
 984 01de 00F4      		brsh .L32
 261:funsape/peripheral/twi.cpp ****         TWSR |= (3 << TWPS0);
 985               		.loc 2 261 9 view .LVU237
 261:funsape/peripheral/twi.cpp ****         TWSR |= (3 << TWPS0);
GAS LISTING C:\Users\kenne\AppData\Local\Temp\cc6xNdAw.s 			page 47


 986               		.loc 2 261 32 is_stmt 0 view .LVU238
 987 01e0 C901      		movw r24,r18
 988 01e2 880F      		lsl r24
 989 01e4 892F      		mov r24,r25
 990 01e6 881F      		rol r24
 991 01e8 990B      		sbc r25,r25
 992 01ea 9195      		neg r25
 993               	.LVL62:
 262:funsape/peripheral/twi.cpp ****     }
 994               		.loc 2 262 9 is_stmt 1 view .LVU239
 995 01ec E9EB      		ldi r30,lo8(-71)
 996 01ee F0E0      		ldi r31,0
 997 01f0 9081      		ld r25,Z
 262:funsape/peripheral/twi.cpp ****     }
 998               		.loc 2 262 14 is_stmt 0 view .LVU240
 999 01f2 9360      		ori r25,lo8(3)
 1000 01f4 9083      		st Z,r25
 1001 01f6 00C0      		rjmp .L29
 1002               	.LVL63:
 1003               	.L32:
 205:funsape/peripheral/twi.cpp **** 
 1004               		.loc 2 205 13 view .LVU241
 1005 01f8 80E0      		ldi r24,0
 1006 01fa 00C0      		rjmp .L29
 1007               		.cfi_endproc
 1008               	.LFE57:
 1010               		.section	.text._ZN3Twi10setTimeoutEj,"ax",@progbits
 1011               	.global	_ZN3Twi10setTimeoutEj
 1013               	_ZN3Twi10setTimeoutEj:
 1014               	.LVL64:
 1015               	.LFB58:
 276:funsape/peripheral/twi.cpp ****     this->_timeout = timeout_p;
 1016               		.loc 2 276 1 is_stmt 1 view -0
 1017               		.cfi_startproc
 1018               	/* prologue: function */
 1019               	/* frame size = 0 */
 1020               	/* stack size = 0 */
 1021               	.L__stack_usage = 0
 276:funsape/peripheral/twi.cpp ****     this->_timeout = timeout_p;
 1022               		.loc 2 276 1 is_stmt 0 view .LVU243
 1023 0000 E82F      		mov r30,r24
 1024 0002 F92F      		mov r31,r25
 277:funsape/peripheral/twi.cpp ****     this->_lastError = Error::NONE;
 1025               		.loc 2 277 5 is_stmt 1 view .LVU244
 277:funsape/peripheral/twi.cpp ****     this->_lastError = Error::NONE;
 1026               		.loc 2 277 20 is_stmt 0 view .LVU245
 1027 0004 708B      		std Z+16,r23
 1028 0006 6787      		std Z+15,r22
 278:funsape/peripheral/twi.cpp ****     return true;
 1029               		.loc 2 278 5 is_stmt 1 view .LVU246
 278:funsape/peripheral/twi.cpp ****     return true;
 1030               		.loc 2 278 22 is_stmt 0 view .LVU247
 1031 0008 1086      		std Z+8,__zero_reg__
 1032 000a 1782      		std Z+7,__zero_reg__
 279:funsape/peripheral/twi.cpp **** }
 1033               		.loc 2 279 5 is_stmt 1 view .LVU248
 280:funsape/peripheral/twi.cpp **** 
GAS LISTING C:\Users\kenne\AppData\Local\Temp\cc6xNdAw.s 			page 48


 1034               		.loc 2 280 1 is_stmt 0 view .LVU249
 1035 000c 81E0      		ldi r24,lo8(1)
 1036               	.LVL65:
 1037               	/* epilogue start */
 280:funsape/peripheral/twi.cpp **** 
 1038               		.loc 2 280 1 view .LVU250
 1039 000e 0895      		ret
 1040               		.cfi_endproc
 1041               	.LFE58:
 1043               		.section	.text._ZN3Twi16_waitWhileIsBusyEv,"ax",@progbits
 1044               	.global	_ZN3Twi16_waitWhileIsBusyEv
 1046               	_ZN3Twi16_waitWhileIsBusyEv:
 1047               	.LVL66:
 1048               	.LFB60:
 293:funsape/peripheral/twi.cpp ****     // Local variables
 1049               		.loc 2 293 1 is_stmt 1 view -0
 1050               		.cfi_startproc
 293:funsape/peripheral/twi.cpp ****     // Local variables
 1051               		.loc 2 293 1 is_stmt 0 view .LVU252
 1052 0000 CF92      		push r12
 1053               		.cfi_def_cfa_offset 3
 1054               		.cfi_offset 12, -2
 1055 0002 DF92      		push r13
 1056               		.cfi_def_cfa_offset 4
 1057               		.cfi_offset 13, -3
 1058 0004 EF92      		push r14
 1059               		.cfi_def_cfa_offset 5
 1060               		.cfi_offset 14, -4
 1061 0006 FF92      		push r15
 1062               		.cfi_def_cfa_offset 6
 1063               		.cfi_offset 15, -5
 1064 0008 CF93      		push r28
 1065               		.cfi_def_cfa_offset 7
 1066               		.cfi_offset 28, -6
 1067 000a DF93      		push r29
 1068               		.cfi_def_cfa_offset 8
 1069               		.cfi_offset 29, -7
 1070 000c 00D0      		rcall .
 1071 000e 00D0      		rcall .
 1072 0010 00D0      		rcall .
 1073               		.cfi_def_cfa_offset 14
 1074 0012 CDB7      		in r28,__SP_L__
 1075 0014 DEB7      		in r29,__SP_H__
 1076               		.cfi_def_cfa_register 28
 1077               	/* prologue: function */
 1078               	/* frame size = 6 */
 1079               	/* stack size = 12 */
 1080               	.L__stack_usage = 12
 1081 0016 8D83      		std Y+5,r24
 1082 0018 9E83      		std Y+6,r25
 295:funsape/peripheral/twi.cpp ****     uint32_t stopwatchDeadline;
 1083               		.loc 2 295 5 is_stmt 1 view .LVU253
 296:funsape/peripheral/twi.cpp **** 
 1084               		.loc 2 296 5 view .LVU254
 299:funsape/peripheral/twi.cpp ****         stopwatchDeadline = 0xFFFFFFFF;
 1085               		.loc 2 299 5 view .LVU255
 299:funsape/peripheral/twi.cpp ****         stopwatchDeadline = 0xFFFFFFFF;
GAS LISTING C:\Users\kenne\AppData\Local\Temp\cc6xNdAw.s 			page 49


 1086               		.loc 2 299 14 is_stmt 0 view .LVU256
 1087 001a AD81      		ldd r26,Y+5
 1088 001c BE81      		ldd r27,Y+6
 1089 001e 1F96      		adiw r26,15
 1090 0020 8D91      		ld r24,X+
 1091 0022 9C91      		ld r25,X
 1092               	.LVL67:
 299:funsape/peripheral/twi.cpp ****         stopwatchDeadline = 0xFFFFFFFF;
 1093               		.loc 2 299 5 view .LVU257
 1094 0024 892B      		or r24,r25
 1095 0026 01F4      		brne .L45
 300:funsape/peripheral/twi.cpp ****     } else {
 1096               		.loc 2 300 27 view .LVU258
 1097 0028 CC24      		clr r12
 1098 002a CA94      		dec r12
 1099 002c DC2C      		mov r13,r12
 1100 002e 7601      		movw r14,r12
 1101               	.L43:
 1102               	.LVL68:
 306:funsape/peripheral/twi.cpp ****         stopwatchMark = systemStatus.readStopwatch();
 1103               		.loc 2 306 5 is_stmt 1 view .LVU259
 307:funsape/peripheral/twi.cpp ****         if(stopwatchMark > stopwatchDeadline) {
 1104               		.loc 2 307 9 view .LVU260
 307:funsape/peripheral/twi.cpp ****         if(stopwatchMark > stopwatchDeadline) {
 1105               		.loc 2 307 51 is_stmt 0 view .LVU261
 1106 0030 80E0      		ldi r24,lo8(systemStatus)
 1107 0032 90E0      		ldi r25,hi8(systemStatus)
 1108 0034 0E94 0000 		call _ZN12SystemStatus13readStopwatchEv
 1109               	.LVL69:
 1110 0038 6983      		std Y+1,r22
 1111 003a 7A83      		std Y+2,r23
 1112 003c 8B83      		std Y+3,r24
 1113 003e 9C83      		std Y+4,r25
 1114               	.LVL70:
 308:funsape/peripheral/twi.cpp ****             this->_lastError = Error::COMMUNICATION_TIMEOUT;
 1115               		.loc 2 308 9 is_stmt 1 view .LVU262
 1116 0040 C616      		cp r12,r22
 1117 0042 D706      		cpc r13,r23
 1118 0044 E806      		cpc r14,r24
 1119 0046 F906      		cpc r15,r25
 1120 0048 00F0      		brlo .L46
 312:funsape/peripheral/twi.cpp **** 
 1121               		.loc 2 312 13 view .LVU263
 1122 004a 8091 BC00 		lds r24,188
 1123 004e 80FD      		sbrc r24,0
 1124 0050 00C0      		rjmp .L43
 314:funsape/peripheral/twi.cpp ****     return true;
 1125               		.loc 2 314 5 view .LVU264
 314:funsape/peripheral/twi.cpp ****     return true;
 1126               		.loc 2 314 22 is_stmt 0 view .LVU265
 1127 0052 ED81      		ldd r30,Y+5
 1128 0054 FE81      		ldd r31,Y+6
 1129 0056 1086      		std Z+8,__zero_reg__
 1130 0058 1782      		std Z+7,__zero_reg__
 315:funsape/peripheral/twi.cpp **** }
 1131               		.loc 2 315 5 is_stmt 1 view .LVU266
 315:funsape/peripheral/twi.cpp **** }
GAS LISTING C:\Users\kenne\AppData\Local\Temp\cc6xNdAw.s 			page 50


 1132               		.loc 2 315 12 is_stmt 0 view .LVU267
 1133 005a 81E0      		ldi r24,lo8(1)
 1134 005c 00C0      		rjmp .L39
 1135               	.LVL71:
 1136               	.L45:
 302:funsape/peripheral/twi.cpp ****     }
 1137               		.loc 2 302 9 is_stmt 1 view .LVU268
 302:funsape/peripheral/twi.cpp ****     }
 1138               		.loc 2 302 55 is_stmt 0 view .LVU269
 1139 005e 80E0      		ldi r24,lo8(systemStatus)
 1140 0060 90E0      		ldi r25,hi8(systemStatus)
 1141 0062 0E94 0000 		call _ZN12SystemStatus13readStopwatchEv
 1142               	.LVL72:
 1143 0066 6983      		std Y+1,r22
 1144 0068 7A83      		std Y+2,r23
 1145 006a 8B83      		std Y+3,r24
 1146 006c 9C83      		std Y+4,r25
 302:funsape/peripheral/twi.cpp ****     }
 1147               		.loc 2 302 66 view .LVU270
 1148 006e ED81      		ldd r30,Y+5
 1149 0070 FE81      		ldd r31,Y+6
 1150 0072 8785      		ldd r24,Z+15
 1151 0074 9089      		ldd r25,Z+16
 302:funsape/peripheral/twi.cpp ****     }
 1152               		.loc 2 302 27 view .LVU271
 1153 0076 C980      		ldd r12,Y+1
 1154 0078 DA80      		ldd r13,Y+2
 1155 007a EB80      		ldd r14,Y+3
 1156 007c FC80      		ldd r15,Y+4
 1157 007e C80E      		add r12,r24
 1158 0080 D91E      		adc r13,r25
 1159 0082 E11C      		adc r14,__zero_reg__
 1160 0084 F11C      		adc r15,__zero_reg__
 1161               	.LVL73:
 302:funsape/peripheral/twi.cpp ****     }
 1162               		.loc 2 302 27 view .LVU272
 1163 0086 00C0      		rjmp .L43
 1164               	.LVL74:
 1165               	.L46:
 309:funsape/peripheral/twi.cpp ****             return false;
 1166               		.loc 2 309 13 is_stmt 1 view .LVU273
 309:funsape/peripheral/twi.cpp ****             return false;
 1167               		.loc 2 309 30 is_stmt 0 view .LVU274
 1168 0088 83E4      		ldi r24,lo8(67)
 1169 008a 90E0      		ldi r25,0
 1170 008c AD81      		ldd r26,Y+5
 1171 008e BE81      		ldd r27,Y+6
 1172 0090 1896      		adiw r26,7+1
 1173 0092 9C93      		st X,r25
 1174 0094 8E93      		st -X,r24
 1175 0096 1797      		sbiw r26,7
 310:funsape/peripheral/twi.cpp ****         }
 1176               		.loc 2 310 13 is_stmt 1 view .LVU275
 310:funsape/peripheral/twi.cpp ****         }
 1177               		.loc 2 310 20 is_stmt 0 view .LVU276
 1178 0098 80E0      		ldi r24,0
 1179               	.L39:
GAS LISTING C:\Users\kenne\AppData\Local\Temp\cc6xNdAw.s 			page 51


 1180               	/* epilogue start */
 316:funsape/peripheral/twi.cpp **** 
 1181               		.loc 2 316 1 view .LVU277
 1182 009a 0F90      		pop __tmp_reg__
 1183 009c 0F90      		pop __tmp_reg__
 1184 009e 0F90      		pop __tmp_reg__
 1185 00a0 0F90      		pop __tmp_reg__
 1186 00a2 0F90      		pop __tmp_reg__
 1187 00a4 0F90      		pop __tmp_reg__
 1188 00a6 DF91      		pop r29
 1189 00a8 CF91      		pop r28
 1190 00aa FF90      		pop r15
 1191 00ac EF90      		pop r14
 1192 00ae DF90      		pop r13
 1193 00b0 CF90      		pop r12
 1194               	.LVL75:
 316:funsape/peripheral/twi.cpp **** 
 1195               		.loc 2 316 1 view .LVU278
 1196 00b2 0895      		ret
 1197               		.cfi_endproc
 1198               	.LFE60:
 1200               		.section	.text._ZN3Twi17_startTrasmissionEv,"ax",@progbits
 1201               	.global	_ZN3Twi17_startTrasmissionEv
 1203               	_ZN3Twi17_startTrasmissionEv:
 1204               	.LVL76:
 1205               	.LFB61:
 319:funsape/peripheral/twi.cpp ****     this->_lastTransOk = false;
 1206               		.loc 2 319 1 is_stmt 1 view -0
 1207               		.cfi_startproc
 1208               	/* prologue: function */
 1209               	/* frame size = 0 */
 1210               	/* stack size = 0 */
 1211               	.L__stack_usage = 0
 319:funsape/peripheral/twi.cpp ****     this->_lastTransOk = false;
 1212               		.loc 2 319 1 is_stmt 0 view .LVU280
 1213 0000 E82F      		mov r30,r24
 1214 0002 F92F      		mov r31,r25
 320:funsape/peripheral/twi.cpp ****     this->_state = State::NO_STATE;
 1215               		.loc 2 320 5 is_stmt 1 view .LVU281
 320:funsape/peripheral/twi.cpp ****     this->_state = State::NO_STATE;
 1216               		.loc 2 320 24 is_stmt 0 view .LVU282
 1217 0004 8481      		ldd r24,Z+4
 1218               	.LVL77:
 320:funsape/peripheral/twi.cpp ****     this->_state = State::NO_STATE;
 1219               		.loc 2 320 24 view .LVU283
 1220 0006 8B7F      		andi r24,lo8(~(1<<2))
 1221 0008 8483      		std Z+4,r24
 321:funsape/peripheral/twi.cpp ****     TWCR = (1 << TWEN) |
 1222               		.loc 2 321 5 is_stmt 1 view .LVU284
 321:funsape/peripheral/twi.cpp ****     TWCR = (1 << TWEN) |
 1223               		.loc 2 321 18 is_stmt 0 view .LVU285
 1224 000a 88EF      		ldi r24,lo8(-8)
 1225 000c 90E0      		ldi r25,0
 1226 000e 9287      		std Z+10,r25
 1227 0010 8187      		std Z+9,r24
 322:funsape/peripheral/twi.cpp ****             (1 << TWIE) |
 1228               		.loc 2 322 5 is_stmt 1 view .LVU286
GAS LISTING C:\Users\kenne\AppData\Local\Temp\cc6xNdAw.s 			page 52


 322:funsape/peripheral/twi.cpp ****             (1 << TWIE) |
 1229               		.loc 2 322 10 is_stmt 0 view .LVU287
 1230 0012 85EA      		ldi r24,lo8(-91)
 1231 0014 8093 BC00 		sts 188,r24
 327:funsape/peripheral/twi.cpp ****     return true;
 1232               		.loc 2 327 5 is_stmt 1 view .LVU288
 327:funsape/peripheral/twi.cpp ****     return true;
 1233               		.loc 2 327 22 is_stmt 0 view .LVU289
 1234 0018 1086      		std Z+8,__zero_reg__
 1235 001a 1782      		std Z+7,__zero_reg__
 328:funsape/peripheral/twi.cpp **** }
 1236               		.loc 2 328 5 is_stmt 1 view .LVU290
 329:funsape/peripheral/twi.cpp **** 
 1237               		.loc 2 329 1 is_stmt 0 view .LVU291
 1238 001c 81E0      		ldi r24,lo8(1)
 1239               	/* epilogue start */
 1240 001e 0895      		ret
 1241               		.cfi_endproc
 1242               	.LFE61:
 1244               		.section	.text._ZN3Twi15_readFromBufferEPhh,"ax",@progbits
 1245               	.global	_ZN3Twi15_readFromBufferEPhh
 1247               	_ZN3Twi15_readFromBufferEPhh:
 1248               	.LVL78:
 1249               	.LFB62:
 332:funsape/peripheral/twi.cpp ****     // Check for errors
 1250               		.loc 2 332 1 is_stmt 1 view -0
 1251               		.cfi_startproc
 332:funsape/peripheral/twi.cpp ****     // Check for errors
 1252               		.loc 2 332 1 is_stmt 0 view .LVU293
 1253 0000 0F93      		push r16
 1254               		.cfi_def_cfa_offset 3
 1255               		.cfi_offset 16, -2
 1256 0002 1F93      		push r17
 1257               		.cfi_def_cfa_offset 4
 1258               		.cfi_offset 17, -3
 1259 0004 CF93      		push r28
 1260               		.cfi_def_cfa_offset 5
 1261               		.cfi_offset 28, -4
 1262 0006 DF93      		push r29
 1263               		.cfi_def_cfa_offset 6
 1264               		.cfi_offset 29, -5
 1265               	/* prologue: function */
 1266               	/* frame size = 0 */
 1267               	/* stack size = 4 */
 1268               	.L__stack_usage = 4
 1269 0008 C82F      		mov r28,r24
 1270 000a D92F      		mov r29,r25
 1271 000c 062F      		mov r16,r22
 1272 000e 172F      		mov r17,r23
 334:funsape/peripheral/twi.cpp ****         this->_lastError = Error::COMMUNICATION_FAILED;
 1273               		.loc 2 334 5 is_stmt 1 view .LVU294
 334:funsape/peripheral/twi.cpp ****         this->_lastError = Error::COMMUNICATION_FAILED;
 1274               		.loc 2 334 15 is_stmt 0 view .LVU295
 1275 0010 8C81      		ldd r24,Y+4
 1276               	.LVL79:
 334:funsape/peripheral/twi.cpp ****         this->_lastError = Error::COMMUNICATION_FAILED;
 1277               		.loc 2 334 15 view .LVU296
GAS LISTING C:\Users\kenne\AppData\Local\Temp\cc6xNdAw.s 			page 53


 1278 0012 82FB      		bst r24,2
 1279 0014 8827      		clr r24
 1280 0016 80F9      		bld r24,0
 334:funsape/peripheral/twi.cpp ****         this->_lastError = Error::COMMUNICATION_FAILED;
 1281               		.loc 2 334 5 view .LVU297
 1282 0018 8823      		tst r24
 1283 001a 01F0      		breq .L53
 1284               	.LBB10:
 338:funsape/peripheral/twi.cpp ****         msg_p[i] = this->_bufferData[i + 1];
 1285               		.loc 2 338 17 view .LVU298
 1286 001c 90E0      		ldi r25,0
 1287 001e 00C0      		rjmp .L49
 1288               	.L53:
 1289               	.LBE10:
 335:funsape/peripheral/twi.cpp ****         return false;
 1290               		.loc 2 335 9 is_stmt 1 view .LVU299
 335:funsape/peripheral/twi.cpp ****         return false;
 1291               		.loc 2 335 26 is_stmt 0 view .LVU300
 1292 0020 20E4      		ldi r18,lo8(64)
 1293 0022 30E0      		ldi r19,0
 1294 0024 3887      		std Y+8,r19
 1295 0026 2F83      		std Y+7,r18
 336:funsape/peripheral/twi.cpp ****     }
 1296               		.loc 2 336 9 is_stmt 1 view .LVU301
 336:funsape/peripheral/twi.cpp ****     }
 1297               		.loc 2 336 16 is_stmt 0 view .LVU302
 1298 0028 00C0      		rjmp .L48
 1299               	.LVL80:
 1300               	.L51:
 1301               	.LBB11:
 339:funsape/peripheral/twi.cpp ****     }
 1302               		.loc 2 339 9 is_stmt 1 discriminator 3 view .LVU303
 339:funsape/peripheral/twi.cpp ****     }
 1303               		.loc 2 339 26 is_stmt 0 discriminator 3 view .LVU304
 1304 002a E989      		ldd r30,Y+17
 1305 002c FA89      		ldd r31,Y+18
 339:funsape/peripheral/twi.cpp ****     }
 1306               		.loc 2 339 38 discriminator 3 view .LVU305
 1307 002e 292F      		mov r18,r25
 1308 0030 30E0      		ldi r19,0
 339:funsape/peripheral/twi.cpp ****     }
 1309               		.loc 2 339 16 discriminator 3 view .LVU306
 1310 0032 D801      		movw r26,r16
 1311 0034 A20F      		add r26,r18
 1312 0036 B31F      		adc r27,r19
 339:funsape/peripheral/twi.cpp ****     }
 1313               		.loc 2 339 43 discriminator 3 view .LVU307
 1314 0038 E20F      		add r30,r18
 1315 003a F31F      		adc r31,r19
 1316 003c 2181      		ldd r18,Z+1
 339:funsape/peripheral/twi.cpp ****     }
 1317               		.loc 2 339 18 discriminator 3 view .LVU308
 1318 003e 2C93      		st X,r18
 338:funsape/peripheral/twi.cpp ****         msg_p[i] = this->_bufferData[i + 1];
 1319               		.loc 2 338 5 is_stmt 1 discriminator 3 view .LVU309
 1320 0040 9F5F      		subi r25,lo8(-(1))
 1321               	.LVL81:
GAS LISTING C:\Users\kenne\AppData\Local\Temp\cc6xNdAw.s 			page 54


 1322               	.L49:
 338:funsape/peripheral/twi.cpp ****         msg_p[i] = this->_bufferData[i + 1];
 1323               		.loc 2 338 26 discriminator 1 view .LVU310
 1324 0042 9417      		cp r25,r20
 1325 0044 00F0      		brlo .L51
 1326               	.LBE11:
 341:funsape/peripheral/twi.cpp ****     return true;
 1327               		.loc 2 341 5 view .LVU311
 341:funsape/peripheral/twi.cpp ****     return true;
 1328               		.loc 2 341 22 is_stmt 0 view .LVU312
 1329 0046 1886      		std Y+8,__zero_reg__
 1330 0048 1F82      		std Y+7,__zero_reg__
 342:funsape/peripheral/twi.cpp **** }
 1331               		.loc 2 342 5 is_stmt 1 view .LVU313
 1332               	.LVL82:
 1333               	.L48:
 1334               	/* epilogue start */
 343:funsape/peripheral/twi.cpp **** 
 1335               		.loc 2 343 1 is_stmt 0 view .LVU314
 1336 004a DF91      		pop r29
 1337 004c CF91      		pop r28
 1338 004e 1F91      		pop r17
 1339 0050 0F91      		pop r16
 1340 0052 0895      		ret
 1341               		.cfi_endproc
 1342               	.LFE62:
 1344               		.section	.text._ZN3Twi8sendDataEhNS_9OperationEhPhh,"ax",@progbits
 1345               	.global	_ZN3Twi8sendDataEhNS_9OperationEhPhh
 1347               	_ZN3Twi8sendDataEhNS_9OperationEhPhh:
 1348               	.LVL83:
 1349               	.LFB55:
 138:funsape/peripheral/twi.cpp ****     // Check for errors - NOT Initialized
 1350               		.loc 2 138 1 is_stmt 1 view -0
 1351               		.cfi_startproc
 138:funsape/peripheral/twi.cpp ****     // Check for errors - NOT Initialized
 1352               		.loc 2 138 1 is_stmt 0 view .LVU316
 1353 0000 AF92      		push r10
 1354               		.cfi_def_cfa_offset 3
 1355               		.cfi_offset 10, -2
 1356 0002 BF92      		push r11
 1357               		.cfi_def_cfa_offset 4
 1358               		.cfi_offset 11, -3
 1359 0004 CF92      		push r12
 1360               		.cfi_def_cfa_offset 5
 1361               		.cfi_offset 12, -4
 1362 0006 DF92      		push r13
 1363               		.cfi_def_cfa_offset 6
 1364               		.cfi_offset 13, -5
 1365 0008 EF92      		push r14
 1366               		.cfi_def_cfa_offset 7
 1367               		.cfi_offset 14, -6
 1368 000a FF92      		push r15
 1369               		.cfi_def_cfa_offset 8
 1370               		.cfi_offset 15, -7
 1371 000c 0F93      		push r16
 1372               		.cfi_def_cfa_offset 9
 1373               		.cfi_offset 16, -8
GAS LISTING C:\Users\kenne\AppData\Local\Temp\cc6xNdAw.s 			page 55


 1374 000e 1F93      		push r17
 1375               		.cfi_def_cfa_offset 10
 1376               		.cfi_offset 17, -9
 1377 0010 CF93      		push r28
 1378               		.cfi_def_cfa_offset 11
 1379               		.cfi_offset 28, -10
 1380 0012 DF93      		push r29
 1381               		.cfi_def_cfa_offset 12
 1382               		.cfi_offset 29, -11
 1383               	/* prologue: function */
 1384               	/* frame size = 0 */
 1385               	/* stack size = 10 */
 1386               	.L__stack_usage = 10
 1387 0014 C82F      		mov r28,r24
 1388 0016 D92F      		mov r29,r25
 1389 0018 A62E      		mov r10,r22
 1390 001a F42E      		mov r15,r20
 1391 001c B22E      		mov r11,r18
 1392 001e C02E      		mov r12,r16
 1393 0020 D12E      		mov r13,r17
 140:funsape/peripheral/twi.cpp ****         this->_lastError = Error::NOT_INITIALIZED;
 1394               		.loc 2 140 5 is_stmt 1 view .LVU317
 140:funsape/peripheral/twi.cpp ****         this->_lastError = Error::NOT_INITIALIZED;
 1395               		.loc 2 140 15 is_stmt 0 view .LVU318
 1396 0022 1C81      		ldd r17,Y+4
 1397 0024 1695      		lsr r17
 1398 0026 1170      		andi r17,1
 140:funsape/peripheral/twi.cpp ****         this->_lastError = Error::NOT_INITIALIZED;
 1399               		.loc 2 140 5 view .LVU319
 1400 0028 1123      		tst r17
 1401 002a 01F0      		breq .L65
 145:funsape/peripheral/twi.cpp ****         this->_lastError = Error::ARGUMENT_POINTER_NULL;
 1402               		.loc 2 145 5 is_stmt 1 view .LVU320
 1403 002c EE20      		tst r14
 1404 002e 01F0      		breq .L57
 145:funsape/peripheral/twi.cpp ****         this->_lastError = Error::ARGUMENT_POINTER_NULL;
 1405               		.loc 2 145 24 is_stmt 0 discriminator 1 view .LVU321
 1406 0030 C114      		cp r12,__zero_reg__
 1407 0032 D104      		cpc r13,__zero_reg__
 1408 0034 01F0      		breq .L66
 1409               	.L57:
 151:funsape/peripheral/twi.cpp ****         return false;
 1410               		.loc 2 151 5 is_stmt 1 view .LVU322
 151:funsape/peripheral/twi.cpp ****         return false;
 1411               		.loc 2 151 31 is_stmt 0 view .LVU323
 1412 0036 CE01      		movw r24,r28
 1413               	.LVL84:
 151:funsape/peripheral/twi.cpp ****         return false;
 1414               		.loc 2 151 31 view .LVU324
 1415 0038 0E94 0000 		call _ZN3Twi16_waitWhileIsBusyEv
 1416               	.LVL85:
 151:funsape/peripheral/twi.cpp ****         return false;
 1417               		.loc 2 151 31 view .LVU325
 1418 003c 182F      		mov r17,r24
 151:funsape/peripheral/twi.cpp ****         return false;
 1419               		.loc 2 151 5 view .LVU326
 1420 003e 8823      		tst r24
GAS LISTING C:\Users\kenne\AppData\Local\Temp\cc6xNdAw.s 			page 56


 1421 0040 01F0      		breq .L54
 156:funsape/peripheral/twi.cpp ****         this->_bufferData[0] = (devAddress_p << 1) | (uint8_t)(Operation::WRITE);
 1422               		.loc 2 156 5 is_stmt 1 view .LVU327
 1423               	.LBB12:
 1424 0042 F110      		cpse r15,__zero_reg__
 1425 0044 00C0      		rjmp .L58
 1426               	.LBB13:
 157:funsape/peripheral/twi.cpp ****         this->_bufferData[1] = reg_p;
 1427               		.loc 2 157 9 view .LVU328
 157:funsape/peripheral/twi.cpp ****         this->_bufferData[1] = reg_p;
 1428               		.loc 2 157 15 is_stmt 0 view .LVU329
 1429 0046 E989      		ldd r30,Y+17
 1430 0048 FA89      		ldd r31,Y+18
 157:funsape/peripheral/twi.cpp ****         this->_bufferData[1] = reg_p;
 1431               		.loc 2 157 46 view .LVU330
 1432 004a 6A2D      		mov r22,r10
 1433 004c 660F      		lsl r22
 157:funsape/peripheral/twi.cpp ****         this->_bufferData[1] = reg_p;
 1434               		.loc 2 157 30 view .LVU331
 1435 004e 6083      		st Z,r22
 158:funsape/peripheral/twi.cpp ****         for(uint8_t i = 0; i < msgSize_p; i++) {
 1436               		.loc 2 158 9 is_stmt 1 view .LVU332
 158:funsape/peripheral/twi.cpp ****         for(uint8_t i = 0; i < msgSize_p; i++) {
 1437               		.loc 2 158 15 is_stmt 0 view .LVU333
 1438 0050 E989      		ldd r30,Y+17
 1439 0052 FA89      		ldd r31,Y+18
 158:funsape/peripheral/twi.cpp ****         for(uint8_t i = 0; i < msgSize_p; i++) {
 1440               		.loc 2 158 30 view .LVU334
 1441 0054 B182      		std Z+1,r11
 159:funsape/peripheral/twi.cpp ****             this->_bufferData[i + 2] = msg_p[i];
 1442               		.loc 2 159 9 is_stmt 1 view .LVU335
 1443               	.LVL86:
 1444               	.LBB14:
 159:funsape/peripheral/twi.cpp ****             this->_bufferData[i + 2] = msg_p[i];
 1445               		.loc 2 159 21 is_stmt 0 view .LVU336
 1446 0056 90E0      		ldi r25,0
 159:funsape/peripheral/twi.cpp ****             this->_bufferData[i + 2] = msg_p[i];
 1447               		.loc 2 159 9 view .LVU337
 1448 0058 00C0      		rjmp .L59
 1449               	.LVL87:
 1450               	.L65:
 159:funsape/peripheral/twi.cpp ****             this->_bufferData[i + 2] = msg_p[i];
 1451               		.loc 2 159 9 view .LVU338
 1452               	.LBE14:
 1453               	.LBE13:
 1454               	.LBE12:
 141:funsape/peripheral/twi.cpp ****         return false;
 1455               		.loc 2 141 9 is_stmt 1 view .LVU339
 141:funsape/peripheral/twi.cpp ****         return false;
 1456               		.loc 2 141 26 is_stmt 0 view .LVU340
 1457 005a 84E0      		ldi r24,lo8(4)
 1458 005c 90E0      		ldi r25,0
 1459               	.LVL88:
 141:funsape/peripheral/twi.cpp ****         return false;
 1460               		.loc 2 141 26 view .LVU341
 1461 005e 9887      		std Y+8,r25
 1462 0060 8F83      		std Y+7,r24
GAS LISTING C:\Users\kenne\AppData\Local\Temp\cc6xNdAw.s 			page 57


 142:funsape/peripheral/twi.cpp ****     }
 1463               		.loc 2 142 9 is_stmt 1 view .LVU342
 1464               	.LVL89:
 1465               	.L54:
 188:funsape/peripheral/twi.cpp **** 
 1466               		.loc 2 188 1 is_stmt 0 view .LVU343
 1467 0062 812F      		mov r24,r17
 1468               	/* epilogue start */
 1469 0064 DF91      		pop r29
 1470 0066 CF91      		pop r28
 1471 0068 1F91      		pop r17
 1472 006a 0F91      		pop r16
 1473               	.LVL90:
 188:funsape/peripheral/twi.cpp **** 
 1474               		.loc 2 188 1 view .LVU344
 1475 006c FF90      		pop r15
 1476               	.LVL91:
 188:funsape/peripheral/twi.cpp **** 
 1477               		.loc 2 188 1 view .LVU345
 1478 006e EF90      		pop r14
 1479 0070 DF90      		pop r13
 1480 0072 CF90      		pop r12
 1481 0074 BF90      		pop r11
 1482               	.LVL92:
 188:funsape/peripheral/twi.cpp **** 
 1483               		.loc 2 188 1 view .LVU346
 1484 0076 AF90      		pop r10
 1485               	.LVL93:
 188:funsape/peripheral/twi.cpp **** 
 1486               		.loc 2 188 1 view .LVU347
 1487 0078 0895      		ret
 1488               	.LVL94:
 1489               	.L66:
 146:funsape/peripheral/twi.cpp ****         return false;
 1490               		.loc 2 146 9 is_stmt 1 view .LVU348
 146:funsape/peripheral/twi.cpp ****         return false;
 1491               		.loc 2 146 26 is_stmt 0 view .LVU349
 1492 007a 81E1      		ldi r24,lo8(17)
 1493 007c 90E0      		ldi r25,0
 1494               	.LVL95:
 146:funsape/peripheral/twi.cpp ****         return false;
 1495               		.loc 2 146 26 view .LVU350
 1496 007e 9887      		std Y+8,r25
 1497 0080 8F83      		std Y+7,r24
 147:funsape/peripheral/twi.cpp ****     }
 1498               		.loc 2 147 9 is_stmt 1 view .LVU351
 147:funsape/peripheral/twi.cpp ****     }
 1499               		.loc 2 147 16 is_stmt 0 view .LVU352
 1500 0082 10E0      		ldi r17,0
 1501 0084 00C0      		rjmp .L54
 1502               	.LVL96:
 1503               	.L60:
 1504               	.LBB17:
 1505               	.LBB16:
 1506               	.LBB15:
 160:funsape/peripheral/twi.cpp ****         }
 1507               		.loc 2 160 13 is_stmt 1 discriminator 3 view .LVU353
GAS LISTING C:\Users\kenne\AppData\Local\Temp\cc6xNdAw.s 			page 58


 160:funsape/peripheral/twi.cpp ****         }
 1508               		.loc 2 160 46 is_stmt 0 discriminator 3 view .LVU354
 1509 0086 292F      		mov r18,r25
 1510 0088 30E0      		ldi r19,0
 160:funsape/peripheral/twi.cpp ****         }
 1511               		.loc 2 160 19 discriminator 3 view .LVU355
 1512 008a E989      		ldd r30,Y+17
 1513 008c FA89      		ldd r31,Y+18
 160:funsape/peripheral/twi.cpp ****         }
 1514               		.loc 2 160 36 discriminator 3 view .LVU356
 1515 008e A901      		movw r20,r18
 1516 0090 4E5F      		subi r20,-2
 1517 0092 5F4F      		sbci r21,-1
 1518 0094 E40F      		add r30,r20
 1519 0096 F51F      		adc r31,r21
 160:funsape/peripheral/twi.cpp ****         }
 1520               		.loc 2 160 47 discriminator 3 view .LVU357
 1521 0098 2C0D      		add r18,r12
 1522 009a 3D1D      		adc r19,r13
 1523 009c D901      		movw r26,r18
 1524 009e 8C91      		ld r24,X
 160:funsape/peripheral/twi.cpp ****         }
 1525               		.loc 2 160 38 discriminator 3 view .LVU358
 1526 00a0 8083      		st Z,r24
 159:funsape/peripheral/twi.cpp ****             this->_bufferData[i + 2] = msg_p[i];
 1527               		.loc 2 159 9 is_stmt 1 discriminator 3 view .LVU359
 1528 00a2 9F5F      		subi r25,lo8(-(1))
 1529               	.LVL97:
 1530               	.L59:
 159:funsape/peripheral/twi.cpp ****             this->_bufferData[i + 2] = msg_p[i];
 1531               		.loc 2 159 30 discriminator 1 view .LVU360
 1532 00a4 9E15      		cp r25,r14
 1533 00a6 00F0      		brlo .L60
 1534               	.LBE15:
 162:funsape/peripheral/twi.cpp ****         this->_startTrasmission();
 1535               		.loc 2 162 9 view .LVU361
 162:funsape/peripheral/twi.cpp ****         this->_startTrasmission();
 1536               		.loc 2 162 41 is_stmt 0 view .LVU362
 1537 00a8 92E0      		ldi r25,lo8(2)
 1538               	.LVL98:
 162:funsape/peripheral/twi.cpp ****         this->_startTrasmission();
 1539               		.loc 2 162 41 view .LVU363
 1540 00aa 9E0D      		add r25,r14
 162:funsape/peripheral/twi.cpp ****         this->_startTrasmission();
 1541               		.loc 2 162 29 view .LVU364
 1542 00ac E794      		ror r14
 1543 00ae EE24      		clr r14
 1544 00b0 E794      		ror r14
 1545               	.LVL99:
 162:funsape/peripheral/twi.cpp ****         this->_startTrasmission();
 1546               		.loc 2 162 29 view .LVU365
 1547 00b2 8B85      		ldd r24,Y+11
 1548 00b4 8F77      		andi r24,lo8(127)
 1549 00b6 E82A      		or r14,r24
 1550 00b8 EB86      		std Y+11,r14
 1551 00ba 9695      		lsr r25
 1552 00bc 9F73      		andi r25,lo8(63)
GAS LISTING C:\Users\kenne\AppData\Local\Temp\cc6xNdAw.s 			page 59


 1553 00be 8C85      		ldd r24,Y+12
 1554 00c0 807C      		andi r24,lo8(-64)
 1555 00c2 892B      		or r24,r25
 1556 00c4 8C87      		std Y+12,r24
 163:funsape/peripheral/twi.cpp ****     } else {                            // Read operation
 1557               		.loc 2 163 9 is_stmt 1 view .LVU366
 163:funsape/peripheral/twi.cpp ****     } else {                            // Read operation
 1558               		.loc 2 163 32 is_stmt 0 view .LVU367
 1559 00c6 CE01      		movw r24,r28
 1560 00c8 0E94 0000 		call _ZN3Twi17_startTrasmissionEv
 1561               	.LVL100:
 1562               	.L61:
 163:funsape/peripheral/twi.cpp ****     } else {                            // Read operation
 1563               		.loc 2 163 32 view .LVU368
 1564               	.LBE16:
 1565               	.LBE17:
 186:funsape/peripheral/twi.cpp ****     return true;
 1566               		.loc 2 186 5 is_stmt 1 view .LVU369
 186:funsape/peripheral/twi.cpp ****     return true;
 1567               		.loc 2 186 22 is_stmt 0 view .LVU370
 1568 00cc 1886      		std Y+8,__zero_reg__
 1569 00ce 1F82      		std Y+7,__zero_reg__
 187:funsape/peripheral/twi.cpp **** }
 1570               		.loc 2 187 5 is_stmt 1 view .LVU371
 187:funsape/peripheral/twi.cpp **** }
 1571               		.loc 2 187 12 is_stmt 0 view .LVU372
 1572 00d0 00C0      		rjmp .L54
 1573               	.LVL101:
 1574               	.L58:
 1575               	.LBB18:
 166:funsape/peripheral/twi.cpp ****         this->_bufferData[1] = reg_p;
 1576               		.loc 2 166 9 is_stmt 1 view .LVU373
 166:funsape/peripheral/twi.cpp ****         this->_bufferData[1] = reg_p;
 1577               		.loc 2 166 15 is_stmt 0 view .LVU374
 1578 00d2 E989      		ldd r30,Y+17
 1579 00d4 FA89      		ldd r31,Y+18
 166:funsape/peripheral/twi.cpp ****         this->_bufferData[1] = reg_p;
 1580               		.loc 2 166 46 view .LVU375
 1581 00d6 8A2D      		mov r24,r10
 1582 00d8 880F      		lsl r24
 166:funsape/peripheral/twi.cpp ****         this->_bufferData[1] = reg_p;
 1583               		.loc 2 166 30 view .LVU376
 1584 00da 8083      		st Z,r24
 167:funsape/peripheral/twi.cpp ****         this->_bufferLength = 2;
 1585               		.loc 2 167 9 is_stmt 1 view .LVU377
 167:funsape/peripheral/twi.cpp ****         this->_bufferLength = 2;
 1586               		.loc 2 167 15 is_stmt 0 view .LVU378
 1587 00dc E989      		ldd r30,Y+17
 1588 00de FA89      		ldd r31,Y+18
 167:funsape/peripheral/twi.cpp ****         this->_bufferLength = 2;
 1589               		.loc 2 167 30 view .LVU379
 1590 00e0 B182      		std Z+1,r11
 168:funsape/peripheral/twi.cpp ****         this->_startTrasmission();
 1591               		.loc 2 168 9 is_stmt 1 view .LVU380
 168:funsape/peripheral/twi.cpp ****         this->_startTrasmission();
 1592               		.loc 2 168 29 is_stmt 0 view .LVU381
 1593 00e2 8B85      		ldd r24,Y+11
GAS LISTING C:\Users\kenne\AppData\Local\Temp\cc6xNdAw.s 			page 60


 1594 00e4 8F77      		andi r24,lo8(127)
 1595 00e6 8B87      		std Y+11,r24
 1596 00e8 8C85      		ldd r24,Y+12
 1597 00ea 807C      		andi r24,lo8(-64)
 1598 00ec 8160      		ori r24,lo8(1)
 1599 00ee 8C87      		std Y+12,r24
 169:funsape/peripheral/twi.cpp ****         // Wait last transmission ends
 1600               		.loc 2 169 9 is_stmt 1 view .LVU382
 169:funsape/peripheral/twi.cpp ****         // Wait last transmission ends
 1601               		.loc 2 169 32 is_stmt 0 view .LVU383
 1602 00f0 CE01      		movw r24,r28
 1603 00f2 0E94 0000 		call _ZN3Twi17_startTrasmissionEv
 1604               	.LVL102:
 171:funsape/peripheral/twi.cpp ****             return false;
 1605               		.loc 2 171 9 is_stmt 1 view .LVU384
 171:funsape/peripheral/twi.cpp ****             return false;
 1606               		.loc 2 171 35 is_stmt 0 view .LVU385
 1607 00f6 CE01      		movw r24,r28
 1608 00f8 0E94 0000 		call _ZN3Twi16_waitWhileIsBusyEv
 1609               	.LVL103:
 171:funsape/peripheral/twi.cpp ****             return false;
 1610               		.loc 2 171 9 view .LVU386
 1611 00fc 8111      		cpse r24,__zero_reg__
 1612 00fe 00C0      		rjmp .L67
 172:funsape/peripheral/twi.cpp ****         }
 1613               		.loc 2 172 20 view .LVU387
 1614 0100 182F      		mov r17,r24
 1615 0102 00C0      		rjmp .L54
 1616               	.L67:
 175:funsape/peripheral/twi.cpp ****         this->_bufferLength = msgSize_p + 1;
 1617               		.loc 2 175 9 is_stmt 1 view .LVU388
 175:funsape/peripheral/twi.cpp ****         this->_bufferLength = msgSize_p + 1;
 1618               		.loc 2 175 33 is_stmt 0 view .LVU389
 1619 0104 6A2D      		mov r22,r10
 1620 0106 70E0      		ldi r23,0
 175:funsape/peripheral/twi.cpp ****         this->_bufferLength = msgSize_p + 1;
 1621               		.loc 2 175 46 view .LVU390
 1622 0108 660F      		lsl r22
 1623 010a 771F      		rol r23
 175:funsape/peripheral/twi.cpp ****         this->_bufferLength = msgSize_p + 1;
 1624               		.loc 2 175 15 view .LVU391
 1625 010c E989      		ldd r30,Y+17
 1626 010e FA89      		ldd r31,Y+18
 175:funsape/peripheral/twi.cpp ****         this->_bufferLength = msgSize_p + 1;
 1627               		.loc 2 175 52 view .LVU392
 1628 0110 6160      		ori r22,lo8(1)
 175:funsape/peripheral/twi.cpp ****         this->_bufferLength = msgSize_p + 1;
 1629               		.loc 2 175 30 view .LVU393
 1630 0112 6083      		st Z,r22
 176:funsape/peripheral/twi.cpp ****         this->_startTrasmission();
 1631               		.loc 2 176 9 is_stmt 1 view .LVU394
 176:funsape/peripheral/twi.cpp ****         this->_startTrasmission();
 1632               		.loc 2 176 41 is_stmt 0 view .LVU395
 1633 0114 81E0      		ldi r24,lo8(1)
 1634 0116 8E0D      		add r24,r14
 176:funsape/peripheral/twi.cpp ****         this->_startTrasmission();
 1635               		.loc 2 176 29 view .LVU396
GAS LISTING C:\Users\kenne\AppData\Local\Temp\cc6xNdAw.s 			page 61


 1636 0118 982F      		mov r25,r24
 1637 011a 9795      		ror r25
 1638 011c 9927      		clr r25
 1639 011e 9795      		ror r25
 1640 0120 2B85      		ldd r18,Y+11
 1641 0122 2F77      		andi r18,lo8(127)
 1642 0124 922B      		or r25,r18
 1643 0126 9B87      		std Y+11,r25
 1644 0128 8695      		lsr r24
 1645 012a 8F73      		andi r24,lo8(63)
 1646 012c 9C85      		ldd r25,Y+12
 1647 012e 907C      		andi r25,lo8(-64)
 1648 0130 892B      		or r24,r25
 1649 0132 8C87      		std Y+12,r24
 177:funsape/peripheral/twi.cpp ****         if(!this->_waitWhileIsBusy()) {
 1650               		.loc 2 177 9 is_stmt 1 view .LVU397
 177:funsape/peripheral/twi.cpp ****         if(!this->_waitWhileIsBusy()) {
 1651               		.loc 2 177 32 is_stmt 0 view .LVU398
 1652 0134 CE01      		movw r24,r28
 1653 0136 0E94 0000 		call _ZN3Twi17_startTrasmissionEv
 1654               	.LVL104:
 178:funsape/peripheral/twi.cpp ****             return false;
 1655               		.loc 2 178 9 is_stmt 1 view .LVU399
 178:funsape/peripheral/twi.cpp ****             return false;
 1656               		.loc 2 178 35 is_stmt 0 view .LVU400
 1657 013a CE01      		movw r24,r28
 1658 013c 0E94 0000 		call _ZN3Twi16_waitWhileIsBusyEv
 1659               	.LVL105:
 178:funsape/peripheral/twi.cpp ****             return false;
 1660               		.loc 2 178 9 view .LVU401
 1661 0140 8111      		cpse r24,__zero_reg__
 1662 0142 00C0      		rjmp .L68
 179:funsape/peripheral/twi.cpp ****         }
 1663               		.loc 2 179 20 view .LVU402
 1664 0144 182F      		mov r17,r24
 1665 0146 00C0      		rjmp .L54
 1666               	.L68:
 181:funsape/peripheral/twi.cpp ****             return false;
 1667               		.loc 2 181 9 is_stmt 1 view .LVU403
 181:funsape/peripheral/twi.cpp ****             return false;
 1668               		.loc 2 181 34 is_stmt 0 view .LVU404
 1669 0148 4E2D      		mov r20,r14
 1670 014a B601      		movw r22,r12
 1671 014c CE01      		movw r24,r28
 1672 014e 0E94 0000 		call _ZN3Twi15_readFromBufferEPhh
 1673               	.LVL106:
 181:funsape/peripheral/twi.cpp ****             return false;
 1674               		.loc 2 181 9 view .LVU405
 1675 0152 8111      		cpse r24,__zero_reg__
 1676 0154 00C0      		rjmp .L61
 182:funsape/peripheral/twi.cpp ****         }
 1677               		.loc 2 182 20 view .LVU406
 1678 0156 182F      		mov r17,r24
 1679 0158 00C0      		rjmp .L54
 1680               	.LBE18:
 1681               		.cfi_endproc
 1682               	.LFE55:
GAS LISTING C:\Users\kenne\AppData\Local\Temp\cc6xNdAw.s 			page 62


 1684               		.section	.text._ZN3Twi7readRegEhPhj,"ax",@progbits
 1685               	.global	_ZN3Twi7readRegEhPhj
 1687               	_ZN3Twi7readRegEhPhj:
 1688               	.LVL107:
 1689               	.LFB52:
  84:funsape/peripheral/twi.cpp ****     if(!this->_devAddressSet) {
 1690               		.loc 2 84 1 is_stmt 1 view -0
 1691               		.cfi_startproc
  84:funsape/peripheral/twi.cpp ****     if(!this->_devAddressSet) {
 1692               		.loc 2 84 1 is_stmt 0 view .LVU408
 1693 0000 EF92      		push r14
 1694               		.cfi_def_cfa_offset 3
 1695               		.cfi_offset 14, -2
 1696 0002 0F93      		push r16
 1697               		.cfi_def_cfa_offset 4
 1698               		.cfi_offset 16, -3
 1699 0004 1F93      		push r17
 1700               		.cfi_def_cfa_offset 5
 1701               		.cfi_offset 17, -4
 1702 0006 CF93      		push r28
 1703               		.cfi_def_cfa_offset 6
 1704               		.cfi_offset 28, -5
 1705 0008 DF93      		push r29
 1706               		.cfi_def_cfa_offset 7
 1707               		.cfi_offset 29, -6
 1708               	/* prologue: function */
 1709               	/* frame size = 0 */
 1710               	/* stack size = 5 */
 1711               	.L__stack_usage = 5
 1712 000a C82F      		mov r28,r24
 1713 000c D92F      		mov r29,r25
 1714 000e 962F      		mov r25,r22
  85:funsape/peripheral/twi.cpp ****         // Error - Device address not set
 1715               		.loc 2 85 5 is_stmt 1 view .LVU409
  85:funsape/peripheral/twi.cpp ****         // Error - Device address not set
 1716               		.loc 2 85 15 is_stmt 0 view .LVU410
 1717 0010 8C81      		ldd r24,Y+4
 1718               	.LVL108:
  85:funsape/peripheral/twi.cpp ****         // Error - Device address not set
 1719               		.loc 2 85 15 view .LVU411
 1720 0012 8170      		andi r24,1
  85:funsape/peripheral/twi.cpp ****         // Error - Device address not set
 1721               		.loc 2 85 5 view .LVU412
 1722 0014 8111      		cpse r24,__zero_reg__
 1723 0016 00C0      		rjmp .L70
  87:funsape/peripheral/twi.cpp ****         return false;
 1724               		.loc 2 87 9 is_stmt 1 view .LVU413
  87:funsape/peripheral/twi.cpp ****         return false;
 1725               		.loc 2 87 26 is_stmt 0 view .LVU414
 1726 0018 21E4      		ldi r18,lo8(65)
 1727 001a 30E0      		ldi r19,0
 1728               	.LVL109:
  87:funsape/peripheral/twi.cpp ****         return false;
 1729               		.loc 2 87 26 view .LVU415
 1730 001c 3887      		std Y+8,r19
 1731 001e 2F83      		std Y+7,r18
  88:funsape/peripheral/twi.cpp ****     }
GAS LISTING C:\Users\kenne\AppData\Local\Temp\cc6xNdAw.s 			page 63


 1732               		.loc 2 88 9 is_stmt 1 view .LVU416
 1733               	.LVL110:
 1734               	.L69:
 1735               	/* epilogue start */
 102:funsape/peripheral/twi.cpp **** 
 1736               		.loc 2 102 1 is_stmt 0 view .LVU417
 1737 0020 DF91      		pop r29
 1738 0022 CF91      		pop r28
 1739 0024 1F91      		pop r17
 1740 0026 0F91      		pop r16
 1741 0028 EF90      		pop r14
 1742 002a 0895      		ret
 1743               	.LVL111:
 1744               	.L70:
  93:funsape/peripheral/twi.cpp ****     if(!auxBool) {
 1745               		.loc 2 93 5 is_stmt 1 view .LVU418
  93:funsape/peripheral/twi.cpp ****     if(!auxBool) {
 1746               		.loc 2 93 52 is_stmt 0 view .LVU419
 1747 002c 8D85      		ldd r24,Y+13
 1748 002e 8295      		swap r24
 1749 0030 8695      		lsr r24
 1750 0032 8770      		andi r24,lo8(7)
 1751 0034 6E85      		ldd r22,Y+14
 1752               	.LVL112:
  93:funsape/peripheral/twi.cpp ****     if(!auxBool) {
 1753               		.loc 2 93 52 view .LVU420
 1754 0036 660F      		lsl r22
 1755 0038 660F      		lsl r22
 1756 003a 660F      		lsl r22
 1757 003c 682B      		or r22,r24
  93:funsape/peripheral/twi.cpp ****     if(!auxBool) {
 1758               		.loc 2 93 36 view .LVU421
 1759 003e E22E      		mov r14,r18
 1760 0040 042F      		mov r16,r20
 1761 0042 152F      		mov r17,r21
 1762 0044 292F      		mov r18,r25
 1763               	.LVL113:
  93:funsape/peripheral/twi.cpp ****     if(!auxBool) {
 1764               		.loc 2 93 36 view .LVU422
 1765 0046 41E0      		ldi r20,lo8(1)
 1766               	.LVL114:
  93:funsape/peripheral/twi.cpp ****     if(!auxBool) {
 1767               		.loc 2 93 36 view .LVU423
 1768 0048 CE01      		movw r24,r28
 1769 004a 0E94 0000 		call _ZN3Twi8sendDataEhNS_9OperationEhPhh
 1770               	.LVL115:
  94:funsape/peripheral/twi.cpp ****         // Error - Communication error
 1771               		.loc 2 94 5 is_stmt 1 view .LVU424
 1772 004e 8823      		tst r24
 1773 0050 01F0      		breq .L69
 100:funsape/peripheral/twi.cpp ****     return true;
 1774               		.loc 2 100 5 view .LVU425
 100:funsape/peripheral/twi.cpp ****     return true;
 1775               		.loc 2 100 22 is_stmt 0 view .LVU426
 1776 0052 1886      		std Y+8,__zero_reg__
 1777 0054 1F82      		std Y+7,__zero_reg__
 101:funsape/peripheral/twi.cpp **** }
GAS LISTING C:\Users\kenne\AppData\Local\Temp\cc6xNdAw.s 			page 64


 1778               		.loc 2 101 5 is_stmt 1 view .LVU427
 101:funsape/peripheral/twi.cpp **** }
 1779               		.loc 2 101 12 is_stmt 0 view .LVU428
 1780 0056 00C0      		rjmp .L69
 1781               		.cfi_endproc
 1782               	.LFE52:
 1784               		.section	.text._ZN3Twi8writeRegEhPKhj,"ax",@progbits
 1785               	.global	_ZN3Twi8writeRegEhPKhj
 1787               	_ZN3Twi8writeRegEhPKhj:
 1788               	.LVL116:
 1789               	.LFB53:
 105:funsape/peripheral/twi.cpp ****     if(!this->_devAddressSet) {
 1790               		.loc 2 105 1 is_stmt 1 view -0
 1791               		.cfi_startproc
 105:funsape/peripheral/twi.cpp ****     if(!this->_devAddressSet) {
 1792               		.loc 2 105 1 is_stmt 0 view .LVU430
 1793 0000 EF92      		push r14
 1794               		.cfi_def_cfa_offset 3
 1795               		.cfi_offset 14, -2
 1796 0002 0F93      		push r16
 1797               		.cfi_def_cfa_offset 4
 1798               		.cfi_offset 16, -3
 1799 0004 1F93      		push r17
 1800               		.cfi_def_cfa_offset 5
 1801               		.cfi_offset 17, -4
 1802 0006 CF93      		push r28
 1803               		.cfi_def_cfa_offset 6
 1804               		.cfi_offset 28, -5
 1805 0008 DF93      		push r29
 1806               		.cfi_def_cfa_offset 7
 1807               		.cfi_offset 29, -6
 1808               	/* prologue: function */
 1809               	/* frame size = 0 */
 1810               	/* stack size = 5 */
 1811               	.L__stack_usage = 5
 1812 000a C82F      		mov r28,r24
 1813 000c D92F      		mov r29,r25
 1814 000e 962F      		mov r25,r22
 106:funsape/peripheral/twi.cpp ****         // Error - Device address not set
 1815               		.loc 2 106 5 is_stmt 1 view .LVU431
 106:funsape/peripheral/twi.cpp ****         // Error - Device address not set
 1816               		.loc 2 106 15 is_stmt 0 view .LVU432
 1817 0010 8C81      		ldd r24,Y+4
 1818               	.LVL117:
 106:funsape/peripheral/twi.cpp ****         // Error - Device address not set
 1819               		.loc 2 106 15 view .LVU433
 1820 0012 8170      		andi r24,1
 106:funsape/peripheral/twi.cpp ****         // Error - Device address not set
 1821               		.loc 2 106 5 view .LVU434
 1822 0014 8111      		cpse r24,__zero_reg__
 1823 0016 00C0      		rjmp .L73
 108:funsape/peripheral/twi.cpp ****         return false;
 1824               		.loc 2 108 9 is_stmt 1 view .LVU435
 108:funsape/peripheral/twi.cpp ****         return false;
 1825               		.loc 2 108 26 is_stmt 0 view .LVU436
 1826 0018 21E4      		ldi r18,lo8(65)
 1827 001a 30E0      		ldi r19,0
GAS LISTING C:\Users\kenne\AppData\Local\Temp\cc6xNdAw.s 			page 65


 1828               	.LVL118:
 108:funsape/peripheral/twi.cpp ****         return false;
 1829               		.loc 2 108 26 view .LVU437
 1830 001c 3887      		std Y+8,r19
 1831 001e 2F83      		std Y+7,r18
 109:funsape/peripheral/twi.cpp ****     }
 1832               		.loc 2 109 9 is_stmt 1 view .LVU438
 1833               	.LVL119:
 1834               	.L72:
 1835               	/* epilogue start */
 123:funsape/peripheral/twi.cpp **** 
 1836               		.loc 2 123 1 is_stmt 0 view .LVU439
 1837 0020 DF91      		pop r29
 1838 0022 CF91      		pop r28
 1839 0024 1F91      		pop r17
 1840 0026 0F91      		pop r16
 1841 0028 EF90      		pop r14
 1842 002a 0895      		ret
 1843               	.LVL120:
 1844               	.L73:
 114:funsape/peripheral/twi.cpp ****     if(!auxBool) {
 1845               		.loc 2 114 5 is_stmt 1 view .LVU440
 114:funsape/peripheral/twi.cpp ****     if(!auxBool) {
 1846               		.loc 2 114 52 is_stmt 0 view .LVU441
 1847 002c 8D85      		ldd r24,Y+13
 1848 002e 8295      		swap r24
 1849 0030 8695      		lsr r24
 1850 0032 8770      		andi r24,lo8(7)
 1851 0034 6E85      		ldd r22,Y+14
 1852               	.LVL121:
 114:funsape/peripheral/twi.cpp ****     if(!auxBool) {
 1853               		.loc 2 114 52 view .LVU442
 1854 0036 660F      		lsl r22
 1855 0038 660F      		lsl r22
 1856 003a 660F      		lsl r22
 1857 003c 682B      		or r22,r24
 114:funsape/peripheral/twi.cpp ****     if(!auxBool) {
 1858               		.loc 2 114 36 view .LVU443
 1859 003e E22E      		mov r14,r18
 1860 0040 042F      		mov r16,r20
 1861 0042 152F      		mov r17,r21
 1862 0044 292F      		mov r18,r25
 1863               	.LVL122:
 114:funsape/peripheral/twi.cpp ****     if(!auxBool) {
 1864               		.loc 2 114 36 view .LVU444
 1865 0046 40E0      		ldi r20,0
 1866               	.LVL123:
 114:funsape/peripheral/twi.cpp ****     if(!auxBool) {
 1867               		.loc 2 114 36 view .LVU445
 1868 0048 CE01      		movw r24,r28
 1869 004a 0E94 0000 		call _ZN3Twi8sendDataEhNS_9OperationEhPhh
 1870               	.LVL124:
 115:funsape/peripheral/twi.cpp ****         // Error - Communication error
 1871               		.loc 2 115 5 is_stmt 1 view .LVU446
 1872 004e 8823      		tst r24
 1873 0050 01F0      		breq .L72
 121:funsape/peripheral/twi.cpp ****     return true;
GAS LISTING C:\Users\kenne\AppData\Local\Temp\cc6xNdAw.s 			page 66


 1874               		.loc 2 121 5 view .LVU447
 121:funsape/peripheral/twi.cpp ****     return true;
 1875               		.loc 2 121 22 is_stmt 0 view .LVU448
 1876 0052 1886      		std Y+8,__zero_reg__
 1877 0054 1F82      		std Y+7,__zero_reg__
 122:funsape/peripheral/twi.cpp **** }
 1878               		.loc 2 122 5 is_stmt 1 view .LVU449
 122:funsape/peripheral/twi.cpp **** }
 1879               		.loc 2 122 12 is_stmt 0 view .LVU450
 1880 0056 00C0      		rjmp .L72
 1881               		.cfi_endproc
 1882               	.LFE53:
 1884               		.section	.text._ZN3Twi16interruptHandlerEv,"ax",@progbits
 1885               	.global	_ZN3Twi16interruptHandlerEv
 1887               	_ZN3Twi16interruptHandlerEv:
 1888               	.LVL125:
 1889               	.LFB63:
 362:funsape/peripheral/twi.cpp ****     static uint8_t twiBufferPointer;
 1890               		.loc 2 362 1 is_stmt 1 view -0
 1891               		.cfi_startproc
 1892               	/* prologue: function */
 1893               	/* frame size = 0 */
 1894               	/* stack size = 0 */
 1895               	.L__stack_usage = 0
 362:funsape/peripheral/twi.cpp ****     static uint8_t twiBufferPointer;
 1896               		.loc 2 362 1 is_stmt 0 view .LVU452
 1897 0000 E82F      		mov r30,r24
 1898 0002 F92F      		mov r31,r25
 363:funsape/peripheral/twi.cpp **** 
 1899               		.loc 2 363 5 is_stmt 1 view .LVU453
 365:funsape/peripheral/twi.cpp **** 
 1900               		.loc 2 365 5 view .LVU454
 365:funsape/peripheral/twi.cpp **** 
 1901               		.loc 2 365 35 is_stmt 0 view .LVU455
 1902 0004 8091 B900 		lds r24,185
 1903               	.LVL126:
 365:funsape/peripheral/twi.cpp **** 
 1904               		.loc 2 365 35 view .LVU456
 1905 0008 8C7F      		andi r24,lo8(-4)
 1906               	.LVL127:
 367:funsape/peripheral/twi.cpp ****     case Twi::State::START:             // START has been transmitted
 1907               		.loc 2 367 5 is_stmt 1 view .LVU457
 1908 000a 8833      		cpi r24,lo8(56)
 1909 000c 01F4      		brne .+2
 1910 000e 00C0      		rjmp .L76
 1911 0010 00F0      		brlo .L88
 1912 0012 8035      		cpi r24,lo8(80)
 1913 0014 01F4      		brne .+2
 1914 0016 00C0      		rjmp .L82
 1915 0018 8835      		cpi r24,lo8(88)
 1916 001a 01F4      		brne .L89
 390:funsape/peripheral/twi.cpp ****         this->_bufferData[twiBufferPointer] = TWDR;
 1917               		.loc 2 390 5 view .LVU458
 391:funsape/peripheral/twi.cpp ****         this->_lastTransOk = true;  // Set status bits to completed successfully
 1918               		.loc 2 391 9 view .LVU459
 391:funsape/peripheral/twi.cpp ****         this->_lastTransOk = true;  // Set status bits to completed successfully
 1919               		.loc 2 391 15 is_stmt 0 view .LVU460
GAS LISTING C:\Users\kenne\AppData\Local\Temp\cc6xNdAw.s 			page 67


 1920 001c A189      		ldd r26,Z+17
 1921 001e B289      		ldd r27,Z+18
 391:funsape/peripheral/twi.cpp ****         this->_lastTransOk = true;  // Set status bits to completed successfully
 1922               		.loc 2 391 27 view .LVU461
 1923 0020 8091 0000 		lds r24,_ZZN3Twi16interruptHandlerEvE16twiBufferPointer
 1924               	.LVL128:
 391:funsape/peripheral/twi.cpp ****         this->_lastTransOk = true;  // Set status bits to completed successfully
 1925               		.loc 2 391 43 view .LVU462
 1926 0024 A80F      		add r26,r24
 1927 0026 B11D      		adc r27,__zero_reg__
 391:funsape/peripheral/twi.cpp ****         this->_lastTransOk = true;  // Set status bits to completed successfully
 1928               		.loc 2 391 47 view .LVU463
 1929 0028 8091 BB00 		lds r24,187
 391:funsape/peripheral/twi.cpp ****         this->_lastTransOk = true;  // Set status bits to completed successfully
 1930               		.loc 2 391 45 view .LVU464
 1931 002c 8C93      		st X,r24
 392:funsape/peripheral/twi.cpp ****         TWCR = (1 << TWEN) | (1 << TWINT) | (1 << TWSTO);
 1932               		.loc 2 392 9 is_stmt 1 view .LVU465
 392:funsape/peripheral/twi.cpp ****         TWCR = (1 << TWEN) | (1 << TWINT) | (1 << TWSTO);
 1933               		.loc 2 392 28 is_stmt 0 view .LVU466
 1934 002e 8481      		ldd r24,Z+4
 1935 0030 8460      		ori r24,lo8(1<<2)
 1936 0032 8483      		std Z+4,r24
 393:funsape/peripheral/twi.cpp ****         break;
 1937               		.loc 2 393 9 is_stmt 1 view .LVU467
 393:funsape/peripheral/twi.cpp ****         break;
 1938               		.loc 2 393 14 is_stmt 0 view .LVU468
 1939 0034 84E9      		ldi r24,lo8(-108)
 1940 0036 8093 BC00 		sts 188,r24
 394:funsape/peripheral/twi.cpp ****     case Twi::State::ARB_LOST:          // Arbitration lost
 1941               		.loc 2 394 9 is_stmt 1 view .LVU469
 1942 003a 0895      		ret
 1943               	.LVL129:
 1944               	.L88:
 367:funsape/peripheral/twi.cpp ****     case Twi::State::START:             // START has been transmitted
 1945               		.loc 2 367 5 is_stmt 0 view .LVU470
 1946 003c 8831      		cpi r24,lo8(24)
 1947 003e 01F0      		breq .L78
 1948 0040 00F0      		brlo .L90
 1949 0042 8832      		cpi r24,lo8(40)
 1950 0044 01F0      		breq .+2
 1951 0046 00C0      		rjmp .L81
 1952               	.L78:
 371:funsape/peripheral/twi.cpp ****     case Twi::State::MTX_DATA_ACK:      // Data byte has been transmitted and ACK received
 1953               		.loc 2 371 5 is_stmt 1 view .LVU471
 372:funsape/peripheral/twi.cpp ****         if(twiBufferPointer < this->_bufferLength) {
 1954               		.loc 2 372 5 view .LVU472
 373:funsape/peripheral/twi.cpp ****             TWDR = this->_bufferData[twiBufferPointer++];
 1955               		.loc 2 373 9 view .LVU473
 373:funsape/peripheral/twi.cpp ****             TWDR = this->_bufferData[twiBufferPointer++];
 1956               		.loc 2 373 37 is_stmt 0 view .LVU474
 1957 0048 9385      		ldd r25,Z+11
 1958 004a 991F      		rol r25
 1959 004c 9927      		clr r25
 1960 004e 991F      		rol r25
 1961 0050 8485      		ldd r24,Z+12
 1962               	.LVL130:
GAS LISTING C:\Users\kenne\AppData\Local\Temp\cc6xNdAw.s 			page 68


 373:funsape/peripheral/twi.cpp ****             TWDR = this->_bufferData[twiBufferPointer++];
 1963               		.loc 2 373 37 view .LVU475
 1964 0052 8F73      		andi r24,lo8(63)
 1965 0054 880F      		lsl r24
 1966 0056 892B      		or r24,r25
 373:funsape/peripheral/twi.cpp ****             TWDR = this->_bufferData[twiBufferPointer++];
 1967               		.loc 2 373 29 view .LVU476
 1968 0058 9091 0000 		lds r25,_ZZN3Twi16interruptHandlerEvE16twiBufferPointer
 373:funsape/peripheral/twi.cpp ****             TWDR = this->_bufferData[twiBufferPointer++];
 1969               		.loc 2 373 9 view .LVU477
 1970 005c 9817      		cp r25,r24
 1971 005e 00F4      		brsh .L85
 374:funsape/peripheral/twi.cpp ****             TWCR = (1 << TWEN) | (1 << TWIE) | (1 << TWINT);
 1972               		.loc 2 374 13 is_stmt 1 view .LVU478
 374:funsape/peripheral/twi.cpp ****             TWCR = (1 << TWEN) | (1 << TWIE) | (1 << TWINT);
 1973               		.loc 2 374 26 is_stmt 0 view .LVU479
 1974 0060 0188      		ldd __tmp_reg__,Z+17
 1975 0062 F289      		ldd r31,Z+18
 1976 0064 E02D      		mov r30,__tmp_reg__
 374:funsape/peripheral/twi.cpp ****             TWCR = (1 << TWEN) | (1 << TWIE) | (1 << TWINT);
 1977               		.loc 2 374 54 view .LVU480
 1978 0066 81E0      		ldi r24,lo8(1)
 1979 0068 890F      		add r24,r25
 1980 006a 8093 0000 		sts _ZZN3Twi16interruptHandlerEvE16twiBufferPointer,r24
 374:funsape/peripheral/twi.cpp ****             TWCR = (1 << TWEN) | (1 << TWIE) | (1 << TWINT);
 1981               		.loc 2 374 56 view .LVU481
 1982 006e E90F      		add r30,r25
 1983 0070 F11D      		adc r31,__zero_reg__
 1984 0072 8081      		ld r24,Z
 374:funsape/peripheral/twi.cpp ****             TWCR = (1 << TWEN) | (1 << TWIE) | (1 << TWINT);
 1985               		.loc 2 374 18 view .LVU482
 1986 0074 8093 BB00 		sts 187,r24
 375:funsape/peripheral/twi.cpp ****         } else {            // Send STOP after last byte
 1987               		.loc 2 375 13 is_stmt 1 view .LVU483
 375:funsape/peripheral/twi.cpp ****         } else {            // Send STOP after last byte
 1988               		.loc 2 375 18 is_stmt 0 view .LVU484
 1989 0078 85E8      		ldi r24,lo8(-123)
 1990 007a 8093 BC00 		sts 188,r24
 1991 007e 0895      		ret
 1992               	.LVL131:
 1993               	.L90:
 367:funsape/peripheral/twi.cpp ****     case Twi::State::START:             // START has been transmitted
 1994               		.loc 2 367 5 view .LVU485
 1995 0080 8830      		cpi r24,lo8(8)
 1996 0082 01F0      		breq .L80
 1997 0084 8031      		cpi r24,lo8(16)
 1998 0086 01F4      		brne .L81
 1999               	.L80:
 368:funsape/peripheral/twi.cpp ****     case Twi::State::REP_START:         // Repeated START has been transmitted
 2000               		.loc 2 368 5 is_stmt 1 view .LVU486
 369:funsape/peripheral/twi.cpp ****         twiBufferPointer = 0;   // Set buffer pointer to the TWI Address location
 2001               		.loc 2 369 5 view .LVU487
 370:funsape/peripheral/twi.cpp ****     case Twi::State::MTX_ADR_ACK:       // SLA+W has been transmitted and ACK received
 2002               		.loc 2 370 9 view .LVU488
 370:funsape/peripheral/twi.cpp ****     case Twi::State::MTX_ADR_ACK:       // SLA+W has been transmitted and ACK received
 2003               		.loc 2 370 26 is_stmt 0 view .LVU489
 2004 0088 1092 0000 		sts _ZZN3Twi16interruptHandlerEvE16twiBufferPointer,__zero_reg__
GAS LISTING C:\Users\kenne\AppData\Local\Temp\cc6xNdAw.s 			page 69


 2005 008c 00C0      		rjmp .L78
 2006               	.L89:
 367:funsape/peripheral/twi.cpp ****     case Twi::State::START:             // START has been transmitted
 2007               		.loc 2 367 5 view .LVU490
 2008 008e 8034      		cpi r24,lo8(64)
 2009 0090 01F4      		brne .L81
 2010               	.LVL132:
 2011               	.L84:
 383:funsape/peripheral/twi.cpp ****         if(twiBufferPointer < (this->_bufferLength - 1)) {  // Detect the last byte to NACK it
 2012               		.loc 2 383 5 is_stmt 1 view .LVU491
 384:funsape/peripheral/twi.cpp ****             TWCR = (1 << TWEN) | (1 << TWIE) | (1 << TWINT) | (1 << TWEA);
 2013               		.loc 2 384 9 view .LVU492
 384:funsape/peripheral/twi.cpp ****             TWCR = (1 << TWEN) | (1 << TWIE) | (1 << TWINT) | (1 << TWEA);
 2014               		.loc 2 384 12 is_stmt 0 view .LVU493
 2015 0092 2091 0000 		lds r18,_ZZN3Twi16interruptHandlerEvE16twiBufferPointer
 2016 0096 30E0      		ldi r19,0
 384:funsape/peripheral/twi.cpp ****             TWCR = (1 << TWEN) | (1 << TWIE) | (1 << TWINT) | (1 << TWEA);
 2017               		.loc 2 384 38 view .LVU494
 2018 0098 9385      		ldd r25,Z+11
 2019 009a 991F      		rol r25
 2020 009c 9927      		clr r25
 2021 009e 991F      		rol r25
 2022 00a0 8485      		ldd r24,Z+12
 2023 00a2 8F73      		andi r24,lo8(63)
 2024 00a4 880F      		lsl r24
 2025 00a6 892B      		or r24,r25
 384:funsape/peripheral/twi.cpp ****             TWCR = (1 << TWEN) | (1 << TWIE) | (1 << TWINT) | (1 << TWEA);
 2026               		.loc 2 384 52 view .LVU495
 2027 00a8 8150      		subi r24,1
 2028 00aa 990B      		sbc r25,r25
 384:funsape/peripheral/twi.cpp ****             TWCR = (1 << TWEN) | (1 << TWIE) | (1 << TWINT) | (1 << TWEA);
 2029               		.loc 2 384 9 view .LVU496
 2030 00ac 2817      		cp r18,r24
 2031 00ae 3907      		cpc r19,r25
 2032 00b0 04F4      		brge .L87
 385:funsape/peripheral/twi.cpp ****         } else {                // Send NACK after next reception
 2033               		.loc 2 385 13 is_stmt 1 view .LVU497
 385:funsape/peripheral/twi.cpp ****         } else {                // Send NACK after next reception
 2034               		.loc 2 385 18 is_stmt 0 view .LVU498
 2035 00b2 85EC      		ldi r24,lo8(-59)
 2036 00b4 8093 BC00 		sts 188,r24
 2037 00b8 0895      		ret
 2038               	.L85:
 377:funsape/peripheral/twi.cpp ****             TWCR = (1 << TWEN) | (1 << TWINT) | (1 << TWSTO);
 2039               		.loc 2 377 13 is_stmt 1 view .LVU499
 377:funsape/peripheral/twi.cpp ****             TWCR = (1 << TWEN) | (1 << TWINT) | (1 << TWSTO);
 2040               		.loc 2 377 32 is_stmt 0 view .LVU500
 2041 00ba 8481      		ldd r24,Z+4
 2042 00bc 8460      		ori r24,lo8(1<<2)
 2043 00be 8483      		std Z+4,r24
 378:funsape/peripheral/twi.cpp ****         }
 2044               		.loc 2 378 13 is_stmt 1 view .LVU501
 378:funsape/peripheral/twi.cpp ****         }
 2045               		.loc 2 378 18 is_stmt 0 view .LVU502
 2046 00c0 84E9      		ldi r24,lo8(-108)
 2047 00c2 8093 BC00 		sts 188,r24
 2048 00c6 0895      		ret
GAS LISTING C:\Users\kenne\AppData\Local\Temp\cc6xNdAw.s 			page 70


 2049               	.LVL133:
 2050               	.L82:
 381:funsape/peripheral/twi.cpp ****         this->_bufferData[twiBufferPointer++] = TWDR;
 2051               		.loc 2 381 5 is_stmt 1 view .LVU503
 382:funsape/peripheral/twi.cpp ****     case Twi::State::MRX_ADR_ACK:       // SLA+R has been transmitted and ACK received
 2052               		.loc 2 382 9 view .LVU504
 382:funsape/peripheral/twi.cpp ****     case Twi::State::MRX_ADR_ACK:       // SLA+R has been transmitted and ACK received
 2053               		.loc 2 382 49 is_stmt 0 view .LVU505
 2054 00c8 9091 BB00 		lds r25,187
 382:funsape/peripheral/twi.cpp ****     case Twi::State::MRX_ADR_ACK:       // SLA+R has been transmitted and ACK received
 2055               		.loc 2 382 15 view .LVU506
 2056 00cc A189      		ldd r26,Z+17
 2057 00ce B289      		ldd r27,Z+18
 382:funsape/peripheral/twi.cpp ****     case Twi::State::MRX_ADR_ACK:       // SLA+R has been transmitted and ACK received
 2058               		.loc 2 382 43 view .LVU507
 2059 00d0 8091 0000 		lds r24,_ZZN3Twi16interruptHandlerEvE16twiBufferPointer
 2060               	.LVL134:
 382:funsape/peripheral/twi.cpp ****     case Twi::State::MRX_ADR_ACK:       // SLA+R has been transmitted and ACK received
 2061               		.loc 2 382 43 view .LVU508
 2062 00d4 21E0      		ldi r18,lo8(1)
 2063 00d6 280F      		add r18,r24
 2064 00d8 2093 0000 		sts _ZZN3Twi16interruptHandlerEvE16twiBufferPointer,r18
 382:funsape/peripheral/twi.cpp ****     case Twi::State::MRX_ADR_ACK:       // SLA+R has been transmitted and ACK received
 2065               		.loc 2 382 45 view .LVU509
 2066 00dc A80F      		add r26,r24
 2067 00de B11D      		adc r27,__zero_reg__
 382:funsape/peripheral/twi.cpp ****     case Twi::State::MRX_ADR_ACK:       // SLA+R has been transmitted and ACK received
 2068               		.loc 2 382 47 view .LVU510
 2069 00e0 9C93      		st X,r25
 2070 00e2 00C0      		rjmp .L84
 2071               	.L87:
 387:funsape/peripheral/twi.cpp ****         }
 2072               		.loc 2 387 13 is_stmt 1 view .LVU511
 387:funsape/peripheral/twi.cpp ****         }
 2073               		.loc 2 387 18 is_stmt 0 view .LVU512
 2074 00e4 85E8      		ldi r24,lo8(-123)
 2075 00e6 8093 BC00 		sts 188,r24
 2076 00ea 0895      		ret
 2077               	.LVL135:
 2078               	.L76:
 395:funsape/peripheral/twi.cpp ****         TWCR = (1 << TWEN) | (1 << TWIE) | (1 << TWINT) | (1 << TWSTA);
 2079               		.loc 2 395 5 is_stmt 1 view .LVU513
 396:funsape/peripheral/twi.cpp ****         break;
 2080               		.loc 2 396 9 view .LVU514
 396:funsape/peripheral/twi.cpp ****         break;
 2081               		.loc 2 396 14 is_stmt 0 view .LVU515
 2082 00ec 85EA      		ldi r24,lo8(-91)
 2083               	.LVL136:
 396:funsape/peripheral/twi.cpp ****         break;
 2084               		.loc 2 396 14 view .LVU516
 2085 00ee 8093 BC00 		sts 188,r24
 397:funsape/peripheral/twi.cpp ****     case Twi::State::MTX_ADR_NACK:      // SLA+W has been transmitted and NACK received
 2086               		.loc 2 397 9 is_stmt 1 view .LVU517
 2087 00f2 0895      		ret
 2088               	.LVL137:
 2089               	.L81:
 398:funsape/peripheral/twi.cpp ****     case Twi::State::MRX_ADR_NACK:      // SLA+R has been transmitted and NACK received
GAS LISTING C:\Users\kenne\AppData\Local\Temp\cc6xNdAw.s 			page 71


 2090               		.loc 2 398 5 view .LVU518
 399:funsape/peripheral/twi.cpp ****     case Twi::State::MTX_DATA_NACK:     // Data byte has been transmitted and NACK received
 2091               		.loc 2 399 5 view .LVU519
 400:funsape/peripheral/twi.cpp ****     case Twi::State::BUS_ERROR:         // Bus error due to an illegal START or STOP condition
 2092               		.loc 2 400 5 view .LVU520
 401:funsape/peripheral/twi.cpp ****     default:
 2093               		.loc 2 401 5 view .LVU521
 402:funsape/peripheral/twi.cpp ****         this->_twiError = TWSR;        // Store TWSR and automatically sets clears noErrors bit
 2094               		.loc 2 402 5 view .LVU522
 403:funsape/peripheral/twi.cpp ****         TWCR = (1 << TWEN);     // Reset TWI Interface
 2095               		.loc 2 403 9 view .LVU523
 403:funsape/peripheral/twi.cpp ****         TWCR = (1 << TWEN);     // Reset TWI Interface
 2096               		.loc 2 403 27 is_stmt 0 view .LVU524
 2097 00f4 8091 B900 		lds r24,185
 2098               	.LVL138:
 403:funsape/peripheral/twi.cpp ****         TWCR = (1 << TWEN);     // Reset TWI Interface
 2099               		.loc 2 403 25 view .LVU525
 2100 00f8 8583      		std Z+5,r24
 404:funsape/peripheral/twi.cpp ****         break;
 2101               		.loc 2 404 9 is_stmt 1 view .LVU526
 404:funsape/peripheral/twi.cpp ****         break;
 2102               		.loc 2 404 14 is_stmt 0 view .LVU527
 2103 00fa 84E0      		ldi r24,lo8(4)
 2104 00fc 8093 BC00 		sts 188,r24
 405:funsape/peripheral/twi.cpp ****     }
 2105               		.loc 2 405 9 is_stmt 1 view .LVU528
 2106               	/* epilogue start */
 407:funsape/peripheral/twi.cpp **** 
 2107               		.loc 2 407 1 is_stmt 0 view .LVU529
 2108 0100 0895      		ret
 2109               		.cfi_endproc
 2110               	.LFE63:
 2112               		.section	.text.__vector_24,"ax",@progbits
 2113               	.global	__vector_24
 2115               	__vector_24:
 2116               	.LFB64:
 414:funsape/peripheral/twi.cpp ****     twi.interruptHandler();
 2117               		.loc 2 414 1 is_stmt 1 view -0
 2118               		.cfi_startproc
 2119 0000 1F92      		push r1
 2120               		.cfi_def_cfa_offset 3
 2121               		.cfi_offset 1, -2
 2122 0002 0F92      		push r0
 2123               		.cfi_def_cfa_offset 4
 2124               		.cfi_offset 0, -3
 2125 0004 0FB6      		in r0,__SREG__
 2126 0006 0F92      		push r0
 2127 0008 1124      		clr __zero_reg__
 2128 000a 2F93      		push r18
 2129               		.cfi_def_cfa_offset 5
 2130               		.cfi_offset 18, -4
 2131 000c 3F93      		push r19
 2132               		.cfi_def_cfa_offset 6
 2133               		.cfi_offset 19, -5
 2134 000e 4F93      		push r20
 2135               		.cfi_def_cfa_offset 7
 2136               		.cfi_offset 20, -6
GAS LISTING C:\Users\kenne\AppData\Local\Temp\cc6xNdAw.s 			page 72


 2137 0010 5F93      		push r21
 2138               		.cfi_def_cfa_offset 8
 2139               		.cfi_offset 21, -7
 2140 0012 6F93      		push r22
 2141               		.cfi_def_cfa_offset 9
 2142               		.cfi_offset 22, -8
 2143 0014 7F93      		push r23
 2144               		.cfi_def_cfa_offset 10
 2145               		.cfi_offset 23, -9
 2146 0016 8F93      		push r24
 2147               		.cfi_def_cfa_offset 11
 2148               		.cfi_offset 24, -10
 2149 0018 9F93      		push r25
 2150               		.cfi_def_cfa_offset 12
 2151               		.cfi_offset 25, -11
 2152 001a AF93      		push r26
 2153               		.cfi_def_cfa_offset 13
 2154               		.cfi_offset 26, -12
 2155 001c BF93      		push r27
 2156               		.cfi_def_cfa_offset 14
 2157               		.cfi_offset 27, -13
 2158 001e EF93      		push r30
 2159               		.cfi_def_cfa_offset 15
 2160               		.cfi_offset 30, -14
 2161 0020 FF93      		push r31
 2162               		.cfi_def_cfa_offset 16
 2163               		.cfi_offset 31, -15
 2164               	/* prologue: Signal */
 2165               	/* frame size = 0 */
 2166               	/* stack size = 15 */
 2167               	.L__stack_usage = 15
 415:funsape/peripheral/twi.cpp **** }
 2168               		.loc 2 415 5 view .LVU531
 415:funsape/peripheral/twi.cpp **** }
 2169               		.loc 2 415 25 is_stmt 0 view .LVU532
 2170 0022 80E0      		ldi r24,lo8(twi)
 2171 0024 90E0      		ldi r25,hi8(twi)
 2172 0026 0E94 0000 		call _ZN3Twi16interruptHandlerEv
 2173               	.LVL139:
 2174               	/* epilogue start */
 2175               		.loc 2 416 1 view .LVU533
 2176 002a FF91      		pop r31
 2177 002c EF91      		pop r30
 2178 002e BF91      		pop r27
 2179 0030 AF91      		pop r26
 2180 0032 9F91      		pop r25
 2181 0034 8F91      		pop r24
 2182 0036 7F91      		pop r23
 2183 0038 6F91      		pop r22
 2184 003a 5F91      		pop r21
 2185 003c 4F91      		pop r20
 2186 003e 3F91      		pop r19
 2187 0040 2F91      		pop r18
 2188 0042 0F90      		pop r0
 2189 0044 0FBE      		out __SREG__,r0
 2190 0046 0F90      		pop r0
 2191 0048 1F90      		pop r1
GAS LISTING C:\Users\kenne\AppData\Local\Temp\cc6xNdAw.s 			page 73


 2192 004a 1895      		reti
 2193               		.cfi_endproc
 2194               	.LFE64:
 2196               		.section	.text._GLOBAL__sub_I_twi,"ax",@progbits
 2198               	_GLOBAL__sub_I_twi:
 2199               	.LFB66:
 2200               		.loc 2 416 1 is_stmt 1 view -0
 2201               		.cfi_startproc
 2202               	/* prologue: function */
 2203               	/* frame size = 0 */
 2204               	/* stack size = 0 */
 2205               	.L__stack_usage = 0
 2206               		.loc 2 416 1 is_stmt 0 view .LVU535
 2207 0000 6FEF      		ldi r22,lo8(-1)
 2208 0002 7FEF      		ldi r23,lo8(-1)
 2209 0004 81E0      		ldi r24,lo8(1)
 2210 0006 90E0      		ldi r25,0
 2211 0008 0E94 0000 		call _Z41__static_initialization_and_destruction_0ii
 2212               	.LVL140:
 2213               	/* epilogue start */
 2214 000c 0895      		ret
 2215               		.cfi_endproc
 2216               	.LFE66:
 2218               		.global __do_global_ctors
 2219               		.section .ctors,"a",@progbits
 2220               		.p2align	1
 2221 0000 0000      		.word	gs(_GLOBAL__sub_I_twi)
 2222               		.section	.text._GLOBAL__sub_D_twi,"ax",@progbits
 2224               	_GLOBAL__sub_D_twi:
 2225               	.LFB67:
 2226               		.loc 2 416 1 is_stmt 1 view -0
 2227               		.cfi_startproc
 2228               	/* prologue: function */
 2229               	/* frame size = 0 */
 2230               	/* stack size = 0 */
 2231               	.L__stack_usage = 0
 2232               		.loc 2 416 1 is_stmt 0 view .LVU537
 2233 0000 6FEF      		ldi r22,lo8(-1)
 2234 0002 7FEF      		ldi r23,lo8(-1)
 2235 0004 80E0      		ldi r24,0
 2236 0006 90E0      		ldi r25,0
 2237 0008 0E94 0000 		call _Z41__static_initialization_and_destruction_0ii
 2238               	.LVL141:
 2239               	/* epilogue start */
 2240 000c 0895      		ret
 2241               		.cfi_endproc
 2242               	.LFE67:
 2244               		.global __do_global_dtors
 2245               		.section .dtors,"a",@progbits
 2246               		.p2align	1
 2247 0000 0000      		.word	gs(_GLOBAL__sub_D_twi)
 2248               		.weak	_ZTV3Bus
 2249               		.section	.rodata._ZTV3Bus,"aG",@progbits,_ZTV3Bus,comdat
 2252               	_ZTV3Bus:
 2253 0000 0000      		.word	0
 2254 0002 0000      		.word	0
 2255 0004 0000      		.word	gs(_ZN3Bus7readRegEhPhj)
GAS LISTING C:\Users\kenne\AppData\Local\Temp\cc6xNdAw.s 			page 74


 2256 0006 0000      		.word	gs(_ZN3Bus8sendDataEPhj)
 2257 0008 0000      		.word	gs(_ZN3Bus8sendDataEPKhPhj)
 2258 000a 0000      		.word	gs(_ZN3Bus8writeRegEhPKhj)
 2259 000c 0000      		.word	gs(_ZN3Bus9setDeviceEjb)
 2260 000e 0000      		.word	gs(_ZN3Bus9setDeviceEPFvvES1_)
 2261 0010 0000      		.word	gs(_ZN3Bus10getBusTypeEv)
 2262 0012 0000      		.word	gs(_ZN3Bus12getLastErrorEv)
 2263               		.weak	_ZTV3Twi
 2264               		.section	.rodata._ZTV3Twi,"aG",@progbits,_ZTV3Twi,comdat
 2267               	_ZTV3Twi:
 2268 0000 0000      		.word	0
 2269 0002 0000      		.word	0
 2270 0004 0000      		.word	gs(_ZN3Twi7readRegEhPhj)
 2271 0006 0000      		.word	gs(_ZN3Bus8sendDataEPhj)
 2272 0008 0000      		.word	gs(_ZN3Bus8sendDataEPKhPhj)
 2273 000a 0000      		.word	gs(_ZN3Twi8writeRegEhPKhj)
 2274 000c 0000      		.word	gs(_ZN3Twi9setDeviceEjb)
 2275 000e 0000      		.word	gs(_ZN3Bus9setDeviceEPFvvES1_)
 2276 0010 0000      		.word	gs(_ZN3Twi10getBusTypeEv)
 2277 0012 0000      		.word	gs(_ZN3Twi12getLastErrorEv)
 2278               		.section	.bss._ZZN3Twi16interruptHandlerEvE16twiBufferPointer,"aw",@nobits
 2281               	_ZZN3Twi16interruptHandlerEvE16twiBufferPointer:
 2282 0000 00        		.zero	1
 2283               	.global	twi
 2284               		.section	.bss.twi,"aw",@nobits
 2287               	twi:
 2288 0000 0000 0000 		.zero	19
 2288      0000 0000 
 2288      0000 0000 
 2288      0000 0000 
 2288      0000 00
 2289               		.text
 2290               	.Letext0:
 2291               		.file 4 "f:\\importante\\faculdade\\mcc\\vscode-avr-win\\toolchains\\avr-gcc\\avr\\include\\stdint
 2292               		.file 5 "f:\\importante\\faculdade\\mcc\\vscode-avr-win\\toolchains\\avr-gcc\\lib\\gcc\\avr\\12.1.
 2293               		.file 6 "funsape/peripheral/../util/systemStatus.hpp"
 2294               		.file 7 "funsape/peripheral/twi.hpp"
 2295               		.file 8 "f:\\importante\\faculdade\\mcc\\vscode-avr-win\\toolchains\\avr-gcc\\avr\\include\\stdlib
GAS LISTING C:\Users\kenne\AppData\Local\Temp\cc6xNdAw.s 			page 75


DEFINED SYMBOLS
                            *ABS*:0000000000000000 twi.cpp
C:\Users\kenne\AppData\Local\Temp\cc6xNdAw.s:2      *ABS*:000000000000003e __SP_H__
C:\Users\kenne\AppData\Local\Temp\cc6xNdAw.s:3      *ABS*:000000000000003d __SP_L__
C:\Users\kenne\AppData\Local\Temp\cc6xNdAw.s:4      *ABS*:000000000000003f __SREG__
C:\Users\kenne\AppData\Local\Temp\cc6xNdAw.s:5      *ABS*:0000000000000000 __tmp_reg__
C:\Users\kenne\AppData\Local\Temp\cc6xNdAw.s:6      *ABS*:0000000000000001 __zero_reg__
C:\Users\kenne\AppData\Local\Temp\cc6xNdAw.s:14     .text._ZN3Bus7readRegEhPhj:0000000000000000 _ZN3Bus7readRegEhPhj
C:\Users\kenne\AppData\Local\Temp\cc6xNdAw.s:18     .text._ZN3Bus7readRegEhPhj:0000000000000000 .Loc.0
C:\Users\kenne\AppData\Local\Temp\cc6xNdAw.s:19     .text._ZN3Bus7readRegEhPhj:0000000000000000 L0
C:\Users\kenne\AppData\Local\Temp\cc6xNdAw.s:24     .text._ZN3Bus7readRegEhPhj:0000000000000000 .Loc.1
C:\Users\kenne\AppData\Local\Temp\cc6xNdAw.s:25     .text._ZN3Bus7readRegEhPhj:0000000000000000 .Loc.2
C:\Users\kenne\AppData\Local\Temp\cc6xNdAw.s:26     .text._ZN3Bus7readRegEhPhj:0000000000000000 .Loc.3
C:\Users\kenne\AppData\Local\Temp\cc6xNdAw.s:27     .text._ZN3Bus7readRegEhPhj:0000000000000000 .Loc.4
C:\Users\kenne\AppData\Local\Temp\cc6xNdAw.s:31     .text._ZN3Bus7readRegEhPhj:0000000000000004 .Loc.5
C:\Users\kenne\AppData\Local\Temp\cc6xNdAw.s:35     .text._ZN3Bus7readRegEhPhj:000000000000000a .Loc.6
C:\Users\kenne\AppData\Local\Temp\cc6xNdAw.s:36     .text._ZN3Bus7readRegEhPhj:000000000000000a .Loc.7
C:\Users\kenne\AppData\Local\Temp\cc6xNdAw.s:37     .text._ZN3Bus7readRegEhPhj:000000000000000a .Loc.8
C:\Users\kenne\AppData\Local\Temp\cc6xNdAw.s:38     .text._ZN3Bus7readRegEhPhj:000000000000000a .Loc.9
C:\Users\kenne\AppData\Local\Temp\cc6xNdAw.s:42     .text._ZN3Bus7readRegEhPhj:000000000000000c .Loc.10
C:\Users\kenne\AppData\Local\Temp\cc6xNdAw.s:44     .text._ZN3Bus7readRegEhPhj:000000000000000e L0
C:\Users\kenne\AppData\Local\Temp\cc6xNdAw.s:50     .text._ZN3Bus8sendDataEPhj:0000000000000000 _ZN3Bus8sendDataEPhj
C:\Users\kenne\AppData\Local\Temp\cc6xNdAw.s:53     .text._ZN3Bus8sendDataEPhj:0000000000000000 .Loc.11
C:\Users\kenne\AppData\Local\Temp\cc6xNdAw.s:54     .text._ZN3Bus8sendDataEPhj:0000000000000000 L0
C:\Users\kenne\AppData\Local\Temp\cc6xNdAw.s:59     .text._ZN3Bus8sendDataEPhj:0000000000000000 .Loc.12
C:\Users\kenne\AppData\Local\Temp\cc6xNdAw.s:60     .text._ZN3Bus8sendDataEPhj:0000000000000000 .Loc.13
C:\Users\kenne\AppData\Local\Temp\cc6xNdAw.s:61     .text._ZN3Bus8sendDataEPhj:0000000000000000 .Loc.14
C:\Users\kenne\AppData\Local\Temp\cc6xNdAw.s:62     .text._ZN3Bus8sendDataEPhj:0000000000000000 .Loc.15
C:\Users\kenne\AppData\Local\Temp\cc6xNdAw.s:68     .text._ZN3Bus8sendDataEPhj:000000000000000a .Loc.16
C:\Users\kenne\AppData\Local\Temp\cc6xNdAw.s:69     .text._ZN3Bus8sendDataEPhj:000000000000000a .Loc.17
C:\Users\kenne\AppData\Local\Temp\cc6xNdAw.s:70     .text._ZN3Bus8sendDataEPhj:000000000000000a .Loc.18
C:\Users\kenne\AppData\Local\Temp\cc6xNdAw.s:71     .text._ZN3Bus8sendDataEPhj:000000000000000a .Loc.19
C:\Users\kenne\AppData\Local\Temp\cc6xNdAw.s:75     .text._ZN3Bus8sendDataEPhj:000000000000000c .Loc.20
C:\Users\kenne\AppData\Local\Temp\cc6xNdAw.s:77     .text._ZN3Bus8sendDataEPhj:000000000000000e L0
C:\Users\kenne\AppData\Local\Temp\cc6xNdAw.s:83     .text._ZN3Bus8sendDataEPKhPhj:0000000000000000 _ZN3Bus8sendDataEPKhPhj
C:\Users\kenne\AppData\Local\Temp\cc6xNdAw.s:86     .text._ZN3Bus8sendDataEPKhPhj:0000000000000000 .Loc.21
C:\Users\kenne\AppData\Local\Temp\cc6xNdAw.s:87     .text._ZN3Bus8sendDataEPKhPhj:0000000000000000 L0
C:\Users\kenne\AppData\Local\Temp\cc6xNdAw.s:92     .text._ZN3Bus8sendDataEPKhPhj:0000000000000000 .Loc.22
C:\Users\kenne\AppData\Local\Temp\cc6xNdAw.s:93     .text._ZN3Bus8sendDataEPKhPhj:0000000000000000 .Loc.23
C:\Users\kenne\AppData\Local\Temp\cc6xNdAw.s:94     .text._ZN3Bus8sendDataEPKhPhj:0000000000000000 .Loc.24
C:\Users\kenne\AppData\Local\Temp\cc6xNdAw.s:95     .text._ZN3Bus8sendDataEPKhPhj:0000000000000000 .Loc.25
C:\Users\kenne\AppData\Local\Temp\cc6xNdAw.s:99     .text._ZN3Bus8sendDataEPKhPhj:0000000000000004 .Loc.26
C:\Users\kenne\AppData\Local\Temp\cc6xNdAw.s:103    .text._ZN3Bus8sendDataEPKhPhj:000000000000000a .Loc.27
C:\Users\kenne\AppData\Local\Temp\cc6xNdAw.s:104    .text._ZN3Bus8sendDataEPKhPhj:000000000000000a .Loc.28
C:\Users\kenne\AppData\Local\Temp\cc6xNdAw.s:105    .text._ZN3Bus8sendDataEPKhPhj:000000000000000a .Loc.29
C:\Users\kenne\AppData\Local\Temp\cc6xNdAw.s:106    .text._ZN3Bus8sendDataEPKhPhj:000000000000000a .Loc.30
C:\Users\kenne\AppData\Local\Temp\cc6xNdAw.s:110    .text._ZN3Bus8sendDataEPKhPhj:000000000000000c .Loc.31
C:\Users\kenne\AppData\Local\Temp\cc6xNdAw.s:112    .text._ZN3Bus8sendDataEPKhPhj:000000000000000e L0
C:\Users\kenne\AppData\Local\Temp\cc6xNdAw.s:118    .text._ZN3Bus8writeRegEhPKhj:0000000000000000 _ZN3Bus8writeRegEhPKhj
C:\Users\kenne\AppData\Local\Temp\cc6xNdAw.s:121    .text._ZN3Bus8writeRegEhPKhj:0000000000000000 .Loc.32
C:\Users\kenne\AppData\Local\Temp\cc6xNdAw.s:122    .text._ZN3Bus8writeRegEhPKhj:0000000000000000 L0
C:\Users\kenne\AppData\Local\Temp\cc6xNdAw.s:127    .text._ZN3Bus8writeRegEhPKhj:0000000000000000 .Loc.33
C:\Users\kenne\AppData\Local\Temp\cc6xNdAw.s:128    .text._ZN3Bus8writeRegEhPKhj:0000000000000000 .Loc.34
C:\Users\kenne\AppData\Local\Temp\cc6xNdAw.s:129    .text._ZN3Bus8writeRegEhPKhj:0000000000000000 .Loc.35
C:\Users\kenne\AppData\Local\Temp\cc6xNdAw.s:130    .text._ZN3Bus8writeRegEhPKhj:0000000000000000 .Loc.36
C:\Users\kenne\AppData\Local\Temp\cc6xNdAw.s:134    .text._ZN3Bus8writeRegEhPKhj:0000000000000004 .Loc.37
C:\Users\kenne\AppData\Local\Temp\cc6xNdAw.s:138    .text._ZN3Bus8writeRegEhPKhj:000000000000000a .Loc.38
GAS LISTING C:\Users\kenne\AppData\Local\Temp\cc6xNdAw.s 			page 76


C:\Users\kenne\AppData\Local\Temp\cc6xNdAw.s:139    .text._ZN3Bus8writeRegEhPKhj:000000000000000a .Loc.39
C:\Users\kenne\AppData\Local\Temp\cc6xNdAw.s:140    .text._ZN3Bus8writeRegEhPKhj:000000000000000a .Loc.40
C:\Users\kenne\AppData\Local\Temp\cc6xNdAw.s:141    .text._ZN3Bus8writeRegEhPKhj:000000000000000a .Loc.41
C:\Users\kenne\AppData\Local\Temp\cc6xNdAw.s:145    .text._ZN3Bus8writeRegEhPKhj:000000000000000c .Loc.42
C:\Users\kenne\AppData\Local\Temp\cc6xNdAw.s:147    .text._ZN3Bus8writeRegEhPKhj:000000000000000e L0
C:\Users\kenne\AppData\Local\Temp\cc6xNdAw.s:153    .text._ZN3Bus9setDeviceEjb:0000000000000000 _ZN3Bus9setDeviceEjb
C:\Users\kenne\AppData\Local\Temp\cc6xNdAw.s:156    .text._ZN3Bus9setDeviceEjb:0000000000000000 .Loc.43
C:\Users\kenne\AppData\Local\Temp\cc6xNdAw.s:157    .text._ZN3Bus9setDeviceEjb:0000000000000000 L0
C:\Users\kenne\AppData\Local\Temp\cc6xNdAw.s:162    .text._ZN3Bus9setDeviceEjb:0000000000000000 .Loc.44
C:\Users\kenne\AppData\Local\Temp\cc6xNdAw.s:163    .text._ZN3Bus9setDeviceEjb:0000000000000000 .Loc.45
C:\Users\kenne\AppData\Local\Temp\cc6xNdAw.s:164    .text._ZN3Bus9setDeviceEjb:0000000000000000 .Loc.46
C:\Users\kenne\AppData\Local\Temp\cc6xNdAw.s:165    .text._ZN3Bus9setDeviceEjb:0000000000000000 .Loc.47
C:\Users\kenne\AppData\Local\Temp\cc6xNdAw.s:171    .text._ZN3Bus9setDeviceEjb:000000000000000a .Loc.48
C:\Users\kenne\AppData\Local\Temp\cc6xNdAw.s:172    .text._ZN3Bus9setDeviceEjb:000000000000000a .Loc.49
C:\Users\kenne\AppData\Local\Temp\cc6xNdAw.s:173    .text._ZN3Bus9setDeviceEjb:000000000000000a .Loc.50
C:\Users\kenne\AppData\Local\Temp\cc6xNdAw.s:174    .text._ZN3Bus9setDeviceEjb:000000000000000a .Loc.51
C:\Users\kenne\AppData\Local\Temp\cc6xNdAw.s:178    .text._ZN3Bus9setDeviceEjb:000000000000000c .Loc.52
C:\Users\kenne\AppData\Local\Temp\cc6xNdAw.s:180    .text._ZN3Bus9setDeviceEjb:000000000000000e L0
C:\Users\kenne\AppData\Local\Temp\cc6xNdAw.s:186    .text._ZN3Bus9setDeviceEPFvvES1_:0000000000000000 _ZN3Bus9setDeviceEPFvvES1_
C:\Users\kenne\AppData\Local\Temp\cc6xNdAw.s:189    .text._ZN3Bus9setDeviceEPFvvES1_:0000000000000000 .Loc.53
C:\Users\kenne\AppData\Local\Temp\cc6xNdAw.s:190    .text._ZN3Bus9setDeviceEPFvvES1_:0000000000000000 L0
C:\Users\kenne\AppData\Local\Temp\cc6xNdAw.s:195    .text._ZN3Bus9setDeviceEPFvvES1_:0000000000000000 .Loc.54
C:\Users\kenne\AppData\Local\Temp\cc6xNdAw.s:196    .text._ZN3Bus9setDeviceEPFvvES1_:0000000000000000 .Loc.55
C:\Users\kenne\AppData\Local\Temp\cc6xNdAw.s:197    .text._ZN3Bus9setDeviceEPFvvES1_:0000000000000000 .Loc.56
C:\Users\kenne\AppData\Local\Temp\cc6xNdAw.s:198    .text._ZN3Bus9setDeviceEPFvvES1_:0000000000000000 .Loc.57
C:\Users\kenne\AppData\Local\Temp\cc6xNdAw.s:204    .text._ZN3Bus9setDeviceEPFvvES1_:000000000000000a .Loc.58
C:\Users\kenne\AppData\Local\Temp\cc6xNdAw.s:205    .text._ZN3Bus9setDeviceEPFvvES1_:000000000000000a .Loc.59
C:\Users\kenne\AppData\Local\Temp\cc6xNdAw.s:206    .text._ZN3Bus9setDeviceEPFvvES1_:000000000000000a .Loc.60
C:\Users\kenne\AppData\Local\Temp\cc6xNdAw.s:207    .text._ZN3Bus9setDeviceEPFvvES1_:000000000000000a .Loc.61
C:\Users\kenne\AppData\Local\Temp\cc6xNdAw.s:211    .text._ZN3Bus9setDeviceEPFvvES1_:000000000000000c .Loc.62
C:\Users\kenne\AppData\Local\Temp\cc6xNdAw.s:213    .text._ZN3Bus9setDeviceEPFvvES1_:000000000000000e L0
C:\Users\kenne\AppData\Local\Temp\cc6xNdAw.s:219    .text._ZN3Bus10getBusTypeEv:0000000000000000 _ZN3Bus10getBusTypeEv
C:\Users\kenne\AppData\Local\Temp\cc6xNdAw.s:222    .text._ZN3Bus10getBusTypeEv:0000000000000000 .Loc.63
C:\Users\kenne\AppData\Local\Temp\cc6xNdAw.s:223    .text._ZN3Bus10getBusTypeEv:0000000000000000 L0
C:\Users\kenne\AppData\Local\Temp\cc6xNdAw.s:228    .text._ZN3Bus10getBusTypeEv:0000000000000000 .Loc.64
C:\Users\kenne\AppData\Local\Temp\cc6xNdAw.s:229    .text._ZN3Bus10getBusTypeEv:0000000000000000 .Loc.65
C:\Users\kenne\AppData\Local\Temp\cc6xNdAw.s:230    .text._ZN3Bus10getBusTypeEv:0000000000000000 .Loc.66
C:\Users\kenne\AppData\Local\Temp\cc6xNdAw.s:231    .text._ZN3Bus10getBusTypeEv:0000000000000000 .Loc.67
C:\Users\kenne\AppData\Local\Temp\cc6xNdAw.s:236    .text._ZN3Bus10getBusTypeEv:0000000000000004 .Loc.68
C:\Users\kenne\AppData\Local\Temp\cc6xNdAw.s:238    .text._ZN3Bus10getBusTypeEv:0000000000000006 L0
C:\Users\kenne\AppData\Local\Temp\cc6xNdAw.s:244    .text._ZN3Bus12getLastErrorEv:0000000000000000 _ZN3Bus12getLastErrorEv
C:\Users\kenne\AppData\Local\Temp\cc6xNdAw.s:247    .text._ZN3Bus12getLastErrorEv:0000000000000000 .Loc.69
C:\Users\kenne\AppData\Local\Temp\cc6xNdAw.s:248    .text._ZN3Bus12getLastErrorEv:0000000000000000 L0
C:\Users\kenne\AppData\Local\Temp\cc6xNdAw.s:253    .text._ZN3Bus12getLastErrorEv:0000000000000000 .Loc.70
C:\Users\kenne\AppData\Local\Temp\cc6xNdAw.s:254    .text._ZN3Bus12getLastErrorEv:0000000000000000 .Loc.71
C:\Users\kenne\AppData\Local\Temp\cc6xNdAw.s:260    .text._ZN3Bus12getLastErrorEv:0000000000000006 .Loc.72
C:\Users\kenne\AppData\Local\Temp\cc6xNdAw.s:262    .text._ZN3Bus12getLastErrorEv:0000000000000008 L0
C:\Users\kenne\AppData\Local\Temp\cc6xNdAw.s:268    .text._ZN3Twi9setDeviceEjb:0000000000000000 _ZN3Twi9setDeviceEjb
C:\Users\kenne\AppData\Local\Temp\cc6xNdAw.s:272    .text._ZN3Twi9setDeviceEjb:0000000000000000 .Loc.73
C:\Users\kenne\AppData\Local\Temp\cc6xNdAw.s:273    .text._ZN3Twi9setDeviceEjb:0000000000000000 L0
C:\Users\kenne\AppData\Local\Temp\cc6xNdAw.s:278    .text._ZN3Twi9setDeviceEjb:0000000000000000 .Loc.74
C:\Users\kenne\AppData\Local\Temp\cc6xNdAw.s:281    .text._ZN3Twi9setDeviceEjb:0000000000000004 .Loc.75
C:\Users\kenne\AppData\Local\Temp\cc6xNdAw.s:282    .text._ZN3Twi9setDeviceEjb:0000000000000004 .Loc.76
C:\Users\kenne\AppData\Local\Temp\cc6xNdAw.s:285    .text._ZN3Twi9setDeviceEjb:0000000000000008 .Loc.77
C:\Users\kenne\AppData\Local\Temp\cc6xNdAw.s:288    .text._ZN3Twi9setDeviceEjb:000000000000000a .Loc.78
C:\Users\kenne\AppData\Local\Temp\cc6xNdAw.s:300    .text._ZN3Twi9setDeviceEjb:000000000000001e .Loc.79
C:\Users\kenne\AppData\Local\Temp\cc6xNdAw.s:313    .text._ZN3Twi9setDeviceEjb:0000000000000036 .Loc.80
GAS LISTING C:\Users\kenne\AppData\Local\Temp\cc6xNdAw.s 			page 77


C:\Users\kenne\AppData\Local\Temp\cc6xNdAw.s:314    .text._ZN3Twi9setDeviceEjb:0000000000000036 .Loc.81
C:\Users\kenne\AppData\Local\Temp\cc6xNdAw.s:319    .text._ZN3Twi9setDeviceEjb:000000000000003e .Loc.82
C:\Users\kenne\AppData\Local\Temp\cc6xNdAw.s:320    .text._ZN3Twi9setDeviceEjb:000000000000003e .Loc.83
C:\Users\kenne\AppData\Local\Temp\cc6xNdAw.s:324    .text._ZN3Twi9setDeviceEjb:0000000000000044 .Loc.84
C:\Users\kenne\AppData\Local\Temp\cc6xNdAw.s:325    .text._ZN3Twi9setDeviceEjb:0000000000000044 .Loc.85
C:\Users\kenne\AppData\Local\Temp\cc6xNdAw.s:328    .text._ZN3Twi9setDeviceEjb:0000000000000048 .Loc.86
C:\Users\kenne\AppData\Local\Temp\cc6xNdAw.s:329    .text._ZN3Twi9setDeviceEjb:0000000000000048 .Loc.87
C:\Users\kenne\AppData\Local\Temp\cc6xNdAw.s:333    .text._ZN3Twi9setDeviceEjb:000000000000004c L0
C:\Users\kenne\AppData\Local\Temp\cc6xNdAw.s:339    .text._ZN3Twi10getBusTypeEv:0000000000000000 _ZN3Twi10getBusTypeEv
C:\Users\kenne\AppData\Local\Temp\cc6xNdAw.s:342    .text._ZN3Twi10getBusTypeEv:0000000000000000 .Loc.88
C:\Users\kenne\AppData\Local\Temp\cc6xNdAw.s:343    .text._ZN3Twi10getBusTypeEv:0000000000000000 L0
C:\Users\kenne\AppData\Local\Temp\cc6xNdAw.s:348    .text._ZN3Twi10getBusTypeEv:0000000000000000 .Loc.89
C:\Users\kenne\AppData\Local\Temp\cc6xNdAw.s:349    .text._ZN3Twi10getBusTypeEv:0000000000000000 .Loc.90
C:\Users\kenne\AppData\Local\Temp\cc6xNdAw.s:354    .text._ZN3Twi10getBusTypeEv:0000000000000004 .Loc.91
C:\Users\kenne\AppData\Local\Temp\cc6xNdAw.s:356    .text._ZN3Twi10getBusTypeEv:0000000000000006 L0
C:\Users\kenne\AppData\Local\Temp\cc6xNdAw.s:362    .text._ZN3Twi12getLastErrorEv:0000000000000000 _ZN3Twi12getLastErrorEv
C:\Users\kenne\AppData\Local\Temp\cc6xNdAw.s:365    .text._ZN3Twi12getLastErrorEv:0000000000000000 .Loc.92
C:\Users\kenne\AppData\Local\Temp\cc6xNdAw.s:366    .text._ZN3Twi12getLastErrorEv:0000000000000000 L0
C:\Users\kenne\AppData\Local\Temp\cc6xNdAw.s:371    .text._ZN3Twi12getLastErrorEv:0000000000000000 .Loc.93
C:\Users\kenne\AppData\Local\Temp\cc6xNdAw.s:372    .text._ZN3Twi12getLastErrorEv:0000000000000000 .Loc.94
C:\Users\kenne\AppData\Local\Temp\cc6xNdAw.s:378    .text._ZN3Twi12getLastErrorEv:0000000000000006 .Loc.95
C:\Users\kenne\AppData\Local\Temp\cc6xNdAw.s:380    .text._ZN3Twi12getLastErrorEv:0000000000000008 L0
C:\Users\kenne\AppData\Local\Temp\cc6xNdAw.s:386    .text._Z7getTickv:0000000000000000 _Z7getTickv
C:\Users\kenne\AppData\Local\Temp\cc6xNdAw.s:389    .text._Z7getTickv:0000000000000000 .Loc.96
C:\Users\kenne\AppData\Local\Temp\cc6xNdAw.s:390    .text._Z7getTickv:0000000000000000 L0
C:\Users\kenne\AppData\Local\Temp\cc6xNdAw.s:395    .text._Z7getTickv:0000000000000000 .Loc.97
C:\Users\kenne\AppData\Local\Temp\cc6xNdAw.s:396    .text._Z7getTickv:0000000000000000 .Loc.98
C:\Users\kenne\AppData\Local\Temp\cc6xNdAw.s:402    .text._Z7getTickv:0000000000000008 L0
C:\Users\kenne\AppData\Local\Temp\cc6xNdAw.s:408    .text._ZN3TwiC2Ev:0000000000000000 _ZN3TwiC2Ev
C:\Users\kenne\AppData\Local\Temp\cc6xNdAw.s:411    .text._ZN3TwiC2Ev:0000000000000000 .Loc.99
C:\Users\kenne\AppData\Local\Temp\cc6xNdAw.s:412    .text._ZN3TwiC2Ev:0000000000000000 L0
C:\Users\kenne\AppData\Local\Temp\cc6xNdAw.s:417    .text._ZN3TwiC2Ev:0000000000000000 .Loc.100
C:\Users\kenne\AppData\Local\Temp\cc6xNdAw.s:424    .text._ZN3TwiC2Ev:0000000000000004 .Loc.101
C:\Users\kenne\AppData\Local\Temp\cc6xNdAw.s:2252   .rodata._ZTV3Bus:0000000000000000 _ZTV3Bus
C:\Users\kenne\AppData\Local\Temp\cc6xNdAw.s:429    .text._ZN3TwiC2Ev:0000000000000008 .Loc.102
C:\Users\kenne\AppData\Local\Temp\cc6xNdAw.s:433    .text._ZN3TwiC2Ev:000000000000000c .Loc.103
C:\Users\kenne\AppData\Local\Temp\cc6xNdAw.s:436    .text._ZN3TwiC2Ev:000000000000000c .Loc.104
C:\Users\kenne\AppData\Local\Temp\cc6xNdAw.s:2267   .rodata._ZTV3Twi:0000000000000000 _ZTV3Twi
C:\Users\kenne\AppData\Local\Temp\cc6xNdAw.s:441    .text._ZN3TwiC2Ev:0000000000000014 .Loc.105
C:\Users\kenne\AppData\Local\Temp\cc6xNdAw.s:442    .text._ZN3TwiC2Ev:0000000000000014 .Loc.106
C:\Users\kenne\AppData\Local\Temp\cc6xNdAw.s:445    .text._ZN3TwiC2Ev:0000000000000018 .Loc.107
C:\Users\kenne\AppData\Local\Temp\cc6xNdAw.s:446    .text._ZN3TwiC2Ev:0000000000000018 .Loc.108
C:\Users\kenne\AppData\Local\Temp\cc6xNdAw.s:450    .text._ZN3TwiC2Ev:000000000000001e .Loc.109
C:\Users\kenne\AppData\Local\Temp\cc6xNdAw.s:451    .text._ZN3TwiC2Ev:000000000000001e .Loc.110
C:\Users\kenne\AppData\Local\Temp\cc6xNdAw.s:456    .text._ZN3TwiC2Ev:0000000000000026 .Loc.111
C:\Users\kenne\AppData\Local\Temp\cc6xNdAw.s:457    .text._ZN3TwiC2Ev:0000000000000026 .Loc.112
C:\Users\kenne\AppData\Local\Temp\cc6xNdAw.s:462    .text._ZN3TwiC2Ev:000000000000002e .Loc.113
C:\Users\kenne\AppData\Local\Temp\cc6xNdAw.s:463    .text._ZN3TwiC2Ev:000000000000002e .Loc.114
C:\Users\kenne\AppData\Local\Temp\cc6xNdAw.s:467    .text._ZN3TwiC2Ev:0000000000000034 .Loc.115
C:\Users\kenne\AppData\Local\Temp\cc6xNdAw.s:468    .text._ZN3TwiC2Ev:0000000000000034 .Loc.116
C:\Users\kenne\AppData\Local\Temp\cc6xNdAw.s:471    .text._ZN3TwiC2Ev:0000000000000038 .Loc.117
C:\Users\kenne\AppData\Local\Temp\cc6xNdAw.s:472    .text._ZN3TwiC2Ev:0000000000000038 .Loc.118
C:\Users\kenne\AppData\Local\Temp\cc6xNdAw.s:477    .text._ZN3TwiC2Ev:0000000000000040 .Loc.119
C:\Users\kenne\AppData\Local\Temp\cc6xNdAw.s:478    .text._ZN3TwiC2Ev:0000000000000040 .Loc.120
C:\Users\kenne\AppData\Local\Temp\cc6xNdAw.s:481    .text._ZN3TwiC2Ev:0000000000000044 .Loc.121
C:\Users\kenne\AppData\Local\Temp\cc6xNdAw.s:484    .text._ZN3TwiC2Ev:0000000000000044 .Loc.122
C:\Users\kenne\AppData\Local\Temp\cc6xNdAw.s:486    .text._ZN3TwiC2Ev:0000000000000046 L0
GAS LISTING C:\Users\kenne\AppData\Local\Temp\cc6xNdAw.s 			page 78


C:\Users\kenne\AppData\Local\Temp\cc6xNdAw.s:408    .text._ZN3TwiC2Ev:0000000000000000 _ZN3TwiC1Ev
C:\Users\kenne\AppData\Local\Temp\cc6xNdAw.s:494    .text._ZN3TwiD2Ev:0000000000000000 _ZN3TwiD2Ev
C:\Users\kenne\AppData\Local\Temp\cc6xNdAw.s:497    .text._ZN3TwiD2Ev:0000000000000000 .Loc.123
C:\Users\kenne\AppData\Local\Temp\cc6xNdAw.s:498    .text._ZN3TwiD2Ev:0000000000000000 L0
C:\Users\kenne\AppData\Local\Temp\cc6xNdAw.s:504    .text._ZN3TwiD2Ev:0000000000000000 .Loc.124
C:\Users\kenne\AppData\Local\Temp\cc6xNdAw.s:510    .text._ZN3TwiD2Ev:000000000000000a .Loc.125
C:\Users\kenne\AppData\Local\Temp\cc6xNdAw.s:513    .text._ZN3TwiD2Ev:000000000000000a .Loc.126
C:\Users\kenne\AppData\Local\Temp\cc6xNdAw.s:515    .text._ZN3TwiD2Ev:000000000000000c L0
C:\Users\kenne\AppData\Local\Temp\cc6xNdAw.s:494    .text._ZN3TwiD2Ev:0000000000000000 _ZN3TwiD1Ev
C:\Users\kenne\AppData\Local\Temp\cc6xNdAw.s:522    .text._Z41__static_initialization_and_destruction_0ii:0000000000000000 _Z41__static_initialization_and_destruction_0ii
C:\Users\kenne\AppData\Local\Temp\cc6xNdAw.s:525    .text._Z41__static_initialization_and_destruction_0ii:0000000000000000 .Loc.127
C:\Users\kenne\AppData\Local\Temp\cc6xNdAw.s:526    .text._Z41__static_initialization_and_destruction_0ii:0000000000000000 L0
C:\Users\kenne\AppData\Local\Temp\cc6xNdAw.s:527    .text._Z41__static_initialization_and_destruction_0ii:0000000000000000 .Loc.128
C:\Users\kenne\AppData\Local\Temp\cc6xNdAw.s:548    .text._Z41__static_initialization_and_destruction_0ii:0000000000000010 .Loc.129
C:\Users\kenne\AppData\Local\Temp\cc6xNdAw.s:554    .text._Z41__static_initialization_and_destruction_0ii:0000000000000016 .Loc.130
C:\Users\kenne\AppData\Local\Temp\cc6xNdAw.s:557    .text._Z41__static_initialization_and_destruction_0ii:000000000000001a .Loc.131
C:\Users\kenne\AppData\Local\Temp\cc6xNdAw.s:563    .text._Z41__static_initialization_and_destruction_0ii:0000000000000020 .Loc.132
C:\Users\kenne\AppData\Local\Temp\cc6xNdAw.s:571    .text._Z41__static_initialization_and_destruction_0ii:000000000000002a .Loc.133
C:\Users\kenne\AppData\Local\Temp\cc6xNdAw.s:575    .text._Z41__static_initialization_and_destruction_0ii:000000000000002e .Loc.134
C:\Users\kenne\AppData\Local\Temp\cc6xNdAw.s:577    .text._Z41__static_initialization_and_destruction_0ii:0000000000000030 .Loc.135
C:\Users\kenne\AppData\Local\Temp\cc6xNdAw.s:2287   .bss.twi:0000000000000000 twi
C:\Users\kenne\AppData\Local\Temp\cc6xNdAw.s:582    .text._Z41__static_initialization_and_destruction_0ii:0000000000000038 .Loc.136
C:\Users\kenne\AppData\Local\Temp\cc6xNdAw.s:585    .text._Z41__static_initialization_and_destruction_0ii:000000000000003a .Loc.137
C:\Users\kenne\AppData\Local\Temp\cc6xNdAw.s:590    .text._Z41__static_initialization_and_destruction_0ii:0000000000000042 .Loc.138
C:\Users\kenne\AppData\Local\Temp\cc6xNdAw.s:592    .text._Z41__static_initialization_and_destruction_0ii:0000000000000044 L0
C:\Users\kenne\AppData\Local\Temp\cc6xNdAw.s:598    .text._ZN3Twi4initEmh:0000000000000000 _ZN3Twi4initEmh
C:\Users\kenne\AppData\Local\Temp\cc6xNdAw.s:601    .text._ZN3Twi4initEmh:0000000000000000 .Loc.139
C:\Users\kenne\AppData\Local\Temp\cc6xNdAw.s:602    .text._ZN3Twi4initEmh:0000000000000000 L0
C:\Users\kenne\AppData\Local\Temp\cc6xNdAw.s:603    .text._ZN3Twi4initEmh:0000000000000000 .Loc.140
C:\Users\kenne\AppData\Local\Temp\cc6xNdAw.s:625    .text._ZN3Twi4initEmh:0000000000000010 L0
C:\Users\kenne\AppData\Local\Temp\cc6xNdAw.s:626    .text._ZN3Twi4initEmh:0000000000000012 L0
C:\Users\kenne\AppData\Local\Temp\cc6xNdAw.s:627    .text._ZN3Twi4initEmh:0000000000000014 L0
C:\Users\kenne\AppData\Local\Temp\cc6xNdAw.s:643    .text._ZN3Twi4initEmh:0000000000000026 .Loc.141
C:\Users\kenne\AppData\Local\Temp\cc6xNdAw.s:645    .text._ZN3Twi4initEmh:0000000000000026 .Loc.142
C:\Users\kenne\AppData\Local\Temp\cc6xNdAw.s:646    .text._ZN3Twi4initEmh:0000000000000026 .Loc.143
C:\Users\kenne\AppData\Local\Temp\cc6xNdAw.s:647    .text._ZN3Twi4initEmh:0000000000000026 .Loc.144
C:\Users\kenne\AppData\Local\Temp\cc6xNdAw.s:652    .text._ZN3Twi4initEmh:000000000000002c .Loc.145
C:\Users\kenne\AppData\Local\Temp\cc6xNdAw.s:655    .text._ZN3Twi4initEmh:0000000000000030 .Loc.146
C:\Users\kenne\AppData\Local\Temp\cc6xNdAw.s:656    .text._ZN3Twi4initEmh:0000000000000030 .Loc.147
C:\Users\kenne\AppData\Local\Temp\cc6xNdAw.s:658    .text._ZN3Twi4initEmh:0000000000000032 .Loc.148
C:\Users\kenne\AppData\Local\Temp\cc6xNdAw.s:659    .text._ZN3Twi4initEmh:0000000000000032 .Loc.149
C:\Users\kenne\AppData\Local\Temp\cc6xNdAw.s:661    .text._ZN3Twi4initEmh:0000000000000036 .Loc.150
C:\Users\kenne\AppData\Local\Temp\cc6xNdAw.s:662    .text._ZN3Twi4initEmh:0000000000000036 .Loc.151
C:\Users\kenne\AppData\Local\Temp\cc6xNdAw.s:664    .text._ZN3Twi4initEmh:000000000000003a .Loc.152
C:\Users\kenne\AppData\Local\Temp\cc6xNdAw.s:665    .text._ZN3Twi4initEmh:000000000000003a .Loc.153
C:\Users\kenne\AppData\Local\Temp\cc6xNdAw.s:667    .text._ZN3Twi4initEmh:000000000000003e .Loc.154
C:\Users\kenne\AppData\Local\Temp\cc6xNdAw.s:668    .text._ZN3Twi4initEmh:000000000000003e .Loc.155
C:\Users\kenne\AppData\Local\Temp\cc6xNdAw.s:670    .text._ZN3Twi4initEmh:0000000000000042 .Loc.156
C:\Users\kenne\AppData\Local\Temp\cc6xNdAw.s:678    .text._ZN3Twi4initEmh:000000000000004e .Loc.157
C:\Users\kenne\AppData\Local\Temp\cc6xNdAw.s:679    .text._ZN3Twi4initEmh:0000000000000050 L0
C:\Users\kenne\AppData\Local\Temp\cc6xNdAw.s:681    .text._ZN3Twi4initEmh:0000000000000052 .Loc.158
C:\Users\kenne\AppData\Local\Temp\cc6xNdAw.s:689    .text._ZN3Twi4initEmh:0000000000000062 L0
C:\Users\kenne\AppData\Local\Temp\cc6xNdAw.s:691    .text._ZN3Twi4initEmh:0000000000000064 .Loc.159
C:\Users\kenne\AppData\Local\Temp\cc6xNdAw.s:693    .text._ZN3Twi4initEmh:0000000000000068 L0
C:\Users\kenne\AppData\Local\Temp\cc6xNdAw.s:695    .text._ZN3Twi4initEmh:000000000000006a .Loc.160
C:\Users\kenne\AppData\Local\Temp\cc6xNdAw.s:697    .text._ZN3Twi4initEmh:000000000000006e L0
C:\Users\kenne\AppData\Local\Temp\cc6xNdAw.s:699    .text._ZN3Twi4initEmh:0000000000000070 .Loc.161
GAS LISTING C:\Users\kenne\AppData\Local\Temp\cc6xNdAw.s 			page 79


C:\Users\kenne\AppData\Local\Temp\cc6xNdAw.s:700    .text._ZN3Twi4initEmh:0000000000000070 .Loc.162
C:\Users\kenne\AppData\Local\Temp\cc6xNdAw.s:705    .text._ZN3Twi4initEmh:0000000000000078 .Loc.163
C:\Users\kenne\AppData\Local\Temp\cc6xNdAw.s:708    .text._ZN3Twi4initEmh:000000000000007c .Loc.164
C:\Users\kenne\AppData\Local\Temp\cc6xNdAw.s:709    .text._ZN3Twi4initEmh:000000000000007c .Loc.165
C:\Users\kenne\AppData\Local\Temp\cc6xNdAw.s:712    .text._ZN3Twi4initEmh:0000000000000080 .Loc.166
C:\Users\kenne\AppData\Local\Temp\cc6xNdAw.s:713    .text._ZN3Twi4initEmh:0000000000000080 .Loc.167
C:\Users\kenne\AppData\Local\Temp\cc6xNdAw.s:719    .text._ZN3Twi4initEmh:0000000000000088 .Loc.168
C:\Users\kenne\AppData\Local\Temp\cc6xNdAw.s:720    .text._ZN3Twi4initEmh:0000000000000088 .Loc.169
C:\Users\kenne\AppData\Local\Temp\cc6xNdAw.s:723    .text._ZN3Twi4initEmh:000000000000008c .Loc.170
C:\Users\kenne\AppData\Local\Temp\cc6xNdAw.s:731    .text._ZN3Twi4initEmh:000000000000009a .Loc.171
C:\Users\kenne\AppData\Local\Temp\cc6xNdAw.s:736    .text._ZN3Twi4initEmh:00000000000000a2 .Loc.172
C:\Users\kenne\AppData\Local\Temp\cc6xNdAw.s:738    .text._ZN3Twi4initEmh:00000000000000a6 L0
C:\Users\kenne\AppData\Local\Temp\cc6xNdAw.s:740    .text._ZN3Twi4initEmh:00000000000000a8 .Loc.173
C:\Users\kenne\AppData\Local\Temp\cc6xNdAw.s:741    .text._ZN3Twi4initEmh:00000000000000a8 .Loc.174
C:\Users\kenne\AppData\Local\Temp\cc6xNdAw.s:744    .text._ZN3Twi4initEmh:00000000000000aa .Loc.175
C:\Users\kenne\AppData\Local\Temp\cc6xNdAw.s:759    .text._ZN3Twi4initEmh:00000000000000c4 .Loc.176
C:\Users\kenne\AppData\Local\Temp\cc6xNdAw.s:765    .text._ZN3Twi4initEmh:00000000000000ce .Loc.177
C:\Users\kenne\AppData\Local\Temp\cc6xNdAw.s:766    .text._ZN3Twi4initEmh:00000000000000ce .Loc.178
C:\Users\kenne\AppData\Local\Temp\cc6xNdAw.s:770    .text._ZN3Twi4initEmh:00000000000000d4 .Loc.179
C:\Users\kenne\AppData\Local\Temp\cc6xNdAw.s:771    .text._ZN3Twi4initEmh:00000000000000d4 .Loc.180
C:\Users\kenne\AppData\Local\Temp\cc6xNdAw.s:775    .text._ZN3Twi4initEmh:00000000000000da .Loc.181
C:\Users\kenne\AppData\Local\Temp\cc6xNdAw.s:776    .text._ZN3Twi4initEmh:00000000000000da .Loc.182
C:\Users\kenne\AppData\Local\Temp\cc6xNdAw.s:786    .text._ZN3Twi4initEmh:00000000000000ea .Loc.183
C:\Users\kenne\AppData\Local\Temp\cc6xNdAw.s:787    .text._ZN3Twi4initEmh:00000000000000ea .Loc.184
C:\Users\kenne\AppData\Local\Temp\cc6xNdAw.s:792    .text._ZN3Twi4initEmh:00000000000000f2 .Loc.185
C:\Users\kenne\AppData\Local\Temp\cc6xNdAw.s:793    .text._ZN3Twi4initEmh:00000000000000f2 .Loc.186
C:\Users\kenne\AppData\Local\Temp\cc6xNdAw.s:794    .text._ZN3Twi4initEmh:00000000000000f2 .Loc.187
C:\Users\kenne\AppData\Local\Temp\cc6xNdAw.s:798    .text._ZN3Twi4initEmh:00000000000000f6 .Loc.188
C:\Users\kenne\AppData\Local\Temp\cc6xNdAw.s:799    .text._ZN3Twi4initEmh:00000000000000f6 .Loc.189
C:\Users\kenne\AppData\Local\Temp\cc6xNdAw.s:804    .text._ZN3Twi4initEmh:00000000000000fc .Loc.190
C:\Users\kenne\AppData\Local\Temp\cc6xNdAw.s:809    .text._ZN3Twi4initEmh:0000000000000104 .Loc.191
C:\Users\kenne\AppData\Local\Temp\cc6xNdAw.s:813    .text._ZN3Twi4initEmh:000000000000010c L0
C:\Users\kenne\AppData\Local\Temp\cc6xNdAw.s:815    .text._ZN3Twi4initEmh:000000000000010e .Loc.192
C:\Users\kenne\AppData\Local\Temp\cc6xNdAw.s:816    .text._ZN3Twi4initEmh:000000000000010e .Loc.193
C:\Users\kenne\AppData\Local\Temp\cc6xNdAw.s:819    .text._ZN3Twi4initEmh:0000000000000110 .Loc.194
C:\Users\kenne\AppData\Local\Temp\cc6xNdAw.s:827    .text._ZN3Twi4initEmh:000000000000011c .Loc.195
C:\Users\kenne\AppData\Local\Temp\cc6xNdAw.s:831    .text._ZN3Twi4initEmh:0000000000000122 .Loc.196
C:\Users\kenne\AppData\Local\Temp\cc6xNdAw.s:836    .text._ZN3Twi4initEmh:0000000000000126 .Loc.197
C:\Users\kenne\AppData\Local\Temp\cc6xNdAw.s:837    .text._ZN3Twi4initEmh:0000000000000126 .Loc.198
C:\Users\kenne\AppData\Local\Temp\cc6xNdAw.s:839    .text._ZN3Twi4initEmh:000000000000012a .Loc.199
C:\Users\kenne\AppData\Local\Temp\cc6xNdAw.s:840    .text._ZN3Twi4initEmh:000000000000012a .Loc.200
C:\Users\kenne\AppData\Local\Temp\cc6xNdAw.s:843    .text._ZN3Twi4initEmh:000000000000012c .Loc.201
C:\Users\kenne\AppData\Local\Temp\cc6xNdAw.s:846    .text._ZN3Twi4initEmh:0000000000000130 .Loc.202
C:\Users\kenne\AppData\Local\Temp\cc6xNdAw.s:852    .text._ZN3Twi4initEmh:000000000000013a .Loc.203
C:\Users\kenne\AppData\Local\Temp\cc6xNdAw.s:853    .text._ZN3Twi4initEmh:000000000000013a .Loc.204
C:\Users\kenne\AppData\Local\Temp\cc6xNdAw.s:859    .text._ZN3Twi4initEmh:0000000000000144 .Loc.205
C:\Users\kenne\AppData\Local\Temp\cc6xNdAw.s:860    .text._ZN3Twi4initEmh:0000000000000144 .Loc.206
C:\Users\kenne\AppData\Local\Temp\cc6xNdAw.s:863    .text._ZN3Twi4initEmh:0000000000000148 .Loc.207
C:\Users\kenne\AppData\Local\Temp\cc6xNdAw.s:864    .text._ZN3Twi4initEmh:0000000000000148 .Loc.208
C:\Users\kenne\AppData\Local\Temp\cc6xNdAw.s:869    .text._ZN3Twi4initEmh:000000000000014c .Loc.209
C:\Users\kenne\AppData\Local\Temp\cc6xNdAw.s:870    .text._ZN3Twi4initEmh:000000000000014c .Loc.210
C:\Users\kenne\AppData\Local\Temp\cc6xNdAw.s:877    .text._ZN3Twi4initEmh:0000000000000158 .Loc.211
C:\Users\kenne\AppData\Local\Temp\cc6xNdAw.s:878    .text._ZN3Twi4initEmh:0000000000000158 .Loc.212
C:\Users\kenne\AppData\Local\Temp\cc6xNdAw.s:883    .text._ZN3Twi4initEmh:000000000000015a .Loc.213
C:\Users\kenne\AppData\Local\Temp\cc6xNdAw.s:900    .text._ZN3Twi4initEmh:0000000000000176 .Loc.214
C:\Users\kenne\AppData\Local\Temp\cc6xNdAw.s:901    .text._ZN3Twi4initEmh:0000000000000176 .Loc.215
C:\Users\kenne\AppData\Local\Temp\cc6xNdAw.s:908    .text._ZN3Twi4initEmh:0000000000000182 .Loc.216
GAS LISTING C:\Users\kenne\AppData\Local\Temp\cc6xNdAw.s 			page 80


C:\Users\kenne\AppData\Local\Temp\cc6xNdAw.s:909    .text._ZN3Twi4initEmh:0000000000000182 .Loc.217
C:\Users\kenne\AppData\Local\Temp\cc6xNdAw.s:913    .text._ZN3Twi4initEmh:0000000000000186 .Loc.218
C:\Users\kenne\AppData\Local\Temp\cc6xNdAw.s:914    .text._ZN3Twi4initEmh:0000000000000186 .Loc.219
C:\Users\kenne\AppData\Local\Temp\cc6xNdAw.s:921    .text._ZN3Twi4initEmh:0000000000000192 .Loc.220
C:\Users\kenne\AppData\Local\Temp\cc6xNdAw.s:922    .text._ZN3Twi4initEmh:0000000000000192 .Loc.221
C:\Users\kenne\AppData\Local\Temp\cc6xNdAw.s:926    .text._ZN3Twi4initEmh:0000000000000196 .Loc.222
C:\Users\kenne\AppData\Local\Temp\cc6xNdAw.s:927    .text._ZN3Twi4initEmh:0000000000000196 .Loc.223
C:\Users\kenne\AppData\Local\Temp\cc6xNdAw.s:934    .text._ZN3Twi4initEmh:00000000000001a2 .Loc.224
C:\Users\kenne\AppData\Local\Temp\cc6xNdAw.s:935    .text._ZN3Twi4initEmh:00000000000001a2 .Loc.225
C:\Users\kenne\AppData\Local\Temp\cc6xNdAw.s:939    .text._ZN3Twi4initEmh:00000000000001a6 .Loc.226
C:\Users\kenne\AppData\Local\Temp\cc6xNdAw.s:940    .text._ZN3Twi4initEmh:00000000000001a6 .Loc.227
C:\Users\kenne\AppData\Local\Temp\cc6xNdAw.s:945    .text._ZN3Twi4initEmh:00000000000001ae .Loc.228
C:\Users\kenne\AppData\Local\Temp\cc6xNdAw.s:946    .text._ZN3Twi4initEmh:00000000000001ae .Loc.229
C:\Users\kenne\AppData\Local\Temp\cc6xNdAw.s:951    .text._ZN3Twi4initEmh:00000000000001b2 .Loc.230
C:\Users\kenne\AppData\Local\Temp\cc6xNdAw.s:956    .text._ZN3Twi4initEmh:00000000000001b8 .Loc.231
C:\Users\kenne\AppData\Local\Temp\cc6xNdAw.s:958    .text._ZN3Twi4initEmh:00000000000001ba .Loc.232
C:\Users\kenne\AppData\Local\Temp\cc6xNdAw.s:959    .text._ZN3Twi4initEmh:00000000000001ba .Loc.233
C:\Users\kenne\AppData\Local\Temp\cc6xNdAw.s:970    .text._ZN3Twi4initEmh:00000000000001cc .Loc.234
C:\Users\kenne\AppData\Local\Temp\cc6xNdAw.s:974    .text._ZN3Twi4initEmh:00000000000001d2 .Loc.235
C:\Users\kenne\AppData\Local\Temp\cc6xNdAw.s:980    .text._ZN3Twi4initEmh:00000000000001d8 .Loc.236
C:\Users\kenne\AppData\Local\Temp\cc6xNdAw.s:985    .text._ZN3Twi4initEmh:00000000000001e0 .Loc.237
C:\Users\kenne\AppData\Local\Temp\cc6xNdAw.s:986    .text._ZN3Twi4initEmh:00000000000001e0 .Loc.238
C:\Users\kenne\AppData\Local\Temp\cc6xNdAw.s:994    .text._ZN3Twi4initEmh:00000000000001ec .Loc.239
C:\Users\kenne\AppData\Local\Temp\cc6xNdAw.s:998    .text._ZN3Twi4initEmh:00000000000001f2 .Loc.240
C:\Users\kenne\AppData\Local\Temp\cc6xNdAw.s:1004   .text._ZN3Twi4initEmh:00000000000001f8 .Loc.241
C:\Users\kenne\AppData\Local\Temp\cc6xNdAw.s:1007   .text._ZN3Twi4initEmh:00000000000001fc L0
C:\Users\kenne\AppData\Local\Temp\cc6xNdAw.s:1013   .text._ZN3Twi10setTimeoutEj:0000000000000000 _ZN3Twi10setTimeoutEj
C:\Users\kenne\AppData\Local\Temp\cc6xNdAw.s:1016   .text._ZN3Twi10setTimeoutEj:0000000000000000 .Loc.242
C:\Users\kenne\AppData\Local\Temp\cc6xNdAw.s:1017   .text._ZN3Twi10setTimeoutEj:0000000000000000 L0
C:\Users\kenne\AppData\Local\Temp\cc6xNdAw.s:1022   .text._ZN3Twi10setTimeoutEj:0000000000000000 .Loc.243
C:\Users\kenne\AppData\Local\Temp\cc6xNdAw.s:1025   .text._ZN3Twi10setTimeoutEj:0000000000000004 .Loc.244
C:\Users\kenne\AppData\Local\Temp\cc6xNdAw.s:1026   .text._ZN3Twi10setTimeoutEj:0000000000000004 .Loc.245
C:\Users\kenne\AppData\Local\Temp\cc6xNdAw.s:1029   .text._ZN3Twi10setTimeoutEj:0000000000000008 .Loc.246
C:\Users\kenne\AppData\Local\Temp\cc6xNdAw.s:1030   .text._ZN3Twi10setTimeoutEj:0000000000000008 .Loc.247
C:\Users\kenne\AppData\Local\Temp\cc6xNdAw.s:1033   .text._ZN3Twi10setTimeoutEj:000000000000000c .Loc.248
C:\Users\kenne\AppData\Local\Temp\cc6xNdAw.s:1034   .text._ZN3Twi10setTimeoutEj:000000000000000c .Loc.249
C:\Users\kenne\AppData\Local\Temp\cc6xNdAw.s:1038   .text._ZN3Twi10setTimeoutEj:000000000000000e .Loc.250
C:\Users\kenne\AppData\Local\Temp\cc6xNdAw.s:1040   .text._ZN3Twi10setTimeoutEj:0000000000000010 L0
C:\Users\kenne\AppData\Local\Temp\cc6xNdAw.s:1046   .text._ZN3Twi16_waitWhileIsBusyEv:0000000000000000 _ZN3Twi16_waitWhileIsBusyEv
C:\Users\kenne\AppData\Local\Temp\cc6xNdAw.s:1049   .text._ZN3Twi16_waitWhileIsBusyEv:0000000000000000 .Loc.251
C:\Users\kenne\AppData\Local\Temp\cc6xNdAw.s:1050   .text._ZN3Twi16_waitWhileIsBusyEv:0000000000000000 L0
C:\Users\kenne\AppData\Local\Temp\cc6xNdAw.s:1051   .text._ZN3Twi16_waitWhileIsBusyEv:0000000000000000 .Loc.252
C:\Users\kenne\AppData\Local\Temp\cc6xNdAw.s:1070   .text._ZN3Twi16_waitWhileIsBusyEv:000000000000000e L0
C:\Users\kenne\AppData\Local\Temp\cc6xNdAw.s:1071   .text._ZN3Twi16_waitWhileIsBusyEv:0000000000000010 L0
C:\Users\kenne\AppData\Local\Temp\cc6xNdAw.s:1072   .text._ZN3Twi16_waitWhileIsBusyEv:0000000000000012 L0
C:\Users\kenne\AppData\Local\Temp\cc6xNdAw.s:1083   .text._ZN3Twi16_waitWhileIsBusyEv:000000000000001a .Loc.253
C:\Users\kenne\AppData\Local\Temp\cc6xNdAw.s:1084   .text._ZN3Twi16_waitWhileIsBusyEv:000000000000001a .Loc.254
C:\Users\kenne\AppData\Local\Temp\cc6xNdAw.s:1085   .text._ZN3Twi16_waitWhileIsBusyEv:000000000000001a .Loc.255
C:\Users\kenne\AppData\Local\Temp\cc6xNdAw.s:1086   .text._ZN3Twi16_waitWhileIsBusyEv:000000000000001a .Loc.256
C:\Users\kenne\AppData\Local\Temp\cc6xNdAw.s:1093   .text._ZN3Twi16_waitWhileIsBusyEv:0000000000000024 .Loc.257
C:\Users\kenne\AppData\Local\Temp\cc6xNdAw.s:1096   .text._ZN3Twi16_waitWhileIsBusyEv:0000000000000028 .Loc.258
C:\Users\kenne\AppData\Local\Temp\cc6xNdAw.s:1103   .text._ZN3Twi16_waitWhileIsBusyEv:0000000000000030 .Loc.259
C:\Users\kenne\AppData\Local\Temp\cc6xNdAw.s:1104   .text._ZN3Twi16_waitWhileIsBusyEv:0000000000000030 .Loc.260
C:\Users\kenne\AppData\Local\Temp\cc6xNdAw.s:1105   .text._ZN3Twi16_waitWhileIsBusyEv:0000000000000030 .Loc.261
C:\Users\kenne\AppData\Local\Temp\cc6xNdAw.s:1115   .text._ZN3Twi16_waitWhileIsBusyEv:0000000000000040 .Loc.262
C:\Users\kenne\AppData\Local\Temp\cc6xNdAw.s:1121   .text._ZN3Twi16_waitWhileIsBusyEv:000000000000004a .Loc.263
C:\Users\kenne\AppData\Local\Temp\cc6xNdAw.s:1125   .text._ZN3Twi16_waitWhileIsBusyEv:0000000000000052 .Loc.264
GAS LISTING C:\Users\kenne\AppData\Local\Temp\cc6xNdAw.s 			page 81


C:\Users\kenne\AppData\Local\Temp\cc6xNdAw.s:1126   .text._ZN3Twi16_waitWhileIsBusyEv:0000000000000052 .Loc.265
C:\Users\kenne\AppData\Local\Temp\cc6xNdAw.s:1131   .text._ZN3Twi16_waitWhileIsBusyEv:000000000000005a .Loc.266
C:\Users\kenne\AppData\Local\Temp\cc6xNdAw.s:1132   .text._ZN3Twi16_waitWhileIsBusyEv:000000000000005a .Loc.267
C:\Users\kenne\AppData\Local\Temp\cc6xNdAw.s:1137   .text._ZN3Twi16_waitWhileIsBusyEv:000000000000005e .Loc.268
C:\Users\kenne\AppData\Local\Temp\cc6xNdAw.s:1138   .text._ZN3Twi16_waitWhileIsBusyEv:000000000000005e .Loc.269
C:\Users\kenne\AppData\Local\Temp\cc6xNdAw.s:1147   .text._ZN3Twi16_waitWhileIsBusyEv:000000000000006e .Loc.270
C:\Users\kenne\AppData\Local\Temp\cc6xNdAw.s:1152   .text._ZN3Twi16_waitWhileIsBusyEv:0000000000000076 .Loc.271
C:\Users\kenne\AppData\Local\Temp\cc6xNdAw.s:1162   .text._ZN3Twi16_waitWhileIsBusyEv:0000000000000086 .Loc.272
C:\Users\kenne\AppData\Local\Temp\cc6xNdAw.s:1166   .text._ZN3Twi16_waitWhileIsBusyEv:0000000000000088 .Loc.273
C:\Users\kenne\AppData\Local\Temp\cc6xNdAw.s:1167   .text._ZN3Twi16_waitWhileIsBusyEv:0000000000000088 .Loc.274
C:\Users\kenne\AppData\Local\Temp\cc6xNdAw.s:1176   .text._ZN3Twi16_waitWhileIsBusyEv:0000000000000098 .Loc.275
C:\Users\kenne\AppData\Local\Temp\cc6xNdAw.s:1177   .text._ZN3Twi16_waitWhileIsBusyEv:0000000000000098 .Loc.276
C:\Users\kenne\AppData\Local\Temp\cc6xNdAw.s:1181   .text._ZN3Twi16_waitWhileIsBusyEv:000000000000009a .Loc.277
C:\Users\kenne\AppData\Local\Temp\cc6xNdAw.s:1195   .text._ZN3Twi16_waitWhileIsBusyEv:00000000000000b2 .Loc.278
C:\Users\kenne\AppData\Local\Temp\cc6xNdAw.s:1197   .text._ZN3Twi16_waitWhileIsBusyEv:00000000000000b4 L0
C:\Users\kenne\AppData\Local\Temp\cc6xNdAw.s:1203   .text._ZN3Twi17_startTrasmissionEv:0000000000000000 _ZN3Twi17_startTrasmissionEv
C:\Users\kenne\AppData\Local\Temp\cc6xNdAw.s:1206   .text._ZN3Twi17_startTrasmissionEv:0000000000000000 .Loc.279
C:\Users\kenne\AppData\Local\Temp\cc6xNdAw.s:1207   .text._ZN3Twi17_startTrasmissionEv:0000000000000000 L0
C:\Users\kenne\AppData\Local\Temp\cc6xNdAw.s:1212   .text._ZN3Twi17_startTrasmissionEv:0000000000000000 .Loc.280
C:\Users\kenne\AppData\Local\Temp\cc6xNdAw.s:1215   .text._ZN3Twi17_startTrasmissionEv:0000000000000004 .Loc.281
C:\Users\kenne\AppData\Local\Temp\cc6xNdAw.s:1216   .text._ZN3Twi17_startTrasmissionEv:0000000000000004 .Loc.282
C:\Users\kenne\AppData\Local\Temp\cc6xNdAw.s:1219   .text._ZN3Twi17_startTrasmissionEv:0000000000000006 .Loc.283
C:\Users\kenne\AppData\Local\Temp\cc6xNdAw.s:1222   .text._ZN3Twi17_startTrasmissionEv:000000000000000a .Loc.284
C:\Users\kenne\AppData\Local\Temp\cc6xNdAw.s:1223   .text._ZN3Twi17_startTrasmissionEv:000000000000000a .Loc.285
C:\Users\kenne\AppData\Local\Temp\cc6xNdAw.s:1228   .text._ZN3Twi17_startTrasmissionEv:0000000000000012 .Loc.286
C:\Users\kenne\AppData\Local\Temp\cc6xNdAw.s:1229   .text._ZN3Twi17_startTrasmissionEv:0000000000000012 .Loc.287
C:\Users\kenne\AppData\Local\Temp\cc6xNdAw.s:1232   .text._ZN3Twi17_startTrasmissionEv:0000000000000018 .Loc.288
C:\Users\kenne\AppData\Local\Temp\cc6xNdAw.s:1233   .text._ZN3Twi17_startTrasmissionEv:0000000000000018 .Loc.289
C:\Users\kenne\AppData\Local\Temp\cc6xNdAw.s:1236   .text._ZN3Twi17_startTrasmissionEv:000000000000001c .Loc.290
C:\Users\kenne\AppData\Local\Temp\cc6xNdAw.s:1237   .text._ZN3Twi17_startTrasmissionEv:000000000000001c .Loc.291
C:\Users\kenne\AppData\Local\Temp\cc6xNdAw.s:1241   .text._ZN3Twi17_startTrasmissionEv:0000000000000020 L0
C:\Users\kenne\AppData\Local\Temp\cc6xNdAw.s:1247   .text._ZN3Twi15_readFromBufferEPhh:0000000000000000 _ZN3Twi15_readFromBufferEPhh
C:\Users\kenne\AppData\Local\Temp\cc6xNdAw.s:1250   .text._ZN3Twi15_readFromBufferEPhh:0000000000000000 .Loc.292
C:\Users\kenne\AppData\Local\Temp\cc6xNdAw.s:1251   .text._ZN3Twi15_readFromBufferEPhh:0000000000000000 L0
C:\Users\kenne\AppData\Local\Temp\cc6xNdAw.s:1252   .text._ZN3Twi15_readFromBufferEPhh:0000000000000000 .Loc.293
C:\Users\kenne\AppData\Local\Temp\cc6xNdAw.s:1273   .text._ZN3Twi15_readFromBufferEPhh:0000000000000010 .Loc.294
C:\Users\kenne\AppData\Local\Temp\cc6xNdAw.s:1274   .text._ZN3Twi15_readFromBufferEPhh:0000000000000010 .Loc.295
C:\Users\kenne\AppData\Local\Temp\cc6xNdAw.s:1277   .text._ZN3Twi15_readFromBufferEPhh:0000000000000012 .Loc.296
C:\Users\kenne\AppData\Local\Temp\cc6xNdAw.s:1281   .text._ZN3Twi15_readFromBufferEPhh:0000000000000018 .Loc.297
C:\Users\kenne\AppData\Local\Temp\cc6xNdAw.s:1285   .text._ZN3Twi15_readFromBufferEPhh:000000000000001c .Loc.298
C:\Users\kenne\AppData\Local\Temp\cc6xNdAw.s:1290   .text._ZN3Twi15_readFromBufferEPhh:0000000000000020 .Loc.299
C:\Users\kenne\AppData\Local\Temp\cc6xNdAw.s:1291   .text._ZN3Twi15_readFromBufferEPhh:0000000000000020 .Loc.300
C:\Users\kenne\AppData\Local\Temp\cc6xNdAw.s:1296   .text._ZN3Twi15_readFromBufferEPhh:0000000000000028 .Loc.301
C:\Users\kenne\AppData\Local\Temp\cc6xNdAw.s:1297   .text._ZN3Twi15_readFromBufferEPhh:0000000000000028 .Loc.302
C:\Users\kenne\AppData\Local\Temp\cc6xNdAw.s:1302   .text._ZN3Twi15_readFromBufferEPhh:000000000000002a .Loc.303
C:\Users\kenne\AppData\Local\Temp\cc6xNdAw.s:1303   .text._ZN3Twi15_readFromBufferEPhh:000000000000002a .Loc.304
C:\Users\kenne\AppData\Local\Temp\cc6xNdAw.s:1306   .text._ZN3Twi15_readFromBufferEPhh:000000000000002e .Loc.305
C:\Users\kenne\AppData\Local\Temp\cc6xNdAw.s:1309   .text._ZN3Twi15_readFromBufferEPhh:0000000000000032 .Loc.306
C:\Users\kenne\AppData\Local\Temp\cc6xNdAw.s:1313   .text._ZN3Twi15_readFromBufferEPhh:0000000000000038 .Loc.307
C:\Users\kenne\AppData\Local\Temp\cc6xNdAw.s:1317   .text._ZN3Twi15_readFromBufferEPhh:000000000000003e .Loc.308
C:\Users\kenne\AppData\Local\Temp\cc6xNdAw.s:1319   .text._ZN3Twi15_readFromBufferEPhh:0000000000000040 .Loc.309
C:\Users\kenne\AppData\Local\Temp\cc6xNdAw.s:1323   .text._ZN3Twi15_readFromBufferEPhh:0000000000000042 .Loc.310
C:\Users\kenne\AppData\Local\Temp\cc6xNdAw.s:1327   .text._ZN3Twi15_readFromBufferEPhh:0000000000000046 .Loc.311
C:\Users\kenne\AppData\Local\Temp\cc6xNdAw.s:1328   .text._ZN3Twi15_readFromBufferEPhh:0000000000000046 .Loc.312
C:\Users\kenne\AppData\Local\Temp\cc6xNdAw.s:1331   .text._ZN3Twi15_readFromBufferEPhh:000000000000004a .Loc.313
C:\Users\kenne\AppData\Local\Temp\cc6xNdAw.s:1335   .text._ZN3Twi15_readFromBufferEPhh:000000000000004a .Loc.314
C:\Users\kenne\AppData\Local\Temp\cc6xNdAw.s:1341   .text._ZN3Twi15_readFromBufferEPhh:0000000000000054 L0
GAS LISTING C:\Users\kenne\AppData\Local\Temp\cc6xNdAw.s 			page 82


C:\Users\kenne\AppData\Local\Temp\cc6xNdAw.s:1347   .text._ZN3Twi8sendDataEhNS_9OperationEhPhh:0000000000000000 _ZN3Twi8sendDataEhNS_9OperationEhPhh
C:\Users\kenne\AppData\Local\Temp\cc6xNdAw.s:1350   .text._ZN3Twi8sendDataEhNS_9OperationEhPhh:0000000000000000 .Loc.315
C:\Users\kenne\AppData\Local\Temp\cc6xNdAw.s:1351   .text._ZN3Twi8sendDataEhNS_9OperationEhPhh:0000000000000000 L0
C:\Users\kenne\AppData\Local\Temp\cc6xNdAw.s:1352   .text._ZN3Twi8sendDataEhNS_9OperationEhPhh:0000000000000000 .Loc.316
C:\Users\kenne\AppData\Local\Temp\cc6xNdAw.s:1394   .text._ZN3Twi8sendDataEhNS_9OperationEhPhh:0000000000000022 .Loc.317
C:\Users\kenne\AppData\Local\Temp\cc6xNdAw.s:1395   .text._ZN3Twi8sendDataEhNS_9OperationEhPhh:0000000000000022 .Loc.318
C:\Users\kenne\AppData\Local\Temp\cc6xNdAw.s:1399   .text._ZN3Twi8sendDataEhNS_9OperationEhPhh:0000000000000028 .Loc.319
C:\Users\kenne\AppData\Local\Temp\cc6xNdAw.s:1402   .text._ZN3Twi8sendDataEhNS_9OperationEhPhh:000000000000002c .Loc.320
C:\Users\kenne\AppData\Local\Temp\cc6xNdAw.s:1405   .text._ZN3Twi8sendDataEhNS_9OperationEhPhh:0000000000000030 .Loc.321
C:\Users\kenne\AppData\Local\Temp\cc6xNdAw.s:1410   .text._ZN3Twi8sendDataEhNS_9OperationEhPhh:0000000000000036 .Loc.322
C:\Users\kenne\AppData\Local\Temp\cc6xNdAw.s:1411   .text._ZN3Twi8sendDataEhNS_9OperationEhPhh:0000000000000036 .Loc.323
C:\Users\kenne\AppData\Local\Temp\cc6xNdAw.s:1414   .text._ZN3Twi8sendDataEhNS_9OperationEhPhh:0000000000000038 .Loc.324
C:\Users\kenne\AppData\Local\Temp\cc6xNdAw.s:1417   .text._ZN3Twi8sendDataEhNS_9OperationEhPhh:000000000000003c .Loc.325
C:\Users\kenne\AppData\Local\Temp\cc6xNdAw.s:1419   .text._ZN3Twi8sendDataEhNS_9OperationEhPhh:000000000000003e .Loc.326
C:\Users\kenne\AppData\Local\Temp\cc6xNdAw.s:1422   .text._ZN3Twi8sendDataEhNS_9OperationEhPhh:0000000000000042 .Loc.327
C:\Users\kenne\AppData\Local\Temp\cc6xNdAw.s:1427   .text._ZN3Twi8sendDataEhNS_9OperationEhPhh:0000000000000046 .Loc.328
C:\Users\kenne\AppData\Local\Temp\cc6xNdAw.s:1428   .text._ZN3Twi8sendDataEhNS_9OperationEhPhh:0000000000000046 .Loc.329
C:\Users\kenne\AppData\Local\Temp\cc6xNdAw.s:1431   .text._ZN3Twi8sendDataEhNS_9OperationEhPhh:000000000000004a .Loc.330
C:\Users\kenne\AppData\Local\Temp\cc6xNdAw.s:1434   .text._ZN3Twi8sendDataEhNS_9OperationEhPhh:000000000000004e .Loc.331
C:\Users\kenne\AppData\Local\Temp\cc6xNdAw.s:1436   .text._ZN3Twi8sendDataEhNS_9OperationEhPhh:0000000000000050 .Loc.332
C:\Users\kenne\AppData\Local\Temp\cc6xNdAw.s:1437   .text._ZN3Twi8sendDataEhNS_9OperationEhPhh:0000000000000050 .Loc.333
C:\Users\kenne\AppData\Local\Temp\cc6xNdAw.s:1440   .text._ZN3Twi8sendDataEhNS_9OperationEhPhh:0000000000000054 .Loc.334
C:\Users\kenne\AppData\Local\Temp\cc6xNdAw.s:1442   .text._ZN3Twi8sendDataEhNS_9OperationEhPhh:0000000000000056 .Loc.335
C:\Users\kenne\AppData\Local\Temp\cc6xNdAw.s:1445   .text._ZN3Twi8sendDataEhNS_9OperationEhPhh:0000000000000056 .Loc.336
C:\Users\kenne\AppData\Local\Temp\cc6xNdAw.s:1447   .text._ZN3Twi8sendDataEhNS_9OperationEhPhh:0000000000000058 .Loc.337
C:\Users\kenne\AppData\Local\Temp\cc6xNdAw.s:1451   .text._ZN3Twi8sendDataEhNS_9OperationEhPhh:000000000000005a .Loc.338
C:\Users\kenne\AppData\Local\Temp\cc6xNdAw.s:1455   .text._ZN3Twi8sendDataEhNS_9OperationEhPhh:000000000000005a .Loc.339
C:\Users\kenne\AppData\Local\Temp\cc6xNdAw.s:1456   .text._ZN3Twi8sendDataEhNS_9OperationEhPhh:000000000000005a .Loc.340
C:\Users\kenne\AppData\Local\Temp\cc6xNdAw.s:1460   .text._ZN3Twi8sendDataEhNS_9OperationEhPhh:000000000000005e .Loc.341
C:\Users\kenne\AppData\Local\Temp\cc6xNdAw.s:1463   .text._ZN3Twi8sendDataEhNS_9OperationEhPhh:0000000000000062 .Loc.342
C:\Users\kenne\AppData\Local\Temp\cc6xNdAw.s:1466   .text._ZN3Twi8sendDataEhNS_9OperationEhPhh:0000000000000062 .Loc.343
C:\Users\kenne\AppData\Local\Temp\cc6xNdAw.s:1474   .text._ZN3Twi8sendDataEhNS_9OperationEhPhh:000000000000006c .Loc.344
C:\Users\kenne\AppData\Local\Temp\cc6xNdAw.s:1477   .text._ZN3Twi8sendDataEhNS_9OperationEhPhh:000000000000006e .Loc.345
C:\Users\kenne\AppData\Local\Temp\cc6xNdAw.s:1483   .text._ZN3Twi8sendDataEhNS_9OperationEhPhh:0000000000000076 .Loc.346
C:\Users\kenne\AppData\Local\Temp\cc6xNdAw.s:1486   .text._ZN3Twi8sendDataEhNS_9OperationEhPhh:0000000000000078 .Loc.347
C:\Users\kenne\AppData\Local\Temp\cc6xNdAw.s:1490   .text._ZN3Twi8sendDataEhNS_9OperationEhPhh:000000000000007a .Loc.348
C:\Users\kenne\AppData\Local\Temp\cc6xNdAw.s:1491   .text._ZN3Twi8sendDataEhNS_9OperationEhPhh:000000000000007a .Loc.349
C:\Users\kenne\AppData\Local\Temp\cc6xNdAw.s:1495   .text._ZN3Twi8sendDataEhNS_9OperationEhPhh:000000000000007e .Loc.350
C:\Users\kenne\AppData\Local\Temp\cc6xNdAw.s:1498   .text._ZN3Twi8sendDataEhNS_9OperationEhPhh:0000000000000082 .Loc.351
C:\Users\kenne\AppData\Local\Temp\cc6xNdAw.s:1499   .text._ZN3Twi8sendDataEhNS_9OperationEhPhh:0000000000000082 .Loc.352
C:\Users\kenne\AppData\Local\Temp\cc6xNdAw.s:1507   .text._ZN3Twi8sendDataEhNS_9OperationEhPhh:0000000000000086 .Loc.353
C:\Users\kenne\AppData\Local\Temp\cc6xNdAw.s:1508   .text._ZN3Twi8sendDataEhNS_9OperationEhPhh:0000000000000086 .Loc.354
C:\Users\kenne\AppData\Local\Temp\cc6xNdAw.s:1511   .text._ZN3Twi8sendDataEhNS_9OperationEhPhh:000000000000008a .Loc.355
C:\Users\kenne\AppData\Local\Temp\cc6xNdAw.s:1514   .text._ZN3Twi8sendDataEhNS_9OperationEhPhh:000000000000008e .Loc.356
C:\Users\kenne\AppData\Local\Temp\cc6xNdAw.s:1520   .text._ZN3Twi8sendDataEhNS_9OperationEhPhh:0000000000000098 .Loc.357
C:\Users\kenne\AppData\Local\Temp\cc6xNdAw.s:1525   .text._ZN3Twi8sendDataEhNS_9OperationEhPhh:00000000000000a0 .Loc.358
C:\Users\kenne\AppData\Local\Temp\cc6xNdAw.s:1527   .text._ZN3Twi8sendDataEhNS_9OperationEhPhh:00000000000000a2 .Loc.359
C:\Users\kenne\AppData\Local\Temp\cc6xNdAw.s:1531   .text._ZN3Twi8sendDataEhNS_9OperationEhPhh:00000000000000a4 .Loc.360
C:\Users\kenne\AppData\Local\Temp\cc6xNdAw.s:1535   .text._ZN3Twi8sendDataEhNS_9OperationEhPhh:00000000000000a8 .Loc.361
C:\Users\kenne\AppData\Local\Temp\cc6xNdAw.s:1536   .text._ZN3Twi8sendDataEhNS_9OperationEhPhh:00000000000000a8 .Loc.362
C:\Users\kenne\AppData\Local\Temp\cc6xNdAw.s:1539   .text._ZN3Twi8sendDataEhNS_9OperationEhPhh:00000000000000aa .Loc.363
C:\Users\kenne\AppData\Local\Temp\cc6xNdAw.s:1541   .text._ZN3Twi8sendDataEhNS_9OperationEhPhh:00000000000000ac .Loc.364
C:\Users\kenne\AppData\Local\Temp\cc6xNdAw.s:1546   .text._ZN3Twi8sendDataEhNS_9OperationEhPhh:00000000000000b2 .Loc.365
C:\Users\kenne\AppData\Local\Temp\cc6xNdAw.s:1557   .text._ZN3Twi8sendDataEhNS_9OperationEhPhh:00000000000000c6 .Loc.366
C:\Users\kenne\AppData\Local\Temp\cc6xNdAw.s:1558   .text._ZN3Twi8sendDataEhNS_9OperationEhPhh:00000000000000c6 .Loc.367
C:\Users\kenne\AppData\Local\Temp\cc6xNdAw.s:1563   .text._ZN3Twi8sendDataEhNS_9OperationEhPhh:00000000000000cc .Loc.368
C:\Users\kenne\AppData\Local\Temp\cc6xNdAw.s:1566   .text._ZN3Twi8sendDataEhNS_9OperationEhPhh:00000000000000cc .Loc.369
GAS LISTING C:\Users\kenne\AppData\Local\Temp\cc6xNdAw.s 			page 83


C:\Users\kenne\AppData\Local\Temp\cc6xNdAw.s:1567   .text._ZN3Twi8sendDataEhNS_9OperationEhPhh:00000000000000cc .Loc.370
C:\Users\kenne\AppData\Local\Temp\cc6xNdAw.s:1570   .text._ZN3Twi8sendDataEhNS_9OperationEhPhh:00000000000000d0 .Loc.371
C:\Users\kenne\AppData\Local\Temp\cc6xNdAw.s:1571   .text._ZN3Twi8sendDataEhNS_9OperationEhPhh:00000000000000d0 .Loc.372
C:\Users\kenne\AppData\Local\Temp\cc6xNdAw.s:1576   .text._ZN3Twi8sendDataEhNS_9OperationEhPhh:00000000000000d2 .Loc.373
C:\Users\kenne\AppData\Local\Temp\cc6xNdAw.s:1577   .text._ZN3Twi8sendDataEhNS_9OperationEhPhh:00000000000000d2 .Loc.374
C:\Users\kenne\AppData\Local\Temp\cc6xNdAw.s:1580   .text._ZN3Twi8sendDataEhNS_9OperationEhPhh:00000000000000d6 .Loc.375
C:\Users\kenne\AppData\Local\Temp\cc6xNdAw.s:1583   .text._ZN3Twi8sendDataEhNS_9OperationEhPhh:00000000000000da .Loc.376
C:\Users\kenne\AppData\Local\Temp\cc6xNdAw.s:1585   .text._ZN3Twi8sendDataEhNS_9OperationEhPhh:00000000000000dc .Loc.377
C:\Users\kenne\AppData\Local\Temp\cc6xNdAw.s:1586   .text._ZN3Twi8sendDataEhNS_9OperationEhPhh:00000000000000dc .Loc.378
C:\Users\kenne\AppData\Local\Temp\cc6xNdAw.s:1589   .text._ZN3Twi8sendDataEhNS_9OperationEhPhh:00000000000000e0 .Loc.379
C:\Users\kenne\AppData\Local\Temp\cc6xNdAw.s:1591   .text._ZN3Twi8sendDataEhNS_9OperationEhPhh:00000000000000e2 .Loc.380
C:\Users\kenne\AppData\Local\Temp\cc6xNdAw.s:1592   .text._ZN3Twi8sendDataEhNS_9OperationEhPhh:00000000000000e2 .Loc.381
C:\Users\kenne\AppData\Local\Temp\cc6xNdAw.s:1600   .text._ZN3Twi8sendDataEhNS_9OperationEhPhh:00000000000000f0 .Loc.382
C:\Users\kenne\AppData\Local\Temp\cc6xNdAw.s:1601   .text._ZN3Twi8sendDataEhNS_9OperationEhPhh:00000000000000f0 .Loc.383
C:\Users\kenne\AppData\Local\Temp\cc6xNdAw.s:1605   .text._ZN3Twi8sendDataEhNS_9OperationEhPhh:00000000000000f6 .Loc.384
C:\Users\kenne\AppData\Local\Temp\cc6xNdAw.s:1606   .text._ZN3Twi8sendDataEhNS_9OperationEhPhh:00000000000000f6 .Loc.385
C:\Users\kenne\AppData\Local\Temp\cc6xNdAw.s:1610   .text._ZN3Twi8sendDataEhNS_9OperationEhPhh:00000000000000fc .Loc.386
C:\Users\kenne\AppData\Local\Temp\cc6xNdAw.s:1613   .text._ZN3Twi8sendDataEhNS_9OperationEhPhh:0000000000000100 .Loc.387
C:\Users\kenne\AppData\Local\Temp\cc6xNdAw.s:1617   .text._ZN3Twi8sendDataEhNS_9OperationEhPhh:0000000000000104 .Loc.388
C:\Users\kenne\AppData\Local\Temp\cc6xNdAw.s:1618   .text._ZN3Twi8sendDataEhNS_9OperationEhPhh:0000000000000104 .Loc.389
C:\Users\kenne\AppData\Local\Temp\cc6xNdAw.s:1621   .text._ZN3Twi8sendDataEhNS_9OperationEhPhh:0000000000000108 .Loc.390
C:\Users\kenne\AppData\Local\Temp\cc6xNdAw.s:1624   .text._ZN3Twi8sendDataEhNS_9OperationEhPhh:000000000000010c .Loc.391
C:\Users\kenne\AppData\Local\Temp\cc6xNdAw.s:1627   .text._ZN3Twi8sendDataEhNS_9OperationEhPhh:0000000000000110 .Loc.392
C:\Users\kenne\AppData\Local\Temp\cc6xNdAw.s:1629   .text._ZN3Twi8sendDataEhNS_9OperationEhPhh:0000000000000112 .Loc.393
C:\Users\kenne\AppData\Local\Temp\cc6xNdAw.s:1631   .text._ZN3Twi8sendDataEhNS_9OperationEhPhh:0000000000000114 .Loc.394
C:\Users\kenne\AppData\Local\Temp\cc6xNdAw.s:1632   .text._ZN3Twi8sendDataEhNS_9OperationEhPhh:0000000000000114 .Loc.395
C:\Users\kenne\AppData\Local\Temp\cc6xNdAw.s:1635   .text._ZN3Twi8sendDataEhNS_9OperationEhPhh:0000000000000118 .Loc.396
C:\Users\kenne\AppData\Local\Temp\cc6xNdAw.s:1650   .text._ZN3Twi8sendDataEhNS_9OperationEhPhh:0000000000000134 .Loc.397
C:\Users\kenne\AppData\Local\Temp\cc6xNdAw.s:1651   .text._ZN3Twi8sendDataEhNS_9OperationEhPhh:0000000000000134 .Loc.398
C:\Users\kenne\AppData\Local\Temp\cc6xNdAw.s:1655   .text._ZN3Twi8sendDataEhNS_9OperationEhPhh:000000000000013a .Loc.399
C:\Users\kenne\AppData\Local\Temp\cc6xNdAw.s:1656   .text._ZN3Twi8sendDataEhNS_9OperationEhPhh:000000000000013a .Loc.400
C:\Users\kenne\AppData\Local\Temp\cc6xNdAw.s:1660   .text._ZN3Twi8sendDataEhNS_9OperationEhPhh:0000000000000140 .Loc.401
C:\Users\kenne\AppData\Local\Temp\cc6xNdAw.s:1663   .text._ZN3Twi8sendDataEhNS_9OperationEhPhh:0000000000000144 .Loc.402
C:\Users\kenne\AppData\Local\Temp\cc6xNdAw.s:1667   .text._ZN3Twi8sendDataEhNS_9OperationEhPhh:0000000000000148 .Loc.403
C:\Users\kenne\AppData\Local\Temp\cc6xNdAw.s:1668   .text._ZN3Twi8sendDataEhNS_9OperationEhPhh:0000000000000148 .Loc.404
C:\Users\kenne\AppData\Local\Temp\cc6xNdAw.s:1674   .text._ZN3Twi8sendDataEhNS_9OperationEhPhh:0000000000000152 .Loc.405
C:\Users\kenne\AppData\Local\Temp\cc6xNdAw.s:1677   .text._ZN3Twi8sendDataEhNS_9OperationEhPhh:0000000000000156 .Loc.406
C:\Users\kenne\AppData\Local\Temp\cc6xNdAw.s:1681   .text._ZN3Twi8sendDataEhNS_9OperationEhPhh:000000000000015a L0
C:\Users\kenne\AppData\Local\Temp\cc6xNdAw.s:1687   .text._ZN3Twi7readRegEhPhj:0000000000000000 _ZN3Twi7readRegEhPhj
C:\Users\kenne\AppData\Local\Temp\cc6xNdAw.s:1690   .text._ZN3Twi7readRegEhPhj:0000000000000000 .Loc.407
C:\Users\kenne\AppData\Local\Temp\cc6xNdAw.s:1691   .text._ZN3Twi7readRegEhPhj:0000000000000000 L0
C:\Users\kenne\AppData\Local\Temp\cc6xNdAw.s:1692   .text._ZN3Twi7readRegEhPhj:0000000000000000 .Loc.408
C:\Users\kenne\AppData\Local\Temp\cc6xNdAw.s:1715   .text._ZN3Twi7readRegEhPhj:0000000000000010 .Loc.409
C:\Users\kenne\AppData\Local\Temp\cc6xNdAw.s:1716   .text._ZN3Twi7readRegEhPhj:0000000000000010 .Loc.410
C:\Users\kenne\AppData\Local\Temp\cc6xNdAw.s:1719   .text._ZN3Twi7readRegEhPhj:0000000000000012 .Loc.411
C:\Users\kenne\AppData\Local\Temp\cc6xNdAw.s:1721   .text._ZN3Twi7readRegEhPhj:0000000000000014 .Loc.412
C:\Users\kenne\AppData\Local\Temp\cc6xNdAw.s:1724   .text._ZN3Twi7readRegEhPhj:0000000000000018 .Loc.413
C:\Users\kenne\AppData\Local\Temp\cc6xNdAw.s:1725   .text._ZN3Twi7readRegEhPhj:0000000000000018 .Loc.414
C:\Users\kenne\AppData\Local\Temp\cc6xNdAw.s:1729   .text._ZN3Twi7readRegEhPhj:000000000000001c .Loc.415
C:\Users\kenne\AppData\Local\Temp\cc6xNdAw.s:1732   .text._ZN3Twi7readRegEhPhj:0000000000000020 .Loc.416
C:\Users\kenne\AppData\Local\Temp\cc6xNdAw.s:1736   .text._ZN3Twi7readRegEhPhj:0000000000000020 .Loc.417
C:\Users\kenne\AppData\Local\Temp\cc6xNdAw.s:1745   .text._ZN3Twi7readRegEhPhj:000000000000002c .Loc.418
C:\Users\kenne\AppData\Local\Temp\cc6xNdAw.s:1746   .text._ZN3Twi7readRegEhPhj:000000000000002c .Loc.419
C:\Users\kenne\AppData\Local\Temp\cc6xNdAw.s:1753   .text._ZN3Twi7readRegEhPhj:0000000000000036 .Loc.420
C:\Users\kenne\AppData\Local\Temp\cc6xNdAw.s:1758   .text._ZN3Twi7readRegEhPhj:000000000000003e .Loc.421
C:\Users\kenne\AppData\Local\Temp\cc6xNdAw.s:1764   .text._ZN3Twi7readRegEhPhj:0000000000000046 .Loc.422
C:\Users\kenne\AppData\Local\Temp\cc6xNdAw.s:1767   .text._ZN3Twi7readRegEhPhj:0000000000000048 .Loc.423
GAS LISTING C:\Users\kenne\AppData\Local\Temp\cc6xNdAw.s 			page 84


C:\Users\kenne\AppData\Local\Temp\cc6xNdAw.s:1771   .text._ZN3Twi7readRegEhPhj:000000000000004e .Loc.424
C:\Users\kenne\AppData\Local\Temp\cc6xNdAw.s:1774   .text._ZN3Twi7readRegEhPhj:0000000000000052 .Loc.425
C:\Users\kenne\AppData\Local\Temp\cc6xNdAw.s:1775   .text._ZN3Twi7readRegEhPhj:0000000000000052 .Loc.426
C:\Users\kenne\AppData\Local\Temp\cc6xNdAw.s:1778   .text._ZN3Twi7readRegEhPhj:0000000000000056 .Loc.427
C:\Users\kenne\AppData\Local\Temp\cc6xNdAw.s:1779   .text._ZN3Twi7readRegEhPhj:0000000000000056 .Loc.428
C:\Users\kenne\AppData\Local\Temp\cc6xNdAw.s:1781   .text._ZN3Twi7readRegEhPhj:0000000000000058 L0
C:\Users\kenne\AppData\Local\Temp\cc6xNdAw.s:1787   .text._ZN3Twi8writeRegEhPKhj:0000000000000000 _ZN3Twi8writeRegEhPKhj
C:\Users\kenne\AppData\Local\Temp\cc6xNdAw.s:1790   .text._ZN3Twi8writeRegEhPKhj:0000000000000000 .Loc.429
C:\Users\kenne\AppData\Local\Temp\cc6xNdAw.s:1791   .text._ZN3Twi8writeRegEhPKhj:0000000000000000 L0
C:\Users\kenne\AppData\Local\Temp\cc6xNdAw.s:1792   .text._ZN3Twi8writeRegEhPKhj:0000000000000000 .Loc.430
C:\Users\kenne\AppData\Local\Temp\cc6xNdAw.s:1815   .text._ZN3Twi8writeRegEhPKhj:0000000000000010 .Loc.431
C:\Users\kenne\AppData\Local\Temp\cc6xNdAw.s:1816   .text._ZN3Twi8writeRegEhPKhj:0000000000000010 .Loc.432
C:\Users\kenne\AppData\Local\Temp\cc6xNdAw.s:1819   .text._ZN3Twi8writeRegEhPKhj:0000000000000012 .Loc.433
C:\Users\kenne\AppData\Local\Temp\cc6xNdAw.s:1821   .text._ZN3Twi8writeRegEhPKhj:0000000000000014 .Loc.434
C:\Users\kenne\AppData\Local\Temp\cc6xNdAw.s:1824   .text._ZN3Twi8writeRegEhPKhj:0000000000000018 .Loc.435
C:\Users\kenne\AppData\Local\Temp\cc6xNdAw.s:1825   .text._ZN3Twi8writeRegEhPKhj:0000000000000018 .Loc.436
C:\Users\kenne\AppData\Local\Temp\cc6xNdAw.s:1829   .text._ZN3Twi8writeRegEhPKhj:000000000000001c .Loc.437
C:\Users\kenne\AppData\Local\Temp\cc6xNdAw.s:1832   .text._ZN3Twi8writeRegEhPKhj:0000000000000020 .Loc.438
C:\Users\kenne\AppData\Local\Temp\cc6xNdAw.s:1836   .text._ZN3Twi8writeRegEhPKhj:0000000000000020 .Loc.439
C:\Users\kenne\AppData\Local\Temp\cc6xNdAw.s:1845   .text._ZN3Twi8writeRegEhPKhj:000000000000002c .Loc.440
C:\Users\kenne\AppData\Local\Temp\cc6xNdAw.s:1846   .text._ZN3Twi8writeRegEhPKhj:000000000000002c .Loc.441
C:\Users\kenne\AppData\Local\Temp\cc6xNdAw.s:1853   .text._ZN3Twi8writeRegEhPKhj:0000000000000036 .Loc.442
C:\Users\kenne\AppData\Local\Temp\cc6xNdAw.s:1858   .text._ZN3Twi8writeRegEhPKhj:000000000000003e .Loc.443
C:\Users\kenne\AppData\Local\Temp\cc6xNdAw.s:1864   .text._ZN3Twi8writeRegEhPKhj:0000000000000046 .Loc.444
C:\Users\kenne\AppData\Local\Temp\cc6xNdAw.s:1867   .text._ZN3Twi8writeRegEhPKhj:0000000000000048 .Loc.445
C:\Users\kenne\AppData\Local\Temp\cc6xNdAw.s:1871   .text._ZN3Twi8writeRegEhPKhj:000000000000004e .Loc.446
C:\Users\kenne\AppData\Local\Temp\cc6xNdAw.s:1874   .text._ZN3Twi8writeRegEhPKhj:0000000000000052 .Loc.447
C:\Users\kenne\AppData\Local\Temp\cc6xNdAw.s:1875   .text._ZN3Twi8writeRegEhPKhj:0000000000000052 .Loc.448
C:\Users\kenne\AppData\Local\Temp\cc6xNdAw.s:1878   .text._ZN3Twi8writeRegEhPKhj:0000000000000056 .Loc.449
C:\Users\kenne\AppData\Local\Temp\cc6xNdAw.s:1879   .text._ZN3Twi8writeRegEhPKhj:0000000000000056 .Loc.450
C:\Users\kenne\AppData\Local\Temp\cc6xNdAw.s:1881   .text._ZN3Twi8writeRegEhPKhj:0000000000000058 L0
C:\Users\kenne\AppData\Local\Temp\cc6xNdAw.s:1887   .text._ZN3Twi16interruptHandlerEv:0000000000000000 _ZN3Twi16interruptHandlerEv
C:\Users\kenne\AppData\Local\Temp\cc6xNdAw.s:1890   .text._ZN3Twi16interruptHandlerEv:0000000000000000 .Loc.451
C:\Users\kenne\AppData\Local\Temp\cc6xNdAw.s:1891   .text._ZN3Twi16interruptHandlerEv:0000000000000000 L0
C:\Users\kenne\AppData\Local\Temp\cc6xNdAw.s:1896   .text._ZN3Twi16interruptHandlerEv:0000000000000000 .Loc.452
C:\Users\kenne\AppData\Local\Temp\cc6xNdAw.s:1899   .text._ZN3Twi16interruptHandlerEv:0000000000000004 .Loc.453
C:\Users\kenne\AppData\Local\Temp\cc6xNdAw.s:1900   .text._ZN3Twi16interruptHandlerEv:0000000000000004 .Loc.454
C:\Users\kenne\AppData\Local\Temp\cc6xNdAw.s:1901   .text._ZN3Twi16interruptHandlerEv:0000000000000004 .Loc.455
C:\Users\kenne\AppData\Local\Temp\cc6xNdAw.s:1904   .text._ZN3Twi16interruptHandlerEv:0000000000000008 .Loc.456
C:\Users\kenne\AppData\Local\Temp\cc6xNdAw.s:1907   .text._ZN3Twi16interruptHandlerEv:000000000000000a .Loc.457
C:\Users\kenne\AppData\Local\Temp\cc6xNdAw.s:1909   .text._ZN3Twi16interruptHandlerEv:000000000000000e L0
C:\Users\kenne\AppData\Local\Temp\cc6xNdAw.s:1913   .text._ZN3Twi16interruptHandlerEv:0000000000000016 L0
C:\Users\kenne\AppData\Local\Temp\cc6xNdAw.s:1917   .text._ZN3Twi16interruptHandlerEv:000000000000001c .Loc.458
C:\Users\kenne\AppData\Local\Temp\cc6xNdAw.s:1918   .text._ZN3Twi16interruptHandlerEv:000000000000001c .Loc.459
C:\Users\kenne\AppData\Local\Temp\cc6xNdAw.s:1919   .text._ZN3Twi16interruptHandlerEv:000000000000001c .Loc.460
C:\Users\kenne\AppData\Local\Temp\cc6xNdAw.s:1922   .text._ZN3Twi16interruptHandlerEv:0000000000000020 .Loc.461
C:\Users\kenne\AppData\Local\Temp\cc6xNdAw.s:2281   .bss._ZZN3Twi16interruptHandlerEvE16twiBufferPointer:0000000000000000 _ZZN3Twi16interruptHandlerEvE16twiBufferPointer
C:\Users\kenne\AppData\Local\Temp\cc6xNdAw.s:1925   .text._ZN3Twi16interruptHandlerEv:0000000000000024 .Loc.462
C:\Users\kenne\AppData\Local\Temp\cc6xNdAw.s:1928   .text._ZN3Twi16interruptHandlerEv:0000000000000028 .Loc.463
C:\Users\kenne\AppData\Local\Temp\cc6xNdAw.s:1930   .text._ZN3Twi16interruptHandlerEv:000000000000002c .Loc.464
C:\Users\kenne\AppData\Local\Temp\cc6xNdAw.s:1932   .text._ZN3Twi16interruptHandlerEv:000000000000002e .Loc.465
C:\Users\kenne\AppData\Local\Temp\cc6xNdAw.s:1933   .text._ZN3Twi16interruptHandlerEv:000000000000002e .Loc.466
C:\Users\kenne\AppData\Local\Temp\cc6xNdAw.s:1937   .text._ZN3Twi16interruptHandlerEv:0000000000000034 .Loc.467
C:\Users\kenne\AppData\Local\Temp\cc6xNdAw.s:1938   .text._ZN3Twi16interruptHandlerEv:0000000000000034 .Loc.468
C:\Users\kenne\AppData\Local\Temp\cc6xNdAw.s:1941   .text._ZN3Twi16interruptHandlerEv:000000000000003a .Loc.469
C:\Users\kenne\AppData\Local\Temp\cc6xNdAw.s:1945   .text._ZN3Twi16interruptHandlerEv:000000000000003c .Loc.470
C:\Users\kenne\AppData\Local\Temp\cc6xNdAw.s:1950   .text._ZN3Twi16interruptHandlerEv:0000000000000046 L0
GAS LISTING C:\Users\kenne\AppData\Local\Temp\cc6xNdAw.s 			page 85


C:\Users\kenne\AppData\Local\Temp\cc6xNdAw.s:1953   .text._ZN3Twi16interruptHandlerEv:0000000000000048 .Loc.471
C:\Users\kenne\AppData\Local\Temp\cc6xNdAw.s:1954   .text._ZN3Twi16interruptHandlerEv:0000000000000048 .Loc.472
C:\Users\kenne\AppData\Local\Temp\cc6xNdAw.s:1955   .text._ZN3Twi16interruptHandlerEv:0000000000000048 .Loc.473
C:\Users\kenne\AppData\Local\Temp\cc6xNdAw.s:1956   .text._ZN3Twi16interruptHandlerEv:0000000000000048 .Loc.474
C:\Users\kenne\AppData\Local\Temp\cc6xNdAw.s:1963   .text._ZN3Twi16interruptHandlerEv:0000000000000052 .Loc.475
C:\Users\kenne\AppData\Local\Temp\cc6xNdAw.s:1967   .text._ZN3Twi16interruptHandlerEv:0000000000000058 .Loc.476
C:\Users\kenne\AppData\Local\Temp\cc6xNdAw.s:1969   .text._ZN3Twi16interruptHandlerEv:000000000000005c .Loc.477
C:\Users\kenne\AppData\Local\Temp\cc6xNdAw.s:1972   .text._ZN3Twi16interruptHandlerEv:0000000000000060 .Loc.478
C:\Users\kenne\AppData\Local\Temp\cc6xNdAw.s:1973   .text._ZN3Twi16interruptHandlerEv:0000000000000060 .Loc.479
C:\Users\kenne\AppData\Local\Temp\cc6xNdAw.s:1977   .text._ZN3Twi16interruptHandlerEv:0000000000000066 .Loc.480
C:\Users\kenne\AppData\Local\Temp\cc6xNdAw.s:1981   .text._ZN3Twi16interruptHandlerEv:000000000000006e .Loc.481
C:\Users\kenne\AppData\Local\Temp\cc6xNdAw.s:1985   .text._ZN3Twi16interruptHandlerEv:0000000000000074 .Loc.482
C:\Users\kenne\AppData\Local\Temp\cc6xNdAw.s:1987   .text._ZN3Twi16interruptHandlerEv:0000000000000078 .Loc.483
C:\Users\kenne\AppData\Local\Temp\cc6xNdAw.s:1988   .text._ZN3Twi16interruptHandlerEv:0000000000000078 .Loc.484
C:\Users\kenne\AppData\Local\Temp\cc6xNdAw.s:1994   .text._ZN3Twi16interruptHandlerEv:0000000000000080 .Loc.485
C:\Users\kenne\AppData\Local\Temp\cc6xNdAw.s:2000   .text._ZN3Twi16interruptHandlerEv:0000000000000088 .Loc.486
C:\Users\kenne\AppData\Local\Temp\cc6xNdAw.s:2001   .text._ZN3Twi16interruptHandlerEv:0000000000000088 .Loc.487
C:\Users\kenne\AppData\Local\Temp\cc6xNdAw.s:2002   .text._ZN3Twi16interruptHandlerEv:0000000000000088 .Loc.488
C:\Users\kenne\AppData\Local\Temp\cc6xNdAw.s:2003   .text._ZN3Twi16interruptHandlerEv:0000000000000088 .Loc.489
C:\Users\kenne\AppData\Local\Temp\cc6xNdAw.s:2007   .text._ZN3Twi16interruptHandlerEv:000000000000008e .Loc.490
C:\Users\kenne\AppData\Local\Temp\cc6xNdAw.s:2012   .text._ZN3Twi16interruptHandlerEv:0000000000000092 .Loc.491
C:\Users\kenne\AppData\Local\Temp\cc6xNdAw.s:2013   .text._ZN3Twi16interruptHandlerEv:0000000000000092 .Loc.492
C:\Users\kenne\AppData\Local\Temp\cc6xNdAw.s:2014   .text._ZN3Twi16interruptHandlerEv:0000000000000092 .Loc.493
C:\Users\kenne\AppData\Local\Temp\cc6xNdAw.s:2017   .text._ZN3Twi16interruptHandlerEv:0000000000000098 .Loc.494
C:\Users\kenne\AppData\Local\Temp\cc6xNdAw.s:2026   .text._ZN3Twi16interruptHandlerEv:00000000000000a8 .Loc.495
C:\Users\kenne\AppData\Local\Temp\cc6xNdAw.s:2029   .text._ZN3Twi16interruptHandlerEv:00000000000000ac .Loc.496
C:\Users\kenne\AppData\Local\Temp\cc6xNdAw.s:2033   .text._ZN3Twi16interruptHandlerEv:00000000000000b2 .Loc.497
C:\Users\kenne\AppData\Local\Temp\cc6xNdAw.s:2034   .text._ZN3Twi16interruptHandlerEv:00000000000000b2 .Loc.498
C:\Users\kenne\AppData\Local\Temp\cc6xNdAw.s:2039   .text._ZN3Twi16interruptHandlerEv:00000000000000ba .Loc.499
C:\Users\kenne\AppData\Local\Temp\cc6xNdAw.s:2040   .text._ZN3Twi16interruptHandlerEv:00000000000000ba .Loc.500
C:\Users\kenne\AppData\Local\Temp\cc6xNdAw.s:2044   .text._ZN3Twi16interruptHandlerEv:00000000000000c0 .Loc.501
C:\Users\kenne\AppData\Local\Temp\cc6xNdAw.s:2045   .text._ZN3Twi16interruptHandlerEv:00000000000000c0 .Loc.502
C:\Users\kenne\AppData\Local\Temp\cc6xNdAw.s:2051   .text._ZN3Twi16interruptHandlerEv:00000000000000c8 .Loc.503
C:\Users\kenne\AppData\Local\Temp\cc6xNdAw.s:2052   .text._ZN3Twi16interruptHandlerEv:00000000000000c8 .Loc.504
C:\Users\kenne\AppData\Local\Temp\cc6xNdAw.s:2053   .text._ZN3Twi16interruptHandlerEv:00000000000000c8 .Loc.505
C:\Users\kenne\AppData\Local\Temp\cc6xNdAw.s:2055   .text._ZN3Twi16interruptHandlerEv:00000000000000cc .Loc.506
C:\Users\kenne\AppData\Local\Temp\cc6xNdAw.s:2058   .text._ZN3Twi16interruptHandlerEv:00000000000000d0 .Loc.507
C:\Users\kenne\AppData\Local\Temp\cc6xNdAw.s:2061   .text._ZN3Twi16interruptHandlerEv:00000000000000d4 .Loc.508
C:\Users\kenne\AppData\Local\Temp\cc6xNdAw.s:2065   .text._ZN3Twi16interruptHandlerEv:00000000000000dc .Loc.509
C:\Users\kenne\AppData\Local\Temp\cc6xNdAw.s:2068   .text._ZN3Twi16interruptHandlerEv:00000000000000e0 .Loc.510
C:\Users\kenne\AppData\Local\Temp\cc6xNdAw.s:2072   .text._ZN3Twi16interruptHandlerEv:00000000000000e4 .Loc.511
C:\Users\kenne\AppData\Local\Temp\cc6xNdAw.s:2073   .text._ZN3Twi16interruptHandlerEv:00000000000000e4 .Loc.512
C:\Users\kenne\AppData\Local\Temp\cc6xNdAw.s:2079   .text._ZN3Twi16interruptHandlerEv:00000000000000ec .Loc.513
C:\Users\kenne\AppData\Local\Temp\cc6xNdAw.s:2080   .text._ZN3Twi16interruptHandlerEv:00000000000000ec .Loc.514
C:\Users\kenne\AppData\Local\Temp\cc6xNdAw.s:2081   .text._ZN3Twi16interruptHandlerEv:00000000000000ec .Loc.515
C:\Users\kenne\AppData\Local\Temp\cc6xNdAw.s:2084   .text._ZN3Twi16interruptHandlerEv:00000000000000ee .Loc.516
C:\Users\kenne\AppData\Local\Temp\cc6xNdAw.s:2086   .text._ZN3Twi16interruptHandlerEv:00000000000000f2 .Loc.517
C:\Users\kenne\AppData\Local\Temp\cc6xNdAw.s:2090   .text._ZN3Twi16interruptHandlerEv:00000000000000f4 .Loc.518
C:\Users\kenne\AppData\Local\Temp\cc6xNdAw.s:2091   .text._ZN3Twi16interruptHandlerEv:00000000000000f4 .Loc.519
C:\Users\kenne\AppData\Local\Temp\cc6xNdAw.s:2092   .text._ZN3Twi16interruptHandlerEv:00000000000000f4 .Loc.520
C:\Users\kenne\AppData\Local\Temp\cc6xNdAw.s:2093   .text._ZN3Twi16interruptHandlerEv:00000000000000f4 .Loc.521
C:\Users\kenne\AppData\Local\Temp\cc6xNdAw.s:2094   .text._ZN3Twi16interruptHandlerEv:00000000000000f4 .Loc.522
C:\Users\kenne\AppData\Local\Temp\cc6xNdAw.s:2095   .text._ZN3Twi16interruptHandlerEv:00000000000000f4 .Loc.523
C:\Users\kenne\AppData\Local\Temp\cc6xNdAw.s:2096   .text._ZN3Twi16interruptHandlerEv:00000000000000f4 .Loc.524
C:\Users\kenne\AppData\Local\Temp\cc6xNdAw.s:2099   .text._ZN3Twi16interruptHandlerEv:00000000000000f8 .Loc.525
C:\Users\kenne\AppData\Local\Temp\cc6xNdAw.s:2101   .text._ZN3Twi16interruptHandlerEv:00000000000000fa .Loc.526
C:\Users\kenne\AppData\Local\Temp\cc6xNdAw.s:2102   .text._ZN3Twi16interruptHandlerEv:00000000000000fa .Loc.527
GAS LISTING C:\Users\kenne\AppData\Local\Temp\cc6xNdAw.s 			page 86


C:\Users\kenne\AppData\Local\Temp\cc6xNdAw.s:2105   .text._ZN3Twi16interruptHandlerEv:0000000000000100 .Loc.528
C:\Users\kenne\AppData\Local\Temp\cc6xNdAw.s:2107   .text._ZN3Twi16interruptHandlerEv:0000000000000100 .Loc.529
C:\Users\kenne\AppData\Local\Temp\cc6xNdAw.s:2109   .text._ZN3Twi16interruptHandlerEv:0000000000000102 L0
C:\Users\kenne\AppData\Local\Temp\cc6xNdAw.s:2115   .text.__vector_24:0000000000000000 __vector_24
C:\Users\kenne\AppData\Local\Temp\cc6xNdAw.s:2117   .text.__vector_24:0000000000000000 .Loc.530
C:\Users\kenne\AppData\Local\Temp\cc6xNdAw.s:2118   .text.__vector_24:0000000000000000 L0
C:\Users\kenne\AppData\Local\Temp\cc6xNdAw.s:2168   .text.__vector_24:0000000000000022 .Loc.531
C:\Users\kenne\AppData\Local\Temp\cc6xNdAw.s:2169   .text.__vector_24:0000000000000022 .Loc.532
C:\Users\kenne\AppData\Local\Temp\cc6xNdAw.s:2175   .text.__vector_24:000000000000002a .Loc.533
C:\Users\kenne\AppData\Local\Temp\cc6xNdAw.s:2193   .text.__vector_24:000000000000004c L0
C:\Users\kenne\AppData\Local\Temp\cc6xNdAw.s:2198   .text._GLOBAL__sub_I_twi:0000000000000000 _GLOBAL__sub_I_twi
C:\Users\kenne\AppData\Local\Temp\cc6xNdAw.s:2200   .text._GLOBAL__sub_I_twi:0000000000000000 .Loc.534
C:\Users\kenne\AppData\Local\Temp\cc6xNdAw.s:2201   .text._GLOBAL__sub_I_twi:0000000000000000 L0
C:\Users\kenne\AppData\Local\Temp\cc6xNdAw.s:2206   .text._GLOBAL__sub_I_twi:0000000000000000 .Loc.535
C:\Users\kenne\AppData\Local\Temp\cc6xNdAw.s:2215   .text._GLOBAL__sub_I_twi:000000000000000e L0
C:\Users\kenne\AppData\Local\Temp\cc6xNdAw.s:2224   .text._GLOBAL__sub_D_twi:0000000000000000 _GLOBAL__sub_D_twi
C:\Users\kenne\AppData\Local\Temp\cc6xNdAw.s:2226   .text._GLOBAL__sub_D_twi:0000000000000000 .Loc.536
C:\Users\kenne\AppData\Local\Temp\cc6xNdAw.s:2227   .text._GLOBAL__sub_D_twi:0000000000000000 L0
C:\Users\kenne\AppData\Local\Temp\cc6xNdAw.s:2232   .text._GLOBAL__sub_D_twi:0000000000000000 .Loc.537
C:\Users\kenne\AppData\Local\Temp\cc6xNdAw.s:2241   .text._GLOBAL__sub_D_twi:000000000000000e L0
C:\Users\kenne\AppData\Local\Temp\cc6xNdAw.s:47     .text._ZN3Bus7readRegEhPhj:000000000000000e L0
C:\Users\kenne\AppData\Local\Temp\cc6xNdAw.s:80     .text._ZN3Bus8sendDataEPhj:000000000000000e L0
C:\Users\kenne\AppData\Local\Temp\cc6xNdAw.s:115    .text._ZN3Bus8sendDataEPKhPhj:000000000000000e L0
C:\Users\kenne\AppData\Local\Temp\cc6xNdAw.s:150    .text._ZN3Bus8writeRegEhPKhj:000000000000000e L0
C:\Users\kenne\AppData\Local\Temp\cc6xNdAw.s:183    .text._ZN3Bus9setDeviceEjb:000000000000000e L0
C:\Users\kenne\AppData\Local\Temp\cc6xNdAw.s:216    .text._ZN3Bus9setDeviceEPFvvES1_:000000000000000e L0
C:\Users\kenne\AppData\Local\Temp\cc6xNdAw.s:241    .text._ZN3Bus10getBusTypeEv:0000000000000006 L0
C:\Users\kenne\AppData\Local\Temp\cc6xNdAw.s:265    .text._ZN3Bus12getLastErrorEv:0000000000000008 L0
C:\Users\kenne\AppData\Local\Temp\cc6xNdAw.s:336    .text._ZN3Twi9setDeviceEjb:000000000000004c L0
C:\Users\kenne\AppData\Local\Temp\cc6xNdAw.s:359    .text._ZN3Twi10getBusTypeEv:0000000000000006 L0
C:\Users\kenne\AppData\Local\Temp\cc6xNdAw.s:383    .text._ZN3Twi12getLastErrorEv:0000000000000008 L0
C:\Users\kenne\AppData\Local\Temp\cc6xNdAw.s:405    .text._Z7getTickv:0000000000000008 L0
C:\Users\kenne\AppData\Local\Temp\cc6xNdAw.s:491    .text._ZN3TwiC2Ev:0000000000000046 L0
C:\Users\kenne\AppData\Local\Temp\cc6xNdAw.s:520    .text._ZN3TwiD2Ev:000000000000000c L0
C:\Users\kenne\AppData\Local\Temp\cc6xNdAw.s:595    .text._Z41__static_initialization_and_destruction_0ii:0000000000000044 L0
C:\Users\kenne\AppData\Local\Temp\cc6xNdAw.s:1010   .text._ZN3Twi4initEmh:00000000000001fc L0
C:\Users\kenne\AppData\Local\Temp\cc6xNdAw.s:1043   .text._ZN3Twi10setTimeoutEj:0000000000000010 L0
C:\Users\kenne\AppData\Local\Temp\cc6xNdAw.s:1200   .text._ZN3Twi16_waitWhileIsBusyEv:00000000000000b4 L0
C:\Users\kenne\AppData\Local\Temp\cc6xNdAw.s:1244   .text._ZN3Twi17_startTrasmissionEv:0000000000000020 L0
C:\Users\kenne\AppData\Local\Temp\cc6xNdAw.s:1344   .text._ZN3Twi15_readFromBufferEPhh:0000000000000054 L0
C:\Users\kenne\AppData\Local\Temp\cc6xNdAw.s:1684   .text._ZN3Twi8sendDataEhNS_9OperationEhPhh:000000000000015a L0
C:\Users\kenne\AppData\Local\Temp\cc6xNdAw.s:1784   .text._ZN3Twi7readRegEhPhj:0000000000000058 L0
C:\Users\kenne\AppData\Local\Temp\cc6xNdAw.s:1884   .text._ZN3Twi8writeRegEhPKhj:0000000000000058 L0
C:\Users\kenne\AppData\Local\Temp\cc6xNdAw.s:2112   .text._ZN3Twi16interruptHandlerEv:0000000000000102 L0
C:\Users\kenne\AppData\Local\Temp\cc6xNdAw.s:2196   .text.__vector_24:000000000000004c L0
C:\Users\kenne\AppData\Local\Temp\cc6xNdAw.s:2219   .text._GLOBAL__sub_I_twi:000000000000000e L0
C:\Users\kenne\AppData\Local\Temp\cc6xNdAw.s:2245   .text._GLOBAL__sub_D_twi:000000000000000e L0
                     .debug_frame:0000000000000000 L0
C:\Users\kenne\AppData\Local\Temp\cc6xNdAw.s:570    .text._Z41__static_initialization_and_destruction_0ii:000000000000002a .L18
C:\Users\kenne\AppData\Local\Temp\cc6xNdAw.s:561    .text._Z41__static_initialization_and_destruction_0ii:0000000000000020 .L15
C:\Users\kenne\AppData\Local\Temp\cc6xNdAw.s:584    .text._Z41__static_initialization_and_destruction_0ii:000000000000003a .L19
C:\Users\kenne\AppData\Local\Temp\cc6xNdAw.s:553    .text._Z41__static_initialization_and_destruction_0ii:0000000000000016 .L16
C:\Users\kenne\AppData\Local\Temp\cc6xNdAw.s:868    .text._ZN3Twi4initEmh:000000000000014c .L33
C:\Users\kenne\AppData\Local\Temp\cc6xNdAw.s:899    .text._ZN3Twi4initEmh:0000000000000176 .L34
C:\Users\kenne\AppData\Local\Temp\cc6xNdAw.s:912    .text._ZN3Twi4initEmh:0000000000000186 .L35
C:\Users\kenne\AppData\Local\Temp\cc6xNdAw.s:925    .text._ZN3Twi4initEmh:0000000000000196 .L36
C:\Users\kenne\AppData\Local\Temp\cc6xNdAw.s:718    .text._ZN3Twi4initEmh:0000000000000088 .L26
GAS LISTING C:\Users\kenne\AppData\Local\Temp\cc6xNdAw.s 			page 87


C:\Users\kenne\AppData\Local\Temp\cc6xNdAw.s:938    .text._ZN3Twi4initEmh:00000000000001a6 .L37
C:\Users\kenne\AppData\Local\Temp\cc6xNdAw.s:835    .text._ZN3Twi4initEmh:0000000000000126 .L29
C:\Users\kenne\AppData\Local\Temp\cc6xNdAw.s:950    .text._ZN3Twi4initEmh:00000000000001b2 .L30
C:\Users\kenne\AppData\Local\Temp\cc6xNdAw.s:881    .text._ZN3Twi4initEmh:000000000000015a .L20
C:\Users\kenne\AppData\Local\Temp\cc6xNdAw.s:979    .text._ZN3Twi4initEmh:00000000000001d8 .L31
C:\Users\kenne\AppData\Local\Temp\cc6xNdAw.s:1003   .text._ZN3Twi4initEmh:00000000000001f8 .L32
C:\Users\kenne\AppData\Local\Temp\cc6xNdAw.s:1136   .text._ZN3Twi16_waitWhileIsBusyEv:000000000000005e .L45
C:\Users\kenne\AppData\Local\Temp\cc6xNdAw.s:1165   .text._ZN3Twi16_waitWhileIsBusyEv:0000000000000088 .L46
C:\Users\kenne\AppData\Local\Temp\cc6xNdAw.s:1101   .text._ZN3Twi16_waitWhileIsBusyEv:0000000000000030 .L43
C:\Users\kenne\AppData\Local\Temp\cc6xNdAw.s:1179   .text._ZN3Twi16_waitWhileIsBusyEv:000000000000009a .L39
C:\Users\kenne\AppData\Local\Temp\cc6xNdAw.s:1288   .text._ZN3Twi15_readFromBufferEPhh:0000000000000020 .L53
C:\Users\kenne\AppData\Local\Temp\cc6xNdAw.s:1322   .text._ZN3Twi15_readFromBufferEPhh:0000000000000042 .L49
C:\Users\kenne\AppData\Local\Temp\cc6xNdAw.s:1333   .text._ZN3Twi15_readFromBufferEPhh:000000000000004a .L48
C:\Users\kenne\AppData\Local\Temp\cc6xNdAw.s:1300   .text._ZN3Twi15_readFromBufferEPhh:000000000000002a .L51
C:\Users\kenne\AppData\Local\Temp\cc6xNdAw.s:1450   .text._ZN3Twi8sendDataEhNS_9OperationEhPhh:000000000000005a .L65
C:\Users\kenne\AppData\Local\Temp\cc6xNdAw.s:1409   .text._ZN3Twi8sendDataEhNS_9OperationEhPhh:0000000000000036 .L57
C:\Users\kenne\AppData\Local\Temp\cc6xNdAw.s:1489   .text._ZN3Twi8sendDataEhNS_9OperationEhPhh:000000000000007a .L66
C:\Users\kenne\AppData\Local\Temp\cc6xNdAw.s:1465   .text._ZN3Twi8sendDataEhNS_9OperationEhPhh:0000000000000062 .L54
C:\Users\kenne\AppData\Local\Temp\cc6xNdAw.s:1574   .text._ZN3Twi8sendDataEhNS_9OperationEhPhh:00000000000000d2 .L58
C:\Users\kenne\AppData\Local\Temp\cc6xNdAw.s:1530   .text._ZN3Twi8sendDataEhNS_9OperationEhPhh:00000000000000a4 .L59
C:\Users\kenne\AppData\Local\Temp\cc6xNdAw.s:1503   .text._ZN3Twi8sendDataEhNS_9OperationEhPhh:0000000000000086 .L60
C:\Users\kenne\AppData\Local\Temp\cc6xNdAw.s:1616   .text._ZN3Twi8sendDataEhNS_9OperationEhPhh:0000000000000104 .L67
C:\Users\kenne\AppData\Local\Temp\cc6xNdAw.s:1666   .text._ZN3Twi8sendDataEhNS_9OperationEhPhh:0000000000000148 .L68
C:\Users\kenne\AppData\Local\Temp\cc6xNdAw.s:1562   .text._ZN3Twi8sendDataEhNS_9OperationEhPhh:00000000000000cc .L61
C:\Users\kenne\AppData\Local\Temp\cc6xNdAw.s:1744   .text._ZN3Twi7readRegEhPhj:000000000000002c .L70
C:\Users\kenne\AppData\Local\Temp\cc6xNdAw.s:1734   .text._ZN3Twi7readRegEhPhj:0000000000000020 .L69
C:\Users\kenne\AppData\Local\Temp\cc6xNdAw.s:1844   .text._ZN3Twi8writeRegEhPKhj:000000000000002c .L73
C:\Users\kenne\AppData\Local\Temp\cc6xNdAw.s:1834   .text._ZN3Twi8writeRegEhPKhj:0000000000000020 .L72
C:\Users\kenne\AppData\Local\Temp\cc6xNdAw.s:2078   .text._ZN3Twi16interruptHandlerEv:00000000000000ec .L76
C:\Users\kenne\AppData\Local\Temp\cc6xNdAw.s:1944   .text._ZN3Twi16interruptHandlerEv:000000000000003c .L88
C:\Users\kenne\AppData\Local\Temp\cc6xNdAw.s:2050   .text._ZN3Twi16interruptHandlerEv:00000000000000c8 .L82
C:\Users\kenne\AppData\Local\Temp\cc6xNdAw.s:2006   .text._ZN3Twi16interruptHandlerEv:000000000000008e .L89
C:\Users\kenne\AppData\Local\Temp\cc6xNdAw.s:1952   .text._ZN3Twi16interruptHandlerEv:0000000000000048 .L78
C:\Users\kenne\AppData\Local\Temp\cc6xNdAw.s:1993   .text._ZN3Twi16interruptHandlerEv:0000000000000080 .L90
C:\Users\kenne\AppData\Local\Temp\cc6xNdAw.s:2089   .text._ZN3Twi16interruptHandlerEv:00000000000000f4 .L81
C:\Users\kenne\AppData\Local\Temp\cc6xNdAw.s:2038   .text._ZN3Twi16interruptHandlerEv:00000000000000ba .L85
C:\Users\kenne\AppData\Local\Temp\cc6xNdAw.s:1999   .text._ZN3Twi16interruptHandlerEv:0000000000000088 .L80
C:\Users\kenne\AppData\Local\Temp\cc6xNdAw.s:2071   .text._ZN3Twi16interruptHandlerEv:00000000000000e4 .L87
C:\Users\kenne\AppData\Local\Temp\cc6xNdAw.s:2011   .text._ZN3Twi16interruptHandlerEv:0000000000000092 .L84
C:\Users\kenne\AppData\Local\Temp\cc6xNdAw.s:4756   .debug_abbrev:0000000000000000 .Ldebug_abbrev0
C:\Users\kenne\AppData\Local\Temp\cc6xNdAw.s:7931   .debug_rnglists:0000000000000024 .LLRL53
C:\Users\kenne\AppData\Local\Temp\cc6xNdAw.s:8016   .debug_line:0000000000000000 .Ldebug_line0
C:\Users\kenne\AppData\Local\Temp\cc6xNdAw.s:2225   .text._GLOBAL__sub_D_twi:0000000000000000 .LFB67
C:\Users\kenne\AppData\Local\Temp\cc6xNdAw.s:2242   .text._GLOBAL__sub_D_twi:000000000000000e .LFE67
C:\Users\kenne\AppData\Local\Temp\cc6xNdAw.s:2238   .text._GLOBAL__sub_D_twi:000000000000000c .LVL141
C:\Users\kenne\AppData\Local\Temp\cc6xNdAw.s:2199   .text._GLOBAL__sub_I_twi:0000000000000000 .LFB66
C:\Users\kenne\AppData\Local\Temp\cc6xNdAw.s:2216   .text._GLOBAL__sub_I_twi:000000000000000e .LFE66
C:\Users\kenne\AppData\Local\Temp\cc6xNdAw.s:2212   .text._GLOBAL__sub_I_twi:000000000000000c .LVL140
C:\Users\kenne\AppData\Local\Temp\cc6xNdAw.s:524    .text._Z41__static_initialization_and_destruction_0ii:0000000000000000 .LFB65
C:\Users\kenne\AppData\Local\Temp\cc6xNdAw.s:593    .text._Z41__static_initialization_and_destruction_0ii:0000000000000044 .LFE65
C:\Users\kenne\AppData\Local\Temp\cc6xNdAw.s:6010   .debug_loclists:0000000000000014 .LLST17
C:\Users\kenne\AppData\Local\Temp\cc6xNdAw.s:6001   .debug_loclists:000000000000000c .LVUS17
C:\Users\kenne\AppData\Local\Temp\cc6xNdAw.s:6059   .debug_loclists:0000000000000046 .LLST18
C:\Users\kenne\AppData\Local\Temp\cc6xNdAw.s:6050   .debug_loclists:000000000000003e .LVUS18
C:\Users\kenne\AppData\Local\Temp\cc6xNdAw.s:581    .text._Z41__static_initialization_and_destruction_0ii:0000000000000038 .LVL35
C:\Users\kenne\AppData\Local\Temp\cc6xNdAw.s:589    .text._Z41__static_initialization_and_destruction_0ii:0000000000000042 .LVL36
C:\Users\kenne\AppData\Local\Temp\cc6xNdAw.s:2116   .text.__vector_24:0000000000000000 .LFB64
GAS LISTING C:\Users\kenne\AppData\Local\Temp\cc6xNdAw.s 			page 88


C:\Users\kenne\AppData\Local\Temp\cc6xNdAw.s:2194   .text.__vector_24:000000000000004c .LFE64
C:\Users\kenne\AppData\Local\Temp\cc6xNdAw.s:2173   .text.__vector_24:000000000000002a .LVL139
C:\Users\kenne\AppData\Local\Temp\cc6xNdAw.s:1889   .text._ZN3Twi16interruptHandlerEv:0000000000000000 .LFB63
C:\Users\kenne\AppData\Local\Temp\cc6xNdAw.s:2110   .text._ZN3Twi16interruptHandlerEv:0000000000000102 .LFE63
C:\Users\kenne\AppData\Local\Temp\cc6xNdAw.s:6104   .debug_loclists:0000000000000074 .LLST51
C:\Users\kenne\AppData\Local\Temp\cc6xNdAw.s:6099   .debug_loclists:0000000000000070 .LVUS51
C:\Users\kenne\AppData\Local\Temp\cc6xNdAw.s:6139   .debug_loclists:0000000000000099 .LLST52
C:\Users\kenne\AppData\Local\Temp\cc6xNdAw.s:6126   .debug_loclists:000000000000008d .LVUS52
C:\Users\kenne\AppData\Local\Temp\cc6xNdAw.s:1249   .text._ZN3Twi15_readFromBufferEPhh:0000000000000000 .LFB62
C:\Users\kenne\AppData\Local\Temp\cc6xNdAw.s:1342   .text._ZN3Twi15_readFromBufferEPhh:0000000000000054 .LFE62
C:\Users\kenne\AppData\Local\Temp\cc6xNdAw.s:6208   .debug_loclists:00000000000000e6 .LLST30
C:\Users\kenne\AppData\Local\Temp\cc6xNdAw.s:6203   .debug_loclists:00000000000000e2 .LVUS30
C:\Users\kenne\AppData\Local\Temp\cc6xNdAw.s:7911   .debug_rnglists:000000000000000c .LLRL31
C:\Users\kenne\AppData\Local\Temp\cc6xNdAw.s:6233   .debug_loclists:0000000000000100 .LLST32
C:\Users\kenne\AppData\Local\Temp\cc6xNdAw.s:6230   .debug_loclists:00000000000000fe .LVUS32
C:\Users\kenne\AppData\Local\Temp\cc6xNdAw.s:1205   .text._ZN3Twi17_startTrasmissionEv:0000000000000000 .LFB61
C:\Users\kenne\AppData\Local\Temp\cc6xNdAw.s:1242   .text._ZN3Twi17_startTrasmissionEv:0000000000000020 .LFE61
C:\Users\kenne\AppData\Local\Temp\cc6xNdAw.s:6245   .debug_loclists:000000000000010d .LLST29
C:\Users\kenne\AppData\Local\Temp\cc6xNdAw.s:6240   .debug_loclists:0000000000000109 .LVUS29
C:\Users\kenne\AppData\Local\Temp\cc6xNdAw.s:1048   .text._ZN3Twi16_waitWhileIsBusyEv:0000000000000000 .LFB60
C:\Users\kenne\AppData\Local\Temp\cc6xNdAw.s:1198   .text._ZN3Twi16_waitWhileIsBusyEv:00000000000000b4 .LFE60
C:\Users\kenne\AppData\Local\Temp\cc6xNdAw.s:6272   .debug_loclists:0000000000000129 .LLST26
C:\Users\kenne\AppData\Local\Temp\cc6xNdAw.s:6267   .debug_loclists:0000000000000125 .LVUS26
C:\Users\kenne\AppData\Local\Temp\cc6xNdAw.s:6299   .debug_loclists:0000000000000146 .LLST27
C:\Users\kenne\AppData\Local\Temp\cc6xNdAw.s:6294   .debug_loclists:0000000000000142 .LVUS27
C:\Users\kenne\AppData\Local\Temp\cc6xNdAw.s:6340   .debug_loclists:0000000000000170 .LLST28
C:\Users\kenne\AppData\Local\Temp\cc6xNdAw.s:6335   .debug_loclists:000000000000016c .LVUS28
C:\Users\kenne\AppData\Local\Temp\cc6xNdAw.s:1109   .text._ZN3Twi16_waitWhileIsBusyEv:0000000000000038 .LVL69
C:\Users\kenne\AppData\Local\Temp\cc6xNdAw.s:1142   .text._ZN3Twi16_waitWhileIsBusyEv:0000000000000066 .LVL72
C:\Users\kenne\AppData\Local\Temp\cc6xNdAw.s:364    .text._ZN3Twi12getLastErrorEv:0000000000000000 .LFB59
C:\Users\kenne\AppData\Local\Temp\cc6xNdAw.s:381    .text._ZN3Twi12getLastErrorEv:0000000000000008 .LFE59
C:\Users\kenne\AppData\Local\Temp\cc6xNdAw.s:6381   .debug_loclists:000000000000019b .LLST14
C:\Users\kenne\AppData\Local\Temp\cc6xNdAw.s:6376   .debug_loclists:0000000000000197 .LVUS14
C:\Users\kenne\AppData\Local\Temp\cc6xNdAw.s:1015   .text._ZN3Twi10setTimeoutEj:0000000000000000 .LFB58
C:\Users\kenne\AppData\Local\Temp\cc6xNdAw.s:1041   .text._ZN3Twi10setTimeoutEj:0000000000000010 .LFE58
C:\Users\kenne\AppData\Local\Temp\cc6xNdAw.s:6410   .debug_loclists:00000000000001b9 .LLST25
C:\Users\kenne\AppData\Local\Temp\cc6xNdAw.s:6405   .debug_loclists:00000000000001b5 .LVUS25
C:\Users\kenne\AppData\Local\Temp\cc6xNdAw.s:600    .text._ZN3Twi4initEmh:0000000000000000 .LFB57
C:\Users\kenne\AppData\Local\Temp\cc6xNdAw.s:1008   .text._ZN3Twi4initEmh:00000000000001fc .LFE57
C:\Users\kenne\AppData\Local\Temp\cc6xNdAw.s:6437   .debug_loclists:00000000000001d5 .LLST19
C:\Users\kenne\AppData\Local\Temp\cc6xNdAw.s:6432   .debug_loclists:00000000000001d1 .LVUS19
C:\Users\kenne\AppData\Local\Temp\cc6xNdAw.s:6464   .debug_loclists:00000000000001f2 .LLST20
C:\Users\kenne\AppData\Local\Temp\cc6xNdAw.s:6459   .debug_loclists:00000000000001ee .LVUS20
C:\Users\kenne\AppData\Local\Temp\cc6xNdAw.s:6509   .debug_loclists:0000000000000221 .LLST21
C:\Users\kenne\AppData\Local\Temp\cc6xNdAw.s:6492   .debug_loclists:0000000000000211 .LVUS21
C:\Users\kenne\AppData\Local\Temp\cc6xNdAw.s:6573   .debug_loclists:000000000000026f .LLST22
C:\Users\kenne\AppData\Local\Temp\cc6xNdAw.s:6564   .debug_loclists:0000000000000267 .LVUS22
C:\Users\kenne\AppData\Local\Temp\cc6xNdAw.s:6628   .debug_loclists:00000000000002ae .LLST23
C:\Users\kenne\AppData\Local\Temp\cc6xNdAw.s:6611   .debug_loclists:000000000000029e .LVUS23
C:\Users\kenne\AppData\Local\Temp\cc6xNdAw.s:6713   .debug_loclists:0000000000000313 .LLST24
C:\Users\kenne\AppData\Local\Temp\cc6xNdAw.s:6698   .debug_loclists:0000000000000305 .LVUS24
C:\Users\kenne\AppData\Local\Temp\cc6xNdAw.s:711    .text._ZN3Twi4initEmh:0000000000000080 .LVL41
C:\Users\kenne\AppData\Local\Temp\cc6xNdAw.s:728    .text._ZN3Twi4initEmh:0000000000000096 .LVL42
C:\Users\kenne\AppData\Local\Temp\cc6xNdAw.s:780    .text._ZN3Twi4initEmh:00000000000000e2 .LVL45
C:\Users\kenne\AppData\Local\Temp\cc6xNdAw.s:341    .text._ZN3Twi10getBusTypeEv:0000000000000000 .LFB56
C:\Users\kenne\AppData\Local\Temp\cc6xNdAw.s:357    .text._ZN3Twi10getBusTypeEv:0000000000000006 .LFE56
C:\Users\kenne\AppData\Local\Temp\cc6xNdAw.s:6763   .debug_loclists:0000000000000353 .LLST13
GAS LISTING C:\Users\kenne\AppData\Local\Temp\cc6xNdAw.s 			page 89


C:\Users\kenne\AppData\Local\Temp\cc6xNdAw.s:6758   .debug_loclists:000000000000034f .LVUS13
C:\Users\kenne\AppData\Local\Temp\cc6xNdAw.s:1349   .text._ZN3Twi8sendDataEhNS_9OperationEhPhh:0000000000000000 .LFB55
C:\Users\kenne\AppData\Local\Temp\cc6xNdAw.s:1682   .text._ZN3Twi8sendDataEhNS_9OperationEhPhh:000000000000015a .LFE55
C:\Users\kenne\AppData\Local\Temp\cc6xNdAw.s:6798   .debug_loclists:0000000000000377 .LLST33
C:\Users\kenne\AppData\Local\Temp\cc6xNdAw.s:6785   .debug_loclists:000000000000036b .LVUS33
C:\Users\kenne\AppData\Local\Temp\cc6xNdAw.s:6865   .debug_loclists:00000000000003bc .LLST34
C:\Users\kenne\AppData\Local\Temp\cc6xNdAw.s:6856   .debug_loclists:00000000000003b4 .LVUS34
C:\Users\kenne\AppData\Local\Temp\cc6xNdAw.s:6901   .debug_loclists:00000000000003e2 .LLST35
C:\Users\kenne\AppData\Local\Temp\cc6xNdAw.s:6892   .debug_loclists:00000000000003da .LVUS35
C:\Users\kenne\AppData\Local\Temp\cc6xNdAw.s:6937   .debug_loclists:0000000000000408 .LLST36
C:\Users\kenne\AppData\Local\Temp\cc6xNdAw.s:6928   .debug_loclists:0000000000000400 .LVUS36
C:\Users\kenne\AppData\Local\Temp\cc6xNdAw.s:6971   .debug_loclists:000000000000042c .LLST37
C:\Users\kenne\AppData\Local\Temp\cc6xNdAw.s:6964   .debug_loclists:0000000000000426 .LVUS37
C:\Users\kenne\AppData\Local\Temp\cc6xNdAw.s:7014   .debug_loclists:0000000000000459 .LLST38
C:\Users\kenne\AppData\Local\Temp\cc6xNdAw.s:7003   .debug_loclists:000000000000044f .LVUS38
C:\Users\kenne\AppData\Local\Temp\cc6xNdAw.s:7921   .debug_rnglists:0000000000000018 .LLRL39
C:\Users\kenne\AppData\Local\Temp\cc6xNdAw.s:7054   .debug_loclists:0000000000000487 .LLST40
C:\Users\kenne\AppData\Local\Temp\cc6xNdAw.s:7049   .debug_loclists:0000000000000483 .LVUS40
C:\Users\kenne\AppData\Local\Temp\cc6xNdAw.s:1416   .text._ZN3Twi8sendDataEhNS_9OperationEhPhh:000000000000003c .LVL85
C:\Users\kenne\AppData\Local\Temp\cc6xNdAw.s:1561   .text._ZN3Twi8sendDataEhNS_9OperationEhPhh:00000000000000cc .LVL100
C:\Users\kenne\AppData\Local\Temp\cc6xNdAw.s:1604   .text._ZN3Twi8sendDataEhNS_9OperationEhPhh:00000000000000f6 .LVL102
C:\Users\kenne\AppData\Local\Temp\cc6xNdAw.s:1609   .text._ZN3Twi8sendDataEhNS_9OperationEhPhh:00000000000000fc .LVL103
C:\Users\kenne\AppData\Local\Temp\cc6xNdAw.s:1654   .text._ZN3Twi8sendDataEhNS_9OperationEhPhh:000000000000013a .LVL104
C:\Users\kenne\AppData\Local\Temp\cc6xNdAw.s:1659   .text._ZN3Twi8sendDataEhNS_9OperationEhPhh:0000000000000140 .LVL105
C:\Users\kenne\AppData\Local\Temp\cc6xNdAw.s:1673   .text._ZN3Twi8sendDataEhNS_9OperationEhPhh:0000000000000152 .LVL106
C:\Users\kenne\AppData\Local\Temp\cc6xNdAw.s:270    .text._ZN3Twi9setDeviceEjb:0000000000000000 .LFB54
C:\Users\kenne\AppData\Local\Temp\cc6xNdAw.s:334    .text._ZN3Twi9setDeviceEjb:000000000000004c .LFE54
C:\Users\kenne\AppData\Local\Temp\cc6xNdAw.s:7074   .debug_loclists:000000000000049c .LLST11
C:\Users\kenne\AppData\Local\Temp\cc6xNdAw.s:7069   .debug_loclists:0000000000000498 .LVUS11
C:\Users\kenne\AppData\Local\Temp\cc6xNdAw.s:7101   .debug_loclists:00000000000004b8 .LLST12
C:\Users\kenne\AppData\Local\Temp\cc6xNdAw.s:7096   .debug_loclists:00000000000004b4 .LVUS12
C:\Users\kenne\AppData\Local\Temp\cc6xNdAw.s:1789   .text._ZN3Twi8writeRegEhPKhj:0000000000000000 .LFB53
C:\Users\kenne\AppData\Local\Temp\cc6xNdAw.s:1882   .text._ZN3Twi8writeRegEhPKhj:0000000000000058 .LFE53
C:\Users\kenne\AppData\Local\Temp\cc6xNdAw.s:7128   .debug_loclists:00000000000004d4 .LLST46
C:\Users\kenne\AppData\Local\Temp\cc6xNdAw.s:7123   .debug_loclists:00000000000004d0 .LVUS46
C:\Users\kenne\AppData\Local\Temp\cc6xNdAw.s:7161   .debug_loclists:00000000000004f6 .LLST47
C:\Users\kenne\AppData\Local\Temp\cc6xNdAw.s:7150   .debug_loclists:00000000000004ec .LVUS47
C:\Users\kenne\AppData\Local\Temp\cc6xNdAw.s:7205   .debug_loclists:0000000000000523 .LLST48
C:\Users\kenne\AppData\Local\Temp\cc6xNdAw.s:7196   .debug_loclists:000000000000051b .LVUS48
C:\Users\kenne\AppData\Local\Temp\cc6xNdAw.s:7254   .debug_loclists:0000000000000555 .LLST49
C:\Users\kenne\AppData\Local\Temp\cc6xNdAw.s:7245   .debug_loclists:000000000000054d .LVUS49
C:\Users\kenne\AppData\Local\Temp\cc6xNdAw.s:7297   .debug_loclists:0000000000000581 .LLST50
C:\Users\kenne\AppData\Local\Temp\cc6xNdAw.s:7294   .debug_loclists:000000000000057f .LVUS50
C:\Users\kenne\AppData\Local\Temp\cc6xNdAw.s:1870   .text._ZN3Twi8writeRegEhPKhj:000000000000004e .LVL124
C:\Users\kenne\AppData\Local\Temp\cc6xNdAw.s:1689   .text._ZN3Twi7readRegEhPhj:0000000000000000 .LFB52
C:\Users\kenne\AppData\Local\Temp\cc6xNdAw.s:1782   .text._ZN3Twi7readRegEhPhj:0000000000000058 .LFE52
C:\Users\kenne\AppData\Local\Temp\cc6xNdAw.s:7309   .debug_loclists:000000000000058e .LLST41
C:\Users\kenne\AppData\Local\Temp\cc6xNdAw.s:7304   .debug_loclists:000000000000058a .LVUS41
C:\Users\kenne\AppData\Local\Temp\cc6xNdAw.s:7342   .debug_loclists:00000000000005b0 .LLST42
C:\Users\kenne\AppData\Local\Temp\cc6xNdAw.s:7331   .debug_loclists:00000000000005a6 .LVUS42
C:\Users\kenne\AppData\Local\Temp\cc6xNdAw.s:7386   .debug_loclists:00000000000005dd .LLST43
C:\Users\kenne\AppData\Local\Temp\cc6xNdAw.s:7377   .debug_loclists:00000000000005d5 .LVUS43
C:\Users\kenne\AppData\Local\Temp\cc6xNdAw.s:7435   .debug_loclists:000000000000060f .LLST44
C:\Users\kenne\AppData\Local\Temp\cc6xNdAw.s:7426   .debug_loclists:0000000000000607 .LVUS44
C:\Users\kenne\AppData\Local\Temp\cc6xNdAw.s:7478   .debug_loclists:000000000000063b .LLST45
C:\Users\kenne\AppData\Local\Temp\cc6xNdAw.s:7475   .debug_loclists:0000000000000639 .LVUS45
C:\Users\kenne\AppData\Local\Temp\cc6xNdAw.s:1770   .text._ZN3Twi7readRegEhPhj:000000000000004e .LVL115
GAS LISTING C:\Users\kenne\AppData\Local\Temp\cc6xNdAw.s 			page 90


C:\Users\kenne\AppData\Local\Temp\cc6xNdAw.s:496    .text._ZN3TwiD2Ev:0000000000000000 .LFB50
C:\Users\kenne\AppData\Local\Temp\cc6xNdAw.s:516    .text._ZN3TwiD2Ev:000000000000000c .LFE50
C:\Users\kenne\AppData\Local\Temp\cc6xNdAw.s:410    .text._ZN3TwiC2Ev:0000000000000000 .LFB47
C:\Users\kenne\AppData\Local\Temp\cc6xNdAw.s:487    .text._ZN3TwiC2Ev:0000000000000046 .LFE47
C:\Users\kenne\AppData\Local\Temp\cc6xNdAw.s:7490   .debug_loclists:0000000000000648 .LLST15
C:\Users\kenne\AppData\Local\Temp\cc6xNdAw.s:7485   .debug_loclists:0000000000000644 .LVUS15
C:\Users\kenne\AppData\Local\Temp\cc6xNdAw.s:423    .text._ZN3TwiC2Ev:0000000000000004 .LBI7
C:\Users\kenne\AppData\Local\Temp\cc6xNdAw.s:422    .text._ZN3TwiC2Ev:0000000000000004 .LBB7
C:\Users\kenne\AppData\Local\Temp\cc6xNdAw.s:435    .text._ZN3TwiC2Ev:000000000000000c .LBE7
C:\Users\kenne\AppData\Local\Temp\cc6xNdAw.s:7515   .debug_loclists:0000000000000662 .LLST16
C:\Users\kenne\AppData\Local\Temp\cc6xNdAw.s:7512   .debug_loclists:0000000000000660 .LVUS16
C:\Users\kenne\AppData\Local\Temp\cc6xNdAw.s:246    .text._ZN3Bus12getLastErrorEv:0000000000000000 .LFB40
C:\Users\kenne\AppData\Local\Temp\cc6xNdAw.s:263    .text._ZN3Bus12getLastErrorEv:0000000000000008 .LFE40
C:\Users\kenne\AppData\Local\Temp\cc6xNdAw.s:7532   .debug_loclists:0000000000000674 .LLST10
C:\Users\kenne\AppData\Local\Temp\cc6xNdAw.s:7527   .debug_loclists:0000000000000670 .LVUS10
C:\Users\kenne\AppData\Local\Temp\cc6xNdAw.s:221    .text._ZN3Bus10getBusTypeEv:0000000000000000 .LFB39
C:\Users\kenne\AppData\Local\Temp\cc6xNdAw.s:239    .text._ZN3Bus10getBusTypeEv:0000000000000006 .LFE39
C:\Users\kenne\AppData\Local\Temp\cc6xNdAw.s:7561   .debug_loclists:0000000000000692 .LLST9
C:\Users\kenne\AppData\Local\Temp\cc6xNdAw.s:7556   .debug_loclists:000000000000068e .LVUS9
C:\Users\kenne\AppData\Local\Temp\cc6xNdAw.s:188    .text._ZN3Bus9setDeviceEPFvvES1_:0000000000000000 .LFB38
C:\Users\kenne\AppData\Local\Temp\cc6xNdAw.s:214    .text._ZN3Bus9setDeviceEPFvvES1_:000000000000000e .LFE38
C:\Users\kenne\AppData\Local\Temp\cc6xNdAw.s:7588   .debug_loclists:00000000000006ae .LLST8
C:\Users\kenne\AppData\Local\Temp\cc6xNdAw.s:7583   .debug_loclists:00000000000006aa .LVUS8
C:\Users\kenne\AppData\Local\Temp\cc6xNdAw.s:155    .text._ZN3Bus9setDeviceEjb:0000000000000000 .LFB37
C:\Users\kenne\AppData\Local\Temp\cc6xNdAw.s:181    .text._ZN3Bus9setDeviceEjb:000000000000000e .LFE37
C:\Users\kenne\AppData\Local\Temp\cc6xNdAw.s:7617   .debug_loclists:00000000000006cc .LLST7
C:\Users\kenne\AppData\Local\Temp\cc6xNdAw.s:7612   .debug_loclists:00000000000006c8 .LVUS7
C:\Users\kenne\AppData\Local\Temp\cc6xNdAw.s:120    .text._ZN3Bus8writeRegEhPKhj:0000000000000000 .LFB36
C:\Users\kenne\AppData\Local\Temp\cc6xNdAw.s:148    .text._ZN3Bus8writeRegEhPKhj:000000000000000e .LFE36
C:\Users\kenne\AppData\Local\Temp\cc6xNdAw.s:7646   .debug_loclists:00000000000006ea .LLST5
C:\Users\kenne\AppData\Local\Temp\cc6xNdAw.s:7641   .debug_loclists:00000000000006e6 .LVUS5
C:\Users\kenne\AppData\Local\Temp\cc6xNdAw.s:7675   .debug_loclists:0000000000000708 .LLST6
C:\Users\kenne\AppData\Local\Temp\cc6xNdAw.s:7670   .debug_loclists:0000000000000704 .LVUS6
C:\Users\kenne\AppData\Local\Temp\cc6xNdAw.s:85     .text._ZN3Bus8sendDataEPKhPhj:0000000000000000 .LFB35
C:\Users\kenne\AppData\Local\Temp\cc6xNdAw.s:113    .text._ZN3Bus8sendDataEPKhPhj:000000000000000e .LFE35
C:\Users\kenne\AppData\Local\Temp\cc6xNdAw.s:7702   .debug_loclists:0000000000000724 .LLST3
C:\Users\kenne\AppData\Local\Temp\cc6xNdAw.s:7697   .debug_loclists:0000000000000720 .LVUS3
C:\Users\kenne\AppData\Local\Temp\cc6xNdAw.s:7731   .debug_loclists:0000000000000742 .LLST4
C:\Users\kenne\AppData\Local\Temp\cc6xNdAw.s:7726   .debug_loclists:000000000000073e .LVUS4
C:\Users\kenne\AppData\Local\Temp\cc6xNdAw.s:52     .text._ZN3Bus8sendDataEPhj:0000000000000000 .LFB34
C:\Users\kenne\AppData\Local\Temp\cc6xNdAw.s:78     .text._ZN3Bus8sendDataEPhj:000000000000000e .LFE34
C:\Users\kenne\AppData\Local\Temp\cc6xNdAw.s:7758   .debug_loclists:000000000000075e .LLST2
C:\Users\kenne\AppData\Local\Temp\cc6xNdAw.s:7753   .debug_loclists:000000000000075a .LVUS2
C:\Users\kenne\AppData\Local\Temp\cc6xNdAw.s:16     .text._ZN3Bus7readRegEhPhj:0000000000000000 .LFB33
C:\Users\kenne\AppData\Local\Temp\cc6xNdAw.s:45     .text._ZN3Bus7readRegEhPhj:000000000000000e .LFE33
C:\Users\kenne\AppData\Local\Temp\cc6xNdAw.s:7787   .debug_loclists:000000000000077c .LLST0
C:\Users\kenne\AppData\Local\Temp\cc6xNdAw.s:7782   .debug_loclists:0000000000000778 .LVUS0
C:\Users\kenne\AppData\Local\Temp\cc6xNdAw.s:7816   .debug_loclists:000000000000079a .LLST1
C:\Users\kenne\AppData\Local\Temp\cc6xNdAw.s:7811   .debug_loclists:0000000000000796 .LVUS1
C:\Users\kenne\AppData\Local\Temp\cc6xNdAw.s:387    .text._Z7getTickv:0000000000000000 .LFB32
C:\Users\kenne\AppData\Local\Temp\cc6xNdAw.s:403    .text._Z7getTickv:0000000000000008 .LFE32
C:\Users\kenne\AppData\Local\Temp\cc6xNdAw.s:523    .text._Z41__static_initialization_and_destruction_0ii:0000000000000000 .LVL31
C:\Users\kenne\AppData\Local\Temp\cc6xNdAw.s:1888   .text._ZN3Twi16interruptHandlerEv:0000000000000000 .LVL125
C:\Users\kenne\AppData\Local\Temp\cc6xNdAw.s:1906   .text._ZN3Twi16interruptHandlerEv:000000000000000a .LVL127
C:\Users\kenne\AppData\Local\Temp\cc6xNdAw.s:1248   .text._ZN3Twi15_readFromBufferEPhh:0000000000000000 .LVL78
C:\Users\kenne\AppData\Local\Temp\cc6xNdAw.s:1299   .text._ZN3Twi15_readFromBufferEPhh:000000000000002a .LVL80
C:\Users\kenne\AppData\Local\Temp\cc6xNdAw.s:1204   .text._ZN3Twi17_startTrasmissionEv:0000000000000000 .LVL76
GAS LISTING C:\Users\kenne\AppData\Local\Temp\cc6xNdAw.s 			page 91


C:\Users\kenne\AppData\Local\Temp\cc6xNdAw.s:1047   .text._ZN3Twi16_waitWhileIsBusyEv:0000000000000000 .LVL66
C:\Users\kenne\AppData\Local\Temp\cc6xNdAw.s:1114   .text._ZN3Twi16_waitWhileIsBusyEv:0000000000000040 .LVL70
C:\Users\kenne\AppData\Local\Temp\cc6xNdAw.s:1102   .text._ZN3Twi16_waitWhileIsBusyEv:0000000000000030 .LVL68
C:\Users\kenne\AppData\Local\Temp\cc6xNdAw.s:363    .text._ZN3Twi12getLastErrorEv:0000000000000000 .LVL24
C:\Users\kenne\AppData\Local\Temp\cc6xNdAw.s:1014   .text._ZN3Twi10setTimeoutEj:0000000000000000 .LVL64
C:\Users\kenne\AppData\Local\Temp\cc6xNdAw.s:599    .text._ZN3Twi4initEmh:0000000000000000 .LVL37
C:\Users\kenne\AppData\Local\Temp\cc6xNdAw.s:644    .text._ZN3Twi4initEmh:0000000000000026 .LVL38
C:\Users\kenne\AppData\Local\Temp\cc6xNdAw.s:340    .text._ZN3Twi10getBusTypeEv:0000000000000000 .LVL22
C:\Users\kenne\AppData\Local\Temp\cc6xNdAw.s:1348   .text._ZN3Twi8sendDataEhNS_9OperationEhPhh:0000000000000000 .LVL83
C:\Users\kenne\AppData\Local\Temp\cc6xNdAw.s:1443   .text._ZN3Twi8sendDataEhNS_9OperationEhPhh:0000000000000056 .LVL86
C:\Users\kenne\AppData\Local\Temp\cc6xNdAw.s:269    .text._ZN3Twi9setDeviceEjb:0000000000000000 .LVL19
C:\Users\kenne\AppData\Local\Temp\cc6xNdAw.s:1788   .text._ZN3Twi8writeRegEhPKhj:0000000000000000 .LVL116
C:\Users\kenne\AppData\Local\Temp\cc6xNdAw.s:1688   .text._ZN3Twi7readRegEhPhj:0000000000000000 .LVL107
C:\Users\kenne\AppData\Local\Temp\cc6xNdAw.s:409    .text._ZN3TwiC2Ev:0000000000000000 .LVL26
C:\Users\kenne\AppData\Local\Temp\cc6xNdAw.s:420    .text._ZN3TwiC2Ev:0000000000000004 .LVL27
C:\Users\kenne\AppData\Local\Temp\cc6xNdAw.s:245    .text._ZN3Bus12getLastErrorEv:0000000000000000 .LVL17
C:\Users\kenne\AppData\Local\Temp\cc6xNdAw.s:220    .text._ZN3Bus10getBusTypeEv:0000000000000000 .LVL15
C:\Users\kenne\AppData\Local\Temp\cc6xNdAw.s:187    .text._ZN3Bus9setDeviceEPFvvES1_:0000000000000000 .LVL13
C:\Users\kenne\AppData\Local\Temp\cc6xNdAw.s:154    .text._ZN3Bus9setDeviceEjb:0000000000000000 .LVL11
C:\Users\kenne\AppData\Local\Temp\cc6xNdAw.s:119    .text._ZN3Bus8writeRegEhPKhj:0000000000000000 .LVL8
C:\Users\kenne\AppData\Local\Temp\cc6xNdAw.s:84     .text._ZN3Bus8sendDataEPKhPhj:0000000000000000 .LVL5
C:\Users\kenne\AppData\Local\Temp\cc6xNdAw.s:51     .text._ZN3Bus8sendDataEPhj:0000000000000000 .LVL3
C:\Users\kenne\AppData\Local\Temp\cc6xNdAw.s:15     .text._ZN3Bus7readRegEhPhj:0000000000000000 .LVL0
C:\Users\kenne\AppData\Local\Temp\cc6xNdAw.s:2297   .debug_info:0000000000000000 .Ldebug_info0
C:\Users\kenne\AppData\Local\Temp\cc6xNdAw.s:1284   .text._ZN3Twi15_readFromBufferEPhh:000000000000001c .LBB10
C:\Users\kenne\AppData\Local\Temp\cc6xNdAw.s:1444   .text._ZN3Twi8sendDataEhNS_9OperationEhPhh:0000000000000056 .LBB14

UNDEFINED SYMBOLS
free
calloc
systemStatus
_ZN12SystemStatus11getCpuClockEv
__udivmodsi4
_ZN12SystemStatus13readStopwatchEv
__do_global_ctors
__do_global_dtors
__do_copy_data
__do_clear_bss
