GAS LISTING C:\Users\kenne\AppData\Local\Temp\cc4WHnAx.s 			page 1


   1               		.file	"usart0.cpp"
   2               	__SP_H__ = 0x3e
   3               	__SP_L__ = 0x3d
   4               	__SREG__ = 0x3f
   5               	__tmp_reg__ = 0
   6               	__zero_reg__ = 1
   7               		.text
   8               	.Ltext0:
   9               		.cfi_sections	.debug_frame
  10               		.file 0 "C:\\D\\IFSC\\MCC\\projects\\final_laptop" "funsape/peripheral/usart0.cpp"
  11               		.section	.text._Z7getTickv,"ax",@progbits
  12               		.weak	_Z7getTickv
  14               	_Z7getTickv:
  15               	.LFB32:
  16               		.file 1 "funsape/peripheral/../globalDefines.hpp"
   1:funsape/peripheral/../globalDefines.hpp **** //!
   2:funsape/peripheral/../globalDefines.hpp **** //! \file           globalDefines.hpp
   3:funsape/peripheral/../globalDefines.hpp **** //! \brief          Global definitions file
   4:funsape/peripheral/../globalDefines.hpp **** //! \author         Leandro Schwarz (bladabuska+funsapeavr8lib@gmail.com)
   5:funsape/peripheral/../globalDefines.hpp **** //! \date           2023-04-05
   6:funsape/peripheral/../globalDefines.hpp **** //! \version        23.04
   7:funsape/peripheral/../globalDefines.hpp **** //! \copyright      license
   8:funsape/peripheral/../globalDefines.hpp **** //! \details        Global definitions file.
   9:funsape/peripheral/../globalDefines.hpp **** //! \todo           Todo list
  10:funsape/peripheral/../globalDefines.hpp **** //!
  11:funsape/peripheral/../globalDefines.hpp **** 
  12:funsape/peripheral/../globalDefines.hpp **** // =============================================================================
  13:funsape/peripheral/../globalDefines.hpp **** // Include guard (START)
  14:funsape/peripheral/../globalDefines.hpp **** // =============================================================================
  15:funsape/peripheral/../globalDefines.hpp **** 
  16:funsape/peripheral/../globalDefines.hpp **** #ifndef __GLOBAL_DEFINES_HPP
  17:funsape/peripheral/../globalDefines.hpp **** #define __GLOBAL_DEFINES_HPP                    2304
  18:funsape/peripheral/../globalDefines.hpp **** 
  19:funsape/peripheral/../globalDefines.hpp **** // =============================================================================
  20:funsape/peripheral/../globalDefines.hpp **** // Basic definitions
  21:funsape/peripheral/../globalDefines.hpp **** // =============================================================================
  22:funsape/peripheral/../globalDefines.hpp **** 
  23:funsape/peripheral/../globalDefines.hpp **** #ifndef F_CPU
  24:funsape/peripheral/../globalDefines.hpp **** #   define F_CPU    16000000UL
  25:funsape/peripheral/../globalDefines.hpp **** #endif
  26:funsape/peripheral/../globalDefines.hpp **** 
  27:funsape/peripheral/../globalDefines.hpp **** // =============================================================================
  28:funsape/peripheral/../globalDefines.hpp **** // Dependencies
  29:funsape/peripheral/../globalDefines.hpp **** // =============================================================================
  30:funsape/peripheral/../globalDefines.hpp **** 
  31:funsape/peripheral/../globalDefines.hpp **** //     //////////////////     AVR STANDARD LIBRARY     //////////////////     //
  32:funsape/peripheral/../globalDefines.hpp **** #include <avr/io.h>
  33:funsape/peripheral/../globalDefines.hpp **** #include <avr/interrupt.h>
  34:funsape/peripheral/../globalDefines.hpp **** #include <util/delay.h>
  35:funsape/peripheral/../globalDefines.hpp **** #include <util/atomic.h>
  36:funsape/peripheral/../globalDefines.hpp **** 
  37:funsape/peripheral/../globalDefines.hpp **** //     ///////////////////     STANDARD C LIBRARY     ///////////////////     //
  38:funsape/peripheral/../globalDefines.hpp **** #include <stddef.h>
  39:funsape/peripheral/../globalDefines.hpp **** #include <stdint.h>
  40:funsape/peripheral/../globalDefines.hpp **** #include <stdio.h>
  41:funsape/peripheral/../globalDefines.hpp **** #include <stdlib.h>
  42:funsape/peripheral/../globalDefines.hpp **** #include <string.h>
GAS LISTING C:\Users\kenne\AppData\Local\Temp\cc4WHnAx.s 			page 2


  43:funsape/peripheral/../globalDefines.hpp **** 
  44:funsape/peripheral/../globalDefines.hpp **** //     //////////////////     LIBRARY DEPENDENCIES     //////////////////     //
  45:funsape/peripheral/../globalDefines.hpp **** #include "pinout.hpp"
  46:funsape/peripheral/../globalDefines.hpp **** #if !defined(__PINOUT_HPP)
  47:funsape/peripheral/../globalDefines.hpp **** #   error "Header file (pinout.hpp) is corrupted!"
  48:funsape/peripheral/../globalDefines.hpp **** #elif __PINOUT_HPP != __GLOBAL_DEFINES_HPP
  49:funsape/peripheral/../globalDefines.hpp **** #   error "Version mismatch between header file and library dependency (pinout.hpp)!"
  50:funsape/peripheral/../globalDefines.hpp **** #endif
  51:funsape/peripheral/../globalDefines.hpp **** 
  52:funsape/peripheral/../globalDefines.hpp **** // =============================================================================
  53:funsape/peripheral/../globalDefines.hpp **** // Undefining previous definitions
  54:funsape/peripheral/../globalDefines.hpp **** // =============================================================================
  55:funsape/peripheral/../globalDefines.hpp **** 
  56:funsape/peripheral/../globalDefines.hpp **** // NONE
  57:funsape/peripheral/../globalDefines.hpp **** 
  58:funsape/peripheral/../globalDefines.hpp **** // =============================================================================
  59:funsape/peripheral/../globalDefines.hpp **** // Constant definitions
  60:funsape/peripheral/../globalDefines.hpp **** // =============================================================================
  61:funsape/peripheral/../globalDefines.hpp **** 
  62:funsape/peripheral/../globalDefines.hpp **** #define inlined                         inline __attribute__((always_inline))
  63:funsape/peripheral/../globalDefines.hpp **** #define weakened                        __attribute__((weak))
  64:funsape/peripheral/../globalDefines.hpp **** 
  65:funsape/peripheral/../globalDefines.hpp **** // =============================================================================
  66:funsape/peripheral/../globalDefines.hpp **** // New data types
  67:funsape/peripheral/../globalDefines.hpp **** // =============================================================================
  68:funsape/peripheral/../globalDefines.hpp **** 
  69:funsape/peripheral/../globalDefines.hpp **** //     ////////////////////     BASIC VARIABLES     /////////////////////     //
  70:funsape/peripheral/../globalDefines.hpp **** typedef bool                            bool_t;
  71:funsape/peripheral/../globalDefines.hpp **** typedef char                            char_t;
  72:funsape/peripheral/../globalDefines.hpp **** 
  73:funsape/peripheral/../globalDefines.hpp **** //     ///////////////////     CONSTANT VARIABLES    ////////////////////     //
  74:funsape/peripheral/../globalDefines.hpp **** typedef const bool_t                    cbool_t;
  75:funsape/peripheral/../globalDefines.hpp **** typedef const char_t                    cchar_t;
  76:funsape/peripheral/../globalDefines.hpp **** typedef const int8_t                    cint8_t;
  77:funsape/peripheral/../globalDefines.hpp **** typedef const int16_t                   cint16_t;
  78:funsape/peripheral/../globalDefines.hpp **** typedef const int32_t                   cint32_t;
  79:funsape/peripheral/../globalDefines.hpp **** typedef const int64_t                   cint64_t;
  80:funsape/peripheral/../globalDefines.hpp **** typedef const uint8_t                   cuint8_t;
  81:funsape/peripheral/../globalDefines.hpp **** typedef const uint16_t                  cuint16_t;
  82:funsape/peripheral/../globalDefines.hpp **** typedef const uint32_t                  cuint32_t;
  83:funsape/peripheral/../globalDefines.hpp **** typedef const uint64_t                  cuint64_t;
  84:funsape/peripheral/../globalDefines.hpp **** 
  85:funsape/peripheral/../globalDefines.hpp **** //     ///////////////////     VOLATILE VARIABLES    ////////////////////     //
  86:funsape/peripheral/../globalDefines.hpp **** typedef volatile bool_t                 vbool_t;
  87:funsape/peripheral/../globalDefines.hpp **** typedef volatile char_t                 vchar_t;
  88:funsape/peripheral/../globalDefines.hpp **** typedef volatile int8_t                 vint8_t;
  89:funsape/peripheral/../globalDefines.hpp **** typedef volatile int16_t                vint16_t;
  90:funsape/peripheral/../globalDefines.hpp **** typedef volatile int32_t                vint32_t;
  91:funsape/peripheral/../globalDefines.hpp **** typedef volatile int64_t                vint64_t;
  92:funsape/peripheral/../globalDefines.hpp **** typedef volatile uint8_t                vuint8_t;
  93:funsape/peripheral/../globalDefines.hpp **** typedef volatile uint16_t               vuint16_t;
  94:funsape/peripheral/../globalDefines.hpp **** typedef volatile uint32_t               vuint32_t;
  95:funsape/peripheral/../globalDefines.hpp **** typedef volatile uint64_t               vuint64_t;
  96:funsape/peripheral/../globalDefines.hpp **** 
  97:funsape/peripheral/../globalDefines.hpp **** //     /////////////////     AVR PLATFORM VARIABLES    //////////////////     //
  98:funsape/peripheral/../globalDefines.hpp **** typedef int16_t                         int_t;          // 16-bit (AVR)
  99:funsape/peripheral/../globalDefines.hpp **** typedef uint16_t                        uint_t;         // 16-bit (AVR)
GAS LISTING C:\Users\kenne\AppData\Local\Temp\cc4WHnAx.s 			page 3


 100:funsape/peripheral/../globalDefines.hpp **** typedef cint16_t                        cint_t;         // 16-bit (AVR)
 101:funsape/peripheral/../globalDefines.hpp **** typedef cuint16_t                       cuint_t;        // 16-bit (AVR)
 102:funsape/peripheral/../globalDefines.hpp **** typedef vint16_t                        vint_t;         // 16-bit (AVR)
 103:funsape/peripheral/../globalDefines.hpp **** typedef vuint16_t                       vuint_t;        // 16-bit (AVR)
 104:funsape/peripheral/../globalDefines.hpp **** typedef uint8_t                         ioPinIndex_t;   // 8-bit (AVR)
 105:funsape/peripheral/../globalDefines.hpp **** typedef vuint8_t                       *ioRegAddress_t; // 8-bit address (AVR)
 106:funsape/peripheral/../globalDefines.hpp **** 
 107:funsape/peripheral/../globalDefines.hpp **** //     //////////////////     BINARY ENUMERATIONS     ///////////////////     //
 108:funsape/peripheral/../globalDefines.hpp **** enum class Activation : cbool_t {
 109:funsape/peripheral/../globalDefines.hpp ****     OFF                                 = false,
 110:funsape/peripheral/../globalDefines.hpp ****     ON                                  = true
 111:funsape/peripheral/../globalDefines.hpp **** };
 112:funsape/peripheral/../globalDefines.hpp **** 
 113:funsape/peripheral/../globalDefines.hpp **** enum class DisplayOrientation : cbool_t {
 114:funsape/peripheral/../globalDefines.hpp ****     LANDSCAPE                           = false,
 115:funsape/peripheral/../globalDefines.hpp ****     PORTRAIT                            = true
 116:funsape/peripheral/../globalDefines.hpp **** };
 117:funsape/peripheral/../globalDefines.hpp **** 
 118:funsape/peripheral/../globalDefines.hpp **** enum class DriverMode : cbool_t {
 119:funsape/peripheral/../globalDefines.hpp ****     PUSH_PULL                           = false,
 120:funsape/peripheral/../globalDefines.hpp ****     OPEN_DRAIN                          = true,
 121:funsape/peripheral/../globalDefines.hpp **** };
 122:funsape/peripheral/../globalDefines.hpp **** 
 123:funsape/peripheral/../globalDefines.hpp **** enum class Edge : cbool_t {
 124:funsape/peripheral/../globalDefines.hpp ****     FALLING                             = false,
 125:funsape/peripheral/../globalDefines.hpp ****     RISING                              = true
 126:funsape/peripheral/../globalDefines.hpp **** };
 127:funsape/peripheral/../globalDefines.hpp **** 
 128:funsape/peripheral/../globalDefines.hpp **** enum class IoOperation : cbool_t {
 129:funsape/peripheral/../globalDefines.hpp ****     WRITE                               = false,
 130:funsape/peripheral/../globalDefines.hpp ****     READ                                = true
 131:funsape/peripheral/../globalDefines.hpp **** };
 132:funsape/peripheral/../globalDefines.hpp **** 
 133:funsape/peripheral/../globalDefines.hpp **** enum class LogicLevel : cbool_t {
 134:funsape/peripheral/../globalDefines.hpp ****     LOW                                 = false,
 135:funsape/peripheral/../globalDefines.hpp ****     HIGH                                = true
 136:funsape/peripheral/../globalDefines.hpp **** };
 137:funsape/peripheral/../globalDefines.hpp **** 
 138:funsape/peripheral/../globalDefines.hpp **** enum class PinDirection : cbool_t {
 139:funsape/peripheral/../globalDefines.hpp ****     INPUT                               = false,
 140:funsape/peripheral/../globalDefines.hpp ****     OUTPUT                              = true,
 141:funsape/peripheral/../globalDefines.hpp **** };
 142:funsape/peripheral/../globalDefines.hpp **** 
 143:funsape/peripheral/../globalDefines.hpp **** enum class Rotation : cbool_t {
 144:funsape/peripheral/../globalDefines.hpp ****     CLOCKWISE                           = false,
 145:funsape/peripheral/../globalDefines.hpp ****     COUNTERCLOCKWISE                    = true
 146:funsape/peripheral/../globalDefines.hpp **** };
 147:funsape/peripheral/../globalDefines.hpp **** 
 148:funsape/peripheral/../globalDefines.hpp **** enum class State : cbool_t {
 149:funsape/peripheral/../globalDefines.hpp ****     OFF                                 = false,
 150:funsape/peripheral/../globalDefines.hpp ****     ON                                  = true
 151:funsape/peripheral/../globalDefines.hpp **** };
 152:funsape/peripheral/../globalDefines.hpp **** 
 153:funsape/peripheral/../globalDefines.hpp **** //     ///////////////////     PLAIN ENUMERATIONS    ////////////////////     //
 154:funsape/peripheral/../globalDefines.hpp **** enum class Axis : cuint8_t {
 155:funsape/peripheral/../globalDefines.hpp ****     //                                     Z-AXIS     Y-AXIS     X-AXIS
 156:funsape/peripheral/../globalDefines.hpp ****     NONE                                = (0 << 2) | (0 << 1) | (0 << 0),
GAS LISTING C:\Users\kenne\AppData\Local\Temp\cc4WHnAx.s 			page 4


 157:funsape/peripheral/../globalDefines.hpp ****     X                                   = (0 << 2) | (0 << 1) | (1 << 0),
 158:funsape/peripheral/../globalDefines.hpp ****     Y                                   = (0 << 2) | (1 << 1) | (0 << 0),
 159:funsape/peripheral/../globalDefines.hpp ****     XY                                  = (0 << 2) | (1 << 1) | (1 << 0),
 160:funsape/peripheral/../globalDefines.hpp ****     Z                                   = (1 << 2) | (0 << 1) | (0 << 0),
 161:funsape/peripheral/../globalDefines.hpp ****     XZ                                  = (1 << 2) | (0 << 1) | (1 << 0),
 162:funsape/peripheral/../globalDefines.hpp ****     YZ                                  = (1 << 2) | (1 << 1) | (0 << 0),
 163:funsape/peripheral/../globalDefines.hpp ****     ALL                                 = (1 << 2) | (1 << 1) | (1 << 0)
 164:funsape/peripheral/../globalDefines.hpp **** };
 165:funsape/peripheral/../globalDefines.hpp **** 
 166:funsape/peripheral/../globalDefines.hpp **** inlined Axis operator|(Axis a, Axis b)
 167:funsape/peripheral/../globalDefines.hpp **** {
 168:funsape/peripheral/../globalDefines.hpp ****     return static_cast<Axis>(static_cast<cint8_t>(a) | static_cast<uint8_t>(b));
 169:funsape/peripheral/../globalDefines.hpp **** }
 170:funsape/peripheral/../globalDefines.hpp **** 
 171:funsape/peripheral/../globalDefines.hpp **** inlined Axis &operator|=(Axis &a, Axis b)
 172:funsape/peripheral/../globalDefines.hpp **** {
 173:funsape/peripheral/../globalDefines.hpp ****     return a = static_cast<Axis>(static_cast<uint8_t>(a) | static_cast<uint8_t>(b));
 174:funsape/peripheral/../globalDefines.hpp **** }
 175:funsape/peripheral/../globalDefines.hpp **** 
 176:funsape/peripheral/../globalDefines.hpp **** inlined Axis operator&(Axis a, Axis b)
 177:funsape/peripheral/../globalDefines.hpp **** {
 178:funsape/peripheral/../globalDefines.hpp ****     return static_cast<Axis>(static_cast<uint8_t>(a) & static_cast<uint8_t>(b));
 179:funsape/peripheral/../globalDefines.hpp **** }
 180:funsape/peripheral/../globalDefines.hpp **** 
 181:funsape/peripheral/../globalDefines.hpp **** inlined Axis &operator&=(Axis &a, Axis b)
 182:funsape/peripheral/../globalDefines.hpp **** {
 183:funsape/peripheral/../globalDefines.hpp ****     return a = static_cast<Axis>(static_cast<uint8_t>(a) & static_cast<uint8_t>(b));
 184:funsape/peripheral/../globalDefines.hpp **** }
 185:funsape/peripheral/../globalDefines.hpp **** 
 186:funsape/peripheral/../globalDefines.hpp **** enum class Direction : cuint8_t {
 187:funsape/peripheral/../globalDefines.hpp ****     LEFT                                = 0,
 188:funsape/peripheral/../globalDefines.hpp ****     RIGHT                               = 1,
 189:funsape/peripheral/../globalDefines.hpp ****     UP                                  = 2,
 190:funsape/peripheral/../globalDefines.hpp ****     DOWN                                = 3
 191:funsape/peripheral/../globalDefines.hpp **** };
 192:funsape/peripheral/../globalDefines.hpp **** 
 193:funsape/peripheral/../globalDefines.hpp **** enum class InterfaceMode : cuint8_t {
 194:funsape/peripheral/../globalDefines.hpp ****     BLOCKING_MODE                       = 0,
 195:funsape/peripheral/../globalDefines.hpp ****     INTERRUPT_MODE                      = 1,
 196:funsape/peripheral/../globalDefines.hpp ****     DMA_MODE                            = 2
 197:funsape/peripheral/../globalDefines.hpp **** };
 198:funsape/peripheral/../globalDefines.hpp **** 
 199:funsape/peripheral/../globalDefines.hpp **** enum class ThermometricScale : cuint8_t {
 200:funsape/peripheral/../globalDefines.hpp ****     CELSIUS                             = 0,
 201:funsape/peripheral/../globalDefines.hpp ****     DELISLE                             = 1,
 202:funsape/peripheral/../globalDefines.hpp ****     FAHRENHEIT                          = 2,
 203:funsape/peripheral/../globalDefines.hpp ****     KELVIN                              = 3,
 204:funsape/peripheral/../globalDefines.hpp ****     NEWTON                              = 4,
 205:funsape/peripheral/../globalDefines.hpp ****     RANKINE                             = 5,
 206:funsape/peripheral/../globalDefines.hpp ****     REAUMUR                             = 6,
 207:funsape/peripheral/../globalDefines.hpp ****     ROMER                               = 7
 208:funsape/peripheral/../globalDefines.hpp **** };
 209:funsape/peripheral/../globalDefines.hpp **** 
 210:funsape/peripheral/../globalDefines.hpp **** enum class Error : cuint16_t {
 211:funsape/peripheral/../globalDefines.hpp ****     // General error codes
 212:funsape/peripheral/../globalDefines.hpp ****     NONE                                                = 0x0000,   // Success - No errors occurred
 213:funsape/peripheral/../globalDefines.hpp ****     AXIS_INVALID                                        = 0x0001,   // Invalid axis
GAS LISTING C:\Users\kenne\AppData\Local\Temp\cc4WHnAx.s 			page 5


 214:funsape/peripheral/../globalDefines.hpp ****     NOT_IMPLEMENTED                                     = 0x0002,   // Not implemented yet
 215:funsape/peripheral/../globalDefines.hpp ****     UNDER_DEVELOPMENT                                   = 0x0003,   // This part of the code is sti
 216:funsape/peripheral/../globalDefines.hpp ****     NOT_INITIALIZED                                     = 0x0004,   // Not initialized
 217:funsape/peripheral/../globalDefines.hpp ****     // BUSY                                                = 0x0005,   // TODO: Describe parameter
 218:funsape/peripheral/../globalDefines.hpp ****     // DEVICE_NOT_SUPPORTED                                = 0x0006,   // Device is not currently s
 219:funsape/peripheral/../globalDefines.hpp ****     FEATURE_NOT_SUPPORTED                               = 0x0007,   // Unsupported feature or confi
 220:funsape/peripheral/../globalDefines.hpp ****     // FUNCTION_POINTER_NULL                               = 0x0008,   // TODO: Describe parameter
 221:funsape/peripheral/../globalDefines.hpp ****     // INSTANCE_INVALID                                    = 0x0009,   // Invalid instance
 222:funsape/peripheral/../globalDefines.hpp ****     // LOCKED                                              = 0x000A,   // Accessed a locked device
 223:funsape/peripheral/../globalDefines.hpp ****     MEMORY_ALLOCATION                                   = 0x000B,   // Memory allocation failed
 224:funsape/peripheral/../globalDefines.hpp ****     // MODE_NOT_SUPPORTED                                  = 0x000C,   // Mode is not currently sup
 225:funsape/peripheral/../globalDefines.hpp ****     // NOT_READY                                           = 0x000D,   // TODO: Describe parameter
 226:funsape/peripheral/../globalDefines.hpp ****     // READ_PROTECTED                                      = 0x000E,   // Tried to read a read prot
 227:funsape/peripheral/../globalDefines.hpp ****     // WRITE_PROTECTED                                     = 0x000F,   // Tried to write a write pr
 228:funsape/peripheral/../globalDefines.hpp **** 
 229:funsape/peripheral/../globalDefines.hpp ****     // Function arguments related error codes
 230:funsape/peripheral/../globalDefines.hpp ****     ARGUMENT_CANNOT_BE_ZERO                             = 0x0010,   // TODO: Describe parameter
 231:funsape/peripheral/../globalDefines.hpp ****     ARGUMENT_POINTER_NULL                               = 0x0011,   // NULL pointer was passed as a
 232:funsape/peripheral/../globalDefines.hpp ****     ARGUMENT_VALUE_INVALID                              = 0x0012,   // TODO: Describe parameter
 233:funsape/peripheral/../globalDefines.hpp ****     // ARGUMENTS_MISMATCH                                  = 0x0013,   // A function was called wit
 234:funsape/peripheral/../globalDefines.hpp ****     // ARGUMENTS_WRONG_NUMBER                              = 0x0014,   // A function was called wit
 235:funsape/peripheral/../globalDefines.hpp ****     // ARGUMENT_GENERIC_ERROR_5                            = 0x0015,   // Generic error (use only o
 236:funsape/peripheral/../globalDefines.hpp ****     // ARGUMENT_GENERIC_ERROR_6                            = 0x0016,   // Generic error (use only o
 237:funsape/peripheral/../globalDefines.hpp ****     // ARGUMENT_GENERIC_ERROR_7                            = 0x0017,   // Generic error (use only o
 238:funsape/peripheral/../globalDefines.hpp ****     // ARGUMENT_GENERIC_ERROR_8                            = 0x0018,   // Generic error (use only o
 239:funsape/peripheral/../globalDefines.hpp ****     // ARGUMENT_GENERIC_ERROR_9                            = 0x0019,   // Generic error (use only o
 240:funsape/peripheral/../globalDefines.hpp ****     // ARGUMENT_GENERIC_ERROR_10                           = 0x001A,   // Generic error (use only o
 241:funsape/peripheral/../globalDefines.hpp ****     // ARGUMENT_GENERIC_ERROR_11                           = 0x001B,   // Generic error (use only o
 242:funsape/peripheral/../globalDefines.hpp ****     // ARGUMENT_GENERIC_ERROR_12                           = 0x001C,   // Generic error (use only o
 243:funsape/peripheral/../globalDefines.hpp ****     // ARGUMENT_GENERIC_ERROR_13                           = 0x001D,   // Generic error (use only o
 244:funsape/peripheral/../globalDefines.hpp ****     // ARGUMENT_GENERIC_ERROR_14                           = 0x001E,   // Generic error (use only o
 245:funsape/peripheral/../globalDefines.hpp ****     // ARGUMENT_GENERIC_ERROR                              = 0x001F,   // Generic error (use only o
 246:funsape/peripheral/../globalDefines.hpp **** 
 247:funsape/peripheral/../globalDefines.hpp ****     // Buffer related error codes
 248:funsape/peripheral/../globalDefines.hpp ****     // BUFFER_EMPTY                                        = 0x0020,   // Buffer is empty
 249:funsape/peripheral/../globalDefines.hpp ****     // BUFFER_FULL                                         = 0x0021,   // Buffer is full
 250:funsape/peripheral/../globalDefines.hpp ****     // BUFFER_NOT_ENOUGH_ELEMENTS                          = 0x0022,   // Not enough space in buffe
 251:funsape/peripheral/../globalDefines.hpp ****     // BUFFER_NOT_ENOUGH_SPACE                             = 0x0023,   // Not enough space in buffe
 252:funsape/peripheral/../globalDefines.hpp ****     // BUFFER_POINTER_NULL                                 = 0x0024,   // Buffer size was set to ze
 253:funsape/peripheral/../globalDefines.hpp ****     BUFFER_SIZE_TOO_LARGE                               = 0x0025,   // Buffer size was set to a lar
 254:funsape/peripheral/../globalDefines.hpp ****     BUFFER_SIZE_TOO_SMALL                               = 0x0026,   // Buffer size was set to a ver
 255:funsape/peripheral/../globalDefines.hpp ****     // BUFFER_SIZE_ZERO                                    = 0x0027,   // Buffer size was set to ze
 256:funsape/peripheral/../globalDefines.hpp ****     // BUFFER_GENERIC_ERROR_8                              = 0x0028,   // Generic error (use only o
 257:funsape/peripheral/../globalDefines.hpp ****     // BUFFER_GENERIC_ERROR_9                              = 0x0029,   // Generic error (use only o
 258:funsape/peripheral/../globalDefines.hpp ****     // BUFFER_GENERIC_ERROR_10                             = 0x002A,   // Generic error (use only o
 259:funsape/peripheral/../globalDefines.hpp ****     // BUFFER_GENERIC_ERROR_11                             = 0x002B,   // Generic error (use only o
 260:funsape/peripheral/../globalDefines.hpp ****     // BUFFER_GENERIC_ERROR_12                             = 0x002C,   // Generic error (use only o
 261:funsape/peripheral/../globalDefines.hpp ****     // BUFFER_GENERIC_ERROR_13                             = 0x002D,   // Generic error (use only o
 262:funsape/peripheral/../globalDefines.hpp ****     // BUFFER_GENERIC_ERROR_14                             = 0x002E,   // Generic error (use only o
 263:funsape/peripheral/../globalDefines.hpp ****     // BUFFER_GENERIC_ERROR_15                             = 0x002F,   // Generic error (use only o
 264:funsape/peripheral/../globalDefines.hpp **** 
 265:funsape/peripheral/../globalDefines.hpp ****     // Clock configuration related error codes
 266:funsape/peripheral/../globalDefines.hpp ****     CLOCK_PRESCALER_CHANGE_FAILED                       = 0x0030,   // Clock prescaler change faile
 267:funsape/peripheral/../globalDefines.hpp ****     CLOCK_PRESCALER_NOT_SUPPORTED                       = 0x0031,   // Clock prescaler configuratio
 268:funsape/peripheral/../globalDefines.hpp ****     CLOCK_SPEED_TOO_HIGH                                = 0x0032,   // TODO: Describe parameter
 269:funsape/peripheral/../globalDefines.hpp ****     CLOCK_SPEED_TOO_LOW                                 = 0x0033,   // TODO: Describe parameter
 270:funsape/peripheral/../globalDefines.hpp ****     // CLOCK_GENERIC_ERROR_4                               = 0x0034,   // Generic error (use only o
GAS LISTING C:\Users\kenne\AppData\Local\Temp\cc4WHnAx.s 			page 6


 271:funsape/peripheral/../globalDefines.hpp ****     // CLOCK_GENERIC_ERROR_5                               = 0x0035,   // Generic error (use only o
 272:funsape/peripheral/../globalDefines.hpp ****     // CLOCK_GENERIC_ERROR_6                               = 0x0036,   // Generic error (use only o
 273:funsape/peripheral/../globalDefines.hpp ****     // CLOCK_GENERIC_ERROR_7                               = 0x0037,   // Generic error (use only o
 274:funsape/peripheral/../globalDefines.hpp ****     // CLOCK_GENERIC_ERROR_8                               = 0x0038,   // Generic error (use only o
 275:funsape/peripheral/../globalDefines.hpp ****     // CLOCK_GENERIC_ERROR_9                               = 0x0039,   // Generic error (use only o
 276:funsape/peripheral/../globalDefines.hpp ****     // CLOCK_GENERIC_ERROR_10                              = 0x003A,   // Generic error (use only o
 277:funsape/peripheral/../globalDefines.hpp ****     // CLOCK_GENERIC_ERROR_11                              = 0x003B,   // Generic error (use only o
 278:funsape/peripheral/../globalDefines.hpp ****     // CLOCK_GENERIC_ERROR_12                              = 0x003C,   // Generic error (use only o
 279:funsape/peripheral/../globalDefines.hpp ****     // CLOCK_GENERIC_ERROR_13                              = 0x003D,   // Generic error (use only o
 280:funsape/peripheral/../globalDefines.hpp ****     // CLOCK_GENERIC_ERROR_14                              = 0x003E,   // Generic error (use only o
 281:funsape/peripheral/../globalDefines.hpp ****     // CLOCK_GENERIC_ERROR_15                              = 0x003F,   // Generic error (use only o
 282:funsape/peripheral/../globalDefines.hpp **** 
 283:funsape/peripheral/../globalDefines.hpp ****     // Communication related error codes
 284:funsape/peripheral/../globalDefines.hpp ****     COMMUNICATION_FAILED                                = 0x0040,   // TODO: Describe parameter
 285:funsape/peripheral/../globalDefines.hpp ****     COMMUNICATION_NO_DEVICE_SELECTED                    = 0x0041,   // TODO: Describe parameter
 286:funsape/peripheral/../globalDefines.hpp ****     // COMMUNICATION_PORT_NOT_SET                          = 0x0042,   // TODO: Describe parameter
 287:funsape/peripheral/../globalDefines.hpp ****     COMMUNICATION_TIMEOUT                               = 0x0043,   // The operation timed out
 288:funsape/peripheral/../globalDefines.hpp ****     // COMMUNICATION_DEVICE_ID_MATCH_FAILED                = 0x0044,   // TODO: Describe parameter
 289:funsape/peripheral/../globalDefines.hpp ****     // CHECKSUM_ERROR                                      = 0x0045,   // TODO: Describe parameter
 290:funsape/peripheral/../globalDefines.hpp ****     // FRAME_ERROR                                         = 0x0046,   // TODO: Describe parameter
 291:funsape/peripheral/../globalDefines.hpp ****     // PACKAGE_AWAITING                                    = 0x0047,   // Try to write data to a re
 292:funsape/peripheral/../globalDefines.hpp ****     // PACKAGE_NOT_READY                                   = 0x0048,   // Try to read data from a n
 293:funsape/peripheral/../globalDefines.hpp ****     // COMMUNICATION_GENERIC_ERROR_9                       = 0x0049,   // Generic error (use only o
 294:funsape/peripheral/../globalDefines.hpp ****     // COMMUNICATION_GENERIC_ERROR_10                      = 0x004A,   // Generic error (use only o
 295:funsape/peripheral/../globalDefines.hpp ****     // COMMUNICATION_GENERIC_ERROR_11                      = 0x004B,   // Generic error (use only o
 296:funsape/peripheral/../globalDefines.hpp ****     // COMMUNICATION_GENERIC_ERROR_12                      = 0x004C,   // Generic error (use only o
 297:funsape/peripheral/../globalDefines.hpp ****     // COMMUNICATION_GENERIC_ERROR_13                      = 0x004D,   // Generic error (use only o
 298:funsape/peripheral/../globalDefines.hpp ****     // COMMUNICATION_GENERIC_ERROR_14                      = 0x004E,   // Generic error (use only o
 299:funsape/peripheral/../globalDefines.hpp ****     // COMMUNICATION_GENERIC_ERROR_15                      = 0x004F,   // Generic error (use only o
 300:funsape/peripheral/../globalDefines.hpp **** 
 301:funsape/peripheral/../globalDefines.hpp ****     // DateTime class related error codes
 302:funsape/peripheral/../globalDefines.hpp ****     DATE_NOT_INITIALIZED                                = 0x0050,   // TODO: Describe parameter
 303:funsape/peripheral/../globalDefines.hpp ****     // HOUR_INVALID                                        = 0x0051,   // TODO: Describe parameter
 304:funsape/peripheral/../globalDefines.hpp ****     // MILLISECOND_INVALID                                 = 0x0052,   // TODO: Describe parameter
 305:funsape/peripheral/../globalDefines.hpp ****     // MINUTE_INVALID                                      = 0x0053,   // TODO: Describe parameter
 306:funsape/peripheral/../globalDefines.hpp ****     // MONTH_DAY_INVALID                                   = 0x0054,   // TODO: Describe parameter
 307:funsape/peripheral/../globalDefines.hpp ****     // MONTH_INVALID                                       = 0x0055,   // TODO: Describe parameter
 308:funsape/peripheral/../globalDefines.hpp ****     // SECOND_INVALID                                      = 0x0056,   // TODO: Describe parameter
 309:funsape/peripheral/../globalDefines.hpp ****     TIME_NOT_INITIALIZED                                = 0x0057,   // TODO: Describe parameter
 310:funsape/peripheral/../globalDefines.hpp ****     // TIMEZONE_INVALID                                    = 0x0058,   // TODO: Describe parameter
 311:funsape/peripheral/../globalDefines.hpp ****     // YEAR_INVALID                                        = 0x0059,   // TODO: Describe parameter
 312:funsape/peripheral/../globalDefines.hpp ****     DATE_INVALID                                        = 0x005A,   // TODO: Describe parameter
 313:funsape/peripheral/../globalDefines.hpp ****     TIME_INVALID                                        = 0x005B,   // TODO: Describe parameter
 314:funsape/peripheral/../globalDefines.hpp ****     // GENERIC_ERROR_13                                    = 0x005C,   // Generic error (use only o
 315:funsape/peripheral/../globalDefines.hpp ****     // GENERIC_ERROR_14                                    = 0x005D,   // Generic error (use only o
 316:funsape/peripheral/../globalDefines.hpp ****     // GENERIC_ERROR_15                                    = 0x005F,   // Generic error (use only o
 317:funsape/peripheral/../globalDefines.hpp **** 
 318:funsape/peripheral/../globalDefines.hpp ****     // Handler related error codes
 319:funsape/peripheral/../globalDefines.hpp ****     BUS_HANDLER_NOT_SUPPORTED                           = 0x0060,   // TODO: Describe parameter
 320:funsape/peripheral/../globalDefines.hpp ****     BUS_HANDLER_POINTER_NULL                            = 0x0061,   // TODO: Describe parameter
 321:funsape/peripheral/../globalDefines.hpp ****     // HANDLER_GENERIC_ERROR_2                             = 0x0062,   // Generic error (use only o
 322:funsape/peripheral/../globalDefines.hpp ****     // HANDLER_GENERIC_ERROR_3                             = 0x0063,   // Generic error (use only o
 323:funsape/peripheral/../globalDefines.hpp ****     // HANDLER_GENERIC_ERROR_4                             = 0x0064,   // Generic error (use only o
 324:funsape/peripheral/../globalDefines.hpp ****     // HANDLER_GENERIC_ERROR_5                             = 0x0065,   // Generic error (use only o
 325:funsape/peripheral/../globalDefines.hpp ****     // HANDLER_GENERIC_ERROR_6                             = 0x0066,   // Generic error (use only o
 326:funsape/peripheral/../globalDefines.hpp ****     // HANDLER_GENERIC_ERROR_7                             = 0x0067,   // Generic error (use only o
 327:funsape/peripheral/../globalDefines.hpp ****     // HANDLER_GENERIC_ERROR_8                             = 0x0068,   // Generic error (use only o
GAS LISTING C:\Users\kenne\AppData\Local\Temp\cc4WHnAx.s 			page 7


 328:funsape/peripheral/../globalDefines.hpp ****     // HANDLER_GENERIC_ERROR_9                             = 0x0069,   // Generic error (use only o
 329:funsape/peripheral/../globalDefines.hpp ****     // HANDLER_GENERIC_ERROR_10                            = 0x006A,   // Generic error (use only o
 330:funsape/peripheral/../globalDefines.hpp ****     // HANDLER_GENERIC_ERROR_11                            = 0x006B,   // Generic error (use only o
 331:funsape/peripheral/../globalDefines.hpp ****     // HANDLER_GENERIC_ERROR_12                            = 0x006C,   // Generic error (use only o
 332:funsape/peripheral/../globalDefines.hpp ****     // HANDLER_GENERIC_ERROR_13                            = 0x006D,   // Generic error (use only o
 333:funsape/peripheral/../globalDefines.hpp ****     // HANDLER_GENERIC_ERROR_14                            = 0x006E,   // Generic error (use only o
 334:funsape/peripheral/../globalDefines.hpp ****     // HANDLER_GENERIC_ERROR_15                            = 0x006F,   // Generic error (use only o
 335:funsape/peripheral/../globalDefines.hpp **** 
 336:funsape/peripheral/../globalDefines.hpp ****     // External interrupts related error codes
 337:funsape/peripheral/../globalDefines.hpp ****     // INTERRUPT_NOT_AVAILABLE                             = 0x0070,   // TODO: Describe parameter
 338:funsape/peripheral/../globalDefines.hpp ****     // INTERRUPT_PORT_OUTPUT_MODE_NOT_SUPPORTED            = 0x0071,   // TODO: Describe parameter
 339:funsape/peripheral/../globalDefines.hpp ****     // INTERRUPT_SENSE_MODE_NOT_SUPPORTED                  = 0x0072,   // TODO: Describe parameter
 340:funsape/peripheral/../globalDefines.hpp ****     // INTERRUPT_GENERIC_ERROR_3                           = 0x0073,   // Generic error (use only o
 341:funsape/peripheral/../globalDefines.hpp ****     // INTERRUPT_GENERIC_ERROR_4                           = 0x0074,   // Generic error (use only o
 342:funsape/peripheral/../globalDefines.hpp ****     // INTERRUPT_GENERIC_ERROR_5                           = 0x0075,   // Generic error (use only o
 343:funsape/peripheral/../globalDefines.hpp ****     // INTERRUPT_GENERIC_ERROR_6                           = 0x0076,   // Generic error (use only o
 344:funsape/peripheral/../globalDefines.hpp ****     // INTERRUPT_GENERIC_ERROR_7                           = 0x0077,   // Generic error (use only o
 345:funsape/peripheral/../globalDefines.hpp ****     // INTERRUPT_GENERIC_ERROR_8                           = 0x0078,   // Generic error (use only o
 346:funsape/peripheral/../globalDefines.hpp ****     // INTERRUPT_GENERIC_ERROR_9                           = 0x0079,   // Generic error (use only o
 347:funsape/peripheral/../globalDefines.hpp ****     // INTERRUPT_GENERIC_ERROR_10                          = 0x007A,   // Generic error (use only o
 348:funsape/peripheral/../globalDefines.hpp ****     // INTERRUPT_GENERIC_ERROR_11                          = 0x007B,   // Generic error (use only o
 349:funsape/peripheral/../globalDefines.hpp ****     // INTERRUPT_GENERIC_ERROR_12                          = 0x007C,   // Generic error (use only o
 350:funsape/peripheral/../globalDefines.hpp ****     // INTERRUPT_GENERIC_ERROR_13                          = 0x007D,   // Generic error (use only o
 351:funsape/peripheral/../globalDefines.hpp ****     // INTERRUPT_GENERIC_ERROR_14                          = 0x007E,   // Generic error (use only o
 352:funsape/peripheral/../globalDefines.hpp ****     // INTERRUPT_GENERIC_ERROR_15                          = 0x007F,   // Generic error (use only o
 353:funsape/peripheral/../globalDefines.hpp **** 
 354:funsape/peripheral/../globalDefines.hpp **** 
 355:funsape/peripheral/../globalDefines.hpp ****     // Package API class related error codes
 356:funsape/peripheral/../globalDefines.hpp ****     // PACKAGE_API_PACKAGE_DATA_FULL                       = 0x0080,   // TODO: Describe parameter
 357:funsape/peripheral/../globalDefines.hpp ****     // PACKAGE_API_PACKAGE_NOT_READY                       = 0x0081,   // TODO: Describe parameter
 358:funsape/peripheral/../globalDefines.hpp ****     // PACKAGE_API_PAYLOAD_DATA_NULL                       = 0x0082,   // TODO: Describe parameter
 359:funsape/peripheral/../globalDefines.hpp ****     // PACKAGE_API_PAYLOAD_SIZE_NULL                       = 0x0083,   // TODO: Describe parameter
 360:funsape/peripheral/../globalDefines.hpp ****     // PACKAGE_API_SOURCE_ADDRESS_INVALID                  = 0x0084,   // TODO: Describe parameter
 361:funsape/peripheral/../globalDefines.hpp ****     // PACKAGE_API_GENERIC_ERROR_5                         = 0x0085,   // Generic error (use only o
 362:funsape/peripheral/../globalDefines.hpp ****     // PACKAGE_API_GENERIC_ERROR_6                         = 0x0086,   // Generic error (use only o
 363:funsape/peripheral/../globalDefines.hpp ****     // PACKAGE_API_GENERIC_ERROR_7                         = 0x0087,   // Generic error (use only o
 364:funsape/peripheral/../globalDefines.hpp ****     // PACKAGE_API_GENERIC_ERROR_8                         = 0x0088,   // Generic error (use only o
 365:funsape/peripheral/../globalDefines.hpp ****     // PACKAGE_API_GENERIC_ERROR_9                         = 0x0089,   // Generic error (use only o
 366:funsape/peripheral/../globalDefines.hpp ****     // PACKAGE_API_GENERIC_ERROR_10                        = 0x008A,   // Generic error (use only o
 367:funsape/peripheral/../globalDefines.hpp ****     // PACKAGE_API_GENERIC_ERROR_11                        = 0x008B,   // Generic error (use only o
 368:funsape/peripheral/../globalDefines.hpp ****     // PACKAGE_API_GENERIC_ERROR_12                        = 0x008C,   // Generic error (use only o
 369:funsape/peripheral/../globalDefines.hpp ****     // PACKAGE_API_GENERIC_ERROR_13                        = 0x008D,   // Generic error (use only o
 370:funsape/peripheral/../globalDefines.hpp ****     // PACKAGE_API_GENERIC_ERROR_14                        = 0x008E,   // Generic error (use only o
 371:funsape/peripheral/../globalDefines.hpp ****     // PACKAGE_API_GENERIC_ERROR_15                        = 0x008F,   // Generic error (use only o
 372:funsape/peripheral/../globalDefines.hpp **** 
 373:funsape/peripheral/../globalDefines.hpp ****     // SPI related error codes
 374:funsape/peripheral/../globalDefines.hpp ****     // SPI_BUSY_FLAG                                       = 0x0090,   // TODO: Describe parameter
 375:funsape/peripheral/../globalDefines.hpp ****     // SPI_CRC                                             = 0x0091,   // TODO: Describe parameter
 376:funsape/peripheral/../globalDefines.hpp ****     // SPI_DMA                                             = 0x0092,   // TODO: Describe parameter
 377:funsape/peripheral/../globalDefines.hpp ****     // SPI_MODE_FAULT                                      = 0x0093,   // TODO: Describe parameter
 378:funsape/peripheral/../globalDefines.hpp ****     // SPI_OVERRUN                                         = 0x0094,   // TODO: Describe parameter
 379:funsape/peripheral/../globalDefines.hpp ****     // SPI_GENERIC_ERROR_5                                 = 0x0095,   // Generic error (use only o
 380:funsape/peripheral/../globalDefines.hpp ****     // SPI_GENERIC_ERROR_6                                 = 0x0096,   // Generic error (use only o
 381:funsape/peripheral/../globalDefines.hpp ****     // SPI_GENERIC_ERROR_7                                 = 0x0097,   // Generic error (use only o
 382:funsape/peripheral/../globalDefines.hpp ****     // SPI_GENERIC_ERROR_8                                 = 0x0098,   // Generic error (use only o
 383:funsape/peripheral/../globalDefines.hpp ****     // SPI_GENERIC_ERROR_9                                 = 0x0099,   // Generic error (use only o
 384:funsape/peripheral/../globalDefines.hpp ****     // SPI_GENERIC_ERROR_10                                = 0x009A,   // Generic error (use only o
GAS LISTING C:\Users\kenne\AppData\Local\Temp\cc4WHnAx.s 			page 8


 385:funsape/peripheral/../globalDefines.hpp ****     // SPI_GENERIC_ERROR_11                                = 0x009B,   // Generic error (use only o
 386:funsape/peripheral/../globalDefines.hpp ****     // SPI_GENERIC_ERROR_12                                = 0x009C,   // Generic error (use only o
 387:funsape/peripheral/../globalDefines.hpp ****     // SPI_GENERIC_ERROR_13                                = 0x009D,   // Generic error (use only o
 388:funsape/peripheral/../globalDefines.hpp ****     // SPI_GENERIC_ERROR_14                                = 0x009E,   // Generic error (use only o
 389:funsape/peripheral/../globalDefines.hpp ****     // SPI_GENERIC_ERROR_15                                = 0x009F,   // Generic error (use only o
 390:funsape/peripheral/../globalDefines.hpp **** 
 391:funsape/peripheral/../globalDefines.hpp ****     // TWI related error codes
 392:funsape/peripheral/../globalDefines.hpp ****     // TWI_AF_FLAG                                         = 0x00A0,   // TWI AF flag error
 393:funsape/peripheral/../globalDefines.hpp ****     // TWI_ARBITRATION_LOST                                = 0x00A1,   // TWI bus arbitration lost
 394:funsape/peripheral/../globalDefines.hpp ****     // TWI_BUS_ERROR                                       = 0x00A2,   // TWI bus error
 395:funsape/peripheral/../globalDefines.hpp ****     // TWI_DMA                                             = 0x00A3,   // DMA parameter error
 396:funsape/peripheral/../globalDefines.hpp ****     // TWI_DMA_PARAM                                       = 0x00A4,   // DMA transfer error
 397:funsape/peripheral/../globalDefines.hpp ****     // TWI_OVERRUN                                         = 0x00A5,   // TWI overrun
 398:funsape/peripheral/../globalDefines.hpp ****     // TWI_SIZE_MANAGEMENT_ERROR                           = 0x00A6,   // Size management error
 399:funsape/peripheral/../globalDefines.hpp ****     // TWI_INVALID_DEVICE_ADDRESS                          = 0x00A7,   // TODO: Describe parameter
 400:funsape/peripheral/../globalDefines.hpp ****     // TWI_GENERIC_ERROR_8                                 = 0x00A8,   // Generic error (use only o
 401:funsape/peripheral/../globalDefines.hpp ****     // TWI_GENERIC_ERROR_9                                 = 0x00A9,   // Generic error (use only o
 402:funsape/peripheral/../globalDefines.hpp ****     // TWI_GENERIC_ERROR_10                                = 0x00AA,   // Generic error (use only o
 403:funsape/peripheral/../globalDefines.hpp ****     // TWI_GENERIC_ERROR_11                                = 0x00AB,   // Generic error (use only o
 404:funsape/peripheral/../globalDefines.hpp ****     // TWI_GENERIC_ERROR_12                                = 0x00AC,   // Generic error (use only o
 405:funsape/peripheral/../globalDefines.hpp ****     // TWI_GENERIC_ERROR_13                                = 0x00AD,   // Generic error (use only o
 406:funsape/peripheral/../globalDefines.hpp ****     // TWI_GENERIC_ERROR_14                                = 0x00AE,   // Generic error (use only o
 407:funsape/peripheral/../globalDefines.hpp ****     // TWI_GENERIC_ERROR_15                                = 0x00AF,   // Generic error (use only o
 408:funsape/peripheral/../globalDefines.hpp **** 
 409:funsape/peripheral/../globalDefines.hpp ****     // USART related error codes
 410:funsape/peripheral/../globalDefines.hpp ****     USART_BAUD_RATE_NOT_SUPPORTED                       = 0x00B0,   // TODO: Describe parameter
 411:funsape/peripheral/../globalDefines.hpp ****     // USART_CONFIGURATION_PARAMETER_WRONG                 = 0x00B1,   // TODO: Describe parameter
 412:funsape/peripheral/../globalDefines.hpp ****     USART_DATA_SIZE_NOT_SUPPORTED                       = 0x00B2,   // TODO: Describe parameter
 413:funsape/peripheral/../globalDefines.hpp ****     USART_FRAME_FORMAT_NOT_SUPPORTED                    = 0x00B3,   // TODO: Describe parameter
 414:funsape/peripheral/../globalDefines.hpp ****     USART_PARITY_NOT_SUPPORTED                          = 0x00B4,   // TODO: Describe parameter
 415:funsape/peripheral/../globalDefines.hpp ****     USART_STOP_BIT_NOT_SUPPORTED                        = 0x00B5,   // TODO: Describe parameter
 416:funsape/peripheral/../globalDefines.hpp ****     USART_MODE_NOT_SUPPORTED                            = 0x00B6,   // TODO: Describe parameter
 417:funsape/peripheral/../globalDefines.hpp ****     // USART_GENERIC_ERROR_7                               = 0x00B7,   // Generic error (use only o
 418:funsape/peripheral/../globalDefines.hpp ****     // USART_GENERIC_ERROR_8                               = 0x00B8,   // Generic error (use only o
 419:funsape/peripheral/../globalDefines.hpp ****     // USART_GENERIC_ERROR_9                               = 0x00B9,   // Generic error (use only o
 420:funsape/peripheral/../globalDefines.hpp ****     // USART_GENERIC_ERROR_10                              = 0x00BA,   // Generic error (use only o
 421:funsape/peripheral/../globalDefines.hpp ****     // USART_GENERIC_ERROR_11                              = 0x00BB,   // Generic error (use only o
 422:funsape/peripheral/../globalDefines.hpp ****     // USART_GENERIC_ERROR_12                              = 0x00BC,   // Generic error (use only o
 423:funsape/peripheral/../globalDefines.hpp ****     // USART_GENERIC_ERROR_13                              = 0x00BD,   // Generic error (use only o
 424:funsape/peripheral/../globalDefines.hpp ****     // USART_GENERIC_ERROR_14                              = 0x00BE,   // Generic error (use only o
 425:funsape/peripheral/../globalDefines.hpp ****     // USART_GENERIC_ERROR_15                              = 0x00BF,   // Generic error (use only o
 426:funsape/peripheral/../globalDefines.hpp **** 
 427:funsape/peripheral/../globalDefines.hpp ****     // LCD related error codes
 428:funsape/peripheral/../globalDefines.hpp ****     // LCD_CONTROL_PORT_NOT_SET                            = 0x00C0,   // TODO: Describe parameter
 429:funsape/peripheral/../globalDefines.hpp ****     // LCD_CONTROL_PIN_E_INVALID                           = 0x00C1,   // TODO: Describe parameter
 430:funsape/peripheral/../globalDefines.hpp ****     // LCD_CONTROL_PIN_RS_INVALID                          = 0x00C2,   // TODO: Describe parameter
 431:funsape/peripheral/../globalDefines.hpp ****     // LCD_CONTROL_PIN_RW_INVALID                          = 0x00C3,   // TODO: Describe parameter
 432:funsape/peripheral/../globalDefines.hpp ****     // LCD_DATA_PORT_NOT_SET                               = 0x00C4,   // TODO: Describe parameter
 433:funsape/peripheral/../globalDefines.hpp ****     // LCD_DATA_PIN_INDEX_OUT_OF_BOUNDARIES                = 0x00C5,   // TODO: Describe parameter
 434:funsape/peripheral/../globalDefines.hpp ****     // LCD_GENERIC_ERROR_6                                 = 0x00C6,   // Generic error (use only o
 435:funsape/peripheral/../globalDefines.hpp ****     // LCD_GENERIC_ERROR_7                                 = 0x00C7,   // Generic error (use only o
 436:funsape/peripheral/../globalDefines.hpp ****     // LCD_GENERIC_ERROR_8                                 = 0x00C8,   // Generic error (use only o
 437:funsape/peripheral/../globalDefines.hpp ****     // LCD_GENERIC_ERROR_9                                 = 0x00C9,   // Generic error (use only o
 438:funsape/peripheral/../globalDefines.hpp ****     // LCD_GENERIC_ERROR_10                                = 0x00CA,   // Generic error (use only o
 439:funsape/peripheral/../globalDefines.hpp ****     // LCD_GENERIC_ERROR_11                                = 0x00CB,   // Generic error (use only o
 440:funsape/peripheral/../globalDefines.hpp ****     // LCD_GENERIC_ERROR_12                                = 0x00CC,   // Generic error (use only o
 441:funsape/peripheral/../globalDefines.hpp ****     // LCD_GENERIC_ERROR_13                                = 0x00CD,   // Generic error (use only o
GAS LISTING C:\Users\kenne\AppData\Local\Temp\cc4WHnAx.s 			page 9


 442:funsape/peripheral/../globalDefines.hpp ****     // LCD_GENERIC_ERROR_14                                = 0x00CE,   // Generic error (use only o
 443:funsape/peripheral/../globalDefines.hpp ****     // LCD_GENERIC_ERROR_15                                = 0x00CF,   // Generic error (use only o
 444:funsape/peripheral/../globalDefines.hpp **** 
 445:funsape/peripheral/../globalDefines.hpp ****     // GPIO related error codes
 446:funsape/peripheral/../globalDefines.hpp ****     GPIO_PORT_NOT_SET                                   = 0x00D0,   // Gpio port was not set before
 447:funsape/peripheral/../globalDefines.hpp ****     GPIO_DATA_PORT_NOT_SET                              = 0x00D1,   // Gpio data port was not set b
 448:funsape/peripheral/../globalDefines.hpp ****     GPIO_CONTROL_PORT_NOT_SET                           = 0x00D2,   // Gpio control port was not se
 449:funsape/peripheral/../globalDefines.hpp ****     GPIO_PORT_INVALID                                   = 0x00D3,   // Gpio port address is invalid
 450:funsape/peripheral/../globalDefines.hpp ****     GPIO_DATA_PORT_INVALID                              = 0x00D4,   // Gpio data port address is in
 451:funsape/peripheral/../globalDefines.hpp ****     GPIO_CONTROL_PORT_INVALID                           = 0x00D5,   // Gpio control port address is
 452:funsape/peripheral/../globalDefines.hpp ****     GPIO_PIN_INDEX_INVALID                              = 0x00D6,   // Invalid GPIO Pin
 453:funsape/peripheral/../globalDefines.hpp ****     GPIO_PIN_INDEX_OUT_OF_BOUNDARIES                    = 0x00D7,   // Gpio pin index was out of bo
 454:funsape/peripheral/../globalDefines.hpp ****     // GPIO_NO_PIN_SET                                     = 0x00D8,   // No pin selected at Gpio p
 455:funsape/peripheral/../globalDefines.hpp ****     // GPIO_ADDRESS_INVALID                                = 0x00D9,   // Invalid GPIO Port
 456:funsape/peripheral/../globalDefines.hpp ****     // GPIO_PORT_LOGIC_CONTENTION                          = 0x00DA,   // TODO: Describe parameter
 457:funsape/peripheral/../globalDefines.hpp ****     // GPIO_GENERIC_ERROR_11                               = 0x00DB,   // Generic error (use only o
 458:funsape/peripheral/../globalDefines.hpp ****     // GPIO_GENERIC_ERROR_12                               = 0x00DC,   // Generic error (use only o
 459:funsape/peripheral/../globalDefines.hpp ****     // GPIO_GENERIC_ERROR_13                               = 0x00DD,   // Generic error (use only o
 460:funsape/peripheral/../globalDefines.hpp ****     // GPIO_GENERIC_ERROR_14                               = 0x00DE,   // Generic error (use only o
 461:funsape/peripheral/../globalDefines.hpp ****     // GPIO_GENERIC_ERROR_15                               = 0x00DF,   // Generic error (use only o
 462:funsape/peripheral/../globalDefines.hpp **** 
 463:funsape/peripheral/../globalDefines.hpp ****     // HAL related error codes
 464:funsape/peripheral/../globalDefines.hpp ****     // HAL_UNKNOWN_ERROR                                   = 0x00E0,   // TODO: Describe parameter
 465:funsape/peripheral/../globalDefines.hpp ****     // HAL_STATUS_ERROR                                    = 0x00E1,   // TODO: Describe parameter
 466:funsape/peripheral/../globalDefines.hpp ****     // HAL_STATUS_BUSY                                     = 0x00E2,   // TODO: Describe parameter
 467:funsape/peripheral/../globalDefines.hpp ****     // HAL_STATUS_TIMEOUT                                  = 0x00E3,   // TODO: Describe parameter
 468:funsape/peripheral/../globalDefines.hpp ****     // HAL_GENERIC_ERROR_4                                 = 0x00E4,   // Generic error (use only o
 469:funsape/peripheral/../globalDefines.hpp ****     // HAL_GENERIC_ERROR_5                                 = 0x00E5,   // Generic error (use only o
 470:funsape/peripheral/../globalDefines.hpp ****     // HAL_GENERIC_ERROR_6                                 = 0x00E6,   // Generic error (use only o
 471:funsape/peripheral/../globalDefines.hpp ****     // HAL_GENERIC_ERROR_7                                 = 0x00E7,   // Generic error (use only o
 472:funsape/peripheral/../globalDefines.hpp ****     // HAL_GENERIC_ERROR_8                                 = 0x00E8,   // Generic error (use only o
 473:funsape/peripheral/../globalDefines.hpp ****     // HAL_GENERIC_ERROR_9                                 = 0x00E9,   // Generic error (use only o
 474:funsape/peripheral/../globalDefines.hpp ****     // HAL_GENERIC_ERROR_10                                = 0x00EA,   // Generic error (use only o
 475:funsape/peripheral/../globalDefines.hpp ****     // HAL_GENERIC_ERROR_11                                = 0x00EB,   // Generic error (use only o
 476:funsape/peripheral/../globalDefines.hpp ****     // HAL_GENERIC_ERROR_12                                = 0x00EC,   // Generic error (use only o
 477:funsape/peripheral/../globalDefines.hpp ****     // HAL_GENERIC_ERROR_13                                = 0x00ED,   // Generic error (use only o
 478:funsape/peripheral/../globalDefines.hpp ****     // HAL_GENERIC_ERROR_14                                = 0x00EE,   // Generic error (use only o
 479:funsape/peripheral/../globalDefines.hpp ****     // HAL_GENERIC_ERROR_15                                = 0x00EF,   // Generic error (use only o
 480:funsape/peripheral/../globalDefines.hpp **** 
 481:funsape/peripheral/../globalDefines.hpp ****     // System related error codes
 482:funsape/peripheral/../globalDefines.hpp ****     // SYSTEM_US_TIMER_HANDLER_NULL                        = 0x00F0,   // TODO: Describe parameter
 483:funsape/peripheral/../globalDefines.hpp ****     // SYSTEM_GENERIC_ERROR_1                              = 0x00F1,   // Generic error (use only o
 484:funsape/peripheral/../globalDefines.hpp ****     // SYSTEM_GENERIC_ERROR_2                              = 0x00F2,   // Generic error (use only o
 485:funsape/peripheral/../globalDefines.hpp ****     // SYSTEM_GENERIC_ERROR_3                              = 0x00F3,   // Generic error (use only o
 486:funsape/peripheral/../globalDefines.hpp ****     // SYSTEM_GENERIC_ERROR_4                              = 0x00F4,   // Generic error (use only o
 487:funsape/peripheral/../globalDefines.hpp ****     // SYSTEM_GENERIC_ERROR_5                              = 0x00F5,   // Generic error (use only o
 488:funsape/peripheral/../globalDefines.hpp ****     // SYSTEM_GENERIC_ERROR_6                              = 0x00F6,   // Generic error (use only o
 489:funsape/peripheral/../globalDefines.hpp ****     // SYSTEM_GENERIC_ERROR_7                              = 0x00F7,   // Generic error (use only o
 490:funsape/peripheral/../globalDefines.hpp ****     // SYSTEM_GENERIC_ERROR_8                              = 0x00F8,   // Generic error (use only o
 491:funsape/peripheral/../globalDefines.hpp ****     // SYSTEM_GENERIC_ERROR_9                              = 0x00F9,   // Generic error (use only o
 492:funsape/peripheral/../globalDefines.hpp ****     // SYSTEM_GENERIC_ERROR_10                             = 0x00FA,   // Generic error (use only o
 493:funsape/peripheral/../globalDefines.hpp ****     // SYSTEM_GENERIC_ERROR_11                             = 0x00FB,   // Generic error (use only o
 494:funsape/peripheral/../globalDefines.hpp ****     // SYSTEM_GENERIC_ERROR_12                             = 0x00FC,   // Generic error (use only o
 495:funsape/peripheral/../globalDefines.hpp ****     // SYSTEM_GENERIC_ERROR_13                             = 0x00FD,   // Generic error (use only o
 496:funsape/peripheral/../globalDefines.hpp ****     // SYSTEM_GENERIC_ERROR_14                             = 0x00FE,   // Generic error (use only o
 497:funsape/peripheral/../globalDefines.hpp ****     // SYSTEM_GENERIC_ERROR_15                             = 0x00FF,   // Generic error (use only o
 498:funsape/peripheral/../globalDefines.hpp **** 
GAS LISTING C:\Users\kenne\AppData\Local\Temp\cc4WHnAx.s 			page 10


 499:funsape/peripheral/../globalDefines.hpp ****     // FatFs related error codes
 500:funsape/peripheral/../globalDefines.hpp ****     // FAT_FS_UNKNOWN_ERROR                                = 0x0100,   // TODO: Describe parameter
 501:funsape/peripheral/../globalDefines.hpp ****     // FAT_FS_DRIVE_UNSUPPORTED                            = 0x0101,   // TODO: Describe parameter
 502:funsape/peripheral/../globalDefines.hpp ****     // FAT_FS_DISK_NOT_INSERTED                            = 0x0102,   // TODO: Describe parameter
 503:funsape/peripheral/../globalDefines.hpp ****     // FAT_FS_INITIALIZATION_FAILED                        = 0x0103,   // TODO: Describe parameter
 504:funsape/peripheral/../globalDefines.hpp ****     // FAT_FS_GENERIC_ERROR_4                              = 0x0104,   // Generic error (use only o
 505:funsape/peripheral/../globalDefines.hpp ****     // FAT_FS_GENERIC_ERROR_5                              = 0x0105,   // Generic error (use only o
 506:funsape/peripheral/../globalDefines.hpp ****     // FAT_FS_GENERIC_ERROR_6                              = 0x0106,   // Generic error (use only o
 507:funsape/peripheral/../globalDefines.hpp ****     // FAT_FS_GENERIC_ERROR_7                              = 0x0107,   // Generic error (use only o
 508:funsape/peripheral/../globalDefines.hpp ****     // FAT_FS_GENERIC_ERROR_8                              = 0x0108,   // Generic error (use only o
 509:funsape/peripheral/../globalDefines.hpp ****     // FAT_FS_GENERIC_ERROR_9                              = 0x0109,   // Generic error (use only o
 510:funsape/peripheral/../globalDefines.hpp ****     // FAT_FS_GENERIC_ERROR_10                             = 0x010A,   // Generic error (use only o
 511:funsape/peripheral/../globalDefines.hpp ****     // FAT_FS_GENERIC_ERROR_11                             = 0x010B,   // Generic error (use only o
 512:funsape/peripheral/../globalDefines.hpp ****     // FAT_FS_GENERIC_ERROR_12                             = 0x010C,   // Generic error (use only o
 513:funsape/peripheral/../globalDefines.hpp ****     // FAT_FS_GENERIC_ERROR_13                             = 0x010D,   // Generic error (use only o
 514:funsape/peripheral/../globalDefines.hpp ****     // FAT_FS_GENERIC_ERROR_14                             = 0x010E,   // Generic error (use only o
 515:funsape/peripheral/../globalDefines.hpp ****     // FAT_FS_GENERIC_ERROR_15                             = 0x010F,   // Generic error (use only o
 516:funsape/peripheral/../globalDefines.hpp **** 
 517:funsape/peripheral/../globalDefines.hpp ****     // Uncategorized error codes
 518:funsape/peripheral/../globalDefines.hpp ****     // LCD_OUT_OF_BOUNDARIES                               = 0xFFF1,   // TODO: Describe parameter
 519:funsape/peripheral/../globalDefines.hpp ****     // CONTROLLER_NOT_SUPPORTED                            = 0xFFF2,   // Unsupported controller
 520:funsape/peripheral/../globalDefines.hpp ****     // DEVICE_ID_MATCH_FAILED                              = 0xFFF3,   // Device ID doesn't match
 521:funsape/peripheral/../globalDefines.hpp ****     // DMA_NOT_SUPPORTED                                   = 0xFFF4,   // DMA interface mode is not
 522:funsape/peripheral/../globalDefines.hpp ****     // DMA_TRANSFER_ERROR                                  = 0xFFF5,   // DMA transfer error
 523:funsape/peripheral/../globalDefines.hpp ****     // MESSAGE_TOO_LONG                                    = 0xFFF6,   // Message is to long to be 
 524:funsape/peripheral/../globalDefines.hpp ****     // VALID_DATA_NOT_AVAILABLE                            = 0xFFF7,   // Valid data was unavailabl
 525:funsape/peripheral/../globalDefines.hpp ****     // PERIPHERAL_NOT_READY                                = 0xFFF8,   // TODO: Describe parameter
 526:funsape/peripheral/../globalDefines.hpp ****     // STOPWATCH_NOT_STARTED                               = 0xFFF9,   // TODO: Describe parameter
 527:funsape/peripheral/../globalDefines.hpp ****     // UNCATEGORIZED_GENERIC_ERROR_10                      = 0xFFFA,   // Generic error (use only o
 528:funsape/peripheral/../globalDefines.hpp ****     // UNCATEGORIZED_GENERIC_ERROR_11                      = 0xFFFB,   // Generic error (use only o
 529:funsape/peripheral/../globalDefines.hpp ****     // UNCATEGORIZED_GENERIC_ERROR_12                      = 0xFFFC,   // Generic error (use only o
 530:funsape/peripheral/../globalDefines.hpp ****     // UNCATEGORIZED_GENERIC_ERROR_13                      = 0xFFFD,   // Generic error (use only o
 531:funsape/peripheral/../globalDefines.hpp ****     // UNCATEGORIZED_GENERIC_ERROR_14                      = 0xFFFE,   // Generic error (use only o
 532:funsape/peripheral/../globalDefines.hpp **** 
 533:funsape/peripheral/../globalDefines.hpp ****     KEYPAD_COLUMNS_PIN_INDEX_INVALID                    = 0xFFF9,
 534:funsape/peripheral/../globalDefines.hpp ****     KEYPAD_LINES_PIN_INDEX_INVALID                      = 0xFFFA,
 535:funsape/peripheral/../globalDefines.hpp **** 
 536:funsape/peripheral/../globalDefines.hpp ****     KEYPAD_LINES_GPIO_PORT_INVALID                      = 0xFFFB,
 537:funsape/peripheral/../globalDefines.hpp ****     KEYPAD_COLUMNS_GPIO_PORT_INVALID                    = 0xFFFC,
 538:funsape/peripheral/../globalDefines.hpp ****     KEYPAD_TYPE_UNSUPPORTED                             = 0xFFFD,
 539:funsape/peripheral/../globalDefines.hpp ****     KEY_VALUES_NOT_SET                                  = 0xFFFE,
 540:funsape/peripheral/../globalDefines.hpp ****     // "I don't have the slightest idea" error code
 541:funsape/peripheral/../globalDefines.hpp ****     UNKNOWN                                             = 0xFFFF,   // Unknown error - Ops!!!!
 542:funsape/peripheral/../globalDefines.hpp **** };
 543:funsape/peripheral/../globalDefines.hpp **** 
 544:funsape/peripheral/../globalDefines.hpp **** // =============================================================================
 545:funsape/peripheral/../globalDefines.hpp **** // Macrofunctions
 546:funsape/peripheral/../globalDefines.hpp **** // =============================================================================
 547:funsape/peripheral/../globalDefines.hpp **** 
 548:funsape/peripheral/../globalDefines.hpp **** //     //////////////////////     DATA VALIDITY    //////////////////////     //
 549:funsape/peripheral/../globalDefines.hpp **** #define isGpioAddressValid(gpioPort)    (       \
 550:funsape/peripheral/../globalDefines.hpp ****         (IS_GPIO_ALL_INSTANCE(gpioPort))        \
 551:funsape/peripheral/../globalDefines.hpp ****         ? (bool_t)true                          \
 552:funsape/peripheral/../globalDefines.hpp ****         : (bool_t)false)
 553:funsape/peripheral/../globalDefines.hpp **** #define isGpioPinIndexValid(gpioPin)    (       \
 554:funsape/peripheral/../globalDefines.hpp ****         (IS_GPIO_ALL_PIN_NUMBER(gpioPin))       \
 555:funsape/peripheral/../globalDefines.hpp ****         ? (bool_t)true                          \
GAS LISTING C:\Users\kenne\AppData\Local\Temp\cc4WHnAx.s 			page 11


 556:funsape/peripheral/../globalDefines.hpp ****         : (bool_t)false)
 557:funsape/peripheral/../globalDefines.hpp **** #define isPointerValid(ptr)             (       \
 558:funsape/peripheral/../globalDefines.hpp ****         ((void *)(ptr))                         \
 559:funsape/peripheral/../globalDefines.hpp ****         ? (bool_t)true                          \
 560:funsape/peripheral/../globalDefines.hpp ****         : (bool_t)false)
 561:funsape/peripheral/../globalDefines.hpp **** 
 562:funsape/peripheral/../globalDefines.hpp **** //     //////////////////////     BIT HANDLING     //////////////////////     //
 563:funsape/peripheral/../globalDefines.hpp **** #ifndef setBit
 564:funsape/peripheral/../globalDefines.hpp **** #   define setBit(reg, bit)                     ((reg) |= (1 << (bit)))
 565:funsape/peripheral/../globalDefines.hpp **** #endif
 566:funsape/peripheral/../globalDefines.hpp **** #ifndef clrBit
 567:funsape/peripheral/../globalDefines.hpp **** #   define clrBit(reg, bit)                     ((reg) &= ~(1 << (bit)))
 568:funsape/peripheral/../globalDefines.hpp **** #endif
 569:funsape/peripheral/../globalDefines.hpp **** #ifndef cplBit
 570:funsape/peripheral/../globalDefines.hpp **** #   define cplBit(reg, bit)                     ((reg) ^= (1 << (bit)))
 571:funsape/peripheral/../globalDefines.hpp **** #endif
 572:funsape/peripheral/../globalDefines.hpp **** 
 573:funsape/peripheral/../globalDefines.hpp **** //     ///////////////////////     BIT TESTING    ///////////////////////     //
 574:funsape/peripheral/../globalDefines.hpp **** #ifndef isBitSet
 575:funsape/peripheral/../globalDefines.hpp **** #   define isBitSet(reg, bit)                   (((reg) >> (bit)) & 1)
 576:funsape/peripheral/../globalDefines.hpp **** #endif
 577:funsape/peripheral/../globalDefines.hpp **** #ifndef isBitClr
 578:funsape/peripheral/../globalDefines.hpp **** #   define isBitClr(reg, bit)                   (!isBitSet(reg,bit))
 579:funsape/peripheral/../globalDefines.hpp **** #endif
 580:funsape/peripheral/../globalDefines.hpp **** 
 581:funsape/peripheral/../globalDefines.hpp **** //     ///////////////////////     BIT LOOPING    ///////////////////////     //
 582:funsape/peripheral/../globalDefines.hpp **** #ifndef waitUntilBitIsSet
 583:funsape/peripheral/../globalDefines.hpp **** #   define waitUntilBitIsSet(reg, bit)          do{     \
 584:funsape/peripheral/../globalDefines.hpp ****         doNothing();                                    \
 585:funsape/peripheral/../globalDefines.hpp ****     } while (isBitClr((reg), (bit)))
 586:funsape/peripheral/../globalDefines.hpp **** #endif
 587:funsape/peripheral/../globalDefines.hpp **** #ifndef waitUntilBitIsClear
 588:funsape/peripheral/../globalDefines.hpp **** #   define waitUntilBitIsClear(reg, bit)        do{     \
 589:funsape/peripheral/../globalDefines.hpp ****         doNothing();                                    \
 590:funsape/peripheral/../globalDefines.hpp ****     }while(isBitSet((reg), (bit)))
 591:funsape/peripheral/../globalDefines.hpp **** #endif
 592:funsape/peripheral/../globalDefines.hpp **** 
 593:funsape/peripheral/../globalDefines.hpp **** //     ////////////////////     BIT MASK HANDLING    ////////////////////     //
 594:funsape/peripheral/../globalDefines.hpp **** #ifndef setMask
 595:funsape/peripheral/../globalDefines.hpp **** #   define setMask(reg, mask)                   ((reg) |= (mask))
 596:funsape/peripheral/../globalDefines.hpp **** #endif
 597:funsape/peripheral/../globalDefines.hpp **** #ifndef clrMask
 598:funsape/peripheral/../globalDefines.hpp **** #   define clrMask(reg, mask)                   ((reg) &= ~(mask))
 599:funsape/peripheral/../globalDefines.hpp **** #endif
 600:funsape/peripheral/../globalDefines.hpp **** #ifndef cplMask
 601:funsape/peripheral/../globalDefines.hpp **** #   define cplMask(reg, mask)                   ((reg) ^= (mask))
 602:funsape/peripheral/../globalDefines.hpp **** #endif
 603:funsape/peripheral/../globalDefines.hpp **** 
 604:funsape/peripheral/../globalDefines.hpp **** //     ////////////////     BIT MASK OFFSET HANDLING     ////////////////     //
 605:funsape/peripheral/../globalDefines.hpp **** #ifndef setMaskOffset
 606:funsape/peripheral/../globalDefines.hpp **** #   define setMaskOffset(reg, mask, offset)     ((reg) |= ((mask) << (offset)))
 607:funsape/peripheral/../globalDefines.hpp **** #endif
 608:funsape/peripheral/../globalDefines.hpp **** #ifndef clrMaskOffset
 609:funsape/peripheral/../globalDefines.hpp **** #   define clrMaskOffset(reg, mask, offset)     ((reg) &= ~((mask) << (offset)))
 610:funsape/peripheral/../globalDefines.hpp **** #endif
 611:funsape/peripheral/../globalDefines.hpp **** #ifndef cplMaskOffset
 612:funsape/peripheral/../globalDefines.hpp **** #   define cplMaskOffset(reg, mask, offset)     ((reg) ^= ((mask) << (offset)))
GAS LISTING C:\Users\kenne\AppData\Local\Temp\cc4WHnAx.s 			page 12


 613:funsape/peripheral/../globalDefines.hpp **** #endif
 614:funsape/peripheral/../globalDefines.hpp **** 
 615:funsape/peripheral/../globalDefines.hpp **** //     /////////////     DATA MANIPULATION (8-BITS WIDE)    /////////////     //
 616:funsape/peripheral/../globalDefines.hpp **** #define byteGetNibble1(dataByte)        (((dataByte) >> 4) & 0x0F)
 617:funsape/peripheral/../globalDefines.hpp **** #define byteGetNibble0(dataByte)        ((dataByte) & 0x0F)
 618:funsape/peripheral/../globalDefines.hpp **** #define byteSwitchNibbles(dataByte)     ((byteGetNibble0(dataByte) << 4) | \
 619:funsape/peripheral/../globalDefines.hpp ****         (byteGetNibble1(dataByte)))
 620:funsape/peripheral/../globalDefines.hpp **** 
 621:funsape/peripheral/../globalDefines.hpp **** //     ////////////     DATA MANIPULATION (16-BITS WIDE)     ////////////     //
 622:funsape/peripheral/../globalDefines.hpp **** #define hwordGetByte1(dataHword)        (((dataHword) >> 8) & 0x00FF)
 623:funsape/peripheral/../globalDefines.hpp **** #define hwordGetByte0(dataHword)        ((dataHword) & 0x00FF)
 624:funsape/peripheral/../globalDefines.hpp **** #define hwordSwitchBytes(dataHword)     ((hwordGetByte0(dataHword) << 8) | \
 625:funsape/peripheral/../globalDefines.hpp ****         (hwordGetByte1(dataHword)))
 626:funsape/peripheral/../globalDefines.hpp **** 
 627:funsape/peripheral/../globalDefines.hpp **** //     ////////////     DATA MANIPULATION (32-BITS WIDE)     ////////////     //
 628:funsape/peripheral/../globalDefines.hpp **** #define wordGetByte3(dataWord)          (((dataWord) >> 24) & 0x000000FF)
 629:funsape/peripheral/../globalDefines.hpp **** #define wordGetByte2(dataWord)          (((dataWord) >> 16) & 0x000000FF)
 630:funsape/peripheral/../globalDefines.hpp **** #define wordGetByte1(dataWord)          (((dataWord) >> 8) & 0x000000FF)
 631:funsape/peripheral/../globalDefines.hpp **** #define wordGetByte0(dataWord)          ((dataWord) & 0x000000FF)
 632:funsape/peripheral/../globalDefines.hpp **** #define wordSwitchBytes(dataWord)       ((wordGetByte0(dataWord) << 24)  | \
 633:funsape/peripheral/../globalDefines.hpp ****         (wordGetByte1(dataWord) << 16) | \
 634:funsape/peripheral/../globalDefines.hpp ****         (wordGetByte2(dataWord) << 8)  | \
 635:funsape/peripheral/../globalDefines.hpp ****         (wordGetByte3(dataWord)))
 636:funsape/peripheral/../globalDefines.hpp **** #define wordGetHword1(dataWord)         (((dataWord) >> 16) & 0x0000FFFF)
 637:funsape/peripheral/../globalDefines.hpp **** #define wordGetHword0(dataWord)         ((dataWord) & 0x0000FFFF)
 638:funsape/peripheral/../globalDefines.hpp **** #define wordSwitchHwords(dataWord)      ((wordGetHword0(dataWord) << 16) | \
 639:funsape/peripheral/../globalDefines.hpp ****         (wordGetHword1(dataWord)))
 640:funsape/peripheral/../globalDefines.hpp **** 
 641:funsape/peripheral/../globalDefines.hpp **** //     ////////////     DATA MANIPULATION (64-BITS WIDE)     ////////////     //
 642:funsape/peripheral/../globalDefines.hpp **** #define dwordGetByte7(dataDword)        (((dataDword) >> 56) & 0x00000000000000FF)
 643:funsape/peripheral/../globalDefines.hpp **** #define dwordGetByte6(dataDword)        (((dataDword) >> 48) & 0x00000000000000FF)
 644:funsape/peripheral/../globalDefines.hpp **** #define dwordGetByte5(dataDword)        (((dataDword) >> 40) & 0x00000000000000FF)
 645:funsape/peripheral/../globalDefines.hpp **** #define dwordGetByte4(dataDword)        (((dataDword) >> 32) & 0x00000000000000FF)
 646:funsape/peripheral/../globalDefines.hpp **** #define dwordGetByte3(dataDword)        (((dataDword) >> 24) & 0x00000000000000FF)
 647:funsape/peripheral/../globalDefines.hpp **** #define dwordGetByte2(dataDword)        (((dataDword) >> 16) & 0x00000000000000FF)
 648:funsape/peripheral/../globalDefines.hpp **** #define dwordGetByte1(dataDword)        (((dataDword) >> 8) & 0x00000000000000FF)
 649:funsape/peripheral/../globalDefines.hpp **** #define dwordGetByte0(dataDword)        ((dataDword) & 0x00000000000000FF)
 650:funsape/peripheral/../globalDefines.hpp **** #define dwordSwitchBytes(dataDword)     ((dwordGetByte0(dataDword) << 56)  | \
 651:funsape/peripheral/../globalDefines.hpp ****         (dwordGetByte1(dataDword) << 48) | \
 652:funsape/peripheral/../globalDefines.hpp ****         (dwordGetByte2(dataDword) << 40) | \
 653:funsape/peripheral/../globalDefines.hpp ****         (dwordGetByte3(dataDword) << 32) | \
 654:funsape/peripheral/../globalDefines.hpp ****         (dwordGetByte4(dataDword) << 24) | \
 655:funsape/peripheral/../globalDefines.hpp ****         (dwordGetByte5(dataDword) << 16) | \
 656:funsape/peripheral/../globalDefines.hpp ****         (dwordGetByte6(dataDword) << 8)  | \
 657:funsape/peripheral/../globalDefines.hpp ****         (dwordGetByte7(dataDword)))
 658:funsape/peripheral/../globalDefines.hpp **** #define dwordGetHword3(dataDword)       ((dataDword >> 48) & 0x000000000000FFFF)
 659:funsape/peripheral/../globalDefines.hpp **** #define dwordGetHword2(dataDword)       ((dataDword >> 32) & 0x000000000000FFFF)
 660:funsape/peripheral/../globalDefines.hpp **** #define dwordGetHword1(dataDword)       ((dataDword >> 16) & 0x000000000000FFFF)
 661:funsape/peripheral/../globalDefines.hpp **** #define dwordGetHword0(dataDword)       ((dataDword >> 0) & 0x000000000000FFFF)
 662:funsape/peripheral/../globalDefines.hpp **** #define dwordSwitchHwords(dataDword)    ((dwordGetHword0(dataDword) << 48)  | \
 663:funsape/peripheral/../globalDefines.hpp ****         (dwordGetHword1(dataDword) << 32) | \
 664:funsape/peripheral/../globalDefines.hpp ****         (dwordGetHword2(dataDword) << 16) | \
 665:funsape/peripheral/../globalDefines.hpp ****         (dwordGetHword3(dataDword)))
 666:funsape/peripheral/../globalDefines.hpp **** #define dwordGetWord1(dataDword)         (((dataDword) >> 32) & 0x00000000FFFFFFFF)
 667:funsape/peripheral/../globalDefines.hpp **** #define dwordGetWord0(dataDword)         ((dataDword) & 0x00000000FFFFFFFF)
 668:funsape/peripheral/../globalDefines.hpp **** #define dwordSwitchWords(dataDword)     ((dwordGetWord0(dataDword) << 32)  | \
 669:funsape/peripheral/../globalDefines.hpp ****         (dwordGetWord1(dataDword)))
GAS LISTING C:\Users\kenne\AppData\Local\Temp\cc4WHnAx.s 			page 13


 670:funsape/peripheral/../globalDefines.hpp **** 
 671:funsape/peripheral/../globalDefines.hpp **** //     /////////////////////     TRUNCATE VALUES    /////////////////////     //
 672:funsape/peripheral/../globalDefines.hpp **** #define getMaximumOf(var1, var2)        (       \
 673:funsape/peripheral/../globalDefines.hpp ****         ((var1) > (var2))                       \
 674:funsape/peripheral/../globalDefines.hpp ****         ? (var1)                                \
 675:funsape/peripheral/../globalDefines.hpp ****         : (var2))
 676:funsape/peripheral/../globalDefines.hpp **** #define getMinimumOf(var1, var2)        (       \
 677:funsape/peripheral/../globalDefines.hpp ****         ((var1) < (var2))                       \
 678:funsape/peripheral/../globalDefines.hpp ****         ? (var1)                                \
 679:funsape/peripheral/../globalDefines.hpp ****         : (var2))
 680:funsape/peripheral/../globalDefines.hpp **** #define truncateBetween(var, min, max)  (       \
 681:funsape/peripheral/../globalDefines.hpp ****         ((var) < (min))                         \
 682:funsape/peripheral/../globalDefines.hpp ****         ? (min)                                 \
 683:funsape/peripheral/../globalDefines.hpp ****         : (((var) > (max))                      \
 684:funsape/peripheral/../globalDefines.hpp ****                 ? (max)                         \
 685:funsape/peripheral/../globalDefines.hpp ****                 : (var)                         \
 686:funsape/peripheral/../globalDefines.hpp ****         ))
 687:funsape/peripheral/../globalDefines.hpp **** 
 688:funsape/peripheral/../globalDefines.hpp **** //     //////////////////////     STRINGIFYING    ///////////////////////     //
 689:funsape/peripheral/../globalDefines.hpp **** #define stringifyName(constant)         #constant
 690:funsape/peripheral/../globalDefines.hpp **** #define stringifyValue(constant)        stringifyName(constant)
 691:funsape/peripheral/../globalDefines.hpp **** 
 692:funsape/peripheral/../globalDefines.hpp **** // =============================================================================
 693:funsape/peripheral/../globalDefines.hpp **** // Extern global variables
 694:funsape/peripheral/../globalDefines.hpp **** // =============================================================================
 695:funsape/peripheral/../globalDefines.hpp **** 
 696:funsape/peripheral/../globalDefines.hpp **** // NONE
 697:funsape/peripheral/../globalDefines.hpp **** 
 698:funsape/peripheral/../globalDefines.hpp **** // =============================================================================
 699:funsape/peripheral/../globalDefines.hpp **** // Inline functions declaration
 700:funsape/peripheral/../globalDefines.hpp **** // =============================================================================
 701:funsape/peripheral/../globalDefines.hpp **** 
 702:funsape/peripheral/../globalDefines.hpp **** //     ///////////////////     CHARACTER HANDLING    ////////////////////     //
 703:funsape/peripheral/../globalDefines.hpp **** char_t inlined toLowerCase(cchar_t character_p);
 704:funsape/peripheral/../globalDefines.hpp **** char_t inlined toUpperCase(cchar_t character_p);
 705:funsape/peripheral/../globalDefines.hpp **** 
 706:funsape/peripheral/../globalDefines.hpp **** //     /////////////////////     DATA VALIDITY     //////////////////////     //
 707:funsape/peripheral/../globalDefines.hpp **** bool_t inlined isAsciiLowerCaseLetter(cchar_t character_p);
 708:funsape/peripheral/../globalDefines.hpp **** bool_t inlined isAsciiUpperCaseLetter(cchar_t character_p);
 709:funsape/peripheral/../globalDefines.hpp **** bool_t inlined isAsciiCommand(cchar_t character_p);
 710:funsape/peripheral/../globalDefines.hpp **** bool_t inlined isAsciiLetter(cchar_t character_p);
 711:funsape/peripheral/../globalDefines.hpp **** bool_t inlined isAsciiNumber(cchar_t character_p);
 712:funsape/peripheral/../globalDefines.hpp **** bool_t inlined isAsciiSymbol(cchar_t character_p);
 713:funsape/peripheral/../globalDefines.hpp **** 
 714:funsape/peripheral/../globalDefines.hpp **** //     /////////////////////     SYSTEM ACTIONS    //////////////////////     //
 715:funsape/peripheral/../globalDefines.hpp **** void inlined die(Error errorCode_p);
 716:funsape/peripheral/../globalDefines.hpp **** void inlined doNop(void);
 717:funsape/peripheral/../globalDefines.hpp **** void inlined doNothing(void);
 718:funsape/peripheral/../globalDefines.hpp **** void inlined systemHalt(void (*function_p)(void) = nullptr);
 719:funsape/peripheral/../globalDefines.hpp **** 
 720:funsape/peripheral/../globalDefines.hpp **** // =============================================================================
 721:funsape/peripheral/../globalDefines.hpp **** // Inline functions definitions
 722:funsape/peripheral/../globalDefines.hpp **** // =============================================================================
 723:funsape/peripheral/../globalDefines.hpp **** 
 724:funsape/peripheral/../globalDefines.hpp **** //     ///////////////////     CHARACTER HANDLING    ////////////////////     //
 725:funsape/peripheral/../globalDefines.hpp **** char_t inlined toLowerCase(cchar_t character_p)
 726:funsape/peripheral/../globalDefines.hpp **** {
GAS LISTING C:\Users\kenne\AppData\Local\Temp\cc4WHnAx.s 			page 14


 727:funsape/peripheral/../globalDefines.hpp ****     return ((isAsciiUpperCaseLetter(character_p)) ? (character_p + 0x20) : character_p);
 728:funsape/peripheral/../globalDefines.hpp **** }
 729:funsape/peripheral/../globalDefines.hpp **** 
 730:funsape/peripheral/../globalDefines.hpp **** char_t inlined toUpperCase(cchar_t character_p)
 731:funsape/peripheral/../globalDefines.hpp **** {
 732:funsape/peripheral/../globalDefines.hpp ****     return ((isAsciiLowerCaseLetter(character_p)) ? (character_p - 0x20) : character_p);
 733:funsape/peripheral/../globalDefines.hpp **** }
 734:funsape/peripheral/../globalDefines.hpp **** 
 735:funsape/peripheral/../globalDefines.hpp **** //     /////////////////////     DATA VALIDITY     //////////////////////     //
 736:funsape/peripheral/../globalDefines.hpp **** bool_t inlined isAsciiLowerCaseLetter(cchar_t character_p)
 737:funsape/peripheral/../globalDefines.hpp **** {
 738:funsape/peripheral/../globalDefines.hpp ****     return ((bool_t)(((character_p >= 'a') && (character_p <= 'z')) ? true : false));
 739:funsape/peripheral/../globalDefines.hpp **** }
 740:funsape/peripheral/../globalDefines.hpp **** 
 741:funsape/peripheral/../globalDefines.hpp **** bool_t inlined isAsciiUpperCaseLetter(cchar_t character_p)
 742:funsape/peripheral/../globalDefines.hpp **** {
 743:funsape/peripheral/../globalDefines.hpp ****     return ((bool_t)(((character_p >= 'A') && (character_p <= 'Z')) ? true : false));
 744:funsape/peripheral/../globalDefines.hpp **** }
 745:funsape/peripheral/../globalDefines.hpp **** 
 746:funsape/peripheral/../globalDefines.hpp **** bool_t inlined isAsciiCommand(cchar_t character_p)
 747:funsape/peripheral/../globalDefines.hpp **** {
 748:funsape/peripheral/../globalDefines.hpp ****     return ((bool_t)((character_p < ' ') ? true : false));
 749:funsape/peripheral/../globalDefines.hpp **** }
 750:funsape/peripheral/../globalDefines.hpp **** 
 751:funsape/peripheral/../globalDefines.hpp **** bool_t inlined isAsciiLetter(cchar_t character_p)
 752:funsape/peripheral/../globalDefines.hpp **** {
 753:funsape/peripheral/../globalDefines.hpp ****     return ((bool_t)((isAsciiLowerCaseLetter(character_p) || (isAsciiUpperCaseLetter(character_p)) 
 754:funsape/peripheral/../globalDefines.hpp **** }
 755:funsape/peripheral/../globalDefines.hpp **** 
 756:funsape/peripheral/../globalDefines.hpp **** bool_t inlined isAsciiNumber(cchar_t character_p)
 757:funsape/peripheral/../globalDefines.hpp **** {
 758:funsape/peripheral/../globalDefines.hpp ****     return ((bool_t)(((character_p >= '0') && (character_p <= '9')) ? true : false));
 759:funsape/peripheral/../globalDefines.hpp **** }
 760:funsape/peripheral/../globalDefines.hpp **** 
 761:funsape/peripheral/../globalDefines.hpp **** bool_t inlined isAsciiSymbol(cchar_t character_p)
 762:funsape/peripheral/../globalDefines.hpp **** {
 763:funsape/peripheral/../globalDefines.hpp ****     return ((bool_t)(((!isAsciiNumber(character_p)) && (!isAsciiCommand(character_p)) &&
 764:funsape/peripheral/../globalDefines.hpp ****                                     (!isAsciiLetter(character_p))) ? true : false));
 765:funsape/peripheral/../globalDefines.hpp **** }
 766:funsape/peripheral/../globalDefines.hpp **** 
 767:funsape/peripheral/../globalDefines.hpp **** //     /////////////////////     SYSTEM ACTIONS    //////////////////////     //
 768:funsape/peripheral/../globalDefines.hpp **** void inlined die(Error errorCode_p)
 769:funsape/peripheral/../globalDefines.hpp **** {
 770:funsape/peripheral/../globalDefines.hpp ****     printf("Failed with error=%u (0x%04x).\r", (cuint16_t)errorCode_p, (cuint16_t)errorCode_p);
 771:funsape/peripheral/../globalDefines.hpp ****     systemHalt();
 772:funsape/peripheral/../globalDefines.hpp **** 
 773:funsape/peripheral/../globalDefines.hpp ****     return;
 774:funsape/peripheral/../globalDefines.hpp **** }
 775:funsape/peripheral/../globalDefines.hpp **** 
 776:funsape/peripheral/../globalDefines.hpp **** void inlined doNop(void)
 777:funsape/peripheral/../globalDefines.hpp **** {
 778:funsape/peripheral/../globalDefines.hpp ****     asm volatile("nop");
 779:funsape/peripheral/../globalDefines.hpp **** 
 780:funsape/peripheral/../globalDefines.hpp ****     return;
 781:funsape/peripheral/../globalDefines.hpp **** }
 782:funsape/peripheral/../globalDefines.hpp **** 
 783:funsape/peripheral/../globalDefines.hpp **** void inlined doNothing(void)
GAS LISTING C:\Users\kenne\AppData\Local\Temp\cc4WHnAx.s 			page 15


 784:funsape/peripheral/../globalDefines.hpp **** {
 785:funsape/peripheral/../globalDefines.hpp ****     return;
 786:funsape/peripheral/../globalDefines.hpp **** }
 787:funsape/peripheral/../globalDefines.hpp **** 
 788:funsape/peripheral/../globalDefines.hpp **** void inlined systemHalt(void (*function_p)(void))
 789:funsape/peripheral/../globalDefines.hpp **** {
 790:funsape/peripheral/../globalDefines.hpp ****     if(isPointerValid(function_p)) {
 791:funsape/peripheral/../globalDefines.hpp ****         function_p();
 792:funsape/peripheral/../globalDefines.hpp ****     }
 793:funsape/peripheral/../globalDefines.hpp ****     while(1) {
 794:funsape/peripheral/../globalDefines.hpp ****         doNothing();
 795:funsape/peripheral/../globalDefines.hpp ****     }
 796:funsape/peripheral/../globalDefines.hpp **** 
 797:funsape/peripheral/../globalDefines.hpp ****     return;
 798:funsape/peripheral/../globalDefines.hpp **** }
 799:funsape/peripheral/../globalDefines.hpp **** 
 800:funsape/peripheral/../globalDefines.hpp **** // =============================================================================
 801:funsape/peripheral/../globalDefines.hpp **** // Public functions weakly defined
 802:funsape/peripheral/../globalDefines.hpp **** // =============================================================================
 803:funsape/peripheral/../globalDefines.hpp **** 
 804:funsape/peripheral/../globalDefines.hpp **** #define delayMs(time_p)                 _delay_ms(time_p)
 805:funsape/peripheral/../globalDefines.hpp **** #define delayUs(time_p)                 _delay_us(time_p)
 806:funsape/peripheral/../globalDefines.hpp **** 
 807:funsape/peripheral/../globalDefines.hpp **** weakened uint32_t getTick(void)
 808:funsape/peripheral/../globalDefines.hpp **** {
  17               		.loc 1 808 1 view -0
  18               		.cfi_startproc
  19               	/* prologue: function */
  20               	/* frame size = 0 */
  21               	/* stack size = 0 */
  22               	.L__stack_usage = 0
 809:funsape/peripheral/../globalDefines.hpp ****     // TODO
 810:funsape/peripheral/../globalDefines.hpp ****     return 0;
  23               		.loc 1 810 5 view .LVU1
 811:funsape/peripheral/../globalDefines.hpp **** }
  24               		.loc 1 811 1 is_stmt 0 view .LVU2
  25 0000 60E0      		ldi r22,0
  26 0002 70E0      		ldi r23,0
  27 0004 CB01      		movw r24,r22
  28               	/* epilogue start */
  29 0006 0895      		ret
  30               		.cfi_endproc
  31               	.LFE32:
  33               		.section	.text._ZN6Usart0D2Ev,"ax",@progbits
  34               	.global	_ZN6Usart0D2Ev
  36               	_ZN6Usart0D2Ev:
  37               	.LVL0:
  38               	.LFB58:
  39               		.file 2 "funsape/peripheral/usart0.cpp"
   1:funsape/peripheral/usart0.cpp **** 
   2:funsape/peripheral/usart0.cpp **** 
   3:funsape/peripheral/usart0.cpp **** #include "usart0.hpp"
   4:funsape/peripheral/usart0.cpp **** 
   5:funsape/peripheral/usart0.cpp **** Usart0 *usartDefaultHandler;
   6:funsape/peripheral/usart0.cpp **** Usart0 usart0;
   7:funsape/peripheral/usart0.cpp **** FILE usartStream;
   8:funsape/peripheral/usart0.cpp **** 
GAS LISTING C:\Users\kenne\AppData\Local\Temp\cc4WHnAx.s 			page 16


   9:funsape/peripheral/usart0.cpp **** int usartTransmitStdWrapper(char data, FILE *stream);
  10:funsape/peripheral/usart0.cpp **** 
  11:funsape/peripheral/usart0.cpp **** Usart0::Usart0(BaudRate baudRate_p, Mode mode_p, FrameFormat format_p)
  12:funsape/peripheral/usart0.cpp **** {
  13:funsape/peripheral/usart0.cpp ****     if(!this->setBaudRate(baudRate_p)) {
  14:funsape/peripheral/usart0.cpp ****         // Returns error
  15:funsape/peripheral/usart0.cpp ****         return;
  16:funsape/peripheral/usart0.cpp ****     }
  17:funsape/peripheral/usart0.cpp ****     if(!this->setMode(mode_p)) {
  18:funsape/peripheral/usart0.cpp ****         // Returns error
  19:funsape/peripheral/usart0.cpp ****         return;
  20:funsape/peripheral/usart0.cpp ****     }
  21:funsape/peripheral/usart0.cpp ****     if(!this->setFrameFormat(format_p)) {
  22:funsape/peripheral/usart0.cpp ****         // Returns error
  23:funsape/peripheral/usart0.cpp ****         return;
  24:funsape/peripheral/usart0.cpp ****     }
  25:funsape/peripheral/usart0.cpp **** 
  26:funsape/peripheral/usart0.cpp ****     fdev_setup_stream(&usartStream, usartTransmitStdWrapper, NULL, _FDEV_SETUP_WRITE);
  27:funsape/peripheral/usart0.cpp **** 
  28:funsape/peripheral/usart0.cpp ****     // Returns successfully
  29:funsape/peripheral/usart0.cpp ****     this->_lastError = Error::NONE;
  30:funsape/peripheral/usart0.cpp ****     return;
  31:funsape/peripheral/usart0.cpp **** }
  32:funsape/peripheral/usart0.cpp **** 
  33:funsape/peripheral/usart0.cpp **** Usart0::~Usart0(void)
  40               		.loc 2 33 1 is_stmt 1 view -0
  41               		.cfi_startproc
  42               	/* prologue: function */
  43               	/* frame size = 0 */
  44               	/* stack size = 0 */
  45               	.L__stack_usage = 0
  34:funsape/peripheral/usart0.cpp **** {
  35:funsape/peripheral/usart0.cpp ****     return;
  46               		.loc 2 35 5 view .LVU4
  47               	/* epilogue start */
  36:funsape/peripheral/usart0.cpp **** }
  48               		.loc 2 36 1 is_stmt 0 view .LVU5
  49 0000 0895      		ret
  50               		.cfi_endproc
  51               	.LFE58:
  53               	.global	_ZN6Usart0D1Ev
  54               		.set	_ZN6Usart0D1Ev,_ZN6Usart0D2Ev
  55               		.section	.text._ZN6Usart04initEv,"ax",@progbits
  56               	.global	_ZN6Usart04initEv
  58               	_ZN6Usart04initEv:
  59               	.LVL1:
  60               	.LFB60:
  37:funsape/peripheral/usart0.cpp **** 
  38:funsape/peripheral/usart0.cpp **** bool_t Usart0::init(void)
  39:funsape/peripheral/usart0.cpp **** {
  61               		.loc 2 39 1 is_stmt 1 view -0
  62               		.cfi_startproc
  63               		.loc 2 39 1 is_stmt 0 view .LVU7
  64 0000 3F92      		push r3
  65               		.cfi_def_cfa_offset 3
  66               		.cfi_offset 3, -2
  67 0002 4F92      		push r4
GAS LISTING C:\Users\kenne\AppData\Local\Temp\cc4WHnAx.s 			page 17


  68               		.cfi_def_cfa_offset 4
  69               		.cfi_offset 4, -3
  70 0004 5F92      		push r5
  71               		.cfi_def_cfa_offset 5
  72               		.cfi_offset 5, -4
  73 0006 6F92      		push r6
  74               		.cfi_def_cfa_offset 6
  75               		.cfi_offset 6, -5
  76 0008 7F92      		push r7
  77               		.cfi_def_cfa_offset 7
  78               		.cfi_offset 7, -6
  79 000a 8F92      		push r8
  80               		.cfi_def_cfa_offset 8
  81               		.cfi_offset 8, -7
  82 000c 9F92      		push r9
  83               		.cfi_def_cfa_offset 9
  84               		.cfi_offset 9, -8
  85 000e AF92      		push r10
  86               		.cfi_def_cfa_offset 10
  87               		.cfi_offset 10, -9
  88 0010 BF92      		push r11
  89               		.cfi_def_cfa_offset 11
  90               		.cfi_offset 11, -10
  91 0012 CF92      		push r12
  92               		.cfi_def_cfa_offset 12
  93               		.cfi_offset 12, -11
  94 0014 DF92      		push r13
  95               		.cfi_def_cfa_offset 13
  96               		.cfi_offset 13, -12
  97 0016 EF92      		push r14
  98               		.cfi_def_cfa_offset 14
  99               		.cfi_offset 14, -13
 100 0018 FF92      		push r15
 101               		.cfi_def_cfa_offset 15
 102               		.cfi_offset 15, -14
 103 001a 0F93      		push r16
 104               		.cfi_def_cfa_offset 16
 105               		.cfi_offset 16, -15
 106 001c 1F93      		push r17
 107               		.cfi_def_cfa_offset 17
 108               		.cfi_offset 17, -16
 109 001e CF93      		push r28
 110               		.cfi_def_cfa_offset 18
 111               		.cfi_offset 28, -17
 112 0020 DF93      		push r29
 113               		.cfi_def_cfa_offset 19
 114               		.cfi_offset 29, -18
 115 0022 CDB7      		in r28,__SP_L__
 116 0024 DEB7      		in r29,__SP_H__
 117               		.cfi_def_cfa_register 28
 118 0026 2A97      		sbiw r28,10
 119               		.cfi_def_cfa_offset 29
 120 0028 0FB6      		in __tmp_reg__,__SREG__
 121 002a F894      		cli
 122 002c DEBF      		out __SP_H__,r29
 123 002e 0FBE      		out __SREG__,__tmp_reg__
 124 0030 CDBF      		out __SP_L__,r28
GAS LISTING C:\Users\kenne\AppData\Local\Temp\cc4WHnAx.s 			page 18


 125               	/* prologue: function */
 126               	/* frame size = 10 */
 127               	/* stack size = 27 */
 128               	.L__stack_usage = 27
 129 0032 8987      		std Y+9,r24
 130 0034 9A87      		std Y+10,r25
  40:funsape/peripheral/usart0.cpp ****     // Local variables
  41:funsape/peripheral/usart0.cpp ****     uint8_t ucsr0a = UCSR0A;
 131               		.loc 2 41 5 is_stmt 1 view .LVU8
 132               		.loc 2 41 22 is_stmt 0 view .LVU9
 133 0036 0091 C000 		lds r16,192
 134               	.LVL2:
  42:funsape/peripheral/usart0.cpp ****     uint8_t ucsr0b = UCSR0B;
 135               		.loc 2 42 5 is_stmt 1 view .LVU10
 136               		.loc 2 42 22 is_stmt 0 view .LVU11
 137 003a 1091 C100 		lds r17,193
 138               	.LVL3:
  43:funsape/peripheral/usart0.cpp ****     uint8_t ucsr0c = UCSR0C;
 139               		.loc 2 43 5 is_stmt 1 view .LVU12
 140               		.loc 2 43 22 is_stmt 0 view .LVU13
 141 003e 8091 C200 		lds r24,194
 142               	.LVL4:
  44:funsape/peripheral/usart0.cpp ****     uint64_t ubrr0 = (uint64_t)UBRR0;
 143               		.loc 2 44 5 is_stmt 1 view .LVU14
 144               		.loc 2 44 32 is_stmt 0 view .LVU15
 145 0042 2091 C400 		lds r18,196
 146 0046 3091 C500 		lds r19,196+1
  45:funsape/peripheral/usart0.cpp ****     uint8_t auxPrescaler = 1;
 147               		.loc 2 45 5 is_stmt 1 view .LVU16
 148               	.LVL5:
  46:funsape/peripheral/usart0.cpp **** 
  47:funsape/peripheral/usart0.cpp ****     // Clear errors
  48:funsape/peripheral/usart0.cpp ****     ucsr0a &= ~((1 << FE0) | (1 << DOR0) | (1 << UPE0));
 149               		.loc 2 48 5 view .LVU17
  49:funsape/peripheral/usart0.cpp **** 
  50:funsape/peripheral/usart0.cpp ****     // Configure stop bit
  51:funsape/peripheral/usart0.cpp ****     switch(this->_stopBits) {
 150               		.loc 2 51 5 view .LVU18
 151               		.loc 2 51 18 is_stmt 0 view .LVU19
 152 004a E985      		ldd r30,Y+9
 153 004c FA85      		ldd r31,Y+10
 154 004e 9385      		ldd r25,Z+11
 155               		.loc 2 51 5 view .LVU20
 156 0050 9923      		tst r25
 157 0052 01F0      		breq .L4
 158 0054 9130      		cpi r25,lo8(1)
 159 0056 01F0      		breq .L5
 160               	.L6:
  52:funsape/peripheral/usart0.cpp ****     case Usart0::StopBits::SINGLE:
  53:funsape/peripheral/usart0.cpp ****         clrBit(ucsr0c, USBS0);
  54:funsape/peripheral/usart0.cpp ****         break;
  55:funsape/peripheral/usart0.cpp ****     case Usart0::StopBits::DOUBLE:
  56:funsape/peripheral/usart0.cpp ****         setBit(ucsr0c, USBS0);
  57:funsape/peripheral/usart0.cpp ****         break;
  58:funsape/peripheral/usart0.cpp ****     }
  59:funsape/peripheral/usart0.cpp **** 
  60:funsape/peripheral/usart0.cpp ****     // Configure parity
GAS LISTING C:\Users\kenne\AppData\Local\Temp\cc4WHnAx.s 			page 19


  61:funsape/peripheral/usart0.cpp ****     clrMaskOffset(ucsr0c, 0x03, UPM00);
 161               		.loc 2 61 5 is_stmt 1 view .LVU21
 162 0058 8F7C      		andi r24,lo8(-49)
 163               	.LVL6:
  62:funsape/peripheral/usart0.cpp ****     switch(this->_parity) {
 164               		.loc 2 62 5 view .LVU22
 165               		.loc 2 62 18 is_stmt 0 view .LVU23
 166 005a E985      		ldd r30,Y+9
 167 005c FA85      		ldd r31,Y+10
 168 005e 9285      		ldd r25,Z+10
 169               		.loc 2 62 5 view .LVU24
 170 0060 9130      		cpi r25,lo8(1)
 171 0062 01F0      		breq .L7
 172 0064 9230      		cpi r25,lo8(2)
 173 0066 01F0      		breq .L8
 174               	.L9:
  63:funsape/peripheral/usart0.cpp ****     case Usart0::Parity::NONE:
  64:funsape/peripheral/usart0.cpp ****         break;
  65:funsape/peripheral/usart0.cpp ****     case Usart0::Parity::ODD:
  66:funsape/peripheral/usart0.cpp ****         setMaskOffset(ucsr0c, 0x03, UPM00);
  67:funsape/peripheral/usart0.cpp ****         break;
  68:funsape/peripheral/usart0.cpp ****     case Usart0::Parity::EVEN:
  69:funsape/peripheral/usart0.cpp ****         setMaskOffset(ucsr0c, 0x02, UPM00);
  70:funsape/peripheral/usart0.cpp ****         break;
  71:funsape/peripheral/usart0.cpp ****     }
  72:funsape/peripheral/usart0.cpp **** 
  73:funsape/peripheral/usart0.cpp ****     // Configure data bits
  74:funsape/peripheral/usart0.cpp ****     clrBit(ucsr0b, UCSZ02);
 175               		.loc 2 74 5 is_stmt 1 view .LVU25
 176 0068 1B7F      		andi r17,lo8(-5)
 177               	.LVL7:
  75:funsape/peripheral/usart0.cpp ****     clrMaskOffset(ucsr0c, 0x03, UCSZ00);
 178               		.loc 2 75 5 view .LVU26
 179 006a 897F      		andi r24,lo8(-7)
 180               	.LVL8:
  76:funsape/peripheral/usart0.cpp ****     switch(this->_dataSize) {
 181               		.loc 2 76 5 view .LVU27
 182               		.loc 2 76 18 is_stmt 0 view .LVU28
 183 006c E985      		ldd r30,Y+9
 184 006e FA85      		ldd r31,Y+10
 185 0070 9481      		ldd r25,Z+4
 186               		.loc 2 76 5 view .LVU29
 187 0072 9330      		cpi r25,lo8(3)
 188 0074 01F0      		breq .L10
 189 0076 00F4      		brsh .L11
 190 0078 9130      		cpi r25,lo8(1)
 191 007a 01F0      		breq .L12
 192 007c 9230      		cpi r25,lo8(2)
 193 007e 01F4      		brne .L14
  77:funsape/peripheral/usart0.cpp ****     case Usart0::DataSize::DATA_5_BITS:
  78:funsape/peripheral/usart0.cpp ****         break;
  79:funsape/peripheral/usart0.cpp ****     case Usart0::DataSize::DATA_6_BITS:
  80:funsape/peripheral/usart0.cpp ****         setMaskOffset(ucsr0c, 0x01, UCSZ00);
  81:funsape/peripheral/usart0.cpp ****         break;
  82:funsape/peripheral/usart0.cpp ****     case Usart0::DataSize::DATA_7_BITS:
 194               		.loc 2 82 5 is_stmt 1 view .LVU30
  83:funsape/peripheral/usart0.cpp ****         setMaskOffset(ucsr0c, 0x02, UCSZ00);
GAS LISTING C:\Users\kenne\AppData\Local\Temp\cc4WHnAx.s 			page 20


 195               		.loc 2 83 9 view .LVU31
 196 0080 8460      		ori r24,lo8(4)
 197               	.LVL9:
  84:funsape/peripheral/usart0.cpp ****         break;
 198               		.loc 2 84 9 view .LVU32
 199 0082 00C0      		rjmp .L14
 200               	.L4:
  52:funsape/peripheral/usart0.cpp ****         clrBit(ucsr0c, USBS0);
 201               		.loc 2 52 5 view .LVU33
  53:funsape/peripheral/usart0.cpp ****         break;
 202               		.loc 2 53 9 view .LVU34
 203 0084 877F      		andi r24,lo8(-9)
 204               	.LVL10:
  54:funsape/peripheral/usart0.cpp ****     case Usart0::StopBits::DOUBLE:
 205               		.loc 2 54 9 view .LVU35
 206 0086 00C0      		rjmp .L6
 207               	.L5:
  55:funsape/peripheral/usart0.cpp ****         setBit(ucsr0c, USBS0);
 208               		.loc 2 55 5 view .LVU36
  56:funsape/peripheral/usart0.cpp ****         break;
 209               		.loc 2 56 9 view .LVU37
 210 0088 8860      		ori r24,lo8(8)
 211               	.LVL11:
  57:funsape/peripheral/usart0.cpp ****     }
 212               		.loc 2 57 9 view .LVU38
 213 008a 00C0      		rjmp .L6
 214               	.L7:
  65:funsape/peripheral/usart0.cpp ****         setMaskOffset(ucsr0c, 0x03, UPM00);
 215               		.loc 2 65 5 view .LVU39
  66:funsape/peripheral/usart0.cpp ****         break;
 216               		.loc 2 66 9 view .LVU40
 217 008c 8063      		ori r24,lo8(48)
 218               	.LVL12:
  67:funsape/peripheral/usart0.cpp ****     case Usart0::Parity::EVEN:
 219               		.loc 2 67 9 view .LVU41
 220 008e 00C0      		rjmp .L9
 221               	.L8:
  68:funsape/peripheral/usart0.cpp ****         setMaskOffset(ucsr0c, 0x02, UPM00);
 222               		.loc 2 68 5 view .LVU42
  69:funsape/peripheral/usart0.cpp ****         break;
 223               		.loc 2 69 9 view .LVU43
 224 0090 8062      		ori r24,lo8(32)
 225               	.LVL13:
  70:funsape/peripheral/usart0.cpp ****     }
 226               		.loc 2 70 9 view .LVU44
 227 0092 00C0      		rjmp .L9
 228               	.L11:
  76:funsape/peripheral/usart0.cpp ****     case Usart0::DataSize::DATA_5_BITS:
 229               		.loc 2 76 5 is_stmt 0 view .LVU45
 230 0094 9730      		cpi r25,lo8(7)
 231 0096 01F4      		brne .L14
  85:funsape/peripheral/usart0.cpp ****     case Usart0::DataSize::DATA_8_BITS:
  86:funsape/peripheral/usart0.cpp ****         setMaskOffset(ucsr0c, 0x03, UCSZ00);
  87:funsape/peripheral/usart0.cpp ****         break;
  88:funsape/peripheral/usart0.cpp ****     case Usart0::DataSize::DATA_9_BITS:
 232               		.loc 2 88 5 is_stmt 1 view .LVU46
  89:funsape/peripheral/usart0.cpp ****         setBit(ucsr0b, UCSZ02);
GAS LISTING C:\Users\kenne\AppData\Local\Temp\cc4WHnAx.s 			page 21


 233               		.loc 2 89 9 view .LVU47
 234 0098 1460      		ori r17,lo8(4)
 235               	.LVL14:
  90:funsape/peripheral/usart0.cpp ****         setMaskOffset(ucsr0c, 0x03, UCSZ00);
 236               		.loc 2 90 9 view .LVU48
 237 009a 8660      		ori r24,lo8(6)
 238               	.LVL15:
  91:funsape/peripheral/usart0.cpp ****         break;
 239               		.loc 2 91 9 view .LVU49
 240 009c 00C0      		rjmp .L14
 241               	.L12:
  79:funsape/peripheral/usart0.cpp ****         setMaskOffset(ucsr0c, 0x01, UCSZ00);
 242               		.loc 2 79 5 view .LVU50
  80:funsape/peripheral/usart0.cpp ****         break;
 243               		.loc 2 80 9 view .LVU51
 244 009e 8260      		ori r24,lo8(2)
 245               	.LVL16:
  81:funsape/peripheral/usart0.cpp ****     case Usart0::DataSize::DATA_7_BITS:
 246               		.loc 2 81 9 view .LVU52
 247               	.L14:
  92:funsape/peripheral/usart0.cpp ****     }
  93:funsape/peripheral/usart0.cpp **** 
  94:funsape/peripheral/usart0.cpp ****     // Configure mode
  95:funsape/peripheral/usart0.cpp ****     clrMaskOffset(ucsr0c, 0x03, UMSEL00);
 248               		.loc 2 95 5 view .LVU53
  96:funsape/peripheral/usart0.cpp ****     clrBit(ucsr0a, U2X0);               // Single Speed
 249               		.loc 2 96 5 view .LVU54
 250 00a0 017E      		andi r16,lo8(-31)
 251               	.LVL17:
  97:funsape/peripheral/usart0.cpp ****     clrBit(ucsr0c, UCPOL0);             // Polarity
 252               		.loc 2 97 5 view .LVU55
 253 00a2 F82F      		mov r31,r24
 254 00a4 FE73      		andi r31,lo8(62)
 255 00a6 3F2E      		mov r3,r31
 256               	.LVL18:
  98:funsape/peripheral/usart0.cpp ****     switch(this->_mode) {
 257               		.loc 2 98 5 view .LVU56
 258               		.loc 2 98 18 is_stmt 0 view .LVU57
 259 00a8 E985      		ldd r30,Y+9
 260 00aa FA85      		ldd r31,Y+10
 261 00ac F580      		ldd r15,Z+5
 262               		.loc 2 98 5 view .LVU58
 263 00ae F7E0      		ldi r31,lo8(7)
 264 00b0 FF15      		cp r31,r15
 265 00b2 00F0      		brlo .L16
 266               		.loc 2 98 5 view .LVU59
 267 00b4 EF2D      		mov r30,r15
 268 00b6 F0E0      		ldi r31,0
 269 00b8 E050      		subi r30,lo8(-(gs(.L18)))
 270 00ba F040      		sbci r31,hi8(-(gs(.L18)))
 271 00bc 0C94 0000 		jmp __tablejump2__
 272               		.section	.jumptables.gcc._ZN6Usart04initEv,"a",@progbits
 273               		.p2align	1
 274               	.L18:
 275 0000 0000      		.word gs(.L26)
 276 0002 0000      		.word gs(.L24)
 277 0004 0000      		.word gs(.L23)
GAS LISTING C:\Users\kenne\AppData\Local\Temp\cc4WHnAx.s 			page 22


 278 0006 0000      		.word gs(.L22)
 279 0008 0000      		.word gs(.L21)
 280 000a 0000      		.word gs(.L20)
 281 000c 0000      		.word gs(.L19)
 282 000e 0000      		.word gs(.L17)
 283               		.section	.text._ZN6Usart04initEv
 284               	.LVL19:
 285               	.L10:
  85:funsape/peripheral/usart0.cpp ****         setMaskOffset(ucsr0c, 0x03, UCSZ00);
 286               		.loc 2 85 5 is_stmt 1 view .LVU60
  86:funsape/peripheral/usart0.cpp ****         break;
 287               		.loc 2 86 9 view .LVU61
 288 00c0 8660      		ori r24,lo8(6)
 289               	.LVL20:
  87:funsape/peripheral/usart0.cpp ****     case Usart0::DataSize::DATA_9_BITS:
 290               		.loc 2 87 9 view .LVU62
 291 00c2 00C0      		rjmp .L14
 292               	.LVL21:
 293               	.L16:
 294               		.loc 2 98 5 is_stmt 0 view .LVU63
 295 00c4 FF24      		clr r15
 296 00c6 F394      		inc r15
 297 00c8 00C0      		rjmp .L25
 298               	.L24:
  99:funsape/peripheral/usart0.cpp ****     case Usart0::Mode::ASYNCHRONOUS:
 100:funsape/peripheral/usart0.cpp ****         auxPrescaler = 16;
 101:funsape/peripheral/usart0.cpp ****         break;
 102:funsape/peripheral/usart0.cpp ****     case Usart0::Mode::ASYNCHRONOUS_DOUBLE_SPEED:
 299               		.loc 2 102 5 is_stmt 1 view .LVU64
 103:funsape/peripheral/usart0.cpp ****         setBit(ucsr0a, U2X0);           // Double Speed
 300               		.loc 2 103 9 view .LVU65
 301 00ca 0260      		ori r16,lo8(2)
 302               	.LVL22:
 104:funsape/peripheral/usart0.cpp ****         auxPrescaler = 8;
 303               		.loc 2 104 9 view .LVU66
 105:funsape/peripheral/usart0.cpp ****         break;
 304               		.loc 2 105 9 view .LVU67
 104:funsape/peripheral/usart0.cpp ****         auxPrescaler = 8;
 305               		.loc 2 104 22 is_stmt 0 view .LVU68
 306 00cc 6894      		set
 307 00ce FF24      		clr r15
 308 00d0 F3F8      		bld r15,3
 309               		.loc 2 105 9 view .LVU69
 310 00d2 00C0      		rjmp .L25
 311               	.LVL23:
 312               	.L23:
 106:funsape/peripheral/usart0.cpp ****     case Usart0::Mode::SYNCHRONOUS_TX_RISING_RX_FALLING:
 313               		.loc 2 106 5 is_stmt 1 view .LVU70
 107:funsape/peripheral/usart0.cpp ****         setMaskOffset(ucsr0c, 1, UMSEL00);      // Synchronous Mode Tx rising edge
 314               		.loc 2 107 9 view .LVU71
 315               		.loc 2 107 9 is_stmt 0 view .LVU72
 316 00d4 6894      		set
 317 00d6 36F8      		bld r3,6
 318               	.LVL24:
 108:funsape/peripheral/usart0.cpp ****         clrBit(ucsr0c, UCPOL0);
 319               		.loc 2 108 9 is_stmt 1 view .LVU73
 109:funsape/peripheral/usart0.cpp ****         auxPrescaler = 2;
GAS LISTING C:\Users\kenne\AppData\Local\Temp\cc4WHnAx.s 			page 23


 320               		.loc 2 109 9 view .LVU74
 110:funsape/peripheral/usart0.cpp ****         break;
 321               		.loc 2 110 9 view .LVU75
 322 00d8 00C0      		rjmp .L25
 323               	.LVL25:
 324               	.L22:
 111:funsape/peripheral/usart0.cpp ****     case Usart0::Mode::SYNCHRONOUS_TX_FALLING_RX_RISING:
 325               		.loc 2 111 5 view .LVU76
 112:funsape/peripheral/usart0.cpp ****         setMaskOffset(ucsr0c, 1, UMSEL00);      // Synchronous Mode Tx falling edge
 326               		.loc 2 112 9 view .LVU77
 113:funsape/peripheral/usart0.cpp ****         setBit(ucsr0c, UCPOL0);
 327               		.loc 2 113 9 view .LVU78
 328               		.loc 2 113 9 is_stmt 0 view .LVU79
 329 00da 832D      		mov r24,r3
 330 00dc 8164      		ori r24,lo8(65)
 331               	.LVL26:
 332               		.loc 2 113 9 view .LVU80
 333 00de 382E      		mov r3,r24
 334               	.LVL27:
 114:funsape/peripheral/usart0.cpp ****         auxPrescaler = 2;
 335               		.loc 2 114 9 is_stmt 1 view .LVU81
 115:funsape/peripheral/usart0.cpp ****         break;
 336               		.loc 2 115 9 view .LVU82
 114:funsape/peripheral/usart0.cpp ****         auxPrescaler = 2;
 337               		.loc 2 114 22 is_stmt 0 view .LVU83
 338 00e0 6894      		set
 339 00e2 FF24      		clr r15
 340 00e4 F1F8      		bld r15,1
 341               		.loc 2 115 9 view .LVU84
 342 00e6 00C0      		rjmp .L25
 343               	.LVL28:
 344               	.L21:
 116:funsape/peripheral/usart0.cpp ****     case Usart0::Mode::MASTER_SPI_MODE_0:
 345               		.loc 2 116 5 is_stmt 1 view .LVU85
 117:funsape/peripheral/usart0.cpp ****         setMaskOffset(ucsr0c, 3, UMSEL00);      // Synchronous SPI Mode
 346               		.loc 2 117 9 view .LVU86
 118:funsape/peripheral/usart0.cpp ****         clrBit(ucsr0c, UCPOL0);         // Polarity
 347               		.loc 2 118 9 view .LVU87
 119:funsape/peripheral/usart0.cpp ****         clrBit(ucsr0c, UCPHA0);         // Phase
 348               		.loc 2 119 9 view .LVU88
 349 00e8 8C73      		andi r24,lo8(60)
 350               	.LVL29:
 351               		.loc 2 119 9 is_stmt 0 view .LVU89
 352 00ea 806C      		ori r24,lo8(-64)
 353               		.loc 2 119 9 view .LVU90
 354 00ec 382E      		mov r3,r24
 355               	.LVL30:
 120:funsape/peripheral/usart0.cpp ****         auxPrescaler = 2;
 356               		.loc 2 120 9 is_stmt 1 view .LVU91
 121:funsape/peripheral/usart0.cpp ****         break;
 357               		.loc 2 121 9 view .LVU92
 120:funsape/peripheral/usart0.cpp ****         auxPrescaler = 2;
 358               		.loc 2 120 22 is_stmt 0 view .LVU93
 359 00ee 6894      		set
 360 00f0 FF24      		clr r15
 361 00f2 F1F8      		bld r15,1
 362               		.loc 2 121 9 view .LVU94
GAS LISTING C:\Users\kenne\AppData\Local\Temp\cc4WHnAx.s 			page 24


 363 00f4 00C0      		rjmp .L25
 364               	.LVL31:
 365               	.L20:
 122:funsape/peripheral/usart0.cpp ****     case Usart0::Mode::MASTER_SPI_MODE_1:
 366               		.loc 2 122 5 is_stmt 1 view .LVU95
 123:funsape/peripheral/usart0.cpp ****         setMaskOffset(ucsr0c, 3, UMSEL00);      // Synchronous SPI Mode
 367               		.loc 2 123 9 view .LVU96
 124:funsape/peripheral/usart0.cpp ****         clrBit(ucsr0c, UCPOL0);         // Polarity
 368               		.loc 2 124 9 view .LVU97
 125:funsape/peripheral/usart0.cpp ****         setBit(ucsr0c, UCPHA0);         // Phase
 369               		.loc 2 125 9 view .LVU98
 370               		.loc 2 125 9 is_stmt 0 view .LVU99
 371 00f6 932D      		mov r25,r3
 372 00f8 926C      		ori r25,lo8(-62)
 373               	.LVL32:
 374               		.loc 2 125 9 view .LVU100
 375 00fa 392E      		mov r3,r25
 376               	.LVL33:
 126:funsape/peripheral/usart0.cpp ****         auxPrescaler = 2;
 377               		.loc 2 126 9 is_stmt 1 view .LVU101
 127:funsape/peripheral/usart0.cpp ****         break;
 378               		.loc 2 127 9 view .LVU102
 126:funsape/peripheral/usart0.cpp ****         auxPrescaler = 2;
 379               		.loc 2 126 22 is_stmt 0 view .LVU103
 380 00fc 6894      		set
 381 00fe FF24      		clr r15
 382 0100 F1F8      		bld r15,1
 383               		.loc 2 127 9 view .LVU104
 384 0102 00C0      		rjmp .L25
 385               	.LVL34:
 386               	.L19:
 128:funsape/peripheral/usart0.cpp ****     case Usart0::Mode::MASTER_SPI_MODE_2:
 387               		.loc 2 128 5 is_stmt 1 view .LVU105
 129:funsape/peripheral/usart0.cpp ****         setMaskOffset(ucsr0c, 3, UMSEL00);      // Synchronous SPI Mode
 388               		.loc 2 129 9 view .LVU106
 130:funsape/peripheral/usart0.cpp ****         setBit(ucsr0c, UCPOL0);         // Polarity
 389               		.loc 2 130 9 view .LVU107
 131:funsape/peripheral/usart0.cpp ****         clrBit(ucsr0c, UCPHA0);         // Phase
 390               		.loc 2 131 9 view .LVU108
 391 0104 8C73      		andi r24,lo8(60)
 392               	.LVL35:
 393               		.loc 2 131 9 is_stmt 0 view .LVU109
 394 0106 816C      		ori r24,lo8(-63)
 395               		.loc 2 131 9 view .LVU110
 396 0108 382E      		mov r3,r24
 397               	.LVL36:
 132:funsape/peripheral/usart0.cpp ****         auxPrescaler = 2;
 398               		.loc 2 132 9 is_stmt 1 view .LVU111
 133:funsape/peripheral/usart0.cpp ****         break;
 399               		.loc 2 133 9 view .LVU112
 132:funsape/peripheral/usart0.cpp ****         auxPrescaler = 2;
 400               		.loc 2 132 22 is_stmt 0 view .LVU113
 401 010a 6894      		set
 402 010c FF24      		clr r15
 403 010e F1F8      		bld r15,1
 404               		.loc 2 133 9 view .LVU114
 405 0110 00C0      		rjmp .L25
GAS LISTING C:\Users\kenne\AppData\Local\Temp\cc4WHnAx.s 			page 25


 406               	.LVL37:
 407               	.L17:
 134:funsape/peripheral/usart0.cpp ****     case Usart0::Mode::MASTER_SPI_MODE_3:
 408               		.loc 2 134 5 is_stmt 1 view .LVU115
 135:funsape/peripheral/usart0.cpp ****         setMaskOffset(ucsr0c, 3, UMSEL00);      // Synchronous SPI Mode
 409               		.loc 2 135 9 view .LVU116
 136:funsape/peripheral/usart0.cpp ****         setBit(ucsr0c, UCPOL0);         // Polarity
 410               		.loc 2 136 9 view .LVU117
 137:funsape/peripheral/usart0.cpp ****         setBit(ucsr0c, UCPHA0);         // Phase
 411               		.loc 2 137 9 view .LVU118
 412               		.loc 2 137 9 is_stmt 0 view .LVU119
 413 0112 E32D      		mov r30,r3
 414 0114 E36C      		ori r30,lo8(-61)
 415               	.LVL38:
 416               		.loc 2 137 9 view .LVU120
 417 0116 3E2E      		mov r3,r30
 418               	.LVL39:
 138:funsape/peripheral/usart0.cpp ****         auxPrescaler = 2;
 419               		.loc 2 138 9 is_stmt 1 view .LVU121
 139:funsape/peripheral/usart0.cpp ****         break;
 420               		.loc 2 139 9 view .LVU122
 138:funsape/peripheral/usart0.cpp ****         auxPrescaler = 2;
 421               		.loc 2 138 22 is_stmt 0 view .LVU123
 422 0118 6894      		set
 423 011a FF24      		clr r15
 424 011c F1F8      		bld r15,1
 425               		.loc 2 139 9 view .LVU124
 426 011e 00C0      		rjmp .L25
 427               	.LVL40:
 428               	.L26:
 100:funsape/peripheral/usart0.cpp ****         break;
 429               		.loc 2 100 22 view .LVU125
 430 0120 6894      		set
 431 0122 FF24      		clr r15
 432 0124 F4F8      		bld r15,4
 433               	.LVL41:
 434               	.L25:
 140:funsape/peripheral/usart0.cpp ****     }
 141:funsape/peripheral/usart0.cpp **** 
 142:funsape/peripheral/usart0.cpp ****     // Configure baud rate
 143:funsape/peripheral/usart0.cpp ****     ubrr0 = (systemStatus.getCpuClock() / (auxPrescaler * (uint32_t)this->_baudRate) - 1);
 435               		.loc 2 143 5 is_stmt 1 view .LVU126
 436               		.loc 2 143 38 is_stmt 0 view .LVU127
 437 0126 80E0      		ldi r24,lo8(systemStatus)
 438 0128 90E0      		ldi r25,hi8(systemStatus)
 439 012a 0E94 0000 		call _ZN12SystemStatus11getCpuClockEv
 440               	.LVL42:
 441 012e 6D83      		std Y+5,r22
 442 0130 7E83      		std Y+6,r23
 443 0132 8F83      		std Y+7,r24
 444 0134 9887      		std Y+8,r25
 445               		.loc 2 143 75 view .LVU128
 446 0136 E985      		ldd r30,Y+9
 447 0138 FA85      		ldd r31,Y+10
 448 013a 2681      		ldd r18,Z+6
 449 013c 3781      		ldd r19,Z+7
 450 013e 4085      		ldd r20,Z+8
GAS LISTING C:\Users\kenne\AppData\Local\Temp\cc4WHnAx.s 			page 26


 451 0140 5185      		ldd r21,Z+9
 452               		.loc 2 143 57 view .LVU129
 453 0142 AF2D      		mov r26,r15
 454 0144 B0E0      		ldi r27,0
 455 0146 0E94 0000 		call __muluhisi3
 456 014a 6983      		std Y+1,r22
 457 014c 7A83      		std Y+2,r23
 458 014e 8B83      		std Y+3,r24
 459 0150 9C83      		std Y+4,r25
 460               		.loc 2 143 41 view .LVU130
 461 0152 6D81      		ldd r22,Y+5
 462 0154 7E81      		ldd r23,Y+6
 463 0156 8F81      		ldd r24,Y+7
 464 0158 9885      		ldd r25,Y+8
 465 015a 2981      		ldd r18,Y+1
 466 015c 3A81      		ldd r19,Y+2
 467 015e 4B81      		ldd r20,Y+3
 468 0160 5C81      		ldd r21,Y+4
 469 0162 0E94 0000 		call __udivmodsi4
 470               		.loc 2 143 86 view .LVU131
 471 0166 6901      		movw r12,r18
 472 0168 7A01      		movw r14,r20
 473 016a F1E0      		ldi r31,1
 474 016c CF1A      		sub r12,r31
 475 016e D108      		sbc r13,__zero_reg__
 476 0170 E108      		sbc r14,__zero_reg__
 477 0172 F108      		sbc r15,__zero_reg__
 478               		.loc 2 143 11 view .LVU132
 479 0174 2601      		movw r4,r12
 480 0176 3701      		movw r6,r14
 144:funsape/peripheral/usart0.cpp **** 
 145:funsape/peripheral/usart0.cpp ****     // Configures USART registers
 146:funsape/peripheral/usart0.cpp ****     UCSR0A = ucsr0a;
 481               		.loc 2 146 5 is_stmt 1 view .LVU133
 482               		.loc 2 146 12 is_stmt 0 view .LVU134
 483 0178 0093 C000 		sts 192,r16
 147:funsape/peripheral/usart0.cpp ****     UCSR0B = ucsr0b;
 484               		.loc 2 147 5 is_stmt 1 view .LVU135
 485               		.loc 2 147 12 is_stmt 0 view .LVU136
 486 017c 1093 C100 		sts 193,r17
 148:funsape/peripheral/usart0.cpp ****     UCSR0C = ucsr0c;
 487               		.loc 2 148 5 is_stmt 1 view .LVU137
 488               		.loc 2 148 12 is_stmt 0 view .LVU138
 489 0180 3092 C200 		sts 194,r3
 149:funsape/peripheral/usart0.cpp ****     UBRR0H = (uint8_t)(0x0F & (ubrr0 >> 8));
 490               		.loc 2 149 5 is_stmt 1 view .LVU139
 491               		.loc 2 149 38 is_stmt 0 view .LVU140
 492 0184 2C2D      		mov r18,r12
 493 0186 352D      		mov r19,r5
 494 0188 462D      		mov r20,r6
 495 018a 572D      		mov r21,r7
 496 018c 60E0      		ldi r22,0
 497 018e 70E0      		ldi r23,0
 498 0190 80E0      		ldi r24,0
 499 0192 90E0      		ldi r25,0
 500 0194 08E0      		ldi r16,lo8(8)
 501               	.LVL43:
GAS LISTING C:\Users\kenne\AppData\Local\Temp\cc4WHnAx.s 			page 27


 502               		.loc 2 149 38 view .LVU141
 503 0196 0E94 0000 		call __lshrdi3
 504               		.loc 2 149 29 view .LVU142
 505 019a 2F70      		andi r18,lo8(15)
 506               		.loc 2 149 12 view .LVU143
 507 019c 2093 C500 		sts 197,r18
 150:funsape/peripheral/usart0.cpp ****     UBRR0L = (uint8_t)(0xFF & ubrr0);
 508               		.loc 2 150 5 is_stmt 1 view .LVU144
 509               		.loc 2 150 12 is_stmt 0 view .LVU145
 510 01a0 C092 C400 		sts 196,r12
 151:funsape/peripheral/usart0.cpp **** 
 152:funsape/peripheral/usart0.cpp ****     // Returns successfully
 153:funsape/peripheral/usart0.cpp ****     this->_lastError = Error::NONE;
 511               		.loc 2 153 5 is_stmt 1 view .LVU146
 512               		.loc 2 153 22 is_stmt 0 view .LVU147
 513 01a4 E985      		ldd r30,Y+9
 514 01a6 FA85      		ldd r31,Y+10
 515 01a8 1382      		std Z+3,__zero_reg__
 516 01aa 1282      		std Z+2,__zero_reg__
 154:funsape/peripheral/usart0.cpp ****     return true;
 517               		.loc 2 154 5 is_stmt 1 view .LVU148
 155:funsape/peripheral/usart0.cpp **** }
 518               		.loc 2 155 1 is_stmt 0 view .LVU149
 519 01ac 81E0      		ldi r24,lo8(1)
 520               	/* epilogue start */
 521 01ae 2A96      		adiw r28,10
 522 01b0 0FB6      		in __tmp_reg__,__SREG__
 523 01b2 F894      		cli
 524 01b4 DEBF      		out __SP_H__,r29
 525 01b6 0FBE      		out __SREG__,__tmp_reg__
 526 01b8 CDBF      		out __SP_L__,r28
 527 01ba DF91      		pop r29
 528 01bc CF91      		pop r28
 529 01be 1F91      		pop r17
 530               	.LVL44:
 531               		.loc 2 155 1 view .LVU150
 532 01c0 0F91      		pop r16
 533 01c2 FF90      		pop r15
 534               	.LVL45:
 535               		.loc 2 155 1 view .LVU151
 536 01c4 EF90      		pop r14
 537 01c6 DF90      		pop r13
 538 01c8 CF90      		pop r12
 539 01ca BF90      		pop r11
 540 01cc AF90      		pop r10
 541 01ce 9F90      		pop r9
 542 01d0 8F90      		pop r8
 543 01d2 7F90      		pop r7
 544 01d4 6F90      		pop r6
 545 01d6 5F90      		pop r5
 546 01d8 4F90      		pop r4
 547 01da 3F90      		pop r3
 548               	.LVL46:
 549               		.loc 2 155 1 view .LVU152
 550 01dc 0895      		ret
 551               		.cfi_endproc
 552               	.LFE60:
GAS LISTING C:\Users\kenne\AppData\Local\Temp\cc4WHnAx.s 			page 28


 554               		.section	.text._ZN6Usart07setModeENS_4ModeE,"ax",@progbits
 555               	.global	_ZN6Usart07setModeENS_4ModeE
 557               	_ZN6Usart07setModeENS_4ModeE:
 558               	.LVL47:
 559               	.LFB61:
 156:funsape/peripheral/usart0.cpp **** 
 157:funsape/peripheral/usart0.cpp **** bool_t Usart0::setMode(const Mode mode_p)
 158:funsape/peripheral/usart0.cpp **** {
 560               		.loc 2 158 1 is_stmt 1 view -0
 561               		.cfi_startproc
 562               	/* prologue: function */
 563               	/* frame size = 0 */
 564               	/* stack size = 0 */
 565               	.L__stack_usage = 0
 566               		.loc 2 158 1 is_stmt 0 view .LVU154
 567 0000 E82F      		mov r30,r24
 568 0002 F92F      		mov r31,r25
 159:funsape/peripheral/usart0.cpp ****     // Resets data members
 160:funsape/peripheral/usart0.cpp ****     this->_isInitialized = false;
 569               		.loc 2 160 5 is_stmt 1 view .LVU155
 570               		.loc 2 160 26 is_stmt 0 view .LVU156
 571 0004 8081      		ld r24,Z
 572               	.LVL48:
 573               		.loc 2 160 26 view .LVU157
 574 0006 877F      		andi r24,lo8(~(1<<3))
 575 0008 8083      		st Z,r24
 161:funsape/peripheral/usart0.cpp **** 
 162:funsape/peripheral/usart0.cpp ****     // Checks for errors
 163:funsape/peripheral/usart0.cpp ****     switch(mode_p) {
 576               		.loc 2 163 5 is_stmt 1 view .LVU158
 577 000a 6830      		cpi r22,lo8(8)
 578 000c 00F0      		brlo .L28
 164:funsape/peripheral/usart0.cpp ****     case Usart0::Mode::ASYNCHRONOUS:
 165:funsape/peripheral/usart0.cpp ****     case Usart0::Mode::ASYNCHRONOUS_DOUBLE_SPEED:
 166:funsape/peripheral/usart0.cpp ****     case Usart0::Mode::SYNCHRONOUS_TX_RISING_RX_FALLING:
 167:funsape/peripheral/usart0.cpp ****     case Usart0::Mode::SYNCHRONOUS_TX_FALLING_RX_RISING:
 168:funsape/peripheral/usart0.cpp ****     case Usart0::Mode::MASTER_SPI_MODE_0:
 169:funsape/peripheral/usart0.cpp ****     case Usart0::Mode::MASTER_SPI_MODE_1:
 170:funsape/peripheral/usart0.cpp ****     case Usart0::Mode::MASTER_SPI_MODE_2:
 171:funsape/peripheral/usart0.cpp ****     case Usart0::Mode::MASTER_SPI_MODE_3:
 172:funsape/peripheral/usart0.cpp ****         break;
 173:funsape/peripheral/usart0.cpp ****     default:
 579               		.loc 2 173 5 view .LVU159
 174:funsape/peripheral/usart0.cpp ****         // Returns error
 175:funsape/peripheral/usart0.cpp ****         this->_lastError = Error::USART_MODE_NOT_SUPPORTED;
 580               		.loc 2 175 9 view .LVU160
 581               		.loc 2 175 26 is_stmt 0 view .LVU161
 582 000e 86EB      		ldi r24,lo8(-74)
 583 0010 90E0      		ldi r25,0
 584 0012 9383      		std Z+3,r25
 585 0014 8283      		std Z+2,r24
 176:funsape/peripheral/usart0.cpp ****         return false;
 586               		.loc 2 176 9 is_stmt 1 view .LVU162
 587               		.loc 2 176 16 is_stmt 0 view .LVU163
 588 0016 80E0      		ldi r24,0
 589 0018 0895      		ret
 590               	.L28:
GAS LISTING C:\Users\kenne\AppData\Local\Temp\cc4WHnAx.s 			page 29


 164:funsape/peripheral/usart0.cpp ****     case Usart0::Mode::ASYNCHRONOUS:
 591               		.loc 2 164 5 is_stmt 1 view .LVU164
 165:funsape/peripheral/usart0.cpp ****     case Usart0::Mode::SYNCHRONOUS_TX_RISING_RX_FALLING:
 592               		.loc 2 165 5 view .LVU165
 166:funsape/peripheral/usart0.cpp ****     case Usart0::Mode::SYNCHRONOUS_TX_FALLING_RX_RISING:
 593               		.loc 2 166 5 view .LVU166
 167:funsape/peripheral/usart0.cpp ****     case Usart0::Mode::MASTER_SPI_MODE_0:
 594               		.loc 2 167 5 view .LVU167
 168:funsape/peripheral/usart0.cpp ****     case Usart0::Mode::MASTER_SPI_MODE_1:
 595               		.loc 2 168 5 view .LVU168
 169:funsape/peripheral/usart0.cpp ****     case Usart0::Mode::MASTER_SPI_MODE_2:
 596               		.loc 2 169 5 view .LVU169
 170:funsape/peripheral/usart0.cpp ****     case Usart0::Mode::MASTER_SPI_MODE_3:
 597               		.loc 2 170 5 view .LVU170
 171:funsape/peripheral/usart0.cpp ****         break;
 598               		.loc 2 171 5 view .LVU171
 172:funsape/peripheral/usart0.cpp ****     default:
 599               		.loc 2 172 9 view .LVU172
 177:funsape/peripheral/usart0.cpp ****     }
 178:funsape/peripheral/usart0.cpp **** 
 179:funsape/peripheral/usart0.cpp ****     // Updates class member
 180:funsape/peripheral/usart0.cpp ****     this->_mode = mode_p;
 600               		.loc 2 180 5 view .LVU173
 601               		.loc 2 180 17 is_stmt 0 view .LVU174
 602 001a 6583      		std Z+5,r22
 181:funsape/peripheral/usart0.cpp **** 
 182:funsape/peripheral/usart0.cpp ****     // Returns successfully
 183:funsape/peripheral/usart0.cpp ****     this->_lastError = Error::NONE;
 603               		.loc 2 183 5 is_stmt 1 view .LVU175
 604               		.loc 2 183 22 is_stmt 0 view .LVU176
 605 001c 1382      		std Z+3,__zero_reg__
 606 001e 1282      		std Z+2,__zero_reg__
 184:funsape/peripheral/usart0.cpp ****     return true;
 607               		.loc 2 184 5 is_stmt 1 view .LVU177
 608               		.loc 2 184 12 is_stmt 0 view .LVU178
 609 0020 81E0      		ldi r24,lo8(1)
 610               	/* epilogue start */
 185:funsape/peripheral/usart0.cpp **** }
 611               		.loc 2 185 1 view .LVU179
 612 0022 0895      		ret
 613               		.cfi_endproc
 614               	.LFE61:
 616               		.section	.text._ZN6Usart011setDataSizeENS_8DataSizeE,"ax",@progbits
 617               	.global	_ZN6Usart011setDataSizeENS_8DataSizeE
 619               	_ZN6Usart011setDataSizeENS_8DataSizeE:
 620               	.LVL49:
 621               	.LFB62:
 186:funsape/peripheral/usart0.cpp **** 
 187:funsape/peripheral/usart0.cpp **** bool_t Usart0::setDataSize(const DataSize dataSize_p)
 188:funsape/peripheral/usart0.cpp **** {
 622               		.loc 2 188 1 is_stmt 1 view -0
 623               		.cfi_startproc
 624               	/* prologue: function */
 625               	/* frame size = 0 */
 626               	/* stack size = 0 */
 627               	.L__stack_usage = 0
 628               		.loc 2 188 1 is_stmt 0 view .LVU181
GAS LISTING C:\Users\kenne\AppData\Local\Temp\cc4WHnAx.s 			page 30


 629 0000 E82F      		mov r30,r24
 630 0002 F92F      		mov r31,r25
 189:funsape/peripheral/usart0.cpp ****     // Resets data members
 190:funsape/peripheral/usart0.cpp ****     this->_isInitialized = false;
 631               		.loc 2 190 5 is_stmt 1 view .LVU182
 632               		.loc 2 190 26 is_stmt 0 view .LVU183
 633 0004 8081      		ld r24,Z
 634               	.LVL50:
 635               		.loc 2 190 26 view .LVU184
 636 0006 877F      		andi r24,lo8(~(1<<3))
 637 0008 8083      		st Z,r24
 191:funsape/peripheral/usart0.cpp **** 
 192:funsape/peripheral/usart0.cpp ****     // Checks for errors
 193:funsape/peripheral/usart0.cpp ****     switch(dataSize_p) {
 638               		.loc 2 193 5 is_stmt 1 view .LVU185
 639 000a 6430      		cpi r22,lo8(4)
 640 000c 00F0      		brlo .L31
 641 000e 6730      		cpi r22,lo8(7)
 642 0010 01F0      		breq .L31
 194:funsape/peripheral/usart0.cpp ****     case Usart0::DataSize::DATA_5_BITS:
 195:funsape/peripheral/usart0.cpp ****     case Usart0::DataSize::DATA_6_BITS:
 196:funsape/peripheral/usart0.cpp ****     case Usart0::DataSize::DATA_7_BITS:
 197:funsape/peripheral/usart0.cpp ****     case Usart0::DataSize::DATA_8_BITS:
 198:funsape/peripheral/usart0.cpp ****     case Usart0::DataSize::DATA_9_BITS:
 199:funsape/peripheral/usart0.cpp ****         break;
 200:funsape/peripheral/usart0.cpp ****     default:
 643               		.loc 2 200 5 view .LVU186
 201:funsape/peripheral/usart0.cpp ****         // Returns error
 202:funsape/peripheral/usart0.cpp ****         this->_lastError = Error::USART_DATA_SIZE_NOT_SUPPORTED;
 644               		.loc 2 202 9 view .LVU187
 645               		.loc 2 202 26 is_stmt 0 view .LVU188
 646 0012 82EB      		ldi r24,lo8(-78)
 647 0014 90E0      		ldi r25,0
 648 0016 9383      		std Z+3,r25
 649 0018 8283      		std Z+2,r24
 203:funsape/peripheral/usart0.cpp ****         return false;
 650               		.loc 2 203 9 is_stmt 1 view .LVU189
 651               		.loc 2 203 16 is_stmt 0 view .LVU190
 652 001a 80E0      		ldi r24,0
 653 001c 0895      		ret
 654               	.L31:
 194:funsape/peripheral/usart0.cpp ****     case Usart0::DataSize::DATA_5_BITS:
 655               		.loc 2 194 5 is_stmt 1 view .LVU191
 195:funsape/peripheral/usart0.cpp ****     case Usart0::DataSize::DATA_7_BITS:
 656               		.loc 2 195 5 view .LVU192
 196:funsape/peripheral/usart0.cpp ****     case Usart0::DataSize::DATA_8_BITS:
 657               		.loc 2 196 5 view .LVU193
 197:funsape/peripheral/usart0.cpp ****     case Usart0::DataSize::DATA_9_BITS:
 658               		.loc 2 197 5 view .LVU194
 198:funsape/peripheral/usart0.cpp ****         break;
 659               		.loc 2 198 5 view .LVU195
 199:funsape/peripheral/usart0.cpp ****     default:
 660               		.loc 2 199 9 view .LVU196
 204:funsape/peripheral/usart0.cpp ****     }
 205:funsape/peripheral/usart0.cpp **** 
 206:funsape/peripheral/usart0.cpp ****     // Updates data members
 207:funsape/peripheral/usart0.cpp ****     this->_dataSize = dataSize_p;
GAS LISTING C:\Users\kenne\AppData\Local\Temp\cc4WHnAx.s 			page 31


 661               		.loc 2 207 5 view .LVU197
 662               		.loc 2 207 21 is_stmt 0 view .LVU198
 663 001e 6483      		std Z+4,r22
 208:funsape/peripheral/usart0.cpp **** 
 209:funsape/peripheral/usart0.cpp ****     // Returns successfully
 210:funsape/peripheral/usart0.cpp ****     this->_lastError = Error::NONE;
 664               		.loc 2 210 5 is_stmt 1 view .LVU199
 665               		.loc 2 210 22 is_stmt 0 view .LVU200
 666 0020 1382      		std Z+3,__zero_reg__
 667 0022 1282      		std Z+2,__zero_reg__
 211:funsape/peripheral/usart0.cpp ****     return true;
 668               		.loc 2 211 5 is_stmt 1 view .LVU201
 669               		.loc 2 211 12 is_stmt 0 view .LVU202
 670 0024 81E0      		ldi r24,lo8(1)
 671               	/* epilogue start */
 212:funsape/peripheral/usart0.cpp **** }
 672               		.loc 2 212 1 view .LVU203
 673 0026 0895      		ret
 674               		.cfi_endproc
 675               	.LFE62:
 677               		.section	.text._ZN6Usart011setStopBitsENS_8StopBitsE,"ax",@progbits
 678               	.global	_ZN6Usart011setStopBitsENS_8StopBitsE
 680               	_ZN6Usart011setStopBitsENS_8StopBitsE:
 681               	.LVL51:
 682               	.LFB63:
 213:funsape/peripheral/usart0.cpp **** 
 214:funsape/peripheral/usart0.cpp **** bool_t Usart0::setStopBits(const StopBits stopBits_p)
 215:funsape/peripheral/usart0.cpp **** {
 683               		.loc 2 215 1 is_stmt 1 view -0
 684               		.cfi_startproc
 685               	/* prologue: function */
 686               	/* frame size = 0 */
 687               	/* stack size = 0 */
 688               	.L__stack_usage = 0
 689               		.loc 2 215 1 is_stmt 0 view .LVU205
 690 0000 E82F      		mov r30,r24
 691 0002 F92F      		mov r31,r25
 216:funsape/peripheral/usart0.cpp ****     // Resets data members
 217:funsape/peripheral/usart0.cpp ****     this->_isInitialized = false;
 692               		.loc 2 217 5 is_stmt 1 view .LVU206
 693               		.loc 2 217 26 is_stmt 0 view .LVU207
 694 0004 8081      		ld r24,Z
 695               	.LVL52:
 696               		.loc 2 217 26 view .LVU208
 697 0006 877F      		andi r24,lo8(~(1<<3))
 698 0008 8083      		st Z,r24
 218:funsape/peripheral/usart0.cpp **** 
 219:funsape/peripheral/usart0.cpp ****     // Checks for errors
 220:funsape/peripheral/usart0.cpp ****     switch(stopBits_p) {
 699               		.loc 2 220 5 is_stmt 1 view .LVU209
 700 000a 6230      		cpi r22,lo8(2)
 701 000c 00F0      		brlo .L34
 221:funsape/peripheral/usart0.cpp ****     case Usart0::StopBits::SINGLE:
 222:funsape/peripheral/usart0.cpp ****     case Usart0::StopBits::DOUBLE:
 223:funsape/peripheral/usart0.cpp ****         break;
 224:funsape/peripheral/usart0.cpp ****     default:
 702               		.loc 2 224 5 view .LVU210
GAS LISTING C:\Users\kenne\AppData\Local\Temp\cc4WHnAx.s 			page 32


 225:funsape/peripheral/usart0.cpp ****         // Returns error
 226:funsape/peripheral/usart0.cpp ****         this->_lastError = Error::USART_STOP_BIT_NOT_SUPPORTED;
 703               		.loc 2 226 9 view .LVU211
 704               		.loc 2 226 26 is_stmt 0 view .LVU212
 705 000e 85EB      		ldi r24,lo8(-75)
 706 0010 90E0      		ldi r25,0
 707 0012 9383      		std Z+3,r25
 708 0014 8283      		std Z+2,r24
 227:funsape/peripheral/usart0.cpp ****         return false;
 709               		.loc 2 227 9 is_stmt 1 view .LVU213
 710               		.loc 2 227 16 is_stmt 0 view .LVU214
 711 0016 80E0      		ldi r24,0
 712 0018 0895      		ret
 713               	.L34:
 221:funsape/peripheral/usart0.cpp ****     case Usart0::StopBits::SINGLE:
 714               		.loc 2 221 5 is_stmt 1 view .LVU215
 222:funsape/peripheral/usart0.cpp ****         break;
 715               		.loc 2 222 5 view .LVU216
 223:funsape/peripheral/usart0.cpp ****     default:
 716               		.loc 2 223 9 view .LVU217
 228:funsape/peripheral/usart0.cpp ****     }
 229:funsape/peripheral/usart0.cpp **** 
 230:funsape/peripheral/usart0.cpp ****     // Updates data members
 231:funsape/peripheral/usart0.cpp ****     this->_stopBits = stopBits_p;
 717               		.loc 2 231 5 view .LVU218
 718               		.loc 2 231 21 is_stmt 0 view .LVU219
 719 001a 6387      		std Z+11,r22
 232:funsape/peripheral/usart0.cpp **** 
 233:funsape/peripheral/usart0.cpp ****     // Returns successfully
 234:funsape/peripheral/usart0.cpp ****     this->_lastError = Error::NONE;
 720               		.loc 2 234 5 is_stmt 1 view .LVU220
 721               		.loc 2 234 22 is_stmt 0 view .LVU221
 722 001c 1382      		std Z+3,__zero_reg__
 723 001e 1282      		std Z+2,__zero_reg__
 235:funsape/peripheral/usart0.cpp ****     return true;
 724               		.loc 2 235 5 is_stmt 1 view .LVU222
 725               		.loc 2 235 12 is_stmt 0 view .LVU223
 726 0020 81E0      		ldi r24,lo8(1)
 727               	/* epilogue start */
 236:funsape/peripheral/usart0.cpp **** }
 728               		.loc 2 236 1 view .LVU224
 729 0022 0895      		ret
 730               		.cfi_endproc
 731               	.LFE63:
 733               		.section	.text._ZN6Usart09setParityENS_6ParityE,"ax",@progbits
 734               	.global	_ZN6Usart09setParityENS_6ParityE
 736               	_ZN6Usart09setParityENS_6ParityE:
 737               	.LVL53:
 738               	.LFB64:
 237:funsape/peripheral/usart0.cpp **** 
 238:funsape/peripheral/usart0.cpp **** bool_t Usart0::setParity(const Parity parity_p)
 239:funsape/peripheral/usart0.cpp **** {
 739               		.loc 2 239 1 is_stmt 1 view -0
 740               		.cfi_startproc
 741               	/* prologue: function */
 742               	/* frame size = 0 */
 743               	/* stack size = 0 */
GAS LISTING C:\Users\kenne\AppData\Local\Temp\cc4WHnAx.s 			page 33


 744               	.L__stack_usage = 0
 745               		.loc 2 239 1 is_stmt 0 view .LVU226
 746 0000 E82F      		mov r30,r24
 747 0002 F92F      		mov r31,r25
 240:funsape/peripheral/usart0.cpp ****     // Resets data members
 241:funsape/peripheral/usart0.cpp ****     this->_isInitialized = false;
 748               		.loc 2 241 5 is_stmt 1 view .LVU227
 749               		.loc 2 241 26 is_stmt 0 view .LVU228
 750 0004 8081      		ld r24,Z
 751               	.LVL54:
 752               		.loc 2 241 26 view .LVU229
 753 0006 877F      		andi r24,lo8(~(1<<3))
 754 0008 8083      		st Z,r24
 242:funsape/peripheral/usart0.cpp **** 
 243:funsape/peripheral/usart0.cpp ****     // Checks for errors
 244:funsape/peripheral/usart0.cpp ****     switch(parity_p) {
 755               		.loc 2 244 5 is_stmt 1 view .LVU230
 756 000a 6330      		cpi r22,lo8(3)
 757 000c 00F0      		brlo .L37
 245:funsape/peripheral/usart0.cpp ****     case Usart0::Parity::NONE:
 246:funsape/peripheral/usart0.cpp ****     case Usart0::Parity::ODD:
 247:funsape/peripheral/usart0.cpp ****     case Usart0::Parity::EVEN:
 248:funsape/peripheral/usart0.cpp ****         break;
 249:funsape/peripheral/usart0.cpp ****     default:
 758               		.loc 2 249 5 view .LVU231
 250:funsape/peripheral/usart0.cpp ****         // Returns error
 251:funsape/peripheral/usart0.cpp ****         this->_lastError = Error::USART_PARITY_NOT_SUPPORTED;
 759               		.loc 2 251 9 view .LVU232
 760               		.loc 2 251 26 is_stmt 0 view .LVU233
 761 000e 84EB      		ldi r24,lo8(-76)
 762 0010 90E0      		ldi r25,0
 763 0012 9383      		std Z+3,r25
 764 0014 8283      		std Z+2,r24
 252:funsape/peripheral/usart0.cpp ****         return false;
 765               		.loc 2 252 9 is_stmt 1 view .LVU234
 766               		.loc 2 252 16 is_stmt 0 view .LVU235
 767 0016 80E0      		ldi r24,0
 768 0018 0895      		ret
 769               	.L37:
 245:funsape/peripheral/usart0.cpp ****     case Usart0::Parity::NONE:
 770               		.loc 2 245 5 is_stmt 1 view .LVU236
 246:funsape/peripheral/usart0.cpp ****     case Usart0::Parity::EVEN:
 771               		.loc 2 246 5 view .LVU237
 247:funsape/peripheral/usart0.cpp ****         break;
 772               		.loc 2 247 5 view .LVU238
 248:funsape/peripheral/usart0.cpp ****     default:
 773               		.loc 2 248 9 view .LVU239
 253:funsape/peripheral/usart0.cpp ****     }
 254:funsape/peripheral/usart0.cpp **** 
 255:funsape/peripheral/usart0.cpp ****     // Updates data members
 256:funsape/peripheral/usart0.cpp ****     this->_parity = parity_p;
 774               		.loc 2 256 5 view .LVU240
 775               		.loc 2 256 19 is_stmt 0 view .LVU241
 776 001a 6287      		std Z+10,r22
 257:funsape/peripheral/usart0.cpp **** 
 258:funsape/peripheral/usart0.cpp ****     // Returns successfully
 259:funsape/peripheral/usart0.cpp ****     this->_lastError = Error::NONE;
GAS LISTING C:\Users\kenne\AppData\Local\Temp\cc4WHnAx.s 			page 34


 777               		.loc 2 259 5 is_stmt 1 view .LVU242
 778               		.loc 2 259 22 is_stmt 0 view .LVU243
 779 001c 1382      		std Z+3,__zero_reg__
 780 001e 1282      		std Z+2,__zero_reg__
 260:funsape/peripheral/usart0.cpp ****     return true;
 781               		.loc 2 260 5 is_stmt 1 view .LVU244
 782               		.loc 2 260 12 is_stmt 0 view .LVU245
 783 0020 81E0      		ldi r24,lo8(1)
 784               	/* epilogue start */
 261:funsape/peripheral/usart0.cpp **** }
 785               		.loc 2 261 1 view .LVU246
 786 0022 0895      		ret
 787               		.cfi_endproc
 788               	.LFE64:
 790               		.section	.text._ZN6Usart011setBaudRateENS_8BaudRateE,"ax",@progbits
 791               	.global	_ZN6Usart011setBaudRateENS_8BaudRateE
 793               	_ZN6Usart011setBaudRateENS_8BaudRateE:
 794               	.LVL55:
 795               	.LFB65:
 262:funsape/peripheral/usart0.cpp **** 
 263:funsape/peripheral/usart0.cpp **** bool_t Usart0::setBaudRate(const BaudRate baudRate_p)
 264:funsape/peripheral/usart0.cpp **** {
 796               		.loc 2 264 1 is_stmt 1 view -0
 797               		.cfi_startproc
 798               	/* prologue: function */
 799               	/* frame size = 0 */
 800               	/* stack size = 0 */
 801               	.L__stack_usage = 0
 802               		.loc 2 264 1 is_stmt 0 view .LVU248
 803 0000 E82F      		mov r30,r24
 804 0002 F92F      		mov r31,r25
 805 0004 842F      		mov r24,r20
 806               	.LVL56:
 807               		.loc 2 264 1 view .LVU249
 808 0006 952F      		mov r25,r21
 809 0008 A62F      		mov r26,r22
 810 000a B72F      		mov r27,r23
 265:funsape/peripheral/usart0.cpp ****     // Resets data members
 266:funsape/peripheral/usart0.cpp ****     this->_isInitialized = false;
 811               		.loc 2 266 5 is_stmt 1 view .LVU250
 812               		.loc 2 266 26 is_stmt 0 view .LVU251
 813 000c 2081      		ld r18,Z
 814 000e 277F      		andi r18,lo8(~(1<<3))
 815 0010 2083      		st Z,r18
 267:funsape/peripheral/usart0.cpp **** 
 268:funsape/peripheral/usart0.cpp ****     // Checks for errors
 269:funsape/peripheral/usart0.cpp ****     switch(baudRate_p) {
 816               		.loc 2 269 5 is_stmt 1 view .LVU252
 817 0012 8038      		cpi r24,-128
 818 0014 20E7      		ldi r18,112
 819 0016 9207      		cpc r25,r18
 820 0018 A105      		cpc r26,__zero_reg__
 821 001a B105      		cpc r27,__zero_reg__
 822 001c 01F0      		breq .L40
 823 001e 00F0      		brlo .+2
 824 0020 00C0      		rjmp .L41
 825 0022 803C      		cpi r24,-64
GAS LISTING C:\Users\kenne\AppData\Local\Temp\cc4WHnAx.s 			page 35


 826 0024 22E1      		ldi r18,18
 827 0026 9207      		cpc r25,r18
 828 0028 A105      		cpc r26,__zero_reg__
 829 002a B105      		cpc r27,__zero_reg__
 830 002c 01F0      		breq .L40
 831 002e 00F4      		brsh .L42
 832 0030 8830      		cpi r24,8
 833 0032 27E0      		ldi r18,7
 834 0034 9207      		cpc r25,r18
 835 0036 A105      		cpc r26,__zero_reg__
 836 0038 B105      		cpc r27,__zero_reg__
 837 003a 01F0      		breq .L40
 838 003c 00F0      		brlo .L47
 839 003e 8036      		cpi r24,96
 840 0040 29E0      		ldi r18,9
 841 0042 9207      		cpc r25,r18
 842 0044 A105      		cpc r26,__zero_reg__
 843 0046 B105      		cpc r27,__zero_reg__
 844 0048 01F4      		brne .L44
 845 004a 00C0      		rjmp .L40
 846               	.L47:
 847 004c 8835      		cpi r24,88
 848 004e 22E0      		ldi r18,2
 849 0050 9207      		cpc r25,r18
 850 0052 A105      		cpc r26,__zero_reg__
 851 0054 B105      		cpc r27,__zero_reg__
 852 0056 01F0      		breq .L40
 853 0058 803B      		cpi r24,-80
 854 005a 24E0      		ldi r18,4
 855 005c 9207      		cpc r25,r18
 856 005e A105      		cpc r26,__zero_reg__
 857 0060 B105      		cpc r27,__zero_reg__
 858 0062 01F4      		brne .L44
 859               	.L40:
 270:funsape/peripheral/usart0.cpp ****     case Usart0::BaudRate::BAUD_RATE_600:
 860               		.loc 2 270 5 view .LVU253
 271:funsape/peripheral/usart0.cpp ****     case Usart0::BaudRate::BAUD_RATE_1200:
 861               		.loc 2 271 5 view .LVU254
 272:funsape/peripheral/usart0.cpp ****     case Usart0::BaudRate::BAUD_RATE_1800:
 862               		.loc 2 272 5 view .LVU255
 273:funsape/peripheral/usart0.cpp ****     case Usart0::BaudRate::BAUD_RATE_2400:
 863               		.loc 2 273 5 view .LVU256
 274:funsape/peripheral/usart0.cpp ****     case Usart0::BaudRate::BAUD_RATE_4800:
 864               		.loc 2 274 5 view .LVU257
 275:funsape/peripheral/usart0.cpp ****     case Usart0::BaudRate::BAUD_RATE_9600:
 865               		.loc 2 275 5 view .LVU258
 276:funsape/peripheral/usart0.cpp ****     case Usart0::BaudRate::BAUD_RATE_14400:
 866               		.loc 2 276 5 view .LVU259
 277:funsape/peripheral/usart0.cpp ****     case Usart0::BaudRate::BAUD_RATE_19200:
 867               		.loc 2 277 5 view .LVU260
 278:funsape/peripheral/usart0.cpp ****     case Usart0::BaudRate::BAUD_RATE_28800:
 868               		.loc 2 278 5 view .LVU261
 279:funsape/peripheral/usart0.cpp ****     case Usart0::BaudRate::BAUD_RATE_38400:
 869               		.loc 2 279 5 view .LVU262
 280:funsape/peripheral/usart0.cpp ****     case Usart0::BaudRate::BAUD_RATE_56000:
 870               		.loc 2 280 5 view .LVU263
 281:funsape/peripheral/usart0.cpp ****     case Usart0::BaudRate::BAUD_RATE_57600:
GAS LISTING C:\Users\kenne\AppData\Local\Temp\cc4WHnAx.s 			page 36


 871               		.loc 2 281 5 view .LVU264
 282:funsape/peripheral/usart0.cpp ****     case Usart0::BaudRate::BAUD_RATE_115200:
 872               		.loc 2 282 5 view .LVU265
 283:funsape/peripheral/usart0.cpp ****     case Usart0::BaudRate::BAUD_RATE_128000:
 873               		.loc 2 283 5 view .LVU266
 284:funsape/peripheral/usart0.cpp ****     case Usart0::BaudRate::BAUD_RATE_230400:
 874               		.loc 2 284 5 view .LVU267
 285:funsape/peripheral/usart0.cpp ****     case Usart0::BaudRate::BAUD_RATE_256000:
 875               		.loc 2 285 5 view .LVU268
 286:funsape/peripheral/usart0.cpp ****         break;
 876               		.loc 2 286 9 view .LVU269
 287:funsape/peripheral/usart0.cpp ****     default:
 288:funsape/peripheral/usart0.cpp ****         // Returns error
 289:funsape/peripheral/usart0.cpp ****         this->_lastError = Error::USART_BAUD_RATE_NOT_SUPPORTED;
 290:funsape/peripheral/usart0.cpp ****         return false;
 291:funsape/peripheral/usart0.cpp ****     }
 292:funsape/peripheral/usart0.cpp **** 
 293:funsape/peripheral/usart0.cpp ****     // Updates data members
 294:funsape/peripheral/usart0.cpp ****     this->_baudRate = baudRate_p;
 877               		.loc 2 294 5 view .LVU270
 878               		.loc 2 294 21 is_stmt 0 view .LVU271
 879 0064 8683      		std Z+6,r24
 880 0066 9783      		std Z+7,r25
 881 0068 A087      		std Z+8,r26
 882 006a B187      		std Z+9,r27
 295:funsape/peripheral/usart0.cpp **** 
 296:funsape/peripheral/usart0.cpp ****     // Returns successfully
 297:funsape/peripheral/usart0.cpp ****     this->_lastError = Error::NONE;
 883               		.loc 2 297 5 is_stmt 1 view .LVU272
 884               		.loc 2 297 22 is_stmt 0 view .LVU273
 885 006c 1382      		std Z+3,__zero_reg__
 886 006e 1282      		std Z+2,__zero_reg__
 298:funsape/peripheral/usart0.cpp ****     return true;
 887               		.loc 2 298 5 is_stmt 1 view .LVU274
 888               		.loc 2 298 12 is_stmt 0 view .LVU275
 889 0070 81E0      		ldi r24,lo8(1)
 890               	/* epilogue start */
 299:funsape/peripheral/usart0.cpp **** }
 891               		.loc 2 299 1 view .LVU276
 892 0072 0895      		ret
 893               	.L42:
 269:funsape/peripheral/usart0.cpp ****     case Usart0::BaudRate::BAUD_RATE_600:
 894               		.loc 2 269 5 view .LVU277
 895 0074 8034      		cpi r24,64
 896 0076 28E3      		ldi r18,56
 897 0078 9207      		cpc r25,r18
 898 007a A105      		cpc r26,__zero_reg__
 899 007c B105      		cpc r27,__zero_reg__
 900 007e 01F0      		breq .L40
 901 0080 8115      		cp r24,__zero_reg__
 902 0082 2BE4      		ldi r18,75
 903 0084 9207      		cpc r25,r18
 904 0086 A105      		cpc r26,__zero_reg__
 905 0088 B105      		cpc r27,__zero_reg__
 906 008a 01F0      		breq .L40
 907 008c 8038      		cpi r24,-128
 908 008e 25E2      		ldi r18,37
GAS LISTING C:\Users\kenne\AppData\Local\Temp\cc4WHnAx.s 			page 37


 909 0090 9207      		cpc r25,r18
 910 0092 A105      		cpc r26,__zero_reg__
 911 0094 B105      		cpc r27,__zero_reg__
 912 0096 01F0      		breq .L40
 913               	.L44:
 287:funsape/peripheral/usart0.cpp ****         // Returns error
 914               		.loc 2 287 5 is_stmt 1 view .LVU278
 289:funsape/peripheral/usart0.cpp ****         return false;
 915               		.loc 2 289 9 view .LVU279
 289:funsape/peripheral/usart0.cpp ****         return false;
 916               		.loc 2 289 26 is_stmt 0 view .LVU280
 917 0098 80EB      		ldi r24,lo8(-80)
 918 009a 90E0      		ldi r25,0
 919 009c 9383      		std Z+3,r25
 920 009e 8283      		std Z+2,r24
 290:funsape/peripheral/usart0.cpp ****     }
 921               		.loc 2 290 9 is_stmt 1 view .LVU281
 290:funsape/peripheral/usart0.cpp ****     }
 922               		.loc 2 290 16 is_stmt 0 view .LVU282
 923 00a0 80E0      		ldi r24,0
 924 00a2 0895      		ret
 925               	.L41:
 269:funsape/peripheral/usart0.cpp ****     case Usart0::BaudRate::BAUD_RATE_600:
 926               		.loc 2 269 5 view .LVU283
 927 00a4 8115      		cp r24,__zero_reg__
 928 00a6 22EC      		ldi r18,-62
 929 00a8 9207      		cpc r25,r18
 930 00aa 21E0      		ldi r18,1
 931 00ac A207      		cpc r26,r18
 932 00ae B105      		cpc r27,__zero_reg__
 933 00b0 01F0      		breq .L40
 934 00b2 00F0      		brlo .L48
 935 00b4 8115      		cp r24,__zero_reg__
 936 00b6 24E8      		ldi r18,-124
 937 00b8 9207      		cpc r25,r18
 938 00ba 23E0      		ldi r18,3
 939 00bc A207      		cpc r26,r18
 940 00be B105      		cpc r27,__zero_reg__
 941 00c0 01F0      		breq .L40
 942 00c2 8115      		cp r24,__zero_reg__
 943 00c4 28EE      		ldi r18,-24
 944 00c6 9207      		cpc r25,r18
 945 00c8 23E0      		ldi r18,3
 946 00ca A207      		cpc r26,r18
 947 00cc B105      		cpc r27,__zero_reg__
 948 00ce 01F0      		breq .L40
 949 00d0 8115      		cp r24,__zero_reg__
 950 00d2 24EF      		ldi r18,-12
 951 00d4 9207      		cpc r25,r18
 952 00d6 21E0      		ldi r18,1
 953 00d8 A207      		cpc r26,r18
 954 00da B105      		cpc r27,__zero_reg__
 955 00dc 01F4      		brne .L44
 956 00de 00C0      		rjmp .L40
 957               	.L48:
 958 00e0 803C      		cpi r24,-64
 959 00e2 2AED      		ldi r18,-38
GAS LISTING C:\Users\kenne\AppData\Local\Temp\cc4WHnAx.s 			page 38


 960 00e4 9207      		cpc r25,r18
 961 00e6 A105      		cpc r26,__zero_reg__
 962 00e8 B105      		cpc r27,__zero_reg__
 963 00ea 01F4      		brne .+2
 964 00ec 00C0      		rjmp .L40
 965 00ee 8115      		cp r24,__zero_reg__
 966 00f0 21EE      		ldi r18,-31
 967 00f2 9207      		cpc r25,r18
 968 00f4 A105      		cpc r26,__zero_reg__
 969 00f6 B105      		cpc r27,__zero_reg__
 970 00f8 01F4      		brne .+2
 971 00fa 00C0      		rjmp .L40
 972 00fc 8115      		cp r24,__zero_reg__
 973 00fe 26E9      		ldi r18,-106
 974 0100 9207      		cpc r25,r18
 975 0102 A105      		cpc r26,__zero_reg__
 976 0104 B105      		cpc r27,__zero_reg__
 977 0106 01F4      		brne .L44
 978 0108 00C0      		rjmp .L40
 979               		.cfi_endproc
 980               	.LFE65:
 982               		.section	.text._ZN6Usart014setFrameFormatENS_11FrameFormatE,"ax",@progbits
 983               	.global	_ZN6Usart014setFrameFormatENS_11FrameFormatE
 985               	_ZN6Usart014setFrameFormatENS_11FrameFormatE:
 986               	.LVL57:
 987               	.LFB66:
 300:funsape/peripheral/usart0.cpp **** 
 301:funsape/peripheral/usart0.cpp **** bool_t Usart0::setFrameFormat(const FrameFormat frameFormat_p)
 302:funsape/peripheral/usart0.cpp **** {
 988               		.loc 2 302 1 is_stmt 1 view -0
 989               		.cfi_startproc
 990               	/* prologue: function */
 991               	/* frame size = 0 */
 992               	/* stack size = 0 */
 993               	.L__stack_usage = 0
 994               		.loc 2 302 1 is_stmt 0 view .LVU285
 995 0000 A82F      		mov r26,r24
 996 0002 B92F      		mov r27,r25
 303:funsape/peripheral/usart0.cpp ****     // Local variables
 304:funsape/peripheral/usart0.cpp ****     uint8_t auxFrame = 0;
 997               		.loc 2 304 5 is_stmt 1 view .LVU286
 998               	.LVL58:
 305:funsape/peripheral/usart0.cpp **** 
 306:funsape/peripheral/usart0.cpp ****     // Resets data members
 307:funsape/peripheral/usart0.cpp ****     this->_isInitialized = false;
 999               		.loc 2 307 5 view .LVU287
 1000               		.loc 2 307 26 is_stmt 0 view .LVU288
 1001 0004 8C91      		ld r24,X
 1002               	.LVL59:
 1003               		.loc 2 307 26 view .LVU289
 1004 0006 877F      		andi r24,lo8(~(1<<3))
 1005 0008 8C93      		st X,r24
 308:funsape/peripheral/usart0.cpp **** 
 309:funsape/peripheral/usart0.cpp ****     // Checks for errors
 310:funsape/peripheral/usart0.cpp ****     switch(frameFormat_p) {
 1006               		.loc 2 310 5 is_stmt 1 view .LVU290
 1007 000a EFEA      		ldi r30,lo8(-81)
GAS LISTING C:\Users\kenne\AppData\Local\Temp\cc4WHnAx.s 			page 39


 1008 000c E60F      		add r30,r22
 1009 000e EA34      		cpi r30,lo8(74)
 1010 0010 00F4      		brsh .L50
 1011 0012 F0E0      		ldi r31,0
 1012 0014 E050      		subi r30,lo8(-(gs(.L52)))
 1013 0016 F040      		sbci r31,hi8(-(gs(.L52)))
 1014 0018 0C94 0000 		jmp __tablejump2__
 1015               		.section	.jumptables.gcc._ZN6Usart014setFrameFormatENS_11FrameFormatE,"a",@progbits
 1016               		.p2align	1
 1017               	.L52:
 1018 0000 0000      		.word gs(.L51)
 1019 0002 0000      		.word gs(.L51)
 1020 0004 0000      		.word gs(.L50)
 1021 0006 0000      		.word gs(.L50)
 1022 0008 0000      		.word gs(.L51)
 1023 000a 0000      		.word gs(.L51)
 1024 000c 0000      		.word gs(.L50)
 1025 000e 0000      		.word gs(.L50)
 1026 0010 0000      		.word gs(.L51)
 1027 0012 0000      		.word gs(.L51)
 1028 0014 0000      		.word gs(.L50)
 1029 0016 0000      		.word gs(.L50)
 1030 0018 0000      		.word gs(.L50)
 1031 001a 0000      		.word gs(.L50)
 1032 001c 0000      		.word gs(.L50)
 1033 001e 0000      		.word gs(.L50)
 1034 0020 0000      		.word gs(.L51)
 1035 0022 0000      		.word gs(.L51)
 1036 0024 0000      		.word gs(.L50)
 1037 0026 0000      		.word gs(.L50)
 1038 0028 0000      		.word gs(.L51)
 1039 002a 0000      		.word gs(.L51)
 1040 002c 0000      		.word gs(.L50)
 1041 002e 0000      		.word gs(.L50)
 1042 0030 0000      		.word gs(.L51)
 1043 0032 0000      		.word gs(.L51)
 1044 0034 0000      		.word gs(.L50)
 1045 0036 0000      		.word gs(.L50)
 1046 0038 0000      		.word gs(.L50)
 1047 003a 0000      		.word gs(.L50)
 1048 003c 0000      		.word gs(.L50)
 1049 003e 0000      		.word gs(.L50)
 1050 0040 0000      		.word gs(.L51)
 1051 0042 0000      		.word gs(.L51)
 1052 0044 0000      		.word gs(.L50)
 1053 0046 0000      		.word gs(.L50)
 1054 0048 0000      		.word gs(.L51)
 1055 004a 0000      		.word gs(.L51)
 1056 004c 0000      		.word gs(.L50)
 1057 004e 0000      		.word gs(.L50)
 1058 0050 0000      		.word gs(.L51)
 1059 0052 0000      		.word gs(.L51)
 1060 0054 0000      		.word gs(.L50)
 1061 0056 0000      		.word gs(.L50)
 1062 0058 0000      		.word gs(.L50)
 1063 005a 0000      		.word gs(.L50)
 1064 005c 0000      		.word gs(.L50)
GAS LISTING C:\Users\kenne\AppData\Local\Temp\cc4WHnAx.s 			page 40


 1065 005e 0000      		.word gs(.L50)
 1066 0060 0000      		.word gs(.L51)
 1067 0062 0000      		.word gs(.L51)
 1068 0064 0000      		.word gs(.L50)
 1069 0066 0000      		.word gs(.L50)
 1070 0068 0000      		.word gs(.L51)
 1071 006a 0000      		.word gs(.L51)
 1072 006c 0000      		.word gs(.L50)
 1073 006e 0000      		.word gs(.L50)
 1074 0070 0000      		.word gs(.L51)
 1075 0072 0000      		.word gs(.L51)
 1076 0074 0000      		.word gs(.L50)
 1077 0076 0000      		.word gs(.L50)
 1078 0078 0000      		.word gs(.L50)
 1079 007a 0000      		.word gs(.L50)
 1080 007c 0000      		.word gs(.L50)
 1081 007e 0000      		.word gs(.L50)
 1082 0080 0000      		.word gs(.L51)
 1083 0082 0000      		.word gs(.L51)
 1084 0084 0000      		.word gs(.L50)
 1085 0086 0000      		.word gs(.L50)
 1086 0088 0000      		.word gs(.L51)
 1087 008a 0000      		.word gs(.L51)
 1088 008c 0000      		.word gs(.L50)
 1089 008e 0000      		.word gs(.L50)
 1090 0090 0000      		.word gs(.L51)
 1091 0092 0000      		.word gs(.L51)
 1092               		.section	.text._ZN6Usart014setFrameFormatENS_11FrameFormatE
 1093               	.L50:
 311:funsape/peripheral/usart0.cpp ****     case Usart0::FrameFormat::FRAME_FORMAT_8_N_1:
 312:funsape/peripheral/usart0.cpp ****     case Usart0::FrameFormat::FRAME_FORMAT_8_O_1:
 313:funsape/peripheral/usart0.cpp ****     case Usart0::FrameFormat::FRAME_FORMAT_8_E_1:
 314:funsape/peripheral/usart0.cpp ****     case Usart0::FrameFormat::FRAME_FORMAT_8_N_2:
 315:funsape/peripheral/usart0.cpp ****     case Usart0::FrameFormat::FRAME_FORMAT_8_O_2:
 316:funsape/peripheral/usart0.cpp ****     case Usart0::FrameFormat::FRAME_FORMAT_8_E_2:
 317:funsape/peripheral/usart0.cpp ****     case Usart0::FrameFormat::FRAME_FORMAT_9_N_1:
 318:funsape/peripheral/usart0.cpp ****     case Usart0::FrameFormat::FRAME_FORMAT_9_O_1:
 319:funsape/peripheral/usart0.cpp ****     case Usart0::FrameFormat::FRAME_FORMAT_9_E_1:
 320:funsape/peripheral/usart0.cpp ****     case Usart0::FrameFormat::FRAME_FORMAT_9_N_2:
 321:funsape/peripheral/usart0.cpp ****     case Usart0::FrameFormat::FRAME_FORMAT_9_O_2:
 322:funsape/peripheral/usart0.cpp ****     case Usart0::FrameFormat::FRAME_FORMAT_9_E_2:
 323:funsape/peripheral/usart0.cpp ****     case Usart0::FrameFormat::FRAME_FORMAT_5_N_1:
 324:funsape/peripheral/usart0.cpp ****     case Usart0::FrameFormat::FRAME_FORMAT_5_O_1:
 325:funsape/peripheral/usart0.cpp ****     case Usart0::FrameFormat::FRAME_FORMAT_5_E_1:
 326:funsape/peripheral/usart0.cpp ****     case Usart0::FrameFormat::FRAME_FORMAT_5_N_2:
 327:funsape/peripheral/usart0.cpp ****     case Usart0::FrameFormat::FRAME_FORMAT_5_O_2:
 328:funsape/peripheral/usart0.cpp ****     case Usart0::FrameFormat::FRAME_FORMAT_5_E_2:
 329:funsape/peripheral/usart0.cpp ****     case Usart0::FrameFormat::FRAME_FORMAT_6_N_1:
 330:funsape/peripheral/usart0.cpp ****     case Usart0::FrameFormat::FRAME_FORMAT_6_O_1:
 331:funsape/peripheral/usart0.cpp ****     case Usart0::FrameFormat::FRAME_FORMAT_6_E_1:
 332:funsape/peripheral/usart0.cpp ****     case Usart0::FrameFormat::FRAME_FORMAT_6_N_2:
 333:funsape/peripheral/usart0.cpp ****     case Usart0::FrameFormat::FRAME_FORMAT_6_O_2:
 334:funsape/peripheral/usart0.cpp ****     case Usart0::FrameFormat::FRAME_FORMAT_6_E_2:
 335:funsape/peripheral/usart0.cpp ****     case Usart0::FrameFormat::FRAME_FORMAT_7_N_1:
 336:funsape/peripheral/usart0.cpp ****     case Usart0::FrameFormat::FRAME_FORMAT_7_O_1:
 337:funsape/peripheral/usart0.cpp ****     case Usart0::FrameFormat::FRAME_FORMAT_7_E_1:
 338:funsape/peripheral/usart0.cpp ****     case Usart0::FrameFormat::FRAME_FORMAT_7_N_2:
GAS LISTING C:\Users\kenne\AppData\Local\Temp\cc4WHnAx.s 			page 41


 339:funsape/peripheral/usart0.cpp ****     case Usart0::FrameFormat::FRAME_FORMAT_7_O_2:
 340:funsape/peripheral/usart0.cpp ****     case Usart0::FrameFormat::FRAME_FORMAT_7_E_2:
 341:funsape/peripheral/usart0.cpp ****         break;
 342:funsape/peripheral/usart0.cpp ****     default:
 1094               		.loc 2 342 5 view .LVU291
 343:funsape/peripheral/usart0.cpp ****         // Returns error
 344:funsape/peripheral/usart0.cpp ****         this->_lastError = Error::USART_FRAME_FORMAT_NOT_SUPPORTED;
 1095               		.loc 2 344 9 view .LVU292
 1096               		.loc 2 344 26 is_stmt 0 view .LVU293
 1097 001c 83EB      		ldi r24,lo8(-77)
 1098 001e 90E0      		ldi r25,0
 1099 0020 1396      		adiw r26,2+1
 1100 0022 9C93      		st X,r25
 1101 0024 8E93      		st -X,r24
 1102 0026 1297      		sbiw r26,2
 345:funsape/peripheral/usart0.cpp ****         return false;
 1103               		.loc 2 345 9 is_stmt 1 view .LVU294
 1104               		.loc 2 345 16 is_stmt 0 view .LVU295
 1105 0028 80E0      		ldi r24,0
 1106 002a 0895      		ret
 1107               	.L51:
 311:funsape/peripheral/usart0.cpp ****     case Usart0::FrameFormat::FRAME_FORMAT_8_N_1:
 1108               		.loc 2 311 5 is_stmt 1 view .LVU296
 312:funsape/peripheral/usart0.cpp ****     case Usart0::FrameFormat::FRAME_FORMAT_8_E_1:
 1109               		.loc 2 312 5 view .LVU297
 313:funsape/peripheral/usart0.cpp ****     case Usart0::FrameFormat::FRAME_FORMAT_8_N_2:
 1110               		.loc 2 313 5 view .LVU298
 314:funsape/peripheral/usart0.cpp ****     case Usart0::FrameFormat::FRAME_FORMAT_8_O_2:
 1111               		.loc 2 314 5 view .LVU299
 315:funsape/peripheral/usart0.cpp ****     case Usart0::FrameFormat::FRAME_FORMAT_8_E_2:
 1112               		.loc 2 315 5 view .LVU300
 316:funsape/peripheral/usart0.cpp ****     case Usart0::FrameFormat::FRAME_FORMAT_9_N_1:
 1113               		.loc 2 316 5 view .LVU301
 317:funsape/peripheral/usart0.cpp ****     case Usart0::FrameFormat::FRAME_FORMAT_9_O_1:
 1114               		.loc 2 317 5 view .LVU302
 318:funsape/peripheral/usart0.cpp ****     case Usart0::FrameFormat::FRAME_FORMAT_9_E_1:
 1115               		.loc 2 318 5 view .LVU303
 319:funsape/peripheral/usart0.cpp ****     case Usart0::FrameFormat::FRAME_FORMAT_9_N_2:
 1116               		.loc 2 319 5 view .LVU304
 320:funsape/peripheral/usart0.cpp ****     case Usart0::FrameFormat::FRAME_FORMAT_9_O_2:
 1117               		.loc 2 320 5 view .LVU305
 321:funsape/peripheral/usart0.cpp ****     case Usart0::FrameFormat::FRAME_FORMAT_9_E_2:
 1118               		.loc 2 321 5 view .LVU306
 322:funsape/peripheral/usart0.cpp ****     case Usart0::FrameFormat::FRAME_FORMAT_5_N_1:
 1119               		.loc 2 322 5 view .LVU307
 323:funsape/peripheral/usart0.cpp ****     case Usart0::FrameFormat::FRAME_FORMAT_5_O_1:
 1120               		.loc 2 323 5 view .LVU308
 324:funsape/peripheral/usart0.cpp ****     case Usart0::FrameFormat::FRAME_FORMAT_5_E_1:
 1121               		.loc 2 324 5 view .LVU309
 325:funsape/peripheral/usart0.cpp ****     case Usart0::FrameFormat::FRAME_FORMAT_5_N_2:
 1122               		.loc 2 325 5 view .LVU310
 326:funsape/peripheral/usart0.cpp ****     case Usart0::FrameFormat::FRAME_FORMAT_5_O_2:
 1123               		.loc 2 326 5 view .LVU311
 327:funsape/peripheral/usart0.cpp ****     case Usart0::FrameFormat::FRAME_FORMAT_5_E_2:
 1124               		.loc 2 327 5 view .LVU312
 328:funsape/peripheral/usart0.cpp ****     case Usart0::FrameFormat::FRAME_FORMAT_6_N_1:
 1125               		.loc 2 328 5 view .LVU313
GAS LISTING C:\Users\kenne\AppData\Local\Temp\cc4WHnAx.s 			page 42


 329:funsape/peripheral/usart0.cpp ****     case Usart0::FrameFormat::FRAME_FORMAT_6_O_1:
 1126               		.loc 2 329 5 view .LVU314
 330:funsape/peripheral/usart0.cpp ****     case Usart0::FrameFormat::FRAME_FORMAT_6_E_1:
 1127               		.loc 2 330 5 view .LVU315
 331:funsape/peripheral/usart0.cpp ****     case Usart0::FrameFormat::FRAME_FORMAT_6_N_2:
 1128               		.loc 2 331 5 view .LVU316
 332:funsape/peripheral/usart0.cpp ****     case Usart0::FrameFormat::FRAME_FORMAT_6_O_2:
 1129               		.loc 2 332 5 view .LVU317
 333:funsape/peripheral/usart0.cpp ****     case Usart0::FrameFormat::FRAME_FORMAT_6_E_2:
 1130               		.loc 2 333 5 view .LVU318
 334:funsape/peripheral/usart0.cpp ****     case Usart0::FrameFormat::FRAME_FORMAT_7_N_1:
 1131               		.loc 2 334 5 view .LVU319
 335:funsape/peripheral/usart0.cpp ****     case Usart0::FrameFormat::FRAME_FORMAT_7_O_1:
 1132               		.loc 2 335 5 view .LVU320
 336:funsape/peripheral/usart0.cpp ****     case Usart0::FrameFormat::FRAME_FORMAT_7_E_1:
 1133               		.loc 2 336 5 view .LVU321
 337:funsape/peripheral/usart0.cpp ****     case Usart0::FrameFormat::FRAME_FORMAT_7_N_2:
 1134               		.loc 2 337 5 view .LVU322
 338:funsape/peripheral/usart0.cpp ****     case Usart0::FrameFormat::FRAME_FORMAT_7_O_2:
 1135               		.loc 2 338 5 view .LVU323
 339:funsape/peripheral/usart0.cpp ****     case Usart0::FrameFormat::FRAME_FORMAT_7_E_2:
 1136               		.loc 2 339 5 view .LVU324
 340:funsape/peripheral/usart0.cpp ****         break;
 1137               		.loc 2 340 5 view .LVU325
 341:funsape/peripheral/usart0.cpp ****     default:
 1138               		.loc 2 341 9 view .LVU326
 346:funsape/peripheral/usart0.cpp ****     }
 347:funsape/peripheral/usart0.cpp **** 
 348:funsape/peripheral/usart0.cpp ****     // Decodes frame format
 349:funsape/peripheral/usart0.cpp ****     auxFrame = (uint8_t)frameFormat_p;
 1139               		.loc 2 349 5 view .LVU327
 1140               	.LVL60:
 350:funsape/peripheral/usart0.cpp ****     switch(auxFrame & 0x03) {
 1141               		.loc 2 350 5 view .LVU328
 1142 002c 862F      		mov r24,r22
 1143 002e 8370      		andi r24,lo8(3)
 1144 0030 8130      		cpi r24,lo8(1)
 1145 0032 01F0      		breq .L54
 1146 0034 8230      		cpi r24,lo8(2)
 1147 0036 01F0      		breq .L55
 351:funsape/peripheral/usart0.cpp ****     case 1: this->_stopBits = StopBits::SINGLE; break;
 352:funsape/peripheral/usart0.cpp ****     case 2: this->_stopBits = StopBits::DOUBLE; break;
 353:funsape/peripheral/usart0.cpp ****     default:
 1148               		.loc 2 353 5 view .LVU329
 354:funsape/peripheral/usart0.cpp ****         // Returns error
 355:funsape/peripheral/usart0.cpp ****         this->_lastError = Error::UNKNOWN;
 1149               		.loc 2 355 9 view .LVU330
 1150               		.loc 2 355 26 is_stmt 0 view .LVU331
 1151 0038 8FEF      		ldi r24,lo8(-1)
 1152 003a 9FEF      		ldi r25,lo8(-1)
 1153 003c 1396      		adiw r26,2+1
 1154 003e 9C93      		st X,r25
 1155 0040 8E93      		st -X,r24
 1156 0042 1297      		sbiw r26,2
 356:funsape/peripheral/usart0.cpp ****         return false;
 1157               		.loc 2 356 9 is_stmt 1 view .LVU332
 1158               		.loc 2 356 16 is_stmt 0 view .LVU333
GAS LISTING C:\Users\kenne\AppData\Local\Temp\cc4WHnAx.s 			page 43


 1159 0044 80E0      		ldi r24,0
 1160 0046 0895      		ret
 1161               	.L54:
 351:funsape/peripheral/usart0.cpp ****     case 1: this->_stopBits = StopBits::SINGLE; break;
 1162               		.loc 2 351 5 is_stmt 1 view .LVU334
 351:funsape/peripheral/usart0.cpp ****     case 1: this->_stopBits = StopBits::SINGLE; break;
 1163               		.loc 2 351 13 view .LVU335
 351:funsape/peripheral/usart0.cpp ****     case 1: this->_stopBits = StopBits::SINGLE; break;
 1164               		.loc 2 351 29 is_stmt 0 view .LVU336
 1165 0048 1B96      		adiw r26,11
 1166 004a 1C92      		st X,__zero_reg__
 1167 004c 1B97      		sbiw r26,11
 351:funsape/peripheral/usart0.cpp ****     case 1: this->_stopBits = StopBits::SINGLE; break;
 1168               		.loc 2 351 49 is_stmt 1 view .LVU337
 1169               	.L57:
 357:funsape/peripheral/usart0.cpp ****     }
 358:funsape/peripheral/usart0.cpp ****     auxFrame >>= 2;
 1170               		.loc 2 358 5 view .LVU338
 1171               		.loc 2 358 14 is_stmt 0 view .LVU339
 1172 004e 862F      		mov r24,r22
 1173 0050 8695      		lsr r24
 1174 0052 8695      		lsr r24
 1175               	.LVL61:
 359:funsape/peripheral/usart0.cpp ****     switch(auxFrame & 0x03) {
 1176               		.loc 2 359 5 is_stmt 1 view .LVU340
 1177 0054 8370      		andi r24,lo8(3)
 1178               	.LVL62:
 1179               		.loc 2 359 5 is_stmt 0 view .LVU341
 1180 0056 8130      		cpi r24,lo8(1)
 1181 0058 01F0      		breq .L58
 1182 005a 8230      		cpi r24,lo8(2)
 1183 005c 01F0      		breq .L59
 1184 005e 8823      		tst r24
 1185 0060 01F0      		breq .L71
 360:funsape/peripheral/usart0.cpp ****     case 0: this->_parity = Parity::NONE; break;
 361:funsape/peripheral/usart0.cpp ****     case 1: this->_parity = Parity::ODD; break;
 362:funsape/peripheral/usart0.cpp ****     case 2: this->_parity = Parity::EVEN; break;
 363:funsape/peripheral/usart0.cpp ****     default:
 1186               		.loc 2 363 5 is_stmt 1 view .LVU342
 364:funsape/peripheral/usart0.cpp ****         // Returns error
 365:funsape/peripheral/usart0.cpp ****         this->_lastError = Error::UNKNOWN;
 1187               		.loc 2 365 9 view .LVU343
 1188               		.loc 2 365 26 is_stmt 0 view .LVU344
 1189 0062 8FEF      		ldi r24,lo8(-1)
 1190 0064 9FEF      		ldi r25,lo8(-1)
 1191 0066 1396      		adiw r26,2+1
 1192 0068 9C93      		st X,r25
 1193 006a 8E93      		st -X,r24
 1194 006c 1297      		sbiw r26,2
 366:funsape/peripheral/usart0.cpp ****         return false;
 1195               		.loc 2 366 9 is_stmt 1 view .LVU345
 1196               		.loc 2 366 16 is_stmt 0 view .LVU346
 1197 006e 80E0      		ldi r24,0
 1198 0070 0895      		ret
 1199               	.LVL63:
 1200               	.L55:
 352:funsape/peripheral/usart0.cpp ****     default:
GAS LISTING C:\Users\kenne\AppData\Local\Temp\cc4WHnAx.s 			page 44


 1201               		.loc 2 352 5 is_stmt 1 view .LVU347
 352:funsape/peripheral/usart0.cpp ****     default:
 1202               		.loc 2 352 13 view .LVU348
 352:funsape/peripheral/usart0.cpp ****     default:
 1203               		.loc 2 352 29 is_stmt 0 view .LVU349
 1204 0072 81E0      		ldi r24,lo8(1)
 1205 0074 1B96      		adiw r26,11
 1206 0076 8C93      		st X,r24
 1207 0078 1B97      		sbiw r26,11
 352:funsape/peripheral/usart0.cpp ****     default:
 1208               		.loc 2 352 49 is_stmt 1 view .LVU350
 1209 007a 00C0      		rjmp .L57
 1210               	.LVL64:
 1211               	.L71:
 360:funsape/peripheral/usart0.cpp ****     case 1: this->_parity = Parity::ODD; break;
 1212               		.loc 2 360 5 view .LVU351
 360:funsape/peripheral/usart0.cpp ****     case 1: this->_parity = Parity::ODD; break;
 1213               		.loc 2 360 13 view .LVU352
 360:funsape/peripheral/usart0.cpp ****     case 1: this->_parity = Parity::ODD; break;
 1214               		.loc 2 360 27 is_stmt 0 view .LVU353
 1215 007c 1A96      		adiw r26,10
 1216 007e 1C92      		st X,__zero_reg__
 1217 0080 1A97      		sbiw r26,10
 360:funsape/peripheral/usart0.cpp ****     case 1: this->_parity = Parity::ODD; break;
 1218               		.loc 2 360 43 is_stmt 1 view .LVU354
 1219               	.L61:
 367:funsape/peripheral/usart0.cpp ****     }
 368:funsape/peripheral/usart0.cpp ****     auxFrame >>= 2;
 1220               		.loc 2 368 5 view .LVU355
 1221               		.loc 2 368 14 is_stmt 0 view .LVU356
 1222 0082 6295      		swap r22
 1223               	.LVL65:
 1224               		.loc 2 368 14 view .LVU357
 1225 0084 6F70      		andi r22,lo8(15)
 1226               	.LVL66:
 369:funsape/peripheral/usart0.cpp ****     switch(auxFrame & 0x0F) {
 1227               		.loc 2 369 5 is_stmt 1 view .LVU358
 1228 0086 6730      		cpi r22,lo8(7)
 1229 0088 01F0      		breq .L62
 1230 008a 00F0      		brlo .L72
 1231 008c 6830      		cpi r22,lo8(8)
 1232 008e 01F0      		breq .L67
 1233 0090 6930      		cpi r22,lo8(9)
 1234 0092 01F4      		brne .L66
 370:funsape/peripheral/usart0.cpp ****     case 5: this->_dataSize = DataSize::DATA_5_BITS; break;
 371:funsape/peripheral/usart0.cpp ****     case 6: this->_dataSize = DataSize::DATA_6_BITS; break;
 372:funsape/peripheral/usart0.cpp ****     case 7: this->_dataSize = DataSize::DATA_7_BITS; break;
 373:funsape/peripheral/usart0.cpp ****     case 8: this->_dataSize = DataSize::DATA_8_BITS; break;
 374:funsape/peripheral/usart0.cpp ****     case 9: this->_dataSize = DataSize::DATA_9_BITS; break;
 1235               		.loc 2 374 5 view .LVU359
 1236               		.loc 2 374 13 view .LVU360
 1237               		.loc 2 374 29 is_stmt 0 view .LVU361
 1238 0094 87E0      		ldi r24,lo8(7)
 1239 0096 1496      		adiw r26,4
 1240 0098 8C93      		st X,r24
 1241 009a 1497      		sbiw r26,4
 1242               		.loc 2 374 54 is_stmt 1 view .LVU362
GAS LISTING C:\Users\kenne\AppData\Local\Temp\cc4WHnAx.s 			page 45


 1243 009c 00C0      		rjmp .L69
 1244               	.LVL67:
 1245               	.L58:
 361:funsape/peripheral/usart0.cpp ****     case 2: this->_parity = Parity::EVEN; break;
 1246               		.loc 2 361 5 view .LVU363
 361:funsape/peripheral/usart0.cpp ****     case 2: this->_parity = Parity::EVEN; break;
 1247               		.loc 2 361 13 view .LVU364
 361:funsape/peripheral/usart0.cpp ****     case 2: this->_parity = Parity::EVEN; break;
 1248               		.loc 2 361 27 is_stmt 0 view .LVU365
 1249 009e 81E0      		ldi r24,lo8(1)
 1250 00a0 1A96      		adiw r26,10
 1251 00a2 8C93      		st X,r24
 1252 00a4 1A97      		sbiw r26,10
 361:funsape/peripheral/usart0.cpp ****     case 2: this->_parity = Parity::EVEN; break;
 1253               		.loc 2 361 42 is_stmt 1 view .LVU366
 1254 00a6 00C0      		rjmp .L61
 1255               	.L59:
 362:funsape/peripheral/usart0.cpp ****     default:
 1256               		.loc 2 362 5 view .LVU367
 362:funsape/peripheral/usart0.cpp ****     default:
 1257               		.loc 2 362 13 view .LVU368
 362:funsape/peripheral/usart0.cpp ****     default:
 1258               		.loc 2 362 27 is_stmt 0 view .LVU369
 1259 00a8 82E0      		ldi r24,lo8(2)
 1260 00aa 1A96      		adiw r26,10
 1261 00ac 8C93      		st X,r24
 1262 00ae 1A97      		sbiw r26,10
 362:funsape/peripheral/usart0.cpp ****     default:
 1263               		.loc 2 362 43 is_stmt 1 view .LVU370
 1264 00b0 00C0      		rjmp .L61
 1265               	.LVL68:
 1266               	.L72:
 369:funsape/peripheral/usart0.cpp ****     case 5: this->_dataSize = DataSize::DATA_5_BITS; break;
 1267               		.loc 2 369 5 is_stmt 0 view .LVU371
 1268 00b2 6530      		cpi r22,lo8(5)
 1269 00b4 01F0      		breq .L64
 1270 00b6 6630      		cpi r22,lo8(6)
 1271 00b8 01F4      		brne .L66
 371:funsape/peripheral/usart0.cpp ****     case 7: this->_dataSize = DataSize::DATA_7_BITS; break;
 1272               		.loc 2 371 5 is_stmt 1 view .LVU372
 371:funsape/peripheral/usart0.cpp ****     case 7: this->_dataSize = DataSize::DATA_7_BITS; break;
 1273               		.loc 2 371 13 view .LVU373
 371:funsape/peripheral/usart0.cpp ****     case 7: this->_dataSize = DataSize::DATA_7_BITS; break;
 1274               		.loc 2 371 29 is_stmt 0 view .LVU374
 1275 00ba 81E0      		ldi r24,lo8(1)
 1276 00bc 1496      		adiw r26,4
 1277 00be 8C93      		st X,r24
 1278 00c0 1497      		sbiw r26,4
 371:funsape/peripheral/usart0.cpp ****     case 7: this->_dataSize = DataSize::DATA_7_BITS; break;
 1279               		.loc 2 371 54 is_stmt 1 view .LVU375
 1280 00c2 00C0      		rjmp .L69
 1281               	.L64:
 370:funsape/peripheral/usart0.cpp ****     case 6: this->_dataSize = DataSize::DATA_6_BITS; break;
 1282               		.loc 2 370 5 view .LVU376
 370:funsape/peripheral/usart0.cpp ****     case 6: this->_dataSize = DataSize::DATA_6_BITS; break;
 1283               		.loc 2 370 13 view .LVU377
 370:funsape/peripheral/usart0.cpp ****     case 6: this->_dataSize = DataSize::DATA_6_BITS; break;
GAS LISTING C:\Users\kenne\AppData\Local\Temp\cc4WHnAx.s 			page 46


 1284               		.loc 2 370 29 is_stmt 0 view .LVU378
 1285 00c4 1496      		adiw r26,4
 1286 00c6 1C92      		st X,__zero_reg__
 1287 00c8 1497      		sbiw r26,4
 370:funsape/peripheral/usart0.cpp ****     case 6: this->_dataSize = DataSize::DATA_6_BITS; break;
 1288               		.loc 2 370 54 is_stmt 1 view .LVU379
 1289               	.L69:
 375:funsape/peripheral/usart0.cpp ****     default:
 376:funsape/peripheral/usart0.cpp ****         // Returns error
 377:funsape/peripheral/usart0.cpp ****         this->_lastError = Error::UNKNOWN;
 378:funsape/peripheral/usart0.cpp ****         return false;
 379:funsape/peripheral/usart0.cpp ****     }
 380:funsape/peripheral/usart0.cpp **** 
 381:funsape/peripheral/usart0.cpp ****     // Returns successfully
 382:funsape/peripheral/usart0.cpp ****     this->_lastError = Error::NONE;
 1290               		.loc 2 382 5 view .LVU380
 1291               		.loc 2 382 22 is_stmt 0 view .LVU381
 1292 00ca 1396      		adiw r26,2+1
 1293 00cc 1C92      		st X,__zero_reg__
 1294 00ce 1E92      		st -X,__zero_reg__
 1295 00d0 1297      		sbiw r26,2
 383:funsape/peripheral/usart0.cpp ****     return true;
 1296               		.loc 2 383 5 is_stmt 1 view .LVU382
 1297               		.loc 2 383 12 is_stmt 0 view .LVU383
 1298 00d2 81E0      		ldi r24,lo8(1)
 1299               	/* epilogue start */
 384:funsape/peripheral/usart0.cpp **** }
 1300               		.loc 2 384 1 view .LVU384
 1301 00d4 0895      		ret
 1302               	.L62:
 372:funsape/peripheral/usart0.cpp ****     case 8: this->_dataSize = DataSize::DATA_8_BITS; break;
 1303               		.loc 2 372 5 is_stmt 1 view .LVU385
 372:funsape/peripheral/usart0.cpp ****     case 8: this->_dataSize = DataSize::DATA_8_BITS; break;
 1304               		.loc 2 372 13 view .LVU386
 372:funsape/peripheral/usart0.cpp ****     case 8: this->_dataSize = DataSize::DATA_8_BITS; break;
 1305               		.loc 2 372 29 is_stmt 0 view .LVU387
 1306 00d6 82E0      		ldi r24,lo8(2)
 1307 00d8 1496      		adiw r26,4
 1308 00da 8C93      		st X,r24
 1309 00dc 1497      		sbiw r26,4
 372:funsape/peripheral/usart0.cpp ****     case 8: this->_dataSize = DataSize::DATA_8_BITS; break;
 1310               		.loc 2 372 54 is_stmt 1 view .LVU388
 1311 00de 00C0      		rjmp .L69
 1312               	.L67:
 373:funsape/peripheral/usart0.cpp ****     case 9: this->_dataSize = DataSize::DATA_9_BITS; break;
 1313               		.loc 2 373 5 view .LVU389
 373:funsape/peripheral/usart0.cpp ****     case 9: this->_dataSize = DataSize::DATA_9_BITS; break;
 1314               		.loc 2 373 13 view .LVU390
 373:funsape/peripheral/usart0.cpp ****     case 9: this->_dataSize = DataSize::DATA_9_BITS; break;
 1315               		.loc 2 373 29 is_stmt 0 view .LVU391
 1316 00e0 83E0      		ldi r24,lo8(3)
 1317 00e2 1496      		adiw r26,4
 1318 00e4 8C93      		st X,r24
 1319 00e6 1497      		sbiw r26,4
 373:funsape/peripheral/usart0.cpp ****     case 9: this->_dataSize = DataSize::DATA_9_BITS; break;
 1320               		.loc 2 373 54 is_stmt 1 view .LVU392
 1321 00e8 00C0      		rjmp .L69
GAS LISTING C:\Users\kenne\AppData\Local\Temp\cc4WHnAx.s 			page 47


 1322               	.L66:
 375:funsape/peripheral/usart0.cpp ****         // Returns error
 1323               		.loc 2 375 5 view .LVU393
 377:funsape/peripheral/usart0.cpp ****         return false;
 1324               		.loc 2 377 9 view .LVU394
 377:funsape/peripheral/usart0.cpp ****         return false;
 1325               		.loc 2 377 26 is_stmt 0 view .LVU395
 1326 00ea 8FEF      		ldi r24,lo8(-1)
 1327 00ec 9FEF      		ldi r25,lo8(-1)
 1328 00ee 1396      		adiw r26,2+1
 1329 00f0 9C93      		st X,r25
 1330 00f2 8E93      		st -X,r24
 1331 00f4 1297      		sbiw r26,2
 378:funsape/peripheral/usart0.cpp ****     }
 1332               		.loc 2 378 9 is_stmt 1 view .LVU396
 378:funsape/peripheral/usart0.cpp ****     }
 1333               		.loc 2 378 16 is_stmt 0 view .LVU397
 1334 00f6 80E0      		ldi r24,0
 1335 00f8 0895      		ret
 1336               		.cfi_endproc
 1337               	.LFE66:
 1339               		.section	.text._ZN6Usart0C2ENS_8BaudRateENS_4ModeENS_11FrameFormatE,"ax",@progbits
 1340               	.global	_ZN6Usart0C2ENS_8BaudRateENS_4ModeENS_11FrameFormatE
 1342               	_ZN6Usart0C2ENS_8BaudRateENS_4ModeENS_11FrameFormatE:
 1343               	.LVL69:
 1344               	.LFB55:
  11:funsape/peripheral/usart0.cpp **** {
 1345               		.loc 2 11 1 is_stmt 1 view -0
 1346               		.cfi_startproc
  11:funsape/peripheral/usart0.cpp **** {
 1347               		.loc 2 11 1 is_stmt 0 view .LVU399
 1348 0000 0F93      		push r16
 1349               		.cfi_def_cfa_offset 3
 1350               		.cfi_offset 16, -2
 1351 0002 1F93      		push r17
 1352               		.cfi_def_cfa_offset 4
 1353               		.cfi_offset 17, -3
 1354 0004 CF93      		push r28
 1355               		.cfi_def_cfa_offset 5
 1356               		.cfi_offset 28, -4
 1357 0006 DF93      		push r29
 1358               		.cfi_def_cfa_offset 6
 1359               		.cfi_offset 29, -5
 1360               	/* prologue: function */
 1361               	/* frame size = 0 */
 1362               	/* stack size = 4 */
 1363               	.L__stack_usage = 4
 1364 0008 C82F      		mov r28,r24
 1365 000a D92F      		mov r29,r25
 1366 000c 122F      		mov r17,r18
 1367               	.LBB18:
  13:funsape/peripheral/usart0.cpp ****         // Returns error
 1368               		.loc 2 13 5 is_stmt 1 view .LVU400
  13:funsape/peripheral/usart0.cpp ****         // Returns error
 1369               		.loc 2 13 26 is_stmt 0 view .LVU401
 1370 000e CE01      		movw r24,r28
 1371               	.LVL70:
GAS LISTING C:\Users\kenne\AppData\Local\Temp\cc4WHnAx.s 			page 48


  13:funsape/peripheral/usart0.cpp ****         // Returns error
 1372               		.loc 2 13 26 view .LVU402
 1373 0010 0E94 0000 		call _ZN6Usart011setBaudRateENS_8BaudRateE
 1374               	.LVL71:
  13:funsape/peripheral/usart0.cpp ****         // Returns error
 1375               		.loc 2 13 5 view .LVU403
 1376 0014 8111      		cpse r24,__zero_reg__
 1377 0016 00C0      		rjmp .L75
 1378               	.L73:
 1379               	/* epilogue start */
 1380               	.LBE18:
  31:funsape/peripheral/usart0.cpp **** 
 1381               		.loc 2 31 1 view .LVU404
 1382 0018 DF91      		pop r29
 1383 001a CF91      		pop r28
 1384 001c 1F91      		pop r17
 1385               	.LVL72:
  31:funsape/peripheral/usart0.cpp **** 
 1386               		.loc 2 31 1 view .LVU405
 1387 001e 0F91      		pop r16
 1388               	.LVL73:
  31:funsape/peripheral/usart0.cpp **** 
 1389               		.loc 2 31 1 view .LVU406
 1390 0020 0895      		ret
 1391               	.LVL74:
 1392               	.L75:
 1393               	.LBB19:
  17:funsape/peripheral/usart0.cpp ****         // Returns error
 1394               		.loc 2 17 5 is_stmt 1 view .LVU407
  17:funsape/peripheral/usart0.cpp ****         // Returns error
 1395               		.loc 2 17 22 is_stmt 0 view .LVU408
 1396 0022 612F      		mov r22,r17
 1397 0024 CE01      		movw r24,r28
 1398 0026 0E94 0000 		call _ZN6Usart07setModeENS_4ModeE
 1399               	.LVL75:
  17:funsape/peripheral/usart0.cpp ****         // Returns error
 1400               		.loc 2 17 5 view .LVU409
 1401 002a 8823      		tst r24
 1402 002c 01F0      		breq .L73
  21:funsape/peripheral/usart0.cpp ****         // Returns error
 1403               		.loc 2 21 5 is_stmt 1 view .LVU410
  21:funsape/peripheral/usart0.cpp ****         // Returns error
 1404               		.loc 2 21 29 is_stmt 0 view .LVU411
 1405 002e 602F      		mov r22,r16
 1406 0030 CE01      		movw r24,r28
 1407 0032 0E94 0000 		call _ZN6Usart014setFrameFormatENS_11FrameFormatE
 1408               	.LVL76:
  21:funsape/peripheral/usart0.cpp ****         // Returns error
 1409               		.loc 2 21 5 view .LVU412
 1410 0036 8823      		tst r24
 1411 0038 01F0      		breq .L73
  26:funsape/peripheral/usart0.cpp **** 
 1412               		.loc 2 26 5 is_stmt 1 view .LVU413
  26:funsape/peripheral/usart0.cpp **** 
 1413               		.loc 2 26 5 view .LVU414
 1414 003a E0E0      		ldi r30,lo8(usartStream)
 1415 003c F0E0      		ldi r31,hi8(usartStream)
GAS LISTING C:\Users\kenne\AppData\Local\Temp\cc4WHnAx.s 			page 49


 1416 003e 80E0      		ldi r24,lo8(gs(_Z23usartTransmitStdWrappercP6__file))
 1417 0040 90E0      		ldi r25,hi8(gs(_Z23usartTransmitStdWrappercP6__file))
 1418 0042 9187      		std Z+9,r25
 1419 0044 8087      		std Z+8,r24
  26:funsape/peripheral/usart0.cpp **** 
 1420               		.loc 2 26 5 view .LVU415
 1421 0046 1386      		std Z+11,__zero_reg__
 1422 0048 1286      		std Z+10,__zero_reg__
  26:funsape/peripheral/usart0.cpp **** 
 1423               		.loc 2 26 5 view .LVU416
 1424 004a 82E0      		ldi r24,lo8(2)
 1425 004c 8383      		std Z+3,r24
  26:funsape/peripheral/usart0.cpp **** 
 1426               		.loc 2 26 5 view .LVU417
 1427 004e 1586      		std Z+13,__zero_reg__
 1428 0050 1486      		std Z+12,__zero_reg__
  26:funsape/peripheral/usart0.cpp **** 
 1429               		.loc 2 26 5 view .LVU418
  29:funsape/peripheral/usart0.cpp ****     return;
 1430               		.loc 2 29 5 view .LVU419
  29:funsape/peripheral/usart0.cpp ****     return;
 1431               		.loc 2 29 22 is_stmt 0 view .LVU420
 1432 0052 1B82      		std Y+3,__zero_reg__
 1433 0054 1A82      		std Y+2,__zero_reg__
  30:funsape/peripheral/usart0.cpp **** }
 1434               		.loc 2 30 5 is_stmt 1 view .LVU421
 1435 0056 00C0      		rjmp .L73
 1436               	.LBE19:
 1437               		.cfi_endproc
 1438               	.LFE55:
 1440               	.global	_ZN6Usart0C1ENS_8BaudRateENS_4ModeENS_11FrameFormatE
 1441               		.set	_ZN6Usart0C1ENS_8BaudRateENS_4ModeENS_11FrameFormatE,_ZN6Usart0C2ENS_8BaudRateENS_4ModeENS_11
 1442               		.section	.text._Z41__static_initialization_and_destruction_0ii,"ax",@progbits
 1444               	_Z41__static_initialization_and_destruction_0ii:
 1445               	.LVL77:
 1446               	.LFB84:
 385:funsape/peripheral/usart0.cpp **** 
 386:funsape/peripheral/usart0.cpp **** bool_t Usart0::getReceptionStatus(ReceptionError *errorCode_p)
 387:funsape/peripheral/usart0.cpp **** {
 388:funsape/peripheral/usart0.cpp ****     // Checks for errors
 389:funsape/peripheral/usart0.cpp ****     if(!isPointerValid(errorCode_p)) {
 390:funsape/peripheral/usart0.cpp ****         // Returns error
 391:funsape/peripheral/usart0.cpp ****         this->_lastError = Error::ARGUMENT_POINTER_NULL;
 392:funsape/peripheral/usart0.cpp ****         return false;
 393:funsape/peripheral/usart0.cpp ****     }
 394:funsape/peripheral/usart0.cpp **** 
 395:funsape/peripheral/usart0.cpp ****     // Gets errors
 396:funsape/peripheral/usart0.cpp ****     *errorCode_p = ReceptionError::NONE;
 397:funsape/peripheral/usart0.cpp ****     if(this->_isDataOverrunError) {
 398:funsape/peripheral/usart0.cpp ****         *errorCode_p |= Usart0::ReceptionError::DATA_OVERRUN_ERROR;
 399:funsape/peripheral/usart0.cpp ****     }
 400:funsape/peripheral/usart0.cpp ****     if(this->_isFrameError) {
 401:funsape/peripheral/usart0.cpp ****         *errorCode_p |= Usart0::ReceptionError::FRAME_ERROR;
 402:funsape/peripheral/usart0.cpp ****     }
 403:funsape/peripheral/usart0.cpp ****     if(this->_isParityError) {
 404:funsape/peripheral/usart0.cpp ****         *errorCode_p |= Usart0::ReceptionError::PARITY_ERROR;
 405:funsape/peripheral/usart0.cpp ****     }
GAS LISTING C:\Users\kenne\AppData\Local\Temp\cc4WHnAx.s 			page 50


 406:funsape/peripheral/usart0.cpp **** 
 407:funsape/peripheral/usart0.cpp ****     // Returns successfully
 408:funsape/peripheral/usart0.cpp ****     this->_lastError = Error::NONE;
 409:funsape/peripheral/usart0.cpp ****     return true;
 410:funsape/peripheral/usart0.cpp **** }
 411:funsape/peripheral/usart0.cpp **** 
 412:funsape/peripheral/usart0.cpp **** char Usart0::_receiveDataStd(FILE *stream)
 413:funsape/peripheral/usart0.cpp **** {
 414:funsape/peripheral/usart0.cpp ****     char auxChar = 0;
 415:funsape/peripheral/usart0.cpp **** 
 416:funsape/peripheral/usart0.cpp ****     return auxChar;
 417:funsape/peripheral/usart0.cpp **** }
 418:funsape/peripheral/usart0.cpp **** 
 419:funsape/peripheral/usart0.cpp **** void Usart0::_clearDataOverrunError(void)
 420:funsape/peripheral/usart0.cpp **** {
 421:funsape/peripheral/usart0.cpp ****     clrBit(UCSR0A, DOR0);
 422:funsape/peripheral/usart0.cpp ****     return;
 423:funsape/peripheral/usart0.cpp **** }
 424:funsape/peripheral/usart0.cpp **** 
 425:funsape/peripheral/usart0.cpp **** void Usart0::_clearFrameError(void)
 426:funsape/peripheral/usart0.cpp **** {
 427:funsape/peripheral/usart0.cpp ****     clrBit(UCSR0A, FE0);
 428:funsape/peripheral/usart0.cpp ****     return;
 429:funsape/peripheral/usart0.cpp **** }
 430:funsape/peripheral/usart0.cpp **** 
 431:funsape/peripheral/usart0.cpp **** void Usart0::_clearParityError(void)
 432:funsape/peripheral/usart0.cpp **** {
 433:funsape/peripheral/usart0.cpp ****     clrBit(UCSR0A, UPE0);
 434:funsape/peripheral/usart0.cpp ****     return;
 435:funsape/peripheral/usart0.cpp **** }
 436:funsape/peripheral/usart0.cpp **** 
 437:funsape/peripheral/usart0.cpp **** bool_t Usart0::write(cuint16_t data_p)
 438:funsape/peripheral/usart0.cpp **** {
 439:funsape/peripheral/usart0.cpp ****     // Checks initialization
 440:funsape/peripheral/usart0.cpp ****     if(!this->_isInitialized) {
 441:funsape/peripheral/usart0.cpp ****         // Returns error
 442:funsape/peripheral/usart0.cpp ****         this->_lastError = Error::NOT_INITIALIZED;
 443:funsape/peripheral/usart0.cpp ****         return false;
 444:funsape/peripheral/usart0.cpp ****     }
 445:funsape/peripheral/usart0.cpp **** 
 446:funsape/peripheral/usart0.cpp ****     // Waits until last transmission ends
 447:funsape/peripheral/usart0.cpp ****     waitUntilBitIsSet(UCSR0A, UDRE0);
 448:funsape/peripheral/usart0.cpp **** 
 449:funsape/peripheral/usart0.cpp ****     // Stores 8th bit (if data size in 9 bits)
 450:funsape/peripheral/usart0.cpp ****     if(this->_dataSize == DataSize::DATA_9_BITS) {
 451:funsape/peripheral/usart0.cpp ****         if(isBitSet(data_p, 8)) {
 452:funsape/peripheral/usart0.cpp ****             setBit(UCSR0B, TXB80);
 453:funsape/peripheral/usart0.cpp ****         } else {
 454:funsape/peripheral/usart0.cpp ****             clrBit(UCSR0B, TXB80);
 455:funsape/peripheral/usart0.cpp ****         }
 456:funsape/peripheral/usart0.cpp ****     }
 457:funsape/peripheral/usart0.cpp ****     UDR0 = (uint8_t)data_p;
 458:funsape/peripheral/usart0.cpp **** 
 459:funsape/peripheral/usart0.cpp ****     // Returns sucessfully
 460:funsape/peripheral/usart0.cpp ****     this->_lastError = Error::NONE;
 461:funsape/peripheral/usart0.cpp ****     return true;
 462:funsape/peripheral/usart0.cpp **** }
GAS LISTING C:\Users\kenne\AppData\Local\Temp\cc4WHnAx.s 			page 51


 463:funsape/peripheral/usart0.cpp **** 
 464:funsape/peripheral/usart0.cpp **** bool_t Usart0::read(uint8_t *data_p)
 465:funsape/peripheral/usart0.cpp **** {
 466:funsape/peripheral/usart0.cpp ****     // Local variables
 467:funsape/peripheral/usart0.cpp ****     uint8_t aux8;
 468:funsape/peripheral/usart0.cpp **** 
 469:funsape/peripheral/usart0.cpp ****     // Checks initialization
 470:funsape/peripheral/usart0.cpp ****     if(!this->_isInitialized) {
 471:funsape/peripheral/usart0.cpp ****         // Returns error
 472:funsape/peripheral/usart0.cpp ****         this->_lastError = Error::NOT_INITIALIZED;
 473:funsape/peripheral/usart0.cpp ****         return false;
 474:funsape/peripheral/usart0.cpp ****     }
 475:funsape/peripheral/usart0.cpp **** 
 476:funsape/peripheral/usart0.cpp ****     // Waits until last reception ends
 477:funsape/peripheral/usart0.cpp ****     waitUntilBitIsSet(UCSR0A, RXC0);
 478:funsape/peripheral/usart0.cpp **** 
 479:funsape/peripheral/usart0.cpp ****     // Checks reception erros
 480:funsape/peripheral/usart0.cpp ****     aux8 = UCSR0A;
 481:funsape/peripheral/usart0.cpp ****     this->_isDataOverrunError = isBitSet(aux8, DOR0);
 482:funsape/peripheral/usart0.cpp ****     this->_isFrameError = isBitSet(aux8, FE0);
 483:funsape/peripheral/usart0.cpp ****     this->_isParityError = isBitSet(aux8, UPE0);
 484:funsape/peripheral/usart0.cpp **** 
 485:funsape/peripheral/usart0.cpp ****     // Stores 8th bit (if data size in 9 bits)
 486:funsape/peripheral/usart0.cpp ****     *data_p = 0;
 487:funsape/peripheral/usart0.cpp ****     // if(this->_dataSize == DataSize::DATA_9_BITS) {
 488:funsape/peripheral/usart0.cpp ****     //     *data_p = (isBitSet(UCSR0B, RXB80)) ? (1 << 8) : 0;
 489:funsape/peripheral/usart0.cpp ****     // }
 490:funsape/peripheral/usart0.cpp **** 
 491:funsape/peripheral/usart0.cpp ****     // Gets received byte
 492:funsape/peripheral/usart0.cpp ****     *data_p |= UDR0;
 493:funsape/peripheral/usart0.cpp **** 
 494:funsape/peripheral/usart0.cpp ****     // Returns successfully
 495:funsape/peripheral/usart0.cpp ****     this->_lastError = Error::NONE;
 496:funsape/peripheral/usart0.cpp ****     return true;
 497:funsape/peripheral/usart0.cpp **** }
 498:funsape/peripheral/usart0.cpp **** 
 499:funsape/peripheral/usart0.cpp **** void Usart0::flushReceptionBuffer(void)
 500:funsape/peripheral/usart0.cpp **** {
 501:funsape/peripheral/usart0.cpp ****     __attribute__((unused)) uint8_t aux8;
 502:funsape/peripheral/usart0.cpp **** 
 503:funsape/peripheral/usart0.cpp ****     while(this->isReceptionComplete()) {
 504:funsape/peripheral/usart0.cpp ****         aux8 = UDR0;
 505:funsape/peripheral/usart0.cpp ****     }
 506:funsape/peripheral/usart0.cpp **** 
 507:funsape/peripheral/usart0.cpp ****     return;
 508:funsape/peripheral/usart0.cpp **** }
 509:funsape/peripheral/usart0.cpp **** 
 510:funsape/peripheral/usart0.cpp **** char Usart0::receiveDataStd(FILE *stream_p)
 511:funsape/peripheral/usart0.cpp **** {
 512:funsape/peripheral/usart0.cpp ****     waitUntilBitIsSet(UCSR0A, RXC0);	// Waits until last reception ends
 513:funsape/peripheral/usart0.cpp **** 
 514:funsape/peripheral/usart0.cpp ****     return (int16_t)UDR0;
 515:funsape/peripheral/usart0.cpp **** }
 516:funsape/peripheral/usart0.cpp **** 
 517:funsape/peripheral/usart0.cpp **** int16_t Usart0::sendDataStd(char data_p, FILE *stream_p)
 518:funsape/peripheral/usart0.cpp **** {
 519:funsape/peripheral/usart0.cpp ****     waitUntilBitIsSet(UCSR0A, UDRE0);	// Waits until last transmission ends
GAS LISTING C:\Users\kenne\AppData\Local\Temp\cc4WHnAx.s 			page 52


 520:funsape/peripheral/usart0.cpp ****     UDR0 = data_p;
 521:funsape/peripheral/usart0.cpp **** 
 522:funsape/peripheral/usart0.cpp ****     return 0;
 523:funsape/peripheral/usart0.cpp **** }
 524:funsape/peripheral/usart0.cpp **** 
 525:funsape/peripheral/usart0.cpp **** int usartTransmitStdWrapper(char c, FILE *f)
 526:funsape/peripheral/usart0.cpp **** {
 527:funsape/peripheral/usart0.cpp ****     return usartDefaultHandler->sendDataStd(c, f);
 528:funsape/peripheral/usart0.cpp **** }
 529:funsape/peripheral/usart0.cpp **** 
 530:funsape/peripheral/usart0.cpp **** // =============================================================================
 531:funsape/peripheral/usart0.cpp **** // Interrupt callback functions
 532:funsape/peripheral/usart0.cpp **** // =============================================================================
 533:funsape/peripheral/usart0.cpp **** 
 534:funsape/peripheral/usart0.cpp **** weakened void usartReceptionCompleteCallback(void)
 535:funsape/peripheral/usart0.cpp **** {
 536:funsape/peripheral/usart0.cpp ****     return;
 537:funsape/peripheral/usart0.cpp **** }
 538:funsape/peripheral/usart0.cpp **** 
 539:funsape/peripheral/usart0.cpp **** weakened void usartTransmissionBufferEmptyCallback(void)
 540:funsape/peripheral/usart0.cpp **** {
 541:funsape/peripheral/usart0.cpp ****     return;
 542:funsape/peripheral/usart0.cpp **** }
 543:funsape/peripheral/usart0.cpp **** 
 544:funsape/peripheral/usart0.cpp **** weakened void usartTransmissionCompleteCallback(void)
 545:funsape/peripheral/usart0.cpp **** {
 546:funsape/peripheral/usart0.cpp ****     return;
 547:funsape/peripheral/usart0.cpp **** }
 548:funsape/peripheral/usart0.cpp **** 
 549:funsape/peripheral/usart0.cpp **** // =============================================================================
 550:funsape/peripheral/usart0.cpp **** // Interrupt handlers
 551:funsape/peripheral/usart0.cpp **** // =============================================================================
 552:funsape/peripheral/usart0.cpp **** 
 553:funsape/peripheral/usart0.cpp **** //!
 554:funsape/peripheral/usart0.cpp **** //! \brief          USART_RX interrupt service routine
 555:funsape/peripheral/usart0.cpp **** //! \details        USART_RX interrupt service routine.
 556:funsape/peripheral/usart0.cpp **** //!
 557:funsape/peripheral/usart0.cpp **** ISR(USART_RX_vect)
 558:funsape/peripheral/usart0.cpp **** {
 559:funsape/peripheral/usart0.cpp ****     usartReceptionCompleteCallback();
 560:funsape/peripheral/usart0.cpp **** }
 561:funsape/peripheral/usart0.cpp **** 
 562:funsape/peripheral/usart0.cpp **** //!
 563:funsape/peripheral/usart0.cpp **** //! \brief          USART_TX interrupt service routine
 564:funsape/peripheral/usart0.cpp **** //! \details        USART_TX interrupt service routine.
 565:funsape/peripheral/usart0.cpp **** //!
 566:funsape/peripheral/usart0.cpp **** ISR(USART_TX_vect)
 567:funsape/peripheral/usart0.cpp **** {
 568:funsape/peripheral/usart0.cpp ****     usartTransmissionCompleteCallback();
 569:funsape/peripheral/usart0.cpp **** }
 570:funsape/peripheral/usart0.cpp **** 
 571:funsape/peripheral/usart0.cpp **** //!
 572:funsape/peripheral/usart0.cpp **** //! \brief          USART_UDRE interrupt service routine
 573:funsape/peripheral/usart0.cpp **** //! \details        USART_UDRE interrupt service routine.
 574:funsape/peripheral/usart0.cpp **** //!
 575:funsape/peripheral/usart0.cpp **** ISR(USART_UDRE_vect)
 576:funsape/peripheral/usart0.cpp **** {
GAS LISTING C:\Users\kenne\AppData\Local\Temp\cc4WHnAx.s 			page 53


 577:funsape/peripheral/usart0.cpp ****     usartTransmissionBufferEmptyCallback();
 578:funsape/peripheral/usart0.cpp **** }
 1447               		.loc 2 578 1 view -0
 1448               		.cfi_startproc
 1449               		.loc 2 578 1 is_stmt 0 view .LVU423
 1450 0000 0F93      		push r16
 1451               		.cfi_def_cfa_offset 3
 1452               		.cfi_offset 16, -2
 1453               	/* prologue: function */
 1454               	/* frame size = 0 */
 1455               	/* stack size = 1 */
 1456               	.L__stack_usage = 1
 1457 0002 262F      		mov r18,r22
 1458 0004 372F      		mov r19,r23
 1459               		.loc 2 578 1 view .LVU424
 1460 0006 0197      		sbiw r24,1
 1461 0008 01F0      		breq .L78
 1462               	.LVL78:
 1463               	.L76:
 1464               	/* epilogue start */
 1465               		.loc 2 578 1 view .LVU425
 1466 000a 0F91      		pop r16
 1467 000c 0895      		ret
 1468               	.LVL79:
 1469               	.L78:
 1470               		.loc 2 578 1 discriminator 1 view .LVU426
 1471 000e 2F3F      		cpi r18,-1
 1472 0010 3F4F      		sbci r19,-1
 1473               	.LVL80:
 1474               		.loc 2 578 1 discriminator 1 view .LVU427
 1475 0012 01F4      		brne .L76
   6:funsape/peripheral/usart0.cpp **** FILE usartStream;
 1476               		.loc 2 6 8 view .LVU428
 1477 0014 01E8      		ldi r16,lo8(-127)
 1478 0016 20E0      		ldi r18,0
 1479 0018 40E8      		ldi r20,lo8(-128)
 1480 001a 55E2      		ldi r21,lo8(37)
 1481 001c 60E0      		ldi r22,0
 1482 001e 70E0      		ldi r23,0
 1483 0020 80E0      		ldi r24,lo8(usart0)
 1484 0022 90E0      		ldi r25,hi8(usart0)
 1485 0024 0E94 0000 		call _ZN6Usart0C1ENS_8BaudRateENS_4ModeENS_11FrameFormatE
 1486               	.LVL81:
 1487               		.loc 2 578 1 view .LVU429
 1488 0028 00C0      		rjmp .L76
 1489               		.cfi_endproc
 1490               	.LFE84:
 1492               		.section	.text._ZN6Usart018getReceptionStatusEPNS_14ReceptionErrorE,"ax",@progbits
 1493               	.global	_ZN6Usart018getReceptionStatusEPNS_14ReceptionErrorE
 1495               	_ZN6Usart018getReceptionStatusEPNS_14ReceptionErrorE:
 1496               	.LVL82:
 1497               	.LFB67:
 387:funsape/peripheral/usart0.cpp ****     // Checks for errors
 1498               		.loc 2 387 1 is_stmt 1 view -0
 1499               		.cfi_startproc
 1500               	/* prologue: function */
 1501               	/* frame size = 0 */
GAS LISTING C:\Users\kenne\AppData\Local\Temp\cc4WHnAx.s 			page 54


 1502               	/* stack size = 0 */
 1503               	.L__stack_usage = 0
 387:funsape/peripheral/usart0.cpp ****     // Checks for errors
 1504               		.loc 2 387 1 is_stmt 0 view .LVU431
 1505 0000 A82F      		mov r26,r24
 1506 0002 B92F      		mov r27,r25
 1507 0004 E62F      		mov r30,r22
 1508 0006 F72F      		mov r31,r23
 389:funsape/peripheral/usart0.cpp ****         // Returns error
 1509               		.loc 2 389 5 is_stmt 1 view .LVU432
 1510 0008 3097      		sbiw r30,0
 1511 000a 01F0      		breq .L85
 396:funsape/peripheral/usart0.cpp ****     if(this->_isDataOverrunError) {
 1512               		.loc 2 396 5 view .LVU433
 396:funsape/peripheral/usart0.cpp ****     if(this->_isDataOverrunError) {
 1513               		.loc 2 396 18 is_stmt 0 view .LVU434
 1514 000c 1082      		st Z,__zero_reg__
 397:funsape/peripheral/usart0.cpp ****         *errorCode_p |= Usart0::ReceptionError::DATA_OVERRUN_ERROR;
 1515               		.loc 2 397 5 is_stmt 1 view .LVU435
 397:funsape/peripheral/usart0.cpp ****         *errorCode_p |= Usart0::ReceptionError::DATA_OVERRUN_ERROR;
 1516               		.loc 2 397 14 is_stmt 0 view .LVU436
 1517 000e 8C91      		ld r24,X
 1518               	.LVL83:
 397:funsape/peripheral/usart0.cpp ****         *errorCode_p |= Usart0::ReceptionError::DATA_OVERRUN_ERROR;
 1519               		.loc 2 397 5 view .LVU437
 1520 0010 80FF      		sbrs r24,0
 1521 0012 00C0      		rjmp .L82
 398:funsape/peripheral/usart0.cpp ****     }
 1522               		.loc 2 398 9 is_stmt 1 view .LVU438
 1523               	.LVL84:
 1524               	.LBB20:
 1525               	.LBI20:
 1526               		.file 3 "funsape/peripheral/usart0.hpp"
   1:funsape/peripheral/usart0.hpp **** //!
   2:funsape/peripheral/usart0.hpp **** //! \file           USART.hpp
   3:funsape/peripheral/usart0.hpp **** //! \brief          USART/USART communication peripheral control for the FunSAPE AVR8 Library
   4:funsape/peripheral/usart0.hpp **** //! \author         Leandro Schwarz (bladabuska+funsapeavr8lib@gmail.com)
   5:funsape/peripheral/usart0.hpp **** //! \date           2023-04-05
   6:funsape/peripheral/usart0.hpp **** //! \version        23.04
   7:funsape/peripheral/usart0.hpp **** //! \copyright      license
   8:funsape/peripheral/usart0.hpp **** //! \details        USART/USART communication peripheral control for the FunSAPE AVR8 Library
   9:funsape/peripheral/usart0.hpp **** //! \todo           USART and USART in SPI mode
  10:funsape/peripheral/usart0.hpp **** //!
  11:funsape/peripheral/usart0.hpp **** 
  12:funsape/peripheral/usart0.hpp **** // =============================================================================
  13:funsape/peripheral/usart0.hpp **** // Include guard (START)
  14:funsape/peripheral/usart0.hpp **** // =============================================================================
  15:funsape/peripheral/usart0.hpp **** 
  16:funsape/peripheral/usart0.hpp **** #ifndef __USART0_HPP
  17:funsape/peripheral/usart0.hpp **** #define __USART0_HPP                            2304
  18:funsape/peripheral/usart0.hpp **** 
  19:funsape/peripheral/usart0.hpp **** // =============================================================================
  20:funsape/peripheral/usart0.hpp **** // Dependencies
  21:funsape/peripheral/usart0.hpp **** // =============================================================================
  22:funsape/peripheral/usart0.hpp **** 
  23:funsape/peripheral/usart0.hpp **** //     /////////////////     GLOBAL DEFINITIONS FILE    /////////////////     //
  24:funsape/peripheral/usart0.hpp **** #include "../globalDefines.hpp"
GAS LISTING C:\Users\kenne\AppData\Local\Temp\cc4WHnAx.s 			page 55


  25:funsape/peripheral/usart0.hpp **** #if !defined(__GLOBAL_DEFINES_HPP)
  26:funsape/peripheral/usart0.hpp **** #    error "Global definitions file is corrupted!"
  27:funsape/peripheral/usart0.hpp **** #elif __GLOBAL_DEFINES_HPP != __USART0_HPP
  28:funsape/peripheral/usart0.hpp **** #    error "Version mismatch between file header and global definitions file!"
  29:funsape/peripheral/usart0.hpp **** #endif
  30:funsape/peripheral/usart0.hpp **** 
  31:funsape/peripheral/usart0.hpp **** //     //////////////////     LIBRARY DEPENDENCIES     //////////////////     //
  32:funsape/peripheral/usart0.hpp **** #include "../util/debug.hpp"
  33:funsape/peripheral/usart0.hpp **** #if !defined(__DEBUG_HPP)
  34:funsape/peripheral/usart0.hpp **** #   error "Header file (debug.hpp) is corrupted!"
  35:funsape/peripheral/usart0.hpp **** #elif __DEBUG_HPP != __USART0_HPP
  36:funsape/peripheral/usart0.hpp **** #   error "Version mismatch between header file and library dependency (debug.hpp)!"
  37:funsape/peripheral/usart0.hpp **** #endif
  38:funsape/peripheral/usart0.hpp **** 
  39:funsape/peripheral/usart0.hpp **** #include "../util/systemStatus.hpp"
  40:funsape/peripheral/usart0.hpp **** 
  41:funsape/peripheral/usart0.hpp **** extern FILE usartStream;
  42:funsape/peripheral/usart0.hpp **** 
  43:funsape/peripheral/usart0.hpp **** // =============================================================================
  44:funsape/peripheral/usart0.hpp **** // Undefining previous definitions
  45:funsape/peripheral/usart0.hpp **** // =============================================================================
  46:funsape/peripheral/usart0.hpp **** 
  47:funsape/peripheral/usart0.hpp **** // NONE
  48:funsape/peripheral/usart0.hpp **** 
  49:funsape/peripheral/usart0.hpp **** // =============================================================================
  50:funsape/peripheral/usart0.hpp **** // Constant definitions
  51:funsape/peripheral/usart0.hpp **** // =============================================================================
  52:funsape/peripheral/usart0.hpp **** 
  53:funsape/peripheral/usart0.hpp **** // NONE
  54:funsape/peripheral/usart0.hpp **** 
  55:funsape/peripheral/usart0.hpp **** // =============================================================================
  56:funsape/peripheral/usart0.hpp **** // New data types
  57:funsape/peripheral/usart0.hpp **** // =============================================================================
  58:funsape/peripheral/usart0.hpp **** 
  59:funsape/peripheral/usart0.hpp **** // NONE
  60:funsape/peripheral/usart0.hpp **** 
  61:funsape/peripheral/usart0.hpp **** // =============================================================================
  62:funsape/peripheral/usart0.hpp **** // Interrupt callback functions
  63:funsape/peripheral/usart0.hpp **** // =============================================================================
  64:funsape/peripheral/usart0.hpp **** 
  65:funsape/peripheral/usart0.hpp **** //!
  66:funsape/peripheral/usart0.hpp **** //! \brief          USART Reception Complete interrupt callback function
  67:funsape/peripheral/usart0.hpp **** //! \details        This function is called when the USART Reception Complete
  68:funsape/peripheral/usart0.hpp **** //!                     interrupt is treated. It is a weak function that can be
  69:funsape/peripheral/usart0.hpp **** //!                     overwritten by user code.
  70:funsape/peripheral/usart0.hpp **** //!
  71:funsape/peripheral/usart0.hpp **** void usartReceptionCompleteCallback(void);
  72:funsape/peripheral/usart0.hpp **** 
  73:funsape/peripheral/usart0.hpp **** //!
  74:funsape/peripheral/usart0.hpp **** //! \brief          USART Transmission Buffer Empty interrupt callback function
  75:funsape/peripheral/usart0.hpp **** //! \details        This function is called when the USART Transmission Buffer
  76:funsape/peripheral/usart0.hpp **** //!                     Empty interrupt is treated. It is a weak function that
  77:funsape/peripheral/usart0.hpp **** //!                     can be overwritten by user code.
  78:funsape/peripheral/usart0.hpp **** //!
  79:funsape/peripheral/usart0.hpp **** void usartTransmissionBufferEmptyCallback(void);
  80:funsape/peripheral/usart0.hpp **** 
  81:funsape/peripheral/usart0.hpp **** //!
GAS LISTING C:\Users\kenne\AppData\Local\Temp\cc4WHnAx.s 			page 56


  82:funsape/peripheral/usart0.hpp **** //! \brief          USART Transmission Complete interrupt callback function
  83:funsape/peripheral/usart0.hpp **** //! \details        This function is called when the USART Transmission Complete
  84:funsape/peripheral/usart0.hpp **** //!                     interrupt is treated. It is a weak function that can be
  85:funsape/peripheral/usart0.hpp **** //!                     overwritten by user code.
  86:funsape/peripheral/usart0.hpp **** //!
  87:funsape/peripheral/usart0.hpp **** void usartTransmissionCompleteCallback(void);
  88:funsape/peripheral/usart0.hpp **** 
  89:funsape/peripheral/usart0.hpp **** // =============================================================================
  90:funsape/peripheral/usart0.hpp **** // Usart Class
  91:funsape/peripheral/usart0.hpp **** // =============================================================================
  92:funsape/peripheral/usart0.hpp **** 
  93:funsape/peripheral/usart0.hpp **** //!
  94:funsape/peripheral/usart0.hpp **** //! \brief          Usart0 class
  95:funsape/peripheral/usart0.hpp **** //! \details        Usart0 class
  96:funsape/peripheral/usart0.hpp **** //!
  97:funsape/peripheral/usart0.hpp **** class Usart0
  98:funsape/peripheral/usart0.hpp **** {
  99:funsape/peripheral/usart0.hpp ****     // -------------------------------------------------------------------------
 100:funsape/peripheral/usart0.hpp ****     // New data types ----------------------------------------------------------
 101:funsape/peripheral/usart0.hpp **** public:
 102:funsape/peripheral/usart0.hpp **** 
 103:funsape/peripheral/usart0.hpp ****     //     ///////////////     USART0 Operation Mode     ////////////////     //
 104:funsape/peripheral/usart0.hpp ****     //!
 105:funsape/peripheral/usart0.hpp ****     //! \brief      USART0 Operation Mode enumeration
 106:funsape/peripheral/usart0.hpp ****     //! \details    Operation mode associated with the USART0.
 107:funsape/peripheral/usart0.hpp ****     //! \warning    The value associate with the symbolic names may change
 108:funsape/peripheral/usart0.hpp ****     //!                 between builds and might not reflect the register/bits
 109:funsape/peripheral/usart0.hpp ****     //!                 real values. In order to ensure compatibility between
 110:funsape/peripheral/usart0.hpp ****     //!                 builds, always refer to the SYMBOLIC NAME, instead of
 111:funsape/peripheral/usart0.hpp ****     //!                 the VALUE.
 112:funsape/peripheral/usart0.hpp ****     //!
 113:funsape/peripheral/usart0.hpp ****     enum class Mode : uint8_t {
 114:funsape/peripheral/usart0.hpp ****         ASYNCHRONOUS                            = 0,    //!< Peripheral in UART without double spee
 115:funsape/peripheral/usart0.hpp ****         ASYNCHRONOUS_DOUBLE_SPEED               = 1,    //!< Peripheral in UART with double speed m
 116:funsape/peripheral/usart0.hpp ****         SYNCHRONOUS_TX_RISING_RX_FALLING        = 2,    //!< Peripheral in USART mode on falling ed
 117:funsape/peripheral/usart0.hpp ****         SYNCHRONOUS_TX_FALLING_RX_RISING        = 3,    //!< Peripheral in USART mode on rising edg
 118:funsape/peripheral/usart0.hpp ****         MASTER_SPI_MODE_0                       = 4,    //!< Peripheral in master SPI mode 0.
 119:funsape/peripheral/usart0.hpp ****         MASTER_SPI_MODE_1                       = 5,    //!< Peripheral in master SPI mode 1.
 120:funsape/peripheral/usart0.hpp ****         MASTER_SPI_MODE_2                       = 6,    //!< Peripheral in master SPI mode 2.
 121:funsape/peripheral/usart0.hpp ****         MASTER_SPI_MODE_3                       = 7,    //!< Peripheral in master SPI mode 3.
 122:funsape/peripheral/usart0.hpp ****     };
 123:funsape/peripheral/usart0.hpp **** 
 124:funsape/peripheral/usart0.hpp ****     //     ///////////////    USART0 Reception Error     ////////////////     //
 125:funsape/peripheral/usart0.hpp ****     //!
 126:funsape/peripheral/usart0.hpp ****     //! \brief      USART0 Reception Error enumeration
 127:funsape/peripheral/usart0.hpp ****     //! \details    Reception error associated with the USART0.
 128:funsape/peripheral/usart0.hpp ****     //! \warning    The value associate with the symbolic names may change
 129:funsape/peripheral/usart0.hpp ****     //!                 between builds and might not reflect the register/bits
 130:funsape/peripheral/usart0.hpp ****     //!                 real values. In order to ensure compatibility between
 131:funsape/peripheral/usart0.hpp ****     //!                 builds, always refer to the SYMBOLIC NAME, instead of
 132:funsape/peripheral/usart0.hpp ****     //!                 the VALUE.
 133:funsape/peripheral/usart0.hpp ****     //!
 134:funsape/peripheral/usart0.hpp ****     enum class ReceptionError : uint8_t {
 135:funsape/peripheral/usart0.hpp ****         NONE                            = 0,            //!< No reception errors occurred
 136:funsape/peripheral/usart0.hpp ****         FRAME_ERROR                     = (1 << 0),     //!< Frame format invalid
 137:funsape/peripheral/usart0.hpp ****         PARITY_ERROR                    = (1 << 1),     //!< Parity check failed
 138:funsape/peripheral/usart0.hpp ****         DATA_OVERRUN_ERROR              = (1 << 2),     //!< Data lost
GAS LISTING C:\Users\kenne\AppData\Local\Temp\cc4WHnAx.s 			page 57


 139:funsape/peripheral/usart0.hpp ****         ALL                             = (1 << 0) | (1 << 1) | (1 << 2)
 140:funsape/peripheral/usart0.hpp ****     };
 141:funsape/peripheral/usart0.hpp **** 
 142:funsape/peripheral/usart0.hpp ****     friend inlined ReceptionError operator|(ReceptionError a, ReceptionError b);
 143:funsape/peripheral/usart0.hpp ****     friend inlined ReceptionError &operator|=(ReceptionError &a, ReceptionError b);
 144:funsape/peripheral/usart0.hpp ****     friend inlined ReceptionError operator&(ReceptionError a, ReceptionError b);
 145:funsape/peripheral/usart0.hpp ****     friend inlined ReceptionError &operator&=(ReceptionError &a, ReceptionError b);
 146:funsape/peripheral/usart0.hpp ****     friend inlined ReceptionError operator~(ReceptionError a);
 147:funsape/peripheral/usart0.hpp **** 
 148:funsape/peripheral/usart0.hpp ****     //     /////////////////    USART0 Parity Mode     //////////////////     //
 149:funsape/peripheral/usart0.hpp ****     //!
 150:funsape/peripheral/usart0.hpp ****     //! \brief      USART0 Parity Mode enumeration
 151:funsape/peripheral/usart0.hpp ****     //! \details    Parity mode associated with the USART0.
 152:funsape/peripheral/usart0.hpp ****     //! \warning    The value associate with the symbolic names may change
 153:funsape/peripheral/usart0.hpp ****     //!                 between builds and might not reflect the register/bits
 154:funsape/peripheral/usart0.hpp ****     //!                 real values. In order to ensure compatibility between
 155:funsape/peripheral/usart0.hpp ****     //!                 builds, always refer to the SYMBOLIC NAME, instead of
 156:funsape/peripheral/usart0.hpp ****     //!                 the VALUE.
 157:funsape/peripheral/usart0.hpp ****     //!
 158:funsape/peripheral/usart0.hpp ****     enum class Parity : uint8_t {
 159:funsape/peripheral/usart0.hpp ****         NONE                            = 0,    //!< No parity.
 160:funsape/peripheral/usart0.hpp ****         ODD                             = 1,    //!< Odd parity.
 161:funsape/peripheral/usart0.hpp ****         EVEN                            = 2     //!< Even parity.
 162:funsape/peripheral/usart0.hpp ****     };
 163:funsape/peripheral/usart0.hpp **** 
 164:funsape/peripheral/usart0.hpp ****     //     //////////////////     USART0 StopBits     ///////////////////     //
 165:funsape/peripheral/usart0.hpp ****     //!
 166:funsape/peripheral/usart0.hpp ****     //! \brief      USART0 StopBits enumeration
 167:funsape/peripheral/usart0.hpp ****     //! \details    Number of stop bits associated with the USART0.
 168:funsape/peripheral/usart0.hpp ****     //! \warning    The value associate with the symbolic names may change
 169:funsape/peripheral/usart0.hpp ****     //!                 between builds and might not reflect the register/bits
 170:funsape/peripheral/usart0.hpp ****     //!                 real values. In order to ensure compatibility between
 171:funsape/peripheral/usart0.hpp ****     //!                 builds, always refer to the SYMBOLIC NAME, instead of
 172:funsape/peripheral/usart0.hpp ****     //!                 the VALUE.
 173:funsape/peripheral/usart0.hpp ****     //!
 174:funsape/peripheral/usart0.hpp ****     enum class StopBits : uint8_t {
 175:funsape/peripheral/usart0.hpp ****         SINGLE                          = 0,    //!< One stop bit
 176:funsape/peripheral/usart0.hpp ****         DOUBLE                          = 1     //|< Two stop bits
 177:funsape/peripheral/usart0.hpp ****     };
 178:funsape/peripheral/usart0.hpp **** 
 179:funsape/peripheral/usart0.hpp ****     //     //////////////////     USART0 DataSize     ///////////////////     //
 180:funsape/peripheral/usart0.hpp ****     //!
 181:funsape/peripheral/usart0.hpp ****     //! \brief      USART0 DataSize enumeration
 182:funsape/peripheral/usart0.hpp ****     //! \details    Data size associated with the USART0.
 183:funsape/peripheral/usart0.hpp ****     //! \warning    The value associate with the symbolic names may change
 184:funsape/peripheral/usart0.hpp ****     //!                 between builds and might not reflect the register/bits
 185:funsape/peripheral/usart0.hpp ****     //!                 real values. In order to ensure compatibility between
 186:funsape/peripheral/usart0.hpp ****     //!                 builds, always refer to the SYMBOLIC NAME, instead of
 187:funsape/peripheral/usart0.hpp ****     //!                 the VALUE.
 188:funsape/peripheral/usart0.hpp ****     //!
 189:funsape/peripheral/usart0.hpp ****     enum class DataSize : uint8_t {
 190:funsape/peripheral/usart0.hpp ****         DATA_5_BITS                     = 0,
 191:funsape/peripheral/usart0.hpp ****         DATA_6_BITS                     = 1,
 192:funsape/peripheral/usart0.hpp ****         DATA_7_BITS                     = 2,
 193:funsape/peripheral/usart0.hpp ****         DATA_8_BITS                     = 3,
 194:funsape/peripheral/usart0.hpp ****         DATA_9_BITS                     = 7,
 195:funsape/peripheral/usart0.hpp ****     };
GAS LISTING C:\Users\kenne\AppData\Local\Temp\cc4WHnAx.s 			page 58


 196:funsape/peripheral/usart0.hpp **** 
 197:funsape/peripheral/usart0.hpp ****     //     /////////////////    USART0 FrameFormat     //////////////////     //
 198:funsape/peripheral/usart0.hpp ****     //!
 199:funsape/peripheral/usart0.hpp ****     //! \brief      USART0 FrameFormat enumeration
 200:funsape/peripheral/usart0.hpp ****     //! \details    Frame format mode associated with the USART0.
 201:funsape/peripheral/usart0.hpp ****     //! \warning    The value associate with the symbolic names may change
 202:funsape/peripheral/usart0.hpp ****     //!                 between builds and might not reflect the register/bits
 203:funsape/peripheral/usart0.hpp ****     //!                 real values. In order to ensure compatibility between
 204:funsape/peripheral/usart0.hpp ****     //!                 builds, always refer to the SYMBOLIC NAME, instead of
 205:funsape/peripheral/usart0.hpp ****     //!                 the VALUE.
 206:funsape/peripheral/usart0.hpp ****     //!
 207:funsape/peripheral/usart0.hpp ****     enum class FrameFormat : uint8_t {
 208:funsape/peripheral/usart0.hpp ****         //                      = 0bDDDDPPSS
 209:funsape/peripheral/usart0.hpp ****         // DDDD -> Number of data bits (5-8)
 210:funsape/peripheral/usart0.hpp ****         // PP   -> Parity (NONE / ODD / EVEN)
 211:funsape/peripheral/usart0.hpp ****         // SS   -> Number of stop bits (1-2)
 212:funsape/peripheral/usart0.hpp ****         FRAME_FORMAT_8_N_1        = 0b10000001,
 213:funsape/peripheral/usart0.hpp ****         FRAME_FORMAT_8_O_1        = 0b10000101,
 214:funsape/peripheral/usart0.hpp ****         FRAME_FORMAT_8_E_1        = 0b10001001,
 215:funsape/peripheral/usart0.hpp ****         FRAME_FORMAT_8_N_2        = 0b10000010,
 216:funsape/peripheral/usart0.hpp ****         FRAME_FORMAT_8_O_2        = 0b10000110,
 217:funsape/peripheral/usart0.hpp ****         FRAME_FORMAT_8_E_2        = 0b10001010,
 218:funsape/peripheral/usart0.hpp ****         FRAME_FORMAT_9_N_1        = 0b10010001,
 219:funsape/peripheral/usart0.hpp ****         FRAME_FORMAT_9_O_1        = 0b10010101,
 220:funsape/peripheral/usart0.hpp ****         FRAME_FORMAT_9_E_1        = 0b10011001,
 221:funsape/peripheral/usart0.hpp ****         FRAME_FORMAT_9_N_2        = 0b10010010,
 222:funsape/peripheral/usart0.hpp ****         FRAME_FORMAT_9_O_2        = 0b10010110,
 223:funsape/peripheral/usart0.hpp ****         FRAME_FORMAT_9_E_2        = 0b10011010,
 224:funsape/peripheral/usart0.hpp ****         FRAME_FORMAT_5_N_1        = 0b01010001,
 225:funsape/peripheral/usart0.hpp ****         FRAME_FORMAT_5_O_1        = 0b01010101,
 226:funsape/peripheral/usart0.hpp ****         FRAME_FORMAT_5_E_1        = 0b01011001,
 227:funsape/peripheral/usart0.hpp ****         FRAME_FORMAT_5_N_2        = 0b01010010,
 228:funsape/peripheral/usart0.hpp ****         FRAME_FORMAT_5_O_2        = 0b01010110,
 229:funsape/peripheral/usart0.hpp ****         FRAME_FORMAT_5_E_2        = 0b01011010,
 230:funsape/peripheral/usart0.hpp ****         FRAME_FORMAT_6_N_1        = 0b01100001,
 231:funsape/peripheral/usart0.hpp ****         FRAME_FORMAT_6_O_1        = 0b01100101,
 232:funsape/peripheral/usart0.hpp ****         FRAME_FORMAT_6_E_1        = 0b01101001,
 233:funsape/peripheral/usart0.hpp ****         FRAME_FORMAT_6_N_2        = 0b01100010,
 234:funsape/peripheral/usart0.hpp ****         FRAME_FORMAT_6_O_2        = 0b01100110,
 235:funsape/peripheral/usart0.hpp ****         FRAME_FORMAT_6_E_2        = 0b01101010,
 236:funsape/peripheral/usart0.hpp ****         FRAME_FORMAT_7_N_1        = 0b01110001,
 237:funsape/peripheral/usart0.hpp ****         FRAME_FORMAT_7_O_1        = 0b01110101,
 238:funsape/peripheral/usart0.hpp ****         FRAME_FORMAT_7_E_1        = 0b01111001,
 239:funsape/peripheral/usart0.hpp ****         FRAME_FORMAT_7_N_2        = 0b01110010,
 240:funsape/peripheral/usart0.hpp ****         FRAME_FORMAT_7_O_2        = 0b01110110,
 241:funsape/peripheral/usart0.hpp ****         FRAME_FORMAT_7_E_2        = 0b01111010
 242:funsape/peripheral/usart0.hpp ****     };
 243:funsape/peripheral/usart0.hpp **** 
 244:funsape/peripheral/usart0.hpp ****     //     //////////////////    USART0 Baud Rate     ///////////////////     //
 245:funsape/peripheral/usart0.hpp ****     //!
 246:funsape/peripheral/usart0.hpp ****     //! \brief      USART0 Baud Rate enumeration
 247:funsape/peripheral/usart0.hpp ****     //! \details    Baud rate speed associated with the USART0.
 248:funsape/peripheral/usart0.hpp ****     //! \warning    The value associate with the symbolic names may change
 249:funsape/peripheral/usart0.hpp ****     //!                 between builds and might not reflect the register/bits
 250:funsape/peripheral/usart0.hpp ****     //!                 real values. In order to ensure compatibility between
 251:funsape/peripheral/usart0.hpp ****     //!                 builds, always refer to the SYMBOLIC NAME, instead of
 252:funsape/peripheral/usart0.hpp ****     //!                 the VALUE.
GAS LISTING C:\Users\kenne\AppData\Local\Temp\cc4WHnAx.s 			page 59


 253:funsape/peripheral/usart0.hpp ****     //!
 254:funsape/peripheral/usart0.hpp ****     enum class BaudRate : uint32_t {
 255:funsape/peripheral/usart0.hpp ****         BAUD_RATE_600                   = 600UL,
 256:funsape/peripheral/usart0.hpp ****         BAUD_RATE_1200                  = 1200UL,
 257:funsape/peripheral/usart0.hpp ****         BAUD_RATE_1800                  = 1800UL,
 258:funsape/peripheral/usart0.hpp ****         BAUD_RATE_2400                  = 2400UL,
 259:funsape/peripheral/usart0.hpp ****         BAUD_RATE_4800                  = 4800UL,
 260:funsape/peripheral/usart0.hpp ****         BAUD_RATE_9600                  = 9600UL,
 261:funsape/peripheral/usart0.hpp ****         BAUD_RATE_14400                 = 14400UL,
 262:funsape/peripheral/usart0.hpp ****         BAUD_RATE_19200                 = 19200UL,
 263:funsape/peripheral/usart0.hpp ****         BAUD_RATE_28800                 = 28800UL,
 264:funsape/peripheral/usart0.hpp ****         BAUD_RATE_38400                 = 38400UL,
 265:funsape/peripheral/usart0.hpp ****         BAUD_RATE_56000                 = 56000UL,
 266:funsape/peripheral/usart0.hpp ****         BAUD_RATE_57600                 = 57600UL,
 267:funsape/peripheral/usart0.hpp ****         BAUD_RATE_115200                = 115200UL,
 268:funsape/peripheral/usart0.hpp ****         BAUD_RATE_128000                = 128000UL,
 269:funsape/peripheral/usart0.hpp ****         BAUD_RATE_230400                = 230400UL,
 270:funsape/peripheral/usart0.hpp ****         BAUD_RATE_256000                = 256000UL
 271:funsape/peripheral/usart0.hpp ****     };
 272:funsape/peripheral/usart0.hpp ****     // -------------------------------------------------------------------------
 273:funsape/peripheral/usart0.hpp ****     // Constructors ------------------------------------------------------------
 274:funsape/peripheral/usart0.hpp **** public:
 275:funsape/peripheral/usart0.hpp ****     //!
 276:funsape/peripheral/usart0.hpp ****     //! \brief      Usart0 class constructor
 277:funsape/peripheral/usart0.hpp ****     //! \details    Creates an Usart0 object
 278:funsape/peripheral/usart0.hpp ****     //!
 279:funsape/peripheral/usart0.hpp ****     Usart0(
 280:funsape/peripheral/usart0.hpp ****             BaudRate baudRate_p = BaudRate::BAUD_RATE_9600,
 281:funsape/peripheral/usart0.hpp ****             Mode mode_p = Mode::ASYNCHRONOUS,
 282:funsape/peripheral/usart0.hpp ****             FrameFormat format = FrameFormat::FRAME_FORMAT_8_N_1
 283:funsape/peripheral/usart0.hpp ****     );
 284:funsape/peripheral/usart0.hpp **** 
 285:funsape/peripheral/usart0.hpp ****     //!
 286:funsape/peripheral/usart0.hpp ****     //! \brief      Usart0 class constructor
 287:funsape/peripheral/usart0.hpp ****     //! \details    Creates an Usart0 object
 288:funsape/peripheral/usart0.hpp ****     //!
 289:funsape/peripheral/usart0.hpp ****     ~Usart0(
 290:funsape/peripheral/usart0.hpp ****             void
 291:funsape/peripheral/usart0.hpp ****     );
 292:funsape/peripheral/usart0.hpp **** 
 293:funsape/peripheral/usart0.hpp ****     // -------------------------------------------------------------------------
 294:funsape/peripheral/usart0.hpp ****     // Methods -----------------------------------------------------------------
 295:funsape/peripheral/usart0.hpp **** public:
 296:funsape/peripheral/usart0.hpp ****     //     ///////////////////     CONFIGURATION     ////////////////////     //
 297:funsape/peripheral/usart0.hpp **** 
 298:funsape/peripheral/usart0.hpp ****     //!
 299:funsape/peripheral/usart0.hpp ****     //! \brief      Initializes the USART0 module
 300:funsape/peripheral/usart0.hpp ****     //! \details    Initializes the USART0 module.
 301:funsape/peripheral/usart0.hpp ****     //! \return     bool_t              True on success / False on failure
 302:funsape/peripheral/usart0.hpp ****     //!
 303:funsape/peripheral/usart0.hpp ****     bool_t init(
 304:funsape/peripheral/usart0.hpp ****             void
 305:funsape/peripheral/usart0.hpp ****     );
 306:funsape/peripheral/usart0.hpp **** 
 307:funsape/peripheral/usart0.hpp ****     //!
 308:funsape/peripheral/usart0.hpp ****     //! \brief      Disables USART receiver
 309:funsape/peripheral/usart0.hpp ****     //! \details    Disables USART receiver
GAS LISTING C:\Users\kenne\AppData\Local\Temp\cc4WHnAx.s 			page 60


 310:funsape/peripheral/usart0.hpp ****     //!
 311:funsape/peripheral/usart0.hpp ****     void inlined disableReceiver(void);
 312:funsape/peripheral/usart0.hpp **** 
 313:funsape/peripheral/usart0.hpp ****     //!
 314:funsape/peripheral/usart0.hpp ****     //! \brief      Disables USART transmitter
 315:funsape/peripheral/usart0.hpp ****     //! \details    Disables USART transmitter
 316:funsape/peripheral/usart0.hpp ****     //!
 317:funsape/peripheral/usart0.hpp ****     void inlined disableTransmitter(void);
 318:funsape/peripheral/usart0.hpp **** 
 319:funsape/peripheral/usart0.hpp ****     //!
 320:funsape/peripheral/usart0.hpp ****     //! \brief      Enables USART receiver
 321:funsape/peripheral/usart0.hpp ****     //! \details    Enables USART receiver
 322:funsape/peripheral/usart0.hpp ****     //!
 323:funsape/peripheral/usart0.hpp ****     void inlined enableReceiver(void);
 324:funsape/peripheral/usart0.hpp **** 
 325:funsape/peripheral/usart0.hpp ****     //!
 326:funsape/peripheral/usart0.hpp ****     //! \brief      Enables USART transmitter
 327:funsape/peripheral/usart0.hpp ****     //! \details    Enables USART transmitter
 328:funsape/peripheral/usart0.hpp ****     //!
 329:funsape/peripheral/usart0.hpp ****     void inlined enableTransmitter(void);
 330:funsape/peripheral/usart0.hpp **** 
 331:funsape/peripheral/usart0.hpp ****     //!
 332:funsape/peripheral/usart0.hpp ****     //! \brief          Sets data size
 333:funsape/peripheral/usart0.hpp ****     //! \details        Sets data size.
 334:funsape/peripheral/usart0.hpp ****     //! \param          dataSize_p      Data size
 335:funsape/peripheral/usart0.hpp ****     //!
 336:funsape/peripheral/usart0.hpp ****     bool_t setDataSize(
 337:funsape/peripheral/usart0.hpp ****             const DataSize dataSize_p
 338:funsape/peripheral/usart0.hpp ****     );
 339:funsape/peripheral/usart0.hpp **** 
 340:funsape/peripheral/usart0.hpp ****     bool_t setMode(
 341:funsape/peripheral/usart0.hpp ****             const Mode mode_p
 342:funsape/peripheral/usart0.hpp ****     );
 343:funsape/peripheral/usart0.hpp **** 
 344:funsape/peripheral/usart0.hpp ****     bool_t setStopBits(
 345:funsape/peripheral/usart0.hpp ****             const StopBits stopBits_p
 346:funsape/peripheral/usart0.hpp ****     );
 347:funsape/peripheral/usart0.hpp **** 
 348:funsape/peripheral/usart0.hpp ****     bool_t setParity(
 349:funsape/peripheral/usart0.hpp ****             const Parity parity_p
 350:funsape/peripheral/usart0.hpp ****     );
 351:funsape/peripheral/usart0.hpp **** 
 352:funsape/peripheral/usart0.hpp ****     bool_t setBaudRate(
 353:funsape/peripheral/usart0.hpp ****             const BaudRate baudRate_p
 354:funsape/peripheral/usart0.hpp ****     );
 355:funsape/peripheral/usart0.hpp **** 
 356:funsape/peripheral/usart0.hpp ****     bool_t setFrameFormat(
 357:funsape/peripheral/usart0.hpp ****             const FrameFormat frameFormat_p
 358:funsape/peripheral/usart0.hpp ****     );
 359:funsape/peripheral/usart0.hpp **** 
 360:funsape/peripheral/usart0.hpp ****     //     ///////////////////////     STATUS    ////////////////////////     //
 361:funsape/peripheral/usart0.hpp **** 
 362:funsape/peripheral/usart0.hpp ****     //!
 363:funsape/peripheral/usart0.hpp ****     //! \brief      Verifies reception status
 364:funsape/peripheral/usart0.hpp ****     //! \details    Verifies reception status.
 365:funsape/peripheral/usart0.hpp ****     //! \return     bool_t              True on reception ended / False otherwise
 366:funsape/peripheral/usart0.hpp ****     //!
GAS LISTING C:\Users\kenne\AppData\Local\Temp\cc4WHnAx.s 			page 61


 367:funsape/peripheral/usart0.hpp ****     bool_t inlined isReceptionComplete(void);
 368:funsape/peripheral/usart0.hpp **** 
 369:funsape/peripheral/usart0.hpp ****     //!
 370:funsape/peripheral/usart0.hpp ****     //! \brief      Verifies transmission buffer status
 371:funsape/peripheral/usart0.hpp ****     //! \details    Verifies transmission buffer status.
 372:funsape/peripheral/usart0.hpp ****     //! \return     bool_t              True on buffer empty / False otherwise
 373:funsape/peripheral/usart0.hpp ****     //!
 374:funsape/peripheral/usart0.hpp ****     bool_t inlined isTransmissionBufferEmpty(void);
 375:funsape/peripheral/usart0.hpp **** 
 376:funsape/peripheral/usart0.hpp ****     //!
 377:funsape/peripheral/usart0.hpp ****     //! \brief      Verifies transmission status
 378:funsape/peripheral/usart0.hpp ****     //! \details    Verifies transmission status.
 379:funsape/peripheral/usart0.hpp ****     //! \return     bool_t              True on transmission ended / False otherwise
 380:funsape/peripheral/usart0.hpp ****     //!
 381:funsape/peripheral/usart0.hpp ****     bool_t inlined isTransmissionComplete(void);
 382:funsape/peripheral/usart0.hpp **** 
 383:funsape/peripheral/usart0.hpp ****     //!
 384:funsape/peripheral/usart0.hpp ****     //! \brief      Get status of the last reception
 385:funsape/peripheral/usart0.hpp ****     //! \details    Get status of the last reception.
 386:funsape/peripheral/usart0.hpp ****     //! \param      errorCode_p         Pointer to store the reception error code
 387:funsape/peripheral/usart0.hpp ****     //! \return     bool_t              True on success / False on failure
 388:funsape/peripheral/usart0.hpp ****     //!
 389:funsape/peripheral/usart0.hpp ****     bool_t getReceptionStatus(
 390:funsape/peripheral/usart0.hpp ****             ReceptionError *errorCode_p
 391:funsape/peripheral/usart0.hpp ****     );
 392:funsape/peripheral/usart0.hpp **** 
 393:funsape/peripheral/usart0.hpp ****     //     /////////////////////     INTERRUPTS    //////////////////////     //
 394:funsape/peripheral/usart0.hpp **** 
 395:funsape/peripheral/usart0.hpp ****     //!
 396:funsape/peripheral/usart0.hpp ****     //! \brief      Activates Reception Complete interrupt
 397:funsape/peripheral/usart0.hpp ****     //! \details    Activates Reception Complete interrupt.
 398:funsape/peripheral/usart0.hpp ****     //!
 399:funsape/peripheral/usart0.hpp ****     void inlined activateReceptionCompleteInterrupt(void);
 400:funsape/peripheral/usart0.hpp **** 
 401:funsape/peripheral/usart0.hpp ****     //!
 402:funsape/peripheral/usart0.hpp ****     //! \brief      Activates Transmission Buffer Empty interrupt
 403:funsape/peripheral/usart0.hpp ****     //! \details    Activates Transmission Buffer Empty interrupt.
 404:funsape/peripheral/usart0.hpp ****     //!
 405:funsape/peripheral/usart0.hpp ****     void inlined activateTransmissionBufferEmptyInterrupt(void);
 406:funsape/peripheral/usart0.hpp **** 
 407:funsape/peripheral/usart0.hpp ****     //!
 408:funsape/peripheral/usart0.hpp ****     //! \brief      Activates Transmission Complete interrupt
 409:funsape/peripheral/usart0.hpp ****     //! \details    Activates Transmission Complete interrupt.
 410:funsape/peripheral/usart0.hpp ****     //!
 411:funsape/peripheral/usart0.hpp ****     void inlined activateTransmissionCompleteInterrupt(void);
 412:funsape/peripheral/usart0.hpp **** 
 413:funsape/peripheral/usart0.hpp ****     //!
 414:funsape/peripheral/usart0.hpp ****     //! \brief      Deactivates Reception Complete interrupt
 415:funsape/peripheral/usart0.hpp ****     //! \details    Deactivates Reception Complete interrupt
 416:funsape/peripheral/usart0.hpp ****     //!
 417:funsape/peripheral/usart0.hpp ****     void inlined deactivateReceptionCompleteInterrupt(void);
 418:funsape/peripheral/usart0.hpp **** 
 419:funsape/peripheral/usart0.hpp ****     //!
 420:funsape/peripheral/usart0.hpp ****     //! \brief      Deactivates Transmission Buffer Empty interrupt
 421:funsape/peripheral/usart0.hpp ****     //! \details    Deactivates Transmission Buffer Empty interrupt.
 422:funsape/peripheral/usart0.hpp ****     //!
 423:funsape/peripheral/usart0.hpp ****     void inlined deactivateTransmissionBufferEmptyInterrupt(void) ;
GAS LISTING C:\Users\kenne\AppData\Local\Temp\cc4WHnAx.s 			page 62


 424:funsape/peripheral/usart0.hpp **** 
 425:funsape/peripheral/usart0.hpp ****     //!
 426:funsape/peripheral/usart0.hpp ****     //! \brief      Deactivates Transmission Complete interrupt
 427:funsape/peripheral/usart0.hpp ****     //! \details    Deactivates Transmission Complete interrupt.
 428:funsape/peripheral/usart0.hpp ****     //!
 429:funsape/peripheral/usart0.hpp ****     void inlined deactivateTransmissionCompleteInterrupt(void);
 430:funsape/peripheral/usart0.hpp **** 
 431:funsape/peripheral/usart0.hpp ****     //!
 432:funsape/peripheral/usart0.hpp ****     //! \brief      Redirects standard i/o streams
 433:funsape/peripheral/usart0.hpp ****     //! \details    Redirects standard i/o streams.
 434:funsape/peripheral/usart0.hpp ****     //!
 435:funsape/peripheral/usart0.hpp ****     void inlined stdio(void);
 436:funsape/peripheral/usart0.hpp **** 
 437:funsape/peripheral/usart0.hpp ****     // UCSRA    U2X0
 438:funsape/peripheral/usart0.hpp ****     // UCSRA    MPCM0
 439:funsape/peripheral/usart0.hpp **** 
 440:funsape/peripheral/usart0.hpp ****     bool_t write(cuint16_t data_p);
 441:funsape/peripheral/usart0.hpp ****     bool_t read(uint8_t *data_p);
 442:funsape/peripheral/usart0.hpp ****     void flushReceptionBuffer(void);
 443:funsape/peripheral/usart0.hpp ****     char receiveDataStd(FILE *stream_p);
 444:funsape/peripheral/usart0.hpp ****     int16_t sendDataStd(char data_p, FILE *stream_p);
 445:funsape/peripheral/usart0.hpp **** 
 446:funsape/peripheral/usart0.hpp **** 
 447:funsape/peripheral/usart0.hpp **** private:
 448:funsape/peripheral/usart0.hpp ****     char _receiveDataStd(FILE *stream_p);
 449:funsape/peripheral/usart0.hpp ****     void _clearDataOverrunError(void);
 450:funsape/peripheral/usart0.hpp ****     void _clearFrameError(void);
 451:funsape/peripheral/usart0.hpp ****     void _clearParityError(void);
 452:funsape/peripheral/usart0.hpp **** 
 453:funsape/peripheral/usart0.hpp ****     // -------------------------------------------------------------------------
 454:funsape/peripheral/usart0.hpp ****     // Properties --------------------------------------------------------------
 455:funsape/peripheral/usart0.hpp **** private:
 456:funsape/peripheral/usart0.hpp ****     //     ////////////////     RECEPTION ERROR FLAGS    ////////////////     //
 457:funsape/peripheral/usart0.hpp ****     bool_t  _isDataOverrunError                         : 1;
 458:funsape/peripheral/usart0.hpp ****     bool_t  _isFrameError                               : 1;
 459:funsape/peripheral/usart0.hpp ****     bool_t  _isParityError                              : 1;
 460:funsape/peripheral/usart0.hpp **** 
 461:funsape/peripheral/usart0.hpp ****     //     /////////////////     CONTROL AND STATUS     /////////////////     //
 462:funsape/peripheral/usart0.hpp ****     bool_t  _isInitialized                              : 1;
 463:funsape/peripheral/usart0.hpp ****     bool_t  _isReceiverEnabled                          : 1;
 464:funsape/peripheral/usart0.hpp ****     bool_t  _isReceptionCompleteInterruptEnabled        : 1;
 465:funsape/peripheral/usart0.hpp ****     bool_t  _isTransmissionBufferEmptyInterruptEnabled  : 1;
 466:funsape/peripheral/usart0.hpp ****     bool_t  _isTransmissionCompleteInterruptEnabled     : 1;
 467:funsape/peripheral/usart0.hpp ****     bool_t  _isTransmitterEnabled                       : 1;
 468:funsape/peripheral/usart0.hpp ****     Error   _lastError;
 469:funsape/peripheral/usart0.hpp **** 
 470:funsape/peripheral/usart0.hpp ****     //     ////////////////////     CONFIGURATION    ////////////////////     //
 471:funsape/peripheral/usart0.hpp ****     DataSize        _dataSize;
 472:funsape/peripheral/usart0.hpp ****     Mode            _mode;
 473:funsape/peripheral/usart0.hpp ****     BaudRate        _baudRate;
 474:funsape/peripheral/usart0.hpp ****     Parity          _parity;
 475:funsape/peripheral/usart0.hpp ****     StopBits        _stopBits;
 476:funsape/peripheral/usart0.hpp **** }; // class Usart0
 477:funsape/peripheral/usart0.hpp **** 
 478:funsape/peripheral/usart0.hpp **** // =============================================================================
 479:funsape/peripheral/usart0.hpp **** // Class inlined functions
 480:funsape/peripheral/usart0.hpp **** // =============================================================================
GAS LISTING C:\Users\kenne\AppData\Local\Temp\cc4WHnAx.s 			page 63


 481:funsape/peripheral/usart0.hpp **** 
 482:funsape/peripheral/usart0.hpp **** void inlined Usart0::disableReceiver(void)
 483:funsape/peripheral/usart0.hpp **** {
 484:funsape/peripheral/usart0.hpp ****     clrBit(UCSR0B, RXEN0);
 485:funsape/peripheral/usart0.hpp ****     return;
 486:funsape/peripheral/usart0.hpp **** }
 487:funsape/peripheral/usart0.hpp **** 
 488:funsape/peripheral/usart0.hpp **** void inlined Usart0::disableTransmitter(void)
 489:funsape/peripheral/usart0.hpp **** {
 490:funsape/peripheral/usart0.hpp ****     clrBit(UCSR0B, TXEN0);
 491:funsape/peripheral/usart0.hpp ****     return;
 492:funsape/peripheral/usart0.hpp **** }
 493:funsape/peripheral/usart0.hpp **** 
 494:funsape/peripheral/usart0.hpp **** void inlined Usart0::enableReceiver(void)
 495:funsape/peripheral/usart0.hpp **** {
 496:funsape/peripheral/usart0.hpp ****     setBit(UCSR0B, RXEN0);
 497:funsape/peripheral/usart0.hpp ****     return;
 498:funsape/peripheral/usart0.hpp **** }
 499:funsape/peripheral/usart0.hpp **** 
 500:funsape/peripheral/usart0.hpp **** void inlined Usart0::enableTransmitter(void)
 501:funsape/peripheral/usart0.hpp **** {
 502:funsape/peripheral/usart0.hpp ****     setBit(UCSR0B, TXEN0);
 503:funsape/peripheral/usart0.hpp ****     return;
 504:funsape/peripheral/usart0.hpp **** }
 505:funsape/peripheral/usart0.hpp **** 
 506:funsape/peripheral/usart0.hpp **** bool_t inlined Usart0::isReceptionComplete(void)
 507:funsape/peripheral/usart0.hpp **** {
 508:funsape/peripheral/usart0.hpp ****     return isBitSet(UCSR0A, RXC0);
 509:funsape/peripheral/usart0.hpp **** }
 510:funsape/peripheral/usart0.hpp **** 
 511:funsape/peripheral/usart0.hpp **** bool_t inlined Usart0::isTransmissionBufferEmpty(void)
 512:funsape/peripheral/usart0.hpp **** {
 513:funsape/peripheral/usart0.hpp ****     return isBitSet(UCSR0A, UDRE0);
 514:funsape/peripheral/usart0.hpp **** }
 515:funsape/peripheral/usart0.hpp **** 
 516:funsape/peripheral/usart0.hpp **** bool_t inlined Usart0::isTransmissionComplete(void)
 517:funsape/peripheral/usart0.hpp **** {
 518:funsape/peripheral/usart0.hpp ****     return isBitSet(UCSR0A, TXC0);
 519:funsape/peripheral/usart0.hpp **** }
 520:funsape/peripheral/usart0.hpp **** 
 521:funsape/peripheral/usart0.hpp **** void inlined Usart0::activateReceptionCompleteInterrupt(void)
 522:funsape/peripheral/usart0.hpp **** {
 523:funsape/peripheral/usart0.hpp ****     setBit(UCSR0B, RXCIE0);
 524:funsape/peripheral/usart0.hpp ****     return;
 525:funsape/peripheral/usart0.hpp **** }
 526:funsape/peripheral/usart0.hpp **** 
 527:funsape/peripheral/usart0.hpp **** void inlined Usart0::activateTransmissionBufferEmptyInterrupt(void)
 528:funsape/peripheral/usart0.hpp **** {
 529:funsape/peripheral/usart0.hpp ****     setBit(UCSR0B, UDRIE0);
 530:funsape/peripheral/usart0.hpp ****     return;
 531:funsape/peripheral/usart0.hpp **** }
 532:funsape/peripheral/usart0.hpp **** 
 533:funsape/peripheral/usart0.hpp **** void inlined Usart0::activateTransmissionCompleteInterrupt(void)
 534:funsape/peripheral/usart0.hpp **** {
 535:funsape/peripheral/usart0.hpp ****     setBit(UCSR0B, TXCIE0);
 536:funsape/peripheral/usart0.hpp ****     return;
 537:funsape/peripheral/usart0.hpp **** }
GAS LISTING C:\Users\kenne\AppData\Local\Temp\cc4WHnAx.s 			page 64


 538:funsape/peripheral/usart0.hpp **** 
 539:funsape/peripheral/usart0.hpp **** void inlined Usart0::deactivateReceptionCompleteInterrupt(void)
 540:funsape/peripheral/usart0.hpp **** {
 541:funsape/peripheral/usart0.hpp ****     clrBit(UCSR0B, RXCIE0);
 542:funsape/peripheral/usart0.hpp ****     return;
 543:funsape/peripheral/usart0.hpp **** }
 544:funsape/peripheral/usart0.hpp **** 
 545:funsape/peripheral/usart0.hpp **** void inlined Usart0::deactivateTransmissionBufferEmptyInterrupt(void)
 546:funsape/peripheral/usart0.hpp **** {
 547:funsape/peripheral/usart0.hpp ****     clrBit(UCSR0B, UDRIE0);
 548:funsape/peripheral/usart0.hpp ****     return;
 549:funsape/peripheral/usart0.hpp **** }
 550:funsape/peripheral/usart0.hpp **** 
 551:funsape/peripheral/usart0.hpp **** void inlined Usart0::deactivateTransmissionCompleteInterrupt(void)
 552:funsape/peripheral/usart0.hpp **** {
 553:funsape/peripheral/usart0.hpp ****     clrBit(UCSR0B, TXCIE0);
 554:funsape/peripheral/usart0.hpp ****     return;
 555:funsape/peripheral/usart0.hpp **** }
 556:funsape/peripheral/usart0.hpp **** 
 557:funsape/peripheral/usart0.hpp **** void inlined Usart0::stdio(void)
 558:funsape/peripheral/usart0.hpp **** {
 559:funsape/peripheral/usart0.hpp ****     stdin = stdout = stderr = &usartStream;
 560:funsape/peripheral/usart0.hpp ****     return;
 561:funsape/peripheral/usart0.hpp **** }
 562:funsape/peripheral/usart0.hpp **** 
 563:funsape/peripheral/usart0.hpp **** Usart0::ReceptionError inlined operator|(Usart0::ReceptionError a, Usart0::ReceptionError b)
 564:funsape/peripheral/usart0.hpp **** {
 565:funsape/peripheral/usart0.hpp ****     return static_cast<Usart0::ReceptionError>(static_cast<cuint8_t>(a) | static_cast<cuint8_t>(b))
 566:funsape/peripheral/usart0.hpp **** }
 567:funsape/peripheral/usart0.hpp **** 
 568:funsape/peripheral/usart0.hpp **** Usart0::ReceptionError inlined &operator|=(Usart0::ReceptionError &a, Usart0::ReceptionError b)
 1527               		.loc 3 568 33 view .LVU439
 1528               	.LBB21:
 569:funsape/peripheral/usart0.hpp **** {
 570:funsape/peripheral/usart0.hpp ****     return a = static_cast<Usart0::ReceptionError>(static_cast<uint8_t>(a) | static_cast<cuint8_t>(
 1529               		.loc 3 570 5 view .LVU440
 1530               		.loc 3 570 14 is_stmt 0 view .LVU441
 1531 0014 84E0      		ldi r24,lo8(4)
 1532 0016 8083      		st Z,r24
 1533               	.LVL85:
 1534               	.L82:
 1535               		.loc 3 570 14 view .LVU442
 1536               	.LBE21:
 1537               	.LBE20:
 400:funsape/peripheral/usart0.cpp ****         *errorCode_p |= Usart0::ReceptionError::FRAME_ERROR;
 1538               		.loc 2 400 5 is_stmt 1 view .LVU443
 400:funsape/peripheral/usart0.cpp ****         *errorCode_p |= Usart0::ReceptionError::FRAME_ERROR;
 1539               		.loc 2 400 14 is_stmt 0 view .LVU444
 1540 0018 8C91      		ld r24,X
 400:funsape/peripheral/usart0.cpp ****         *errorCode_p |= Usart0::ReceptionError::FRAME_ERROR;
 1541               		.loc 2 400 5 view .LVU445
 1542 001a 81FF      		sbrs r24,1
 1543 001c 00C0      		rjmp .L83
 401:funsape/peripheral/usart0.cpp ****     }
 1544               		.loc 2 401 9 is_stmt 1 view .LVU446
