GAS LISTING C:\Users\kenne\AppData\Local\Temp\ccWhffpB.s 			page 1


   1               		.file	"apiParser.cpp"
   2               	__SP_H__ = 0x3e
   3               	__SP_L__ = 0x3d
   4               	__SREG__ = 0x3f
   5               	__tmp_reg__ = 0
   6               	__zero_reg__ = 1
   7               		.text
   8               	.Ltext0:
   9               		.cfi_sections	.debug_frame
  10               		.file 0 "C:\\D\\IFSC\\MCC\\projects\\final_leandro" "funsape/util/apiParser.cpp"
  11               		.section	.text._Z7getTickv,"ax",@progbits
  12               		.weak	_Z7getTickv
  14               	_Z7getTickv:
  15               	.LFB32:
  16               		.file 1 "funsape/util/../globalDefines.hpp"
   1:funsape/util/../globalDefines.hpp **** //!
   2:funsape/util/../globalDefines.hpp **** //! \file           globalDefines.hpp
   3:funsape/util/../globalDefines.hpp **** //! \brief          Global definitions file
   4:funsape/util/../globalDefines.hpp **** //! \author         Leandro Schwarz (bladabuska+funsapeavr8lib@gmail.com)
   5:funsape/util/../globalDefines.hpp **** //! \date           2023-04-05
   6:funsape/util/../globalDefines.hpp **** //! \version        23.04
   7:funsape/util/../globalDefines.hpp **** //! \copyright      license
   8:funsape/util/../globalDefines.hpp **** //! \details        Global definitions file.
   9:funsape/util/../globalDefines.hpp **** //! \todo           Todo list
  10:funsape/util/../globalDefines.hpp **** //!
  11:funsape/util/../globalDefines.hpp **** 
  12:funsape/util/../globalDefines.hpp **** // =============================================================================
  13:funsape/util/../globalDefines.hpp **** // Include guard (START)
  14:funsape/util/../globalDefines.hpp **** // =============================================================================
  15:funsape/util/../globalDefines.hpp **** 
  16:funsape/util/../globalDefines.hpp **** #ifndef __GLOBAL_DEFINES_HPP
  17:funsape/util/../globalDefines.hpp **** #define __GLOBAL_DEFINES_HPP                    2304
  18:funsape/util/../globalDefines.hpp **** 
  19:funsape/util/../globalDefines.hpp **** // =============================================================================
  20:funsape/util/../globalDefines.hpp **** // Basic definitions
  21:funsape/util/../globalDefines.hpp **** // =============================================================================
  22:funsape/util/../globalDefines.hpp **** 
  23:funsape/util/../globalDefines.hpp **** #ifndef F_CPU
  24:funsape/util/../globalDefines.hpp **** #   define F_CPU    16000000UL
  25:funsape/util/../globalDefines.hpp **** #endif
  26:funsape/util/../globalDefines.hpp **** 
  27:funsape/util/../globalDefines.hpp **** // =============================================================================
  28:funsape/util/../globalDefines.hpp **** // Dependencies
  29:funsape/util/../globalDefines.hpp **** // =============================================================================
  30:funsape/util/../globalDefines.hpp **** 
  31:funsape/util/../globalDefines.hpp **** //     //////////////////     AVR STANDARD LIBRARY     //////////////////     //
  32:funsape/util/../globalDefines.hpp **** #include <avr/io.h>
  33:funsape/util/../globalDefines.hpp **** #include <avr/interrupt.h>
  34:funsape/util/../globalDefines.hpp **** #include <util/delay.h>
  35:funsape/util/../globalDefines.hpp **** #include <util/atomic.h>
  36:funsape/util/../globalDefines.hpp **** 
  37:funsape/util/../globalDefines.hpp **** //     ///////////////////     STANDARD C LIBRARY     ///////////////////     //
  38:funsape/util/../globalDefines.hpp **** #include <stddef.h>
  39:funsape/util/../globalDefines.hpp **** #include <stdint.h>
  40:funsape/util/../globalDefines.hpp **** #include <stdio.h>
  41:funsape/util/../globalDefines.hpp **** #include <stdlib.h>
  42:funsape/util/../globalDefines.hpp **** #include <string.h>
GAS LISTING C:\Users\kenne\AppData\Local\Temp\ccWhffpB.s 			page 2


  43:funsape/util/../globalDefines.hpp **** 
  44:funsape/util/../globalDefines.hpp **** //     //////////////////     LIBRARY DEPENDENCIES     //////////////////     //
  45:funsape/util/../globalDefines.hpp **** #include "pinout.hpp"
  46:funsape/util/../globalDefines.hpp **** #if !defined(__PINOUT_HPP)
  47:funsape/util/../globalDefines.hpp **** #   error "Header file (pinout.hpp) is corrupted!"
  48:funsape/util/../globalDefines.hpp **** #elif __PINOUT_HPP != __GLOBAL_DEFINES_HPP
  49:funsape/util/../globalDefines.hpp **** #   error "Version mismatch between header file and library dependency (pinout.hpp)!"
  50:funsape/util/../globalDefines.hpp **** #endif
  51:funsape/util/../globalDefines.hpp **** 
  52:funsape/util/../globalDefines.hpp **** // =============================================================================
  53:funsape/util/../globalDefines.hpp **** // Undefining previous definitions
  54:funsape/util/../globalDefines.hpp **** // =============================================================================
  55:funsape/util/../globalDefines.hpp **** 
  56:funsape/util/../globalDefines.hpp **** // NONE
  57:funsape/util/../globalDefines.hpp **** 
  58:funsape/util/../globalDefines.hpp **** // =============================================================================
  59:funsape/util/../globalDefines.hpp **** // Constant definitions
  60:funsape/util/../globalDefines.hpp **** // =============================================================================
  61:funsape/util/../globalDefines.hpp **** 
  62:funsape/util/../globalDefines.hpp **** #define inlined                         inline __attribute__((always_inline))
  63:funsape/util/../globalDefines.hpp **** #define weakened                        __attribute__((weak))
  64:funsape/util/../globalDefines.hpp **** 
  65:funsape/util/../globalDefines.hpp **** // =============================================================================
  66:funsape/util/../globalDefines.hpp **** // New data types
  67:funsape/util/../globalDefines.hpp **** // =============================================================================
  68:funsape/util/../globalDefines.hpp **** 
  69:funsape/util/../globalDefines.hpp **** //     ////////////////////     BASIC VARIABLES     /////////////////////     //
  70:funsape/util/../globalDefines.hpp **** typedef bool                            bool_t;
  71:funsape/util/../globalDefines.hpp **** typedef char                            char_t;
  72:funsape/util/../globalDefines.hpp **** 
  73:funsape/util/../globalDefines.hpp **** //     ///////////////////     CONSTANT VARIABLES    ////////////////////     //
  74:funsape/util/../globalDefines.hpp **** typedef const bool_t                    cbool_t;
  75:funsape/util/../globalDefines.hpp **** typedef const char_t                    cchar_t;
  76:funsape/util/../globalDefines.hpp **** typedef const int8_t                    cint8_t;
  77:funsape/util/../globalDefines.hpp **** typedef const int16_t                   cint16_t;
  78:funsape/util/../globalDefines.hpp **** typedef const int32_t                   cint32_t;
  79:funsape/util/../globalDefines.hpp **** typedef const int64_t                   cint64_t;
  80:funsape/util/../globalDefines.hpp **** typedef const uint8_t                   cuint8_t;
  81:funsape/util/../globalDefines.hpp **** typedef const uint16_t                  cuint16_t;
  82:funsape/util/../globalDefines.hpp **** typedef const uint32_t                  cuint32_t;
  83:funsape/util/../globalDefines.hpp **** typedef const uint64_t                  cuint64_t;
  84:funsape/util/../globalDefines.hpp **** 
  85:funsape/util/../globalDefines.hpp **** //     ///////////////////     VOLATILE VARIABLES    ////////////////////     //
  86:funsape/util/../globalDefines.hpp **** typedef volatile bool_t                 vbool_t;
  87:funsape/util/../globalDefines.hpp **** typedef volatile char_t                 vchar_t;
  88:funsape/util/../globalDefines.hpp **** typedef volatile int8_t                 vint8_t;
  89:funsape/util/../globalDefines.hpp **** typedef volatile int16_t                vint16_t;
  90:funsape/util/../globalDefines.hpp **** typedef volatile int32_t                vint32_t;
  91:funsape/util/../globalDefines.hpp **** typedef volatile int64_t                vint64_t;
  92:funsape/util/../globalDefines.hpp **** typedef volatile uint8_t                vuint8_t;
  93:funsape/util/../globalDefines.hpp **** typedef volatile uint16_t               vuint16_t;
  94:funsape/util/../globalDefines.hpp **** typedef volatile uint32_t               vuint32_t;
  95:funsape/util/../globalDefines.hpp **** typedef volatile uint64_t               vuint64_t;
  96:funsape/util/../globalDefines.hpp **** 
  97:funsape/util/../globalDefines.hpp **** //     /////////////////     AVR PLATFORM VARIABLES    //////////////////     //
  98:funsape/util/../globalDefines.hpp **** typedef int16_t                         int_t;          // 16-bit (AVR)
  99:funsape/util/../globalDefines.hpp **** typedef uint16_t                        uint_t;         // 16-bit (AVR)
GAS LISTING C:\Users\kenne\AppData\Local\Temp\ccWhffpB.s 			page 3


 100:funsape/util/../globalDefines.hpp **** typedef cint16_t                        cint_t;         // 16-bit (AVR)
 101:funsape/util/../globalDefines.hpp **** typedef cuint16_t                       cuint_t;        // 16-bit (AVR)
 102:funsape/util/../globalDefines.hpp **** typedef vint16_t                        vint_t;         // 16-bit (AVR)
 103:funsape/util/../globalDefines.hpp **** typedef vuint16_t                       vuint_t;        // 16-bit (AVR)
 104:funsape/util/../globalDefines.hpp **** typedef uint8_t                         ioPinIndex_t;   // 8-bit (AVR)
 105:funsape/util/../globalDefines.hpp **** typedef vuint8_t                       *ioRegAddress_t; // 8-bit address (AVR)
 106:funsape/util/../globalDefines.hpp **** 
 107:funsape/util/../globalDefines.hpp **** //     //////////////////     BINARY ENUMERATIONS     ///////////////////     //
 108:funsape/util/../globalDefines.hpp **** enum class Activation : cbool_t {
 109:funsape/util/../globalDefines.hpp ****     OFF                                 = false,
 110:funsape/util/../globalDefines.hpp ****     ON                                  = true
 111:funsape/util/../globalDefines.hpp **** };
 112:funsape/util/../globalDefines.hpp **** 
 113:funsape/util/../globalDefines.hpp **** enum class DisplayOrientation : cbool_t {
 114:funsape/util/../globalDefines.hpp ****     LANDSCAPE                           = false,
 115:funsape/util/../globalDefines.hpp ****     PORTRAIT                            = true
 116:funsape/util/../globalDefines.hpp **** };
 117:funsape/util/../globalDefines.hpp **** 
 118:funsape/util/../globalDefines.hpp **** enum class DriverMode : cbool_t {
 119:funsape/util/../globalDefines.hpp ****     PUSH_PULL                           = false,
 120:funsape/util/../globalDefines.hpp ****     OPEN_DRAIN                          = true,
 121:funsape/util/../globalDefines.hpp **** };
 122:funsape/util/../globalDefines.hpp **** 
 123:funsape/util/../globalDefines.hpp **** enum class Edge : cbool_t {
 124:funsape/util/../globalDefines.hpp ****     FALLING                             = false,
 125:funsape/util/../globalDefines.hpp ****     RISING                              = true
 126:funsape/util/../globalDefines.hpp **** };
 127:funsape/util/../globalDefines.hpp **** 
 128:funsape/util/../globalDefines.hpp **** enum class IoOperation : cbool_t {
 129:funsape/util/../globalDefines.hpp ****     WRITE                               = false,
 130:funsape/util/../globalDefines.hpp ****     READ                                = true
 131:funsape/util/../globalDefines.hpp **** };
 132:funsape/util/../globalDefines.hpp **** 
 133:funsape/util/../globalDefines.hpp **** enum class LogicLevel : cbool_t {
 134:funsape/util/../globalDefines.hpp ****     LOW                                 = false,
 135:funsape/util/../globalDefines.hpp ****     HIGH                                = true
 136:funsape/util/../globalDefines.hpp **** };
 137:funsape/util/../globalDefines.hpp **** 
 138:funsape/util/../globalDefines.hpp **** enum class PinDirection : cbool_t {
 139:funsape/util/../globalDefines.hpp ****     INPUT                               = false,
 140:funsape/util/../globalDefines.hpp ****     OUTPUT                              = true,
 141:funsape/util/../globalDefines.hpp **** };
 142:funsape/util/../globalDefines.hpp **** 
 143:funsape/util/../globalDefines.hpp **** enum class Rotation : cbool_t {
 144:funsape/util/../globalDefines.hpp ****     CLOCKWISE                           = false,
 145:funsape/util/../globalDefines.hpp ****     COUNTERCLOCKWISE                    = true
 146:funsape/util/../globalDefines.hpp **** };
 147:funsape/util/../globalDefines.hpp **** 
 148:funsape/util/../globalDefines.hpp **** enum class State : cbool_t {
 149:funsape/util/../globalDefines.hpp ****     OFF                                 = false,
 150:funsape/util/../globalDefines.hpp ****     ON                                  = true
 151:funsape/util/../globalDefines.hpp **** };
 152:funsape/util/../globalDefines.hpp **** 
 153:funsape/util/../globalDefines.hpp **** //     ///////////////////     PLAIN ENUMERATIONS    ////////////////////     //
 154:funsape/util/../globalDefines.hpp **** enum class Axis : cuint8_t {
 155:funsape/util/../globalDefines.hpp ****     //                                     Z-AXIS     Y-AXIS     X-AXIS
 156:funsape/util/../globalDefines.hpp ****     NONE                                = (0 << 2) | (0 << 1) | (0 << 0),
GAS LISTING C:\Users\kenne\AppData\Local\Temp\ccWhffpB.s 			page 4


 157:funsape/util/../globalDefines.hpp ****     X                                   = (0 << 2) | (0 << 1) | (1 << 0),
 158:funsape/util/../globalDefines.hpp ****     Y                                   = (0 << 2) | (1 << 1) | (0 << 0),
 159:funsape/util/../globalDefines.hpp ****     XY                                  = (0 << 2) | (1 << 1) | (1 << 0),
 160:funsape/util/../globalDefines.hpp ****     Z                                   = (1 << 2) | (0 << 1) | (0 << 0),
 161:funsape/util/../globalDefines.hpp ****     XZ                                  = (1 << 2) | (0 << 1) | (1 << 0),
 162:funsape/util/../globalDefines.hpp ****     YZ                                  = (1 << 2) | (1 << 1) | (0 << 0),
 163:funsape/util/../globalDefines.hpp ****     ALL                                 = (1 << 2) | (1 << 1) | (1 << 0)
 164:funsape/util/../globalDefines.hpp **** };
 165:funsape/util/../globalDefines.hpp **** 
 166:funsape/util/../globalDefines.hpp **** inlined Axis operator|(Axis a, Axis b)
 167:funsape/util/../globalDefines.hpp **** {
 168:funsape/util/../globalDefines.hpp ****     return static_cast<Axis>(static_cast<cint8_t>(a) | static_cast<uint8_t>(b));
 169:funsape/util/../globalDefines.hpp **** }
 170:funsape/util/../globalDefines.hpp **** 
 171:funsape/util/../globalDefines.hpp **** inlined Axis &operator|=(Axis &a, Axis b)
 172:funsape/util/../globalDefines.hpp **** {
 173:funsape/util/../globalDefines.hpp ****     return a = static_cast<Axis>(static_cast<uint8_t>(a) | static_cast<uint8_t>(b));
 174:funsape/util/../globalDefines.hpp **** }
 175:funsape/util/../globalDefines.hpp **** 
 176:funsape/util/../globalDefines.hpp **** inlined Axis operator&(Axis a, Axis b)
 177:funsape/util/../globalDefines.hpp **** {
 178:funsape/util/../globalDefines.hpp ****     return static_cast<Axis>(static_cast<uint8_t>(a) & static_cast<uint8_t>(b));
 179:funsape/util/../globalDefines.hpp **** }
 180:funsape/util/../globalDefines.hpp **** 
 181:funsape/util/../globalDefines.hpp **** inlined Axis &operator&=(Axis &a, Axis b)
 182:funsape/util/../globalDefines.hpp **** {
 183:funsape/util/../globalDefines.hpp ****     return a = static_cast<Axis>(static_cast<uint8_t>(a) & static_cast<uint8_t>(b));
 184:funsape/util/../globalDefines.hpp **** }
 185:funsape/util/../globalDefines.hpp **** 
 186:funsape/util/../globalDefines.hpp **** enum class Direction : cuint8_t {
 187:funsape/util/../globalDefines.hpp ****     LEFT                                = 0,
 188:funsape/util/../globalDefines.hpp ****     RIGHT                               = 1,
 189:funsape/util/../globalDefines.hpp ****     UP                                  = 2,
 190:funsape/util/../globalDefines.hpp ****     DOWN                                = 3
 191:funsape/util/../globalDefines.hpp **** };
 192:funsape/util/../globalDefines.hpp **** 
 193:funsape/util/../globalDefines.hpp **** enum class InterfaceMode : cuint8_t {
 194:funsape/util/../globalDefines.hpp ****     BLOCKING_MODE                       = 0,
 195:funsape/util/../globalDefines.hpp ****     INTERRUPT_MODE                      = 1,
 196:funsape/util/../globalDefines.hpp ****     DMA_MODE                            = 2
 197:funsape/util/../globalDefines.hpp **** };
 198:funsape/util/../globalDefines.hpp **** 
 199:funsape/util/../globalDefines.hpp **** enum class ThermometricScale : cuint8_t {
 200:funsape/util/../globalDefines.hpp ****     CELSIUS                             = 0,
 201:funsape/util/../globalDefines.hpp ****     DELISLE                             = 1,
 202:funsape/util/../globalDefines.hpp ****     FAHRENHEIT                          = 2,
 203:funsape/util/../globalDefines.hpp ****     KELVIN                              = 3,
 204:funsape/util/../globalDefines.hpp ****     NEWTON                              = 4,
 205:funsape/util/../globalDefines.hpp ****     RANKINE                             = 5,
 206:funsape/util/../globalDefines.hpp ****     REAUMUR                             = 6,
 207:funsape/util/../globalDefines.hpp ****     ROMER                               = 7
 208:funsape/util/../globalDefines.hpp **** };
 209:funsape/util/../globalDefines.hpp **** 
 210:funsape/util/../globalDefines.hpp **** enum class Error : cuint16_t {
 211:funsape/util/../globalDefines.hpp ****     // General error codes
 212:funsape/util/../globalDefines.hpp ****     NONE                                                = 0x0000,   // Success - No errors occurred
 213:funsape/util/../globalDefines.hpp ****     AXIS_INVALID                                        = 0x0001,   // Invalid axis
GAS LISTING C:\Users\kenne\AppData\Local\Temp\ccWhffpB.s 			page 5


 214:funsape/util/../globalDefines.hpp ****     NOT_IMPLEMENTED                                     = 0x0002,   // Not implemented yet
 215:funsape/util/../globalDefines.hpp ****     UNDER_DEVELOPMENT                                   = 0x0003,   // This part of the code is sti
 216:funsape/util/../globalDefines.hpp ****     NOT_INITIALIZED                                     = 0x0004,   // Not initialized
 217:funsape/util/../globalDefines.hpp ****     // BUSY                                                = 0x0005,   // TODO: Describe parameter
 218:funsape/util/../globalDefines.hpp ****     // DEVICE_NOT_SUPPORTED                                = 0x0006,   // Device is not currently s
 219:funsape/util/../globalDefines.hpp ****     FEATURE_NOT_SUPPORTED                               = 0x0007,   // Unsupported feature or confi
 220:funsape/util/../globalDefines.hpp ****     // FUNCTION_POINTER_NULL                               = 0x0008,   // TODO: Describe parameter
 221:funsape/util/../globalDefines.hpp ****     // INSTANCE_INVALID                                    = 0x0009,   // Invalid instance
 222:funsape/util/../globalDefines.hpp ****     // LOCKED                                              = 0x000A,   // Accessed a locked device
 223:funsape/util/../globalDefines.hpp ****     MEMORY_ALLOCATION                                   = 0x000B,   // Memory allocation failed
 224:funsape/util/../globalDefines.hpp ****     // MODE_NOT_SUPPORTED                                  = 0x000C,   // Mode is not currently sup
 225:funsape/util/../globalDefines.hpp ****     // NOT_READY                                           = 0x000D,   // TODO: Describe parameter
 226:funsape/util/../globalDefines.hpp ****     // READ_PROTECTED                                      = 0x000E,   // Tried to read a read prot
 227:funsape/util/../globalDefines.hpp ****     // WRITE_PROTECTED                                     = 0x000F,   // Tried to write a write pr
 228:funsape/util/../globalDefines.hpp **** 
 229:funsape/util/../globalDefines.hpp ****     // Function arguments related error codes
 230:funsape/util/../globalDefines.hpp ****     ARGUMENT_CANNOT_BE_ZERO                             = 0x0010,   // TODO: Describe parameter
 231:funsape/util/../globalDefines.hpp ****     ARGUMENT_POINTER_NULL                               = 0x0011,   // NULL pointer was passed as a
 232:funsape/util/../globalDefines.hpp ****     ARGUMENT_VALUE_INVALID                              = 0x0012,   // TODO: Describe parameter
 233:funsape/util/../globalDefines.hpp ****     // ARGUMENTS_MISMATCH                                  = 0x0013,   // A function was called wit
 234:funsape/util/../globalDefines.hpp ****     // ARGUMENTS_WRONG_NUMBER                              = 0x0014,   // A function was called wit
 235:funsape/util/../globalDefines.hpp ****     // ARGUMENT_GENERIC_ERROR_5                            = 0x0015,   // Generic error (use only o
 236:funsape/util/../globalDefines.hpp ****     // ARGUMENT_GENERIC_ERROR_6                            = 0x0016,   // Generic error (use only o
 237:funsape/util/../globalDefines.hpp ****     // ARGUMENT_GENERIC_ERROR_7                            = 0x0017,   // Generic error (use only o
 238:funsape/util/../globalDefines.hpp ****     // ARGUMENT_GENERIC_ERROR_8                            = 0x0018,   // Generic error (use only o
 239:funsape/util/../globalDefines.hpp ****     // ARGUMENT_GENERIC_ERROR_9                            = 0x0019,   // Generic error (use only o
 240:funsape/util/../globalDefines.hpp ****     // ARGUMENT_GENERIC_ERROR_10                           = 0x001A,   // Generic error (use only o
 241:funsape/util/../globalDefines.hpp ****     // ARGUMENT_GENERIC_ERROR_11                           = 0x001B,   // Generic error (use only o
 242:funsape/util/../globalDefines.hpp ****     // ARGUMENT_GENERIC_ERROR_12                           = 0x001C,   // Generic error (use only o
 243:funsape/util/../globalDefines.hpp ****     // ARGUMENT_GENERIC_ERROR_13                           = 0x001D,   // Generic error (use only o
 244:funsape/util/../globalDefines.hpp ****     // ARGUMENT_GENERIC_ERROR_14                           = 0x001E,   // Generic error (use only o
 245:funsape/util/../globalDefines.hpp ****     // ARGUMENT_GENERIC_ERROR                              = 0x001F,   // Generic error (use only o
 246:funsape/util/../globalDefines.hpp **** 
 247:funsape/util/../globalDefines.hpp ****     // Buffer related error codes
 248:funsape/util/../globalDefines.hpp ****     // BUFFER_EMPTY                                        = 0x0020,   // Buffer is empty
 249:funsape/util/../globalDefines.hpp ****     BUFFER_FULL                                         = 0x0021,   // Buffer is full
 250:funsape/util/../globalDefines.hpp ****     // BUFFER_NOT_ENOUGH_ELEMENTS                          = 0x0022,   // Not enough space in buffe
 251:funsape/util/../globalDefines.hpp ****     // BUFFER_NOT_ENOUGH_SPACE                             = 0x0023,   // Not enough space in buffe
 252:funsape/util/../globalDefines.hpp ****     // BUFFER_POINTER_NULL                                 = 0x0024,   // Buffer size was set to ze
 253:funsape/util/../globalDefines.hpp ****     BUFFER_SIZE_TOO_LARGE                               = 0x0025,   // Buffer size was set to a lar
 254:funsape/util/../globalDefines.hpp ****     BUFFER_SIZE_TOO_SMALL                               = 0x0026,   // Buffer size was set to a ver
 255:funsape/util/../globalDefines.hpp ****     BUFFER_SIZE_ZERO                                    = 0x0027,   // Buffer size was set to zero
 256:funsape/util/../globalDefines.hpp ****     // BUFFER_GENERIC_ERROR_8                              = 0x0028,   // Generic error (use only o
 257:funsape/util/../globalDefines.hpp ****     // BUFFER_GENERIC_ERROR_9                              = 0x0029,   // Generic error (use only o
 258:funsape/util/../globalDefines.hpp ****     // BUFFER_GENERIC_ERROR_10                             = 0x002A,   // Generic error (use only o
 259:funsape/util/../globalDefines.hpp ****     // BUFFER_GENERIC_ERROR_11                             = 0x002B,   // Generic error (use only o
 260:funsape/util/../globalDefines.hpp ****     // BUFFER_GENERIC_ERROR_12                             = 0x002C,   // Generic error (use only o
 261:funsape/util/../globalDefines.hpp ****     // BUFFER_GENERIC_ERROR_13                             = 0x002D,   // Generic error (use only o
 262:funsape/util/../globalDefines.hpp ****     // BUFFER_GENERIC_ERROR_14                             = 0x002E,   // Generic error (use only o
 263:funsape/util/../globalDefines.hpp ****     // BUFFER_GENERIC_ERROR_15                             = 0x002F,   // Generic error (use only o
 264:funsape/util/../globalDefines.hpp **** 
 265:funsape/util/../globalDefines.hpp ****     // Clock configuration related error codes
 266:funsape/util/../globalDefines.hpp ****     CLOCK_PRESCALER_CHANGE_FAILED                       = 0x0030,   // Clock prescaler change faile
 267:funsape/util/../globalDefines.hpp ****     CLOCK_PRESCALER_NOT_SUPPORTED                       = 0x0031,   // Clock prescaler configuratio
 268:funsape/util/../globalDefines.hpp ****     CLOCK_SPEED_TOO_HIGH                                = 0x0032,   // TODO: Describe parameter
 269:funsape/util/../globalDefines.hpp ****     CLOCK_SPEED_TOO_LOW                                 = 0x0033,   // TODO: Describe parameter
 270:funsape/util/../globalDefines.hpp ****     // CLOCK_GENERIC_ERROR_4                               = 0x0034,   // Generic error (use only o
GAS LISTING C:\Users\kenne\AppData\Local\Temp\ccWhffpB.s 			page 6


 271:funsape/util/../globalDefines.hpp ****     // CLOCK_GENERIC_ERROR_5                               = 0x0035,   // Generic error (use only o
 272:funsape/util/../globalDefines.hpp ****     // CLOCK_GENERIC_ERROR_6                               = 0x0036,   // Generic error (use only o
 273:funsape/util/../globalDefines.hpp ****     // CLOCK_GENERIC_ERROR_7                               = 0x0037,   // Generic error (use only o
 274:funsape/util/../globalDefines.hpp ****     // CLOCK_GENERIC_ERROR_8                               = 0x0038,   // Generic error (use only o
 275:funsape/util/../globalDefines.hpp ****     // CLOCK_GENERIC_ERROR_9                               = 0x0039,   // Generic error (use only o
 276:funsape/util/../globalDefines.hpp ****     // CLOCK_GENERIC_ERROR_10                              = 0x003A,   // Generic error (use only o
 277:funsape/util/../globalDefines.hpp ****     // CLOCK_GENERIC_ERROR_11                              = 0x003B,   // Generic error (use only o
 278:funsape/util/../globalDefines.hpp ****     // CLOCK_GENERIC_ERROR_12                              = 0x003C,   // Generic error (use only o
 279:funsape/util/../globalDefines.hpp ****     // CLOCK_GENERIC_ERROR_13                              = 0x003D,   // Generic error (use only o
 280:funsape/util/../globalDefines.hpp ****     // CLOCK_GENERIC_ERROR_14                              = 0x003E,   // Generic error (use only o
 281:funsape/util/../globalDefines.hpp ****     // CLOCK_GENERIC_ERROR_15                              = 0x003F,   // Generic error (use only o
 282:funsape/util/../globalDefines.hpp **** 
 283:funsape/util/../globalDefines.hpp ****     // Communication related error codes
 284:funsape/util/../globalDefines.hpp ****     COMMUNICATION_FAILED                                = 0x0040,   // TODO: Describe parameter
 285:funsape/util/../globalDefines.hpp ****     COMMUNICATION_NO_DEVICE_SELECTED                    = 0x0041,   // TODO: Describe parameter
 286:funsape/util/../globalDefines.hpp ****     // COMMUNICATION_PORT_NOT_SET                          = 0x0042,   // TODO: Describe parameter
 287:funsape/util/../globalDefines.hpp ****     COMMUNICATION_TIMEOUT                               = 0x0043,   // The operation timed out
 288:funsape/util/../globalDefines.hpp ****     // COMMUNICATION_DEVICE_ID_MATCH_FAILED                = 0x0044,   // TODO: Describe parameter
 289:funsape/util/../globalDefines.hpp ****     CHECKSUM_ERROR                                      = 0x0045,   // TODO: Describe parameter
 290:funsape/util/../globalDefines.hpp ****     FRAME_ERROR                                         = 0x0046,   // TODO: Describe parameter
 291:funsape/util/../globalDefines.hpp ****     PACKAGE_AWAITING                                    = 0x0047,   // Try to write data to a ready
 292:funsape/util/../globalDefines.hpp ****     // PACKAGE_NOT_READY                                   = 0x0048,   // Try to read data from a n
 293:funsape/util/../globalDefines.hpp ****     // COMMUNICATION_GENERIC_ERROR_9                       = 0x0049,   // Generic error (use only o
 294:funsape/util/../globalDefines.hpp ****     // COMMUNICATION_GENERIC_ERROR_10                      = 0x004A,   // Generic error (use only o
 295:funsape/util/../globalDefines.hpp ****     // COMMUNICATION_GENERIC_ERROR_11                      = 0x004B,   // Generic error (use only o
 296:funsape/util/../globalDefines.hpp ****     // COMMUNICATION_GENERIC_ERROR_12                      = 0x004C,   // Generic error (use only o
 297:funsape/util/../globalDefines.hpp ****     // COMMUNICATION_GENERIC_ERROR_13                      = 0x004D,   // Generic error (use only o
 298:funsape/util/../globalDefines.hpp ****     // COMMUNICATION_GENERIC_ERROR_14                      = 0x004E,   // Generic error (use only o
 299:funsape/util/../globalDefines.hpp ****     // COMMUNICATION_GENERIC_ERROR_15                      = 0x004F,   // Generic error (use only o
 300:funsape/util/../globalDefines.hpp **** 
 301:funsape/util/../globalDefines.hpp ****     // DateTime class related error codes
 302:funsape/util/../globalDefines.hpp ****     DATE_NOT_INITIALIZED                                = 0x0050,   // TODO: Describe parameter
 303:funsape/util/../globalDefines.hpp ****     // HOUR_INVALID                                        = 0x0051,   // TODO: Describe parameter
 304:funsape/util/../globalDefines.hpp ****     // MILLISECOND_INVALID                                 = 0x0052,   // TODO: Describe parameter
 305:funsape/util/../globalDefines.hpp ****     // MINUTE_INVALID                                      = 0x0053,   // TODO: Describe parameter
 306:funsape/util/../globalDefines.hpp ****     // MONTH_DAY_INVALID                                   = 0x0054,   // TODO: Describe parameter
 307:funsape/util/../globalDefines.hpp ****     // MONTH_INVALID                                       = 0x0055,   // TODO: Describe parameter
 308:funsape/util/../globalDefines.hpp ****     // SECOND_INVALID                                      = 0x0056,   // TODO: Describe parameter
 309:funsape/util/../globalDefines.hpp ****     TIME_NOT_INITIALIZED                                = 0x0057,   // TODO: Describe parameter
 310:funsape/util/../globalDefines.hpp ****     // TIMEZONE_INVALID                                    = 0x0058,   // TODO: Describe parameter
 311:funsape/util/../globalDefines.hpp ****     // YEAR_INVALID                                        = 0x0059,   // TODO: Describe parameter
 312:funsape/util/../globalDefines.hpp ****     DATE_INVALID                                        = 0x005A,   // TODO: Describe parameter
 313:funsape/util/../globalDefines.hpp ****     TIME_INVALID                                        = 0x005B,   // TODO: Describe parameter
 314:funsape/util/../globalDefines.hpp ****     // GENERIC_ERROR_13                                    = 0x005C,   // Generic error (use only o
 315:funsape/util/../globalDefines.hpp ****     // GENERIC_ERROR_14                                    = 0x005D,   // Generic error (use only o
 316:funsape/util/../globalDefines.hpp ****     // GENERIC_ERROR_15                                    = 0x005F,   // Generic error (use only o
 317:funsape/util/../globalDefines.hpp **** 
 318:funsape/util/../globalDefines.hpp ****     // Handler related error codes
 319:funsape/util/../globalDefines.hpp ****     BUS_HANDLER_NOT_SUPPORTED                           = 0x0060,   // TODO: Describe parameter
 320:funsape/util/../globalDefines.hpp ****     BUS_HANDLER_POINTER_NULL                            = 0x0061,   // TODO: Describe parameter
 321:funsape/util/../globalDefines.hpp ****     // HANDLER_GENERIC_ERROR_2                             = 0x0062,   // Generic error (use only o
 322:funsape/util/../globalDefines.hpp ****     // HANDLER_GENERIC_ERROR_3                             = 0x0063,   // Generic error (use only o
 323:funsape/util/../globalDefines.hpp ****     // HANDLER_GENERIC_ERROR_4                             = 0x0064,   // Generic error (use only o
 324:funsape/util/../globalDefines.hpp ****     // HANDLER_GENERIC_ERROR_5                             = 0x0065,   // Generic error (use only o
 325:funsape/util/../globalDefines.hpp ****     // HANDLER_GENERIC_ERROR_6                             = 0x0066,   // Generic error (use only o
 326:funsape/util/../globalDefines.hpp ****     // HANDLER_GENERIC_ERROR_7                             = 0x0067,   // Generic error (use only o
 327:funsape/util/../globalDefines.hpp ****     // HANDLER_GENERIC_ERROR_8                             = 0x0068,   // Generic error (use only o
GAS LISTING C:\Users\kenne\AppData\Local\Temp\ccWhffpB.s 			page 7


 328:funsape/util/../globalDefines.hpp ****     // HANDLER_GENERIC_ERROR_9                             = 0x0069,   // Generic error (use only o
 329:funsape/util/../globalDefines.hpp ****     // HANDLER_GENERIC_ERROR_10                            = 0x006A,   // Generic error (use only o
 330:funsape/util/../globalDefines.hpp ****     // HANDLER_GENERIC_ERROR_11                            = 0x006B,   // Generic error (use only o
 331:funsape/util/../globalDefines.hpp ****     // HANDLER_GENERIC_ERROR_12                            = 0x006C,   // Generic error (use only o
 332:funsape/util/../globalDefines.hpp ****     // HANDLER_GENERIC_ERROR_13                            = 0x006D,   // Generic error (use only o
 333:funsape/util/../globalDefines.hpp ****     // HANDLER_GENERIC_ERROR_14                            = 0x006E,   // Generic error (use only o
 334:funsape/util/../globalDefines.hpp ****     // HANDLER_GENERIC_ERROR_15                            = 0x006F,   // Generic error (use only o
 335:funsape/util/../globalDefines.hpp **** 
 336:funsape/util/../globalDefines.hpp ****     // External interrupts related error codes
 337:funsape/util/../globalDefines.hpp ****     // INTERRUPT_NOT_AVAILABLE                             = 0x0070,   // TODO: Describe parameter
 338:funsape/util/../globalDefines.hpp ****     // INTERRUPT_PORT_OUTPUT_MODE_NOT_SUPPORTED            = 0x0071,   // TODO: Describe parameter
 339:funsape/util/../globalDefines.hpp ****     // INTERRUPT_SENSE_MODE_NOT_SUPPORTED                  = 0x0072,   // TODO: Describe parameter
 340:funsape/util/../globalDefines.hpp ****     // INTERRUPT_GENERIC_ERROR_3                           = 0x0073,   // Generic error (use only o
 341:funsape/util/../globalDefines.hpp ****     // INTERRUPT_GENERIC_ERROR_4                           = 0x0074,   // Generic error (use only o
 342:funsape/util/../globalDefines.hpp ****     // INTERRUPT_GENERIC_ERROR_5                           = 0x0075,   // Generic error (use only o
 343:funsape/util/../globalDefines.hpp ****     // INTERRUPT_GENERIC_ERROR_6                           = 0x0076,   // Generic error (use only o
 344:funsape/util/../globalDefines.hpp ****     // INTERRUPT_GENERIC_ERROR_7                           = 0x0077,   // Generic error (use only o
 345:funsape/util/../globalDefines.hpp ****     // INTERRUPT_GENERIC_ERROR_8                           = 0x0078,   // Generic error (use only o
 346:funsape/util/../globalDefines.hpp ****     // INTERRUPT_GENERIC_ERROR_9                           = 0x0079,   // Generic error (use only o
 347:funsape/util/../globalDefines.hpp ****     // INTERRUPT_GENERIC_ERROR_10                          = 0x007A,   // Generic error (use only o
 348:funsape/util/../globalDefines.hpp ****     // INTERRUPT_GENERIC_ERROR_11                          = 0x007B,   // Generic error (use only o
 349:funsape/util/../globalDefines.hpp ****     // INTERRUPT_GENERIC_ERROR_12                          = 0x007C,   // Generic error (use only o
 350:funsape/util/../globalDefines.hpp ****     // INTERRUPT_GENERIC_ERROR_13                          = 0x007D,   // Generic error (use only o
 351:funsape/util/../globalDefines.hpp ****     // INTERRUPT_GENERIC_ERROR_14                          = 0x007E,   // Generic error (use only o
 352:funsape/util/../globalDefines.hpp ****     // INTERRUPT_GENERIC_ERROR_15                          = 0x007F,   // Generic error (use only o
 353:funsape/util/../globalDefines.hpp **** 
 354:funsape/util/../globalDefines.hpp **** 
 355:funsape/util/../globalDefines.hpp ****     // Package API class related error codes
 356:funsape/util/../globalDefines.hpp ****     // PACKAGE_API_PACKAGE_DATA_FULL                       = 0x0080,   // TODO: Describe parameter
 357:funsape/util/../globalDefines.hpp ****     // PACKAGE_API_PACKAGE_NOT_READY                       = 0x0081,   // TODO: Describe parameter
 358:funsape/util/../globalDefines.hpp ****     // PACKAGE_API_PAYLOAD_DATA_NULL                       = 0x0082,   // TODO: Describe parameter
 359:funsape/util/../globalDefines.hpp ****     // PACKAGE_API_PAYLOAD_SIZE_NULL                       = 0x0083,   // TODO: Describe parameter
 360:funsape/util/../globalDefines.hpp ****     // PACKAGE_API_SOURCE_ADDRESS_INVALID                  = 0x0084,   // TODO: Describe parameter
 361:funsape/util/../globalDefines.hpp ****     // PACKAGE_API_GENERIC_ERROR_5                         = 0x0085,   // Generic error (use only o
 362:funsape/util/../globalDefines.hpp ****     // PACKAGE_API_GENERIC_ERROR_6                         = 0x0086,   // Generic error (use only o
 363:funsape/util/../globalDefines.hpp ****     // PACKAGE_API_GENERIC_ERROR_7                         = 0x0087,   // Generic error (use only o
 364:funsape/util/../globalDefines.hpp ****     // PACKAGE_API_GENERIC_ERROR_8                         = 0x0088,   // Generic error (use only o
 365:funsape/util/../globalDefines.hpp ****     // PACKAGE_API_GENERIC_ERROR_9                         = 0x0089,   // Generic error (use only o
 366:funsape/util/../globalDefines.hpp ****     // PACKAGE_API_GENERIC_ERROR_10                        = 0x008A,   // Generic error (use only o
 367:funsape/util/../globalDefines.hpp ****     // PACKAGE_API_GENERIC_ERROR_11                        = 0x008B,   // Generic error (use only o
 368:funsape/util/../globalDefines.hpp ****     // PACKAGE_API_GENERIC_ERROR_12                        = 0x008C,   // Generic error (use only o
 369:funsape/util/../globalDefines.hpp ****     // PACKAGE_API_GENERIC_ERROR_13                        = 0x008D,   // Generic error (use only o
 370:funsape/util/../globalDefines.hpp ****     // PACKAGE_API_GENERIC_ERROR_14                        = 0x008E,   // Generic error (use only o
 371:funsape/util/../globalDefines.hpp ****     // PACKAGE_API_GENERIC_ERROR_15                        = 0x008F,   // Generic error (use only o
 372:funsape/util/../globalDefines.hpp **** 
 373:funsape/util/../globalDefines.hpp ****     // SPI related error codes
 374:funsape/util/../globalDefines.hpp ****     // SPI_BUSY_FLAG                                       = 0x0090,   // TODO: Describe parameter
 375:funsape/util/../globalDefines.hpp ****     // SPI_CRC                                             = 0x0091,   // TODO: Describe parameter
 376:funsape/util/../globalDefines.hpp ****     // SPI_DMA                                             = 0x0092,   // TODO: Describe parameter
 377:funsape/util/../globalDefines.hpp ****     // SPI_MODE_FAULT                                      = 0x0093,   // TODO: Describe parameter
 378:funsape/util/../globalDefines.hpp ****     // SPI_OVERRUN                                         = 0x0094,   // TODO: Describe parameter
 379:funsape/util/../globalDefines.hpp ****     // SPI_GENERIC_ERROR_5                                 = 0x0095,   // Generic error (use only o
 380:funsape/util/../globalDefines.hpp ****     // SPI_GENERIC_ERROR_6                                 = 0x0096,   // Generic error (use only o
 381:funsape/util/../globalDefines.hpp ****     // SPI_GENERIC_ERROR_7                                 = 0x0097,   // Generic error (use only o
 382:funsape/util/../globalDefines.hpp ****     // SPI_GENERIC_ERROR_8                                 = 0x0098,   // Generic error (use only o
 383:funsape/util/../globalDefines.hpp ****     // SPI_GENERIC_ERROR_9                                 = 0x0099,   // Generic error (use only o
 384:funsape/util/../globalDefines.hpp ****     // SPI_GENERIC_ERROR_10                                = 0x009A,   // Generic error (use only o
GAS LISTING C:\Users\kenne\AppData\Local\Temp\ccWhffpB.s 			page 8


 385:funsape/util/../globalDefines.hpp ****     // SPI_GENERIC_ERROR_11                                = 0x009B,   // Generic error (use only o
 386:funsape/util/../globalDefines.hpp ****     // SPI_GENERIC_ERROR_12                                = 0x009C,   // Generic error (use only o
 387:funsape/util/../globalDefines.hpp ****     // SPI_GENERIC_ERROR_13                                = 0x009D,   // Generic error (use only o
 388:funsape/util/../globalDefines.hpp ****     // SPI_GENERIC_ERROR_14                                = 0x009E,   // Generic error (use only o
 389:funsape/util/../globalDefines.hpp ****     // SPI_GENERIC_ERROR_15                                = 0x009F,   // Generic error (use only o
 390:funsape/util/../globalDefines.hpp **** 
 391:funsape/util/../globalDefines.hpp ****     // TWI related error codes
 392:funsape/util/../globalDefines.hpp ****     // TWI_AF_FLAG                                         = 0x00A0,   // TWI AF flag error
 393:funsape/util/../globalDefines.hpp ****     // TWI_ARBITRATION_LOST                                = 0x00A1,   // TWI bus arbitration lost
 394:funsape/util/../globalDefines.hpp ****     // TWI_BUS_ERROR                                       = 0x00A2,   // TWI bus error
 395:funsape/util/../globalDefines.hpp ****     // TWI_DMA                                             = 0x00A3,   // DMA parameter error
 396:funsape/util/../globalDefines.hpp ****     // TWI_DMA_PARAM                                       = 0x00A4,   // DMA transfer error
 397:funsape/util/../globalDefines.hpp ****     // TWI_OVERRUN                                         = 0x00A5,   // TWI overrun
 398:funsape/util/../globalDefines.hpp ****     // TWI_SIZE_MANAGEMENT_ERROR                           = 0x00A6,   // Size management error
 399:funsape/util/../globalDefines.hpp ****     // TWI_INVALID_DEVICE_ADDRESS                          = 0x00A7,   // TODO: Describe parameter
 400:funsape/util/../globalDefines.hpp ****     // TWI_GENERIC_ERROR_8                                 = 0x00A8,   // Generic error (use only o
 401:funsape/util/../globalDefines.hpp ****     // TWI_GENERIC_ERROR_9                                 = 0x00A9,   // Generic error (use only o
 402:funsape/util/../globalDefines.hpp ****     // TWI_GENERIC_ERROR_10                                = 0x00AA,   // Generic error (use only o
 403:funsape/util/../globalDefines.hpp ****     // TWI_GENERIC_ERROR_11                                = 0x00AB,   // Generic error (use only o
 404:funsape/util/../globalDefines.hpp ****     // TWI_GENERIC_ERROR_12                                = 0x00AC,   // Generic error (use only o
 405:funsape/util/../globalDefines.hpp ****     // TWI_GENERIC_ERROR_13                                = 0x00AD,   // Generic error (use only o
 406:funsape/util/../globalDefines.hpp ****     // TWI_GENERIC_ERROR_14                                = 0x00AE,   // Generic error (use only o
 407:funsape/util/../globalDefines.hpp ****     // TWI_GENERIC_ERROR_15                                = 0x00AF,   // Generic error (use only o
 408:funsape/util/../globalDefines.hpp **** 
 409:funsape/util/../globalDefines.hpp ****     // USART related error codes
 410:funsape/util/../globalDefines.hpp ****     USART_BAUD_RATE_NOT_SUPPORTED                       = 0x00B0,   // TODO: Describe parameter
 411:funsape/util/../globalDefines.hpp ****     // USART_CONFIGURATION_PARAMETER_WRONG                 = 0x00B1,   // TODO: Describe parameter
 412:funsape/util/../globalDefines.hpp ****     USART_DATA_SIZE_NOT_SUPPORTED                       = 0x00B2,   // TODO: Describe parameter
 413:funsape/util/../globalDefines.hpp ****     USART_FRAME_FORMAT_NOT_SUPPORTED                    = 0x00B3,   // TODO: Describe parameter
 414:funsape/util/../globalDefines.hpp ****     USART_PARITY_NOT_SUPPORTED                          = 0x00B4,   // TODO: Describe parameter
 415:funsape/util/../globalDefines.hpp ****     USART_STOP_BIT_NOT_SUPPORTED                        = 0x00B5,   // TODO: Describe parameter
 416:funsape/util/../globalDefines.hpp ****     USART_MODE_NOT_SUPPORTED                            = 0x00B6,   // TODO: Describe parameter
 417:funsape/util/../globalDefines.hpp ****     // USART_GENERIC_ERROR_7                               = 0x00B7,   // Generic error (use only o
 418:funsape/util/../globalDefines.hpp ****     // USART_GENERIC_ERROR_8                               = 0x00B8,   // Generic error (use only o
 419:funsape/util/../globalDefines.hpp ****     // USART_GENERIC_ERROR_9                               = 0x00B9,   // Generic error (use only o
 420:funsape/util/../globalDefines.hpp ****     // USART_GENERIC_ERROR_10                              = 0x00BA,   // Generic error (use only o
 421:funsape/util/../globalDefines.hpp ****     // USART_GENERIC_ERROR_11                              = 0x00BB,   // Generic error (use only o
 422:funsape/util/../globalDefines.hpp ****     // USART_GENERIC_ERROR_12                              = 0x00BC,   // Generic error (use only o
 423:funsape/util/../globalDefines.hpp ****     // USART_GENERIC_ERROR_13                              = 0x00BD,   // Generic error (use only o
 424:funsape/util/../globalDefines.hpp ****     // USART_GENERIC_ERROR_14                              = 0x00BE,   // Generic error (use only o
 425:funsape/util/../globalDefines.hpp ****     // USART_GENERIC_ERROR_15                              = 0x00BF,   // Generic error (use only o
 426:funsape/util/../globalDefines.hpp **** 
 427:funsape/util/../globalDefines.hpp ****     // LCD related error codes
 428:funsape/util/../globalDefines.hpp ****     // LCD_CONTROL_PORT_NOT_SET                            = 0x00C0,   // TODO: Describe parameter
 429:funsape/util/../globalDefines.hpp ****     // LCD_CONTROL_PIN_E_INVALID                           = 0x00C1,   // TODO: Describe parameter
 430:funsape/util/../globalDefines.hpp ****     // LCD_CONTROL_PIN_RS_INVALID                          = 0x00C2,   // TODO: Describe parameter
 431:funsape/util/../globalDefines.hpp ****     // LCD_CONTROL_PIN_RW_INVALID                          = 0x00C3,   // TODO: Describe parameter
 432:funsape/util/../globalDefines.hpp ****     // LCD_DATA_PORT_NOT_SET                               = 0x00C4,   // TODO: Describe parameter
 433:funsape/util/../globalDefines.hpp ****     // LCD_DATA_PIN_INDEX_OUT_OF_BOUNDARIES                = 0x00C5,   // TODO: Describe parameter
 434:funsape/util/../globalDefines.hpp ****     // LCD_GENERIC_ERROR_6                                 = 0x00C6,   // Generic error (use only o
 435:funsape/util/../globalDefines.hpp ****     // LCD_GENERIC_ERROR_7                                 = 0x00C7,   // Generic error (use only o
 436:funsape/util/../globalDefines.hpp ****     // LCD_GENERIC_ERROR_8                                 = 0x00C8,   // Generic error (use only o
 437:funsape/util/../globalDefines.hpp ****     // LCD_GENERIC_ERROR_9                                 = 0x00C9,   // Generic error (use only o
 438:funsape/util/../globalDefines.hpp ****     // LCD_GENERIC_ERROR_10                                = 0x00CA,   // Generic error (use only o
 439:funsape/util/../globalDefines.hpp ****     // LCD_GENERIC_ERROR_11                                = 0x00CB,   // Generic error (use only o
 440:funsape/util/../globalDefines.hpp ****     // LCD_GENERIC_ERROR_12                                = 0x00CC,   // Generic error (use only o
 441:funsape/util/../globalDefines.hpp ****     // LCD_GENERIC_ERROR_13                                = 0x00CD,   // Generic error (use only o
GAS LISTING C:\Users\kenne\AppData\Local\Temp\ccWhffpB.s 			page 9


 442:funsape/util/../globalDefines.hpp ****     // LCD_GENERIC_ERROR_14                                = 0x00CE,   // Generic error (use only o
 443:funsape/util/../globalDefines.hpp ****     // LCD_GENERIC_ERROR_15                                = 0x00CF,   // Generic error (use only o
 444:funsape/util/../globalDefines.hpp **** 
 445:funsape/util/../globalDefines.hpp ****     // GPIO related error codes
 446:funsape/util/../globalDefines.hpp ****     GPIO_PORT_NOT_SET                                   = 0x00D0,   // Gpio port was not set before
 447:funsape/util/../globalDefines.hpp ****     GPIO_DATA_PORT_NOT_SET                              = 0x00D1,   // Gpio data port was not set b
 448:funsape/util/../globalDefines.hpp ****     GPIO_CONTROL_PORT_NOT_SET                           = 0x00D2,   // Gpio control port was not se
 449:funsape/util/../globalDefines.hpp ****     GPIO_PORT_INVALID                                   = 0x00D3,   // Gpio port address is invalid
 450:funsape/util/../globalDefines.hpp ****     GPIO_DATA_PORT_INVALID                              = 0x00D4,   // Gpio data port address is in
 451:funsape/util/../globalDefines.hpp ****     GPIO_CONTROL_PORT_INVALID                           = 0x00D5,   // Gpio control port address is
 452:funsape/util/../globalDefines.hpp ****     GPIO_PIN_INDEX_INVALID                              = 0x00D6,   // Invalid GPIO Pin
 453:funsape/util/../globalDefines.hpp ****     GPIO_PIN_INDEX_OUT_OF_BOUNDARIES                    = 0x00D7,   // Gpio pin index was out of bo
 454:funsape/util/../globalDefines.hpp ****     // GPIO_NO_PIN_SET                                     = 0x00D8,   // No pin selected at Gpio p
 455:funsape/util/../globalDefines.hpp ****     // GPIO_ADDRESS_INVALID                                = 0x00D9,   // Invalid GPIO Port
 456:funsape/util/../globalDefines.hpp ****     // GPIO_PORT_LOGIC_CONTENTION                          = 0x00DA,   // TODO: Describe parameter
 457:funsape/util/../globalDefines.hpp ****     // GPIO_GENERIC_ERROR_11                               = 0x00DB,   // Generic error (use only o
 458:funsape/util/../globalDefines.hpp ****     // GPIO_GENERIC_ERROR_12                               = 0x00DC,   // Generic error (use only o
 459:funsape/util/../globalDefines.hpp ****     // GPIO_GENERIC_ERROR_13                               = 0x00DD,   // Generic error (use only o
 460:funsape/util/../globalDefines.hpp ****     // GPIO_GENERIC_ERROR_14                               = 0x00DE,   // Generic error (use only o
 461:funsape/util/../globalDefines.hpp ****     // GPIO_GENERIC_ERROR_15                               = 0x00DF,   // Generic error (use only o
 462:funsape/util/../globalDefines.hpp **** 
 463:funsape/util/../globalDefines.hpp ****     // HAL related error codes
 464:funsape/util/../globalDefines.hpp ****     // HAL_UNKNOWN_ERROR                                   = 0x00E0,   // TODO: Describe parameter
 465:funsape/util/../globalDefines.hpp ****     // HAL_STATUS_ERROR                                    = 0x00E1,   // TODO: Describe parameter
 466:funsape/util/../globalDefines.hpp ****     // HAL_STATUS_BUSY                                     = 0x00E2,   // TODO: Describe parameter
 467:funsape/util/../globalDefines.hpp ****     // HAL_STATUS_TIMEOUT                                  = 0x00E3,   // TODO: Describe parameter
 468:funsape/util/../globalDefines.hpp ****     // HAL_GENERIC_ERROR_4                                 = 0x00E4,   // Generic error (use only o
 469:funsape/util/../globalDefines.hpp ****     // HAL_GENERIC_ERROR_5                                 = 0x00E5,   // Generic error (use only o
 470:funsape/util/../globalDefines.hpp ****     // HAL_GENERIC_ERROR_6                                 = 0x00E6,   // Generic error (use only o
 471:funsape/util/../globalDefines.hpp ****     // HAL_GENERIC_ERROR_7                                 = 0x00E7,   // Generic error (use only o
 472:funsape/util/../globalDefines.hpp ****     // HAL_GENERIC_ERROR_8                                 = 0x00E8,   // Generic error (use only o
 473:funsape/util/../globalDefines.hpp ****     // HAL_GENERIC_ERROR_9                                 = 0x00E9,   // Generic error (use only o
 474:funsape/util/../globalDefines.hpp ****     // HAL_GENERIC_ERROR_10                                = 0x00EA,   // Generic error (use only o
 475:funsape/util/../globalDefines.hpp ****     // HAL_GENERIC_ERROR_11                                = 0x00EB,   // Generic error (use only o
 476:funsape/util/../globalDefines.hpp ****     // HAL_GENERIC_ERROR_12                                = 0x00EC,   // Generic error (use only o
 477:funsape/util/../globalDefines.hpp ****     // HAL_GENERIC_ERROR_13                                = 0x00ED,   // Generic error (use only o
 478:funsape/util/../globalDefines.hpp ****     // HAL_GENERIC_ERROR_14                                = 0x00EE,   // Generic error (use only o
 479:funsape/util/../globalDefines.hpp ****     // HAL_GENERIC_ERROR_15                                = 0x00EF,   // Generic error (use only o
 480:funsape/util/../globalDefines.hpp **** 
 481:funsape/util/../globalDefines.hpp ****     // System related error codes
 482:funsape/util/../globalDefines.hpp ****     // SYSTEM_US_TIMER_HANDLER_NULL                        = 0x00F0,   // TODO: Describe parameter
 483:funsape/util/../globalDefines.hpp ****     // SYSTEM_GENERIC_ERROR_1                              = 0x00F1,   // Generic error (use only o
 484:funsape/util/../globalDefines.hpp ****     // SYSTEM_GENERIC_ERROR_2                              = 0x00F2,   // Generic error (use only o
 485:funsape/util/../globalDefines.hpp ****     // SYSTEM_GENERIC_ERROR_3                              = 0x00F3,   // Generic error (use only o
 486:funsape/util/../globalDefines.hpp ****     // SYSTEM_GENERIC_ERROR_4                              = 0x00F4,   // Generic error (use only o
 487:funsape/util/../globalDefines.hpp ****     // SYSTEM_GENERIC_ERROR_5                              = 0x00F5,   // Generic error (use only o
 488:funsape/util/../globalDefines.hpp ****     // SYSTEM_GENERIC_ERROR_6                              = 0x00F6,   // Generic error (use only o
 489:funsape/util/../globalDefines.hpp ****     // SYSTEM_GENERIC_ERROR_7                              = 0x00F7,   // Generic error (use only o
 490:funsape/util/../globalDefines.hpp ****     // SYSTEM_GENERIC_ERROR_8                              = 0x00F8,   // Generic error (use only o
 491:funsape/util/../globalDefines.hpp ****     // SYSTEM_GENERIC_ERROR_9                              = 0x00F9,   // Generic error (use only o
 492:funsape/util/../globalDefines.hpp ****     // SYSTEM_GENERIC_ERROR_10                             = 0x00FA,   // Generic error (use only o
 493:funsape/util/../globalDefines.hpp ****     // SYSTEM_GENERIC_ERROR_11                             = 0x00FB,   // Generic error (use only o
 494:funsape/util/../globalDefines.hpp ****     // SYSTEM_GENERIC_ERROR_12                             = 0x00FC,   // Generic error (use only o
 495:funsape/util/../globalDefines.hpp ****     // SYSTEM_GENERIC_ERROR_13                             = 0x00FD,   // Generic error (use only o
 496:funsape/util/../globalDefines.hpp ****     // SYSTEM_GENERIC_ERROR_14                             = 0x00FE,   // Generic error (use only o
 497:funsape/util/../globalDefines.hpp ****     // SYSTEM_GENERIC_ERROR_15                             = 0x00FF,   // Generic error (use only o
 498:funsape/util/../globalDefines.hpp **** 
GAS LISTING C:\Users\kenne\AppData\Local\Temp\ccWhffpB.s 			page 10


 499:funsape/util/../globalDefines.hpp ****     // FatFs related error codes
 500:funsape/util/../globalDefines.hpp ****     // FAT_FS_UNKNOWN_ERROR                                = 0x0100,   // TODO: Describe parameter
 501:funsape/util/../globalDefines.hpp ****     // FAT_FS_DRIVE_UNSUPPORTED                            = 0x0101,   // TODO: Describe parameter
 502:funsape/util/../globalDefines.hpp ****     // FAT_FS_DISK_NOT_INSERTED                            = 0x0102,   // TODO: Describe parameter
 503:funsape/util/../globalDefines.hpp ****     // FAT_FS_INITIALIZATION_FAILED                        = 0x0103,   // TODO: Describe parameter
 504:funsape/util/../globalDefines.hpp ****     // FAT_FS_GENERIC_ERROR_4                              = 0x0104,   // Generic error (use only o
 505:funsape/util/../globalDefines.hpp ****     // FAT_FS_GENERIC_ERROR_5                              = 0x0105,   // Generic error (use only o
 506:funsape/util/../globalDefines.hpp ****     // FAT_FS_GENERIC_ERROR_6                              = 0x0106,   // Generic error (use only o
 507:funsape/util/../globalDefines.hpp ****     // FAT_FS_GENERIC_ERROR_7                              = 0x0107,   // Generic error (use only o
 508:funsape/util/../globalDefines.hpp ****     // FAT_FS_GENERIC_ERROR_8                              = 0x0108,   // Generic error (use only o
 509:funsape/util/../globalDefines.hpp ****     // FAT_FS_GENERIC_ERROR_9                              = 0x0109,   // Generic error (use only o
 510:funsape/util/../globalDefines.hpp ****     // FAT_FS_GENERIC_ERROR_10                             = 0x010A,   // Generic error (use only o
 511:funsape/util/../globalDefines.hpp ****     // FAT_FS_GENERIC_ERROR_11                             = 0x010B,   // Generic error (use only o
 512:funsape/util/../globalDefines.hpp ****     // FAT_FS_GENERIC_ERROR_12                             = 0x010C,   // Generic error (use only o
 513:funsape/util/../globalDefines.hpp ****     // FAT_FS_GENERIC_ERROR_13                             = 0x010D,   // Generic error (use only o
 514:funsape/util/../globalDefines.hpp ****     // FAT_FS_GENERIC_ERROR_14                             = 0x010E,   // Generic error (use only o
 515:funsape/util/../globalDefines.hpp ****     // FAT_FS_GENERIC_ERROR_15                             = 0x010F,   // Generic error (use only o
 516:funsape/util/../globalDefines.hpp **** 
 517:funsape/util/../globalDefines.hpp ****     // Uncategorized error codes
 518:funsape/util/../globalDefines.hpp ****     // LCD_OUT_OF_BOUNDARIES                               = 0xFFF1,   // TODO: Describe parameter
 519:funsape/util/../globalDefines.hpp ****     // CONTROLLER_NOT_SUPPORTED                            = 0xFFF2,   // Unsupported controller
 520:funsape/util/../globalDefines.hpp ****     // DEVICE_ID_MATCH_FAILED                              = 0xFFF3,   // Device ID doesn't match
 521:funsape/util/../globalDefines.hpp ****     // DMA_NOT_SUPPORTED                                   = 0xFFF4,   // DMA interface mode is not
 522:funsape/util/../globalDefines.hpp ****     // DMA_TRANSFER_ERROR                                  = 0xFFF5,   // DMA transfer error
 523:funsape/util/../globalDefines.hpp ****     // MESSAGE_TOO_LONG                                    = 0xFFF6,   // Message is to long to be 
 524:funsape/util/../globalDefines.hpp ****     // VALID_DATA_NOT_AVAILABLE                            = 0xFFF7,   // Valid data was unavailabl
 525:funsape/util/../globalDefines.hpp ****     // PERIPHERAL_NOT_READY                                = 0xFFF8,   // TODO: Describe parameter
 526:funsape/util/../globalDefines.hpp ****     // STOPWATCH_NOT_STARTED                               = 0xFFF9,   // TODO: Describe parameter
 527:funsape/util/../globalDefines.hpp ****     // UNCATEGORIZED_GENERIC_ERROR_10                      = 0xFFFA,   // Generic error (use only o
 528:funsape/util/../globalDefines.hpp ****     // UNCATEGORIZED_GENERIC_ERROR_11                      = 0xFFFB,   // Generic error (use only o
 529:funsape/util/../globalDefines.hpp ****     // UNCATEGORIZED_GENERIC_ERROR_12                      = 0xFFFC,   // Generic error (use only o
 530:funsape/util/../globalDefines.hpp ****     // UNCATEGORIZED_GENERIC_ERROR_13                      = 0xFFFD,   // Generic error (use only o
 531:funsape/util/../globalDefines.hpp ****     // UNCATEGORIZED_GENERIC_ERROR_14                      = 0xFFFE,   // Generic error (use only o
 532:funsape/util/../globalDefines.hpp **** 
 533:funsape/util/../globalDefines.hpp ****     KEYPAD_COLUMNS_PIN_INDEX_INVALID                    = 0xFFF9,
 534:funsape/util/../globalDefines.hpp ****     KEYPAD_LINES_PIN_INDEX_INVALID                      = 0xFFFA,
 535:funsape/util/../globalDefines.hpp **** 
 536:funsape/util/../globalDefines.hpp ****     KEYPAD_LINES_GPIO_PORT_INVALID                      = 0xFFFB,
 537:funsape/util/../globalDefines.hpp ****     KEYPAD_COLUMNS_GPIO_PORT_INVALID                    = 0xFFFC,
 538:funsape/util/../globalDefines.hpp ****     KEYPAD_TYPE_UNSUPPORTED                             = 0xFFFD,
 539:funsape/util/../globalDefines.hpp ****     KEY_VALUES_NOT_SET                                  = 0xFFFE,
 540:funsape/util/../globalDefines.hpp ****     // "I don't have the slightest idea" error code
 541:funsape/util/../globalDefines.hpp ****     UNKNOWN                                             = 0xFFFF,   // Unknown error - Ops!!!!
 542:funsape/util/../globalDefines.hpp **** };
 543:funsape/util/../globalDefines.hpp **** 
 544:funsape/util/../globalDefines.hpp **** // =============================================================================
 545:funsape/util/../globalDefines.hpp **** // Macrofunctions
 546:funsape/util/../globalDefines.hpp **** // =============================================================================
 547:funsape/util/../globalDefines.hpp **** 
 548:funsape/util/../globalDefines.hpp **** //     //////////////////////     DATA VALIDITY    //////////////////////     //
 549:funsape/util/../globalDefines.hpp **** #define isGpioAddressValid(gpioPort)    (       \
 550:funsape/util/../globalDefines.hpp ****         (IS_GPIO_ALL_INSTANCE(gpioPort))        \
 551:funsape/util/../globalDefines.hpp ****         ? (bool_t)true                          \
 552:funsape/util/../globalDefines.hpp ****         : (bool_t)false)
 553:funsape/util/../globalDefines.hpp **** #define isGpioPinIndexValid(gpioPin)    (       \
 554:funsape/util/../globalDefines.hpp ****         (IS_GPIO_ALL_PIN_NUMBER(gpioPin))       \
 555:funsape/util/../globalDefines.hpp ****         ? (bool_t)true                          \
GAS LISTING C:\Users\kenne\AppData\Local\Temp\ccWhffpB.s 			page 11


 556:funsape/util/../globalDefines.hpp ****         : (bool_t)false)
 557:funsape/util/../globalDefines.hpp **** #define isPointerValid(ptr)             (       \
 558:funsape/util/../globalDefines.hpp ****         ((void *)(ptr))                         \
 559:funsape/util/../globalDefines.hpp ****         ? (bool_t)true                          \
 560:funsape/util/../globalDefines.hpp ****         : (bool_t)false)
 561:funsape/util/../globalDefines.hpp **** 
 562:funsape/util/../globalDefines.hpp **** //     //////////////////////     BIT HANDLING     //////////////////////     //
 563:funsape/util/../globalDefines.hpp **** #ifndef setBit
 564:funsape/util/../globalDefines.hpp **** #   define setBit(reg, bit)                     ((reg) |= (1 << (bit)))
 565:funsape/util/../globalDefines.hpp **** #endif
 566:funsape/util/../globalDefines.hpp **** #ifndef clrBit
 567:funsape/util/../globalDefines.hpp **** #   define clrBit(reg, bit)                     ((reg) &= ~(1 << (bit)))
 568:funsape/util/../globalDefines.hpp **** #endif
 569:funsape/util/../globalDefines.hpp **** #ifndef cplBit
 570:funsape/util/../globalDefines.hpp **** #   define cplBit(reg, bit)                     ((reg) ^= (1 << (bit)))
 571:funsape/util/../globalDefines.hpp **** #endif
 572:funsape/util/../globalDefines.hpp **** 
 573:funsape/util/../globalDefines.hpp **** //     ///////////////////////     BIT TESTING    ///////////////////////     //
 574:funsape/util/../globalDefines.hpp **** #ifndef isBitSet
 575:funsape/util/../globalDefines.hpp **** #   define isBitSet(reg, bit)                   (((reg) >> (bit)) & 1)
 576:funsape/util/../globalDefines.hpp **** #endif
 577:funsape/util/../globalDefines.hpp **** #ifndef isBitClr
 578:funsape/util/../globalDefines.hpp **** #   define isBitClr(reg, bit)                   (!isBitSet(reg,bit))
 579:funsape/util/../globalDefines.hpp **** #endif
 580:funsape/util/../globalDefines.hpp **** 
 581:funsape/util/../globalDefines.hpp **** //     ///////////////////////     BIT LOOPING    ///////////////////////     //
 582:funsape/util/../globalDefines.hpp **** #ifndef waitUntilBitIsSet
 583:funsape/util/../globalDefines.hpp **** #   define waitUntilBitIsSet(reg, bit)          do{     \
 584:funsape/util/../globalDefines.hpp ****         doNothing();                                    \
 585:funsape/util/../globalDefines.hpp ****     } while (isBitClr((reg), (bit)))
 586:funsape/util/../globalDefines.hpp **** #endif
 587:funsape/util/../globalDefines.hpp **** #ifndef waitUntilBitIsClear
 588:funsape/util/../globalDefines.hpp **** #   define waitUntilBitIsClear(reg, bit)        do{     \
 589:funsape/util/../globalDefines.hpp ****         doNothing();                                    \
 590:funsape/util/../globalDefines.hpp ****     }while(isBitSet((reg), (bit)))
 591:funsape/util/../globalDefines.hpp **** #endif
 592:funsape/util/../globalDefines.hpp **** 
 593:funsape/util/../globalDefines.hpp **** //     ////////////////////     BIT MASK HANDLING    ////////////////////     //
 594:funsape/util/../globalDefines.hpp **** #ifndef setMask
 595:funsape/util/../globalDefines.hpp **** #   define setMask(reg, mask)                   ((reg) |= (mask))
 596:funsape/util/../globalDefines.hpp **** #endif
 597:funsape/util/../globalDefines.hpp **** #ifndef clrMask
 598:funsape/util/../globalDefines.hpp **** #   define clrMask(reg, mask)                   ((reg) &= ~(mask))
 599:funsape/util/../globalDefines.hpp **** #endif
 600:funsape/util/../globalDefines.hpp **** #ifndef cplMask
 601:funsape/util/../globalDefines.hpp **** #   define cplMask(reg, mask)                   ((reg) ^= (mask))
 602:funsape/util/../globalDefines.hpp **** #endif
 603:funsape/util/../globalDefines.hpp **** 
 604:funsape/util/../globalDefines.hpp **** //     ////////////////     BIT MASK OFFSET HANDLING     ////////////////     //
 605:funsape/util/../globalDefines.hpp **** #ifndef setMaskOffset
 606:funsape/util/../globalDefines.hpp **** #   define setMaskOffset(reg, mask, offset)     ((reg) |= ((mask) << (offset)))
 607:funsape/util/../globalDefines.hpp **** #endif
 608:funsape/util/../globalDefines.hpp **** #ifndef clrMaskOffset
 609:funsape/util/../globalDefines.hpp **** #   define clrMaskOffset(reg, mask, offset)     ((reg) &= ~((mask) << (offset)))
 610:funsape/util/../globalDefines.hpp **** #endif
 611:funsape/util/../globalDefines.hpp **** #ifndef cplMaskOffset
 612:funsape/util/../globalDefines.hpp **** #   define cplMaskOffset(reg, mask, offset)     ((reg) ^= ((mask) << (offset)))
GAS LISTING C:\Users\kenne\AppData\Local\Temp\ccWhffpB.s 			page 12


 613:funsape/util/../globalDefines.hpp **** #endif
 614:funsape/util/../globalDefines.hpp **** 
 615:funsape/util/../globalDefines.hpp **** //     /////////////     DATA MANIPULATION (8-BITS WIDE)    /////////////     //
 616:funsape/util/../globalDefines.hpp **** #define byteGetNibble1(dataByte)        (((dataByte) >> 4) & 0x0F)
 617:funsape/util/../globalDefines.hpp **** #define byteGetNibble0(dataByte)        ((dataByte) & 0x0F)
 618:funsape/util/../globalDefines.hpp **** #define byteSwitchNibbles(dataByte)     ((byteGetNibble0(dataByte) << 4) | \
 619:funsape/util/../globalDefines.hpp ****         (byteGetNibble1(dataByte)))
 620:funsape/util/../globalDefines.hpp **** 
 621:funsape/util/../globalDefines.hpp **** //     ////////////     DATA MANIPULATION (16-BITS WIDE)     ////////////     //
 622:funsape/util/../globalDefines.hpp **** #define hwordGetByte1(dataHword)        (((dataHword) >> 8) & 0x00FF)
 623:funsape/util/../globalDefines.hpp **** #define hwordGetByte0(dataHword)        ((dataHword) & 0x00FF)
 624:funsape/util/../globalDefines.hpp **** #define hwordSwitchBytes(dataHword)     ((hwordGetByte0(dataHword) << 8) | \
 625:funsape/util/../globalDefines.hpp ****         (hwordGetByte1(dataHword)))
 626:funsape/util/../globalDefines.hpp **** 
 627:funsape/util/../globalDefines.hpp **** //     ////////////     DATA MANIPULATION (32-BITS WIDE)     ////////////     //
 628:funsape/util/../globalDefines.hpp **** #define wordGetByte3(dataWord)          (((dataWord) >> 24) & 0x000000FF)
 629:funsape/util/../globalDefines.hpp **** #define wordGetByte2(dataWord)          (((dataWord) >> 16) & 0x000000FF)
 630:funsape/util/../globalDefines.hpp **** #define wordGetByte1(dataWord)          (((dataWord) >> 8) & 0x000000FF)
 631:funsape/util/../globalDefines.hpp **** #define wordGetByte0(dataWord)          ((dataWord) & 0x000000FF)
 632:funsape/util/../globalDefines.hpp **** #define wordSwitchBytes(dataWord)       ((wordGetByte0(dataWord) << 24)  | \
 633:funsape/util/../globalDefines.hpp ****         (wordGetByte1(dataWord) << 16) | \
 634:funsape/util/../globalDefines.hpp ****         (wordGetByte2(dataWord) << 8)  | \
 635:funsape/util/../globalDefines.hpp ****         (wordGetByte3(dataWord)))
 636:funsape/util/../globalDefines.hpp **** #define wordGetHword1(dataWord)         (((dataWord) >> 16) & 0x0000FFFF)
 637:funsape/util/../globalDefines.hpp **** #define wordGetHword0(dataWord)         ((dataWord) & 0x0000FFFF)
 638:funsape/util/../globalDefines.hpp **** #define wordSwitchHwords(dataWord)      ((wordGetHword0(dataWord) << 16) | \
 639:funsape/util/../globalDefines.hpp ****         (wordGetHword1(dataWord)))
 640:funsape/util/../globalDefines.hpp **** 
 641:funsape/util/../globalDefines.hpp **** //     ////////////     DATA MANIPULATION (64-BITS WIDE)     ////////////     //
 642:funsape/util/../globalDefines.hpp **** #define dwordGetByte7(dataDword)        (((dataDword) >> 56) & 0x00000000000000FF)
 643:funsape/util/../globalDefines.hpp **** #define dwordGetByte6(dataDword)        (((dataDword) >> 48) & 0x00000000000000FF)
 644:funsape/util/../globalDefines.hpp **** #define dwordGetByte5(dataDword)        (((dataDword) >> 40) & 0x00000000000000FF)
 645:funsape/util/../globalDefines.hpp **** #define dwordGetByte4(dataDword)        (((dataDword) >> 32) & 0x00000000000000FF)
 646:funsape/util/../globalDefines.hpp **** #define dwordGetByte3(dataDword)        (((dataDword) >> 24) & 0x00000000000000FF)
 647:funsape/util/../globalDefines.hpp **** #define dwordGetByte2(dataDword)        (((dataDword) >> 16) & 0x00000000000000FF)
 648:funsape/util/../globalDefines.hpp **** #define dwordGetByte1(dataDword)        (((dataDword) >> 8) & 0x00000000000000FF)
 649:funsape/util/../globalDefines.hpp **** #define dwordGetByte0(dataDword)        ((dataDword) & 0x00000000000000FF)
 650:funsape/util/../globalDefines.hpp **** #define dwordSwitchBytes(dataDword)     ((dwordGetByte0(dataDword) << 56)  | \
 651:funsape/util/../globalDefines.hpp ****         (dwordGetByte1(dataDword) << 48) | \
 652:funsape/util/../globalDefines.hpp ****         (dwordGetByte2(dataDword) << 40) | \
 653:funsape/util/../globalDefines.hpp ****         (dwordGetByte3(dataDword) << 32) | \
 654:funsape/util/../globalDefines.hpp ****         (dwordGetByte4(dataDword) << 24) | \
 655:funsape/util/../globalDefines.hpp ****         (dwordGetByte5(dataDword) << 16) | \
 656:funsape/util/../globalDefines.hpp ****         (dwordGetByte6(dataDword) << 8)  | \
 657:funsape/util/../globalDefines.hpp ****         (dwordGetByte7(dataDword)))
 658:funsape/util/../globalDefines.hpp **** #define dwordGetHword3(dataDword)       ((dataDword >> 48) & 0x000000000000FFFF)
 659:funsape/util/../globalDefines.hpp **** #define dwordGetHword2(dataDword)       ((dataDword >> 32) & 0x000000000000FFFF)
 660:funsape/util/../globalDefines.hpp **** #define dwordGetHword1(dataDword)       ((dataDword >> 16) & 0x000000000000FFFF)
 661:funsape/util/../globalDefines.hpp **** #define dwordGetHword0(dataDword)       ((dataDword >> 0) & 0x000000000000FFFF)
 662:funsape/util/../globalDefines.hpp **** #define dwordSwitchHwords(dataDword)    ((dwordGetHword0(dataDword) << 48)  | \
 663:funsape/util/../globalDefines.hpp ****         (dwordGetHword1(dataDword) << 32) | \
 664:funsape/util/../globalDefines.hpp ****         (dwordGetHword2(dataDword) << 16) | \
 665:funsape/util/../globalDefines.hpp ****         (dwordGetHword3(dataDword)))
 666:funsape/util/../globalDefines.hpp **** #define dwordGetWord1(dataDword)         (((dataDword) >> 32) & 0x00000000FFFFFFFF)
 667:funsape/util/../globalDefines.hpp **** #define dwordGetWord0(dataDword)         ((dataDword) & 0x00000000FFFFFFFF)
 668:funsape/util/../globalDefines.hpp **** #define dwordSwitchWords(dataDword)     ((dwordGetWord0(dataDword) << 32)  | \
 669:funsape/util/../globalDefines.hpp ****         (dwordGetWord1(dataDword)))
GAS LISTING C:\Users\kenne\AppData\Local\Temp\ccWhffpB.s 			page 13


 670:funsape/util/../globalDefines.hpp **** 
 671:funsape/util/../globalDefines.hpp **** //     /////////////////////     TRUNCATE VALUES    /////////////////////     //
 672:funsape/util/../globalDefines.hpp **** #define getMaximumOf(var1, var2)        (       \
 673:funsape/util/../globalDefines.hpp ****         ((var1) > (var2))                       \
 674:funsape/util/../globalDefines.hpp ****         ? (var1)                                \
 675:funsape/util/../globalDefines.hpp ****         : (var2))
 676:funsape/util/../globalDefines.hpp **** #define getMinimumOf(var1, var2)        (       \
 677:funsape/util/../globalDefines.hpp ****         ((var1) < (var2))                       \
 678:funsape/util/../globalDefines.hpp ****         ? (var1)                                \
 679:funsape/util/../globalDefines.hpp ****         : (var2))
 680:funsape/util/../globalDefines.hpp **** #define truncateBetween(var, min, max)  (       \
 681:funsape/util/../globalDefines.hpp ****         ((var) < (min))                         \
 682:funsape/util/../globalDefines.hpp ****         ? (min)                                 \
 683:funsape/util/../globalDefines.hpp ****         : (((var) > (max))                      \
 684:funsape/util/../globalDefines.hpp ****                 ? (max)                         \
 685:funsape/util/../globalDefines.hpp ****                 : (var)                         \
 686:funsape/util/../globalDefines.hpp ****         ))
 687:funsape/util/../globalDefines.hpp **** 
 688:funsape/util/../globalDefines.hpp **** //     //////////////////////     STRINGIFYING    ///////////////////////     //
 689:funsape/util/../globalDefines.hpp **** #define stringifyName(constant)         #constant
 690:funsape/util/../globalDefines.hpp **** #define stringifyValue(constant)        stringifyName(constant)
 691:funsape/util/../globalDefines.hpp **** 
 692:funsape/util/../globalDefines.hpp **** // =============================================================================
 693:funsape/util/../globalDefines.hpp **** // Extern global variables
 694:funsape/util/../globalDefines.hpp **** // =============================================================================
 695:funsape/util/../globalDefines.hpp **** 
 696:funsape/util/../globalDefines.hpp **** // NONE
 697:funsape/util/../globalDefines.hpp **** 
 698:funsape/util/../globalDefines.hpp **** // =============================================================================
 699:funsape/util/../globalDefines.hpp **** // Inline functions declaration
 700:funsape/util/../globalDefines.hpp **** // =============================================================================
 701:funsape/util/../globalDefines.hpp **** 
 702:funsape/util/../globalDefines.hpp **** //     ///////////////////     CHARACTER HANDLING    ////////////////////     //
 703:funsape/util/../globalDefines.hpp **** char_t inlined toLowerCase(cchar_t character_p);
 704:funsape/util/../globalDefines.hpp **** char_t inlined toUpperCase(cchar_t character_p);
 705:funsape/util/../globalDefines.hpp **** 
 706:funsape/util/../globalDefines.hpp **** //     /////////////////////     DATA VALIDITY     //////////////////////     //
 707:funsape/util/../globalDefines.hpp **** bool_t inlined isAsciiLowerCaseLetter(cchar_t character_p);
 708:funsape/util/../globalDefines.hpp **** bool_t inlined isAsciiUpperCaseLetter(cchar_t character_p);
 709:funsape/util/../globalDefines.hpp **** bool_t inlined isAsciiCommand(cchar_t character_p);
 710:funsape/util/../globalDefines.hpp **** bool_t inlined isAsciiLetter(cchar_t character_p);
 711:funsape/util/../globalDefines.hpp **** bool_t inlined isAsciiNumber(cchar_t character_p);
 712:funsape/util/../globalDefines.hpp **** bool_t inlined isAsciiSymbol(cchar_t character_p);
 713:funsape/util/../globalDefines.hpp **** 
 714:funsape/util/../globalDefines.hpp **** //     /////////////////////     SYSTEM ACTIONS    //////////////////////     //
 715:funsape/util/../globalDefines.hpp **** void inlined die(Error errorCode_p);
 716:funsape/util/../globalDefines.hpp **** void inlined doNop(void);
 717:funsape/util/../globalDefines.hpp **** void inlined doNothing(void);
 718:funsape/util/../globalDefines.hpp **** void inlined systemHalt(void (*function_p)(void) = nullptr);
 719:funsape/util/../globalDefines.hpp **** 
 720:funsape/util/../globalDefines.hpp **** // =============================================================================
 721:funsape/util/../globalDefines.hpp **** // Inline functions definitions
 722:funsape/util/../globalDefines.hpp **** // =============================================================================
 723:funsape/util/../globalDefines.hpp **** 
 724:funsape/util/../globalDefines.hpp **** //     ///////////////////     CHARACTER HANDLING    ////////////////////     //
 725:funsape/util/../globalDefines.hpp **** char_t inlined toLowerCase(cchar_t character_p)
 726:funsape/util/../globalDefines.hpp **** {
GAS LISTING C:\Users\kenne\AppData\Local\Temp\ccWhffpB.s 			page 14


 727:funsape/util/../globalDefines.hpp ****     return ((isAsciiUpperCaseLetter(character_p)) ? (character_p + 0x20) : character_p);
 728:funsape/util/../globalDefines.hpp **** }
 729:funsape/util/../globalDefines.hpp **** 
 730:funsape/util/../globalDefines.hpp **** char_t inlined toUpperCase(cchar_t character_p)
 731:funsape/util/../globalDefines.hpp **** {
 732:funsape/util/../globalDefines.hpp ****     return ((isAsciiLowerCaseLetter(character_p)) ? (character_p - 0x20) : character_p);
 733:funsape/util/../globalDefines.hpp **** }
 734:funsape/util/../globalDefines.hpp **** 
 735:funsape/util/../globalDefines.hpp **** //     /////////////////////     DATA VALIDITY     //////////////////////     //
 736:funsape/util/../globalDefines.hpp **** bool_t inlined isAsciiLowerCaseLetter(cchar_t character_p)
 737:funsape/util/../globalDefines.hpp **** {
 738:funsape/util/../globalDefines.hpp ****     return ((bool_t)(((character_p >= 'a') && (character_p <= 'z')) ? true : false));
 739:funsape/util/../globalDefines.hpp **** }
 740:funsape/util/../globalDefines.hpp **** 
 741:funsape/util/../globalDefines.hpp **** bool_t inlined isAsciiUpperCaseLetter(cchar_t character_p)
 742:funsape/util/../globalDefines.hpp **** {
 743:funsape/util/../globalDefines.hpp ****     return ((bool_t)(((character_p >= 'A') && (character_p <= 'Z')) ? true : false));
 744:funsape/util/../globalDefines.hpp **** }
 745:funsape/util/../globalDefines.hpp **** 
 746:funsape/util/../globalDefines.hpp **** bool_t inlined isAsciiCommand(cchar_t character_p)
 747:funsape/util/../globalDefines.hpp **** {
 748:funsape/util/../globalDefines.hpp ****     return ((bool_t)((character_p < ' ') ? true : false));
 749:funsape/util/../globalDefines.hpp **** }
 750:funsape/util/../globalDefines.hpp **** 
 751:funsape/util/../globalDefines.hpp **** bool_t inlined isAsciiLetter(cchar_t character_p)
 752:funsape/util/../globalDefines.hpp **** {
 753:funsape/util/../globalDefines.hpp ****     return ((bool_t)((isAsciiLowerCaseLetter(character_p) || (isAsciiUpperCaseLetter(character_p)) 
 754:funsape/util/../globalDefines.hpp **** }
 755:funsape/util/../globalDefines.hpp **** 
 756:funsape/util/../globalDefines.hpp **** bool_t inlined isAsciiNumber(cchar_t character_p)
 757:funsape/util/../globalDefines.hpp **** {
 758:funsape/util/../globalDefines.hpp ****     return ((bool_t)(((character_p >= '0') && (character_p <= '9')) ? true : false));
 759:funsape/util/../globalDefines.hpp **** }
 760:funsape/util/../globalDefines.hpp **** 
 761:funsape/util/../globalDefines.hpp **** bool_t inlined isAsciiSymbol(cchar_t character_p)
 762:funsape/util/../globalDefines.hpp **** {
 763:funsape/util/../globalDefines.hpp ****     return ((bool_t)(((!isAsciiNumber(character_p)) && (!isAsciiCommand(character_p)) &&
 764:funsape/util/../globalDefines.hpp ****                                     (!isAsciiLetter(character_p))) ? true : false));
 765:funsape/util/../globalDefines.hpp **** }
 766:funsape/util/../globalDefines.hpp **** 
 767:funsape/util/../globalDefines.hpp **** //     /////////////////////     SYSTEM ACTIONS    //////////////////////     //
 768:funsape/util/../globalDefines.hpp **** void inlined die(Error errorCode_p)
 769:funsape/util/../globalDefines.hpp **** {
 770:funsape/util/../globalDefines.hpp ****     printf("Failed with error=%u (0x%04x).\r", (cuint16_t)errorCode_p, (cuint16_t)errorCode_p);
 771:funsape/util/../globalDefines.hpp ****     systemHalt();
 772:funsape/util/../globalDefines.hpp **** 
 773:funsape/util/../globalDefines.hpp ****     return;
 774:funsape/util/../globalDefines.hpp **** }
 775:funsape/util/../globalDefines.hpp **** 
 776:funsape/util/../globalDefines.hpp **** void inlined doNop(void)
 777:funsape/util/../globalDefines.hpp **** {
 778:funsape/util/../globalDefines.hpp ****     asm volatile("nop");
 779:funsape/util/../globalDefines.hpp **** 
 780:funsape/util/../globalDefines.hpp ****     return;
 781:funsape/util/../globalDefines.hpp **** }
 782:funsape/util/../globalDefines.hpp **** 
 783:funsape/util/../globalDefines.hpp **** void inlined doNothing(void)
GAS LISTING C:\Users\kenne\AppData\Local\Temp\ccWhffpB.s 			page 15


 784:funsape/util/../globalDefines.hpp **** {
 785:funsape/util/../globalDefines.hpp ****     return;
 786:funsape/util/../globalDefines.hpp **** }
 787:funsape/util/../globalDefines.hpp **** 
 788:funsape/util/../globalDefines.hpp **** void inlined systemHalt(void (*function_p)(void))
 789:funsape/util/../globalDefines.hpp **** {
 790:funsape/util/../globalDefines.hpp ****     if(isPointerValid(function_p)) {
 791:funsape/util/../globalDefines.hpp ****         function_p();
 792:funsape/util/../globalDefines.hpp ****     }
 793:funsape/util/../globalDefines.hpp ****     while(1) {
 794:funsape/util/../globalDefines.hpp ****         doNothing();
 795:funsape/util/../globalDefines.hpp ****     }
 796:funsape/util/../globalDefines.hpp **** 
 797:funsape/util/../globalDefines.hpp ****     return;
 798:funsape/util/../globalDefines.hpp **** }
 799:funsape/util/../globalDefines.hpp **** 
 800:funsape/util/../globalDefines.hpp **** // =============================================================================
 801:funsape/util/../globalDefines.hpp **** // Public functions weakly defined
 802:funsape/util/../globalDefines.hpp **** // =============================================================================
 803:funsape/util/../globalDefines.hpp **** 
 804:funsape/util/../globalDefines.hpp **** #define delayMs(time_p)                 _delay_ms(time_p)
 805:funsape/util/../globalDefines.hpp **** #define delayUs(time_p)                 _delay_us(time_p)
 806:funsape/util/../globalDefines.hpp **** 
 807:funsape/util/../globalDefines.hpp **** weakened uint32_t getTick(void)
 808:funsape/util/../globalDefines.hpp **** {
  17               		.loc 1 808 1 view -0
  18               		.cfi_startproc
  19               	/* prologue: function */
  20               	/* frame size = 0 */
  21               	/* stack size = 0 */
  22               	.L__stack_usage = 0
 809:funsape/util/../globalDefines.hpp ****     // TODO
 810:funsape/util/../globalDefines.hpp ****     return 0;
  23               		.loc 1 810 5 view .LVU1
 811:funsape/util/../globalDefines.hpp **** }
  24               		.loc 1 811 1 is_stmt 0 view .LVU2
  25 0000 60E0      		ldi r22,0
  26 0002 70E0      		ldi r23,0
  27 0004 CB01      		movw r24,r22
  28               	/* epilogue start */
  29 0006 0895      		ret
  30               		.cfi_endproc
  31               	.LFE32:
  33               		.section	.text._ZN9ApiParserC2Ehb,"ax",@progbits
  34               	.global	_ZN9ApiParserC2Ehb
  36               	_ZN9ApiParserC2Ehb:
  37               	.LVL0:
  38               	.LFB38:
  39               		.file 2 "funsape/util/apiParser.cpp"
   1:funsape/util/apiParser.cpp **** 
   2:funsape/util/apiParser.cpp **** #include "apiParser.hpp"
   3:funsape/util/apiParser.cpp **** 
   4:funsape/util/apiParser.cpp **** cuint8_t constStartDelimiter = 0x7E;
   5:funsape/util/apiParser.cpp **** 
   6:funsape/util/apiParser.cpp **** ApiParser::ApiParser(uint8_t _payloadMaxSizep, bool_t useEscapeChar_p)
  40               		.loc 2 6 1 is_stmt 1 view -0
  41               		.cfi_startproc
GAS LISTING C:\Users\kenne\AppData\Local\Temp\ccWhffpB.s 			page 16


  42               		.loc 2 6 1 is_stmt 0 view .LVU4
  43 0000 CF92      		push r12
  44               		.cfi_def_cfa_offset 3
  45               		.cfi_offset 12, -2
  46 0002 DF92      		push r13
  47               		.cfi_def_cfa_offset 4
  48               		.cfi_offset 13, -3
  49 0004 EF92      		push r14
  50               		.cfi_def_cfa_offset 5
  51               		.cfi_offset 14, -4
  52 0006 FF92      		push r15
  53               		.cfi_def_cfa_offset 6
  54               		.cfi_offset 15, -5
  55 0008 0F93      		push r16
  56               		.cfi_def_cfa_offset 7
  57               		.cfi_offset 16, -6
  58 000a 1F93      		push r17
  59               		.cfi_def_cfa_offset 8
  60               		.cfi_offset 17, -7
  61 000c CF93      		push r28
  62               		.cfi_def_cfa_offset 9
  63               		.cfi_offset 28, -8
  64 000e DF93      		push r29
  65               		.cfi_def_cfa_offset 10
  66               		.cfi_offset 29, -9
  67               	/* prologue: function */
  68               	/* frame size = 0 */
  69               	/* stack size = 8 */
  70               	.L__stack_usage = 8
  71 0010 C82F      		mov r28,r24
  72 0012 D92F      		mov r29,r25
  73               	.LBB28:
   7:funsape/util/apiParser.cpp **** {
   8:funsape/util/apiParser.cpp ****     // Resets data members - Status and Control
   9:funsape/util/apiParser.cpp ****     this->_initialized                  = false;
  74               		.loc 2 9 5 is_stmt 1 view .LVU5
  75               		.loc 2 9 41 is_stmt 0 view .LVU6
  76 0014 8881      		ld r24,Y
  77               	.LVL1:
  78               		.loc 2 9 41 view .LVU7
  79 0016 8E7F      		andi r24,lo8(~(1<<0))
  80 0018 8883      		st Y,r24
  10:funsape/util/apiParser.cpp ****     this->_lastError                    = Error::NOT_INITIALIZED;
  81               		.loc 2 10 5 is_stmt 1 view .LVU8
  82               		.loc 2 10 41 is_stmt 0 view .LVU9
  83 001a 84E0      		ldi r24,lo8(4)
  84 001c 90E0      		ldi r25,0
  85 001e 9A83      		std Y+2,r25
  86 0020 8983      		std Y+1,r24
  11:funsape/util/apiParser.cpp ****     this->_payloadMaxSize               = 0;
  87               		.loc 2 11 5 is_stmt 1 view .LVU10
  88               		.loc 2 11 41 is_stmt 0 view .LVU11
  89 0022 1B82      		std Y+3,__zero_reg__
  12:funsape/util/apiParser.cpp ****     this->_rawMaxSize                   = 0;
  90               		.loc 2 12 5 is_stmt 1 view .LVU12
  91               		.loc 2 12 41 is_stmt 0 view .LVU13
  92 0024 8C81      		ldd r24,Y+4
GAS LISTING C:\Users\kenne\AppData\Local\Temp\ccWhffpB.s 			page 17


  93 0026 8170      		andi r24,lo8(1)
  94 0028 8C83      		std Y+4,r24
  95 002a 8D81      		ldd r24,Y+5
  96 002c 982F      		mov r25,r24
  97 002e 9E7F      		andi r25,lo8(-2)
  98 0030 9D83      		std Y+5,r25
  99 0032 887F      		andi r24,lo8(-8)
 100 0034 8D83      		std Y+5,r24
  13:funsape/util/apiParser.cpp ****     this->_useEscapeChar                = false;
 101               		.loc 2 13 5 is_stmt 1 view .LVU14
 102               		.loc 2 13 41 is_stmt 0 view .LVU15
 103 0036 1C82      		std Y+4,__zero_reg__
  14:funsape/util/apiParser.cpp ****     // Resets data members - Rx Raw Data
  15:funsape/util/apiParser.cpp ****     this->_rxRawChecksum                = 0xFF;
 104               		.loc 2 15 5 is_stmt 1 view .LVU16
 105               		.loc 2 15 41 is_stmt 0 view .LVU17
 106 0038 8FEF      		ldi r24,lo8(-1)
 107 003a 8E83      		std Y+6,r24
  16:funsape/util/apiParser.cpp ****     this->_rxRawData                    = nullptr;
 108               		.loc 2 16 5 is_stmt 1 view .LVU18
 109               		.loc 2 16 41 is_stmt 0 view .LVU19
 110 003c 1886      		std Y+8,__zero_reg__
 111 003e 1F82      		std Y+7,__zero_reg__
  17:funsape/util/apiParser.cpp ****     this->_rxRawEscape                  = false;
 112               		.loc 2 17 5 is_stmt 1 view .LVU20
 113               		.loc 2 17 41 is_stmt 0 view .LVU21
 114 0040 8985      		ldd r24,Y+9
 115 0042 8E7F      		andi r24,lo8(~(1<<0))
 116 0044 8987      		std Y+9,r24
  18:funsape/util/apiParser.cpp ****     this->_rxRawIndex                   = 0;
 117               		.loc 2 18 5 is_stmt 1 view .LVU22
 118               		.loc 2 18 41 is_stmt 0 view .LVU23
 119 0046 8170      		andi r24,lo8(1)
 120 0048 8987      		std Y+9,r24
 121 004a 9A85      		ldd r25,Y+10
 122 004c 892F      		mov r24,r25
 123 004e 8E7F      		andi r24,lo8(-2)
 124 0050 8A87      		std Y+10,r24
 125 0052 987F      		andi r25,lo8(-8)
 126 0054 9A87      		std Y+10,r25
  19:funsape/util/apiParser.cpp ****     this->_rxRawReady                   = false;
 127               		.loc 2 19 5 is_stmt 1 view .LVU24
 128               		.loc 2 19 41 is_stmt 0 view .LVU25
 129 0056 977F      		andi r25,lo8(~(1<<3))
 130 0058 9A87      		std Y+10,r25
  20:funsape/util/apiParser.cpp ****     this->_rxRawSize                    = 0;
 131               		.loc 2 20 5 is_stmt 1 view .LVU26
 132               		.loc 2 20 41 is_stmt 0 view .LVU27
 133 005a 9F70      		andi r25,lo8(15)
 134 005c 9A87      		std Y+10,r25
 135 005e 8B85      		ldd r24,Y+11
 136 0060 982F      		mov r25,r24
 137 0062 907F      		andi r25,lo8(-16)
 138 0064 9B87      		std Y+11,r25
 139 0066 807C      		andi r24,lo8(-64)
 140 0068 8B87      		std Y+11,r24
  21:funsape/util/apiParser.cpp ****     this->_rxRawState                   = State::START_DELIMITER;
GAS LISTING C:\Users\kenne\AppData\Local\Temp\ccWhffpB.s 			page 18


 141               		.loc 2 21 5 is_stmt 1 view .LVU28
 142               		.loc 2 21 41 is_stmt 0 view .LVU29
 143 006a 1D86      		std Y+13,__zero_reg__
 144 006c 1C86      		std Y+12,__zero_reg__
  22:funsape/util/apiParser.cpp ****     // Resets data members - Tx Raw Data
  23:funsape/util/apiParser.cpp ****     this->_txRawData                    = nullptr;
 145               		.loc 2 23 5 is_stmt 1 view .LVU30
 146               		.loc 2 23 41 is_stmt 0 view .LVU31
 147 006e 1F86      		std Y+15,__zero_reg__
 148 0070 1E86      		std Y+14,__zero_reg__
  24:funsape/util/apiParser.cpp ****     this->_txRawIndex                   = 0;
 149               		.loc 2 24 5 is_stmt 1 view .LVU32
 150               		.loc 2 24 41 is_stmt 0 view .LVU33
 151 0072 188A      		std Y+16,__zero_reg__
 152 0074 8989      		ldd r24,Y+17
 153 0076 8C7F      		andi r24,lo8(-4)
 154 0078 898B      		std Y+17,r24
  25:funsape/util/apiParser.cpp ****     this->_txRawSize                    = 0;
 155               		.loc 2 25 5 is_stmt 1 view .LVU34
 156               		.loc 2 25 41 is_stmt 0 view .LVU35
 157 007a 198A      		std Y+17,__zero_reg__
 158 007c 8A89      		ldd r24,Y+18
 159 007e 982F      		mov r25,r24
 160 0080 9C7F      		andi r25,lo8(-4)
 161 0082 9A8B      		std Y+18,r25
 162 0084 807F      		andi r24,lo8(-16)
 163 0086 8A8B      		std Y+18,r24
  26:funsape/util/apiParser.cpp ****     // Resets data members - Decoded Rx Raw Data
  27:funsape/util/apiParser.cpp ****     this->_rxDecodedAuxData             = 0;
 164               		.loc 2 27 5 is_stmt 1 view .LVU36
 165               		.loc 2 27 41 is_stmt 0 view .LVU37
 166 0088 1B8A      		std Y+19,__zero_reg__
  28:funsape/util/apiParser.cpp ****     this->_rxDecodedDestinyAddress      = 0;
 167               		.loc 2 28 5 is_stmt 1 view .LVU38
 168               		.loc 2 28 41 is_stmt 0 view .LVU39
 169 008a 1C8A      		std Y+20,__zero_reg__
  29:funsape/util/apiParser.cpp ****     this->_rxDecodedId                  = 0;
 170               		.loc 2 29 5 is_stmt 1 view .LVU40
 171               		.loc 2 29 41 is_stmt 0 view .LVU41
 172 008c 1D8A      		std Y+21,__zero_reg__
  30:funsape/util/apiParser.cpp ****     this->_rxDecodedPayloadData         = nullptr;
 173               		.loc 2 30 5 is_stmt 1 view .LVU42
 174               		.loc 2 30 41 is_stmt 0 view .LVU43
 175 008e 1F8A      		std Y+23,__zero_reg__
 176 0090 1E8A      		std Y+22,__zero_reg__
  31:funsape/util/apiParser.cpp ****     this->_rxDecodedPayloadIndex        = 0;
 177               		.loc 2 31 5 is_stmt 1 view .LVU44
 178               		.loc 2 31 41 is_stmt 0 view .LVU45
 179 0092 188E      		std Y+24,__zero_reg__
  32:funsape/util/apiParser.cpp ****     this->_rxDecodedPayloadSize         = 0;
 180               		.loc 2 32 5 is_stmt 1 view .LVU46
 181               		.loc 2 32 41 is_stmt 0 view .LVU47
 182 0094 198E      		std Y+25,__zero_reg__
  33:funsape/util/apiParser.cpp ****     this->_rxDecodedSourceAddress       = 0;
 183               		.loc 2 33 5 is_stmt 1 view .LVU48
 184               		.loc 2 33 41 is_stmt 0 view .LVU49
 185 0096 1A8E      		std Y+26,__zero_reg__
GAS LISTING C:\Users\kenne\AppData\Local\Temp\ccWhffpB.s 			page 19


  34:funsape/util/apiParser.cpp ****     // Resets data members - Decoded Tx Raw Data
  35:funsape/util/apiParser.cpp ****     this->_txDecodedDestinyAddress      = 0;
 186               		.loc 2 35 5 is_stmt 1 view .LVU50
 187               		.loc 2 35 41 is_stmt 0 view .LVU51
 188 0098 1B8E      		std Y+27,__zero_reg__
  36:funsape/util/apiParser.cpp ****     this->_txDecodedId                  = 0;
 189               		.loc 2 36 5 is_stmt 1 view .LVU52
 190               		.loc 2 36 41 is_stmt 0 view .LVU53
 191 009a 1C8E      		std Y+28,__zero_reg__
  37:funsape/util/apiParser.cpp ****     this->_txDecodedIdAutoIncrement     = false;
 192               		.loc 2 37 5 is_stmt 1 view .LVU54
 193               		.loc 2 37 41 is_stmt 0 view .LVU55
 194 009c 1D8E      		std Y+29,__zero_reg__
  38:funsape/util/apiParser.cpp ****     this->_txDecodedPayloadData         = nullptr;
 195               		.loc 2 38 5 is_stmt 1 view .LVU56
 196               		.loc 2 38 41 is_stmt 0 view .LVU57
 197 009e 1F8E      		std Y+31,__zero_reg__
 198 00a0 1E8E      		std Y+30,__zero_reg__
  39:funsape/util/apiParser.cpp ****     this->_txDecodedPayloadIndex        = 0;
 199               		.loc 2 39 5 is_stmt 1 view .LVU58
 200               		.loc 2 39 41 is_stmt 0 view .LVU59
 201 00a2 18A2      		std Y+32,__zero_reg__
  40:funsape/util/apiParser.cpp ****     this->_txDecodedPayloadSize         = 0;
 202               		.loc 2 40 5 is_stmt 1 view .LVU60
 203               		.loc 2 40 41 is_stmt 0 view .LVU61
 204 00a4 19A2      		std Y+33,__zero_reg__
  41:funsape/util/apiParser.cpp ****     this->_txDecodedSourceAddress       = 0;
 205               		.loc 2 41 5 is_stmt 1 view .LVU62
 206               		.loc 2 41 41 is_stmt 0 view .LVU63
 207 00a6 1AA2      		std Y+34,__zero_reg__
  42:funsape/util/apiParser.cpp **** 
  43:funsape/util/apiParser.cpp ****     // Checks for errors
  44:funsape/util/apiParser.cpp ****     if(_payloadMaxSizep < 2) {
 208               		.loc 2 44 5 is_stmt 1 view .LVU64
 209 00a8 6230      		cpi r22,lo8(2)
 210 00aa 00F4      		brsh .+2
 211 00ac 00C0      		rjmp .L10
  45:funsape/util/apiParser.cpp ****         this->_lastError = Error::BUFFER_SIZE_TOO_SMALL;
  46:funsape/util/apiParser.cpp ****         return;
  47:funsape/util/apiParser.cpp ****     }
  48:funsape/util/apiParser.cpp **** 
  49:funsape/util/apiParser.cpp ****     // Updates data members
  50:funsape/util/apiParser.cpp ****     this->_useEscapeChar = useEscapeChar_p;
 212               		.loc 2 50 5 view .LVU65
 213               		.loc 2 50 26 is_stmt 0 view .LVU66
 214 00ae 8C81      		ldd r24,Y+4
 215 00b0 40FB      		bst r20,0
 216 00b2 80F9      		bld r24,0
 217 00b4 8C83      		std Y+4,r24
  51:funsape/util/apiParser.cpp ****     this->_payloadMaxSize = _payloadMaxSizep;
 218               		.loc 2 51 5 is_stmt 1 view .LVU67
 219               		.loc 2 51 27 is_stmt 0 view .LVU68
 220 00b6 6B83      		std Y+3,r22
  52:funsape/util/apiParser.cpp ****     this->_rawMaxSize = 5 + (uint16_t)_payloadMaxSizep; // (ID+DA+SA+SZ+CH)+PL
 221               		.loc 2 52 5 is_stmt 1 view .LVU69
 222               		.loc 2 52 29 is_stmt 0 view .LVU70
 223 00b8 E62E      		mov r14,r22
GAS LISTING C:\Users\kenne\AppData\Local\Temp\ccWhffpB.s 			page 20


 224 00ba F12C      		mov r15,__zero_reg__
 225               		.loc 2 52 27 view .LVU71
 226 00bc 9701      		movw r18,r14
 227 00be 2B5F      		subi r18,-5
 228 00c0 3F4F      		sbci r19,-1
 229               		.loc 2 52 23 view .LVU72
 230 00c2 922F      		mov r25,r18
 231 00c4 990F      		lsl r25
 232 00c6 8170      		andi r24,lo8(1)
 233 00c8 892B      		or r24,r25
 234 00ca 8C83      		std Y+4,r24
 235 00cc 822F      		mov r24,r18
 236 00ce 881F      		rol r24
 237 00d0 8827      		clr r24
 238 00d2 881F      		rol r24
 239 00d4 9D81      		ldd r25,Y+5
 240 00d6 9E7F      		andi r25,lo8(-2)
 241 00d8 892B      		or r24,r25
 242 00da 8D83      		std Y+5,r24
 243 00dc 932F      		mov r25,r19
 244 00de 9370      		andi r25,lo8(3)
 245 00e0 990F      		lsl r25
 246 00e2 897F      		andi r24,lo8(-7)
 247 00e4 892B      		or r24,r25
 248 00e6 8D83      		std Y+5,r24
  53:funsape/util/apiParser.cpp ****     if(useEscapeChar_p) {
 249               		.loc 2 53 5 is_stmt 1 view .LVU73
 250 00e8 4423      		tst r20
 251 00ea 01F0      		breq .L5
  54:funsape/util/apiParser.cpp ****         this->_rawMaxSize *= 2;                         // Double for escapes
 252               		.loc 2 54 9 view .LVU74
 253               		.loc 2 54 27 is_stmt 0 view .LVU75
 254 00ec 220F      		lsl r18
 255 00ee 331F      		rol r19
 256 00f0 822F      		mov r24,r18
 257 00f2 880F      		lsl r24
 258 00f4 9C81      		ldd r25,Y+4
 259 00f6 9170      		andi r25,lo8(1)
 260 00f8 892B      		or r24,r25
 261 00fa 8C83      		std Y+4,r24
 262 00fc 822F      		mov r24,r18
 263 00fe 881F      		rol r24
 264 0100 8827      		clr r24
 265 0102 881F      		rol r24
 266 0104 9D81      		ldd r25,Y+5
 267 0106 9E7F      		andi r25,lo8(-2)
 268 0108 892B      		or r24,r25
 269 010a 8D83      		std Y+5,r24
 270 010c 932F      		mov r25,r19
 271 010e 9370      		andi r25,lo8(3)
 272 0110 990F      		lsl r25
 273 0112 897F      		andi r24,lo8(-7)
 274 0114 892B      		or r24,r25
 275 0116 8D83      		std Y+5,r24
 276               	.L5:
  55:funsape/util/apiParser.cpp ****     }
  56:funsape/util/apiParser.cpp ****     this->_rawMaxSize++;                                // Add START
GAS LISTING C:\Users\kenne\AppData\Local\Temp\ccWhffpB.s 			page 21


 277               		.loc 2 56 5 is_stmt 1 view .LVU76
 278               		.loc 2 56 11 is_stmt 0 view .LVU77
 279 0118 8C81      		ldd r24,Y+4
 280 011a 282F      		mov r18,r24
 281 011c 2695      		lsr r18
 282 011e 9D81      		ldd r25,Y+5
 283 0120 392F      		mov r19,r25
 284 0122 3795      		ror r19
 285 0124 3327      		clr r19
 286 0126 3795      		ror r19
 287 0128 032F      		mov r16,r19
 288 012a 022B      		or r16,r18
 289 012c 292F      		mov r18,r25
 290 012e 2695      		lsr r18
 291 0130 122F      		mov r17,r18
 292 0132 1370      		andi r17,lo8(3)
 293               		.loc 2 56 22 view .LVU78
 294 0134 0F5F      		subi r16,-1
 295 0136 1F4F      		sbci r17,-1
 296 0138 1370      		andi r17,3
 297 013a 202F      		mov r18,r16
 298 013c 220F      		lsl r18
 299 013e 8170      		andi r24,lo8(1)
 300 0140 822B      		or r24,r18
 301 0142 8C83      		std Y+4,r24
 302 0144 802F      		mov r24,r16
 303 0146 881F      		rol r24
 304 0148 8827      		clr r24
 305 014a 881F      		rol r24
 306 014c 9E7F      		andi r25,lo8(-2)
 307 014e 892B      		or r24,r25
 308 0150 8D83      		std Y+5,r24
 309 0152 912F      		mov r25,r17
 310 0154 9370      		andi r25,lo8(3)
 311 0156 990F      		lsl r25
 312 0158 897F      		andi r24,lo8(-7)
 313 015a 892B      		or r24,r25
 314 015c 8D83      		std Y+5,r24
  57:funsape/util/apiParser.cpp **** 
  58:funsape/util/apiParser.cpp ****     // Allocates memory => Raw Rx Data
  59:funsape/util/apiParser.cpp ****     this->_rxRawData = (uint8_t *)calloc(this->_rawMaxSize, sizeof(uint8_t));
 315               		.loc 2 59 5 is_stmt 1 view .LVU79
 316               		.loc 2 59 41 is_stmt 0 view .LVU80
 317 015e 61E0      		ldi r22,lo8(1)
 318 0160 70E0      		ldi r23,0
 319               	.LVL2:
 320               		.loc 2 59 41 view .LVU81
 321 0162 C801      		movw r24,r16
 322 0164 0E94 0000 		call calloc
 323               	.LVL3:
 324               		.loc 2 59 41 view .LVU82
 325 0168 C82E      		mov r12,r24
 326 016a D92E      		mov r13,r25
 327               		.loc 2 59 22 view .LVU83
 328 016c D886      		std Y+8,r13
 329 016e CF82      		std Y+7,r12
  60:funsape/util/apiParser.cpp ****     if(!isPointerValid(this->_rxRawData)) {
GAS LISTING C:\Users\kenne\AppData\Local\Temp\ccWhffpB.s 			page 22


 330               		.loc 2 60 5 is_stmt 1 view .LVU84
 331 0170 C114      		cp r12,__zero_reg__
 332 0172 D104      		cpc r13,__zero_reg__
 333 0174 01F0      		breq .L11
  61:funsape/util/apiParser.cpp ****         // Returns error
  62:funsape/util/apiParser.cpp ****         this->_lastError = Error::MEMORY_ALLOCATION;
  63:funsape/util/apiParser.cpp ****         return;
  64:funsape/util/apiParser.cpp ****     }
  65:funsape/util/apiParser.cpp ****     // Allocates memory => Raw Tx Data
  66:funsape/util/apiParser.cpp ****     this->_txRawData = (uint8_t *)calloc(this->_rawMaxSize, sizeof(uint8_t));
 334               		.loc 2 66 5 view .LVU85
 335               		.loc 2 66 41 is_stmt 0 view .LVU86
 336 0176 61E0      		ldi r22,lo8(1)
 337 0178 70E0      		ldi r23,0
 338 017a C801      		movw r24,r16
 339 017c 0E94 0000 		call calloc
 340               	.LVL4:
 341 0180 282F      		mov r18,r24
 342 0182 392F      		mov r19,r25
 343               		.loc 2 66 22 view .LVU87
 344 0184 3F87      		std Y+15,r19
 345 0186 2E87      		std Y+14,r18
  67:funsape/util/apiParser.cpp ****     if(!isPointerValid(this->_txRawData)) {
 346               		.loc 2 67 5 is_stmt 1 view .LVU88
 347 0188 232B      		or r18,r19
 348 018a 01F0      		breq .L12
  68:funsape/util/apiParser.cpp ****         // Returns error
  69:funsape/util/apiParser.cpp ****         free(this->_rxRawData);
  70:funsape/util/apiParser.cpp ****         this->_lastError = Error::MEMORY_ALLOCATION;
  71:funsape/util/apiParser.cpp ****         return;
  72:funsape/util/apiParser.cpp ****     }
  73:funsape/util/apiParser.cpp ****     // Allocates memory => Decoded Rx Data
  74:funsape/util/apiParser.cpp ****     this->_rxDecodedPayloadData = (uint8_t *)calloc(this->_payloadMaxSize, sizeof(uint8_t));
 349               		.loc 2 74 5 view .LVU89
 350               		.loc 2 74 52 is_stmt 0 view .LVU90
 351 018c 61E0      		ldi r22,lo8(1)
 352 018e 70E0      		ldi r23,0
 353 0190 C701      		movw r24,r14
 354 0192 0E94 0000 		call calloc
 355               	.LVL5:
 356 0196 282F      		mov r18,r24
 357 0198 392F      		mov r19,r25
 358               		.loc 2 74 33 view .LVU91
 359 019a 3F8B      		std Y+23,r19
 360 019c 2E8B      		std Y+22,r18
  75:funsape/util/apiParser.cpp ****     if(!isPointerValid(this->_rxDecodedPayloadData)) {
 361               		.loc 2 75 5 is_stmt 1 view .LVU92
 362 019e 232B      		or r18,r19
 363 01a0 01F0      		breq .L13
  76:funsape/util/apiParser.cpp ****         // Returns error
  77:funsape/util/apiParser.cpp ****         free(this->_rxRawData);
  78:funsape/util/apiParser.cpp ****         free(this->_txRawData);
  79:funsape/util/apiParser.cpp ****         this->_lastError = Error::MEMORY_ALLOCATION;
  80:funsape/util/apiParser.cpp ****         return;
  81:funsape/util/apiParser.cpp ****     }
  82:funsape/util/apiParser.cpp ****     // Allocates memory => Decoded Tx Data
  83:funsape/util/apiParser.cpp ****     this->_txDecodedPayloadData = (uint8_t *)calloc(this->_payloadMaxSize, sizeof(uint8_t));
GAS LISTING C:\Users\kenne\AppData\Local\Temp\ccWhffpB.s 			page 23


 364               		.loc 2 83 5 view .LVU93
 365               		.loc 2 83 52 is_stmt 0 view .LVU94
 366 01a2 61E0      		ldi r22,lo8(1)
 367 01a4 70E0      		ldi r23,0
 368 01a6 C701      		movw r24,r14
 369 01a8 0E94 0000 		call calloc
 370               	.LVL6:
 371 01ac 282F      		mov r18,r24
 372 01ae 392F      		mov r19,r25
 373               		.loc 2 83 33 view .LVU95
 374 01b0 3F8F      		std Y+31,r19
 375 01b2 2E8F      		std Y+30,r18
  84:funsape/util/apiParser.cpp ****     if(!isPointerValid(this->_txDecodedPayloadData)) {
 376               		.loc 2 84 5 is_stmt 1 view .LVU96
 377 01b4 232B      		or r18,r19
 378 01b6 01F0      		breq .L14
  85:funsape/util/apiParser.cpp ****         // Returns error
  86:funsape/util/apiParser.cpp ****         free(this->_rxRawData);
  87:funsape/util/apiParser.cpp ****         free(this->_txRawData);
  88:funsape/util/apiParser.cpp ****         free(this->_rxDecodedPayloadData);
  89:funsape/util/apiParser.cpp ****         this->_lastError = Error::MEMORY_ALLOCATION;
  90:funsape/util/apiParser.cpp ****         return;
  91:funsape/util/apiParser.cpp ****     }
  92:funsape/util/apiParser.cpp ****     this->_initialized = true;
 379               		.loc 2 92 5 view .LVU97
 380               		.loc 2 92 24 is_stmt 0 view .LVU98
 381 01b8 8881      		ld r24,Y
 382 01ba 8160      		ori r24,lo8(1<<0)
 383 01bc 8883      		st Y,r24
  93:funsape/util/apiParser.cpp **** 
  94:funsape/util/apiParser.cpp ****     // Returns successfully
  95:funsape/util/apiParser.cpp ****     this->_lastError = Error::NONE;
 384               		.loc 2 95 5 is_stmt 1 view .LVU99
 385               		.loc 2 95 22 is_stmt 0 view .LVU100
 386 01be 1A82      		std Y+2,__zero_reg__
 387 01c0 1982      		std Y+1,__zero_reg__
  96:funsape/util/apiParser.cpp ****     return;
 388               		.loc 2 96 5 is_stmt 1 view .LVU101
 389               	.LVL7:
 390               	.L2:
 391               	/* epilogue start */
 392               		.loc 2 96 5 is_stmt 0 view .LVU102
 393               	.LBE28:
  97:funsape/util/apiParser.cpp **** }
 394               		.loc 2 97 1 view .LVU103
 395 01c2 DF91      		pop r29
 396 01c4 CF91      		pop r28
 397 01c6 1F91      		pop r17
 398 01c8 0F91      		pop r16
 399 01ca FF90      		pop r15
 400 01cc EF90      		pop r14
 401 01ce DF90      		pop r13
 402 01d0 CF90      		pop r12
 403 01d2 0895      		ret
 404               	.LVL8:
 405               	.L10:
 406               	.LBB29:
GAS LISTING C:\Users\kenne\AppData\Local\Temp\ccWhffpB.s 			page 24


  45:funsape/util/apiParser.cpp ****         return;
 407               		.loc 2 45 9 is_stmt 1 view .LVU104
  45:funsape/util/apiParser.cpp ****         return;
 408               		.loc 2 45 26 is_stmt 0 view .LVU105
 409 01d4 86E2      		ldi r24,lo8(38)
 410 01d6 90E0      		ldi r25,0
 411 01d8 9A83      		std Y+2,r25
 412 01da 8983      		std Y+1,r24
  46:funsape/util/apiParser.cpp ****     }
 413               		.loc 2 46 9 is_stmt 1 view .LVU106
 414 01dc 00C0      		rjmp .L2
 415               	.LVL9:
 416               	.L11:
  62:funsape/util/apiParser.cpp ****         return;
 417               		.loc 2 62 9 view .LVU107
  62:funsape/util/apiParser.cpp ****         return;
 418               		.loc 2 62 26 is_stmt 0 view .LVU108
 419 01de 8BE0      		ldi r24,lo8(11)
 420 01e0 90E0      		ldi r25,0
 421 01e2 9A83      		std Y+2,r25
 422 01e4 8983      		std Y+1,r24
  63:funsape/util/apiParser.cpp ****     }
 423               		.loc 2 63 9 is_stmt 1 view .LVU109
 424 01e6 00C0      		rjmp .L2
 425               	.L12:
  69:funsape/util/apiParser.cpp ****         this->_lastError = Error::MEMORY_ALLOCATION;
 426               		.loc 2 69 9 view .LVU110
  69:funsape/util/apiParser.cpp ****         this->_lastError = Error::MEMORY_ALLOCATION;
 427               		.loc 2 69 13 is_stmt 0 view .LVU111
 428 01e8 C601      		movw r24,r12
 429 01ea 0E94 0000 		call free
 430               	.LVL10:
  70:funsape/util/apiParser.cpp ****         return;
 431               		.loc 2 70 9 is_stmt 1 view .LVU112
  70:funsape/util/apiParser.cpp ****         return;
 432               		.loc 2 70 26 is_stmt 0 view .LVU113
 433 01ee 8BE0      		ldi r24,lo8(11)
 434 01f0 90E0      		ldi r25,0
 435 01f2 9A83      		std Y+2,r25
 436 01f4 8983      		std Y+1,r24
  71:funsape/util/apiParser.cpp ****     }
 437               		.loc 2 71 9 is_stmt 1 view .LVU114
 438 01f6 00C0      		rjmp .L2
 439               	.L13:
  77:funsape/util/apiParser.cpp ****         free(this->_txRawData);
 440               		.loc 2 77 9 view .LVU115
  77:funsape/util/apiParser.cpp ****         free(this->_txRawData);
 441               		.loc 2 77 13 is_stmt 0 view .LVU116
 442 01f8 C601      		movw r24,r12
 443 01fa 0E94 0000 		call free
 444               	.LVL11:
  78:funsape/util/apiParser.cpp ****         this->_lastError = Error::MEMORY_ALLOCATION;
 445               		.loc 2 78 9 is_stmt 1 view .LVU117
  78:funsape/util/apiParser.cpp ****         this->_lastError = Error::MEMORY_ALLOCATION;
 446               		.loc 2 78 13 is_stmt 0 view .LVU118
 447 01fe 8E85      		ldd r24,Y+14
 448 0200 9F85      		ldd r25,Y+15
GAS LISTING C:\Users\kenne\AppData\Local\Temp\ccWhffpB.s 			page 25


 449 0202 0E94 0000 		call free
 450               	.LVL12:
  79:funsape/util/apiParser.cpp ****         return;
 451               		.loc 2 79 9 is_stmt 1 view .LVU119
  79:funsape/util/apiParser.cpp ****         return;
 452               		.loc 2 79 26 is_stmt 0 view .LVU120
 453 0206 8BE0      		ldi r24,lo8(11)
 454 0208 90E0      		ldi r25,0
 455 020a 9A83      		std Y+2,r25
 456 020c 8983      		std Y+1,r24
  80:funsape/util/apiParser.cpp ****     }
 457               		.loc 2 80 9 is_stmt 1 view .LVU121
 458 020e 00C0      		rjmp .L2
 459               	.L14:
  86:funsape/util/apiParser.cpp ****         free(this->_txRawData);
 460               		.loc 2 86 9 view .LVU122
  86:funsape/util/apiParser.cpp ****         free(this->_txRawData);
 461               		.loc 2 86 13 is_stmt 0 view .LVU123
 462 0210 C601      		movw r24,r12
 463 0212 0E94 0000 		call free
 464               	.LVL13:
  87:funsape/util/apiParser.cpp ****         free(this->_rxDecodedPayloadData);
 465               		.loc 2 87 9 is_stmt 1 view .LVU124
  87:funsape/util/apiParser.cpp ****         free(this->_rxDecodedPayloadData);
 466               		.loc 2 87 13 is_stmt 0 view .LVU125
 467 0216 8E85      		ldd r24,Y+14
 468 0218 9F85      		ldd r25,Y+15
 469 021a 0E94 0000 		call free
 470               	.LVL14:
  88:funsape/util/apiParser.cpp ****         this->_lastError = Error::MEMORY_ALLOCATION;
 471               		.loc 2 88 9 is_stmt 1 view .LVU126
  88:funsape/util/apiParser.cpp ****         this->_lastError = Error::MEMORY_ALLOCATION;
 472               		.loc 2 88 13 is_stmt 0 view .LVU127
 473 021e 8E89      		ldd r24,Y+22
 474 0220 9F89      		ldd r25,Y+23
 475 0222 0E94 0000 		call free
 476               	.LVL15:
  89:funsape/util/apiParser.cpp ****         return;
 477               		.loc 2 89 9 is_stmt 1 view .LVU128
  89:funsape/util/apiParser.cpp ****         return;
 478               		.loc 2 89 26 is_stmt 0 view .LVU129
 479 0226 8BE0      		ldi r24,lo8(11)
 480 0228 90E0      		ldi r25,0
 481 022a 9A83      		std Y+2,r25
 482 022c 8983      		std Y+1,r24
  90:funsape/util/apiParser.cpp ****     }
 483               		.loc 2 90 9 is_stmt 1 view .LVU130
 484 022e 00C0      		rjmp .L2
 485               	.LBE29:
 486               		.cfi_endproc
 487               	.LFE38:
 489               	.global	_ZN9ApiParserC1Ehb
 490               		.set	_ZN9ApiParserC1Ehb,_ZN9ApiParserC2Ehb
 491               		.section	.text._ZN9ApiParser12getLastErrorEv,"ax",@progbits
 492               	.global	_ZN9ApiParser12getLastErrorEv
 494               	_ZN9ApiParser12getLastErrorEv:
 495               	.LVL16:
GAS LISTING C:\Users\kenne\AppData\Local\Temp\ccWhffpB.s 			page 26


 496               	.LFB40:
  98:funsape/util/apiParser.cpp **** 
  99:funsape/util/apiParser.cpp **** // =============================================================================
 100:funsape/util/apiParser.cpp **** // Class public methods
 101:funsape/util/apiParser.cpp **** // =============================================================================
 102:funsape/util/apiParser.cpp **** 
 103:funsape/util/apiParser.cpp **** Error ApiParser::getLastError(void)
 104:funsape/util/apiParser.cpp **** {
 497               		.loc 2 104 1 view -0
 498               		.cfi_startproc
 499               	/* prologue: function */
 500               	/* frame size = 0 */
 501               	/* stack size = 0 */
 502               	.L__stack_usage = 0
 105:funsape/util/apiParser.cpp ****     // Returns last error
 106:funsape/util/apiParser.cpp ****     return this->_lastError;
 503               		.loc 2 106 5 view .LVU132
 107:funsape/util/apiParser.cpp **** }
 504               		.loc 2 107 1 is_stmt 0 view .LVU133
 505 0000 FC01      		movw r30,r24
 506 0002 8181      		ldd r24,Z+1
 507 0004 9281      		ldd r25,Z+2
 508               	.LVL17:
 509               	/* epilogue start */
 510               		.loc 2 107 1 view .LVU134
 511 0006 0895      		ret
 512               		.cfi_endproc
 513               	.LFE40:
 515               		.section	.text._ZN9ApiParser23txSetDestinationAddressEh,"ax",@progbits
 516               	.global	_ZN9ApiParser23txSetDestinationAddressEh
 518               	_ZN9ApiParser23txSetDestinationAddressEh:
 519               	.LVL18:
 520               	.LFB42:
 108:funsape/util/apiParser.cpp **** 
 109:funsape/util/apiParser.cpp **** bool_t ApiParser::txCreatePackage(uint8_t *packageData_p, uint16_t *packageSize_p, uint16_t maxChar
 110:funsape/util/apiParser.cpp **** {
 111:funsape/util/apiParser.cpp ****     // Checks for errors
 112:funsape/util/apiParser.cpp ****     if(!this->_initialized) {
 113:funsape/util/apiParser.cpp ****         // Returns error
 114:funsape/util/apiParser.cpp ****         this->_lastError = Error::NOT_INITIALIZED;
 115:funsape/util/apiParser.cpp ****         return false;
 116:funsape/util/apiParser.cpp ****     }
 117:funsape/util/apiParser.cpp ****     if((!isPointerValid(packageData_p)) || (!isPointerValid(packageSize_p))) {
 118:funsape/util/apiParser.cpp ****         // Returns error
 119:funsape/util/apiParser.cpp ****         this->_lastError = Error::ARGUMENT_POINTER_NULL;
 120:funsape/util/apiParser.cpp ****         return false;
 121:funsape/util/apiParser.cpp ****     }
 122:funsape/util/apiParser.cpp **** 
 123:funsape/util/apiParser.cpp ****     // Resets Raw Tx data members
 124:funsape/util/apiParser.cpp ****     this->_txRawIndex = 0;
 125:funsape/util/apiParser.cpp ****     this->_txRawSize = 0;
 126:funsape/util/apiParser.cpp **** 
 127:funsape/util/apiParser.cpp ****     // Encodes raw package
 128:funsape/util/apiParser.cpp ****     if(!this->_txEncodePackage()) {
 129:funsape/util/apiParser.cpp ****         // Returns error
 130:funsape/util/apiParser.cpp ****         return false;
 131:funsape/util/apiParser.cpp ****     }
GAS LISTING C:\Users\kenne\AppData\Local\Temp\ccWhffpB.s 			page 27


 132:funsape/util/apiParser.cpp **** 
 133:funsape/util/apiParser.cpp ****     // Transfer data
 134:funsape/util/apiParser.cpp ****     for(uint16_t i = 0; i < this->_txRawSize; i++) {
 135:funsape/util/apiParser.cpp ****         if(i == maxChars_p) {
 136:funsape/util/apiParser.cpp ****             // Returns error
 137:funsape/util/apiParser.cpp ****             this->_lastError = Error::BUFFER_FULL;
 138:funsape/util/apiParser.cpp ****             return false;
 139:funsape/util/apiParser.cpp ****         }
 140:funsape/util/apiParser.cpp ****         packageData_p[i] = this->_txRawData[i];
 141:funsape/util/apiParser.cpp ****     }
 142:funsape/util/apiParser.cpp ****     *packageSize_p = this->_txRawSize;
 143:funsape/util/apiParser.cpp **** 
 144:funsape/util/apiParser.cpp ****     // Returns successfully
 145:funsape/util/apiParser.cpp ****     this->_lastError = Error::NONE;
 146:funsape/util/apiParser.cpp ****     return true;
 147:funsape/util/apiParser.cpp **** }
 148:funsape/util/apiParser.cpp **** 
 149:funsape/util/apiParser.cpp **** bool_t ApiParser::txSetDestinationAddress(uint8_t destinationAddress_p)
 150:funsape/util/apiParser.cpp **** {
 521               		.loc 2 150 1 is_stmt 1 view -0
 522               		.cfi_startproc
 523               	/* prologue: function */
 524               	/* frame size = 0 */
 525               	/* stack size = 0 */
 526               	.L__stack_usage = 0
 527               		.loc 2 150 1 is_stmt 0 view .LVU136
 528 0000 E82F      		mov r30,r24
 529 0002 F92F      		mov r31,r25
 151:funsape/util/apiParser.cpp ****     // Checks for errors
 152:funsape/util/apiParser.cpp ****     if(!this->_initialized) {
 530               		.loc 2 152 5 is_stmt 1 view .LVU137
 531               		.loc 2 152 15 is_stmt 0 view .LVU138
 532 0004 8081      		ld r24,Z
 533               	.LVL19:
 534               		.loc 2 152 15 view .LVU139
 535 0006 8170      		andi r24,1
 536               		.loc 2 152 5 view .LVU140
 537 0008 8823      		tst r24
 538 000a 01F0      		breq .L19
 153:funsape/util/apiParser.cpp ****         // Returns error
 154:funsape/util/apiParser.cpp ****         this->_lastError = Error::NOT_INITIALIZED;
 155:funsape/util/apiParser.cpp ****         return false;
 156:funsape/util/apiParser.cpp ****     }
 157:funsape/util/apiParser.cpp **** 
 158:funsape/util/apiParser.cpp ****     // Updates data members
 159:funsape/util/apiParser.cpp ****     this->_txDecodedDestinyAddress = destinationAddress_p;
 539               		.loc 2 159 5 is_stmt 1 view .LVU141
 540               		.loc 2 159 36 is_stmt 0 view .LVU142
 541 000c 638F      		std Z+27,r22
 160:funsape/util/apiParser.cpp **** 
 161:funsape/util/apiParser.cpp ****     // Returns successfully
 162:funsape/util/apiParser.cpp ****     this->_lastError = Error::NONE;
 542               		.loc 2 162 5 is_stmt 1 view .LVU143
 543               		.loc 2 162 22 is_stmt 0 view .LVU144
 544 000e 1282      		std Z+2,__zero_reg__
 545 0010 1182      		std Z+1,__zero_reg__
 163:funsape/util/apiParser.cpp ****     return true;
GAS LISTING C:\Users\kenne\AppData\Local\Temp\ccWhffpB.s 			page 28


 546               		.loc 2 163 5 is_stmt 1 view .LVU145
 547               	/* epilogue start */
 164:funsape/util/apiParser.cpp **** }
 548               		.loc 2 164 1 is_stmt 0 view .LVU146
 549 0012 0895      		ret
 550               	.L19:
 154:funsape/util/apiParser.cpp ****         return false;
 551               		.loc 2 154 9 is_stmt 1 view .LVU147
 154:funsape/util/apiParser.cpp ****         return false;
 552               		.loc 2 154 26 is_stmt 0 view .LVU148
 553 0014 24E0      		ldi r18,lo8(4)
 554 0016 30E0      		ldi r19,0
 555 0018 3283      		std Z+2,r19
 556 001a 2183      		std Z+1,r18
 155:funsape/util/apiParser.cpp ****     }
 557               		.loc 2 155 9 is_stmt 1 view .LVU149
 155:funsape/util/apiParser.cpp ****     }
 558               		.loc 2 155 16 is_stmt 0 view .LVU150
 559 001c 0895      		ret
 560               		.cfi_endproc
 561               	.LFE42:
 563               		.section	.text._ZN9ApiParser12txSetFrameIdEhb,"ax",@progbits
 564               	.global	_ZN9ApiParser12txSetFrameIdEhb
 566               	_ZN9ApiParser12txSetFrameIdEhb:
 567               	.LVL20:
 568               	.LFB43:
 165:funsape/util/apiParser.cpp **** 
 166:funsape/util/apiParser.cpp **** bool_t ApiParser::txSetFrameId(uint8_t frameId_p, bool_t autoIncrement_p)
 167:funsape/util/apiParser.cpp **** {
 569               		.loc 2 167 1 is_stmt 1 view -0
 570               		.cfi_startproc
 571               	/* prologue: function */
 572               	/* frame size = 0 */
 573               	/* stack size = 0 */
 574               	.L__stack_usage = 0
 575               		.loc 2 167 1 is_stmt 0 view .LVU152
 576 0000 E82F      		mov r30,r24
 577 0002 F92F      		mov r31,r25
 168:funsape/util/apiParser.cpp ****     // Checks for errors
 169:funsape/util/apiParser.cpp ****     if(!this->_initialized) {
 578               		.loc 2 169 5 is_stmt 1 view .LVU153
 579               		.loc 2 169 15 is_stmt 0 view .LVU154
 580 0004 8081      		ld r24,Z
 581               	.LVL21:
 582               		.loc 2 169 15 view .LVU155
 583 0006 8170      		andi r24,1
 584               		.loc 2 169 5 view .LVU156
 585 0008 8823      		tst r24
 586 000a 01F0      		breq .L23
 170:funsape/util/apiParser.cpp ****         // Returns error
 171:funsape/util/apiParser.cpp ****         this->_lastError = Error::NOT_INITIALIZED;
 172:funsape/util/apiParser.cpp ****         return false;
 173:funsape/util/apiParser.cpp ****     }
 174:funsape/util/apiParser.cpp **** 
 175:funsape/util/apiParser.cpp ****     // Updates data members
 176:funsape/util/apiParser.cpp ****     this->_txDecodedId = frameId_p;
 587               		.loc 2 176 5 is_stmt 1 view .LVU157
GAS LISTING C:\Users\kenne\AppData\Local\Temp\ccWhffpB.s 			page 29


 588               		.loc 2 176 24 is_stmt 0 view .LVU158
 589 000c 648F      		std Z+28,r22
 177:funsape/util/apiParser.cpp ****     this->_txDecodedIdAutoIncrement = autoIncrement_p;
 590               		.loc 2 177 5 is_stmt 1 view .LVU159
 591               		.loc 2 177 37 is_stmt 0 view .LVU160
 592 000e 458F      		std Z+29,r20
 178:funsape/util/apiParser.cpp **** 
 179:funsape/util/apiParser.cpp ****     // Returns successfully
 180:funsape/util/apiParser.cpp ****     this->_lastError = Error::NONE;
 593               		.loc 2 180 5 is_stmt 1 view .LVU161
 594               		.loc 2 180 22 is_stmt 0 view .LVU162
 595 0010 1282      		std Z+2,__zero_reg__
 596 0012 1182      		std Z+1,__zero_reg__
 181:funsape/util/apiParser.cpp ****     return true;
 597               		.loc 2 181 5 is_stmt 1 view .LVU163
 598               	/* epilogue start */
 182:funsape/util/apiParser.cpp **** }
 599               		.loc 2 182 1 is_stmt 0 view .LVU164
 600 0014 0895      		ret
 601               	.L23:
 171:funsape/util/apiParser.cpp ****         return false;
 602               		.loc 2 171 9 is_stmt 1 view .LVU165
 171:funsape/util/apiParser.cpp ****         return false;
 603               		.loc 2 171 26 is_stmt 0 view .LVU166
 604 0016 24E0      		ldi r18,lo8(4)
 605 0018 30E0      		ldi r19,0
 606 001a 3283      		std Z+2,r19
 607 001c 2183      		std Z+1,r18
 172:funsape/util/apiParser.cpp ****     }
 608               		.loc 2 172 9 is_stmt 1 view .LVU167
 172:funsape/util/apiParser.cpp ****     }
 609               		.loc 2 172 16 is_stmt 0 view .LVU168
 610 001e 0895      		ret
 611               		.cfi_endproc
 612               	.LFE43:
 614               		.section	.text._ZN9ApiParser12txSetPayloadEPhh,"ax",@progbits
 615               	.global	_ZN9ApiParser12txSetPayloadEPhh
 617               	_ZN9ApiParser12txSetPayloadEPhh:
 618               	.LVL22:
 619               	.LFB44:
 183:funsape/util/apiParser.cpp **** 
 184:funsape/util/apiParser.cpp **** bool_t ApiParser::txSetPayload(uint8_t *payload_p, uint8_t size_p)
 185:funsape/util/apiParser.cpp **** {
 620               		.loc 2 185 1 is_stmt 1 view -0
 621               		.cfi_startproc
 622               		.loc 2 185 1 is_stmt 0 view .LVU170
 623 0000 0F93      		push r16
 624               		.cfi_def_cfa_offset 3
 625               		.cfi_offset 16, -2
 626 0002 1F93      		push r17
 627               		.cfi_def_cfa_offset 4
 628               		.cfi_offset 17, -3
 629 0004 CF93      		push r28
 630               		.cfi_def_cfa_offset 5
 631               		.cfi_offset 28, -4
 632 0006 DF93      		push r29
 633               		.cfi_def_cfa_offset 6
GAS LISTING C:\Users\kenne\AppData\Local\Temp\ccWhffpB.s 			page 30


 634               		.cfi_offset 29, -5
 635               	/* prologue: function */
 636               	/* frame size = 0 */
 637               	/* stack size = 4 */
 638               	.L__stack_usage = 4
 639 0008 A82F      		mov r26,r24
 640 000a B92F      		mov r27,r25
 641 000c 062F      		mov r16,r22
 642 000e 172F      		mov r17,r23
 186:funsape/util/apiParser.cpp ****     // Checks for errors
 187:funsape/util/apiParser.cpp ****     if(!this->_initialized) {
 643               		.loc 2 187 5 is_stmt 1 view .LVU171
 644               		.loc 2 187 15 is_stmt 0 view .LVU172
 645 0010 8C91      		ld r24,X
 646               	.LVL23:
 647               		.loc 2 187 15 view .LVU173
 648 0012 8170      		andi r24,1
 649               		.loc 2 187 5 view .LVU174
 650 0014 8823      		tst r24
 651 0016 01F0      		breq .L32
 188:funsape/util/apiParser.cpp ****         // Returns error
 189:funsape/util/apiParser.cpp ****         this->_lastError = Error::NOT_INITIALIZED;
 190:funsape/util/apiParser.cpp ****         return false;
 191:funsape/util/apiParser.cpp ****     }
 192:funsape/util/apiParser.cpp ****     if(size_p < 6) {
 652               		.loc 2 192 5 is_stmt 1 view .LVU175
 653 0018 4630      		cpi r20,lo8(6)
 654 001a 00F0      		brlo .L33
 193:funsape/util/apiParser.cpp ****         // Returns error
 194:funsape/util/apiParser.cpp ****         this->_lastError = Error::BUFFER_SIZE_TOO_SMALL;
 195:funsape/util/apiParser.cpp ****         return false;
 196:funsape/util/apiParser.cpp ****     }
 197:funsape/util/apiParser.cpp ****     if(size_p > this->_payloadMaxSize) {
 655               		.loc 2 197 5 view .LVU176
 656               		.loc 2 197 23 is_stmt 0 view .LVU177
 657 001c 1396      		adiw r26,3
 658 001e 9C91      		ld r25,X
 659 0020 1397      		sbiw r26,3
 660               		.loc 2 197 5 view .LVU178
 661 0022 9417      		cp r25,r20
 662 0024 00F0      		brlo .L34
 198:funsape/util/apiParser.cpp ****         // Returns error
 199:funsape/util/apiParser.cpp ****         this->_lastError = Error::BUFFER_SIZE_TOO_LARGE;
 200:funsape/util/apiParser.cpp ****         return false;
 201:funsape/util/apiParser.cpp ****     }
 202:funsape/util/apiParser.cpp ****     if(!isPointerValid(payload_p)) {
 663               		.loc 2 202 5 is_stmt 1 view .LVU179
 664 0026 0115      		cp r16,__zero_reg__
 665 0028 1105      		cpc r17,__zero_reg__
 666 002a 01F0      		breq .L35
 203:funsape/util/apiParser.cpp ****         // Returns error
 204:funsape/util/apiParser.cpp ****         this->_lastError = Error::ARGUMENT_POINTER_NULL;
 205:funsape/util/apiParser.cpp ****         return false;
 206:funsape/util/apiParser.cpp ****     }
 207:funsape/util/apiParser.cpp **** 
 208:funsape/util/apiParser.cpp ****     // Updates data members
 209:funsape/util/apiParser.cpp ****     this->_txDecodedPayloadSize = size_p;
GAS LISTING C:\Users\kenne\AppData\Local\Temp\ccWhffpB.s 			page 31


 667               		.loc 2 209 5 view .LVU180
 668               		.loc 2 209 33 is_stmt 0 view .LVU181
 669 002c 9196      		adiw r26,33
 670 002e 4C93      		st X,r20
 671 0030 9197      		sbiw r26,33
 210:funsape/util/apiParser.cpp ****     for(uint8_t i = 0; i < size_p; i++) {
 672               		.loc 2 210 5 is_stmt 1 view .LVU182
 673               	.LVL24:
 674               	.LBB30:
 675               		.loc 2 210 17 is_stmt 0 view .LVU183
 676 0032 90E0      		ldi r25,0
 677               		.loc 2 210 5 view .LVU184
 678 0034 00C0      		rjmp .L30
 679               	.LVL25:
 680               	.L32:
 681               		.loc 2 210 5 view .LVU185
 682               	.LBE30:
 189:funsape/util/apiParser.cpp ****         return false;
 683               		.loc 2 189 9 is_stmt 1 view .LVU186
 189:funsape/util/apiParser.cpp ****         return false;
 684               		.loc 2 189 26 is_stmt 0 view .LVU187
 685 0036 24E0      		ldi r18,lo8(4)
 686 0038 30E0      		ldi r19,0
 687 003a 1296      		adiw r26,1+1
 688 003c 3C93      		st X,r19
 689 003e 2E93      		st -X,r18
 690 0040 1197      		sbiw r26,1
 190:funsape/util/apiParser.cpp ****     }
 691               		.loc 2 190 9 is_stmt 1 view .LVU188
 692               	.L24:
 693               	/* epilogue start */
 211:funsape/util/apiParser.cpp ****         this->_txDecodedPayloadData[i] = payload_p[i];
 212:funsape/util/apiParser.cpp ****     }
 213:funsape/util/apiParser.cpp **** 
 214:funsape/util/apiParser.cpp ****     // Returns successfully
 215:funsape/util/apiParser.cpp ****     this->_lastError = Error::NONE;
 216:funsape/util/apiParser.cpp ****     return true;
 217:funsape/util/apiParser.cpp **** }
 694               		.loc 2 217 1 is_stmt 0 view .LVU189
 695 0042 DF91      		pop r29
 696 0044 CF91      		pop r28
 697 0046 1F91      		pop r17
 698 0048 0F91      		pop r16
 699 004a 0895      		ret
 700               	.L33:
 194:funsape/util/apiParser.cpp ****         return false;
 701               		.loc 2 194 9 is_stmt 1 view .LVU190
 194:funsape/util/apiParser.cpp ****         return false;
 702               		.loc 2 194 26 is_stmt 0 view .LVU191
 703 004c 86E2      		ldi r24,lo8(38)
 704 004e 90E0      		ldi r25,0
 705 0050 1296      		adiw r26,1+1
 706 0052 9C93      		st X,r25
 707 0054 8E93      		st -X,r24
 708 0056 1197      		sbiw r26,1
 195:funsape/util/apiParser.cpp ****     }
 709               		.loc 2 195 9 is_stmt 1 view .LVU192
GAS LISTING C:\Users\kenne\AppData\Local\Temp\ccWhffpB.s 			page 32


 195:funsape/util/apiParser.cpp ****     }
 710               		.loc 2 195 16 is_stmt 0 view .LVU193
 711 0058 80E0      		ldi r24,0
 712 005a 00C0      		rjmp .L24
 713               	.L34:
 199:funsape/util/apiParser.cpp ****         return false;
 714               		.loc 2 199 9 is_stmt 1 view .LVU194
 199:funsape/util/apiParser.cpp ****         return false;
 715               		.loc 2 199 26 is_stmt 0 view .LVU195
 716 005c 85E2      		ldi r24,lo8(37)
 717 005e 90E0      		ldi r25,0
 718 0060 1296      		adiw r26,1+1
 719 0062 9C93      		st X,r25
 720 0064 8E93      		st -X,r24
 721 0066 1197      		sbiw r26,1
 200:funsape/util/apiParser.cpp ****     }
 722               		.loc 2 200 9 is_stmt 1 view .LVU196
 200:funsape/util/apiParser.cpp ****     }
 723               		.loc 2 200 16 is_stmt 0 view .LVU197
 724 0068 80E0      		ldi r24,0
 725 006a 00C0      		rjmp .L24
 726               	.L35:
 204:funsape/util/apiParser.cpp ****         return false;
 727               		.loc 2 204 9 is_stmt 1 view .LVU198
 204:funsape/util/apiParser.cpp ****         return false;
 728               		.loc 2 204 26 is_stmt 0 view .LVU199
 729 006c 81E1      		ldi r24,lo8(17)
 730 006e 90E0      		ldi r25,0
 731 0070 1296      		adiw r26,1+1
 732 0072 9C93      		st X,r25
 733 0074 8E93      		st -X,r24
 734 0076 1197      		sbiw r26,1
 205:funsape/util/apiParser.cpp ****     }
 735               		.loc 2 205 9 is_stmt 1 view .LVU200
 205:funsape/util/apiParser.cpp ****     }
 736               		.loc 2 205 16 is_stmt 0 view .LVU201
 737 0078 80E0      		ldi r24,0
 738 007a 00C0      		rjmp .L24
 739               	.LVL26:
 740               	.L31:
 741               	.LBB31:
 211:funsape/util/apiParser.cpp ****     }
 742               		.loc 2 211 9 is_stmt 1 discriminator 3 view .LVU202
 211:funsape/util/apiParser.cpp ****     }
 743               		.loc 2 211 52 is_stmt 0 discriminator 3 view .LVU203
 744 007c 292F      		mov r18,r25
 745 007e 30E0      		ldi r19,0
 211:funsape/util/apiParser.cpp ****     }
 746               		.loc 2 211 15 discriminator 3 view .LVU204
 747 0080 5E96      		adiw r26,30
 748 0082 ED91      		ld r30,X+
 749 0084 FC91      		ld r31,X
 750 0086 5F97      		sbiw r26,30+1
 211:funsape/util/apiParser.cpp ****     }
 751               		.loc 2 211 38 discriminator 3 view .LVU205
 752 0088 E20F      		add r30,r18
 753 008a F31F      		adc r31,r19
GAS LISTING C:\Users\kenne\AppData\Local\Temp\ccWhffpB.s 			page 33


 211:funsape/util/apiParser.cpp ****     }
 754               		.loc 2 211 53 discriminator 3 view .LVU206
 755 008c 200F      		add r18,r16
 756 008e 311F      		adc r19,r17
 757 0090 E901      		movw r28,r18
 758 0092 2881      		ld r18,Y
 211:funsape/util/apiParser.cpp ****     }
 759               		.loc 2 211 40 discriminator 3 view .LVU207
 760 0094 2083      		st Z,r18
 210:funsape/util/apiParser.cpp ****         this->_txDecodedPayloadData[i] = payload_p[i];
 761               		.loc 2 210 5 is_stmt 1 discriminator 3 view .LVU208
 762 0096 9F5F      		subi r25,lo8(-(1))
 763               	.LVL27:
 764               	.L30:
 210:funsape/util/apiParser.cpp ****         this->_txDecodedPayloadData[i] = payload_p[i];
 765               		.loc 2 210 26 discriminator 1 view .LVU209
 766 0098 9417      		cp r25,r20
 767 009a 00F0      		brlo .L31
 768               	.LBE31:
 215:funsape/util/apiParser.cpp ****     return true;
 769               		.loc 2 215 5 view .LVU210
 215:funsape/util/apiParser.cpp ****     return true;
 770               		.loc 2 215 22 is_stmt 0 view .LVU211
 771 009c 1296      		adiw r26,1+1
 772 009e 1C92      		st X,__zero_reg__
 773 00a0 1E92      		st -X,__zero_reg__
 774 00a2 1197      		sbiw r26,1
 216:funsape/util/apiParser.cpp **** }
 775               		.loc 2 216 5 is_stmt 1 view .LVU212
 216:funsape/util/apiParser.cpp **** }
 776               		.loc 2 216 12 is_stmt 0 view .LVU213
 777 00a4 00C0      		rjmp .L24
 778               		.cfi_endproc
 779               	.LFE44:
 781               		.section	.text._ZN9ApiParser18txSetSourceAddressEh,"ax",@progbits
 782               	.global	_ZN9ApiParser18txSetSourceAddressEh
 784               	_ZN9ApiParser18txSetSourceAddressEh:
 785               	.LVL28:
 786               	.LFB45:
 218:funsape/util/apiParser.cpp **** 
 219:funsape/util/apiParser.cpp **** bool_t ApiParser::txSetSourceAddress(uint8_t sourceAddess_p)
 220:funsape/util/apiParser.cpp **** {
 787               		.loc 2 220 1 is_stmt 1 view -0
 788               		.cfi_startproc
 789               	/* prologue: function */
 790               	/* frame size = 0 */
 791               	/* stack size = 0 */
 792               	.L__stack_usage = 0
 793               		.loc 2 220 1 is_stmt 0 view .LVU215
 794 0000 E82F      		mov r30,r24
 795 0002 F92F      		mov r31,r25
 221:funsape/util/apiParser.cpp ****     // Checks for errors
 222:funsape/util/apiParser.cpp ****     if(!this->_initialized) {
 796               		.loc 2 222 5 is_stmt 1 view .LVU216
 797               		.loc 2 222 15 is_stmt 0 view .LVU217
 798 0004 8081      		ld r24,Z
 799               	.LVL29:
GAS LISTING C:\Users\kenne\AppData\Local\Temp\ccWhffpB.s 			page 34


 800               		.loc 2 222 15 view .LVU218
 801 0006 8170      		andi r24,1
 802               		.loc 2 222 5 view .LVU219
 803 0008 8823      		tst r24
 804 000a 01F0      		breq .L39
 223:funsape/util/apiParser.cpp ****         // Returns error
 224:funsape/util/apiParser.cpp ****         this->_lastError = Error::NOT_INITIALIZED;
 225:funsape/util/apiParser.cpp ****         return false;
 226:funsape/util/apiParser.cpp ****     }
 227:funsape/util/apiParser.cpp **** 
 228:funsape/util/apiParser.cpp ****     // Updates data members
 229:funsape/util/apiParser.cpp ****     this->_txDecodedSourceAddress = sourceAddess_p;
 805               		.loc 2 229 5 is_stmt 1 view .LVU220
 806               		.loc 2 229 35 is_stmt 0 view .LVU221
 807 000c 62A3      		std Z+34,r22
 230:funsape/util/apiParser.cpp **** 
 231:funsape/util/apiParser.cpp ****     // Returns successfully
 232:funsape/util/apiParser.cpp ****     this->_lastError = Error::NONE;
 808               		.loc 2 232 5 is_stmt 1 view .LVU222
 809               		.loc 2 232 22 is_stmt 0 view .LVU223
 810 000e 1282      		std Z+2,__zero_reg__
 811 0010 1182      		std Z+1,__zero_reg__
 233:funsape/util/apiParser.cpp ****     return true;
 812               		.loc 2 233 5 is_stmt 1 view .LVU224
 813               	/* epilogue start */
 234:funsape/util/apiParser.cpp **** }
 814               		.loc 2 234 1 is_stmt 0 view .LVU225
 815 0012 0895      		ret
 816               	.L39:
 224:funsape/util/apiParser.cpp ****         return false;
 817               		.loc 2 224 9 is_stmt 1 view .LVU226
 224:funsape/util/apiParser.cpp ****         return false;
 818               		.loc 2 224 26 is_stmt 0 view .LVU227
 819 0014 24E0      		ldi r18,lo8(4)
 820 0016 30E0      		ldi r19,0
 821 0018 3283      		std Z+2,r19
 822 001a 2183      		std Z+1,r18
 225:funsape/util/apiParser.cpp ****     }
 823               		.loc 2 225 9 is_stmt 1 view .LVU228
 225:funsape/util/apiParser.cpp ****     }
 824               		.loc 2 225 16 is_stmt 0 view .LVU229
 825 001c 0895      		ret
 826               		.cfi_endproc
 827               	.LFE45:
 829               		.section	.text._ZN9ApiParser23rxGetDestinationAddressEPh,"ax",@progbits
 830               	.global	_ZN9ApiParser23rxGetDestinationAddressEPh
 832               	_ZN9ApiParser23rxGetDestinationAddressEPh:
 833               	.LVL30:
 834               	.LFB48:
 235:funsape/util/apiParser.cpp **** 
 236:funsape/util/apiParser.cpp **** // ////////////////////////////////////   RX   ////////////////////////////////////
 237:funsape/util/apiParser.cpp **** 
 238:funsape/util/apiParser.cpp **** bool_t ApiParser::rxAddData(uint8_t data_p)
 239:funsape/util/apiParser.cpp **** {
 240:funsape/util/apiParser.cpp ****     // Checks for errors
 241:funsape/util/apiParser.cpp ****     if(!this->_initialized) {
 242:funsape/util/apiParser.cpp ****         // Returns error
GAS LISTING C:\Users\kenne\AppData\Local\Temp\ccWhffpB.s 			page 35


 243:funsape/util/apiParser.cpp ****         this->_lastError = Error::NOT_INITIALIZED;
 244:funsape/util/apiParser.cpp ****         return false;
 245:funsape/util/apiParser.cpp ****     }
 246:funsape/util/apiParser.cpp ****     if(this->_rxRawReady) {
 247:funsape/util/apiParser.cpp ****         // Returns error
 248:funsape/util/apiParser.cpp ****         this->_lastError = Error::PACKAGE_AWAITING;
 249:funsape/util/apiParser.cpp ****         return false;
 250:funsape/util/apiParser.cpp ****     }
 251:funsape/util/apiParser.cpp ****     if(this->_rxRawState == ApiParser::State::READY) {
 252:funsape/util/apiParser.cpp ****         // Returns error
 253:funsape/util/apiParser.cpp ****         this->_lastError = Error::PACKAGE_AWAITING;
 254:funsape/util/apiParser.cpp ****         return false;
 255:funsape/util/apiParser.cpp ****     }
 256:funsape/util/apiParser.cpp **** 
 257:funsape/util/apiParser.cpp ****     // Updates auxData
 258:funsape/util/apiParser.cpp ****     this->_rxDecodedAuxData = data_p;
 259:funsape/util/apiParser.cpp **** 
 260:funsape/util/apiParser.cpp ****     // Process escape character
 261:funsape/util/apiParser.cpp ****     if(!this->_rxProcessEscapeCharacter()) {      // Could be an error, checking...
 262:funsape/util/apiParser.cpp ****         if(this->_lastError == Error::NONE) {     // Not an error, return successful
 263:funsape/util/apiParser.cpp ****             return true;
 264:funsape/util/apiParser.cpp ****         } else {                                 // It is a really an error
 265:funsape/util/apiParser.cpp ****             return false;
 266:funsape/util/apiParser.cpp ****         }
 267:funsape/util/apiParser.cpp ****     } // No error detected, continuing process
 268:funsape/util/apiParser.cpp **** 
 269:funsape/util/apiParser.cpp ****     // Check frame format
 270:funsape/util/apiParser.cpp ****     if(!_rxProcessFrameFormat()) {                    // Frame error
 271:funsape/util/apiParser.cpp ****         return false;
 272:funsape/util/apiParser.cpp ****     }
 273:funsape/util/apiParser.cpp **** 
 274:funsape/util/apiParser.cpp ****     // Put data in raw package
 275:funsape/util/apiParser.cpp ****     if(!this->_rxProcessRawAddData()) {
 276:funsape/util/apiParser.cpp ****         return false;
 277:funsape/util/apiParser.cpp ****     }
 278:funsape/util/apiParser.cpp **** 
 279:funsape/util/apiParser.cpp ****     // Evaluates states machine next state
 280:funsape/util/apiParser.cpp ****     return this->_rxProcessNextState();
 281:funsape/util/apiParser.cpp **** }
 282:funsape/util/apiParser.cpp **** 
 283:funsape/util/apiParser.cpp **** void ApiParser::rxFreePackage(void)
 284:funsape/util/apiParser.cpp **** {
 285:funsape/util/apiParser.cpp ****     this->_rxRawReady = false;
 286:funsape/util/apiParser.cpp ****     this->_rxResetPackage();
 287:funsape/util/apiParser.cpp **** }
 288:funsape/util/apiParser.cpp **** 
 289:funsape/util/apiParser.cpp **** bool_t ApiParser::rxGetDestinationAddress(uint8_t *destinationAddress_p)
 290:funsape/util/apiParser.cpp **** {
 835               		.loc 2 290 1 is_stmt 1 view -0
 836               		.cfi_startproc
 837               	/* prologue: function */
 838               	/* frame size = 0 */
 839               	/* stack size = 0 */
 840               	.L__stack_usage = 0
 841               		.loc 2 290 1 is_stmt 0 view .LVU231
 842 0000 E82F      		mov r30,r24
 843 0002 F92F      		mov r31,r25
GAS LISTING C:\Users\kenne\AppData\Local\Temp\ccWhffpB.s 			page 36


 844 0004 A62F      		mov r26,r22
 845 0006 B72F      		mov r27,r23
 291:funsape/util/apiParser.cpp ****     // Check for errors
 292:funsape/util/apiParser.cpp ****     if(!this->_initialized) {
 846               		.loc 2 292 5 is_stmt 1 view .LVU232
 847               		.loc 2 292 15 is_stmt 0 view .LVU233
 848 0008 8081      		ld r24,Z
 849               	.LVL31:
 850               		.loc 2 292 15 view .LVU234
 851 000a 8170      		andi r24,1
 852               		.loc 2 292 5 view .LVU235
 853 000c 8823      		tst r24
 854 000e 01F0      		breq .L44
 293:funsape/util/apiParser.cpp ****         // Returns error
 294:funsape/util/apiParser.cpp ****         this->_lastError = Error::NOT_INITIALIZED;
 295:funsape/util/apiParser.cpp ****         return false;
 296:funsape/util/apiParser.cpp ****     }
 297:funsape/util/apiParser.cpp ****     if(!isPointerValid(destinationAddress_p)) {
 855               		.loc 2 297 5 is_stmt 1 view .LVU236
 856 0010 1097      		sbiw r26,0
 857 0012 01F0      		breq .L45
 298:funsape/util/apiParser.cpp ****         // Returns error
 299:funsape/util/apiParser.cpp ****         this->_lastError = Error::ARGUMENT_POINTER_NULL;
 300:funsape/util/apiParser.cpp ****         return false;
 301:funsape/util/apiParser.cpp ****     }
 302:funsape/util/apiParser.cpp **** 
 303:funsape/util/apiParser.cpp ****     // Updates data members
 304:funsape/util/apiParser.cpp ****     *destinationAddress_p = this->_rxDecodedDestinyAddress;
 858               		.loc 2 304 5 view .LVU237
 859               		.loc 2 304 35 is_stmt 0 view .LVU238
 860 0014 9489      		ldd r25,Z+20
 861               		.loc 2 304 27 view .LVU239
 862 0016 9C93      		st X,r25
 305:funsape/util/apiParser.cpp **** 
 306:funsape/util/apiParser.cpp ****     // Returns successfully
 307:funsape/util/apiParser.cpp ****     this->_lastError = Error::NONE;
 863               		.loc 2 307 5 is_stmt 1 view .LVU240
 864               		.loc 2 307 22 is_stmt 0 view .LVU241
 865 0018 1282      		std Z+2,__zero_reg__
 866 001a 1182      		std Z+1,__zero_reg__
 308:funsape/util/apiParser.cpp ****     return true;
 867               		.loc 2 308 5 is_stmt 1 view .LVU242
 868               	/* epilogue start */
 309:funsape/util/apiParser.cpp **** }
 869               		.loc 2 309 1 is_stmt 0 view .LVU243
 870 001c 0895      		ret
 871               	.L44:
 294:funsape/util/apiParser.cpp ****         return false;
 872               		.loc 2 294 9 is_stmt 1 view .LVU244
 294:funsape/util/apiParser.cpp ****         return false;
 873               		.loc 2 294 26 is_stmt 0 view .LVU245
 874 001e 24E0      		ldi r18,lo8(4)
 875 0020 30E0      		ldi r19,0
 876 0022 3283      		std Z+2,r19
 877 0024 2183      		std Z+1,r18
 295:funsape/util/apiParser.cpp ****     }
 878               		.loc 2 295 9 is_stmt 1 view .LVU246
GAS LISTING C:\Users\kenne\AppData\Local\Temp\ccWhffpB.s 			page 37


 295:funsape/util/apiParser.cpp ****     }
 879               		.loc 2 295 16 is_stmt 0 view .LVU247
 880 0026 0895      		ret
 881               	.L45:
 299:funsape/util/apiParser.cpp ****         return false;
 882               		.loc 2 299 9 is_stmt 1 view .LVU248
 299:funsape/util/apiParser.cpp ****         return false;
 883               		.loc 2 299 26 is_stmt 0 view .LVU249
 884 0028 81E1      		ldi r24,lo8(17)
 885 002a 90E0      		ldi r25,0
 886 002c 9283      		std Z+2,r25
 887 002e 8183      		std Z+1,r24
 300:funsape/util/apiParser.cpp ****     }
 888               		.loc 2 300 9 is_stmt 1 view .LVU250
 300:funsape/util/apiParser.cpp ****     }
 889               		.loc 2 300 16 is_stmt 0 view .LVU251
 890 0030 80E0      		ldi r24,0
 891 0032 0895      		ret
 892               		.cfi_endproc
 893               	.LFE48:
 895               		.section	.text._ZN9ApiParser7rxGetIdEPh,"ax",@progbits
 896               	.global	_ZN9ApiParser7rxGetIdEPh
 898               	_ZN9ApiParser7rxGetIdEPh:
 899               	.LVL32:
 900               	.LFB49:
 310:funsape/util/apiParser.cpp **** 
 311:funsape/util/apiParser.cpp **** bool_t ApiParser::rxGetId(uint8_t *frameId_p)
 312:funsape/util/apiParser.cpp **** {
 901               		.loc 2 312 1 is_stmt 1 view -0
 902               		.cfi_startproc
 903               	/* prologue: function */
 904               	/* frame size = 0 */
 905               	/* stack size = 0 */
 906               	.L__stack_usage = 0
 907               		.loc 2 312 1 is_stmt 0 view .LVU253
 908 0000 E82F      		mov r30,r24
 909 0002 F92F      		mov r31,r25
 910 0004 A62F      		mov r26,r22
 911 0006 B72F      		mov r27,r23
 313:funsape/util/apiParser.cpp ****     // Check for errors
 314:funsape/util/apiParser.cpp ****     if(!this->_initialized) {
 912               		.loc 2 314 5 is_stmt 1 view .LVU254
 913               		.loc 2 314 15 is_stmt 0 view .LVU255
 914 0008 8081      		ld r24,Z
 915               	.LVL33:
 916               		.loc 2 314 15 view .LVU256
 917 000a 8170      		andi r24,1
 918               		.loc 2 314 5 view .LVU257
 919 000c 8823      		tst r24
 920 000e 01F0      		breq .L50
 315:funsape/util/apiParser.cpp ****         // Returns error
 316:funsape/util/apiParser.cpp ****         this->_lastError = Error::NOT_INITIALIZED;
 317:funsape/util/apiParser.cpp ****         return false;
 318:funsape/util/apiParser.cpp ****     }
 319:funsape/util/apiParser.cpp ****     if(!isPointerValid(frameId_p)) {
 921               		.loc 2 319 5 is_stmt 1 view .LVU258
 922 0010 1097      		sbiw r26,0
GAS LISTING C:\Users\kenne\AppData\Local\Temp\ccWhffpB.s 			page 38


 923 0012 01F0      		breq .L51
 320:funsape/util/apiParser.cpp ****         // Returns error
 321:funsape/util/apiParser.cpp ****         this->_lastError = Error::ARGUMENT_POINTER_NULL;
 322:funsape/util/apiParser.cpp ****         return false;
 323:funsape/util/apiParser.cpp ****     }
 324:funsape/util/apiParser.cpp **** 
 325:funsape/util/apiParser.cpp ****     // Updates data members
 326:funsape/util/apiParser.cpp ****     *frameId_p = this->_rxDecodedId;
 924               		.loc 2 326 5 view .LVU259
 925               		.loc 2 326 24 is_stmt 0 view .LVU260
 926 0014 9589      		ldd r25,Z+21
 927               		.loc 2 326 16 view .LVU261
 928 0016 9C93      		st X,r25
 327:funsape/util/apiParser.cpp **** 
 328:funsape/util/apiParser.cpp ****     // Returns successfully
 329:funsape/util/apiParser.cpp ****     this->_lastError = Error::NONE;
 929               		.loc 2 329 5 is_stmt 1 view .LVU262
 930               		.loc 2 329 22 is_stmt 0 view .LVU263
 931 0018 1282      		std Z+2,__zero_reg__
 932 001a 1182      		std Z+1,__zero_reg__
 330:funsape/util/apiParser.cpp ****     return true;
 933               		.loc 2 330 5 is_stmt 1 view .LVU264
 934               	/* epilogue start */
 331:funsape/util/apiParser.cpp **** }
 935               		.loc 2 331 1 is_stmt 0 view .LVU265
 936 001c 0895      		ret
 937               	.L50:
 316:funsape/util/apiParser.cpp ****         return false;
 938               		.loc 2 316 9 is_stmt 1 view .LVU266
 316:funsape/util/apiParser.cpp ****         return false;
 939               		.loc 2 316 26 is_stmt 0 view .LVU267
 940 001e 24E0      		ldi r18,lo8(4)
 941 0020 30E0      		ldi r19,0
 942 0022 3283      		std Z+2,r19
 943 0024 2183      		std Z+1,r18
 317:funsape/util/apiParser.cpp ****     }
 944               		.loc 2 317 9 is_stmt 1 view .LVU268
 317:funsape/util/apiParser.cpp ****     }
 945               		.loc 2 317 16 is_stmt 0 view .LVU269
 946 0026 0895      		ret
 947               	.L51:
 321:funsape/util/apiParser.cpp ****         return false;
 948               		.loc 2 321 9 is_stmt 1 view .LVU270
 321:funsape/util/apiParser.cpp ****         return false;
 949               		.loc 2 321 26 is_stmt 0 view .LVU271
 950 0028 81E1      		ldi r24,lo8(17)
 951 002a 90E0      		ldi r25,0
 952 002c 9283      		std Z+2,r25
 953 002e 8183      		std Z+1,r24
 322:funsape/util/apiParser.cpp ****     }
 954               		.loc 2 322 9 is_stmt 1 view .LVU272
 322:funsape/util/apiParser.cpp ****     }
 955               		.loc 2 322 16 is_stmt 0 view .LVU273
 956 0030 80E0      		ldi r24,0
 957 0032 0895      		ret
 958               		.cfi_endproc
 959               	.LFE49:
GAS LISTING C:\Users\kenne\AppData\Local\Temp\ccWhffpB.s 			page 39


 961               		.section	.text._ZN9ApiParser12rxGetPayloadEPhS0_h,"ax",@progbits
 962               	.global	_ZN9ApiParser12rxGetPayloadEPhS0_h
 964               	_ZN9ApiParser12rxGetPayloadEPhS0_h:
 965               	.LVL34:
 966               	.LFB50:
 332:funsape/util/apiParser.cpp **** 
 333:funsape/util/apiParser.cpp **** bool_t ApiParser::rxGetPayload(uint8_t *payloadData_p, uint8_t *payloadSize_p, uint8_t maxChars_p)
 334:funsape/util/apiParser.cpp **** {
 967               		.loc 2 334 1 is_stmt 1 view -0
 968               		.cfi_startproc
 969               		.loc 2 334 1 is_stmt 0 view .LVU275
 970 0000 0F93      		push r16
 971               		.cfi_def_cfa_offset 3
 972               		.cfi_offset 16, -2
 973 0002 1F93      		push r17
 974               		.cfi_def_cfa_offset 4
 975               		.cfi_offset 17, -3
 976 0004 CF93      		push r28
 977               		.cfi_def_cfa_offset 5
 978               		.cfi_offset 28, -4
 979 0006 DF93      		push r29
 980               		.cfi_def_cfa_offset 6
 981               		.cfi_offset 29, -5
 982               	/* prologue: function */
 983               	/* frame size = 0 */
 984               	/* stack size = 4 */
 985               	.L__stack_usage = 4
 986 0008 A82F      		mov r26,r24
 987 000a B92F      		mov r27,r25
 988 000c 062F      		mov r16,r22
 989 000e 172F      		mov r17,r23
 990 0010 E42F      		mov r30,r20
 991 0012 F52F      		mov r31,r21
 335:funsape/util/apiParser.cpp ****     // Check for errors
 336:funsape/util/apiParser.cpp ****     if(!this->_initialized) {
 992               		.loc 2 336 5 is_stmt 1 view .LVU276
 993               		.loc 2 336 15 is_stmt 0 view .LVU277
 994 0014 8C91      		ld r24,X
 995               	.LVL35:
 996               		.loc 2 336 15 view .LVU278
 997 0016 8170      		andi r24,1
 998               		.loc 2 336 5 view .LVU279
 999 0018 8823      		tst r24
 1000 001a 01F0      		breq .L60
 337:funsape/util/apiParser.cpp ****         // Returns error
 338:funsape/util/apiParser.cpp ****         this->_lastError = Error::NOT_INITIALIZED;
 339:funsape/util/apiParser.cpp ****         return false;
 340:funsape/util/apiParser.cpp ****     }
 341:funsape/util/apiParser.cpp ****     if((!isPointerValid(payloadData_p)) || (!isPointerValid(payloadSize_p))) {
 1001               		.loc 2 341 5 is_stmt 1 view .LVU280
 1002 001c 0115      		cp r16,__zero_reg__
 1003 001e 1105      		cpc r17,__zero_reg__
 1004 0020 01F0      		breq .L55
 1005               		.loc 2 341 41 is_stmt 0 discriminator 1 view .LVU281
 1006 0022 3097      		sbiw r30,0
 1007 0024 01F0      		breq .L55
 342:funsape/util/apiParser.cpp ****         // Returns error
GAS LISTING C:\Users\kenne\AppData\Local\Temp\ccWhffpB.s 			page 40


 343:funsape/util/apiParser.cpp ****         this->_lastError = Error::ARGUMENT_POINTER_NULL;
 344:funsape/util/apiParser.cpp ****         return false;
 345:funsape/util/apiParser.cpp ****     }
 346:funsape/util/apiParser.cpp **** 
 347:funsape/util/apiParser.cpp ****     // Retrieve payload size
 348:funsape/util/apiParser.cpp ****     *payloadSize_p = this->_rxDecodedPayloadSize;
 1008               		.loc 2 348 5 is_stmt 1 view .LVU282
 1009               		.loc 2 348 28 is_stmt 0 view .LVU283
 1010 0026 5996      		adiw r26,25
 1011 0028 9C91      		ld r25,X
 1012 002a 5997      		sbiw r26,25
 1013               		.loc 2 348 20 view .LVU284
 1014 002c 9083      		st Z,r25
 349:funsape/util/apiParser.cpp **** 
 350:funsape/util/apiParser.cpp ****     // Retrieve payload data
 351:funsape/util/apiParser.cpp ****     for(uint8_t i = 0; i < this->_rxDecodedPayloadSize; i++) {
 1015               		.loc 2 351 5 is_stmt 1 view .LVU285
 1016               	.LVL36:
 1017               	.LBB32:
 1018               		.loc 2 351 17 is_stmt 0 view .LVU286
 1019 002e 90E0      		ldi r25,0
 1020               	.LVL37:
 1021               	.L57:
 1022               		.loc 2 351 26 is_stmt 1 discriminator 1 view .LVU287
 1023               		.loc 2 351 34 is_stmt 0 discriminator 1 view .LVU288
 1024 0030 5996      		adiw r26,25
 1025 0032 3C91      		ld r19,X
 1026 0034 5997      		sbiw r26,25
 1027               		.loc 2 351 26 discriminator 1 view .LVU289
 1028 0036 9317      		cp r25,r19
 1029 0038 00F4      		brsh .L61
 352:funsape/util/apiParser.cpp ****         if(i == maxChars_p) {
 1030               		.loc 2 352 9 is_stmt 1 view .LVU290
 1031 003a 9217      		cp r25,r18
 1032 003c 01F0      		breq .L62
 353:funsape/util/apiParser.cpp ****             // Returns error
 354:funsape/util/apiParser.cpp ****             this->_lastError = Error::BUFFER_FULL;
 355:funsape/util/apiParser.cpp ****             return false;
 356:funsape/util/apiParser.cpp ****         }
 357:funsape/util/apiParser.cpp ****         payloadData_p[i] = this->_rxDecodedPayloadData[i];
 1033               		.loc 2 357 9 discriminator 2 view .LVU291
 1034               		.loc 2 357 34 is_stmt 0 discriminator 2 view .LVU292
 1035 003e 5696      		adiw r26,22
 1036 0040 ED91      		ld r30,X+
 1037 0042 FC91      		ld r31,X
 1038 0044 5797      		sbiw r26,22+1
 1039               		.loc 2 357 56 discriminator 2 view .LVU293
 1040 0046 492F      		mov r20,r25
 1041 0048 50E0      		ldi r21,0
 1042               		.loc 2 357 24 discriminator 2 view .LVU294
 1043 004a E801      		movw r28,r16
 1044 004c C40F      		add r28,r20
 1045 004e D51F      		adc r29,r21
 1046               		.loc 2 357 57 discriminator 2 view .LVU295
 1047 0050 E40F      		add r30,r20
 1048 0052 F51F      		adc r31,r21
 1049 0054 3081      		ld r19,Z
GAS LISTING C:\Users\kenne\AppData\Local\Temp\ccWhffpB.s 			page 41


 1050               		.loc 2 357 26 discriminator 2 view .LVU296
 1051 0056 3883      		st Y,r19
 351:funsape/util/apiParser.cpp ****         if(i == maxChars_p) {
 1052               		.loc 2 351 5 is_stmt 1 discriminator 2 view .LVU297
 1053 0058 9F5F      		subi r25,lo8(-(1))
 1054               	.LVL38:
 351:funsape/util/apiParser.cpp ****         if(i == maxChars_p) {
 1055               		.loc 2 351 5 is_stmt 0 discriminator 2 view .LVU298
 1056 005a 00C0      		rjmp .L57
 1057               	.LVL39:
 1058               	.L60:
 351:funsape/util/apiParser.cpp ****         if(i == maxChars_p) {
 1059               		.loc 2 351 5 discriminator 2 view .LVU299
 1060               	.LBE32:
 338:funsape/util/apiParser.cpp ****         return false;
 1061               		.loc 2 338 9 is_stmt 1 view .LVU300
 338:funsape/util/apiParser.cpp ****         return false;
 1062               		.loc 2 338 26 is_stmt 0 view .LVU301
 1063 005c 24E0      		ldi r18,lo8(4)
 1064 005e 30E0      		ldi r19,0
 1065               	.LVL40:
 338:funsape/util/apiParser.cpp ****         return false;
 1066               		.loc 2 338 26 view .LVU302
 1067 0060 1296      		adiw r26,1+1
 1068 0062 3C93      		st X,r19
 1069 0064 2E93      		st -X,r18
 1070 0066 1197      		sbiw r26,1
 339:funsape/util/apiParser.cpp ****     }
 1071               		.loc 2 339 9 is_stmt 1 view .LVU303
 1072               	.LVL41:
 1073               	.L52:
 1074               	/* epilogue start */
 358:funsape/util/apiParser.cpp ****     }
 359:funsape/util/apiParser.cpp **** 
 360:funsape/util/apiParser.cpp ****     // Returns successfuly
 361:funsape/util/apiParser.cpp ****     this->_lastError = Error::NONE;
 362:funsape/util/apiParser.cpp ****     return true;
 363:funsape/util/apiParser.cpp **** }
 1075               		.loc 2 363 1 is_stmt 0 view .LVU304
 1076 0068 DF91      		pop r29
 1077 006a CF91      		pop r28
 1078 006c 1F91      		pop r17
 1079 006e 0F91      		pop r16
 1080 0070 0895      		ret
 1081               	.LVL42:
 1082               	.L55:
 343:funsape/util/apiParser.cpp ****         return false;
 1083               		.loc 2 343 9 is_stmt 1 view .LVU305
 343:funsape/util/apiParser.cpp ****         return false;
 1084               		.loc 2 343 26 is_stmt 0 view .LVU306
 1085 0072 81E1      		ldi r24,lo8(17)
 1086 0074 90E0      		ldi r25,0
 1087 0076 1296      		adiw r26,1+1
 1088 0078 9C93      		st X,r25
 1089 007a 8E93      		st -X,r24
 1090 007c 1197      		sbiw r26,1
 344:funsape/util/apiParser.cpp ****     }
GAS LISTING C:\Users\kenne\AppData\Local\Temp\ccWhffpB.s 			page 42


 1091               		.loc 2 344 9 is_stmt 1 view .LVU307
 344:funsape/util/apiParser.cpp ****     }
 1092               		.loc 2 344 16 is_stmt 0 view .LVU308
 1093 007e 80E0      		ldi r24,0
 1094 0080 00C0      		rjmp .L52
 1095               	.LVL43:
 1096               	.L62:
 1097               	.LBB33:
 354:funsape/util/apiParser.cpp ****             return false;
 1098               		.loc 2 354 13 is_stmt 1 view .LVU309
 354:funsape/util/apiParser.cpp ****             return false;
 1099               		.loc 2 354 30 is_stmt 0 view .LVU310
 1100 0082 81E2      		ldi r24,lo8(33)
 1101 0084 90E0      		ldi r25,0
 1102 0086 1296      		adiw r26,1+1
 1103 0088 9C93      		st X,r25
 1104 008a 8E93      		st -X,r24
 1105 008c 1197      		sbiw r26,1
 355:funsape/util/apiParser.cpp ****         }
 1106               		.loc 2 355 13 is_stmt 1 view .LVU311
 355:funsape/util/apiParser.cpp ****         }
 1107               		.loc 2 355 20 is_stmt 0 view .LVU312
 1108 008e 80E0      		ldi r24,0
 1109 0090 00C0      		rjmp .L52
 1110               	.L61:
 355:funsape/util/apiParser.cpp ****         }
 1111               		.loc 2 355 20 view .LVU313
 1112               	.LBE33:
 361:funsape/util/apiParser.cpp ****     return true;
 1113               		.loc 2 361 5 is_stmt 1 view .LVU314
 361:funsape/util/apiParser.cpp ****     return true;
 1114               		.loc 2 361 22 is_stmt 0 view .LVU315
 1115 0092 1296      		adiw r26,1+1
 1116 0094 1C92      		st X,__zero_reg__
 1117 0096 1E92      		st -X,__zero_reg__
 1118 0098 1197      		sbiw r26,1
 362:funsape/util/apiParser.cpp **** }
 1119               		.loc 2 362 5 is_stmt 1 view .LVU316
 362:funsape/util/apiParser.cpp **** }
 1120               		.loc 2 362 12 is_stmt 0 view .LVU317
 1121 009a 00C0      		rjmp .L52
 1122               		.cfi_endproc
 1123               	.LFE50:
 1125               		.section	.text._ZN9ApiParser18rxGetSourceAddressEPh,"ax",@progbits
 1126               	.global	_ZN9ApiParser18rxGetSourceAddressEPh
 1128               	_ZN9ApiParser18rxGetSourceAddressEPh:
 1129               	.LVL44:
 1130               	.LFB51:
 364:funsape/util/apiParser.cpp **** 
 365:funsape/util/apiParser.cpp **** bool_t ApiParser::rxGetSourceAddress(uint8_t *sourceAddress_p)
 366:funsape/util/apiParser.cpp **** {
 1131               		.loc 2 366 1 is_stmt 1 view -0
 1132               		.cfi_startproc
 1133               	/* prologue: function */
 1134               	/* frame size = 0 */
 1135               	/* stack size = 0 */
 1136               	.L__stack_usage = 0
GAS LISTING C:\Users\kenne\AppData\Local\Temp\ccWhffpB.s 			page 43


 1137               		.loc 2 366 1 is_stmt 0 view .LVU319
 1138 0000 E82F      		mov r30,r24
 1139 0002 F92F      		mov r31,r25
 1140 0004 A62F      		mov r26,r22
 1141 0006 B72F      		mov r27,r23
 367:funsape/util/apiParser.cpp ****     // Check for errors
 368:funsape/util/apiParser.cpp ****     if(!this->_initialized) {
 1142               		.loc 2 368 5 is_stmt 1 view .LVU320
 1143               		.loc 2 368 15 is_stmt 0 view .LVU321
 1144 0008 8081      		ld r24,Z
 1145               	.LVL45:
 1146               		.loc 2 368 15 view .LVU322
 1147 000a 8170      		andi r24,1
 1148               		.loc 2 368 5 view .LVU323
 1149 000c 8823      		tst r24
 1150 000e 01F0      		breq .L67
 369:funsape/util/apiParser.cpp ****         // Returns error
 370:funsape/util/apiParser.cpp ****         this->_lastError = Error::NOT_INITIALIZED;
 371:funsape/util/apiParser.cpp ****         return false;
 372:funsape/util/apiParser.cpp ****     }
 373:funsape/util/apiParser.cpp ****     if(sourceAddress_p == NULL) {
 1151               		.loc 2 373 5 is_stmt 1 view .LVU324
 1152 0010 1097      		sbiw r26,0
 1153 0012 01F0      		breq .L68
 374:funsape/util/apiParser.cpp ****         // Returns error
 375:funsape/util/apiParser.cpp ****         this->_lastError = Error::ARGUMENT_POINTER_NULL;
 376:funsape/util/apiParser.cpp ****         return false;
 377:funsape/util/apiParser.cpp ****     }
 378:funsape/util/apiParser.cpp **** 
 379:funsape/util/apiParser.cpp ****     // Updates data members
 380:funsape/util/apiParser.cpp ****     *sourceAddress_p = this->_rxDecodedSourceAddress;
 1154               		.loc 2 380 5 view .LVU325
 1155               		.loc 2 380 30 is_stmt 0 view .LVU326
 1156 0014 928D      		ldd r25,Z+26
 1157               		.loc 2 380 22 view .LVU327
 1158 0016 9C93      		st X,r25
 381:funsape/util/apiParser.cpp **** 
 382:funsape/util/apiParser.cpp ****     // Returns successfuly
 383:funsape/util/apiParser.cpp ****     this->_lastError = Error::NONE;
 1159               		.loc 2 383 5 is_stmt 1 view .LVU328
 1160               		.loc 2 383 22 is_stmt 0 view .LVU329
 1161 0018 1282      		std Z+2,__zero_reg__
 1162 001a 1182      		std Z+1,__zero_reg__
 384:funsape/util/apiParser.cpp ****     return true;
 1163               		.loc 2 384 5 is_stmt 1 view .LVU330
 1164               	/* epilogue start */
 385:funsape/util/apiParser.cpp **** }
 1165               		.loc 2 385 1 is_stmt 0 view .LVU331
 1166 001c 0895      		ret
 1167               	.L67:
 370:funsape/util/apiParser.cpp ****         return false;
 1168               		.loc 2 370 9 is_stmt 1 view .LVU332
 370:funsape/util/apiParser.cpp ****         return false;
 1169               		.loc 2 370 26 is_stmt 0 view .LVU333
 1170 001e 24E0      		ldi r18,lo8(4)
 1171 0020 30E0      		ldi r19,0
 1172 0022 3283      		std Z+2,r19
GAS LISTING C:\Users\kenne\AppData\Local\Temp\ccWhffpB.s 			page 44


 1173 0024 2183      		std Z+1,r18
 371:funsape/util/apiParser.cpp ****     }
 1174               		.loc 2 371 9 is_stmt 1 view .LVU334
 371:funsape/util/apiParser.cpp ****     }
 1175               		.loc 2 371 16 is_stmt 0 view .LVU335
 1176 0026 0895      		ret
 1177               	.L68:
 375:funsape/util/apiParser.cpp ****         return false;
 1178               		.loc 2 375 9 is_stmt 1 view .LVU336
 375:funsape/util/apiParser.cpp ****         return false;
 1179               		.loc 2 375 26 is_stmt 0 view .LVU337
 1180 0028 81E1      		ldi r24,lo8(17)
 1181 002a 90E0      		ldi r25,0
 1182 002c 9283      		std Z+2,r25
 1183 002e 8183      		std Z+1,r24
 376:funsape/util/apiParser.cpp ****     }
 1184               		.loc 2 376 9 is_stmt 1 view .LVU338
 376:funsape/util/apiParser.cpp ****     }
 1185               		.loc 2 376 16 is_stmt 0 view .LVU339
 1186 0030 80E0      		ldi r24,0
 1187 0032 0895      		ret
 1188               		.cfi_endproc
 1189               	.LFE51:
 1191               		.section	.text._ZN9ApiParser9rxIsReadyEv,"ax",@progbits
 1192               	.global	_ZN9ApiParser9rxIsReadyEv
 1194               	_ZN9ApiParser9rxIsReadyEv:
 1195               	.LVL46:
 1196               	.LFB52:
 386:funsape/util/apiParser.cpp **** 
 387:funsape/util/apiParser.cpp **** bool_t ApiParser::rxIsReady(void)
 388:funsape/util/apiParser.cpp **** {
 1197               		.loc 2 388 1 is_stmt 1 view -0
 1198               		.cfi_startproc
 1199               	/* prologue: function */
 1200               	/* frame size = 0 */
 1201               	/* stack size = 0 */
 1202               	.L__stack_usage = 0
 389:funsape/util/apiParser.cpp ****     // Returns value
 390:funsape/util/apiParser.cpp ****     return this->_rxRawReady;
 1203               		.loc 2 390 5 view .LVU341
 1204               		.loc 2 390 18 is_stmt 0 view .LVU342
 1205 0000 FC01      		movw r30,r24
 1206 0002 8285      		ldd r24,Z+10
 1207               	.LVL47:
 391:funsape/util/apiParser.cpp **** }
 1208               		.loc 2 391 1 view .LVU343
 1209 0004 83FB      		bst r24,3
 1210 0006 8827      		clr r24
 1211 0008 80F9      		bld r24,0
 1212               	/* epilogue start */
 1213 000a 0895      		ret
 1214               		.cfi_endproc
 1215               	.LFE52:
 1217               		.section	.text._ZN9ApiParser10_txAddDataEh,"ax",@progbits
 1218               	.global	_ZN9ApiParser10_txAddDataEh
 1220               	_ZN9ApiParser10_txAddDataEh:
 1221               	.LVL48:
GAS LISTING C:\Users\kenne\AppData\Local\Temp\ccWhffpB.s 			page 45


 1222               	.LFB54:
 392:funsape/util/apiParser.cpp **** 
 393:funsape/util/apiParser.cpp **** bool_t ApiParser::_txEncodePackage(void)
 394:funsape/util/apiParser.cpp **** {
 395:funsape/util/apiParser.cpp ****     // Local variables
 396:funsape/util/apiParser.cpp ****     uint8_t auxChecksum = 0xFF;
 397:funsape/util/apiParser.cpp **** 
 398:funsape/util/apiParser.cpp ****     // Checks for errors - Zero payload size
 399:funsape/util/apiParser.cpp ****     if(this->_txDecodedPayloadSize == 0) {
 400:funsape/util/apiParser.cpp ****         // Returns error
 401:funsape/util/apiParser.cpp ****         this->_lastError = Error::BUFFER_SIZE_ZERO;
 402:funsape/util/apiParser.cpp ****         return false;
 403:funsape/util/apiParser.cpp ****     }
 404:funsape/util/apiParser.cpp **** 
 405:funsape/util/apiParser.cpp ****     // Updates data members
 406:funsape/util/apiParser.cpp ****     this->_txRawSize = 0;
 407:funsape/util/apiParser.cpp ****     this->_txRawIndex = 0;
 408:funsape/util/apiParser.cpp ****     this->_txDecodedPayloadIndex = 0;
 409:funsape/util/apiParser.cpp **** 
 410:funsape/util/apiParser.cpp ****     // Creates raw package
 411:funsape/util/apiParser.cpp ****     // Start delimiter
 412:funsape/util/apiParser.cpp ****     this->_txRawData[this->_txRawIndex++] = constStartDelimiter;
 413:funsape/util/apiParser.cpp ****     auxChecksum = 0xFF;
 414:funsape/util/apiParser.cpp **** 
 415:funsape/util/apiParser.cpp ****     // Package ID
 416:funsape/util/apiParser.cpp ****     if(!this->_txAddData(this->_txDecodedId)) {
 417:funsape/util/apiParser.cpp ****         // Returns error
 418:funsape/util/apiParser.cpp ****         return false;
 419:funsape/util/apiParser.cpp ****     }
 420:funsape/util/apiParser.cpp ****     auxChecksum -= this->_txDecodedId;
 421:funsape/util/apiParser.cpp ****     if(this->_txDecodedIdAutoIncrement) {
 422:funsape/util/apiParser.cpp ****         this->_txDecodedId = (this->_txDecodedId == 255) ? 1 : (this->_txDecodedId + 1);
 423:funsape/util/apiParser.cpp ****     }
 424:funsape/util/apiParser.cpp **** 
 425:funsape/util/apiParser.cpp ****     // Destination address
 426:funsape/util/apiParser.cpp ****     if(!this->_txAddData(this->_txDecodedDestinyAddress)) {
 427:funsape/util/apiParser.cpp ****         // Returns error
 428:funsape/util/apiParser.cpp ****         return false;
 429:funsape/util/apiParser.cpp ****     }
 430:funsape/util/apiParser.cpp ****     auxChecksum -= this->_txDecodedDestinyAddress;
 431:funsape/util/apiParser.cpp **** 
 432:funsape/util/apiParser.cpp ****     // Source address
 433:funsape/util/apiParser.cpp ****     if(!this->_txAddData(this->_txDecodedSourceAddress)) {
 434:funsape/util/apiParser.cpp ****         // Returns error
 435:funsape/util/apiParser.cpp ****         return false;
 436:funsape/util/apiParser.cpp ****     }
 437:funsape/util/apiParser.cpp ****     auxChecksum -= this->_txDecodedSourceAddress;
 438:funsape/util/apiParser.cpp **** 
 439:funsape/util/apiParser.cpp ****     // Payload size
 440:funsape/util/apiParser.cpp ****     if(!this->_txAddData(this->_txDecodedPayloadSize)) {
 441:funsape/util/apiParser.cpp ****         // Returns error
 442:funsape/util/apiParser.cpp ****         return false;
 443:funsape/util/apiParser.cpp ****     }
 444:funsape/util/apiParser.cpp ****     auxChecksum -= this->_txDecodedPayloadSize;
 445:funsape/util/apiParser.cpp **** 
 446:funsape/util/apiParser.cpp ****     // Payload data
 447:funsape/util/apiParser.cpp ****     for(uint8_t i = 0; i < this->_txDecodedPayloadSize; i++) {
GAS LISTING C:\Users\kenne\AppData\Local\Temp\ccWhffpB.s 			page 46


 448:funsape/util/apiParser.cpp ****         if(!this->_txAddData(this->_txDecodedPayloadData[i])) {
 449:funsape/util/apiParser.cpp ****             // Returns error
 450:funsape/util/apiParser.cpp ****             return false;
 451:funsape/util/apiParser.cpp ****         }
 452:funsape/util/apiParser.cpp ****         auxChecksum -= this->_txDecodedPayloadData[i];
 453:funsape/util/apiParser.cpp ****     }
 454:funsape/util/apiParser.cpp **** 
 455:funsape/util/apiParser.cpp ****     // Checksum
 456:funsape/util/apiParser.cpp ****     if(!this->_txAddData(auxChecksum)) {
 457:funsape/util/apiParser.cpp ****         // Returns error
 458:funsape/util/apiParser.cpp ****         return false;
 459:funsape/util/apiParser.cpp ****     }
 460:funsape/util/apiParser.cpp **** 
 461:funsape/util/apiParser.cpp ****     // Final package flags setup
 462:funsape/util/apiParser.cpp ****     this->_txRawSize = this->_txRawIndex;
 463:funsape/util/apiParser.cpp **** 
 464:funsape/util/apiParser.cpp ****     // Returns successfully
 465:funsape/util/apiParser.cpp ****     this->_lastError = Error::NONE;
 466:funsape/util/apiParser.cpp ****     return true;
 467:funsape/util/apiParser.cpp **** }
 468:funsape/util/apiParser.cpp **** 
 469:funsape/util/apiParser.cpp **** bool_t ApiParser::_txAddData(uint8_t data_p)
 470:funsape/util/apiParser.cpp **** {
 1223               		.loc 2 470 1 is_stmt 1 view -0
 1224               		.cfi_startproc
 1225               	/* prologue: function */
 1226               	/* frame size = 0 */
 1227               	/* stack size = 0 */
 1228               	.L__stack_usage = 0
 1229               		.loc 2 470 1 is_stmt 0 view .LVU345
 1230 0000 E82F      		mov r30,r24
 1231 0002 F92F      		mov r31,r25
 471:funsape/util/apiParser.cpp ****     // Checks for errors - Package size
 472:funsape/util/apiParser.cpp ****     if((this->_txRawIndex + 2) >= this->_rawMaxSize) {
 1232               		.loc 2 472 5 is_stmt 1 view .LVU346
 1233               		.loc 2 472 15 is_stmt 0 view .LVU347
 1234 0004 8089      		ldd r24,Z+16
 1235               	.LVL49:
 1236               		.loc 2 472 15 view .LVU348
 1237 0006 2189      		ldd r18,Z+17
 1238 0008 922F      		mov r25,r18
 1239 000a 9370      		andi r25,lo8(3)
 1240               		.loc 2 472 27 view .LVU349
 1241 000c DC01      		movw r26,r24
 1242 000e 1296      		adiw r26,2
 1243               		.loc 2 472 41 view .LVU350
 1244 0010 3481      		ldd r19,Z+4
 1245 0012 3695      		lsr r19
 1246 0014 2581      		ldd r18,Z+5
 1247 0016 722F      		mov r23,r18
 1248 0018 7795      		ror r23
 1249 001a 7727      		clr r23
 1250 001c 7795      		ror r23
 1251 001e 472F      		mov r20,r23
 1252 0020 432B      		or r20,r19
 1253 0022 2695      		lsr r18
 1254 0024 522F      		mov r21,r18
GAS LISTING C:\Users\kenne\AppData\Local\Temp\ccWhffpB.s 			page 47


 1255 0026 5370      		andi r21,lo8(3)
 1256               		.loc 2 472 5 view .LVU351
 1257 0028 A417      		cp r26,r20
 1258 002a B507      		cpc r27,r21
 1259 002c 04F4      		brge .L78
 473:funsape/util/apiParser.cpp ****         // Returns error
 474:funsape/util/apiParser.cpp ****         this->_lastError = Error::BUFFER_FULL;
 475:funsape/util/apiParser.cpp ****         return false;
 476:funsape/util/apiParser.cpp ****     }
 477:funsape/util/apiParser.cpp **** 
 478:funsape/util/apiParser.cpp ****     // Adds data to tx buffer
 479:funsape/util/apiParser.cpp ****     if(!this->_useEscapeChar) {         // Escape character is DISABLED
 1260               		.loc 2 479 5 is_stmt 1 view .LVU352
 1261               		.loc 2 479 15 is_stmt 0 view .LVU353
 1262 002e 2481      		ldd r18,Z+4
 1263               		.loc 2 479 5 view .LVU354
 1264 0030 20FD      		sbrc r18,0
 1265 0032 00C0      		rjmp .L73
 480:funsape/util/apiParser.cpp ****         this->_txRawData[this->_txRawIndex++] = data_p;
 1266               		.loc 2 480 9 is_stmt 1 view .LVU355
 1267               		.loc 2 480 15 is_stmt 0 view .LVU356
 1268 0034 A685      		ldd r26,Z+14
 1269 0036 B785      		ldd r27,Z+15
 1270               		.loc 2 480 43 view .LVU357
 1271 0038 9C01      		movw r18,r24
 1272 003a 2F5F      		subi r18,-1
 1273 003c 3F4F      		sbci r19,-1
 1274 003e 3370      		andi r19,3
 1275 0040 208B      		std Z+16,r18
 1276 0042 3370      		andi r19,lo8(3)
 1277 0044 2189      		ldd r18,Z+17
 1278 0046 2C7F      		andi r18,lo8(-4)
 1279 0048 232B      		or r18,r19
 1280 004a 218B      		std Z+17,r18
 1281               		.loc 2 480 45 view .LVU358
 1282 004c A80F      		add r26,r24
 1283 004e B91F      		adc r27,r25
 1284               		.loc 2 480 47 view .LVU359
 1285 0050 6C93      		st X,r22
 1286               	.L74:
 481:funsape/util/apiParser.cpp ****     } else {                            // Escape character is ENABLED
 482:funsape/util/apiParser.cpp ****         switch(data_p) {
 483:funsape/util/apiParser.cpp ****         case 0x7E:
 484:funsape/util/apiParser.cpp ****         case 0x7D:
 485:funsape/util/apiParser.cpp ****         case 0x11:
 486:funsape/util/apiParser.cpp ****         case 0x13:
 487:funsape/util/apiParser.cpp ****             this->_txRawData[this->_txRawIndex++] = 0x7D;
 488:funsape/util/apiParser.cpp ****             this->_txRawData[this->_txRawIndex++] = data_p ^ 0x20;
 489:funsape/util/apiParser.cpp ****             break;
 490:funsape/util/apiParser.cpp ****         default:
 491:funsape/util/apiParser.cpp ****             this->_txRawData[this->_txRawIndex++] = data_p;
 492:funsape/util/apiParser.cpp ****             break;
 493:funsape/util/apiParser.cpp ****         }
 494:funsape/util/apiParser.cpp ****     }
 495:funsape/util/apiParser.cpp **** 
 496:funsape/util/apiParser.cpp ****     // Returns successfully
 497:funsape/util/apiParser.cpp ****     this->_lastError = Error::NONE;
GAS LISTING C:\Users\kenne\AppData\Local\Temp\ccWhffpB.s 			page 48


 1287               		.loc 2 497 5 is_stmt 1 view .LVU360
 1288               		.loc 2 497 22 is_stmt 0 view .LVU361
 1289 0052 1282      		std Z+2,__zero_reg__
 1290 0054 1182      		std Z+1,__zero_reg__
 498:funsape/util/apiParser.cpp ****     return true;
 1291               		.loc 2 498 5 is_stmt 1 view .LVU362
 1292               		.loc 2 498 12 is_stmt 0 view .LVU363
 1293 0056 81E0      		ldi r24,lo8(1)
 1294               	/* epilogue start */
 499:funsape/util/apiParser.cpp **** }
 1295               		.loc 2 499 1 view .LVU364
 1296 0058 0895      		ret
 1297               	.L78:
 474:funsape/util/apiParser.cpp ****         return false;
 1298               		.loc 2 474 9 is_stmt 1 view .LVU365
 474:funsape/util/apiParser.cpp ****         return false;
 1299               		.loc 2 474 26 is_stmt 0 view .LVU366
 1300 005a 81E2      		ldi r24,lo8(33)
 1301 005c 90E0      		ldi r25,0
 1302 005e 9283      		std Z+2,r25
 1303 0060 8183      		std Z+1,r24
 475:funsape/util/apiParser.cpp ****     }
 1304               		.loc 2 475 9 is_stmt 1 view .LVU367
 475:funsape/util/apiParser.cpp ****     }
 1305               		.loc 2 475 16 is_stmt 0 view .LVU368
 1306 0062 80E0      		ldi r24,0
 1307 0064 0895      		ret
 1308               	.L73:
 482:funsape/util/apiParser.cpp ****         case 0x7E:
 1309               		.loc 2 482 9 is_stmt 1 view .LVU369
 1310 0066 6331      		cpi r22,lo8(19)
 1311 0068 01F0      		breq .L75
 1312 006a 00F4      		brsh .L76
 1313 006c 6131      		cpi r22,lo8(17)
 1314 006e 01F0      		breq .L75
 1315               	.L77:
 490:funsape/util/apiParser.cpp ****             this->_txRawData[this->_txRawIndex++] = data_p;
 1316               		.loc 2 490 9 view .LVU370
 491:funsape/util/apiParser.cpp ****             break;
 1317               		.loc 2 491 13 view .LVU371
 491:funsape/util/apiParser.cpp ****             break;
 1318               		.loc 2 491 19 is_stmt 0 view .LVU372
 1319 0070 A685      		ldd r26,Z+14
 1320 0072 B785      		ldd r27,Z+15
 491:funsape/util/apiParser.cpp ****             break;
 1321               		.loc 2 491 47 view .LVU373
 1322 0074 9C01      		movw r18,r24
 1323 0076 2F5F      		subi r18,-1
 1324 0078 3F4F      		sbci r19,-1
 1325 007a 3370      		andi r19,3
 1326 007c 208B      		std Z+16,r18
 1327 007e 3370      		andi r19,lo8(3)
 1328 0080 2189      		ldd r18,Z+17
 1329 0082 2C7F      		andi r18,lo8(-4)
 1330 0084 232B      		or r18,r19
 1331 0086 218B      		std Z+17,r18
 491:funsape/util/apiParser.cpp ****             break;
GAS LISTING C:\Users\kenne\AppData\Local\Temp\ccWhffpB.s 			page 49


 1332               		.loc 2 491 49 view .LVU374
 1333 0088 A80F      		add r26,r24
 1334 008a B91F      		adc r27,r25
 491:funsape/util/apiParser.cpp ****             break;
 1335               		.loc 2 491 51 view .LVU375
 1336 008c 6C93      		st X,r22
 492:funsape/util/apiParser.cpp ****         }
 1337               		.loc 2 492 13 is_stmt 1 view .LVU376
 1338 008e 00C0      		rjmp .L74
 1339               	.L76:
 482:funsape/util/apiParser.cpp ****         case 0x7E:
 1340               		.loc 2 482 9 is_stmt 0 view .LVU377
 1341 0090 23E8      		ldi r18,lo8(-125)
 1342 0092 260F      		add r18,r22
 1343 0094 2230      		cpi r18,lo8(2)
 1344 0096 00F4      		brsh .L77
 1345               	.L75:
 483:funsape/util/apiParser.cpp ****         case 0x7D:
 1346               		.loc 2 483 9 is_stmt 1 view .LVU378
 484:funsape/util/apiParser.cpp ****         case 0x11:
 1347               		.loc 2 484 9 view .LVU379
 485:funsape/util/apiParser.cpp ****         case 0x13:
 1348               		.loc 2 485 9 view .LVU380
 486:funsape/util/apiParser.cpp ****             this->_txRawData[this->_txRawIndex++] = 0x7D;
 1349               		.loc 2 486 9 view .LVU381
 487:funsape/util/apiParser.cpp ****             this->_txRawData[this->_txRawIndex++] = data_p ^ 0x20;
 1350               		.loc 2 487 13 view .LVU382
 487:funsape/util/apiParser.cpp ****             this->_txRawData[this->_txRawIndex++] = data_p ^ 0x20;
 1351               		.loc 2 487 19 is_stmt 0 view .LVU383
 1352 0098 A685      		ldd r26,Z+14
 1353 009a B785      		ldd r27,Z+15
 487:funsape/util/apiParser.cpp ****             this->_txRawData[this->_txRawIndex++] = data_p ^ 0x20;
 1354               		.loc 2 487 47 view .LVU384
 1355 009c 9C01      		movw r18,r24
 1356 009e 2F5F      		subi r18,-1
 1357 00a0 3F4F      		sbci r19,-1
 1358 00a2 3370      		andi r19,3
 1359 00a4 208B      		std Z+16,r18
 1360 00a6 3370      		andi r19,lo8(3)
 1361 00a8 2189      		ldd r18,Z+17
 1362 00aa 2C7F      		andi r18,lo8(-4)
 1363 00ac 232B      		or r18,r19
 1364 00ae 218B      		std Z+17,r18
 487:funsape/util/apiParser.cpp ****             this->_txRawData[this->_txRawIndex++] = data_p ^ 0x20;
 1365               		.loc 2 487 49 view .LVU385
 1366 00b0 A80F      		add r26,r24
 1367 00b2 B91F      		adc r27,r25
 487:funsape/util/apiParser.cpp ****             this->_txRawData[this->_txRawIndex++] = data_p ^ 0x20;
 1368               		.loc 2 487 51 view .LVU386
 1369 00b4 8DE7      		ldi r24,lo8(125)
 1370 00b6 8C93      		st X,r24
 488:funsape/util/apiParser.cpp ****             break;
 1371               		.loc 2 488 13 is_stmt 1 view .LVU387
 488:funsape/util/apiParser.cpp ****             break;
 1372               		.loc 2 488 60 is_stmt 0 view .LVU388
 1373 00b8 90E2      		ldi r25,lo8(32)
 1374 00ba 9627      		eor r25,r22
GAS LISTING C:\Users\kenne\AppData\Local\Temp\ccWhffpB.s 			page 50


 488:funsape/util/apiParser.cpp ****             break;
 1375               		.loc 2 488 19 view .LVU389
 1376 00bc A685      		ldd r26,Z+14
 1377 00be B785      		ldd r27,Z+15
 488:funsape/util/apiParser.cpp ****             break;
 1378               		.loc 2 488 36 view .LVU390
 1379 00c0 2089      		ldd r18,Z+16
 1380 00c2 8189      		ldd r24,Z+17
 1381 00c4 382F      		mov r19,r24
 1382 00c6 3370      		andi r19,lo8(3)
 488:funsape/util/apiParser.cpp ****             break;
 1383               		.loc 2 488 47 view .LVU391
 1384 00c8 A901      		movw r20,r18
 1385 00ca 4F5F      		subi r20,-1
 1386 00cc 5F4F      		sbci r21,-1
 1387 00ce 5370      		andi r21,3
 1388 00d0 408B      		std Z+16,r20
 1389 00d2 452F      		mov r20,r21
 1390 00d4 4370      		andi r20,lo8(3)
 1391 00d6 8C7F      		andi r24,lo8(-4)
 1392 00d8 842B      		or r24,r20
 1393 00da 818B      		std Z+17,r24
 488:funsape/util/apiParser.cpp ****             break;
 1394               		.loc 2 488 49 view .LVU392
 1395 00dc A20F      		add r26,r18
 1396 00de B31F      		adc r27,r19
 488:funsape/util/apiParser.cpp ****             break;
 1397               		.loc 2 488 51 view .LVU393
 1398 00e0 9C93      		st X,r25
 489:funsape/util/apiParser.cpp ****         default:
 1399               		.loc 2 489 13 is_stmt 1 view .LVU394
 1400 00e2 00C0      		rjmp .L74
 1401               		.cfi_endproc
 1402               	.LFE54:
 1404               		.section	.text._ZN9ApiParser16_txEncodePackageEv,"ax",@progbits
 1405               	.global	_ZN9ApiParser16_txEncodePackageEv
 1407               	_ZN9ApiParser16_txEncodePackageEv:
 1408               	.LVL50:
 1409               	.LFB53:
 394:funsape/util/apiParser.cpp ****     // Local variables
 1410               		.loc 2 394 1 view -0
 1411               		.cfi_startproc
 394:funsape/util/apiParser.cpp ****     // Local variables
 1412               		.loc 2 394 1 is_stmt 0 view .LVU396
 1413 0000 EF92      		push r14
 1414               		.cfi_def_cfa_offset 3
 1415               		.cfi_offset 14, -2
 1416 0002 FF92      		push r15
 1417               		.cfi_def_cfa_offset 4
 1418               		.cfi_offset 15, -3
 1419 0004 0F93      		push r16
 1420               		.cfi_def_cfa_offset 5
 1421               		.cfi_offset 16, -4
 1422 0006 1F93      		push r17
 1423               		.cfi_def_cfa_offset 6
 1424               		.cfi_offset 17, -5
 1425 0008 CF93      		push r28
GAS LISTING C:\Users\kenne\AppData\Local\Temp\ccWhffpB.s 			page 51


 1426               		.cfi_def_cfa_offset 7
 1427               		.cfi_offset 28, -6
 1428 000a DF93      		push r29
 1429               		.cfi_def_cfa_offset 8
 1430               		.cfi_offset 29, -7
 1431               	/* prologue: function */
 1432               	/* frame size = 0 */
 1433               	/* stack size = 6 */
 1434               	.L__stack_usage = 6
 1435 000c C82F      		mov r28,r24
 1436 000e D92F      		mov r29,r25
 396:funsape/util/apiParser.cpp **** 
 1437               		.loc 2 396 5 is_stmt 1 view .LVU397
 1438               	.LVL51:
 399:funsape/util/apiParser.cpp ****         // Returns error
 1439               		.loc 2 399 5 view .LVU398
 399:funsape/util/apiParser.cpp ****         // Returns error
 1440               		.loc 2 399 14 is_stmt 0 view .LVU399
 1441 0010 89A1      		ldd r24,Y+33
 1442               	.LVL52:
 399:funsape/util/apiParser.cpp ****         // Returns error
 1443               		.loc 2 399 5 view .LVU400
 1444 0012 8111      		cpse r24,__zero_reg__
 1445 0014 00C0      		rjmp .L80
 401:funsape/util/apiParser.cpp ****         return false;
 1446               		.loc 2 401 9 is_stmt 1 view .LVU401
 401:funsape/util/apiParser.cpp ****         return false;
 1447               		.loc 2 401 26 is_stmt 0 view .LVU402
 1448 0016 87E2      		ldi r24,lo8(39)
 1449 0018 90E0      		ldi r25,0
 1450 001a 9A83      		std Y+2,r25
 1451 001c 8983      		std Y+1,r24
 402:funsape/util/apiParser.cpp ****     }
 1452               		.loc 2 402 9 is_stmt 1 view .LVU403
 402:funsape/util/apiParser.cpp ****     }
 1453               		.loc 2 402 16 is_stmt 0 view .LVU404
 1454 001e 80E0      		ldi r24,0
 1455               	.LVL53:
 1456               	.L79:
 1457               	/* epilogue start */
 467:funsape/util/apiParser.cpp **** 
 1458               		.loc 2 467 1 view .LVU405
 1459 0020 DF91      		pop r29
 1460 0022 CF91      		pop r28
 1461 0024 1F91      		pop r17
 1462 0026 0F91      		pop r16
 1463 0028 FF90      		pop r15
 1464 002a EF90      		pop r14
 1465 002c 0895      		ret
 1466               	.LVL54:
 1467               	.L80:
 406:funsape/util/apiParser.cpp ****     this->_txRawIndex = 0;
 1468               		.loc 2 406 5 is_stmt 1 view .LVU406
 406:funsape/util/apiParser.cpp ****     this->_txRawIndex = 0;
 1469               		.loc 2 406 22 is_stmt 0 view .LVU407
 1470 002e 8989      		ldd r24,Y+17
 1471 0030 8370      		andi r24,lo8(3)
GAS LISTING C:\Users\kenne\AppData\Local\Temp\ccWhffpB.s 			page 52


 1472 0032 898B      		std Y+17,r24
 1473 0034 8A89      		ldd r24,Y+18
 1474 0036 982F      		mov r25,r24
 1475 0038 9C7F      		andi r25,lo8(-4)
 1476 003a 9A8B      		std Y+18,r25
 1477 003c 807F      		andi r24,lo8(-16)
 1478 003e 8A8B      		std Y+18,r24
 407:funsape/util/apiParser.cpp ****     this->_txDecodedPayloadIndex = 0;
 1479               		.loc 2 407 5 is_stmt 1 view .LVU408
 407:funsape/util/apiParser.cpp ****     this->_txDecodedPayloadIndex = 0;
 1480               		.loc 2 407 23 is_stmt 0 view .LVU409
 1481 0040 188A      		std Y+16,__zero_reg__
 1482 0042 198A      		std Y+17,__zero_reg__
 408:funsape/util/apiParser.cpp **** 
 1483               		.loc 2 408 5 is_stmt 1 view .LVU410
 408:funsape/util/apiParser.cpp **** 
 1484               		.loc 2 408 34 is_stmt 0 view .LVU411
 1485 0044 18A2      		std Y+32,__zero_reg__
 412:funsape/util/apiParser.cpp ****     auxChecksum = 0xFF;
 1486               		.loc 2 412 5 is_stmt 1 view .LVU412
 412:funsape/util/apiParser.cpp ****     auxChecksum = 0xFF;
 1487               		.loc 2 412 11 is_stmt 0 view .LVU413
 1488 0046 EE85      		ldd r30,Y+14
 1489 0048 FF85      		ldd r31,Y+15
 412:funsape/util/apiParser.cpp ****     auxChecksum = 0xFF;
 1490               		.loc 2 412 39 view .LVU414
 1491 004a 81E0      		ldi r24,lo8(1)
 1492 004c 888B      		std Y+16,r24
 412:funsape/util/apiParser.cpp ****     auxChecksum = 0xFF;
 1493               		.loc 2 412 43 view .LVU415
 1494 004e 8EE7      		ldi r24,lo8(126)
 1495 0050 8083      		st Z,r24
 413:funsape/util/apiParser.cpp **** 
 1496               		.loc 2 413 5 is_stmt 1 view .LVU416
 416:funsape/util/apiParser.cpp ****         // Returns error
 1497               		.loc 2 416 5 view .LVU417
 416:funsape/util/apiParser.cpp ****         // Returns error
 1498               		.loc 2 416 25 is_stmt 0 view .LVU418
 1499 0052 6C8D      		ldd r22,Y+28
 1500 0054 CE01      		movw r24,r28
 1501 0056 0E94 0000 		call _ZN9ApiParser10_txAddDataEh
 1502               	.LVL55:
 416:funsape/util/apiParser.cpp ****         // Returns error
 1503               		.loc 2 416 5 view .LVU419
 1504 005a 8823      		tst r24
 1505 005c 01F0      		breq .L79
 420:funsape/util/apiParser.cpp ****     if(this->_txDecodedIdAutoIncrement) {
 1506               		.loc 2 420 5 is_stmt 1 view .LVU420
 420:funsape/util/apiParser.cpp ****     if(this->_txDecodedIdAutoIncrement) {
 1507               		.loc 2 420 26 is_stmt 0 view .LVU421
 1508 005e 8C8D      		ldd r24,Y+28
 420:funsape/util/apiParser.cpp ****     if(this->_txDecodedIdAutoIncrement) {
 1509               		.loc 2 420 17 view .LVU422
 1510 0060 082F      		mov r16,r24
 1511 0062 0095      		com r16
 1512               	.LVL56:
 421:funsape/util/apiParser.cpp ****         this->_txDecodedId = (this->_txDecodedId == 255) ? 1 : (this->_txDecodedId + 1);
GAS LISTING C:\Users\kenne\AppData\Local\Temp\ccWhffpB.s 			page 53


 1513               		.loc 2 421 5 is_stmt 1 view .LVU423
 421:funsape/util/apiParser.cpp ****         this->_txDecodedId = (this->_txDecodedId == 255) ? 1 : (this->_txDecodedId + 1);
 1514               		.loc 2 421 14 is_stmt 0 view .LVU424
 1515 0064 9D8D      		ldd r25,Y+29
 421:funsape/util/apiParser.cpp ****         this->_txDecodedId = (this->_txDecodedId == 255) ? 1 : (this->_txDecodedId + 1);
 1516               		.loc 2 421 5 view .LVU425
 1517 0066 9923      		tst r25
 1518 0068 01F0      		breq .L82
 422:funsape/util/apiParser.cpp ****     }
 1519               		.loc 2 422 9 is_stmt 1 view .LVU426
 422:funsape/util/apiParser.cpp ****     }
 1520               		.loc 2 422 28 is_stmt 0 view .LVU427
 1521 006a 8F3F      		cpi r24,lo8(-1)
 1522 006c 01F0      		breq .L86
 422:funsape/util/apiParser.cpp ****     }
 1523               		.loc 2 422 28 discriminator 1 view .LVU428
 1524 006e 8F5F      		subi r24,lo8(-(1))
 1525               	.L83:
 422:funsape/util/apiParser.cpp ****     }
 1526               		.loc 2 422 28 discriminator 4 view .LVU429
 1527 0070 8C8F      		std Y+28,r24
 1528               	.L82:
 426:funsape/util/apiParser.cpp ****         // Returns error
 1529               		.loc 2 426 5 is_stmt 1 view .LVU430
 426:funsape/util/apiParser.cpp ****         // Returns error
 1530               		.loc 2 426 25 is_stmt 0 view .LVU431
 1531 0072 6B8D      		ldd r22,Y+27
 1532 0074 CE01      		movw r24,r28
 1533 0076 0E94 0000 		call _ZN9ApiParser10_txAddDataEh
 1534               	.LVL57:
 426:funsape/util/apiParser.cpp ****         // Returns error
 1535               		.loc 2 426 5 view .LVU432
 1536 007a 8823      		tst r24
 1537 007c 01F0      		breq .L79
 430:funsape/util/apiParser.cpp **** 
 1538               		.loc 2 430 5 is_stmt 1 view .LVU433
 430:funsape/util/apiParser.cpp **** 
 1539               		.loc 2 430 26 is_stmt 0 view .LVU434
 1540 007e 8B8D      		ldd r24,Y+27
 430:funsape/util/apiParser.cpp **** 
 1541               		.loc 2 430 17 view .LVU435
 1542 0080 081B      		sub r16,r24
 1543               	.LVL58:
 433:funsape/util/apiParser.cpp ****         // Returns error
 1544               		.loc 2 433 5 is_stmt 1 view .LVU436
 433:funsape/util/apiParser.cpp ****         // Returns error
 1545               		.loc 2 433 25 is_stmt 0 view .LVU437
 1546 0082 6AA1      		ldd r22,Y+34
 1547 0084 CE01      		movw r24,r28
 1548 0086 0E94 0000 		call _ZN9ApiParser10_txAddDataEh
 1549               	.LVL59:
 433:funsape/util/apiParser.cpp ****         // Returns error
 1550               		.loc 2 433 5 view .LVU438
 1551 008a 8823      		tst r24
 1552 008c 01F0      		breq .L79
 437:funsape/util/apiParser.cpp **** 
 1553               		.loc 2 437 5 is_stmt 1 view .LVU439
GAS LISTING C:\Users\kenne\AppData\Local\Temp\ccWhffpB.s 			page 54


 437:funsape/util/apiParser.cpp **** 
 1554               		.loc 2 437 26 is_stmt 0 view .LVU440
 1555 008e 8AA1      		ldd r24,Y+34
 437:funsape/util/apiParser.cpp **** 
 1556               		.loc 2 437 17 view .LVU441
 1557 0090 081B      		sub r16,r24
 1558               	.LVL60:
 440:funsape/util/apiParser.cpp ****         // Returns error
 1559               		.loc 2 440 5 is_stmt 1 view .LVU442
 440:funsape/util/apiParser.cpp ****         // Returns error
 1560               		.loc 2 440 25 is_stmt 0 view .LVU443
 1561 0092 69A1      		ldd r22,Y+33
 1562 0094 CE01      		movw r24,r28
 1563 0096 0E94 0000 		call _ZN9ApiParser10_txAddDataEh
 1564               	.LVL61:
 440:funsape/util/apiParser.cpp ****         // Returns error
 1565               		.loc 2 440 5 view .LVU444
 1566 009a 8823      		tst r24
 1567 009c 01F0      		breq .L79
 444:funsape/util/apiParser.cpp **** 
 1568               		.loc 2 444 5 is_stmt 1 view .LVU445
 444:funsape/util/apiParser.cpp **** 
 1569               		.loc 2 444 26 is_stmt 0 view .LVU446
 1570 009e 89A1      		ldd r24,Y+33
 444:funsape/util/apiParser.cpp **** 
 1571               		.loc 2 444 17 view .LVU447
 1572 00a0 081B      		sub r16,r24
 1573               	.LVL62:
 447:funsape/util/apiParser.cpp ****         if(!this->_txAddData(this->_txDecodedPayloadData[i])) {
 1574               		.loc 2 447 5 is_stmt 1 view .LVU448
 1575               	.LBB34:
 447:funsape/util/apiParser.cpp ****         if(!this->_txAddData(this->_txDecodedPayloadData[i])) {
 1576               		.loc 2 447 17 is_stmt 0 view .LVU449
 1577 00a2 10E0      		ldi r17,0
 1578               	.LVL63:
 1579               	.L84:
 447:funsape/util/apiParser.cpp ****         if(!this->_txAddData(this->_txDecodedPayloadData[i])) {
 1580               		.loc 2 447 26 is_stmt 1 discriminator 1 view .LVU450
 447:funsape/util/apiParser.cpp ****         if(!this->_txAddData(this->_txDecodedPayloadData[i])) {
 1581               		.loc 2 447 34 is_stmt 0 discriminator 1 view .LVU451
 1582 00a4 89A1      		ldd r24,Y+33
 447:funsape/util/apiParser.cpp ****         if(!this->_txAddData(this->_txDecodedPayloadData[i])) {
 1583               		.loc 2 447 26 discriminator 1 view .LVU452
 1584 00a6 1817      		cp r17,r24
 1585 00a8 00F4      		brsh .L87
 448:funsape/util/apiParser.cpp ****             // Returns error
 1586               		.loc 2 448 9 is_stmt 1 view .LVU453
 448:funsape/util/apiParser.cpp ****             // Returns error
 1587               		.loc 2 448 36 is_stmt 0 view .LVU454
 1588 00aa EE8D      		ldd r30,Y+30
 1589 00ac FF8D      		ldd r31,Y+31
 448:funsape/util/apiParser.cpp ****             // Returns error
 1590               		.loc 2 448 58 view .LVU455
 1591 00ae E12E      		mov r14,r17
 1592 00b0 F12C      		mov r15,__zero_reg__
 448:funsape/util/apiParser.cpp ****             // Returns error
 1593               		.loc 2 448 59 view .LVU456
GAS LISTING C:\Users\kenne\AppData\Local\Temp\ccWhffpB.s 			page 55


 1594 00b2 EE0D      		add r30,r14
 1595 00b4 FF1D      		adc r31,r15
 448:funsape/util/apiParser.cpp ****             // Returns error
 1596               		.loc 2 448 29 view .LVU457
 1597 00b6 6081      		ld r22,Z
 1598 00b8 CE01      		movw r24,r28
 1599 00ba 0E94 0000 		call _ZN9ApiParser10_txAddDataEh
 1600               	.LVL64:
 448:funsape/util/apiParser.cpp ****             // Returns error
 1601               		.loc 2 448 9 view .LVU458
 1602 00be 8823      		tst r24
 1603 00c0 01F4      		brne .+2
 1604 00c2 00C0      		rjmp .L79
 452:funsape/util/apiParser.cpp ****     }
 1605               		.loc 2 452 9 is_stmt 1 discriminator 2 view .LVU459
 452:funsape/util/apiParser.cpp ****     }
 1606               		.loc 2 452 30 is_stmt 0 discriminator 2 view .LVU460
 1607 00c4 EE8D      		ldd r30,Y+30
 1608 00c6 FF8D      		ldd r31,Y+31
 452:funsape/util/apiParser.cpp ****     }
 1609               		.loc 2 452 53 discriminator 2 view .LVU461
 1610 00c8 EE0D      		add r30,r14
 1611 00ca FF1D      		adc r31,r15
 1612 00cc 8081      		ld r24,Z
 452:funsape/util/apiParser.cpp ****     }
 1613               		.loc 2 452 21 discriminator 2 view .LVU462
 1614 00ce 081B      		sub r16,r24
 1615               	.LVL65:
 447:funsape/util/apiParser.cpp ****         if(!this->_txAddData(this->_txDecodedPayloadData[i])) {
 1616               		.loc 2 447 5 is_stmt 1 discriminator 2 view .LVU463
 1617 00d0 1F5F      		subi r17,lo8(-(1))
 1618               	.LVL66:
 447:funsape/util/apiParser.cpp ****         if(!this->_txAddData(this->_txDecodedPayloadData[i])) {
 1619               		.loc 2 447 5 is_stmt 0 discriminator 2 view .LVU464
 1620 00d2 00C0      		rjmp .L84
 1621               	.LVL67:
 1622               	.L86:
 447:funsape/util/apiParser.cpp ****         if(!this->_txAddData(this->_txDecodedPayloadData[i])) {
 1623               		.loc 2 447 5 discriminator 2 view .LVU465
 1624               	.LBE34:
 422:funsape/util/apiParser.cpp ****     }
 1625               		.loc 2 422 28 view .LVU466
 1626 00d4 81E0      		ldi r24,lo8(1)
 1627 00d6 00C0      		rjmp .L83
 1628               	.LVL68:
 1629               	.L87:
 456:funsape/util/apiParser.cpp ****         // Returns error
 1630               		.loc 2 456 5 is_stmt 1 view .LVU467
 456:funsape/util/apiParser.cpp ****         // Returns error
 1631               		.loc 2 456 25 is_stmt 0 view .LVU468
 1632 00d8 602F      		mov r22,r16
 1633 00da CE01      		movw r24,r28
 1634 00dc 0E94 0000 		call _ZN9ApiParser10_txAddDataEh
 1635               	.LVL69:
 456:funsape/util/apiParser.cpp ****         // Returns error
 1636               		.loc 2 456 5 view .LVU469
 1637 00e0 8823      		tst r24
GAS LISTING C:\Users\kenne\AppData\Local\Temp\ccWhffpB.s 			page 56


 1638 00e2 01F4      		brne .+2
 1639 00e4 00C0      		rjmp .L79
 462:funsape/util/apiParser.cpp **** 
 1640               		.loc 2 462 5 is_stmt 1 view .LVU470
 462:funsape/util/apiParser.cpp **** 
 1641               		.loc 2 462 30 is_stmt 0 view .LVU471
 1642 00e6 9889      		ldd r25,Y+16
 1643 00e8 2989      		ldd r18,Y+17
 1644 00ea 2370      		andi r18,lo8(3)
 462:funsape/util/apiParser.cpp **** 
 1645               		.loc 2 462 22 view .LVU472
 1646 00ec 392F      		mov r19,r25
 1647 00ee 330F      		lsl r19
 1648 00f0 330F      		lsl r19
 1649 00f2 322B      		or r19,r18
 1650 00f4 398B      		std Y+17,r19
 1651 00f6 9295      		swap r25
 1652 00f8 9695      		lsr r25
 1653 00fa 9695      		lsr r25
 1654 00fc 9370      		andi r25,lo8(3)
 1655 00fe 3A89      		ldd r19,Y+18
 1656 0100 3C7F      		andi r19,lo8(-4)
 1657 0102 932B      		or r25,r19
 1658 0104 9A8B      		std Y+18,r25
 1659 0106 220F      		lsl r18
 1660 0108 220F      		lsl r18
 1661 010a 937F      		andi r25,lo8(-13)
 1662 010c 292B      		or r18,r25
 1663 010e 2A8B      		std Y+18,r18
 465:funsape/util/apiParser.cpp ****     return true;
 1664               		.loc 2 465 5 is_stmt 1 view .LVU473
 465:funsape/util/apiParser.cpp ****     return true;
 1665               		.loc 2 465 22 is_stmt 0 view .LVU474
 1666 0110 1A82      		std Y+2,__zero_reg__
 1667 0112 1982      		std Y+1,__zero_reg__
 466:funsape/util/apiParser.cpp **** }
 1668               		.loc 2 466 5 is_stmt 1 view .LVU475
 466:funsape/util/apiParser.cpp **** }
 1669               		.loc 2 466 12 is_stmt 0 view .LVU476
 1670 0114 00C0      		rjmp .L79
 1671               		.cfi_endproc
 1672               	.LFE53:
 1674               		.section	.text._ZN9ApiParser15txCreatePackageEPhPjj,"ax",@progbits
 1675               	.global	_ZN9ApiParser15txCreatePackageEPhPjj
 1677               	_ZN9ApiParser15txCreatePackageEPhPjj:
 1678               	.LVL70:
 1679               	.LFB41:
 110:funsape/util/apiParser.cpp ****     // Checks for errors
 1680               		.loc 2 110 1 is_stmt 1 view -0
 1681               		.cfi_startproc
 110:funsape/util/apiParser.cpp ****     // Checks for errors
 1682               		.loc 2 110 1 is_stmt 0 view .LVU478
 1683 0000 CF92      		push r12
 1684               		.cfi_def_cfa_offset 3
 1685               		.cfi_offset 12, -2
 1686 0002 DF92      		push r13
 1687               		.cfi_def_cfa_offset 4
GAS LISTING C:\Users\kenne\AppData\Local\Temp\ccWhffpB.s 			page 57


 1688               		.cfi_offset 13, -3
 1689 0004 EF92      		push r14
 1690               		.cfi_def_cfa_offset 5
 1691               		.cfi_offset 14, -4
 1692 0006 FF92      		push r15
 1693               		.cfi_def_cfa_offset 6
 1694               		.cfi_offset 15, -5
 1695 0008 0F93      		push r16
 1696               		.cfi_def_cfa_offset 7
 1697               		.cfi_offset 16, -6
 1698 000a 1F93      		push r17
 1699               		.cfi_def_cfa_offset 8
 1700               		.cfi_offset 17, -7
 1701 000c CF93      		push r28
 1702               		.cfi_def_cfa_offset 9
 1703               		.cfi_offset 28, -8
 1704 000e DF93      		push r29
 1705               		.cfi_def_cfa_offset 10
 1706               		.cfi_offset 29, -9
 1707               	/* prologue: function */
 1708               	/* frame size = 0 */
 1709               	/* stack size = 8 */
 1710               	.L__stack_usage = 8
 1711 0010 C82F      		mov r28,r24
 1712 0012 D92F      		mov r29,r25
 1713 0014 062F      		mov r16,r22
 1714 0016 172F      		mov r17,r23
 1715 0018 E42E      		mov r14,r20
 1716 001a F52E      		mov r15,r21
 1717 001c C22E      		mov r12,r18
 1718 001e D32E      		mov r13,r19
 112:funsape/util/apiParser.cpp ****         // Returns error
 1719               		.loc 2 112 5 is_stmt 1 view .LVU479
 112:funsape/util/apiParser.cpp ****         // Returns error
 1720               		.loc 2 112 15 is_stmt 0 view .LVU480
 1721 0020 8881      		ld r24,Y
 1722               	.LVL71:
 112:funsape/util/apiParser.cpp ****         // Returns error
 1723               		.loc 2 112 15 view .LVU481
 1724 0022 8170      		andi r24,1
 112:funsape/util/apiParser.cpp ****         // Returns error
 1725               		.loc 2 112 5 view .LVU482
 1726 0024 8823      		tst r24
 1727 0026 01F0      		breq .L97
 117:funsape/util/apiParser.cpp ****         // Returns error
 1728               		.loc 2 117 5 is_stmt 1 view .LVU483
 1729 0028 0115      		cp r16,__zero_reg__
 1730 002a 1105      		cpc r17,__zero_reg__
 1731 002c 01F4      		brne .+2
 1732 002e 00C0      		rjmp .L91
 117:funsape/util/apiParser.cpp ****         // Returns error
 1733               		.loc 2 117 41 is_stmt 0 discriminator 1 view .LVU484
 1734 0030 E114      		cp r14,__zero_reg__
 1735 0032 F104      		cpc r15,__zero_reg__
 1736 0034 01F4      		brne .+2
 1737 0036 00C0      		rjmp .L91
 124:funsape/util/apiParser.cpp ****     this->_txRawSize = 0;
GAS LISTING C:\Users\kenne\AppData\Local\Temp\ccWhffpB.s 			page 58


 1738               		.loc 2 124 5 is_stmt 1 view .LVU485
 124:funsape/util/apiParser.cpp ****     this->_txRawSize = 0;
 1739               		.loc 2 124 23 is_stmt 0 view .LVU486
 1740 0038 188A      		std Y+16,__zero_reg__
 1741 003a 8989      		ldd r24,Y+17
 1742 003c 8C7F      		andi r24,lo8(-4)
 1743 003e 898B      		std Y+17,r24
 125:funsape/util/apiParser.cpp **** 
 1744               		.loc 2 125 5 is_stmt 1 view .LVU487
 125:funsape/util/apiParser.cpp **** 
 1745               		.loc 2 125 22 is_stmt 0 view .LVU488
 1746 0040 198A      		std Y+17,__zero_reg__
 1747 0042 8A89      		ldd r24,Y+18
 1748 0044 982F      		mov r25,r24
 1749 0046 9C7F      		andi r25,lo8(-4)
 1750 0048 9A8B      		std Y+18,r25
 1751 004a 807F      		andi r24,lo8(-16)
 1752 004c 8A8B      		std Y+18,r24
 128:funsape/util/apiParser.cpp ****         // Returns error
 1753               		.loc 2 128 5 is_stmt 1 view .LVU489
 128:funsape/util/apiParser.cpp ****         // Returns error
 1754               		.loc 2 128 31 is_stmt 0 view .LVU490
 1755 004e CE01      		movw r24,r28
 1756 0050 0E94 0000 		call _ZN9ApiParser16_txEncodePackageEv
 1757               	.LVL72:
 128:funsape/util/apiParser.cpp ****         // Returns error
 1758               		.loc 2 128 5 view .LVU491
 1759 0054 8823      		tst r24
 1760 0056 01F0      		breq .L88
 1761               	.LBB35:
 134:funsape/util/apiParser.cpp ****         if(i == maxChars_p) {
 1762               		.loc 2 134 18 view .LVU492
 1763 0058 20E0      		ldi r18,0
 1764 005a 30E0      		ldi r19,0
 1765               	.L93:
 1766               	.LVL73:
 134:funsape/util/apiParser.cpp ****         if(i == maxChars_p) {
 1767               		.loc 2 134 27 is_stmt 1 discriminator 1 view .LVU493
 134:funsape/util/apiParser.cpp ****         if(i == maxChars_p) {
 1768               		.loc 2 134 35 is_stmt 0 discriminator 1 view .LVU494
 1769 005c 6989      		ldd r22,Y+17
 1770 005e 6695      		lsr r22
 1771 0060 6695      		lsr r22
 1772 0062 9A89      		ldd r25,Y+18
 1773 0064 792F      		mov r23,r25
 1774 0066 7295      		swap r23
 1775 0068 770F      		lsl r23
 1776 006a 770F      		lsl r23
 1777 006c 707C      		andi r23,lo8(-64)
 1778 006e 472F      		mov r20,r23
 1779 0070 462B      		or r20,r22
 1780 0072 9695      		lsr r25
 1781 0074 9695      		lsr r25
 1782 0076 592F      		mov r21,r25
 1783 0078 5370      		andi r21,lo8(3)
 134:funsape/util/apiParser.cpp ****         if(i == maxChars_p) {
 1784               		.loc 2 134 27 discriminator 1 view .LVU495
GAS LISTING C:\Users\kenne\AppData\Local\Temp\ccWhffpB.s 			page 59


 1785 007a 2417      		cp r18,r20
 1786 007c 3507      		cpc r19,r21
 1787 007e 00F4      		brsh .L98
 135:funsape/util/apiParser.cpp ****             // Returns error
 1788               		.loc 2 135 9 is_stmt 1 view .LVU496
 1789 0080 2C15      		cp r18,r12
 1790 0082 3D05      		cpc r19,r13
 1791 0084 01F0      		breq .L99
 140:funsape/util/apiParser.cpp ****     }
 1792               		.loc 2 140 9 discriminator 2 view .LVU497
 140:funsape/util/apiParser.cpp ****     }
 1793               		.loc 2 140 34 is_stmt 0 discriminator 2 view .LVU498
 1794 0086 EE85      		ldd r30,Y+14
 1795 0088 FF85      		ldd r31,Y+15
 140:funsape/util/apiParser.cpp ****     }
 1796               		.loc 2 140 24 discriminator 2 view .LVU499
 1797 008a D801      		movw r26,r16
 1798 008c A20F      		add r26,r18
 1799 008e B31F      		adc r27,r19
 140:funsape/util/apiParser.cpp ****     }
 1800               		.loc 2 140 46 discriminator 2 view .LVU500
 1801 0090 E20F      		add r30,r18
 1802 0092 F31F      		adc r31,r19
 1803 0094 9081      		ld r25,Z
 140:funsape/util/apiParser.cpp ****     }
 1804               		.loc 2 140 26 discriminator 2 view .LVU501
 1805 0096 9C93      		st X,r25
 134:funsape/util/apiParser.cpp ****         if(i == maxChars_p) {
 1806               		.loc 2 134 5 is_stmt 1 discriminator 2 view .LVU502
 1807 0098 2F5F      		subi r18,-1
 1808 009a 3F4F      		sbci r19,-1
 1809               	.LVL74:
 134:funsape/util/apiParser.cpp ****         if(i == maxChars_p) {
 1810               		.loc 2 134 5 is_stmt 0 discriminator 2 view .LVU503
 1811 009c 00C0      		rjmp .L93
 1812               	.LVL75:
 1813               	.L97:
 134:funsape/util/apiParser.cpp ****         if(i == maxChars_p) {
 1814               		.loc 2 134 5 discriminator 2 view .LVU504
 1815               	.LBE35:
 114:funsape/util/apiParser.cpp ****         return false;
 1816               		.loc 2 114 9 is_stmt 1 view .LVU505
 114:funsape/util/apiParser.cpp ****         return false;
 1817               		.loc 2 114 26 is_stmt 0 view .LVU506
 1818 009e 24E0      		ldi r18,lo8(4)
 1819 00a0 30E0      		ldi r19,0
 1820               	.LVL76:
 114:funsape/util/apiParser.cpp ****         return false;
 1821               		.loc 2 114 26 view .LVU507
 1822 00a2 3A83      		std Y+2,r19
 1823 00a4 2983      		std Y+1,r18
 115:funsape/util/apiParser.cpp ****     }
 1824               		.loc 2 115 9 is_stmt 1 view .LVU508
 1825               	.LVL77:
 1826               	.L88:
 1827               	/* epilogue start */
 147:funsape/util/apiParser.cpp **** 
GAS LISTING C:\Users\kenne\AppData\Local\Temp\ccWhffpB.s 			page 60


 1828               		.loc 2 147 1 is_stmt 0 view .LVU509
 1829 00a6 DF91      		pop r29
 1830 00a8 CF91      		pop r28
 1831 00aa 1F91      		pop r17
 1832 00ac 0F91      		pop r16
 1833 00ae FF90      		pop r15
 1834 00b0 EF90      		pop r14
 1835 00b2 DF90      		pop r13
 1836 00b4 CF90      		pop r12
 1837 00b6 0895      		ret
 1838               	.LVL78:
 1839               	.L91:
 119:funsape/util/apiParser.cpp ****         return false;
 1840               		.loc 2 119 9 is_stmt 1 view .LVU510
 119:funsape/util/apiParser.cpp ****         return false;
 1841               		.loc 2 119 26 is_stmt 0 view .LVU511
 1842 00b8 81E1      		ldi r24,lo8(17)
 1843 00ba 90E0      		ldi r25,0
 1844 00bc 9A83      		std Y+2,r25
 1845 00be 8983      		std Y+1,r24
 120:funsape/util/apiParser.cpp ****     }
 1846               		.loc 2 120 9 is_stmt 1 view .LVU512
 120:funsape/util/apiParser.cpp ****     }
 1847               		.loc 2 120 16 is_stmt 0 view .LVU513
 1848 00c0 80E0      		ldi r24,0
 1849 00c2 00C0      		rjmp .L88
 1850               	.LVL79:
 1851               	.L99:
 1852               	.LBB36:
 137:funsape/util/apiParser.cpp ****             return false;
 1853               		.loc 2 137 13 is_stmt 1 view .LVU514
 137:funsape/util/apiParser.cpp ****             return false;
 1854               		.loc 2 137 30 is_stmt 0 view .LVU515
 1855 00c4 81E2      		ldi r24,lo8(33)
 1856 00c6 90E0      		ldi r25,0
 1857 00c8 9A83      		std Y+2,r25
 1858 00ca 8983      		std Y+1,r24
 138:funsape/util/apiParser.cpp ****         }
 1859               		.loc 2 138 13 is_stmt 1 view .LVU516
 138:funsape/util/apiParser.cpp ****         }
 1860               		.loc 2 138 20 is_stmt 0 view .LVU517
 1861 00cc 80E0      		ldi r24,0
 1862 00ce 00C0      		rjmp .L88
 1863               	.L98:
 1864               	.LBE36:
 142:funsape/util/apiParser.cpp **** 
 1865               		.loc 2 142 5 is_stmt 1 view .LVU518
 142:funsape/util/apiParser.cpp **** 
 1866               		.loc 2 142 20 is_stmt 0 view .LVU519
 1867 00d0 F701      		movw r30,r14
 1868 00d2 5183      		std Z+1,r21
 1869 00d4 4083      		st Z,r20
 145:funsape/util/apiParser.cpp ****     return true;
 1870               		.loc 2 145 5 is_stmt 1 view .LVU520
 145:funsape/util/apiParser.cpp ****     return true;
 1871               		.loc 2 145 22 is_stmt 0 view .LVU521
 1872 00d6 1A82      		std Y+2,__zero_reg__
GAS LISTING C:\Users\kenne\AppData\Local\Temp\ccWhffpB.s 			page 61


 1873 00d8 1982      		std Y+1,__zero_reg__
 146:funsape/util/apiParser.cpp **** }
 1874               		.loc 2 146 5 is_stmt 1 view .LVU522
 146:funsape/util/apiParser.cpp **** }
 1875               		.loc 2 146 12 is_stmt 0 view .LVU523
 1876 00da 00C0      		rjmp .L88
 1877               		.cfi_endproc
 1878               	.LFE41:
 1880               		.section	.text._ZN9ApiParser15_rxResetPackageEv,"ax",@progbits
 1881               	.global	_ZN9ApiParser15_rxResetPackageEv
 1883               	_ZN9ApiParser15_rxResetPackageEv:
 1884               	.LVL80:
 1885               	.LFB59:
 500:funsape/util/apiParser.cpp **** 
 501:funsape/util/apiParser.cpp **** bool_t ApiParser::_rxProcessEscapeCharacter(void)
 502:funsape/util/apiParser.cpp **** {
 503:funsape/util/apiParser.cpp ****     // Escape character is not in use!
 504:funsape/util/apiParser.cpp ****     if(!this->_useEscapeChar) {
 505:funsape/util/apiParser.cpp ****         // Returns successfully
 506:funsape/util/apiParser.cpp ****         this->_lastError = Error::NONE;
 507:funsape/util/apiParser.cpp ****         return true;
 508:funsape/util/apiParser.cpp ****     }
 509:funsape/util/apiParser.cpp **** 
 510:funsape/util/apiParser.cpp ****     // Escape character found!
 511:funsape/util/apiParser.cpp ****     if(this->_rxDecodedAuxData == 0x7D) {
 512:funsape/util/apiParser.cpp ****         // Check for error
 513:funsape/util/apiParser.cpp ****         if(this->_rxRawEscape) {        // Last character was an escape!
 514:funsape/util/apiParser.cpp ****             // Resets package
 515:funsape/util/apiParser.cpp ****             this->_rxResetPackage();
 516:funsape/util/apiParser.cpp ****             // Returns error
 517:funsape/util/apiParser.cpp ****             this->_lastError = Error::FRAME_ERROR;
 518:funsape/util/apiParser.cpp ****             return false;
 519:funsape/util/apiParser.cpp ****         }
 520:funsape/util/apiParser.cpp ****         // Mark as escape character
 521:funsape/util/apiParser.cpp ****         this->_rxRawEscape = true;
 522:funsape/util/apiParser.cpp ****         this->_rxProcessRawAddData();
 523:funsape/util/apiParser.cpp ****         // Procedure was successful but, must indicate that the
 524:funsape/util/apiParser.cpp ****         // function should end, because no next state must be
 525:funsape/util/apiParser.cpp ****         // evaluated and no further data must be added to buffers
 526:funsape/util/apiParser.cpp ****         // So, Error::NONE and false must be checked at caller function
 527:funsape/util/apiParser.cpp ****         this->_lastError = Error::NONE;
 528:funsape/util/apiParser.cpp ****         return false;
 529:funsape/util/apiParser.cpp ****     }
 530:funsape/util/apiParser.cpp **** 
 531:funsape/util/apiParser.cpp ****     // Checks for misplaced start delimiter
 532:funsape/util/apiParser.cpp ****     if(this->_rxDecodedAuxData == constStartDelimiter) {
 533:funsape/util/apiParser.cpp ****         if(this->_rxRawState != State::START_DELIMITER) {
 534:funsape/util/apiParser.cpp ****             // Start delimiter must not happen outside State::START_DELIMITER
 535:funsape/util/apiParser.cpp ****             this->_rxResetPackage();
 536:funsape/util/apiParser.cpp ****             this->_lastError = Error::FRAME_ERROR;
 537:funsape/util/apiParser.cpp ****             return false;
 538:funsape/util/apiParser.cpp ****         }
 539:funsape/util/apiParser.cpp ****     }
 540:funsape/util/apiParser.cpp **** 
 541:funsape/util/apiParser.cpp ****     // Normal character found!
 542:funsape/util/apiParser.cpp ****     if(this->_rxRawEscape) {         // It must be escaped?
 543:funsape/util/apiParser.cpp ****         this->_rxDecodedAuxData ^= 0x20;
GAS LISTING C:\Users\kenne\AppData\Local\Temp\ccWhffpB.s 			page 62


 544:funsape/util/apiParser.cpp ****         this->_rxRawEscape = false;
 545:funsape/util/apiParser.cpp ****     }
 546:funsape/util/apiParser.cpp **** 
 547:funsape/util/apiParser.cpp ****     // Returns successfully
 548:funsape/util/apiParser.cpp ****     this->_lastError = Error::NONE;
 549:funsape/util/apiParser.cpp ****     return true;
 550:funsape/util/apiParser.cpp **** }
 551:funsape/util/apiParser.cpp **** 
 552:funsape/util/apiParser.cpp **** bool_t ApiParser::_rxProcessFrameFormat(void)
 553:funsape/util/apiParser.cpp **** {
 554:funsape/util/apiParser.cpp ****     switch(this->_rxRawState) {
 555:funsape/util/apiParser.cpp ****     case State::START_DELIMITER:
 556:funsape/util/apiParser.cpp ****         if(this->_rxDecodedAuxData != constStartDelimiter) {
 557:funsape/util/apiParser.cpp ****             this->_lastError = Error::FRAME_ERROR;
 558:funsape/util/apiParser.cpp ****             this->_rxResetPackage();
 559:funsape/util/apiParser.cpp ****             return false;
 560:funsape/util/apiParser.cpp ****         }
 561:funsape/util/apiParser.cpp ****         break;
 562:funsape/util/apiParser.cpp ****     case State::PAYLOAD_SIZE:
 563:funsape/util/apiParser.cpp ****         if(this->_rxDecodedAuxData == 0) {
 564:funsape/util/apiParser.cpp ****             this->_lastError = Error::FRAME_ERROR;
 565:funsape/util/apiParser.cpp ****             this->_rxResetPackage();
 566:funsape/util/apiParser.cpp ****             return false;
 567:funsape/util/apiParser.cpp ****         }
 568:funsape/util/apiParser.cpp ****         break;
 569:funsape/util/apiParser.cpp ****     case State::PAYLOAD_DATA:
 570:funsape/util/apiParser.cpp ****         if((this->_rxDecodedPayloadIndex + 1) == this->_payloadMaxSize) {
 571:funsape/util/apiParser.cpp ****             this->_rxResetPackage();
 572:funsape/util/apiParser.cpp ****             this->_lastError = Error::BUFFER_FULL;
 573:funsape/util/apiParser.cpp ****             return false;
 574:funsape/util/apiParser.cpp ****         }
 575:funsape/util/apiParser.cpp ****         break;
 576:funsape/util/apiParser.cpp ****     case State::CHECKSUM:
 577:funsape/util/apiParser.cpp ****         if(this->_rxDecodedAuxData != this->_rxRawChecksum) {    // Checksum error
 578:funsape/util/apiParser.cpp ****             this->_rxResetPackage();
 579:funsape/util/apiParser.cpp ****             this->_lastError = Error::CHECKSUM_ERROR;
 580:funsape/util/apiParser.cpp ****             return false;
 581:funsape/util/apiParser.cpp ****         }
 582:funsape/util/apiParser.cpp ****     default:
 583:funsape/util/apiParser.cpp ****         break;
 584:funsape/util/apiParser.cpp ****     }
 585:funsape/util/apiParser.cpp **** 
 586:funsape/util/apiParser.cpp ****     // Everything OK
 587:funsape/util/apiParser.cpp ****     this->_lastError = Error::NONE;
 588:funsape/util/apiParser.cpp ****     return true;
 589:funsape/util/apiParser.cpp **** }
 590:funsape/util/apiParser.cpp **** 
 591:funsape/util/apiParser.cpp **** bool_t ApiParser::_rxProcessNextState(void)
 592:funsape/util/apiParser.cpp **** {
 593:funsape/util/apiParser.cpp ****     if(this->_rxRawEscape) {
 594:funsape/util/apiParser.cpp ****         return true;
 595:funsape/util/apiParser.cpp ****     }
 596:funsape/util/apiParser.cpp **** 
 597:funsape/util/apiParser.cpp ****     switch(this->_rxRawState) {
 598:funsape/util/apiParser.cpp ****     case State::START_DELIMITER:
 599:funsape/util/apiParser.cpp ****         this->_rxRawChecksum = 0xFF;
 600:funsape/util/apiParser.cpp ****         this->_rxRawState++;
GAS LISTING C:\Users\kenne\AppData\Local\Temp\ccWhffpB.s 			page 63


 601:funsape/util/apiParser.cpp ****         break;
 602:funsape/util/apiParser.cpp ****     case State::ID:
 603:funsape/util/apiParser.cpp ****         this->_rxDecodedId = this->_rxDecodedAuxData;
 604:funsape/util/apiParser.cpp ****         this->_rxRawChecksum -= this->_rxDecodedAuxData;
 605:funsape/util/apiParser.cpp ****         this->_rxRawState++;
 606:funsape/util/apiParser.cpp ****         break;
 607:funsape/util/apiParser.cpp ****     case State::DESTINATION_ADDRESS:
 608:funsape/util/apiParser.cpp ****         this->_rxDecodedDestinyAddress = this->_rxDecodedAuxData;
 609:funsape/util/apiParser.cpp ****         this->_rxRawChecksum -= this->_rxDecodedAuxData;
 610:funsape/util/apiParser.cpp ****         this->_rxRawState++;
 611:funsape/util/apiParser.cpp ****         break;
 612:funsape/util/apiParser.cpp ****     case State::SOURCE_ADDRESS:
 613:funsape/util/apiParser.cpp ****         this->_rxDecodedSourceAddress = this->_rxDecodedAuxData;
 614:funsape/util/apiParser.cpp ****         this->_rxRawChecksum -= this->_rxDecodedAuxData;
 615:funsape/util/apiParser.cpp ****         this->_rxRawState++;
 616:funsape/util/apiParser.cpp ****         break;
 617:funsape/util/apiParser.cpp ****     case State::PAYLOAD_SIZE:
 618:funsape/util/apiParser.cpp ****         this->_rxDecodedPayloadIndex = 0;
 619:funsape/util/apiParser.cpp ****         this->_rxDecodedPayloadSize = this->_rxDecodedAuxData;
 620:funsape/util/apiParser.cpp ****         this->_rxRawChecksum -= this->_rxDecodedAuxData;
 621:funsape/util/apiParser.cpp ****         this->_rxRawState++;
 622:funsape/util/apiParser.cpp ****         break;
 623:funsape/util/apiParser.cpp ****     case State::PAYLOAD_DATA:
 624:funsape/util/apiParser.cpp ****         this->_rxDecodedPayloadData[this->_rxDecodedPayloadIndex++] = this->_rxDecodedAuxData;
 625:funsape/util/apiParser.cpp ****         this->_rxRawChecksum -= this->_rxDecodedAuxData;
 626:funsape/util/apiParser.cpp ****         if(this->_rxDecodedPayloadIndex == this->_rxDecodedPayloadSize) {
 627:funsape/util/apiParser.cpp ****             this->_rxRawState++;
 628:funsape/util/apiParser.cpp ****         }
 629:funsape/util/apiParser.cpp ****         break;
 630:funsape/util/apiParser.cpp ****     case State::CHECKSUM:
 631:funsape/util/apiParser.cpp ****         this->_rxRawReady = true;
 632:funsape/util/apiParser.cpp ****         this->_rxRawSize = this->_rxRawIndex;
 633:funsape/util/apiParser.cpp ****         this->_rxRawState = State::READY;
 634:funsape/util/apiParser.cpp ****         break;
 635:funsape/util/apiParser.cpp ****     default:
 636:funsape/util/apiParser.cpp ****         // Unreachable code area
 637:funsape/util/apiParser.cpp ****         this->_rxResetPackage();
 638:funsape/util/apiParser.cpp ****         this->_lastError = Error::UNKNOWN;
 639:funsape/util/apiParser.cpp ****         return false;
 640:funsape/util/apiParser.cpp ****     }
 641:funsape/util/apiParser.cpp **** 
 642:funsape/util/apiParser.cpp ****     // Returns successfully
 643:funsape/util/apiParser.cpp ****     this->_lastError = Error::NONE;
 644:funsape/util/apiParser.cpp ****     return true;
 645:funsape/util/apiParser.cpp **** }
 646:funsape/util/apiParser.cpp **** 
 647:funsape/util/apiParser.cpp **** bool_t ApiParser::_rxProcessRawAddData(void)
 648:funsape/util/apiParser.cpp **** {
 649:funsape/util/apiParser.cpp ****     if((this->_rxRawIndex + 1) == this->_rawMaxSize) {
 650:funsape/util/apiParser.cpp ****         // Resets package
 651:funsape/util/apiParser.cpp ****         this->_rxResetPackage();
 652:funsape/util/apiParser.cpp ****         // Returns error
 653:funsape/util/apiParser.cpp ****         this->_lastError = Error::BUFFER_FULL;
 654:funsape/util/apiParser.cpp ****         return false;
 655:funsape/util/apiParser.cpp ****     }
 656:funsape/util/apiParser.cpp **** 
 657:funsape/util/apiParser.cpp ****     // Updates data members
GAS LISTING C:\Users\kenne\AppData\Local\Temp\ccWhffpB.s 			page 64


 658:funsape/util/apiParser.cpp ****     this->_rxRawData[this->_rxRawIndex++] = this->_rxDecodedAuxData;
 659:funsape/util/apiParser.cpp **** 
 660:funsape/util/apiParser.cpp ****     // Returns successfully
 661:funsape/util/apiParser.cpp ****     this->_lastError = Error::NONE;
 662:funsape/util/apiParser.cpp ****     return true;
 663:funsape/util/apiParser.cpp **** }
 664:funsape/util/apiParser.cpp **** 
 665:funsape/util/apiParser.cpp **** void ApiParser::_rxResetPackage(void)
 666:funsape/util/apiParser.cpp **** {
 1886               		.loc 2 666 1 is_stmt 1 view -0
 1887               		.cfi_startproc
 1888               	/* prologue: function */
 1889               	/* frame size = 0 */
 1890               	/* stack size = 0 */
 1891               	.L__stack_usage = 0
 1892               		.loc 2 666 1 is_stmt 0 view .LVU525
 1893 0000 E82F      		mov r30,r24
 1894 0002 F92F      		mov r31,r25
 667:funsape/util/apiParser.cpp ****     // Resets package
 668:funsape/util/apiParser.cpp ****     this->_rxDecodedPayloadSize = 0;
 1895               		.loc 2 668 5 is_stmt 1 view .LVU526
 1896               		.loc 2 668 33 is_stmt 0 view .LVU527
 1897 0004 118E      		std Z+25,__zero_reg__
 669:funsape/util/apiParser.cpp ****     this->_rxDecodedPayloadIndex = 0;
 1898               		.loc 2 669 5 is_stmt 1 view .LVU528
 1899               		.loc 2 669 34 is_stmt 0 view .LVU529
 1900 0006 108E      		std Z+24,__zero_reg__
 670:funsape/util/apiParser.cpp ****     this->_rxRawChecksum = 0xFF;
 1901               		.loc 2 670 5 is_stmt 1 view .LVU530
 1902               		.loc 2 670 26 is_stmt 0 view .LVU531
 1903 0008 8FEF      		ldi r24,lo8(-1)
 1904               	.LVL81:
 1905               		.loc 2 670 26 view .LVU532
 1906 000a 8683      		std Z+6,r24
 671:funsape/util/apiParser.cpp ****     this->_rxRawSize = 0;
 1907               		.loc 2 671 5 is_stmt 1 view .LVU533
 1908               		.loc 2 671 22 is_stmt 0 view .LVU534
 1909 000c 8285      		ldd r24,Z+10
 1910 000e 982F      		mov r25,r24
 1911 0010 9F70      		andi r25,lo8(15)
 1912 0012 9287      		std Z+10,r25
 1913 0014 9385      		ldd r25,Z+11
 1914 0016 292F      		mov r18,r25
 1915 0018 207F      		andi r18,lo8(-16)
 1916 001a 2387      		std Z+11,r18
 1917 001c 907C      		andi r25,lo8(-64)
 1918 001e 9387      		std Z+11,r25
 672:funsape/util/apiParser.cpp ****     this->_rxRawIndex = 0;
 1919               		.loc 2 672 5 is_stmt 1 view .LVU535
 1920               		.loc 2 672 23 is_stmt 0 view .LVU536
 1921 0020 9185      		ldd r25,Z+9
 1922 0022 9170      		andi r25,lo8(1)
 1923 0024 9187      		std Z+9,r25
 1924 0026 982F      		mov r25,r24
 1925 0028 9E70      		andi r25,lo8(14)
 1926 002a 9287      		std Z+10,r25
 1927 002c 8870      		andi r24,lo8(8)
GAS LISTING C:\Users\kenne\AppData\Local\Temp\ccWhffpB.s 			page 65


 1928 002e 8287      		std Z+10,r24
 673:funsape/util/apiParser.cpp ****     this->_rxRawReady = false;
 1929               		.loc 2 673 5 is_stmt 1 view .LVU537
 1930               		.loc 2 673 23 is_stmt 0 view .LVU538
 1931 0030 1286      		std Z+10,__zero_reg__
 674:funsape/util/apiParser.cpp ****     this->_rxRawState = State::START_DELIMITER;
 1932               		.loc 2 674 5 is_stmt 1 view .LVU539
 1933               		.loc 2 674 23 is_stmt 0 view .LVU540
 1934 0032 1586      		std Z+13,__zero_reg__
 1935 0034 1486      		std Z+12,__zero_reg__
 675:funsape/util/apiParser.cpp ****     this->_rxRawEscape = false;
 1936               		.loc 2 675 5 is_stmt 1 view .LVU541
 1937               		.loc 2 675 24 is_stmt 0 view .LVU542
 1938 0036 1186      		std Z+9,__zero_reg__
 1939               	/* epilogue start */
 676:funsape/util/apiParser.cpp **** }
 1940               		.loc 2 676 1 view .LVU543
 1941 0038 0895      		ret
 1942               		.cfi_endproc
 1943               	.LFE59:
 1945               		.section	.text._ZN9ApiParser13rxFreePackageEv,"ax",@progbits
 1946               	.global	_ZN9ApiParser13rxFreePackageEv
 1948               	_ZN9ApiParser13rxFreePackageEv:
 1949               	.LVL82:
 1950               	.LFB47:
 284:funsape/util/apiParser.cpp ****     this->_rxRawReady = false;
 1951               		.loc 2 284 1 is_stmt 1 view -0
 1952               		.cfi_startproc
 1953               	/* prologue: function */
 1954               	/* frame size = 0 */
 1955               	/* stack size = 0 */
 1956               	.L__stack_usage = 0
 284:funsape/util/apiParser.cpp ****     this->_rxRawReady = false;
 1957               		.loc 2 284 1 is_stmt 0 view .LVU545
 1958 0000 E82F      		mov r30,r24
 1959 0002 F92F      		mov r31,r25
 285:funsape/util/apiParser.cpp ****     this->_rxResetPackage();
 1960               		.loc 2 285 5 is_stmt 1 view .LVU546
 285:funsape/util/apiParser.cpp ****     this->_rxResetPackage();
 1961               		.loc 2 285 23 is_stmt 0 view .LVU547
 1962 0004 8285      		ldd r24,Z+10
 1963               	.LVL83:
 285:funsape/util/apiParser.cpp ****     this->_rxResetPackage();
 1964               		.loc 2 285 23 view .LVU548
 1965 0006 877F      		andi r24,lo8(~(1<<3))
 1966 0008 8287      		std Z+10,r24
 286:funsape/util/apiParser.cpp **** }
 1967               		.loc 2 286 5 is_stmt 1 view .LVU549
 286:funsape/util/apiParser.cpp **** }
 1968               		.loc 2 286 26 is_stmt 0 view .LVU550
 1969 000a CF01      		movw r24,r30
 1970 000c 0E94 0000 		call _ZN9ApiParser15_rxResetPackageEv
 1971               	.LVL84:
 1972               	/* epilogue start */
 287:funsape/util/apiParser.cpp **** 
 1973               		.loc 2 287 1 view .LVU551
 1974 0010 0895      		ret
GAS LISTING C:\Users\kenne\AppData\Local\Temp\ccWhffpB.s 			page 66


 1975               		.cfi_endproc
 1976               	.LFE47:
 1978               		.section	.text._ZN9ApiParser21_rxProcessFrameFormatEv,"ax",@progbits
 1979               	.global	_ZN9ApiParser21_rxProcessFrameFormatEv
 1981               	_ZN9ApiParser21_rxProcessFrameFormatEv:
 1982               	.LVL85:
 1983               	.LFB56:
 553:funsape/util/apiParser.cpp ****     switch(this->_rxRawState) {
 1984               		.loc 2 553 1 is_stmt 1 view -0
 1985               		.cfi_startproc
 553:funsape/util/apiParser.cpp ****     switch(this->_rxRawState) {
 1986               		.loc 2 553 1 is_stmt 0 view .LVU553
 1987 0000 CF93      		push r28
 1988               		.cfi_def_cfa_offset 3
 1989               		.cfi_offset 28, -2
 1990 0002 DF93      		push r29
 1991               		.cfi_def_cfa_offset 4
 1992               		.cfi_offset 29, -3
 1993               	/* prologue: function */
 1994               	/* frame size = 0 */
 1995               	/* stack size = 2 */
 1996               	.L__stack_usage = 2
 1997 0004 C82F      		mov r28,r24
 1998 0006 D92F      		mov r29,r25
 554:funsape/util/apiParser.cpp ****     case State::START_DELIMITER:
 1999               		.loc 2 554 5 is_stmt 1 view .LVU554
 554:funsape/util/apiParser.cpp ****     case State::START_DELIMITER:
 2000               		.loc 2 554 18 is_stmt 0 view .LVU555
 2001 0008 8C85      		ldd r24,Y+12
 2002 000a 9D85      		ldd r25,Y+13
 2003               	.LVL86:
 554:funsape/util/apiParser.cpp ****     case State::START_DELIMITER:
 2004               		.loc 2 554 5 view .LVU556
 2005 000c 8530      		cpi r24,5
 2006 000e 9105      		cpc r25,__zero_reg__
 2007 0010 01F0      		breq .L103
 2008 0012 04F4      		brge .L104
 2009 0014 0097      		sbiw r24,0
 2010 0016 01F0      		breq .L105
 2011 0018 0497      		sbiw r24,4
 2012 001a 01F4      		brne .L107
 562:funsape/util/apiParser.cpp ****         if(this->_rxDecodedAuxData == 0) {
 2013               		.loc 2 562 5 is_stmt 1 view .LVU557
 563:funsape/util/apiParser.cpp ****             this->_lastError = Error::FRAME_ERROR;
 2014               		.loc 2 563 9 view .LVU558
 563:funsape/util/apiParser.cpp ****             this->_lastError = Error::FRAME_ERROR;
 2015               		.loc 2 563 18 is_stmt 0 view .LVU559
 2016 001c 8B89      		ldd r24,Y+19
 563:funsape/util/apiParser.cpp ****             this->_lastError = Error::FRAME_ERROR;
 2017               		.loc 2 563 9 view .LVU560
 2018 001e 8111      		cpse r24,__zero_reg__
 2019 0020 00C0      		rjmp .L107
 564:funsape/util/apiParser.cpp ****             this->_rxResetPackage();
 2020               		.loc 2 564 13 is_stmt 1 view .LVU561
 564:funsape/util/apiParser.cpp ****             this->_rxResetPackage();
 2021               		.loc 2 564 30 is_stmt 0 view .LVU562
 2022 0022 86E4      		ldi r24,lo8(70)
GAS LISTING C:\Users\kenne\AppData\Local\Temp\ccWhffpB.s 			page 67


 2023 0024 90E0      		ldi r25,0
 2024 0026 9A83      		std Y+2,r25
 2025 0028 8983      		std Y+1,r24
 565:funsape/util/apiParser.cpp ****             return false;
 2026               		.loc 2 565 13 is_stmt 1 view .LVU563
 565:funsape/util/apiParser.cpp ****             return false;
 2027               		.loc 2 565 34 is_stmt 0 view .LVU564
 2028 002a CE01      		movw r24,r28
 2029 002c 0E94 0000 		call _ZN9ApiParser15_rxResetPackageEv
 2030               	.LVL87:
 566:funsape/util/apiParser.cpp ****         }
 2031               		.loc 2 566 13 is_stmt 1 view .LVU565
 566:funsape/util/apiParser.cpp ****         }
 2032               		.loc 2 566 20 is_stmt 0 view .LVU566
 2033 0030 80E0      		ldi r24,0
 2034 0032 00C0      		rjmp .L102
 2035               	.L104:
 554:funsape/util/apiParser.cpp ****     case State::START_DELIMITER:
 2036               		.loc 2 554 5 view .LVU567
 2037 0034 0697      		sbiw r24,6
 2038 0036 01F4      		brne .L107
 576:funsape/util/apiParser.cpp ****         if(this->_rxDecodedAuxData != this->_rxRawChecksum) {    // Checksum error
 2039               		.loc 2 576 5 is_stmt 1 view .LVU568
 577:funsape/util/apiParser.cpp ****             this->_rxResetPackage();
 2040               		.loc 2 577 9 view .LVU569
 577:funsape/util/apiParser.cpp ****             this->_rxResetPackage();
 2041               		.loc 2 577 18 is_stmt 0 view .LVU570
 2042 0038 9B89      		ldd r25,Y+19
 577:funsape/util/apiParser.cpp ****             this->_rxResetPackage();
 2043               		.loc 2 577 45 view .LVU571
 2044 003a 8E81      		ldd r24,Y+6
 577:funsape/util/apiParser.cpp ****             this->_rxResetPackage();
 2045               		.loc 2 577 9 view .LVU572
 2046 003c 9817      		cp r25,r24
 2047 003e 01F0      		breq .L107
 578:funsape/util/apiParser.cpp ****             this->_lastError = Error::CHECKSUM_ERROR;
 2048               		.loc 2 578 13 is_stmt 1 view .LVU573
 578:funsape/util/apiParser.cpp ****             this->_lastError = Error::CHECKSUM_ERROR;
 2049               		.loc 2 578 34 is_stmt 0 view .LVU574
 2050 0040 CE01      		movw r24,r28
 2051 0042 0E94 0000 		call _ZN9ApiParser15_rxResetPackageEv
 2052               	.LVL88:
 579:funsape/util/apiParser.cpp ****             return false;
 2053               		.loc 2 579 13 is_stmt 1 view .LVU575
 579:funsape/util/apiParser.cpp ****             return false;
 2054               		.loc 2 579 30 is_stmt 0 view .LVU576
 2055 0046 85E4      		ldi r24,lo8(69)
 2056 0048 90E0      		ldi r25,0
 2057 004a 9A83      		std Y+2,r25
 2058 004c 8983      		std Y+1,r24
 580:funsape/util/apiParser.cpp ****         }
 2059               		.loc 2 580 13 is_stmt 1 view .LVU577
 580:funsape/util/apiParser.cpp ****         }
 2060               		.loc 2 580 20 is_stmt 0 view .LVU578
 2061 004e 80E0      		ldi r24,0
 2062 0050 00C0      		rjmp .L102
 2063               	.L105:
GAS LISTING C:\Users\kenne\AppData\Local\Temp\ccWhffpB.s 			page 68


 555:funsape/util/apiParser.cpp ****         if(this->_rxDecodedAuxData != constStartDelimiter) {
 2064               		.loc 2 555 5 is_stmt 1 view .LVU579
 556:funsape/util/apiParser.cpp ****             this->_lastError = Error::FRAME_ERROR;
 2065               		.loc 2 556 9 view .LVU580
 556:funsape/util/apiParser.cpp ****             this->_lastError = Error::FRAME_ERROR;
 2066               		.loc 2 556 18 is_stmt 0 view .LVU581
 2067 0052 8B89      		ldd r24,Y+19
 556:funsape/util/apiParser.cpp ****             this->_lastError = Error::FRAME_ERROR;
 2068               		.loc 2 556 9 view .LVU582
 2069 0054 8E37      		cpi r24,lo8(126)
 2070 0056 01F0      		breq .L107
 557:funsape/util/apiParser.cpp ****             this->_rxResetPackage();
 2071               		.loc 2 557 13 is_stmt 1 view .LVU583
 557:funsape/util/apiParser.cpp ****             this->_rxResetPackage();
 2072               		.loc 2 557 30 is_stmt 0 view .LVU584
 2073 0058 86E4      		ldi r24,lo8(70)
 2074 005a 90E0      		ldi r25,0
 2075 005c 9A83      		std Y+2,r25
 2076 005e 8983      		std Y+1,r24
 558:funsape/util/apiParser.cpp ****             return false;
 2077               		.loc 2 558 13 is_stmt 1 view .LVU585
 558:funsape/util/apiParser.cpp ****             return false;
 2078               		.loc 2 558 34 is_stmt 0 view .LVU586
 2079 0060 CE01      		movw r24,r28
 2080 0062 0E94 0000 		call _ZN9ApiParser15_rxResetPackageEv
 2081               	.LVL89:
 559:funsape/util/apiParser.cpp ****         }
 2082               		.loc 2 559 13 is_stmt 1 view .LVU587
 559:funsape/util/apiParser.cpp ****         }
 2083               		.loc 2 559 20 is_stmt 0 view .LVU588
 2084 0066 80E0      		ldi r24,0
 2085 0068 00C0      		rjmp .L102
 2086               	.L103:
 569:funsape/util/apiParser.cpp ****         if((this->_rxDecodedPayloadIndex + 1) == this->_payloadMaxSize) {
 2087               		.loc 2 569 5 is_stmt 1 view .LVU589
 570:funsape/util/apiParser.cpp ****             this->_rxResetPackage();
 2088               		.loc 2 570 9 view .LVU590
 570:funsape/util/apiParser.cpp ****             this->_rxResetPackage();
 2089               		.loc 2 570 19 is_stmt 0 view .LVU591
 2090 006a 888D      		ldd r24,Y+24
 2091 006c 90E0      		ldi r25,0
 570:funsape/util/apiParser.cpp ****             this->_rxResetPackage();
 2092               		.loc 2 570 42 view .LVU592
 2093 006e 0196      		adiw r24,1
 570:funsape/util/apiParser.cpp ****             this->_rxResetPackage();
 2094               		.loc 2 570 56 view .LVU593
 2095 0070 2B81      		ldd r18,Y+3
 2096 0072 30E0      		ldi r19,0
 570:funsape/util/apiParser.cpp ****             this->_rxResetPackage();
 2097               		.loc 2 570 9 view .LVU594
 2098 0074 8217      		cp r24,r18
 2099 0076 9307      		cpc r25,r19
 2100 0078 01F0      		breq .L110
 2101               	.L107:
 587:funsape/util/apiParser.cpp ****     return true;
 2102               		.loc 2 587 5 is_stmt 1 view .LVU595
 587:funsape/util/apiParser.cpp ****     return true;
GAS LISTING C:\Users\kenne\AppData\Local\Temp\ccWhffpB.s 			page 69


 2103               		.loc 2 587 22 is_stmt 0 view .LVU596
 2104 007a 1A82      		std Y+2,__zero_reg__
 2105 007c 1982      		std Y+1,__zero_reg__
 588:funsape/util/apiParser.cpp **** }
 2106               		.loc 2 588 5 is_stmt 1 view .LVU597
 588:funsape/util/apiParser.cpp **** }
 2107               		.loc 2 588 12 is_stmt 0 view .LVU598
 2108 007e 81E0      		ldi r24,lo8(1)
 2109               	.L102:
 2110               	/* epilogue start */
 589:funsape/util/apiParser.cpp **** 
 2111               		.loc 2 589 1 view .LVU599
 2112 0080 DF91      		pop r29
 2113 0082 CF91      		pop r28
 2114 0084 0895      		ret
 2115               	.L110:
 571:funsape/util/apiParser.cpp ****             this->_lastError = Error::BUFFER_FULL;
 2116               		.loc 2 571 13 is_stmt 1 view .LVU600
 571:funsape/util/apiParser.cpp ****             this->_lastError = Error::BUFFER_FULL;
 2117               		.loc 2 571 34 is_stmt 0 view .LVU601
 2118 0086 CE01      		movw r24,r28
 2119 0088 0E94 0000 		call _ZN9ApiParser15_rxResetPackageEv
 2120               	.LVL90:
 572:funsape/util/apiParser.cpp ****             return false;
 2121               		.loc 2 572 13 is_stmt 1 view .LVU602
 572:funsape/util/apiParser.cpp ****             return false;
 2122               		.loc 2 572 30 is_stmt 0 view .LVU603
 2123 008c 81E2      		ldi r24,lo8(33)
 2124 008e 90E0      		ldi r25,0
 2125 0090 9A83      		std Y+2,r25
 2126 0092 8983      		std Y+1,r24
 573:funsape/util/apiParser.cpp ****         }
 2127               		.loc 2 573 13 is_stmt 1 view .LVU604
 573:funsape/util/apiParser.cpp ****         }
 2128               		.loc 2 573 20 is_stmt 0 view .LVU605
 2129 0094 80E0      		ldi r24,0
 2130 0096 00C0      		rjmp .L102
 2131               		.cfi_endproc
 2132               	.LFE56:
 2134               		.section	.text._ZN9ApiParser19_rxProcessNextStateEv,"ax",@progbits
 2135               	.global	_ZN9ApiParser19_rxProcessNextStateEv
 2137               	_ZN9ApiParser19_rxProcessNextStateEv:
 2138               	.LVL91:
 2139               	.LFB57:
 592:funsape/util/apiParser.cpp ****     if(this->_rxRawEscape) {
 2140               		.loc 2 592 1 is_stmt 1 view -0
 2141               		.cfi_startproc
 592:funsape/util/apiParser.cpp ****     if(this->_rxRawEscape) {
 2142               		.loc 2 592 1 is_stmt 0 view .LVU607
 2143 0000 1F93      		push r17
 2144               		.cfi_def_cfa_offset 3
 2145               		.cfi_offset 17, -2
 2146 0002 CF93      		push r28
 2147               		.cfi_def_cfa_offset 4
 2148               		.cfi_offset 28, -3
 2149 0004 DF93      		push r29
 2150               		.cfi_def_cfa_offset 5
GAS LISTING C:\Users\kenne\AppData\Local\Temp\ccWhffpB.s 			page 70


 2151               		.cfi_offset 29, -4
 2152               	/* prologue: function */
 2153               	/* frame size = 0 */
 2154               	/* stack size = 3 */
 2155               	.L__stack_usage = 3
 2156 0006 C82F      		mov r28,r24
 2157 0008 D92F      		mov r29,r25
 593:funsape/util/apiParser.cpp ****         return true;
 2158               		.loc 2 593 5 is_stmt 1 view .LVU608
 593:funsape/util/apiParser.cpp ****         return true;
 2159               		.loc 2 593 14 is_stmt 0 view .LVU609
 2160 000a 1985      		ldd r17,Y+9
 2161 000c 1170      		andi r17,1
 593:funsape/util/apiParser.cpp ****         return true;
 2162               		.loc 2 593 5 view .LVU610
 2163 000e 1111      		cpse r17,__zero_reg__
 2164 0010 00C0      		rjmp .L111
 597:funsape/util/apiParser.cpp ****     case State::START_DELIMITER:
 2165               		.loc 2 597 5 is_stmt 1 view .LVU611
 597:funsape/util/apiParser.cpp ****     case State::START_DELIMITER:
 2166               		.loc 2 597 18 is_stmt 0 view .LVU612
 2167 0012 8C85      		ldd r24,Y+12
 2168 0014 9D85      		ldd r25,Y+13
 2169               	.LVL92:
 597:funsape/util/apiParser.cpp ****     case State::START_DELIMITER:
 2170               		.loc 2 597 5 view .LVU613
 2171 0016 8730      		cpi r24,7
 2172 0018 9105      		cpc r25,__zero_reg__
 2173 001a 00F0      		brlo .+2
 2174 001c 00C0      		rjmp .L113
 2175 001e FC01      		movw r30,r24
 2176 0020 E050      		subi r30,lo8(-(gs(.L115)))
 2177 0022 F040      		sbci r31,hi8(-(gs(.L115)))
 2178 0024 0C94 0000 		jmp __tablejump2__
 2179               		.section	.jumptables.gcc._ZN9ApiParser19_rxProcessNextStateEv,"a",@progbits
 2180               		.p2align	1
 2181               	.L115:
 2182 0000 0000      		.word gs(.L121)
 2183 0002 0000      		.word gs(.L120)
 2184 0004 0000      		.word gs(.L119)
 2185 0006 0000      		.word gs(.L118)
 2186 0008 0000      		.word gs(.L117)
 2187 000a 0000      		.word gs(.L116)
 2188 000c 0000      		.word gs(.L114)
 2189               		.section	.text._ZN9ApiParser19_rxProcessNextStateEv
 2190               	.L121:
 598:funsape/util/apiParser.cpp ****         this->_rxRawChecksum = 0xFF;
 2191               		.loc 2 598 5 is_stmt 1 view .LVU614
 599:funsape/util/apiParser.cpp ****         this->_rxRawState++;
 2192               		.loc 2 599 9 view .LVU615
 599:funsape/util/apiParser.cpp ****         this->_rxRawState++;
 2193               		.loc 2 599 30 is_stmt 0 view .LVU616
 2194 0028 2FEF      		ldi r18,lo8(-1)
 2195 002a 2E83      		std Y+6,r18
 600:funsape/util/apiParser.cpp ****         break;
 2196               		.loc 2 600 9 is_stmt 1 view .LVU617
 2197               	.LVL93:
GAS LISTING C:\Users\kenne\AppData\Local\Temp\ccWhffpB.s 			page 71


 2198               	.LBB37:
 2199               	.LBI37:
 2200               		.file 3 "funsape/util/apiParser.hpp"
   1:funsape/util/apiParser.hpp **** //!
   2:funsape/util/apiParser.hpp **** //! \file           apiParser.hpp
   3:funsape/util/apiParser.hpp **** //! \brief          API Parser for the FunSAPE AVR8 Library
   4:funsape/util/apiParser.hpp **** //! \author         Leandro Schwarz (bladabuska+funsapeavr8lib@gmail.com)
   5:funsape/util/apiParser.hpp **** //! \date           2023-06-18
   6:funsape/util/apiParser.hpp **** //! \version        23.04
   7:funsape/util/apiParser.hpp **** //! \copyright      license
   8:funsape/util/apiParser.hpp **** //! \details        API Parser for the FunSAPE AVR8 Library
   9:funsape/util/apiParser.hpp **** //! \todo           Todo list
  10:funsape/util/apiParser.hpp **** //!
  11:funsape/util/apiParser.hpp **** 
  12:funsape/util/apiParser.hpp **** // =============================================================================
  13:funsape/util/apiParser.hpp **** // Include guard (START)
  14:funsape/util/apiParser.hpp **** // =============================================================================
  15:funsape/util/apiParser.hpp **** 
  16:funsape/util/apiParser.hpp **** #ifndef __API_PARSER_HPP
  17:funsape/util/apiParser.hpp **** #define __API_PARSER_HPP                2304
  18:funsape/util/apiParser.hpp **** 
  19:funsape/util/apiParser.hpp **** // =============================================================================
  20:funsape/util/apiParser.hpp **** // Dependencies
  21:funsape/util/apiParser.hpp **** // =============================================================================
  22:funsape/util/apiParser.hpp **** 
  23:funsape/util/apiParser.hpp **** //     /////////////////     GLOBAL DEFINITIONS FILE    /////////////////     //
  24:funsape/util/apiParser.hpp **** #include "../globalDefines.hpp"
  25:funsape/util/apiParser.hpp **** #if !defined(__GLOBAL_DEFINES_HPP)
  26:funsape/util/apiParser.hpp **** #    error "Global definitions file is corrupted!"
  27:funsape/util/apiParser.hpp **** #elif __GLOBAL_DEFINES_HPP != __API_PARSER_HPP
  28:funsape/util/apiParser.hpp **** #    error "Version mismatch between file header and global definitions file!"
  29:funsape/util/apiParser.hpp **** #endif
  30:funsape/util/apiParser.hpp **** 
  31:funsape/util/apiParser.hpp **** //     //////////////////     LIBRARY DEPENDENCIES     //////////////////     //
  32:funsape/util/apiParser.hpp **** #include "../util/debug.hpp"
  33:funsape/util/apiParser.hpp **** #if !defined(__DEBUG_HPP)
  34:funsape/util/apiParser.hpp **** #   error "Header file (debug.hpp) is corrupted!"
  35:funsape/util/apiParser.hpp **** #elif __DEBUG_HPP != __API_PARSER_HPP
  36:funsape/util/apiParser.hpp **** #   error "Version mismatch between header file and library dependency (debug.hpp)!"
  37:funsape/util/apiParser.hpp **** #endif
  38:funsape/util/apiParser.hpp **** 
  39:funsape/util/apiParser.hpp **** // =============================================================================
  40:funsape/util/apiParser.hpp **** // Undefining previous definitions
  41:funsape/util/apiParser.hpp **** // =============================================================================
  42:funsape/util/apiParser.hpp **** 
  43:funsape/util/apiParser.hpp **** // NONE
  44:funsape/util/apiParser.hpp **** 
  45:funsape/util/apiParser.hpp **** // =============================================================================
  46:funsape/util/apiParser.hpp **** // Constant definitions
  47:funsape/util/apiParser.hpp **** // =============================================================================
  48:funsape/util/apiParser.hpp **** 
  49:funsape/util/apiParser.hpp **** // NONE
  50:funsape/util/apiParser.hpp **** 
  51:funsape/util/apiParser.hpp **** // =============================================================================
  52:funsape/util/apiParser.hpp **** // New data types
  53:funsape/util/apiParser.hpp **** // =============================================================================
  54:funsape/util/apiParser.hpp **** 
GAS LISTING C:\Users\kenne\AppData\Local\Temp\ccWhffpB.s 			page 72


  55:funsape/util/apiParser.hpp **** // NONE
  56:funsape/util/apiParser.hpp **** 
  57:funsape/util/apiParser.hpp **** // =============================================================================
  58:funsape/util/apiParser.hpp **** // Interrupt callback functions
  59:funsape/util/apiParser.hpp **** // =============================================================================
  60:funsape/util/apiParser.hpp **** 
  61:funsape/util/apiParser.hpp **** // NONE
  62:funsape/util/apiParser.hpp **** 
  63:funsape/util/apiParser.hpp **** // =============================================================================
  64:funsape/util/apiParser.hpp **** // ApiParser Class
  65:funsape/util/apiParser.hpp **** // =============================================================================
  66:funsape/util/apiParser.hpp **** 
  67:funsape/util/apiParser.hpp **** //!
  68:funsape/util/apiParser.hpp **** //! \brief          ApiParser class
  69:funsape/util/apiParser.hpp **** //! \details        ApiParser class
  70:funsape/util/apiParser.hpp **** //!
  71:funsape/util/apiParser.hpp **** class ApiParser
  72:funsape/util/apiParser.hpp **** {
  73:funsape/util/apiParser.hpp ****     // -------------------------------------------------------------------------
  74:funsape/util/apiParser.hpp ****     // New data types ----------------------------------------------------------
  75:funsape/util/apiParser.hpp **** private:
  76:funsape/util/apiParser.hpp **** 
  77:funsape/util/apiParser.hpp ****     //     ////////////////    FRAME STATES MACHINE     /////////////////     //
  78:funsape/util/apiParser.hpp ****     //!
