GAS LISTING C:\Users\kenne\AppData\Local\Temp\ccLL1b4r.s 			page 1


   1               		.file	"int1.cpp"
   2               	__SP_H__ = 0x3e
   3               	__SP_L__ = 0x3d
   4               	__SREG__ = 0x3f
   5               	__tmp_reg__ = 0
   6               	__zero_reg__ = 1
   7               		.text
   8               	.Ltext0:
   9               		.cfi_sections	.debug_frame
  10               		.file 0 "C:\\D\\IFSC\\MCC\\projects\\segundo_display_project" "funsape/peripheral/int1.cpp"
  11               		.section	.text._Z7getTickv,"ax",@progbits
  12               		.weak	_Z7getTickv
  14               	_Z7getTickv:
  15               	.LFB32:
  16               		.file 1 "funsape/peripheral/../globalDefines.hpp"
   1:funsape/peripheral/../globalDefines.hpp **** //!
   2:funsape/peripheral/../globalDefines.hpp **** //! \file           globalDefines.hpp
   3:funsape/peripheral/../globalDefines.hpp **** //! \brief          Global definitions file
   4:funsape/peripheral/../globalDefines.hpp **** //! \author         Leandro Schwarz (bladabuska+funsapeavr8lib@gmail.com)
   5:funsape/peripheral/../globalDefines.hpp **** //! \date           2023-04-05
   6:funsape/peripheral/../globalDefines.hpp **** //! \version        23.04
   7:funsape/peripheral/../globalDefines.hpp **** //! \copyright      license
   8:funsape/peripheral/../globalDefines.hpp **** //! \details        Global definitions file.
   9:funsape/peripheral/../globalDefines.hpp **** //! \todo           Todo list
  10:funsape/peripheral/../globalDefines.hpp **** //!
  11:funsape/peripheral/../globalDefines.hpp **** 
  12:funsape/peripheral/../globalDefines.hpp **** // =============================================================================
  13:funsape/peripheral/../globalDefines.hpp **** // Include guard (START)
  14:funsape/peripheral/../globalDefines.hpp **** // =============================================================================
  15:funsape/peripheral/../globalDefines.hpp **** 
  16:funsape/peripheral/../globalDefines.hpp **** #ifndef __GLOBAL_DEFINES_HPP
  17:funsape/peripheral/../globalDefines.hpp **** #define __GLOBAL_DEFINES_HPP                    2304
  18:funsape/peripheral/../globalDefines.hpp **** 
  19:funsape/peripheral/../globalDefines.hpp **** // =============================================================================
  20:funsape/peripheral/../globalDefines.hpp **** // Basic definitions
  21:funsape/peripheral/../globalDefines.hpp **** // =============================================================================
  22:funsape/peripheral/../globalDefines.hpp **** 
  23:funsape/peripheral/../globalDefines.hpp **** #ifndef F_CPU
  24:funsape/peripheral/../globalDefines.hpp **** #   define F_CPU    16000000UL
  25:funsape/peripheral/../globalDefines.hpp **** #endif
  26:funsape/peripheral/../globalDefines.hpp **** 
  27:funsape/peripheral/../globalDefines.hpp **** // =============================================================================
  28:funsape/peripheral/../globalDefines.hpp **** // Dependencies
  29:funsape/peripheral/../globalDefines.hpp **** // =============================================================================
  30:funsape/peripheral/../globalDefines.hpp **** 
  31:funsape/peripheral/../globalDefines.hpp **** //     //////////////////     AVR STANDARD LIBRARY     //////////////////     //
  32:funsape/peripheral/../globalDefines.hpp **** #include <avr/io.h>
  33:funsape/peripheral/../globalDefines.hpp **** #include <avr/interrupt.h>
  34:funsape/peripheral/../globalDefines.hpp **** #include <util/delay.h>
  35:funsape/peripheral/../globalDefines.hpp **** #include <util/atomic.h>
  36:funsape/peripheral/../globalDefines.hpp **** 
  37:funsape/peripheral/../globalDefines.hpp **** //     ///////////////////     STANDARD C LIBRARY     ///////////////////     //
  38:funsape/peripheral/../globalDefines.hpp **** #include <stddef.h>
  39:funsape/peripheral/../globalDefines.hpp **** #include <stdint.h>
  40:funsape/peripheral/../globalDefines.hpp **** #include <stdio.h>
  41:funsape/peripheral/../globalDefines.hpp **** #include <stdlib.h>
  42:funsape/peripheral/../globalDefines.hpp **** #include <string.h>
GAS LISTING C:\Users\kenne\AppData\Local\Temp\ccLL1b4r.s 			page 2


  43:funsape/peripheral/../globalDefines.hpp **** 
  44:funsape/peripheral/../globalDefines.hpp **** //     //////////////////     LIBRARY DEPENDENCIES     //////////////////     //
  45:funsape/peripheral/../globalDefines.hpp **** #include "pinout.hpp"
  46:funsape/peripheral/../globalDefines.hpp **** #if !defined(__PINOUT_HPP)
  47:funsape/peripheral/../globalDefines.hpp **** #   error "Header file (pinout.hpp) is corrupted!"
  48:funsape/peripheral/../globalDefines.hpp **** #elif __PINOUT_HPP != __GLOBAL_DEFINES_HPP
  49:funsape/peripheral/../globalDefines.hpp **** #   error "Version mismatch between header file and library dependency (pinout.hpp)!"
  50:funsape/peripheral/../globalDefines.hpp **** #endif
  51:funsape/peripheral/../globalDefines.hpp **** 
  52:funsape/peripheral/../globalDefines.hpp **** // =============================================================================
  53:funsape/peripheral/../globalDefines.hpp **** // Undefining previous definitions
  54:funsape/peripheral/../globalDefines.hpp **** // =============================================================================
  55:funsape/peripheral/../globalDefines.hpp **** 
  56:funsape/peripheral/../globalDefines.hpp **** // NONE
  57:funsape/peripheral/../globalDefines.hpp **** 
  58:funsape/peripheral/../globalDefines.hpp **** // =============================================================================
  59:funsape/peripheral/../globalDefines.hpp **** // Constant definitions
  60:funsape/peripheral/../globalDefines.hpp **** // =============================================================================
  61:funsape/peripheral/../globalDefines.hpp **** 
  62:funsape/peripheral/../globalDefines.hpp **** #define inlined                         inline __attribute__((always_inline))
  63:funsape/peripheral/../globalDefines.hpp **** #define weakened                        __attribute__((weak))
  64:funsape/peripheral/../globalDefines.hpp **** 
  65:funsape/peripheral/../globalDefines.hpp **** // =============================================================================
  66:funsape/peripheral/../globalDefines.hpp **** // New data types
  67:funsape/peripheral/../globalDefines.hpp **** // =============================================================================
  68:funsape/peripheral/../globalDefines.hpp **** 
  69:funsape/peripheral/../globalDefines.hpp **** //     ////////////////////     BASIC VARIABLES     /////////////////////     //
  70:funsape/peripheral/../globalDefines.hpp **** typedef bool                            bool_t;
  71:funsape/peripheral/../globalDefines.hpp **** typedef char                            char_t;
  72:funsape/peripheral/../globalDefines.hpp **** 
  73:funsape/peripheral/../globalDefines.hpp **** //     ///////////////////     CONSTANT VARIABLES    ////////////////////     //
  74:funsape/peripheral/../globalDefines.hpp **** typedef const bool_t                    cbool_t;
  75:funsape/peripheral/../globalDefines.hpp **** typedef const char_t                    cchar_t;
  76:funsape/peripheral/../globalDefines.hpp **** typedef const int8_t                    cint8_t;
  77:funsape/peripheral/../globalDefines.hpp **** typedef const int16_t                   cint16_t;
  78:funsape/peripheral/../globalDefines.hpp **** typedef const int32_t                   cint32_t;
  79:funsape/peripheral/../globalDefines.hpp **** typedef const int64_t                   cint64_t;
  80:funsape/peripheral/../globalDefines.hpp **** typedef const uint8_t                   cuint8_t;
  81:funsape/peripheral/../globalDefines.hpp **** typedef const uint16_t                  cuint16_t;
  82:funsape/peripheral/../globalDefines.hpp **** typedef const uint32_t                  cuint32_t;
  83:funsape/peripheral/../globalDefines.hpp **** typedef const uint64_t                  cuint64_t;
  84:funsape/peripheral/../globalDefines.hpp **** 
  85:funsape/peripheral/../globalDefines.hpp **** //     ///////////////////     VOLATILE VARIABLES    ////////////////////     //
  86:funsape/peripheral/../globalDefines.hpp **** typedef volatile bool_t                 vbool_t;
  87:funsape/peripheral/../globalDefines.hpp **** typedef volatile char_t                 vchar_t;
  88:funsape/peripheral/../globalDefines.hpp **** typedef volatile int8_t                 vint8_t;
  89:funsape/peripheral/../globalDefines.hpp **** typedef volatile int16_t                vint16_t;
  90:funsape/peripheral/../globalDefines.hpp **** typedef volatile int32_t                vint32_t;
  91:funsape/peripheral/../globalDefines.hpp **** typedef volatile int64_t                vint64_t;
  92:funsape/peripheral/../globalDefines.hpp **** typedef volatile uint8_t                vuint8_t;
  93:funsape/peripheral/../globalDefines.hpp **** typedef volatile uint16_t               vuint16_t;
  94:funsape/peripheral/../globalDefines.hpp **** typedef volatile uint32_t               vuint32_t;
  95:funsape/peripheral/../globalDefines.hpp **** typedef volatile uint64_t               vuint64_t;
  96:funsape/peripheral/../globalDefines.hpp **** 
  97:funsape/peripheral/../globalDefines.hpp **** //     /////////////////     AVR PLATFORM VARIABLES    //////////////////     //
  98:funsape/peripheral/../globalDefines.hpp **** typedef int16_t                         int_t;          // 16-bit (AVR)
  99:funsape/peripheral/../globalDefines.hpp **** typedef uint16_t                        uint_t;         // 16-bit (AVR)
GAS LISTING C:\Users\kenne\AppData\Local\Temp\ccLL1b4r.s 			page 3


 100:funsape/peripheral/../globalDefines.hpp **** typedef cint16_t                        cint_t;         // 16-bit (AVR)
 101:funsape/peripheral/../globalDefines.hpp **** typedef cuint16_t                       cuint_t;        // 16-bit (AVR)
 102:funsape/peripheral/../globalDefines.hpp **** typedef vint16_t                        vint_t;         // 16-bit (AVR)
 103:funsape/peripheral/../globalDefines.hpp **** typedef vuint16_t                       vuint_t;        // 16-bit (AVR)
 104:funsape/peripheral/../globalDefines.hpp **** typedef uint8_t                         ioPinIndex_t;   // 8-bit (AVR)
 105:funsape/peripheral/../globalDefines.hpp **** typedef vuint8_t                       *ioRegAddress_t; // 8-bit address (AVR)
 106:funsape/peripheral/../globalDefines.hpp **** 
 107:funsape/peripheral/../globalDefines.hpp **** //     //////////////////     BINARY ENUMERATIONS     ///////////////////     //
 108:funsape/peripheral/../globalDefines.hpp **** enum class Activation : cbool_t {
 109:funsape/peripheral/../globalDefines.hpp ****     OFF                                 = false,
 110:funsape/peripheral/../globalDefines.hpp ****     ON                                  = true
 111:funsape/peripheral/../globalDefines.hpp **** };
 112:funsape/peripheral/../globalDefines.hpp **** 
 113:funsape/peripheral/../globalDefines.hpp **** enum class DisplayOrientation : cbool_t {
 114:funsape/peripheral/../globalDefines.hpp ****     LANDSCAPE                           = false,
 115:funsape/peripheral/../globalDefines.hpp ****     PORTRAIT                            = true
 116:funsape/peripheral/../globalDefines.hpp **** };
 117:funsape/peripheral/../globalDefines.hpp **** 
 118:funsape/peripheral/../globalDefines.hpp **** enum class DriverMode : cbool_t {
 119:funsape/peripheral/../globalDefines.hpp ****     PUSH_PULL                           = false,
 120:funsape/peripheral/../globalDefines.hpp ****     OPEN_DRAIN                          = true,
 121:funsape/peripheral/../globalDefines.hpp **** };
 122:funsape/peripheral/../globalDefines.hpp **** 
 123:funsape/peripheral/../globalDefines.hpp **** enum class Edge : cbool_t {
 124:funsape/peripheral/../globalDefines.hpp ****     FALLING                             = false,
 125:funsape/peripheral/../globalDefines.hpp ****     RISING                              = true
 126:funsape/peripheral/../globalDefines.hpp **** };
 127:funsape/peripheral/../globalDefines.hpp **** 
 128:funsape/peripheral/../globalDefines.hpp **** enum class IoOperation : cbool_t {
 129:funsape/peripheral/../globalDefines.hpp ****     WRITE                               = false,
 130:funsape/peripheral/../globalDefines.hpp ****     READ                                = true
 131:funsape/peripheral/../globalDefines.hpp **** };
 132:funsape/peripheral/../globalDefines.hpp **** 
 133:funsape/peripheral/../globalDefines.hpp **** enum class LogicLevel : cbool_t {
 134:funsape/peripheral/../globalDefines.hpp ****     LOW                                 = false,
 135:funsape/peripheral/../globalDefines.hpp ****     HIGH                                = true
 136:funsape/peripheral/../globalDefines.hpp **** };
 137:funsape/peripheral/../globalDefines.hpp **** 
 138:funsape/peripheral/../globalDefines.hpp **** enum class PinDirection : cbool_t {
 139:funsape/peripheral/../globalDefines.hpp ****     INPUT                               = false,
 140:funsape/peripheral/../globalDefines.hpp ****     OUTPUT                              = true,
 141:funsape/peripheral/../globalDefines.hpp **** };
 142:funsape/peripheral/../globalDefines.hpp **** 
 143:funsape/peripheral/../globalDefines.hpp **** enum class Rotation : cbool_t {
 144:funsape/peripheral/../globalDefines.hpp ****     CLOCKWISE                           = false,
 145:funsape/peripheral/../globalDefines.hpp ****     COUNTERCLOCKWISE                    = true
 146:funsape/peripheral/../globalDefines.hpp **** };
 147:funsape/peripheral/../globalDefines.hpp **** 
 148:funsape/peripheral/../globalDefines.hpp **** enum class State : cbool_t {
 149:funsape/peripheral/../globalDefines.hpp ****     OFF                                 = false,
 150:funsape/peripheral/../globalDefines.hpp ****     ON                                  = true
 151:funsape/peripheral/../globalDefines.hpp **** };
 152:funsape/peripheral/../globalDefines.hpp **** 
 153:funsape/peripheral/../globalDefines.hpp **** //     ///////////////////     PLAIN ENUMERATIONS    ////////////////////     //
 154:funsape/peripheral/../globalDefines.hpp **** enum class Axis : cuint8_t {
 155:funsape/peripheral/../globalDefines.hpp ****     //                                     Z-AXIS     Y-AXIS     X-AXIS
 156:funsape/peripheral/../globalDefines.hpp ****     NONE                                = (0 << 2) | (0 << 1) | (0 << 0),
GAS LISTING C:\Users\kenne\AppData\Local\Temp\ccLL1b4r.s 			page 4


 157:funsape/peripheral/../globalDefines.hpp ****     X                                   = (0 << 2) | (0 << 1) | (1 << 0),
 158:funsape/peripheral/../globalDefines.hpp ****     Y                                   = (0 << 2) | (1 << 1) | (0 << 0),
 159:funsape/peripheral/../globalDefines.hpp ****     XY                                  = (0 << 2) | (1 << 1) | (1 << 0),
 160:funsape/peripheral/../globalDefines.hpp ****     Z                                   = (1 << 2) | (0 << 1) | (0 << 0),
 161:funsape/peripheral/../globalDefines.hpp ****     XZ                                  = (1 << 2) | (0 << 1) | (1 << 0),
 162:funsape/peripheral/../globalDefines.hpp ****     YZ                                  = (1 << 2) | (1 << 1) | (0 << 0),
 163:funsape/peripheral/../globalDefines.hpp ****     ALL                                 = (1 << 2) | (1 << 1) | (1 << 0)
 164:funsape/peripheral/../globalDefines.hpp **** };
 165:funsape/peripheral/../globalDefines.hpp **** 
 166:funsape/peripheral/../globalDefines.hpp **** inlined Axis operator|(Axis a, Axis b)
 167:funsape/peripheral/../globalDefines.hpp **** {
 168:funsape/peripheral/../globalDefines.hpp ****     return static_cast<Axis>(static_cast<cint8_t>(a) | static_cast<uint8_t>(b));
 169:funsape/peripheral/../globalDefines.hpp **** }
 170:funsape/peripheral/../globalDefines.hpp **** 
 171:funsape/peripheral/../globalDefines.hpp **** inlined Axis &operator|=(Axis &a, Axis b)
 172:funsape/peripheral/../globalDefines.hpp **** {
 173:funsape/peripheral/../globalDefines.hpp ****     return a = static_cast<Axis>(static_cast<uint8_t>(a) | static_cast<uint8_t>(b));
 174:funsape/peripheral/../globalDefines.hpp **** }
 175:funsape/peripheral/../globalDefines.hpp **** 
 176:funsape/peripheral/../globalDefines.hpp **** inlined Axis operator&(Axis a, Axis b)
 177:funsape/peripheral/../globalDefines.hpp **** {
 178:funsape/peripheral/../globalDefines.hpp ****     return static_cast<Axis>(static_cast<uint8_t>(a) & static_cast<uint8_t>(b));
 179:funsape/peripheral/../globalDefines.hpp **** }
 180:funsape/peripheral/../globalDefines.hpp **** 
 181:funsape/peripheral/../globalDefines.hpp **** inlined Axis &operator&=(Axis &a, Axis b)
 182:funsape/peripheral/../globalDefines.hpp **** {
 183:funsape/peripheral/../globalDefines.hpp ****     return a = static_cast<Axis>(static_cast<uint8_t>(a) & static_cast<uint8_t>(b));
 184:funsape/peripheral/../globalDefines.hpp **** }
 185:funsape/peripheral/../globalDefines.hpp **** 
 186:funsape/peripheral/../globalDefines.hpp **** enum class Direction : cuint8_t {
 187:funsape/peripheral/../globalDefines.hpp ****     LEFT                                = 0,
 188:funsape/peripheral/../globalDefines.hpp ****     RIGHT                               = 1,
 189:funsape/peripheral/../globalDefines.hpp ****     UP                                  = 2,
 190:funsape/peripheral/../globalDefines.hpp ****     DOWN                                = 3
 191:funsape/peripheral/../globalDefines.hpp **** };
 192:funsape/peripheral/../globalDefines.hpp **** 
 193:funsape/peripheral/../globalDefines.hpp **** enum class InterfaceMode : cuint8_t {
 194:funsape/peripheral/../globalDefines.hpp ****     BLOCKING_MODE                       = 0,
 195:funsape/peripheral/../globalDefines.hpp ****     INTERRUPT_MODE                      = 1,
 196:funsape/peripheral/../globalDefines.hpp ****     DMA_MODE                            = 2
 197:funsape/peripheral/../globalDefines.hpp **** };
 198:funsape/peripheral/../globalDefines.hpp **** 
 199:funsape/peripheral/../globalDefines.hpp **** enum class ThermometricScale : cuint8_t {
 200:funsape/peripheral/../globalDefines.hpp ****     CELSIUS                             = 0,
 201:funsape/peripheral/../globalDefines.hpp ****     DELISLE                             = 1,
 202:funsape/peripheral/../globalDefines.hpp ****     FAHRENHEIT                          = 2,
 203:funsape/peripheral/../globalDefines.hpp ****     KELVIN                              = 3,
 204:funsape/peripheral/../globalDefines.hpp ****     NEWTON                              = 4,
 205:funsape/peripheral/../globalDefines.hpp ****     RANKINE                             = 5,
 206:funsape/peripheral/../globalDefines.hpp ****     REAUMUR                             = 6,
 207:funsape/peripheral/../globalDefines.hpp ****     ROMER                               = 7
 208:funsape/peripheral/../globalDefines.hpp **** };
 209:funsape/peripheral/../globalDefines.hpp **** 
 210:funsape/peripheral/../globalDefines.hpp **** enum class Error : cuint16_t {
 211:funsape/peripheral/../globalDefines.hpp ****     // General error codes
 212:funsape/peripheral/../globalDefines.hpp ****     NONE                                                = 0x0000,   // Success - No errors occurred
 213:funsape/peripheral/../globalDefines.hpp ****     AXIS_INVALID                                        = 0x0001,   // Invalid axis
GAS LISTING C:\Users\kenne\AppData\Local\Temp\ccLL1b4r.s 			page 5


 214:funsape/peripheral/../globalDefines.hpp ****     NOT_IMPLEMENTED                                     = 0x0002,   // Not implemented yet
 215:funsape/peripheral/../globalDefines.hpp ****     UNDER_DEVELOPMENT                                   = 0x0003,   // This part of the code is sti
 216:funsape/peripheral/../globalDefines.hpp ****     NOT_INITIALIZED                                     = 0x0004,   // Not initialized
 217:funsape/peripheral/../globalDefines.hpp ****     // BUSY                                                = 0x0005,   // TODO: Describe parameter
 218:funsape/peripheral/../globalDefines.hpp ****     // DEVICE_NOT_SUPPORTED                                = 0x0006,   // Device is not currently s
 219:funsape/peripheral/../globalDefines.hpp ****     // FEATURE_NOT_SUPPORTED                               = 0x0007,   // Unsupported feature or co
 220:funsape/peripheral/../globalDefines.hpp ****     // FUNCTION_POINTER_NULL                               = 0x0008,   // TODO: Describe parameter
 221:funsape/peripheral/../globalDefines.hpp ****     // INSTANCE_INVALID                                    = 0x0009,   // Invalid instance
 222:funsape/peripheral/../globalDefines.hpp ****     // LOCKED                                              = 0x000A,   // Accessed a locked device
 223:funsape/peripheral/../globalDefines.hpp ****     MEMORY_ALLOCATION                                   = 0x000B,   // Memory allocation failed
 224:funsape/peripheral/../globalDefines.hpp ****     // MODE_NOT_SUPPORTED                                  = 0x000C,   // Mode is not currently sup
 225:funsape/peripheral/../globalDefines.hpp ****     // NOT_READY                                           = 0x000D,   // TODO: Describe parameter
 226:funsape/peripheral/../globalDefines.hpp ****     // READ_PROTECTED                                      = 0x000E,   // Tried to read a read prot
 227:funsape/peripheral/../globalDefines.hpp ****     // WRITE_PROTECTED                                     = 0x000F,   // Tried to write a write pr
 228:funsape/peripheral/../globalDefines.hpp **** 
 229:funsape/peripheral/../globalDefines.hpp ****     // Function arguments related error codes
 230:funsape/peripheral/../globalDefines.hpp ****     // ARGUMENT_CANNOT_BE_ZERO                             = 0x0010,   // TODO: Describe parameter
 231:funsape/peripheral/../globalDefines.hpp ****     ARGUMENT_POINTER_NULL                               = 0x0011,   // NULL pointer was passed as a
 232:funsape/peripheral/../globalDefines.hpp ****     ARGUMENT_VALUE_INVALID                              = 0x0012,   // TODO: Describe parameter
 233:funsape/peripheral/../globalDefines.hpp ****     // ARGUMENTS_MISMATCH                                  = 0x0013,   // A function was called wit
 234:funsape/peripheral/../globalDefines.hpp ****     // ARGUMENTS_WRONG_NUMBER                              = 0x0014,   // A function was called wit
 235:funsape/peripheral/../globalDefines.hpp ****     // ARGUMENT_GENERIC_ERROR_5                            = 0x0015,   // Generic error (use only o
 236:funsape/peripheral/../globalDefines.hpp ****     // ARGUMENT_GENERIC_ERROR_6                            = 0x0016,   // Generic error (use only o
 237:funsape/peripheral/../globalDefines.hpp ****     // ARGUMENT_GENERIC_ERROR_7                            = 0x0017,   // Generic error (use only o
 238:funsape/peripheral/../globalDefines.hpp ****     // ARGUMENT_GENERIC_ERROR_8                            = 0x0018,   // Generic error (use only o
 239:funsape/peripheral/../globalDefines.hpp ****     // ARGUMENT_GENERIC_ERROR_9                            = 0x0019,   // Generic error (use only o
 240:funsape/peripheral/../globalDefines.hpp ****     // ARGUMENT_GENERIC_ERROR_10                           = 0x001A,   // Generic error (use only o
 241:funsape/peripheral/../globalDefines.hpp ****     // ARGUMENT_GENERIC_ERROR_11                           = 0x001B,   // Generic error (use only o
 242:funsape/peripheral/../globalDefines.hpp ****     // ARGUMENT_GENERIC_ERROR_12                           = 0x001C,   // Generic error (use only o
 243:funsape/peripheral/../globalDefines.hpp ****     // ARGUMENT_GENERIC_ERROR_13                           = 0x001D,   // Generic error (use only o
 244:funsape/peripheral/../globalDefines.hpp ****     // ARGUMENT_GENERIC_ERROR_14                           = 0x001E,   // Generic error (use only o
 245:funsape/peripheral/../globalDefines.hpp ****     // ARGUMENT_GENERIC_ERROR                              = 0x001F,   // Generic error (use only o
 246:funsape/peripheral/../globalDefines.hpp **** 
 247:funsape/peripheral/../globalDefines.hpp ****     // Buffer related error codes
 248:funsape/peripheral/../globalDefines.hpp ****     // BUFFER_EMPTY                                        = 0x0020,   // Buffer is empty
 249:funsape/peripheral/../globalDefines.hpp ****     // BUFFER_FULL                                         = 0x0021,   // Buffer is full
 250:funsape/peripheral/../globalDefines.hpp ****     // BUFFER_NOT_ENOUGH_ELEMENTS                          = 0x0022,   // Not enough space in buffe
 251:funsape/peripheral/../globalDefines.hpp ****     // BUFFER_NOT_ENOUGH_SPACE                             = 0x0023,   // Not enough space in buffe
 252:funsape/peripheral/../globalDefines.hpp ****     // BUFFER_POINTER_NULL                                 = 0x0024,   // Buffer size was set to ze
 253:funsape/peripheral/../globalDefines.hpp ****     // BUFFER_SIZE_TOO_LARGE                               = 0x0025,   // Buffer size was set to a 
 254:funsape/peripheral/../globalDefines.hpp ****     // BUFFER_SIZE_TOO_SMALL                               = 0x0026,   // Buffer size was set to a 
 255:funsape/peripheral/../globalDefines.hpp ****     // BUFFER_SIZE_ZERO                                    = 0x0027,   // Buffer size was set to ze
 256:funsape/peripheral/../globalDefines.hpp ****     // BUFFER_GENERIC_ERROR_8                              = 0x0028,   // Generic error (use only o
 257:funsape/peripheral/../globalDefines.hpp ****     // BUFFER_GENERIC_ERROR_9                              = 0x0029,   // Generic error (use only o
 258:funsape/peripheral/../globalDefines.hpp ****     // BUFFER_GENERIC_ERROR_10                             = 0x002A,   // Generic error (use only o
 259:funsape/peripheral/../globalDefines.hpp ****     // BUFFER_GENERIC_ERROR_11                             = 0x002B,   // Generic error (use only o
 260:funsape/peripheral/../globalDefines.hpp ****     // BUFFER_GENERIC_ERROR_12                             = 0x002C,   // Generic error (use only o
 261:funsape/peripheral/../globalDefines.hpp ****     // BUFFER_GENERIC_ERROR_13                             = 0x002D,   // Generic error (use only o
 262:funsape/peripheral/../globalDefines.hpp ****     // BUFFER_GENERIC_ERROR_14                             = 0x002E,   // Generic error (use only o
 263:funsape/peripheral/../globalDefines.hpp ****     // BUFFER_GENERIC_ERROR_15                             = 0x002F,   // Generic error (use only o
 264:funsape/peripheral/../globalDefines.hpp **** 
 265:funsape/peripheral/../globalDefines.hpp ****     // Clock configuration related error codes
 266:funsape/peripheral/../globalDefines.hpp ****     // CLOCK_PRESCALER_CHANGE_FAILED                       = 0x0030,   // Clock prescaler change fa
 267:funsape/peripheral/../globalDefines.hpp ****     // CLOCK_PRESCALER_NOT_SUPPORTED                       = 0x0031,   // Clock prescaler configura
 268:funsape/peripheral/../globalDefines.hpp ****     // CLOCK_SPEED_TOO_HIGH                                = 0x0032,   // TODO: Describe parameter
 269:funsape/peripheral/../globalDefines.hpp ****     // CLOCK_SPEED_TOO_LOW                                 = 0x0033,   // TODO: Describe parameter
 270:funsape/peripheral/../globalDefines.hpp ****     // CLOCK_GENERIC_ERROR_4                               = 0x0034,   // Generic error (use only o
GAS LISTING C:\Users\kenne\AppData\Local\Temp\ccLL1b4r.s 			page 6


 271:funsape/peripheral/../globalDefines.hpp ****     // CLOCK_GENERIC_ERROR_5                               = 0x0035,   // Generic error (use only o
 272:funsape/peripheral/../globalDefines.hpp ****     // CLOCK_GENERIC_ERROR_6                               = 0x0036,   // Generic error (use only o
 273:funsape/peripheral/../globalDefines.hpp ****     // CLOCK_GENERIC_ERROR_7                               = 0x0037,   // Generic error (use only o
 274:funsape/peripheral/../globalDefines.hpp ****     // CLOCK_GENERIC_ERROR_8                               = 0x0038,   // Generic error (use only o
 275:funsape/peripheral/../globalDefines.hpp ****     // CLOCK_GENERIC_ERROR_9                               = 0x0039,   // Generic error (use only o
 276:funsape/peripheral/../globalDefines.hpp ****     // CLOCK_GENERIC_ERROR_10                              = 0x003A,   // Generic error (use only o
 277:funsape/peripheral/../globalDefines.hpp ****     // CLOCK_GENERIC_ERROR_11                              = 0x003B,   // Generic error (use only o
 278:funsape/peripheral/../globalDefines.hpp ****     // CLOCK_GENERIC_ERROR_12                              = 0x003C,   // Generic error (use only o
 279:funsape/peripheral/../globalDefines.hpp ****     // CLOCK_GENERIC_ERROR_13                              = 0x003D,   // Generic error (use only o
 280:funsape/peripheral/../globalDefines.hpp ****     // CLOCK_GENERIC_ERROR_14                              = 0x003E,   // Generic error (use only o
 281:funsape/peripheral/../globalDefines.hpp ****     // CLOCK_GENERIC_ERROR_15                              = 0x003F,   // Generic error (use only o
 282:funsape/peripheral/../globalDefines.hpp **** 
 283:funsape/peripheral/../globalDefines.hpp ****     // Communication related error codes
 284:funsape/peripheral/../globalDefines.hpp ****     // COMMUNICATION_FAILED                                = 0x0040,   // TODO: Describe parameter
 285:funsape/peripheral/../globalDefines.hpp ****     // COMMUNICATION_NO_DEVICE_SELECTED                    = 0x0041,   // TODO: Describe parameter
 286:funsape/peripheral/../globalDefines.hpp ****     // COMMUNICATION_PORT_NOT_SET                          = 0x0042,   // TODO: Describe parameter
 287:funsape/peripheral/../globalDefines.hpp ****     // COMMUNICATION_TIMEOUT                               = 0x0043,   // The operation timed out
 288:funsape/peripheral/../globalDefines.hpp ****     // COMMUNICATION_DEVICE_ID_MATCH_FAILED                = 0x0044,   // TODO: Describe parameter
 289:funsape/peripheral/../globalDefines.hpp ****     // CHECKSUM_ERROR                                      = 0x0045,   // TODO: Describe parameter
 290:funsape/peripheral/../globalDefines.hpp ****     // FRAME_ERROR                                         = 0x0046,   // TODO: Describe parameter
 291:funsape/peripheral/../globalDefines.hpp ****     // PACKAGE_AWAITING                                    = 0x0047,   // Try to write data to a re
 292:funsape/peripheral/../globalDefines.hpp ****     // PACKAGE_NOT_READY                                   = 0x0048,   // Try to read data from a n
 293:funsape/peripheral/../globalDefines.hpp ****     // COMMUNICATION_GENERIC_ERROR_9                       = 0x0049,   // Generic error (use only o
 294:funsape/peripheral/../globalDefines.hpp ****     // COMMUNICATION_GENERIC_ERROR_10                      = 0x004A,   // Generic error (use only o
 295:funsape/peripheral/../globalDefines.hpp ****     // COMMUNICATION_GENERIC_ERROR_11                      = 0x004B,   // Generic error (use only o
 296:funsape/peripheral/../globalDefines.hpp ****     // COMMUNICATION_GENERIC_ERROR_12                      = 0x004C,   // Generic error (use only o
 297:funsape/peripheral/../globalDefines.hpp ****     // COMMUNICATION_GENERIC_ERROR_13                      = 0x004D,   // Generic error (use only o
 298:funsape/peripheral/../globalDefines.hpp ****     // COMMUNICATION_GENERIC_ERROR_14                      = 0x004E,   // Generic error (use only o
 299:funsape/peripheral/../globalDefines.hpp ****     // COMMUNICATION_GENERIC_ERROR_15                      = 0x004F,   // Generic error (use only o
 300:funsape/peripheral/../globalDefines.hpp **** 
 301:funsape/peripheral/../globalDefines.hpp ****     // DateTime class related error codes
 302:funsape/peripheral/../globalDefines.hpp ****     // DATETIME_DATE_NOT_INITIALIZED                       = 0x0050,   // TODO: Describe parameter
 303:funsape/peripheral/../globalDefines.hpp ****     // DATETIME_HOUR_INVALID                               = 0x0051,   // TODO: Describe parameter
 304:funsape/peripheral/../globalDefines.hpp ****     // DATETIME_MILLISECOND_INVALID                        = 0x0052,   // TODO: Describe parameter
 305:funsape/peripheral/../globalDefines.hpp ****     // DATETIME_MINUTE_INVALID                             = 0x0053,   // TODO: Describe parameter
 306:funsape/peripheral/../globalDefines.hpp ****     // DATETIME_MONTH_DAY_INVALID                          = 0x0054,   // TODO: Describe parameter
 307:funsape/peripheral/../globalDefines.hpp ****     // DATETIME_MONTH_INVALID                              = 0x0055,   // TODO: Describe parameter
 308:funsape/peripheral/../globalDefines.hpp ****     // DATETIME_SECOND_INVALID                             = 0x0056,   // TODO: Describe parameter
 309:funsape/peripheral/../globalDefines.hpp ****     // DATETIME_TIME_NOT_INITIALIZED                       = 0x0057,   // TODO: Describe parameter
 310:funsape/peripheral/../globalDefines.hpp ****     // DATETIME_TIMEZONE_INVALID                           = 0x0058,   // TODO: Describe parameter
 311:funsape/peripheral/../globalDefines.hpp ****     // DATETIME_YEAR_INVALID                               = 0x0059,   // TODO: Describe parameter
 312:funsape/peripheral/../globalDefines.hpp ****     // DATETIME_DATE_INVALID                               = 0x005A,   // TODO: Describe parameter
 313:funsape/peripheral/../globalDefines.hpp ****     // DATETIME_TIME_INVALID                               = 0x005B,   // TODO: Describe parameter
 314:funsape/peripheral/../globalDefines.hpp ****     // DATETIME_GENERIC_ERROR_13                           = 0x005C,   // Generic error (use only o
 315:funsape/peripheral/../globalDefines.hpp ****     // DATETIME_GENERIC_ERROR_14                           = 0x005D,   // Generic error (use only o
 316:funsape/peripheral/../globalDefines.hpp ****     // DATETIME_GENERIC_ERROR_15                           = 0x005F,   // Generic error (use only o
 317:funsape/peripheral/../globalDefines.hpp **** 
 318:funsape/peripheral/../globalDefines.hpp ****     // Handler related error codes
 319:funsape/peripheral/../globalDefines.hpp ****     // HANDLER_NOT_SUPPORTED                               = 0x0060,   // TODO: Describe parameter
 320:funsape/peripheral/../globalDefines.hpp ****     // HANDLER_POINTER_NULL                                = 0x0061,   // TODO: Describe parameter
 321:funsape/peripheral/../globalDefines.hpp ****     // HANDLER_GENERIC_ERROR_2                             = 0x0062,   // Generic error (use only o
 322:funsape/peripheral/../globalDefines.hpp ****     // HANDLER_GENERIC_ERROR_3                             = 0x0063,   // Generic error (use only o
 323:funsape/peripheral/../globalDefines.hpp ****     // HANDLER_GENERIC_ERROR_4                             = 0x0064,   // Generic error (use only o
 324:funsape/peripheral/../globalDefines.hpp ****     // HANDLER_GENERIC_ERROR_5                             = 0x0065,   // Generic error (use only o
 325:funsape/peripheral/../globalDefines.hpp ****     // HANDLER_GENERIC_ERROR_6                             = 0x0066,   // Generic error (use only o
 326:funsape/peripheral/../globalDefines.hpp ****     // HANDLER_GENERIC_ERROR_7                             = 0x0067,   // Generic error (use only o
 327:funsape/peripheral/../globalDefines.hpp ****     // HANDLER_GENERIC_ERROR_8                             = 0x0068,   // Generic error (use only o
GAS LISTING C:\Users\kenne\AppData\Local\Temp\ccLL1b4r.s 			page 7


 328:funsape/peripheral/../globalDefines.hpp ****     // HANDLER_GENERIC_ERROR_9                             = 0x0069,   // Generic error (use only o
 329:funsape/peripheral/../globalDefines.hpp ****     // HANDLER_GENERIC_ERROR_10                            = 0x006A,   // Generic error (use only o
 330:funsape/peripheral/../globalDefines.hpp ****     // HANDLER_GENERIC_ERROR_11                            = 0x006B,   // Generic error (use only o
 331:funsape/peripheral/../globalDefines.hpp ****     // HANDLER_GENERIC_ERROR_12                            = 0x006C,   // Generic error (use only o
 332:funsape/peripheral/../globalDefines.hpp ****     // HANDLER_GENERIC_ERROR_13                            = 0x006D,   // Generic error (use only o
 333:funsape/peripheral/../globalDefines.hpp ****     // HANDLER_GENERIC_ERROR_14                            = 0x006E,   // Generic error (use only o
 334:funsape/peripheral/../globalDefines.hpp ****     // HANDLER_GENERIC_ERROR_15                            = 0x006F,   // Generic error (use only o
 335:funsape/peripheral/../globalDefines.hpp **** 
 336:funsape/peripheral/../globalDefines.hpp ****     // External interrupts related error codes
 337:funsape/peripheral/../globalDefines.hpp ****     // INTERRUPT_NOT_AVAILABLE                             = 0x0070,   // TODO: Describe parameter
 338:funsape/peripheral/../globalDefines.hpp ****     // INTERRUPT_PORT_OUTPUT_MODE_NOT_SUPPORTED            = 0x0071,   // TODO: Describe parameter
 339:funsape/peripheral/../globalDefines.hpp ****     // INTERRUPT_SENSE_MODE_NOT_SUPPORTED                  = 0x0072,   // TODO: Describe parameter
 340:funsape/peripheral/../globalDefines.hpp ****     // INTERRUPT_GENERIC_ERROR_3                           = 0x0073,   // Generic error (use only o
 341:funsape/peripheral/../globalDefines.hpp ****     // INTERRUPT_GENERIC_ERROR_4                           = 0x0074,   // Generic error (use only o
 342:funsape/peripheral/../globalDefines.hpp ****     // INTERRUPT_GENERIC_ERROR_5                           = 0x0075,   // Generic error (use only o
 343:funsape/peripheral/../globalDefines.hpp ****     // INTERRUPT_GENERIC_ERROR_6                           = 0x0076,   // Generic error (use only o
 344:funsape/peripheral/../globalDefines.hpp ****     // INTERRUPT_GENERIC_ERROR_7                           = 0x0077,   // Generic error (use only o
 345:funsape/peripheral/../globalDefines.hpp ****     // INTERRUPT_GENERIC_ERROR_8                           = 0x0078,   // Generic error (use only o
 346:funsape/peripheral/../globalDefines.hpp ****     // INTERRUPT_GENERIC_ERROR_9                           = 0x0079,   // Generic error (use only o
 347:funsape/peripheral/../globalDefines.hpp ****     // INTERRUPT_GENERIC_ERROR_10                          = 0x007A,   // Generic error (use only o
 348:funsape/peripheral/../globalDefines.hpp ****     // INTERRUPT_GENERIC_ERROR_11                          = 0x007B,   // Generic error (use only o
 349:funsape/peripheral/../globalDefines.hpp ****     // INTERRUPT_GENERIC_ERROR_12                          = 0x007C,   // Generic error (use only o
 350:funsape/peripheral/../globalDefines.hpp ****     // INTERRUPT_GENERIC_ERROR_13                          = 0x007D,   // Generic error (use only o
 351:funsape/peripheral/../globalDefines.hpp ****     // INTERRUPT_GENERIC_ERROR_14                          = 0x007E,   // Generic error (use only o
 352:funsape/peripheral/../globalDefines.hpp ****     // INTERRUPT_GENERIC_ERROR_15                          = 0x007F,   // Generic error (use only o
 353:funsape/peripheral/../globalDefines.hpp **** 
 354:funsape/peripheral/../globalDefines.hpp **** 
 355:funsape/peripheral/../globalDefines.hpp ****     // Package API class related error codes
 356:funsape/peripheral/../globalDefines.hpp ****     // PACKAGE_API_PACKAGE_DATA_FULL                       = 0x0080,   // TODO: Describe parameter
 357:funsape/peripheral/../globalDefines.hpp ****     // PACKAGE_API_PACKAGE_NOT_READY                       = 0x0081,   // TODO: Describe parameter
 358:funsape/peripheral/../globalDefines.hpp ****     // PACKAGE_API_PAYLOAD_DATA_NULL                       = 0x0082,   // TODO: Describe parameter
 359:funsape/peripheral/../globalDefines.hpp ****     // PACKAGE_API_PAYLOAD_SIZE_NULL                       = 0x0083,   // TODO: Describe parameter
 360:funsape/peripheral/../globalDefines.hpp ****     // PACKAGE_API_SOURCE_ADDRESS_INVALID                  = 0x0084,   // TODO: Describe parameter
 361:funsape/peripheral/../globalDefines.hpp ****     // PACKAGE_API_GENERIC_ERROR_5                         = 0x0085,   // Generic error (use only o
 362:funsape/peripheral/../globalDefines.hpp ****     // PACKAGE_API_GENERIC_ERROR_6                         = 0x0086,   // Generic error (use only o
 363:funsape/peripheral/../globalDefines.hpp ****     // PACKAGE_API_GENERIC_ERROR_7                         = 0x0087,   // Generic error (use only o
 364:funsape/peripheral/../globalDefines.hpp ****     // PACKAGE_API_GENERIC_ERROR_8                         = 0x0088,   // Generic error (use only o
 365:funsape/peripheral/../globalDefines.hpp ****     // PACKAGE_API_GENERIC_ERROR_9                         = 0x0089,   // Generic error (use only o
 366:funsape/peripheral/../globalDefines.hpp ****     // PACKAGE_API_GENERIC_ERROR_10                        = 0x008A,   // Generic error (use only o
 367:funsape/peripheral/../globalDefines.hpp ****     // PACKAGE_API_GENERIC_ERROR_11                        = 0x008B,   // Generic error (use only o
 368:funsape/peripheral/../globalDefines.hpp ****     // PACKAGE_API_GENERIC_ERROR_12                        = 0x008C,   // Generic error (use only o
 369:funsape/peripheral/../globalDefines.hpp ****     // PACKAGE_API_GENERIC_ERROR_13                        = 0x008D,   // Generic error (use only o
 370:funsape/peripheral/../globalDefines.hpp ****     // PACKAGE_API_GENERIC_ERROR_14                        = 0x008E,   // Generic error (use only o
 371:funsape/peripheral/../globalDefines.hpp ****     // PACKAGE_API_GENERIC_ERROR_15                        = 0x008F,   // Generic error (use only o
 372:funsape/peripheral/../globalDefines.hpp **** 
 373:funsape/peripheral/../globalDefines.hpp ****     // SPI related error codes
 374:funsape/peripheral/../globalDefines.hpp ****     // SPI_BUSY_FLAG                                       = 0x0090,   // TODO: Describe parameter
 375:funsape/peripheral/../globalDefines.hpp ****     // SPI_CRC                                             = 0x0091,   // TODO: Describe parameter
 376:funsape/peripheral/../globalDefines.hpp ****     // SPI_DMA                                             = 0x0092,   // TODO: Describe parameter
 377:funsape/peripheral/../globalDefines.hpp ****     // SPI_MODE_FAULT                                      = 0x0093,   // TODO: Describe parameter
 378:funsape/peripheral/../globalDefines.hpp ****     // SPI_OVERRUN                                         = 0x0094,   // TODO: Describe parameter
 379:funsape/peripheral/../globalDefines.hpp ****     // SPI_GENERIC_ERROR_5                                 = 0x0095,   // Generic error (use only o
 380:funsape/peripheral/../globalDefines.hpp ****     // SPI_GENERIC_ERROR_6                                 = 0x0096,   // Generic error (use only o
 381:funsape/peripheral/../globalDefines.hpp ****     // SPI_GENERIC_ERROR_7                                 = 0x0097,   // Generic error (use only o
 382:funsape/peripheral/../globalDefines.hpp ****     // SPI_GENERIC_ERROR_8                                 = 0x0098,   // Generic error (use only o
 383:funsape/peripheral/../globalDefines.hpp ****     // SPI_GENERIC_ERROR_9                                 = 0x0099,   // Generic error (use only o
 384:funsape/peripheral/../globalDefines.hpp ****     // SPI_GENERIC_ERROR_10                                = 0x009A,   // Generic error (use only o
GAS LISTING C:\Users\kenne\AppData\Local\Temp\ccLL1b4r.s 			page 8


 385:funsape/peripheral/../globalDefines.hpp ****     // SPI_GENERIC_ERROR_11                                = 0x009B,   // Generic error (use only o
 386:funsape/peripheral/../globalDefines.hpp ****     // SPI_GENERIC_ERROR_12                                = 0x009C,   // Generic error (use only o
 387:funsape/peripheral/../globalDefines.hpp ****     // SPI_GENERIC_ERROR_13                                = 0x009D,   // Generic error (use only o
 388:funsape/peripheral/../globalDefines.hpp ****     // SPI_GENERIC_ERROR_14                                = 0x009E,   // Generic error (use only o
 389:funsape/peripheral/../globalDefines.hpp ****     // SPI_GENERIC_ERROR_15                                = 0x009F,   // Generic error (use only o
 390:funsape/peripheral/../globalDefines.hpp **** 
 391:funsape/peripheral/../globalDefines.hpp ****     // TWI related error codes
 392:funsape/peripheral/../globalDefines.hpp ****     // TWI_AF_FLAG                                         = 0x00A0,   // TWI AF flag error
 393:funsape/peripheral/../globalDefines.hpp ****     // TWI_ARBITRATION_LOST                                = 0x00A1,   // TWI bus arbitration lost
 394:funsape/peripheral/../globalDefines.hpp ****     // TWI_BUS_ERROR                                       = 0x00A2,   // TWI bus error
 395:funsape/peripheral/../globalDefines.hpp ****     // TWI_DMA                                             = 0x00A3,   // DMA parameter error
 396:funsape/peripheral/../globalDefines.hpp ****     // TWI_DMA_PARAM                                       = 0x00A4,   // DMA transfer error
 397:funsape/peripheral/../globalDefines.hpp ****     // TWI_OVERRUN                                         = 0x00A5,   // TWI overrun
 398:funsape/peripheral/../globalDefines.hpp ****     // TWI_SIZE_MANAGEMENT_ERROR                           = 0x00A6,   // Size management error
 399:funsape/peripheral/../globalDefines.hpp ****     // TWI_INVALID_DEVICE_ADDRESS                          = 0x00A7,   // TODO: Describe parameter
 400:funsape/peripheral/../globalDefines.hpp ****     // TWI_GENERIC_ERROR_8                                 = 0x00A8,   // Generic error (use only o
 401:funsape/peripheral/../globalDefines.hpp ****     // TWI_GENERIC_ERROR_9                                 = 0x00A9,   // Generic error (use only o
 402:funsape/peripheral/../globalDefines.hpp ****     // TWI_GENERIC_ERROR_10                                = 0x00AA,   // Generic error (use only o
 403:funsape/peripheral/../globalDefines.hpp ****     // TWI_GENERIC_ERROR_11                                = 0x00AB,   // Generic error (use only o
 404:funsape/peripheral/../globalDefines.hpp ****     // TWI_GENERIC_ERROR_12                                = 0x00AC,   // Generic error (use only o
 405:funsape/peripheral/../globalDefines.hpp ****     // TWI_GENERIC_ERROR_13                                = 0x00AD,   // Generic error (use only o
 406:funsape/peripheral/../globalDefines.hpp ****     // TWI_GENERIC_ERROR_14                                = 0x00AE,   // Generic error (use only o
 407:funsape/peripheral/../globalDefines.hpp ****     // TWI_GENERIC_ERROR_15                                = 0x00AF,   // Generic error (use only o
 408:funsape/peripheral/../globalDefines.hpp **** 
 409:funsape/peripheral/../globalDefines.hpp ****     // USART related error codes
 410:funsape/peripheral/../globalDefines.hpp ****     // USART_BAUD_RATE_NOT_SUPPORTED                       = 0x00B0,   // TODO: Describe parameter
 411:funsape/peripheral/../globalDefines.hpp ****     // USART_CONFIGURATION_PARAMETER_WRONG                 = 0x00B1,   // TODO: Describe parameter
 412:funsape/peripheral/../globalDefines.hpp ****     // USART_DATA_BITS_NOT_SUPPORTED                       = 0x00B2,   // TODO: Describe parameter
 413:funsape/peripheral/../globalDefines.hpp ****     // USART_FRAME_FORMAT_NOT_SUPPORTED                    = 0x00B3,   // TODO: Describe parameter
 414:funsape/peripheral/../globalDefines.hpp ****     // USART_PARITY_NOT_SUPPORTED                          = 0x00B4,   // TODO: Describe parameter
 415:funsape/peripheral/../globalDefines.hpp ****     // USART_STOP_BIT_NOT_SUPPORTED                        = 0x00B5,   // TODO: Describe parameter
 416:funsape/peripheral/../globalDefines.hpp ****     // USART_GENERIC_ERROR_6                               = 0x00B6,   // Generic error (use only o
 417:funsape/peripheral/../globalDefines.hpp ****     // USART_GENERIC_ERROR_7                               = 0x00B7,   // Generic error (use only o
 418:funsape/peripheral/../globalDefines.hpp ****     // USART_GENERIC_ERROR_8                               = 0x00B8,   // Generic error (use only o
 419:funsape/peripheral/../globalDefines.hpp ****     // USART_GENERIC_ERROR_9                               = 0x00B9,   // Generic error (use only o
 420:funsape/peripheral/../globalDefines.hpp ****     // USART_GENERIC_ERROR_10                              = 0x00BA,   // Generic error (use only o
 421:funsape/peripheral/../globalDefines.hpp ****     // USART_GENERIC_ERROR_11                              = 0x00BB,   // Generic error (use only o
 422:funsape/peripheral/../globalDefines.hpp ****     // USART_GENERIC_ERROR_12                              = 0x00BC,   // Generic error (use only o
 423:funsape/peripheral/../globalDefines.hpp ****     // USART_GENERIC_ERROR_13                              = 0x00BD,   // Generic error (use only o
 424:funsape/peripheral/../globalDefines.hpp ****     // USART_GENERIC_ERROR_14                              = 0x00BE,   // Generic error (use only o
 425:funsape/peripheral/../globalDefines.hpp ****     // USART_GENERIC_ERROR_15                              = 0x00BF,   // Generic error (use only o
 426:funsape/peripheral/../globalDefines.hpp **** 
 427:funsape/peripheral/../globalDefines.hpp ****     // LCD related error codes
 428:funsape/peripheral/../globalDefines.hpp ****     // LCD_CONTROL_PORT_NOT_SET                            = 0x00C0,   // TODO: Describe parameter
 429:funsape/peripheral/../globalDefines.hpp ****     // LCD_CONTROL_PIN_E_INVALID                           = 0x00C1,   // TODO: Describe parameter
 430:funsape/peripheral/../globalDefines.hpp ****     // LCD_CONTROL_PIN_RS_INVALID                          = 0x00C2,   // TODO: Describe parameter
 431:funsape/peripheral/../globalDefines.hpp ****     // LCD_CONTROL_PIN_RW_INVALID                          = 0x00C3,   // TODO: Describe parameter
 432:funsape/peripheral/../globalDefines.hpp ****     // LCD_DATA_PORT_NOT_SET                               = 0x00C4,   // TODO: Describe parameter
 433:funsape/peripheral/../globalDefines.hpp ****     // LCD_DATA_PIN_INDEX_OUT_OF_BOUNDARIES                = 0x00C5,   // TODO: Describe parameter
 434:funsape/peripheral/../globalDefines.hpp ****     // LCD_GENERIC_ERROR_6                                 = 0x00C6,   // Generic error (use only o
 435:funsape/peripheral/../globalDefines.hpp ****     // LCD_GENERIC_ERROR_7                                 = 0x00C7,   // Generic error (use only o
 436:funsape/peripheral/../globalDefines.hpp ****     // LCD_GENERIC_ERROR_8                                 = 0x00C8,   // Generic error (use only o
 437:funsape/peripheral/../globalDefines.hpp ****     // LCD_GENERIC_ERROR_9                                 = 0x00C9,   // Generic error (use only o
 438:funsape/peripheral/../globalDefines.hpp ****     // LCD_GENERIC_ERROR_10                                = 0x00CA,   // Generic error (use only o
 439:funsape/peripheral/../globalDefines.hpp ****     // LCD_GENERIC_ERROR_11                                = 0x00CB,   // Generic error (use only o
 440:funsape/peripheral/../globalDefines.hpp ****     // LCD_GENERIC_ERROR_12                                = 0x00CC,   // Generic error (use only o
 441:funsape/peripheral/../globalDefines.hpp ****     // LCD_GENERIC_ERROR_13                                = 0x00CD,   // Generic error (use only o
GAS LISTING C:\Users\kenne\AppData\Local\Temp\ccLL1b4r.s 			page 9


 442:funsape/peripheral/../globalDefines.hpp ****     // LCD_GENERIC_ERROR_14                                = 0x00CE,   // Generic error (use only o
 443:funsape/peripheral/../globalDefines.hpp ****     // LCD_GENERIC_ERROR_15                                = 0x00CF,   // Generic error (use only o
 444:funsape/peripheral/../globalDefines.hpp **** 
 445:funsape/peripheral/../globalDefines.hpp ****     // GPIO related error codes
 446:funsape/peripheral/../globalDefines.hpp ****     GPIO_PORT_NOT_SET                                   = 0x00D0,   // Gpio port was not set before
 447:funsape/peripheral/../globalDefines.hpp ****     GPIO_DATA_PORT_NOT_SET                              = 0x00D1,   // Gpio data port was not set b
 448:funsape/peripheral/../globalDefines.hpp ****     GPIO_CONTROL_PORT_NOT_SET                           = 0x00D2,   // Gpio control port was not se
 449:funsape/peripheral/../globalDefines.hpp ****     GPIO_PORT_INVALID                                   = 0x00D3,   // Gpio port address is invalid
 450:funsape/peripheral/../globalDefines.hpp ****     GPIO_DATA_PORT_INVALID                              = 0x00D4,   // Gpio data port address is in
 451:funsape/peripheral/../globalDefines.hpp ****     GPIO_CONTROL_PORT_INVALID                           = 0x00D5,   // Gpio control port address is
 452:funsape/peripheral/../globalDefines.hpp ****     GPIO_PIN_INDEX_INVALID                              = 0x00D6,   // Invalid GPIO Pin
 453:funsape/peripheral/../globalDefines.hpp ****     GPIO_PIN_INDEX_OUT_OF_BOUNDARIES                    = 0x00D7,   // Gpio pin index was out of bo
 454:funsape/peripheral/../globalDefines.hpp ****     // GPIO_NO_PIN_SET                                     = 0x00D8,   // No pin selected at Gpio p
 455:funsape/peripheral/../globalDefines.hpp ****     // GPIO_ADDRESS_INVALID                                = 0x00D9,   // Invalid GPIO Port
 456:funsape/peripheral/../globalDefines.hpp ****     // GPIO_PORT_LOGIC_CONTENTION                          = 0x00DA,   // TODO: Describe parameter
 457:funsape/peripheral/../globalDefines.hpp ****     // GPIO_GENERIC_ERROR_11                               = 0x00DB,   // Generic error (use only o
 458:funsape/peripheral/../globalDefines.hpp ****     // GPIO_GENERIC_ERROR_12                               = 0x00DC,   // Generic error (use only o
 459:funsape/peripheral/../globalDefines.hpp ****     // GPIO_GENERIC_ERROR_13                               = 0x00DD,   // Generic error (use only o
 460:funsape/peripheral/../globalDefines.hpp ****     // GPIO_GENERIC_ERROR_14                               = 0x00DE,   // Generic error (use only o
 461:funsape/peripheral/../globalDefines.hpp ****     // GPIO_GENERIC_ERROR_15                               = 0x00DF,   // Generic error (use only o
 462:funsape/peripheral/../globalDefines.hpp **** 
 463:funsape/peripheral/../globalDefines.hpp ****     // HAL related error codes
 464:funsape/peripheral/../globalDefines.hpp ****     // HAL_UNKNOWN_ERROR                                   = 0x00E0,   // TODO: Describe parameter
 465:funsape/peripheral/../globalDefines.hpp ****     // HAL_STATUS_ERROR                                    = 0x00E1,   // TODO: Describe parameter
 466:funsape/peripheral/../globalDefines.hpp ****     // HAL_STATUS_BUSY                                     = 0x00E2,   // TODO: Describe parameter
 467:funsape/peripheral/../globalDefines.hpp ****     // HAL_STATUS_TIMEOUT                                  = 0x00E3,   // TODO: Describe parameter
 468:funsape/peripheral/../globalDefines.hpp ****     // HAL_GENERIC_ERROR_4                                 = 0x00E4,   // Generic error (use only o
 469:funsape/peripheral/../globalDefines.hpp ****     // HAL_GENERIC_ERROR_5                                 = 0x00E5,   // Generic error (use only o
 470:funsape/peripheral/../globalDefines.hpp ****     // HAL_GENERIC_ERROR_6                                 = 0x00E6,   // Generic error (use only o
 471:funsape/peripheral/../globalDefines.hpp ****     // HAL_GENERIC_ERROR_7                                 = 0x00E7,   // Generic error (use only o
 472:funsape/peripheral/../globalDefines.hpp ****     // HAL_GENERIC_ERROR_8                                 = 0x00E8,   // Generic error (use only o
 473:funsape/peripheral/../globalDefines.hpp ****     // HAL_GENERIC_ERROR_9                                 = 0x00E9,   // Generic error (use only o
 474:funsape/peripheral/../globalDefines.hpp ****     // HAL_GENERIC_ERROR_10                                = 0x00EA,   // Generic error (use only o
 475:funsape/peripheral/../globalDefines.hpp ****     // HAL_GENERIC_ERROR_11                                = 0x00EB,   // Generic error (use only o
 476:funsape/peripheral/../globalDefines.hpp ****     // HAL_GENERIC_ERROR_12                                = 0x00EC,   // Generic error (use only o
 477:funsape/peripheral/../globalDefines.hpp ****     // HAL_GENERIC_ERROR_13                                = 0x00ED,   // Generic error (use only o
 478:funsape/peripheral/../globalDefines.hpp ****     // HAL_GENERIC_ERROR_14                                = 0x00EE,   // Generic error (use only o
 479:funsape/peripheral/../globalDefines.hpp ****     // HAL_GENERIC_ERROR_15                                = 0x00EF,   // Generic error (use only o
 480:funsape/peripheral/../globalDefines.hpp **** 
 481:funsape/peripheral/../globalDefines.hpp ****     // System related error codes
 482:funsape/peripheral/../globalDefines.hpp ****     // SYSTEM_US_TIMER_HANDLER_NULL                        = 0x00F0,   // TODO: Describe parameter
 483:funsape/peripheral/../globalDefines.hpp ****     // SYSTEM_GENERIC_ERROR_1                              = 0x00F1,   // Generic error (use only o
 484:funsape/peripheral/../globalDefines.hpp ****     // SYSTEM_GENERIC_ERROR_2                              = 0x00F2,   // Generic error (use only o
 485:funsape/peripheral/../globalDefines.hpp ****     // SYSTEM_GENERIC_ERROR_3                              = 0x00F3,   // Generic error (use only o
 486:funsape/peripheral/../globalDefines.hpp ****     // SYSTEM_GENERIC_ERROR_4                              = 0x00F4,   // Generic error (use only o
 487:funsape/peripheral/../globalDefines.hpp ****     // SYSTEM_GENERIC_ERROR_5                              = 0x00F5,   // Generic error (use only o
 488:funsape/peripheral/../globalDefines.hpp ****     // SYSTEM_GENERIC_ERROR_6                              = 0x00F6,   // Generic error (use only o
 489:funsape/peripheral/../globalDefines.hpp ****     // SYSTEM_GENERIC_ERROR_7                              = 0x00F7,   // Generic error (use only o
 490:funsape/peripheral/../globalDefines.hpp ****     // SYSTEM_GENERIC_ERROR_8                              = 0x00F8,   // Generic error (use only o
 491:funsape/peripheral/../globalDefines.hpp ****     // SYSTEM_GENERIC_ERROR_9                              = 0x00F9,   // Generic error (use only o
 492:funsape/peripheral/../globalDefines.hpp ****     // SYSTEM_GENERIC_ERROR_10                             = 0x00FA,   // Generic error (use only o
 493:funsape/peripheral/../globalDefines.hpp ****     // SYSTEM_GENERIC_ERROR_11                             = 0x00FB,   // Generic error (use only o
 494:funsape/peripheral/../globalDefines.hpp ****     // SYSTEM_GENERIC_ERROR_12                             = 0x00FC,   // Generic error (use only o
 495:funsape/peripheral/../globalDefines.hpp ****     // SYSTEM_GENERIC_ERROR_13                             = 0x00FD,   // Generic error (use only o
 496:funsape/peripheral/../globalDefines.hpp ****     // SYSTEM_GENERIC_ERROR_14                             = 0x00FE,   // Generic error (use only o
 497:funsape/peripheral/../globalDefines.hpp ****     // SYSTEM_GENERIC_ERROR_15                             = 0x00FF,   // Generic error (use only o
 498:funsape/peripheral/../globalDefines.hpp **** 
GAS LISTING C:\Users\kenne\AppData\Local\Temp\ccLL1b4r.s 			page 10


 499:funsape/peripheral/../globalDefines.hpp ****     // FatFs related error codes
 500:funsape/peripheral/../globalDefines.hpp ****     // FAT_FS_UNKNOWN_ERROR                                = 0x0100,   // TODO: Describe parameter
 501:funsape/peripheral/../globalDefines.hpp ****     // FAT_FS_DRIVE_UNSUPPORTED                            = 0x0101,   // TODO: Describe parameter
 502:funsape/peripheral/../globalDefines.hpp ****     // FAT_FS_DISK_NOT_INSERTED                            = 0x0102,   // TODO: Describe parameter
 503:funsape/peripheral/../globalDefines.hpp ****     // FAT_FS_INITIALIZATION_FAILED                        = 0x0103,   // TODO: Describe parameter
 504:funsape/peripheral/../globalDefines.hpp ****     // FAT_FS_GENERIC_ERROR_4                              = 0x0104,   // Generic error (use only o
 505:funsape/peripheral/../globalDefines.hpp ****     // FAT_FS_GENERIC_ERROR_5                              = 0x0105,   // Generic error (use only o
 506:funsape/peripheral/../globalDefines.hpp ****     // FAT_FS_GENERIC_ERROR_6                              = 0x0106,   // Generic error (use only o
 507:funsape/peripheral/../globalDefines.hpp ****     // FAT_FS_GENERIC_ERROR_7                              = 0x0107,   // Generic error (use only o
 508:funsape/peripheral/../globalDefines.hpp ****     // FAT_FS_GENERIC_ERROR_8                              = 0x0108,   // Generic error (use only o
 509:funsape/peripheral/../globalDefines.hpp ****     // FAT_FS_GENERIC_ERROR_9                              = 0x0109,   // Generic error (use only o
 510:funsape/peripheral/../globalDefines.hpp ****     // FAT_FS_GENERIC_ERROR_10                             = 0x010A,   // Generic error (use only o
 511:funsape/peripheral/../globalDefines.hpp ****     // FAT_FS_GENERIC_ERROR_11                             = 0x010B,   // Generic error (use only o
 512:funsape/peripheral/../globalDefines.hpp ****     // FAT_FS_GENERIC_ERROR_12                             = 0x010C,   // Generic error (use only o
 513:funsape/peripheral/../globalDefines.hpp ****     // FAT_FS_GENERIC_ERROR_13                             = 0x010D,   // Generic error (use only o
 514:funsape/peripheral/../globalDefines.hpp ****     // FAT_FS_GENERIC_ERROR_14                             = 0x010E,   // Generic error (use only o
 515:funsape/peripheral/../globalDefines.hpp ****     // FAT_FS_GENERIC_ERROR_15                             = 0x010F,   // Generic error (use only o
 516:funsape/peripheral/../globalDefines.hpp **** 
 517:funsape/peripheral/../globalDefines.hpp ****     // Uncategorized error codes
 518:funsape/peripheral/../globalDefines.hpp ****     // LCD_OUT_OF_BOUNDARIES                               = 0xFFF1,   // TODO: Describe parameter
 519:funsape/peripheral/../globalDefines.hpp ****     // CONTROLLER_NOT_SUPPORTED                            = 0xFFF2,   // Unsupported controller
 520:funsape/peripheral/../globalDefines.hpp ****     // DEVICE_ID_MATCH_FAILED                              = 0xFFF3,   // Device ID doesn't match
 521:funsape/peripheral/../globalDefines.hpp ****     // DMA_NOT_SUPPORTED                                   = 0xFFF4,   // DMA interface mode is not
 522:funsape/peripheral/../globalDefines.hpp ****     // DMA_TRANSFER_ERROR                                  = 0xFFF5,   // DMA transfer error
 523:funsape/peripheral/../globalDefines.hpp ****     // MESSAGE_TOO_LONG                                    = 0xFFF6,   // Message is to long to be 
 524:funsape/peripheral/../globalDefines.hpp ****     // VALID_DATA_NOT_AVAILABLE                            = 0xFFF7,   // Valid data was unavailabl
 525:funsape/peripheral/../globalDefines.hpp ****     // PERIPHERAL_NOT_READY                                = 0xFFF8,   // TODO: Describe parameter
 526:funsape/peripheral/../globalDefines.hpp ****     // STOPWATCH_NOT_STARTED                               = 0xFFF9,   // TODO: Describe parameter
 527:funsape/peripheral/../globalDefines.hpp ****     // UNCATEGORIZED_GENERIC_ERROR_10                      = 0xFFFA,   // Generic error (use only o
 528:funsape/peripheral/../globalDefines.hpp ****     // UNCATEGORIZED_GENERIC_ERROR_11                      = 0xFFFB,   // Generic error (use only o
 529:funsape/peripheral/../globalDefines.hpp ****     // UNCATEGORIZED_GENERIC_ERROR_12                      = 0xFFFC,   // Generic error (use only o
 530:funsape/peripheral/../globalDefines.hpp ****     // UNCATEGORIZED_GENERIC_ERROR_13                      = 0xFFFD,   // Generic error (use only o
 531:funsape/peripheral/../globalDefines.hpp ****     // UNCATEGORIZED_GENERIC_ERROR_14                      = 0xFFFE,   // Generic error (use only o
 532:funsape/peripheral/../globalDefines.hpp **** 
 533:funsape/peripheral/../globalDefines.hpp ****     KEYPAD_COLUMNS_PIN_INDEX_INVALID                    = 0xFFF9,
 534:funsape/peripheral/../globalDefines.hpp ****     KEYPAD_LINES_PIN_INDEX_INVALID                      = 0xFFFA,
 535:funsape/peripheral/../globalDefines.hpp **** 
 536:funsape/peripheral/../globalDefines.hpp ****     KEYPAD_LINES_GPIO_PORT_INVALID                      = 0xFFFB,
 537:funsape/peripheral/../globalDefines.hpp ****     KEYPAD_COLUMNS_GPIO_PORT_INVALID                    = 0xFFFC,
 538:funsape/peripheral/../globalDefines.hpp ****     KEYPAD_TYPE_UNSUPPORTED                             = 0xFFFD,
 539:funsape/peripheral/../globalDefines.hpp ****     KEY_VALUES_NOT_SET                                  = 0xFFFE,
 540:funsape/peripheral/../globalDefines.hpp ****     // "I don't have the slightest idea" error code
 541:funsape/peripheral/../globalDefines.hpp ****     UNKNOWN                                             = 0xFFFF,   // Unknown error - Ops!!!!
 542:funsape/peripheral/../globalDefines.hpp **** };
 543:funsape/peripheral/../globalDefines.hpp **** 
 544:funsape/peripheral/../globalDefines.hpp **** // =============================================================================
 545:funsape/peripheral/../globalDefines.hpp **** // Macrofunctions
 546:funsape/peripheral/../globalDefines.hpp **** // =============================================================================
 547:funsape/peripheral/../globalDefines.hpp **** 
 548:funsape/peripheral/../globalDefines.hpp **** //     //////////////////////     DATA VALIDITY    //////////////////////     //
 549:funsape/peripheral/../globalDefines.hpp **** #define isGpioAddressValid(gpioPort)    (       \
 550:funsape/peripheral/../globalDefines.hpp ****         (IS_GPIO_ALL_INSTANCE(gpioPort))        \
 551:funsape/peripheral/../globalDefines.hpp ****         ? (bool_t)true                          \
 552:funsape/peripheral/../globalDefines.hpp ****         : (bool_t)false)
 553:funsape/peripheral/../globalDefines.hpp **** #define isGpioPinIndexValid(gpioPin)    (       \
 554:funsape/peripheral/../globalDefines.hpp ****         (IS_GPIO_ALL_PIN_NUMBER(gpioPin))       \
 555:funsape/peripheral/../globalDefines.hpp ****         ? (bool_t)true                          \
GAS LISTING C:\Users\kenne\AppData\Local\Temp\ccLL1b4r.s 			page 11


 556:funsape/peripheral/../globalDefines.hpp ****         : (bool_t)false)
 557:funsape/peripheral/../globalDefines.hpp **** #define isPointerValid(ptr)             (       \
 558:funsape/peripheral/../globalDefines.hpp ****         ((void *)(ptr))                         \
 559:funsape/peripheral/../globalDefines.hpp ****         ? (bool_t)true                          \
 560:funsape/peripheral/../globalDefines.hpp ****         : (bool_t)false)
 561:funsape/peripheral/../globalDefines.hpp **** 
 562:funsape/peripheral/../globalDefines.hpp **** //     //////////////////////     BIT HANDLING     //////////////////////     //
 563:funsape/peripheral/../globalDefines.hpp **** #ifndef setBit
 564:funsape/peripheral/../globalDefines.hpp **** #   define setBit(reg, bit)                     ((reg) |= (1 << (bit)))
 565:funsape/peripheral/../globalDefines.hpp **** #endif
 566:funsape/peripheral/../globalDefines.hpp **** #ifndef clrBit
 567:funsape/peripheral/../globalDefines.hpp **** #   define clrBit(reg, bit)                     ((reg) &= ~(1 << (bit)))
 568:funsape/peripheral/../globalDefines.hpp **** #endif
 569:funsape/peripheral/../globalDefines.hpp **** #ifndef cplBit
 570:funsape/peripheral/../globalDefines.hpp **** #   define cplBit(reg, bit)                     ((reg) ^= (1 << (bit)))
 571:funsape/peripheral/../globalDefines.hpp **** #endif
 572:funsape/peripheral/../globalDefines.hpp **** 
 573:funsape/peripheral/../globalDefines.hpp **** //     ///////////////////////     BIT TESTING    ///////////////////////     //
 574:funsape/peripheral/../globalDefines.hpp **** #ifndef isBitSet
 575:funsape/peripheral/../globalDefines.hpp **** #   define isBitSet(reg, bit)                   (((reg) >> (bit)) & 1)
 576:funsape/peripheral/../globalDefines.hpp **** #endif
 577:funsape/peripheral/../globalDefines.hpp **** #ifndef isBitClr
 578:funsape/peripheral/../globalDefines.hpp **** #   define isBitClr(reg, bit)                   (!isBitSet(reg,bit))
 579:funsape/peripheral/../globalDefines.hpp **** #endif
 580:funsape/peripheral/../globalDefines.hpp **** 
 581:funsape/peripheral/../globalDefines.hpp **** //     ///////////////////////     BIT LOOPING    ///////////////////////     //
 582:funsape/peripheral/../globalDefines.hpp **** #ifndef waitUntilBitIsSet
 583:funsape/peripheral/../globalDefines.hpp **** #   define waitUntilBitIsSet(reg, bit)          do{     \
 584:funsape/peripheral/../globalDefines.hpp ****         doNothing();                                    \
 585:funsape/peripheral/../globalDefines.hpp ****     } while (isBitClr((reg), (bit)))
 586:funsape/peripheral/../globalDefines.hpp **** #endif
 587:funsape/peripheral/../globalDefines.hpp **** #ifndef waitUntilBitIsClear
 588:funsape/peripheral/../globalDefines.hpp **** #   define waitUntilBitIsClear(reg, bit)        do{     \
 589:funsape/peripheral/../globalDefines.hpp ****         doNothing();                                    \
 590:funsape/peripheral/../globalDefines.hpp ****     }while(isBitSet((reg), (bit)))
 591:funsape/peripheral/../globalDefines.hpp **** #endif
 592:funsape/peripheral/../globalDefines.hpp **** 
 593:funsape/peripheral/../globalDefines.hpp **** //     ////////////////////     BIT MASK HANDLING    ////////////////////     //
 594:funsape/peripheral/../globalDefines.hpp **** #ifndef setMask
 595:funsape/peripheral/../globalDefines.hpp **** #   define setMask(reg, mask)                   ((reg) |= (mask))
 596:funsape/peripheral/../globalDefines.hpp **** #endif
 597:funsape/peripheral/../globalDefines.hpp **** #ifndef clrMask
 598:funsape/peripheral/../globalDefines.hpp **** #   define clrMask(reg, mask)                   ((reg) &= ~(mask))
 599:funsape/peripheral/../globalDefines.hpp **** #endif
 600:funsape/peripheral/../globalDefines.hpp **** #ifndef cplMask
 601:funsape/peripheral/../globalDefines.hpp **** #   define cplMask(reg, mask)                   ((reg) ^= (mask))
 602:funsape/peripheral/../globalDefines.hpp **** #endif
 603:funsape/peripheral/../globalDefines.hpp **** 
 604:funsape/peripheral/../globalDefines.hpp **** //     ////////////////     BIT MASK OFFSET HANDLING     ////////////////     //
 605:funsape/peripheral/../globalDefines.hpp **** #ifndef setMaskOffset
 606:funsape/peripheral/../globalDefines.hpp **** #   define setMaskOffset(reg, mask, offset)     ((reg) |= ((mask) << (offset)))
 607:funsape/peripheral/../globalDefines.hpp **** #endif
 608:funsape/peripheral/../globalDefines.hpp **** #ifndef clrMaskOffset
 609:funsape/peripheral/../globalDefines.hpp **** #   define clrMaskOffset(reg, mask, offset)     ((reg) &= ~((mask) << (offset)))
 610:funsape/peripheral/../globalDefines.hpp **** #endif
 611:funsape/peripheral/../globalDefines.hpp **** #ifndef cplMaskOffset
 612:funsape/peripheral/../globalDefines.hpp **** #   define cplMaskOffset(reg, mask, offset)     ((reg) ^= ((mask) << (offset)))
GAS LISTING C:\Users\kenne\AppData\Local\Temp\ccLL1b4r.s 			page 12


 613:funsape/peripheral/../globalDefines.hpp **** #endif
 614:funsape/peripheral/../globalDefines.hpp **** 
 615:funsape/peripheral/../globalDefines.hpp **** //     /////////////     DATA MANIPULATION (8-BITS WIDE)    /////////////     //
 616:funsape/peripheral/../globalDefines.hpp **** #define byteGetNibble1(dataByte)        (((dataByte) >> 4) & 0x0F)
 617:funsape/peripheral/../globalDefines.hpp **** #define byteGetNibble0(dataByte)        ((dataByte) & 0x0F)
 618:funsape/peripheral/../globalDefines.hpp **** #define byteSwitchNibbles(dataByte)     ((byteGetNibble0(dataByte) << 4) | \
 619:funsape/peripheral/../globalDefines.hpp ****         (byteGetNibble1(dataByte)))
 620:funsape/peripheral/../globalDefines.hpp **** 
 621:funsape/peripheral/../globalDefines.hpp **** //     ////////////     DATA MANIPULATION (16-BITS WIDE)     ////////////     //
 622:funsape/peripheral/../globalDefines.hpp **** #define hwordGetByte1(dataHword)        (((dataHword) >> 8) & 0x00FF)
 623:funsape/peripheral/../globalDefines.hpp **** #define hwordGetByte0(dataHword)        ((dataHword) & 0x00FF)
 624:funsape/peripheral/../globalDefines.hpp **** #define hwordSwitchBytes(dataHword)     ((hwordGetByte0(dataHword) << 8) | \
 625:funsape/peripheral/../globalDefines.hpp ****         (hwordGetByte1(dataHword)))
 626:funsape/peripheral/../globalDefines.hpp **** 
 627:funsape/peripheral/../globalDefines.hpp **** //     ////////////     DATA MANIPULATION (32-BITS WIDE)     ////////////     //
 628:funsape/peripheral/../globalDefines.hpp **** #define wordGetByte3(dataWord)          (((dataWord) >> 24) & 0x000000FF)
 629:funsape/peripheral/../globalDefines.hpp **** #define wordGetByte2(dataWord)          (((dataWord) >> 16) & 0x000000FF)
 630:funsape/peripheral/../globalDefines.hpp **** #define wordGetByte1(dataWord)          (((dataWord) >> 8) & 0x000000FF)
 631:funsape/peripheral/../globalDefines.hpp **** #define wordGetByte0(dataWord)          ((dataWord) & 0x000000FF)
 632:funsape/peripheral/../globalDefines.hpp **** #define wordSwitchBytes(dataWord)       ((wordGetByte0(dataWord) << 24)  | \
 633:funsape/peripheral/../globalDefines.hpp ****         (wordGetByte1(dataWord) << 16) | \
 634:funsape/peripheral/../globalDefines.hpp ****         (wordGetByte2(dataWord) << 8)  | \
 635:funsape/peripheral/../globalDefines.hpp ****         (wordGetByte3(dataWord)))
 636:funsape/peripheral/../globalDefines.hpp **** #define wordGetHword1(dataWord)         (((dataWord) >> 16) & 0x0000FFFF)
 637:funsape/peripheral/../globalDefines.hpp **** #define wordGetHword0(dataWord)         ((dataWord) & 0x0000FFFF)
 638:funsape/peripheral/../globalDefines.hpp **** #define wordSwitchHwords(dataWord)      ((wordGetHword0(dataWord) << 16) | \
 639:funsape/peripheral/../globalDefines.hpp ****         (wordGetHword1(dataWord)))
 640:funsape/peripheral/../globalDefines.hpp **** 
 641:funsape/peripheral/../globalDefines.hpp **** //     ////////////     DATA MANIPULATION (64-BITS WIDE)     ////////////     //
 642:funsape/peripheral/../globalDefines.hpp **** #define dwordGetByte7(dataDword)        (((dataDword) >> 56) & 0x00000000000000FF)
 643:funsape/peripheral/../globalDefines.hpp **** #define dwordGetByte6(dataDword)        (((dataDword) >> 48) & 0x00000000000000FF)
 644:funsape/peripheral/../globalDefines.hpp **** #define dwordGetByte5(dataDword)        (((dataDword) >> 40) & 0x00000000000000FF)
 645:funsape/peripheral/../globalDefines.hpp **** #define dwordGetByte4(dataDword)        (((dataDword) >> 32) & 0x00000000000000FF)
 646:funsape/peripheral/../globalDefines.hpp **** #define dwordGetByte3(dataDword)        (((dataDword) >> 24) & 0x00000000000000FF)
 647:funsape/peripheral/../globalDefines.hpp **** #define dwordGetByte2(dataDword)        (((dataDword) >> 16) & 0x00000000000000FF)
 648:funsape/peripheral/../globalDefines.hpp **** #define dwordGetByte1(dataDword)        (((dataDword) >> 8) & 0x00000000000000FF)
 649:funsape/peripheral/../globalDefines.hpp **** #define dwordGetByte0(dataDword)        ((dataDword) & 0x00000000000000FF)
 650:funsape/peripheral/../globalDefines.hpp **** #define dwordSwitchBytes(dataDword)     ((dwordGetByte0(dataDword) << 56)  | \
 651:funsape/peripheral/../globalDefines.hpp ****         (dwordGetByte1(dataDword) << 48) | \
 652:funsape/peripheral/../globalDefines.hpp ****         (dwordGetByte2(dataDword) << 40) | \
 653:funsape/peripheral/../globalDefines.hpp ****         (dwordGetByte3(dataDword) << 32) | \
 654:funsape/peripheral/../globalDefines.hpp ****         (dwordGetByte4(dataDword) << 24) | \
 655:funsape/peripheral/../globalDefines.hpp ****         (dwordGetByte5(dataDword) << 16) | \
 656:funsape/peripheral/../globalDefines.hpp ****         (dwordGetByte6(dataDword) << 8)  | \
 657:funsape/peripheral/../globalDefines.hpp ****         (dwordGetByte7(dataDword)))
 658:funsape/peripheral/../globalDefines.hpp **** #define dwordGetHword3(dataDword)       ((dataDword >> 48) & 0x000000000000FFFF)
 659:funsape/peripheral/../globalDefines.hpp **** #define dwordGetHword2(dataDword)       ((dataDword >> 32) & 0x000000000000FFFF)
 660:funsape/peripheral/../globalDefines.hpp **** #define dwordGetHword1(dataDword)       ((dataDword >> 16) & 0x000000000000FFFF)
 661:funsape/peripheral/../globalDefines.hpp **** #define dwordGetHword0(dataDword)       ((dataDword >> 0) & 0x000000000000FFFF)
 662:funsape/peripheral/../globalDefines.hpp **** #define dwordSwitchHwords(dataDword)    ((dwordGetHword0(dataDword) << 48)  | \
 663:funsape/peripheral/../globalDefines.hpp ****         (dwordGetHword1(dataDword) << 32) | \
 664:funsape/peripheral/../globalDefines.hpp ****         (dwordGetHword2(dataDword) << 16) | \
 665:funsape/peripheral/../globalDefines.hpp ****         (dwordGetHword3(dataDword)))
 666:funsape/peripheral/../globalDefines.hpp **** #define dwordGetWord1(dataDword)         (((dataDword) >> 32) & 0x00000000FFFFFFFF)
 667:funsape/peripheral/../globalDefines.hpp **** #define dwordGetWord0(dataDword)         ((dataDword) & 0x00000000FFFFFFFF)
 668:funsape/peripheral/../globalDefines.hpp **** #define dwordSwitchWords(dataDword)     ((dwordGetWord0(dataDword) << 32)  | \
 669:funsape/peripheral/../globalDefines.hpp ****         (dwordGetWord1(dataDword)))
GAS LISTING C:\Users\kenne\AppData\Local\Temp\ccLL1b4r.s 			page 13


 670:funsape/peripheral/../globalDefines.hpp **** 
 671:funsape/peripheral/../globalDefines.hpp **** //     /////////////////////     TRUNCATE VALUES    /////////////////////     //
 672:funsape/peripheral/../globalDefines.hpp **** #define getMaximumOf(var1, var2)        (       \
 673:funsape/peripheral/../globalDefines.hpp ****         ((var1) > (var2))                       \
 674:funsape/peripheral/../globalDefines.hpp ****         ? (var1)                                \
 675:funsape/peripheral/../globalDefines.hpp ****         : (var2))
 676:funsape/peripheral/../globalDefines.hpp **** #define getMinimumOf(var1, var2)        (       \
 677:funsape/peripheral/../globalDefines.hpp ****         ((var1) < (var2))                       \
 678:funsape/peripheral/../globalDefines.hpp ****         ? (var1)                                \
 679:funsape/peripheral/../globalDefines.hpp ****         : (var2))
 680:funsape/peripheral/../globalDefines.hpp **** #define truncateBetween(var, min, max)  (       \
 681:funsape/peripheral/../globalDefines.hpp ****         ((var) < (min))                         \
 682:funsape/peripheral/../globalDefines.hpp ****         ? (min)                                 \
 683:funsape/peripheral/../globalDefines.hpp ****         : (((var) > (max))                      \
 684:funsape/peripheral/../globalDefines.hpp ****                 ? (max)                         \
 685:funsape/peripheral/../globalDefines.hpp ****                 : (var)                         \
 686:funsape/peripheral/../globalDefines.hpp ****         ))
 687:funsape/peripheral/../globalDefines.hpp **** 
 688:funsape/peripheral/../globalDefines.hpp **** //     //////////////////////     STRINGIFYING    ///////////////////////     //
 689:funsape/peripheral/../globalDefines.hpp **** #define stringifyName(constant)         #constant
 690:funsape/peripheral/../globalDefines.hpp **** #define stringifyValue(constant)        stringifyName(constant)
 691:funsape/peripheral/../globalDefines.hpp **** 
 692:funsape/peripheral/../globalDefines.hpp **** // =============================================================================
 693:funsape/peripheral/../globalDefines.hpp **** // Extern global variables
 694:funsape/peripheral/../globalDefines.hpp **** // =============================================================================
 695:funsape/peripheral/../globalDefines.hpp **** 
 696:funsape/peripheral/../globalDefines.hpp **** // NONE
 697:funsape/peripheral/../globalDefines.hpp **** 
 698:funsape/peripheral/../globalDefines.hpp **** // =============================================================================
 699:funsape/peripheral/../globalDefines.hpp **** // Inline functions declaration
 700:funsape/peripheral/../globalDefines.hpp **** // =============================================================================
 701:funsape/peripheral/../globalDefines.hpp **** 
 702:funsape/peripheral/../globalDefines.hpp **** //     ///////////////////     CHARACTER HANDLING    ////////////////////     //
 703:funsape/peripheral/../globalDefines.hpp **** char_t inlined toLowerCase(cchar_t character_p);
 704:funsape/peripheral/../globalDefines.hpp **** char_t inlined toUpperCase(cchar_t character_p);
 705:funsape/peripheral/../globalDefines.hpp **** 
 706:funsape/peripheral/../globalDefines.hpp **** //     /////////////////////     DATA VALIDITY     //////////////////////     //
 707:funsape/peripheral/../globalDefines.hpp **** bool_t inlined isAsciiLowerCaseLetter(cchar_t character_p);
 708:funsape/peripheral/../globalDefines.hpp **** bool_t inlined isAsciiUpperCaseLetter(cchar_t character_p);
 709:funsape/peripheral/../globalDefines.hpp **** bool_t inlined isAsciiCommand(cchar_t character_p);
 710:funsape/peripheral/../globalDefines.hpp **** bool_t inlined isAsciiLetter(cchar_t character_p);
 711:funsape/peripheral/../globalDefines.hpp **** bool_t inlined isAsciiNumber(cchar_t character_p);
 712:funsape/peripheral/../globalDefines.hpp **** bool_t inlined isAsciiSymbol(cchar_t character_p);
 713:funsape/peripheral/../globalDefines.hpp **** 
 714:funsape/peripheral/../globalDefines.hpp **** //     /////////////////////     SYSTEM ACTIONS    //////////////////////     //
 715:funsape/peripheral/../globalDefines.hpp **** void inlined die(Error errorCode_p);
 716:funsape/peripheral/../globalDefines.hpp **** void inlined doNop(void);
 717:funsape/peripheral/../globalDefines.hpp **** void inlined doNothing(void);
 718:funsape/peripheral/../globalDefines.hpp **** void inlined systemHalt(void (*function_p)(void) = nullptr);
 719:funsape/peripheral/../globalDefines.hpp **** 
 720:funsape/peripheral/../globalDefines.hpp **** // =============================================================================
 721:funsape/peripheral/../globalDefines.hpp **** // Inline functions definitions
 722:funsape/peripheral/../globalDefines.hpp **** // =============================================================================
 723:funsape/peripheral/../globalDefines.hpp **** 
 724:funsape/peripheral/../globalDefines.hpp **** //     ///////////////////     CHARACTER HANDLING    ////////////////////     //
 725:funsape/peripheral/../globalDefines.hpp **** char_t inlined toLowerCase(cchar_t character_p)
 726:funsape/peripheral/../globalDefines.hpp **** {
GAS LISTING C:\Users\kenne\AppData\Local\Temp\ccLL1b4r.s 			page 14


 727:funsape/peripheral/../globalDefines.hpp ****     return ((isAsciiUpperCaseLetter(character_p)) ? (character_p + 0x20) : character_p);
 728:funsape/peripheral/../globalDefines.hpp **** }
 729:funsape/peripheral/../globalDefines.hpp **** 
 730:funsape/peripheral/../globalDefines.hpp **** char_t inlined toUpperCase(cchar_t character_p)
 731:funsape/peripheral/../globalDefines.hpp **** {
 732:funsape/peripheral/../globalDefines.hpp ****     return ((isAsciiLowerCaseLetter(character_p)) ? (character_p - 0x20) : character_p);
 733:funsape/peripheral/../globalDefines.hpp **** }
 734:funsape/peripheral/../globalDefines.hpp **** 
 735:funsape/peripheral/../globalDefines.hpp **** //     /////////////////////     DATA VALIDITY     //////////////////////     //
 736:funsape/peripheral/../globalDefines.hpp **** bool_t inlined isAsciiLowerCaseLetter(cchar_t character_p)
 737:funsape/peripheral/../globalDefines.hpp **** {
 738:funsape/peripheral/../globalDefines.hpp ****     return ((bool_t)(((character_p >= 'a') && (character_p <= 'z')) ? true : false));
 739:funsape/peripheral/../globalDefines.hpp **** }
 740:funsape/peripheral/../globalDefines.hpp **** 
 741:funsape/peripheral/../globalDefines.hpp **** bool_t inlined isAsciiUpperCaseLetter(cchar_t character_p)
 742:funsape/peripheral/../globalDefines.hpp **** {
 743:funsape/peripheral/../globalDefines.hpp ****     return ((bool_t)(((character_p >= 'A') && (character_p <= 'Z')) ? true : false));
 744:funsape/peripheral/../globalDefines.hpp **** }
 745:funsape/peripheral/../globalDefines.hpp **** 
 746:funsape/peripheral/../globalDefines.hpp **** bool_t inlined isAsciiCommand(cchar_t character_p)
 747:funsape/peripheral/../globalDefines.hpp **** {
 748:funsape/peripheral/../globalDefines.hpp ****     return ((bool_t)((character_p < ' ') ? true : false));
 749:funsape/peripheral/../globalDefines.hpp **** }
 750:funsape/peripheral/../globalDefines.hpp **** 
 751:funsape/peripheral/../globalDefines.hpp **** bool_t inlined isAsciiLetter(cchar_t character_p)
 752:funsape/peripheral/../globalDefines.hpp **** {
 753:funsape/peripheral/../globalDefines.hpp ****     return ((bool_t)((isAsciiLowerCaseLetter(character_p) || (isAsciiUpperCaseLetter(character_p)) 
 754:funsape/peripheral/../globalDefines.hpp **** }
 755:funsape/peripheral/../globalDefines.hpp **** 
 756:funsape/peripheral/../globalDefines.hpp **** bool_t inlined isAsciiNumber(cchar_t character_p)
 757:funsape/peripheral/../globalDefines.hpp **** {
 758:funsape/peripheral/../globalDefines.hpp ****     return ((bool_t)(((character_p >= '0') && (character_p <= '9')) ? true : false));
 759:funsape/peripheral/../globalDefines.hpp **** }
 760:funsape/peripheral/../globalDefines.hpp **** 
 761:funsape/peripheral/../globalDefines.hpp **** bool_t inlined isAsciiSymbol(cchar_t character_p)
 762:funsape/peripheral/../globalDefines.hpp **** {
 763:funsape/peripheral/../globalDefines.hpp ****     return ((bool_t)(((!isAsciiNumber(character_p)) && (!isAsciiCommand(character_p)) &&
 764:funsape/peripheral/../globalDefines.hpp ****                                     (!isAsciiLetter(character_p))) ? true : false));
 765:funsape/peripheral/../globalDefines.hpp **** }
 766:funsape/peripheral/../globalDefines.hpp **** 
 767:funsape/peripheral/../globalDefines.hpp **** //     /////////////////////     SYSTEM ACTIONS    //////////////////////     //
 768:funsape/peripheral/../globalDefines.hpp **** void inlined die(Error errorCode_p)
 769:funsape/peripheral/../globalDefines.hpp **** {
 770:funsape/peripheral/../globalDefines.hpp ****     printf("Failed with error=%u (0x%04x).\r", (cuint16_t)errorCode_p, (cuint16_t)errorCode_p);
 771:funsape/peripheral/../globalDefines.hpp ****     systemHalt();
 772:funsape/peripheral/../globalDefines.hpp **** 
 773:funsape/peripheral/../globalDefines.hpp ****     return;
 774:funsape/peripheral/../globalDefines.hpp **** }
 775:funsape/peripheral/../globalDefines.hpp **** 
 776:funsape/peripheral/../globalDefines.hpp **** void inlined doNop(void)
 777:funsape/peripheral/../globalDefines.hpp **** {
 778:funsape/peripheral/../globalDefines.hpp ****     asm volatile("nop");
 779:funsape/peripheral/../globalDefines.hpp **** 
 780:funsape/peripheral/../globalDefines.hpp ****     return;
 781:funsape/peripheral/../globalDefines.hpp **** }
 782:funsape/peripheral/../globalDefines.hpp **** 
 783:funsape/peripheral/../globalDefines.hpp **** void inlined doNothing(void)
GAS LISTING C:\Users\kenne\AppData\Local\Temp\ccLL1b4r.s 			page 15


 784:funsape/peripheral/../globalDefines.hpp **** {
 785:funsape/peripheral/../globalDefines.hpp ****     return;
 786:funsape/peripheral/../globalDefines.hpp **** }
 787:funsape/peripheral/../globalDefines.hpp **** 
 788:funsape/peripheral/../globalDefines.hpp **** void inlined systemHalt(void (*function_p)(void))
 789:funsape/peripheral/../globalDefines.hpp **** {
 790:funsape/peripheral/../globalDefines.hpp ****     if(isPointerValid(function_p)) {
 791:funsape/peripheral/../globalDefines.hpp ****         function_p();
 792:funsape/peripheral/../globalDefines.hpp ****     }
 793:funsape/peripheral/../globalDefines.hpp ****     while(1) {
 794:funsape/peripheral/../globalDefines.hpp ****         doNothing();
 795:funsape/peripheral/../globalDefines.hpp ****     }
 796:funsape/peripheral/../globalDefines.hpp **** 
 797:funsape/peripheral/../globalDefines.hpp ****     return;
 798:funsape/peripheral/../globalDefines.hpp **** }
 799:funsape/peripheral/../globalDefines.hpp **** 
 800:funsape/peripheral/../globalDefines.hpp **** // =============================================================================
 801:funsape/peripheral/../globalDefines.hpp **** // Public functions weakly defined
 802:funsape/peripheral/../globalDefines.hpp **** // =============================================================================
 803:funsape/peripheral/../globalDefines.hpp **** 
 804:funsape/peripheral/../globalDefines.hpp **** #define delayMs(time_p)                 _delay_ms(time_p)
 805:funsape/peripheral/../globalDefines.hpp **** #define delayUs(time_p)                 _delay_us(time_p)
 806:funsape/peripheral/../globalDefines.hpp **** 
 807:funsape/peripheral/../globalDefines.hpp **** weakened uint32_t getTick(void)
 808:funsape/peripheral/../globalDefines.hpp **** {
  17               		.loc 1 808 1 view -0
  18               		.cfi_startproc
  19               	/* prologue: function */
  20               	/* frame size = 0 */
  21               	/* stack size = 0 */
  22               	.L__stack_usage = 0
 809:funsape/peripheral/../globalDefines.hpp ****     // TODO
 810:funsape/peripheral/../globalDefines.hpp ****     return 0;
  23               		.loc 1 810 5 view .LVU1
 811:funsape/peripheral/../globalDefines.hpp **** }
  24               		.loc 1 811 1 is_stmt 0 view .LVU2
  25 0000 60E0      		ldi r22,0
  26 0002 70E0      		ldi r23,0
  27 0004 CB01      		movw r24,r22
  28               	/* epilogue start */
  29 0006 0895      		ret
  30               		.cfi_endproc
  31               	.LFE32:
  33               		.section	.text._ZN4Int1C2Ev,"ax",@progbits
  34               	.global	_ZN4Int1C2Ev
  36               	_ZN4Int1C2Ev:
  37               	.LVL0:
  38               	.LFB37:
  39               		.file 2 "funsape/peripheral/int1.cpp"
   1:funsape/peripheral/int1.cpp **** //!
   2:funsape/peripheral/int1.cpp **** //! \file           int1.cpp
   3:funsape/peripheral/int1.cpp **** //! \brief          External Interrupt INT1 peripheral control for the FunSAPE
   4:funsape/peripheral/int1.cpp **** //!                     AVR8 Library
   5:funsape/peripheral/int1.cpp **** //! \author         Leandro Schwarz (bladabuska+funsapeavr8lib@gmail.com)
   6:funsape/peripheral/int1.cpp **** //! \date           2023-05-07
   7:funsape/peripheral/int1.cpp **** //! \version        23.04
   8:funsape/peripheral/int1.cpp **** //! \copyright      license
GAS LISTING C:\Users\kenne\AppData\Local\Temp\ccLL1b4r.s 			page 16


   9:funsape/peripheral/int1.cpp **** //! \details        External Interrupt INT1 peripheral control for the FunSAPE
  10:funsape/peripheral/int1.cpp **** //!                     AVR8 Library
  11:funsape/peripheral/int1.cpp **** //! \todo           Todo list
  12:funsape/peripheral/int1.cpp **** //!
  13:funsape/peripheral/int1.cpp **** 
  14:funsape/peripheral/int1.cpp **** // =============================================================================
  15:funsape/peripheral/int1.cpp **** // System file dependencies
  16:funsape/peripheral/int1.cpp **** // =============================================================================
  17:funsape/peripheral/int1.cpp **** 
  18:funsape/peripheral/int1.cpp **** #include "int1.hpp"
  19:funsape/peripheral/int1.cpp **** #if !defined(__INT1_HPP)
  20:funsape/peripheral/int1.cpp **** #    error "Header file is corrupted!"
  21:funsape/peripheral/int1.cpp **** #elif __INT1_HPP != 2304
  22:funsape/peripheral/int1.cpp **** #    error "Version mismatch between source and header files!"
  23:funsape/peripheral/int1.cpp **** #endif
  24:funsape/peripheral/int1.cpp **** 
  25:funsape/peripheral/int1.cpp **** // =============================================================================
  26:funsape/peripheral/int1.cpp **** // File exclusive - Constants
  27:funsape/peripheral/int1.cpp **** // =============================================================================
  28:funsape/peripheral/int1.cpp **** 
  29:funsape/peripheral/int1.cpp **** #define DEBUG_INT1                      0x2DFF
  30:funsape/peripheral/int1.cpp **** 
  31:funsape/peripheral/int1.cpp **** cuint8_t constSenseModeModeOffset       = ISC10;    //!< Interrupt sense mode bit position offset
  32:funsape/peripheral/int1.cpp **** cuint8_t constSenseModeMask             = 0x03;     //!< Interrupt sense mode bit mask
  33:funsape/peripheral/int1.cpp **** 
  34:funsape/peripheral/int1.cpp **** // =============================================================================
  35:funsape/peripheral/int1.cpp **** // File exclusive - New data types
  36:funsape/peripheral/int1.cpp **** // =============================================================================
  37:funsape/peripheral/int1.cpp **** 
  38:funsape/peripheral/int1.cpp **** // NONE
  39:funsape/peripheral/int1.cpp **** 
  40:funsape/peripheral/int1.cpp **** // =============================================================================
  41:funsape/peripheral/int1.cpp **** // File exclusive - Global variables
  42:funsape/peripheral/int1.cpp **** // =============================================================================
  43:funsape/peripheral/int1.cpp **** 
  44:funsape/peripheral/int1.cpp **** Int1 int1;
  45:funsape/peripheral/int1.cpp **** 
  46:funsape/peripheral/int1.cpp **** // =============================================================================
  47:funsape/peripheral/int1.cpp **** // File exclusive - Macro-functions
  48:funsape/peripheral/int1.cpp **** // =============================================================================
  49:funsape/peripheral/int1.cpp **** 
  50:funsape/peripheral/int1.cpp **** // NONE
  51:funsape/peripheral/int1.cpp **** 
  52:funsape/peripheral/int1.cpp **** // =============================================================================
  53:funsape/peripheral/int1.cpp **** // Class constructors
  54:funsape/peripheral/int1.cpp **** // =============================================================================
  55:funsape/peripheral/int1.cpp **** 
  56:funsape/peripheral/int1.cpp **** Int1::Int1()
  40               		.loc 2 56 1 is_stmt 1 view -0
  41               		.cfi_startproc
  42               	/* prologue: function */
  43               	/* frame size = 0 */
  44               	/* stack size = 0 */
  45               	.L__stack_usage = 0
  46               		.loc 2 56 1 is_stmt 0 view .LVU4
  47 0000 E82F      		mov r30,r24
  48 0002 F92F      		mov r31,r25
GAS LISTING C:\Users\kenne\AppData\Local\Temp\ccLL1b4r.s 			page 17


  49               	.LBB2:
  57:funsape/peripheral/int1.cpp **** {
  58:funsape/peripheral/int1.cpp ****     // Mark passage for debugging purpose
  59:funsape/peripheral/int1.cpp ****     debugMark("Int1::Int1(void)", DEBUG_INT1);
  50               		.loc 2 59 5 is_stmt 1 view .LVU5
  51               		.loc 2 59 46 view .LVU6
  60:funsape/peripheral/int1.cpp **** 
  61:funsape/peripheral/int1.cpp ****     // Reset data members
  62:funsape/peripheral/int1.cpp ****     this->_senseMode                    = SenseMode::LOW_LEVEL;
  52               		.loc 2 62 5 view .LVU7
  53               		.loc 2 62 41 is_stmt 0 view .LVU8
  54 0004 1182      		std Z+1,__zero_reg__
  63:funsape/peripheral/int1.cpp ****     this->_isInitialized                = false;
  55               		.loc 2 63 5 is_stmt 1 view .LVU9
  56               		.loc 2 63 41 is_stmt 0 view .LVU10
  57 0006 8081      		ld r24,Z
  58               	.LVL1:
  59               		.loc 2 63 41 view .LVU11
  60 0008 8E7F      		andi r24,lo8(~(1<<0))
  61 000a 8083      		st Z,r24
  64:funsape/peripheral/int1.cpp **** 
  65:funsape/peripheral/int1.cpp ****     // Returns successfully
  66:funsape/peripheral/int1.cpp ****     this->_lastError                    = Error::NONE;
  62               		.loc 2 66 5 is_stmt 1 view .LVU12
  63               		.loc 2 66 41 is_stmt 0 view .LVU13
  64 000c 1382      		std Z+3,__zero_reg__
  65 000e 1282      		std Z+2,__zero_reg__
  67:funsape/peripheral/int1.cpp ****     debugMessage(Error::NONE, DEBUG_INT1);
  66               		.loc 2 67 5 is_stmt 1 view .LVU14
  67               		.loc 2 67 42 view .LVU15
  68:funsape/peripheral/int1.cpp ****     return;
  68               		.loc 2 68 5 view .LVU16
  69               	/* epilogue start */
  70               	.LBE2:
  69:funsape/peripheral/int1.cpp **** }
  71               		.loc 2 69 1 is_stmt 0 view .LVU17
  72 0010 0895      		ret
  73               		.cfi_endproc
  74               	.LFE37:
  76               	.global	_ZN4Int1C1Ev
  77               		.set	_ZN4Int1C1Ev,_ZN4Int1C2Ev
  78               		.section	.text._ZN4Int1D2Ev,"ax",@progbits
  79               	.global	_ZN4Int1D2Ev
  81               	_ZN4Int1D2Ev:
  82               	.LVL2:
  83               	.LFB40:
  70:funsape/peripheral/int1.cpp **** 
  71:funsape/peripheral/int1.cpp **** Int1::~Int1()
  84               		.loc 2 71 1 is_stmt 1 view -0
  85               		.cfi_startproc
  86               	/* prologue: function */
  87               	/* frame size = 0 */
  88               	/* stack size = 0 */
  89               	.L__stack_usage = 0
  72:funsape/peripheral/int1.cpp **** {
  73:funsape/peripheral/int1.cpp ****     // Returns successfully
  74:funsape/peripheral/int1.cpp ****     debugMessage(Error::NONE, DEBUG_INT1);
GAS LISTING C:\Users\kenne\AppData\Local\Temp\ccLL1b4r.s 			page 18


  90               		.loc 2 74 5 view .LVU19
  91               		.loc 2 74 42 view .LVU20
  75:funsape/peripheral/int1.cpp ****     return;
  92               		.loc 2 75 5 view .LVU21
  93               	/* epilogue start */
  76:funsape/peripheral/int1.cpp **** }
  94               		.loc 2 76 1 is_stmt 0 view .LVU22
  95 0000 0895      		ret
  96               		.cfi_endproc
  97               	.LFE40:
  99               	.global	_ZN4Int1D1Ev
 100               		.set	_ZN4Int1D1Ev,_ZN4Int1D2Ev
 101               		.section	.text._Z41__static_initialization_and_destruction_0ii,"ax",@progbits
 103               	_Z41__static_initialization_and_destruction_0ii:
 104               	.LVL3:
 105               	.LFB47:
  77:funsape/peripheral/int1.cpp **** 
  78:funsape/peripheral/int1.cpp **** // =============================================================================
  79:funsape/peripheral/int1.cpp **** // Class public methods
  80:funsape/peripheral/int1.cpp **** // =============================================================================
  81:funsape/peripheral/int1.cpp **** 
  82:funsape/peripheral/int1.cpp **** //     ///////////////////     CONFIGURATION     ////////////////////     //
  83:funsape/peripheral/int1.cpp **** bool_t Int1::init(SenseMode senseMode_p)
  84:funsape/peripheral/int1.cpp **** {
  85:funsape/peripheral/int1.cpp ****     // Mark passage for debugging purpose
  86:funsape/peripheral/int1.cpp ****     debugMark("Int1::init(SenseMode)", DEBUG_INT1);
  87:funsape/peripheral/int1.cpp **** 
  88:funsape/peripheral/int1.cpp ****     // Local variables
  89:funsape/peripheral/int1.cpp ****     uint8_t auxEicra = EICRA;
  90:funsape/peripheral/int1.cpp **** 
  91:funsape/peripheral/int1.cpp ****     // Configure mode
  92:funsape/peripheral/int1.cpp ****     clrMaskOffset(auxEicra, constSenseModeMask, constSenseModeModeOffset);
  93:funsape/peripheral/int1.cpp ****     setMaskOffset(auxEicra, ((uint8_t)senseMode_p), constSenseModeModeOffset);
  94:funsape/peripheral/int1.cpp **** 
  95:funsape/peripheral/int1.cpp ****     // Update registers
  96:funsape/peripheral/int1.cpp ****     EICRA           = auxEicra;
  97:funsape/peripheral/int1.cpp **** 
  98:funsape/peripheral/int1.cpp ****     // Update class members
  99:funsape/peripheral/int1.cpp ****     this->_senseMode        = senseMode_p;
 100:funsape/peripheral/int1.cpp ****     this->_isInitialized    = true;
 101:funsape/peripheral/int1.cpp **** 
 102:funsape/peripheral/int1.cpp ****     // Returns successfully
 103:funsape/peripheral/int1.cpp ****     this->_lastError = Error::NONE;
 104:funsape/peripheral/int1.cpp ****     debugMessage(Error::NONE, DEBUG_INT1);
 105:funsape/peripheral/int1.cpp ****     return true;
 106:funsape/peripheral/int1.cpp **** }
 107:funsape/peripheral/int1.cpp **** 
 108:funsape/peripheral/int1.cpp **** bool_t Int1::setSenseMode(SenseMode senseMode_p)
 109:funsape/peripheral/int1.cpp **** {
 110:funsape/peripheral/int1.cpp ****     // Mark passage for debugging purpose
 111:funsape/peripheral/int1.cpp ****     debugMark("Int1::setSenseMode(SenseMode)", DEBUG_INT1);
 112:funsape/peripheral/int1.cpp **** 
 113:funsape/peripheral/int1.cpp ****     // Local variables
 114:funsape/peripheral/int1.cpp ****     uint8_t auxEicra = EICRA;
 115:funsape/peripheral/int1.cpp **** 
 116:funsape/peripheral/int1.cpp ****     // Configure mode
 117:funsape/peripheral/int1.cpp ****     clrMaskOffset(auxEicra, constSenseModeMask, constSenseModeModeOffset);
GAS LISTING C:\Users\kenne\AppData\Local\Temp\ccLL1b4r.s 			page 19


 118:funsape/peripheral/int1.cpp ****     setMaskOffset(auxEicra, ((uint8_t)senseMode_p), constSenseModeModeOffset);
 119:funsape/peripheral/int1.cpp **** 
 120:funsape/peripheral/int1.cpp ****     // Update registers
 121:funsape/peripheral/int1.cpp ****     EICRA           = auxEicra;
 122:funsape/peripheral/int1.cpp **** 
 123:funsape/peripheral/int1.cpp ****     // Update class members
 124:funsape/peripheral/int1.cpp ****     this->_senseMode        = senseMode_p;
 125:funsape/peripheral/int1.cpp **** 
 126:funsape/peripheral/int1.cpp ****     // Returns successfully
 127:funsape/peripheral/int1.cpp ****     this->_lastError = Error::NONE;
 128:funsape/peripheral/int1.cpp ****     debugMessage(Error::NONE, DEBUG_INT1);
 129:funsape/peripheral/int1.cpp ****     return true;
 130:funsape/peripheral/int1.cpp **** }
 131:funsape/peripheral/int1.cpp **** 
 132:funsape/peripheral/int1.cpp **** //     /////////////     MASTER CONTROL AND STATUS     //////////////     //
 133:funsape/peripheral/int1.cpp **** Error Int1::getLastError(void)
 134:funsape/peripheral/int1.cpp **** {
 135:funsape/peripheral/int1.cpp ****     // Returns last error
 136:funsape/peripheral/int1.cpp ****     return this->_lastError;
 137:funsape/peripheral/int1.cpp **** }
 138:funsape/peripheral/int1.cpp **** 
 139:funsape/peripheral/int1.cpp **** // =============================================================================
 140:funsape/peripheral/int1.cpp **** // Class private methods
 141:funsape/peripheral/int1.cpp **** // =============================================================================
 142:funsape/peripheral/int1.cpp **** 
 143:funsape/peripheral/int1.cpp **** // NONE
 144:funsape/peripheral/int1.cpp **** 
 145:funsape/peripheral/int1.cpp **** // =============================================================================
 146:funsape/peripheral/int1.cpp **** // Class protected methods
 147:funsape/peripheral/int1.cpp **** // =============================================================================
 148:funsape/peripheral/int1.cpp **** 
 149:funsape/peripheral/int1.cpp **** // NONE
 150:funsape/peripheral/int1.cpp **** 
 151:funsape/peripheral/int1.cpp **** // =============================================================================
 152:funsape/peripheral/int1.cpp **** // General public functions definitions
 153:funsape/peripheral/int1.cpp **** // =============================================================================
 154:funsape/peripheral/int1.cpp **** 
 155:funsape/peripheral/int1.cpp **** // NONE
 156:funsape/peripheral/int1.cpp **** 
 157:funsape/peripheral/int1.cpp **** // =============================================================================
 158:funsape/peripheral/int1.cpp **** // Interrupt callback functions
 159:funsape/peripheral/int1.cpp **** // =============================================================================
 160:funsape/peripheral/int1.cpp **** 
 161:funsape/peripheral/int1.cpp **** weakened void int1InterruptCallback(void)
 162:funsape/peripheral/int1.cpp **** {
 163:funsape/peripheral/int1.cpp ****     return;
 164:funsape/peripheral/int1.cpp **** }
 165:funsape/peripheral/int1.cpp **** 
 166:funsape/peripheral/int1.cpp **** // =============================================================================
 167:funsape/peripheral/int1.cpp **** // Interrupt handlers
 168:funsape/peripheral/int1.cpp **** // =============================================================================
 169:funsape/peripheral/int1.cpp **** 
 170:funsape/peripheral/int1.cpp **** //!
 171:funsape/peripheral/int1.cpp **** //! \brief          INT1 interrupt service routine
 172:funsape/peripheral/int1.cpp **** //! \details        INT1 interrupt service routine.
 173:funsape/peripheral/int1.cpp **** //!
 174:funsape/peripheral/int1.cpp **** ISR(INT1_vect)
GAS LISTING C:\Users\kenne\AppData\Local\Temp\ccLL1b4r.s 			page 20


 175:funsape/peripheral/int1.cpp **** {
 176:funsape/peripheral/int1.cpp ****     int1InterruptCallback();
 177:funsape/peripheral/int1.cpp **** }
 106               		.loc 2 177 1 is_stmt 1 view -0
 107               		.cfi_startproc
 108               	/* prologue: function */
 109               	/* frame size = 0 */
 110               	/* stack size = 0 */
 111               	.L__stack_usage = 0
 112               		.loc 2 177 1 is_stmt 0 view .LVU24
 113 0000 262F      		mov r18,r22
 114 0002 372F      		mov r19,r23
 115               		.loc 2 177 1 view .LVU25
 116 0004 0197      		sbiw r24,1
 117 0006 01F0      		breq .L6
 118               	.LVL4:
 119               	.L4:
 120               	/* epilogue start */
 121               		.loc 2 177 1 view .LVU26
 122 0008 0895      		ret
 123               	.LVL5:
 124               	.L6:
 125               		.loc 2 177 1 discriminator 1 view .LVU27
 126 000a 2F3F      		cpi r18,-1
 127 000c 3F4F      		sbci r19,-1
 128               	.LVL6:
 129               		.loc 2 177 1 discriminator 1 view .LVU28
 130 000e 01F4      		brne .L4
  44:funsape/peripheral/int1.cpp **** 
 131               		.loc 2 44 6 view .LVU29
 132 0010 80E0      		ldi r24,lo8(int1)
 133 0012 90E0      		ldi r25,hi8(int1)
 134 0014 0E94 0000 		call _ZN4Int1C1Ev
 135               	.LVL7:
 136               		.loc 2 177 1 view .LVU30
 137 0018 00C0      		rjmp .L4
 138               		.cfi_endproc
 139               	.LFE47:
 141               		.section	.text._ZN4Int14initENS_9SenseModeE,"ax",@progbits
 142               	.global	_ZN4Int14initENS_9SenseModeE
 144               	_ZN4Int14initENS_9SenseModeE:
 145               	.LVL8:
 146               	.LFB42:
  84:funsape/peripheral/int1.cpp ****     // Mark passage for debugging purpose
 147               		.loc 2 84 1 is_stmt 1 view -0
 148               		.cfi_startproc
 149               	/* prologue: function */
 150               	/* frame size = 0 */
 151               	/* stack size = 0 */
 152               	.L__stack_usage = 0
  84:funsape/peripheral/int1.cpp ****     // Mark passage for debugging purpose
 153               		.loc 2 84 1 is_stmt 0 view .LVU32
 154 0000 E82F      		mov r30,r24
 155 0002 F92F      		mov r31,r25
  86:funsape/peripheral/int1.cpp **** 
 156               		.loc 2 86 5 is_stmt 1 view .LVU33
  86:funsape/peripheral/int1.cpp **** 
GAS LISTING C:\Users\kenne\AppData\Local\Temp\ccLL1b4r.s 			page 21


 157               		.loc 2 86 51 view .LVU34
  89:funsape/peripheral/int1.cpp **** 
 158               		.loc 2 89 5 view .LVU35
  89:funsape/peripheral/int1.cpp **** 
 159               		.loc 2 89 24 is_stmt 0 view .LVU36
 160 0004 A9E6      		ldi r26,lo8(105)
 161 0006 B0E0      		ldi r27,0
 162 0008 2C91      		ld r18,X
 163               	.LVL9:
  92:funsape/peripheral/int1.cpp ****     setMaskOffset(auxEicra, ((uint8_t)senseMode_p), constSenseModeModeOffset);
 164               		.loc 2 92 5 is_stmt 1 view .LVU37
 165 000a 237F      		andi r18,lo8(-13)
 166               	.LVL10:
  93:funsape/peripheral/int1.cpp **** 
 167               		.loc 2 93 5 view .LVU38
 168 000c 862F      		mov r24,r22
 169               	.LVL11:
  93:funsape/peripheral/int1.cpp **** 
 170               		.loc 2 93 5 is_stmt 0 view .LVU39
 171 000e 90E0      		ldi r25,0
 172 0010 880F      		lsl r24
 173 0012 991F      		rol r25
 174 0014 880F      		lsl r24
 175 0016 991F      		rol r25
 176 0018 822B      		or r24,r18
 177               	.LVL12:
  96:funsape/peripheral/int1.cpp **** 
 178               		.loc 2 96 5 is_stmt 1 view .LVU40
  96:funsape/peripheral/int1.cpp **** 
 179               		.loc 2 96 21 is_stmt 0 view .LVU41
 180 001a 8C93      		st X,r24
  99:funsape/peripheral/int1.cpp ****     this->_isInitialized    = true;
 181               		.loc 2 99 5 is_stmt 1 view .LVU42
  99:funsape/peripheral/int1.cpp ****     this->_isInitialized    = true;
 182               		.loc 2 99 29 is_stmt 0 view .LVU43
 183 001c 6183      		std Z+1,r22
 100:funsape/peripheral/int1.cpp **** 
 184               		.loc 2 100 5 is_stmt 1 view .LVU44
 100:funsape/peripheral/int1.cpp **** 
 185               		.loc 2 100 29 is_stmt 0 view .LVU45
 186 001e 8081      		ld r24,Z
 187               	.LVL13:
 100:funsape/peripheral/int1.cpp **** 
 188               		.loc 2 100 29 view .LVU46
 189 0020 8160      		ori r24,lo8(1<<0)
 190 0022 8083      		st Z,r24
 103:funsape/peripheral/int1.cpp ****     debugMessage(Error::NONE, DEBUG_INT1);
 191               		.loc 2 103 5 is_stmt 1 view .LVU47
 103:funsape/peripheral/int1.cpp ****     debugMessage(Error::NONE, DEBUG_INT1);
 192               		.loc 2 103 22 is_stmt 0 view .LVU48
 193 0024 1382      		std Z+3,__zero_reg__
 194 0026 1282      		std Z+2,__zero_reg__
 104:funsape/peripheral/int1.cpp ****     return true;
 195               		.loc 2 104 5 is_stmt 1 view .LVU49
 104:funsape/peripheral/int1.cpp ****     return true;
 196               		.loc 2 104 42 view .LVU50
 105:funsape/peripheral/int1.cpp **** }
GAS LISTING C:\Users\kenne\AppData\Local\Temp\ccLL1b4r.s 			page 22


 197               		.loc 2 105 5 view .LVU51
 106:funsape/peripheral/int1.cpp **** 
 198               		.loc 2 106 1 is_stmt 0 view .LVU52
 199 0028 81E0      		ldi r24,lo8(1)
 200               	/* epilogue start */
 201 002a 0895      		ret
 202               		.cfi_endproc
 203               	.LFE42:
 205               		.section	.text._ZN4Int112setSenseModeENS_9SenseModeE,"ax",@progbits
 206               	.global	_ZN4Int112setSenseModeENS_9SenseModeE
 208               	_ZN4Int112setSenseModeENS_9SenseModeE:
 209               	.LVL14:
 210               	.LFB43:
 109:funsape/peripheral/int1.cpp ****     // Mark passage for debugging purpose
 211               		.loc 2 109 1 is_stmt 1 view -0
 212               		.cfi_startproc
 213               	/* prologue: function */
 214               	/* frame size = 0 */
 215               	/* stack size = 0 */
 216               	.L__stack_usage = 0
 109:funsape/peripheral/int1.cpp ****     // Mark passage for debugging purpose
 217               		.loc 2 109 1 is_stmt 0 view .LVU54
 218 0000 E82F      		mov r30,r24
 219 0002 F92F      		mov r31,r25
 111:funsape/peripheral/int1.cpp **** 
 220               		.loc 2 111 5 is_stmt 1 view .LVU55
 111:funsape/peripheral/int1.cpp **** 
 221               		.loc 2 111 59 view .LVU56
 114:funsape/peripheral/int1.cpp **** 
 222               		.loc 2 114 5 view .LVU57
 114:funsape/peripheral/int1.cpp **** 
 223               		.loc 2 114 24 is_stmt 0 view .LVU58
 224 0004 A9E6      		ldi r26,lo8(105)
 225 0006 B0E0      		ldi r27,0
 226 0008 2C91      		ld r18,X
 227               	.LVL15:
 117:funsape/peripheral/int1.cpp ****     setMaskOffset(auxEicra, ((uint8_t)senseMode_p), constSenseModeModeOffset);
 228               		.loc 2 117 5 is_stmt 1 view .LVU59
 229 000a 237F      		andi r18,lo8(-13)
 230               	.LVL16:
 118:funsape/peripheral/int1.cpp **** 
 231               		.loc 2 118 5 view .LVU60
 232 000c 862F      		mov r24,r22
 233               	.LVL17:
 118:funsape/peripheral/int1.cpp **** 
 234               		.loc 2 118 5 is_stmt 0 view .LVU61
 235 000e 90E0      		ldi r25,0
 236 0010 880F      		lsl r24
 237 0012 991F      		rol r25
 238 0014 880F      		lsl r24
 239 0016 991F      		rol r25
 240 0018 822B      		or r24,r18
 241               	.LVL18:
 121:funsape/peripheral/int1.cpp **** 
 242               		.loc 2 121 5 is_stmt 1 view .LVU62
 121:funsape/peripheral/int1.cpp **** 
 243               		.loc 2 121 21 is_stmt 0 view .LVU63
GAS LISTING C:\Users\kenne\AppData\Local\Temp\ccLL1b4r.s 			page 23


 244 001a 8C93      		st X,r24
 124:funsape/peripheral/int1.cpp **** 
 245               		.loc 2 124 5 is_stmt 1 view .LVU64
 124:funsape/peripheral/int1.cpp **** 
 246               		.loc 2 124 29 is_stmt 0 view .LVU65
 247 001c 6183      		std Z+1,r22
 127:funsape/peripheral/int1.cpp ****     debugMessage(Error::NONE, DEBUG_INT1);
 248               		.loc 2 127 5 is_stmt 1 view .LVU66
 127:funsape/peripheral/int1.cpp ****     debugMessage(Error::NONE, DEBUG_INT1);
 249               		.loc 2 127 22 is_stmt 0 view .LVU67
 250 001e 1382      		std Z+3,__zero_reg__
 251 0020 1282      		std Z+2,__zero_reg__
 128:funsape/peripheral/int1.cpp ****     return true;
 252               		.loc 2 128 5 is_stmt 1 view .LVU68
 128:funsape/peripheral/int1.cpp ****     return true;
 253               		.loc 2 128 42 view .LVU69
 129:funsape/peripheral/int1.cpp **** }
 254               		.loc 2 129 5 view .LVU70
 130:funsape/peripheral/int1.cpp **** 
 255               		.loc 2 130 1 is_stmt 0 view .LVU71
 256 0022 81E0      		ldi r24,lo8(1)
 257               	.LVL19:
 258               	/* epilogue start */
 130:funsape/peripheral/int1.cpp **** 
 259               		.loc 2 130 1 view .LVU72
 260 0024 0895      		ret
 261               		.cfi_endproc
 262               	.LFE43:
 264               		.section	.text._ZN4Int112getLastErrorEv,"ax",@progbits
 265               	.global	_ZN4Int112getLastErrorEv
 267               	_ZN4Int112getLastErrorEv:
 268               	.LVL20:
 269               	.LFB44:
 134:funsape/peripheral/int1.cpp ****     // Returns last error
 270               		.loc 2 134 1 is_stmt 1 view -0
 271               		.cfi_startproc
 272               	/* prologue: function */
 273               	/* frame size = 0 */
 274               	/* stack size = 0 */
 275               	.L__stack_usage = 0
 136:funsape/peripheral/int1.cpp **** }
 276               		.loc 2 136 5 view .LVU74
 137:funsape/peripheral/int1.cpp **** 
 277               		.loc 2 137 1 is_stmt 0 view .LVU75
 278 0000 FC01      		movw r30,r24
 279 0002 8281      		ldd r24,Z+2
 280 0004 9381      		ldd r25,Z+3
 281               	.LVL21:
 282               	/* epilogue start */
 137:funsape/peripheral/int1.cpp **** 
 283               		.loc 2 137 1 view .LVU76
 284 0006 0895      		ret
 285               		.cfi_endproc
 286               	.LFE44:
 288               		.section	.text._Z21int1InterruptCallbackv,"ax",@progbits
 289               		.weak	_Z21int1InterruptCallbackv
 291               	_Z21int1InterruptCallbackv:
GAS LISTING C:\Users\kenne\AppData\Local\Temp\ccLL1b4r.s 			page 24


 292               	.LFB45:
 162:funsape/peripheral/int1.cpp ****     return;
 293               		.loc 2 162 1 is_stmt 1 view -0
 294               		.cfi_startproc
 295               	/* prologue: function */
 296               	/* frame size = 0 */
 297               	/* stack size = 0 */
 298               	.L__stack_usage = 0
 163:funsape/peripheral/int1.cpp **** }
 299               		.loc 2 163 5 view .LVU78
 300               	/* epilogue start */
 164:funsape/peripheral/int1.cpp **** 
 301               		.loc 2 164 1 is_stmt 0 view .LVU79
 302 0000 0895      		ret
 303               		.cfi_endproc
 304               	.LFE45:
 306               		.section	.text.__vector_2,"ax",@progbits
 307               	.global	__vector_2
 309               	__vector_2:
 310               	.LFB46:
 175:funsape/peripheral/int1.cpp ****     int1InterruptCallback();
 311               		.loc 2 175 1 is_stmt 1 view -0
 312               		.cfi_startproc
 313 0000 1F92      		push r1
 314               		.cfi_def_cfa_offset 3
 315               		.cfi_offset 1, -2
 316 0002 0F92      		push r0
 317               		.cfi_def_cfa_offset 4
 318               		.cfi_offset 0, -3
 319 0004 0FB6      		in r0,__SREG__
 320 0006 0F92      		push r0
 321 0008 1124      		clr __zero_reg__
 322 000a 2F93      		push r18
 323               		.cfi_def_cfa_offset 5
 324               		.cfi_offset 18, -4
 325 000c 3F93      		push r19
 326               		.cfi_def_cfa_offset 6
 327               		.cfi_offset 19, -5
 328 000e 4F93      		push r20
 329               		.cfi_def_cfa_offset 7
 330               		.cfi_offset 20, -6
 331 0010 5F93      		push r21
 332               		.cfi_def_cfa_offset 8
 333               		.cfi_offset 21, -7
 334 0012 6F93      		push r22
 335               		.cfi_def_cfa_offset 9
 336               		.cfi_offset 22, -8
 337 0014 7F93      		push r23
 338               		.cfi_def_cfa_offset 10
 339               		.cfi_offset 23, -9
 340 0016 8F93      		push r24
 341               		.cfi_def_cfa_offset 11
 342               		.cfi_offset 24, -10
 343 0018 9F93      		push r25
 344               		.cfi_def_cfa_offset 12
 345               		.cfi_offset 25, -11
 346 001a AF93      		push r26
GAS LISTING C:\Users\kenne\AppData\Local\Temp\ccLL1b4r.s 			page 25


 347               		.cfi_def_cfa_offset 13
 348               		.cfi_offset 26, -12
 349 001c BF93      		push r27
 350               		.cfi_def_cfa_offset 14
 351               		.cfi_offset 27, -13
 352 001e EF93      		push r30
 353               		.cfi_def_cfa_offset 15
 354               		.cfi_offset 30, -14
 355 0020 FF93      		push r31
 356               		.cfi_def_cfa_offset 16
 357               		.cfi_offset 31, -15
 358               	/* prologue: Signal */
 359               	/* frame size = 0 */
 360               	/* stack size = 15 */
 361               	.L__stack_usage = 15
 176:funsape/peripheral/int1.cpp **** }
 362               		.loc 2 176 5 view .LVU81
 176:funsape/peripheral/int1.cpp **** }
 363               		.loc 2 176 26 is_stmt 0 view .LVU82
 364 0022 0E94 0000 		call _Z21int1InterruptCallbackv
 365               	.LVL22:
 366               	/* epilogue start */
 367               		.loc 2 177 1 view .LVU83
 368 0026 FF91      		pop r31
 369 0028 EF91      		pop r30
 370 002a BF91      		pop r27
 371 002c AF91      		pop r26
 372 002e 9F91      		pop r25
 373 0030 8F91      		pop r24
 374 0032 7F91      		pop r23
 375 0034 6F91      		pop r22
 376 0036 5F91      		pop r21
 377 0038 4F91      		pop r20
 378 003a 3F91      		pop r19
 379 003c 2F91      		pop r18
 380 003e 0F90      		pop r0
 381 0040 0FBE      		out __SREG__,r0
 382 0042 0F90      		pop r0
 383 0044 1F90      		pop r1
 384 0046 1895      		reti
 385               		.cfi_endproc
 386               	.LFE46:
 388               		.section	.text._GLOBAL__sub_I_int1,"ax",@progbits
 390               	_GLOBAL__sub_I_int1:
 391               	.LFB48:
 392               		.loc 2 177 1 is_stmt 1 view -0
 393               		.cfi_startproc
 394               	/* prologue: function */
 395               	/* frame size = 0 */
 396               	/* stack size = 0 */
 397               	.L__stack_usage = 0
 398               		.loc 2 177 1 is_stmt 0 view .LVU85
 399 0000 6FEF      		ldi r22,lo8(-1)
 400 0002 7FEF      		ldi r23,lo8(-1)
 401 0004 81E0      		ldi r24,lo8(1)
 402 0006 90E0      		ldi r25,0
 403 0008 0E94 0000 		call _Z41__static_initialization_and_destruction_0ii
GAS LISTING C:\Users\kenne\AppData\Local\Temp\ccLL1b4r.s 			page 26


 404               	.LVL23:
 405               	/* epilogue start */
 406 000c 0895      		ret
 407               		.cfi_endproc
 408               	.LFE48:
 410               		.global __do_global_ctors
 411               		.section .ctors,"a",@progbits
 412               		.p2align	1
 413 0000 0000      		.word	gs(_GLOBAL__sub_I_int1)
 414               		.section	.text._GLOBAL__sub_D_int1,"ax",@progbits
 416               	_GLOBAL__sub_D_int1:
 417               	.LFB49:
 418               		.loc 2 177 1 is_stmt 1 view -0
 419               		.cfi_startproc
 420               	/* prologue: function */
 421               	/* frame size = 0 */
 422               	/* stack size = 0 */
 423               	.L__stack_usage = 0
 424               		.loc 2 177 1 is_stmt 0 view .LVU87
 425 0000 6FEF      		ldi r22,lo8(-1)
 426 0002 7FEF      		ldi r23,lo8(-1)
 427 0004 80E0      		ldi r24,0
 428 0006 90E0      		ldi r25,0
 429 0008 0E94 0000 		call _Z41__static_initialization_and_destruction_0ii
 430               	.LVL24:
 431               	/* epilogue start */
 432 000c 0895      		ret
 433               		.cfi_endproc
 434               	.LFE49:
 436               		.global __do_global_dtors
 437               		.section .dtors,"a",@progbits
 438               		.p2align	1
 439 0000 0000      		.word	gs(_GLOBAL__sub_D_int1)
 440               	.global	int1
 441               		.section	.bss.int1,"aw",@nobits
 444               	int1:
 445 0000 0000 0000 		.zero	4
 446               		.text
 447               	.Letext0:
 448               		.file 3 "d:\\ifsc\\vscodeleandro\\ex\\toolchains\\avr-gcc\\avr\\include\\stdint.h"
 449               		.file 4 "funsape/peripheral/int1.hpp"
GAS LISTING C:\Users\kenne\AppData\Local\Temp\ccLL1b4r.s 			page 27


DEFINED SYMBOLS
                            *ABS*:00000000 int1.cpp
C:\Users\kenne\AppData\Local\Temp\ccLL1b4r.s:2      *ABS*:0000003e __SP_H__
C:\Users\kenne\AppData\Local\Temp\ccLL1b4r.s:3      *ABS*:0000003d __SP_L__
C:\Users\kenne\AppData\Local\Temp\ccLL1b4r.s:4      *ABS*:0000003f __SREG__
C:\Users\kenne\AppData\Local\Temp\ccLL1b4r.s:5      *ABS*:00000000 __tmp_reg__
C:\Users\kenne\AppData\Local\Temp\ccLL1b4r.s:6      *ABS*:00000001 __zero_reg__
C:\Users\kenne\AppData\Local\Temp\ccLL1b4r.s:14     .text._Z7getTickv:00000000 _Z7getTickv
C:\Users\kenne\AppData\Local\Temp\ccLL1b4r.s:17     .text._Z7getTickv:00000000 .Loc.0
C:\Users\kenne\AppData\Local\Temp\ccLL1b4r.s:18     .text._Z7getTickv:00000000 L0
C:\Users\kenne\AppData\Local\Temp\ccLL1b4r.s:23     .text._Z7getTickv:00000000 .Loc.1
C:\Users\kenne\AppData\Local\Temp\ccLL1b4r.s:24     .text._Z7getTickv:00000000 .Loc.2
C:\Users\kenne\AppData\Local\Temp\ccLL1b4r.s:30     .text._Z7getTickv:00000008 L0
C:\Users\kenne\AppData\Local\Temp\ccLL1b4r.s:36     .text._ZN4Int1C2Ev:00000000 _ZN4Int1C2Ev
C:\Users\kenne\AppData\Local\Temp\ccLL1b4r.s:40     .text._ZN4Int1C2Ev:00000000 .Loc.3
C:\Users\kenne\AppData\Local\Temp\ccLL1b4r.s:41     .text._ZN4Int1C2Ev:00000000 L0
C:\Users\kenne\AppData\Local\Temp\ccLL1b4r.s:46     .text._ZN4Int1C2Ev:00000000 .Loc.4
C:\Users\kenne\AppData\Local\Temp\ccLL1b4r.s:50     .text._ZN4Int1C2Ev:00000004 .Loc.5
C:\Users\kenne\AppData\Local\Temp\ccLL1b4r.s:51     .text._ZN4Int1C2Ev:00000004 .Loc.6
C:\Users\kenne\AppData\Local\Temp\ccLL1b4r.s:52     .text._ZN4Int1C2Ev:00000004 .Loc.7
C:\Users\kenne\AppData\Local\Temp\ccLL1b4r.s:53     .text._ZN4Int1C2Ev:00000004 .Loc.8
C:\Users\kenne\AppData\Local\Temp\ccLL1b4r.s:55     .text._ZN4Int1C2Ev:00000006 .Loc.9
C:\Users\kenne\AppData\Local\Temp\ccLL1b4r.s:56     .text._ZN4Int1C2Ev:00000006 .Loc.10
C:\Users\kenne\AppData\Local\Temp\ccLL1b4r.s:59     .text._ZN4Int1C2Ev:00000008 .Loc.11
C:\Users\kenne\AppData\Local\Temp\ccLL1b4r.s:62     .text._ZN4Int1C2Ev:0000000c .Loc.12
C:\Users\kenne\AppData\Local\Temp\ccLL1b4r.s:63     .text._ZN4Int1C2Ev:0000000c .Loc.13
C:\Users\kenne\AppData\Local\Temp\ccLL1b4r.s:66     .text._ZN4Int1C2Ev:00000010 .Loc.14
C:\Users\kenne\AppData\Local\Temp\ccLL1b4r.s:67     .text._ZN4Int1C2Ev:00000010 .Loc.15
C:\Users\kenne\AppData\Local\Temp\ccLL1b4r.s:68     .text._ZN4Int1C2Ev:00000010 .Loc.16
C:\Users\kenne\AppData\Local\Temp\ccLL1b4r.s:71     .text._ZN4Int1C2Ev:00000010 .Loc.17
C:\Users\kenne\AppData\Local\Temp\ccLL1b4r.s:73     .text._ZN4Int1C2Ev:00000012 L0
C:\Users\kenne\AppData\Local\Temp\ccLL1b4r.s:36     .text._ZN4Int1C2Ev:00000000 _ZN4Int1C1Ev
C:\Users\kenne\AppData\Local\Temp\ccLL1b4r.s:81     .text._ZN4Int1D2Ev:00000000 _ZN4Int1D2Ev
C:\Users\kenne\AppData\Local\Temp\ccLL1b4r.s:84     .text._ZN4Int1D2Ev:00000000 .Loc.18
C:\Users\kenne\AppData\Local\Temp\ccLL1b4r.s:85     .text._ZN4Int1D2Ev:00000000 L0
C:\Users\kenne\AppData\Local\Temp\ccLL1b4r.s:90     .text._ZN4Int1D2Ev:00000000 .Loc.19
C:\Users\kenne\AppData\Local\Temp\ccLL1b4r.s:91     .text._ZN4Int1D2Ev:00000000 .Loc.20
C:\Users\kenne\AppData\Local\Temp\ccLL1b4r.s:92     .text._ZN4Int1D2Ev:00000000 .Loc.21
C:\Users\kenne\AppData\Local\Temp\ccLL1b4r.s:94     .text._ZN4Int1D2Ev:00000000 .Loc.22
C:\Users\kenne\AppData\Local\Temp\ccLL1b4r.s:96     .text._ZN4Int1D2Ev:00000002 L0
C:\Users\kenne\AppData\Local\Temp\ccLL1b4r.s:81     .text._ZN4Int1D2Ev:00000000 _ZN4Int1D1Ev
C:\Users\kenne\AppData\Local\Temp\ccLL1b4r.s:103    .text._Z41__static_initialization_and_destruction_0ii:00000000 _Z41__static_initialization_and_destruction_0ii
C:\Users\kenne\AppData\Local\Temp\ccLL1b4r.s:106    .text._Z41__static_initialization_and_destruction_0ii:00000000 .Loc.23
C:\Users\kenne\AppData\Local\Temp\ccLL1b4r.s:107    .text._Z41__static_initialization_and_destruction_0ii:00000000 L0
C:\Users\kenne\AppData\Local\Temp\ccLL1b4r.s:112    .text._Z41__static_initialization_and_destruction_0ii:00000000 .Loc.24
C:\Users\kenne\AppData\Local\Temp\ccLL1b4r.s:115    .text._Z41__static_initialization_and_destruction_0ii:00000004 .Loc.25
C:\Users\kenne\AppData\Local\Temp\ccLL1b4r.s:121    .text._Z41__static_initialization_and_destruction_0ii:00000008 .Loc.26
C:\Users\kenne\AppData\Local\Temp\ccLL1b4r.s:125    .text._Z41__static_initialization_and_destruction_0ii:0000000a .Loc.27
C:\Users\kenne\AppData\Local\Temp\ccLL1b4r.s:129    .text._Z41__static_initialization_and_destruction_0ii:0000000e .Loc.28
C:\Users\kenne\AppData\Local\Temp\ccLL1b4r.s:131    .text._Z41__static_initialization_and_destruction_0ii:00000010 .Loc.29
C:\Users\kenne\AppData\Local\Temp\ccLL1b4r.s:444    .bss.int1:00000000 int1
C:\Users\kenne\AppData\Local\Temp\ccLL1b4r.s:136    .text._Z41__static_initialization_and_destruction_0ii:00000018 .Loc.30
C:\Users\kenne\AppData\Local\Temp\ccLL1b4r.s:138    .text._Z41__static_initialization_and_destruction_0ii:0000001a L0
C:\Users\kenne\AppData\Local\Temp\ccLL1b4r.s:144    .text._ZN4Int14initENS_9SenseModeE:00000000 _ZN4Int14initENS_9SenseModeE
C:\Users\kenne\AppData\Local\Temp\ccLL1b4r.s:147    .text._ZN4Int14initENS_9SenseModeE:00000000 .Loc.31
C:\Users\kenne\AppData\Local\Temp\ccLL1b4r.s:148    .text._ZN4Int14initENS_9SenseModeE:00000000 L0
C:\Users\kenne\AppData\Local\Temp\ccLL1b4r.s:153    .text._ZN4Int14initENS_9SenseModeE:00000000 .Loc.32
GAS LISTING C:\Users\kenne\AppData\Local\Temp\ccLL1b4r.s 			page 28


C:\Users\kenne\AppData\Local\Temp\ccLL1b4r.s:156    .text._ZN4Int14initENS_9SenseModeE:00000004 .Loc.33
C:\Users\kenne\AppData\Local\Temp\ccLL1b4r.s:157    .text._ZN4Int14initENS_9SenseModeE:00000004 .Loc.34
C:\Users\kenne\AppData\Local\Temp\ccLL1b4r.s:158    .text._ZN4Int14initENS_9SenseModeE:00000004 .Loc.35
C:\Users\kenne\AppData\Local\Temp\ccLL1b4r.s:159    .text._ZN4Int14initENS_9SenseModeE:00000004 .Loc.36
C:\Users\kenne\AppData\Local\Temp\ccLL1b4r.s:164    .text._ZN4Int14initENS_9SenseModeE:0000000a .Loc.37
C:\Users\kenne\AppData\Local\Temp\ccLL1b4r.s:167    .text._ZN4Int14initENS_9SenseModeE:0000000c .Loc.38
C:\Users\kenne\AppData\Local\Temp\ccLL1b4r.s:170    .text._ZN4Int14initENS_9SenseModeE:0000000e .Loc.39
C:\Users\kenne\AppData\Local\Temp\ccLL1b4r.s:178    .text._ZN4Int14initENS_9SenseModeE:0000001a .Loc.40
C:\Users\kenne\AppData\Local\Temp\ccLL1b4r.s:179    .text._ZN4Int14initENS_9SenseModeE:0000001a .Loc.41
C:\Users\kenne\AppData\Local\Temp\ccLL1b4r.s:181    .text._ZN4Int14initENS_9SenseModeE:0000001c .Loc.42
C:\Users\kenne\AppData\Local\Temp\ccLL1b4r.s:182    .text._ZN4Int14initENS_9SenseModeE:0000001c .Loc.43
C:\Users\kenne\AppData\Local\Temp\ccLL1b4r.s:184    .text._ZN4Int14initENS_9SenseModeE:0000001e .Loc.44
C:\Users\kenne\AppData\Local\Temp\ccLL1b4r.s:185    .text._ZN4Int14initENS_9SenseModeE:0000001e .Loc.45
C:\Users\kenne\AppData\Local\Temp\ccLL1b4r.s:188    .text._ZN4Int14initENS_9SenseModeE:00000020 .Loc.46
C:\Users\kenne\AppData\Local\Temp\ccLL1b4r.s:191    .text._ZN4Int14initENS_9SenseModeE:00000024 .Loc.47
C:\Users\kenne\AppData\Local\Temp\ccLL1b4r.s:192    .text._ZN4Int14initENS_9SenseModeE:00000024 .Loc.48
C:\Users\kenne\AppData\Local\Temp\ccLL1b4r.s:195    .text._ZN4Int14initENS_9SenseModeE:00000028 .Loc.49
C:\Users\kenne\AppData\Local\Temp\ccLL1b4r.s:196    .text._ZN4Int14initENS_9SenseModeE:00000028 .Loc.50
C:\Users\kenne\AppData\Local\Temp\ccLL1b4r.s:197    .text._ZN4Int14initENS_9SenseModeE:00000028 .Loc.51
C:\Users\kenne\AppData\Local\Temp\ccLL1b4r.s:198    .text._ZN4Int14initENS_9SenseModeE:00000028 .Loc.52
C:\Users\kenne\AppData\Local\Temp\ccLL1b4r.s:202    .text._ZN4Int14initENS_9SenseModeE:0000002c L0
C:\Users\kenne\AppData\Local\Temp\ccLL1b4r.s:208    .text._ZN4Int112setSenseModeENS_9SenseModeE:00000000 _ZN4Int112setSenseModeENS_9SenseModeE
C:\Users\kenne\AppData\Local\Temp\ccLL1b4r.s:211    .text._ZN4Int112setSenseModeENS_9SenseModeE:00000000 .Loc.53
C:\Users\kenne\AppData\Local\Temp\ccLL1b4r.s:212    .text._ZN4Int112setSenseModeENS_9SenseModeE:00000000 L0
C:\Users\kenne\AppData\Local\Temp\ccLL1b4r.s:217    .text._ZN4Int112setSenseModeENS_9SenseModeE:00000000 .Loc.54
C:\Users\kenne\AppData\Local\Temp\ccLL1b4r.s:220    .text._ZN4Int112setSenseModeENS_9SenseModeE:00000004 .Loc.55
C:\Users\kenne\AppData\Local\Temp\ccLL1b4r.s:221    .text._ZN4Int112setSenseModeENS_9SenseModeE:00000004 .Loc.56
C:\Users\kenne\AppData\Local\Temp\ccLL1b4r.s:222    .text._ZN4Int112setSenseModeENS_9SenseModeE:00000004 .Loc.57
C:\Users\kenne\AppData\Local\Temp\ccLL1b4r.s:223    .text._ZN4Int112setSenseModeENS_9SenseModeE:00000004 .Loc.58
C:\Users\kenne\AppData\Local\Temp\ccLL1b4r.s:228    .text._ZN4Int112setSenseModeENS_9SenseModeE:0000000a .Loc.59
C:\Users\kenne\AppData\Local\Temp\ccLL1b4r.s:231    .text._ZN4Int112setSenseModeENS_9SenseModeE:0000000c .Loc.60
C:\Users\kenne\AppData\Local\Temp\ccLL1b4r.s:234    .text._ZN4Int112setSenseModeENS_9SenseModeE:0000000e .Loc.61
C:\Users\kenne\AppData\Local\Temp\ccLL1b4r.s:242    .text._ZN4Int112setSenseModeENS_9SenseModeE:0000001a .Loc.62
C:\Users\kenne\AppData\Local\Temp\ccLL1b4r.s:243    .text._ZN4Int112setSenseModeENS_9SenseModeE:0000001a .Loc.63
C:\Users\kenne\AppData\Local\Temp\ccLL1b4r.s:245    .text._ZN4Int112setSenseModeENS_9SenseModeE:0000001c .Loc.64
C:\Users\kenne\AppData\Local\Temp\ccLL1b4r.s:246    .text._ZN4Int112setSenseModeENS_9SenseModeE:0000001c .Loc.65
C:\Users\kenne\AppData\Local\Temp\ccLL1b4r.s:248    .text._ZN4Int112setSenseModeENS_9SenseModeE:0000001e .Loc.66
C:\Users\kenne\AppData\Local\Temp\ccLL1b4r.s:249    .text._ZN4Int112setSenseModeENS_9SenseModeE:0000001e .Loc.67
C:\Users\kenne\AppData\Local\Temp\ccLL1b4r.s:252    .text._ZN4Int112setSenseModeENS_9SenseModeE:00000022 .Loc.68
C:\Users\kenne\AppData\Local\Temp\ccLL1b4r.s:253    .text._ZN4Int112setSenseModeENS_9SenseModeE:00000022 .Loc.69
C:\Users\kenne\AppData\Local\Temp\ccLL1b4r.s:254    .text._ZN4Int112setSenseModeENS_9SenseModeE:00000022 .Loc.70
C:\Users\kenne\AppData\Local\Temp\ccLL1b4r.s:255    .text._ZN4Int112setSenseModeENS_9SenseModeE:00000022 .Loc.71
C:\Users\kenne\AppData\Local\Temp\ccLL1b4r.s:259    .text._ZN4Int112setSenseModeENS_9SenseModeE:00000024 .Loc.72
C:\Users\kenne\AppData\Local\Temp\ccLL1b4r.s:261    .text._ZN4Int112setSenseModeENS_9SenseModeE:00000026 L0
C:\Users\kenne\AppData\Local\Temp\ccLL1b4r.s:267    .text._ZN4Int112getLastErrorEv:00000000 _ZN4Int112getLastErrorEv
C:\Users\kenne\AppData\Local\Temp\ccLL1b4r.s:270    .text._ZN4Int112getLastErrorEv:00000000 .Loc.73
C:\Users\kenne\AppData\Local\Temp\ccLL1b4r.s:271    .text._ZN4Int112getLastErrorEv:00000000 L0
C:\Users\kenne\AppData\Local\Temp\ccLL1b4r.s:276    .text._ZN4Int112getLastErrorEv:00000000 .Loc.74
C:\Users\kenne\AppData\Local\Temp\ccLL1b4r.s:277    .text._ZN4Int112getLastErrorEv:00000000 .Loc.75
C:\Users\kenne\AppData\Local\Temp\ccLL1b4r.s:283    .text._ZN4Int112getLastErrorEv:00000006 .Loc.76
C:\Users\kenne\AppData\Local\Temp\ccLL1b4r.s:285    .text._ZN4Int112getLastErrorEv:00000008 L0
C:\Users\kenne\AppData\Local\Temp\ccLL1b4r.s:291    .text._Z21int1InterruptCallbackv:00000000 _Z21int1InterruptCallbackv
C:\Users\kenne\AppData\Local\Temp\ccLL1b4r.s:293    .text._Z21int1InterruptCallbackv:00000000 .Loc.77
C:\Users\kenne\AppData\Local\Temp\ccLL1b4r.s:294    .text._Z21int1InterruptCallbackv:00000000 L0
C:\Users\kenne\AppData\Local\Temp\ccLL1b4r.s:299    .text._Z21int1InterruptCallbackv:00000000 .Loc.78
C:\Users\kenne\AppData\Local\Temp\ccLL1b4r.s:301    .text._Z21int1InterruptCallbackv:00000000 .Loc.79
C:\Users\kenne\AppData\Local\Temp\ccLL1b4r.s:303    .text._Z21int1InterruptCallbackv:00000002 L0
GAS LISTING C:\Users\kenne\AppData\Local\Temp\ccLL1b4r.s 			page 29


C:\Users\kenne\AppData\Local\Temp\ccLL1b4r.s:309    .text.__vector_2:00000000 __vector_2
C:\Users\kenne\AppData\Local\Temp\ccLL1b4r.s:311    .text.__vector_2:00000000 .Loc.80
C:\Users\kenne\AppData\Local\Temp\ccLL1b4r.s:312    .text.__vector_2:00000000 L0
C:\Users\kenne\AppData\Local\Temp\ccLL1b4r.s:362    .text.__vector_2:00000022 .Loc.81
C:\Users\kenne\AppData\Local\Temp\ccLL1b4r.s:363    .text.__vector_2:00000022 .Loc.82
C:\Users\kenne\AppData\Local\Temp\ccLL1b4r.s:367    .text.__vector_2:00000026 .Loc.83
C:\Users\kenne\AppData\Local\Temp\ccLL1b4r.s:385    .text.__vector_2:00000048 L0
C:\Users\kenne\AppData\Local\Temp\ccLL1b4r.s:390    .text._GLOBAL__sub_I_int1:00000000 _GLOBAL__sub_I_int1
C:\Users\kenne\AppData\Local\Temp\ccLL1b4r.s:392    .text._GLOBAL__sub_I_int1:00000000 .Loc.84
C:\Users\kenne\AppData\Local\Temp\ccLL1b4r.s:393    .text._GLOBAL__sub_I_int1:00000000 L0
C:\Users\kenne\AppData\Local\Temp\ccLL1b4r.s:398    .text._GLOBAL__sub_I_int1:00000000 .Loc.85
C:\Users\kenne\AppData\Local\Temp\ccLL1b4r.s:407    .text._GLOBAL__sub_I_int1:0000000e L0
C:\Users\kenne\AppData\Local\Temp\ccLL1b4r.s:416    .text._GLOBAL__sub_D_int1:00000000 _GLOBAL__sub_D_int1
C:\Users\kenne\AppData\Local\Temp\ccLL1b4r.s:418    .text._GLOBAL__sub_D_int1:00000000 .Loc.86
C:\Users\kenne\AppData\Local\Temp\ccLL1b4r.s:419    .text._GLOBAL__sub_D_int1:00000000 L0
C:\Users\kenne\AppData\Local\Temp\ccLL1b4r.s:424    .text._GLOBAL__sub_D_int1:00000000 .Loc.87
C:\Users\kenne\AppData\Local\Temp\ccLL1b4r.s:433    .text._GLOBAL__sub_D_int1:0000000e L0
C:\Users\kenne\AppData\Local\Temp\ccLL1b4r.s:33     .text._Z7getTickv:00000008 L0
C:\Users\kenne\AppData\Local\Temp\ccLL1b4r.s:78     .text._ZN4Int1C2Ev:00000012 L0
C:\Users\kenne\AppData\Local\Temp\ccLL1b4r.s:101    .text._ZN4Int1D2Ev:00000002 L0
C:\Users\kenne\AppData\Local\Temp\ccLL1b4r.s:141    .text._Z41__static_initialization_and_destruction_0ii:0000001a L0
C:\Users\kenne\AppData\Local\Temp\ccLL1b4r.s:205    .text._ZN4Int14initENS_9SenseModeE:0000002c L0
C:\Users\kenne\AppData\Local\Temp\ccLL1b4r.s:264    .text._ZN4Int112setSenseModeENS_9SenseModeE:00000026 L0
C:\Users\kenne\AppData\Local\Temp\ccLL1b4r.s:288    .text._ZN4Int112getLastErrorEv:00000008 L0
C:\Users\kenne\AppData\Local\Temp\ccLL1b4r.s:306    .text._Z21int1InterruptCallbackv:00000002 L0
C:\Users\kenne\AppData\Local\Temp\ccLL1b4r.s:388    .text.__vector_2:00000048 L0
C:\Users\kenne\AppData\Local\Temp\ccLL1b4r.s:411    .text._GLOBAL__sub_I_int1:0000000e L0
C:\Users\kenne\AppData\Local\Temp\ccLL1b4r.s:437    .text._GLOBAL__sub_D_int1:0000000e L0
                     .debug_frame:00000000 L0
C:\Users\kenne\AppData\Local\Temp\ccLL1b4r.s:124    .text._Z41__static_initialization_and_destruction_0ii:0000000a .L6
C:\Users\kenne\AppData\Local\Temp\ccLL1b4r.s:119    .text._Z41__static_initialization_and_destruction_0ii:00000008 .L4
C:\Users\kenne\AppData\Local\Temp\ccLL1b4r.s:1058   .debug_abbrev:00000000 .Ldebug_abbrev0
C:\Users\kenne\AppData\Local\Temp\ccLL1b4r.s:1992   .debug_rnglists:0000000c .LLRL8
C:\Users\kenne\AppData\Local\Temp\ccLL1b4r.s:2029   .debug_line:00000000 .Ldebug_line0
C:\Users\kenne\AppData\Local\Temp\ccLL1b4r.s:417    .text._GLOBAL__sub_D_int1:00000000 .LFB49
C:\Users\kenne\AppData\Local\Temp\ccLL1b4r.s:434    .text._GLOBAL__sub_D_int1:0000000e .LFE49
C:\Users\kenne\AppData\Local\Temp\ccLL1b4r.s:430    .text._GLOBAL__sub_D_int1:0000000c .LVL24
C:\Users\kenne\AppData\Local\Temp\ccLL1b4r.s:391    .text._GLOBAL__sub_I_int1:00000000 .LFB48
C:\Users\kenne\AppData\Local\Temp\ccLL1b4r.s:408    .text._GLOBAL__sub_I_int1:0000000e .LFE48
C:\Users\kenne\AppData\Local\Temp\ccLL1b4r.s:404    .text._GLOBAL__sub_I_int1:0000000c .LVL23
C:\Users\kenne\AppData\Local\Temp\ccLL1b4r.s:105    .text._Z41__static_initialization_and_destruction_0ii:00000000 .LFB47
C:\Users\kenne\AppData\Local\Temp\ccLL1b4r.s:139    .text._Z41__static_initialization_and_destruction_0ii:0000001a .LFE47
C:\Users\kenne\AppData\Local\Temp\ccLL1b4r.s:1714   .debug_loclists:00000014 .LLST1
C:\Users\kenne\AppData\Local\Temp\ccLL1b4r.s:1705   .debug_loclists:0000000c .LVUS1
C:\Users\kenne\AppData\Local\Temp\ccLL1b4r.s:1763   .debug_loclists:00000046 .LLST2
C:\Users\kenne\AppData\Local\Temp\ccLL1b4r.s:1754   .debug_loclists:0000003e .LVUS2
C:\Users\kenne\AppData\Local\Temp\ccLL1b4r.s:135    .text._Z41__static_initialization_and_destruction_0ii:00000018 .LVL7
C:\Users\kenne\AppData\Local\Temp\ccLL1b4r.s:310    .text.__vector_2:00000000 .LFB46
C:\Users\kenne\AppData\Local\Temp\ccLL1b4r.s:386    .text.__vector_2:00000048 .LFE46
C:\Users\kenne\AppData\Local\Temp\ccLL1b4r.s:365    .text.__vector_2:00000026 .LVL22
C:\Users\kenne\AppData\Local\Temp\ccLL1b4r.s:292    .text._Z21int1InterruptCallbackv:00000000 .LFB45
C:\Users\kenne\AppData\Local\Temp\ccLL1b4r.s:304    .text._Z21int1InterruptCallbackv:00000002 .LFE45
C:\Users\kenne\AppData\Local\Temp\ccLL1b4r.s:269    .text._ZN4Int112getLastErrorEv:00000000 .LFB44
C:\Users\kenne\AppData\Local\Temp\ccLL1b4r.s:286    .text._ZN4Int112getLastErrorEv:00000008 .LFE44
C:\Users\kenne\AppData\Local\Temp\ccLL1b4r.s:1808   .debug_loclists:00000074 .LLST7
C:\Users\kenne\AppData\Local\Temp\ccLL1b4r.s:1803   .debug_loclists:00000070 .LVUS7
C:\Users\kenne\AppData\Local\Temp\ccLL1b4r.s:210    .text._ZN4Int112setSenseModeENS_9SenseModeE:00000000 .LFB43
GAS LISTING C:\Users\kenne\AppData\Local\Temp\ccLL1b4r.s 			page 30


C:\Users\kenne\AppData\Local\Temp\ccLL1b4r.s:262    .text._ZN4Int112setSenseModeENS_9SenseModeE:00000026 .LFE43
C:\Users\kenne\AppData\Local\Temp\ccLL1b4r.s:1837   .debug_loclists:00000092 .LLST5
C:\Users\kenne\AppData\Local\Temp\ccLL1b4r.s:1832   .debug_loclists:0000008e .LVUS5
C:\Users\kenne\AppData\Local\Temp\ccLL1b4r.s:1864   .debug_loclists:000000ae .LLST6
C:\Users\kenne\AppData\Local\Temp\ccLL1b4r.s:1859   .debug_loclists:000000aa .LVUS6
C:\Users\kenne\AppData\Local\Temp\ccLL1b4r.s:146    .text._ZN4Int14initENS_9SenseModeE:00000000 .LFB42
C:\Users\kenne\AppData\Local\Temp\ccLL1b4r.s:203    .text._ZN4Int14initENS_9SenseModeE:0000002c .LFE42
C:\Users\kenne\AppData\Local\Temp\ccLL1b4r.s:1883   .debug_loclists:000000c2 .LLST3
C:\Users\kenne\AppData\Local\Temp\ccLL1b4r.s:1878   .debug_loclists:000000be .LVUS3
C:\Users\kenne\AppData\Local\Temp\ccLL1b4r.s:1910   .debug_loclists:000000de .LLST4
C:\Users\kenne\AppData\Local\Temp\ccLL1b4r.s:1905   .debug_loclists:000000da .LVUS4
C:\Users\kenne\AppData\Local\Temp\ccLL1b4r.s:83     .text._ZN4Int1D2Ev:00000000 .LFB40
C:\Users\kenne\AppData\Local\Temp\ccLL1b4r.s:97     .text._ZN4Int1D2Ev:00000002 .LFE40
C:\Users\kenne\AppData\Local\Temp\ccLL1b4r.s:38     .text._ZN4Int1C2Ev:00000000 .LFB37
C:\Users\kenne\AppData\Local\Temp\ccLL1b4r.s:74     .text._ZN4Int1C2Ev:00000012 .LFE37
C:\Users\kenne\AppData\Local\Temp\ccLL1b4r.s:1929   .debug_loclists:000000f2 .LLST0
C:\Users\kenne\AppData\Local\Temp\ccLL1b4r.s:1924   .debug_loclists:000000ee .LVUS0
C:\Users\kenne\AppData\Local\Temp\ccLL1b4r.s:15     .text._Z7getTickv:00000000 .LFB32
C:\Users\kenne\AppData\Local\Temp\ccLL1b4r.s:31     .text._Z7getTickv:00000008 .LFE32
C:\Users\kenne\AppData\Local\Temp\ccLL1b4r.s:104    .text._Z41__static_initialization_and_destruction_0ii:00000000 .LVL3
C:\Users\kenne\AppData\Local\Temp\ccLL1b4r.s:268    .text._ZN4Int112getLastErrorEv:00000000 .LVL20
C:\Users\kenne\AppData\Local\Temp\ccLL1b4r.s:209    .text._ZN4Int112setSenseModeENS_9SenseModeE:00000000 .LVL14
C:\Users\kenne\AppData\Local\Temp\ccLL1b4r.s:227    .text._ZN4Int112setSenseModeENS_9SenseModeE:0000000a .LVL15
C:\Users\kenne\AppData\Local\Temp\ccLL1b4r.s:145    .text._ZN4Int14initENS_9SenseModeE:00000000 .LVL8
C:\Users\kenne\AppData\Local\Temp\ccLL1b4r.s:163    .text._ZN4Int14initENS_9SenseModeE:0000000a .LVL9
C:\Users\kenne\AppData\Local\Temp\ccLL1b4r.s:37     .text._ZN4Int1C2Ev:00000000 .LVL0
C:\Users\kenne\AppData\Local\Temp\ccLL1b4r.s:451    .debug_info:00000000 .Ldebug_info0

UNDEFINED SYMBOLS
__do_global_ctors
__do_global_dtors
__do_clear_bss
