GAS LISTING C:\Users\kenne\AppData\Local\Temp\ccYle9OK.s 			page 1


   1               		.file	"main.cpp"
   2               	__SP_H__ = 0x3e
   3               	__SP_L__ = 0x3d
   4               	__SREG__ = 0x3f
   5               	__tmp_reg__ = 0
   6               	__zero_reg__ = 1
   7               		.text
   8               	.Ltext0:
   9               		.cfi_sections	.debug_frame
  10               		.file 0 "F:\\IMPORTANTE\\Faculdade\\MCC\\MCC-AVR-Projects\\projects\\7_pwmservo" "main.cpp"
  11               		.section	.text._Z7getTickv,"ax",@progbits
  12               		.weak	_Z7getTickv
  14               	_Z7getTickv:
  15               	.LFB32:
  16               		.file 1 "funsape/globalDefines.hpp"
   1:funsape/globalDefines.hpp **** //!
   2:funsape/globalDefines.hpp **** //! \file           globalDefines.hpp
   3:funsape/globalDefines.hpp **** //! \brief          Global definitions file
   4:funsape/globalDefines.hpp **** //! \author         Leandro Schwarz (bladabuska+funsapeavr8lib@gmail.com)
   5:funsape/globalDefines.hpp **** //! \date           2023-04-05
   6:funsape/globalDefines.hpp **** //! \version        23.04
   7:funsape/globalDefines.hpp **** //! \copyright      license
   8:funsape/globalDefines.hpp **** //! \details        Global definitions file.
   9:funsape/globalDefines.hpp **** //! \todo           Todo list
  10:funsape/globalDefines.hpp **** //!
  11:funsape/globalDefines.hpp **** 
  12:funsape/globalDefines.hpp **** // =============================================================================
  13:funsape/globalDefines.hpp **** // Include guard (START)
  14:funsape/globalDefines.hpp **** // =============================================================================
  15:funsape/globalDefines.hpp **** 
  16:funsape/globalDefines.hpp **** #ifndef __GLOBAL_DEFINES_HPP
  17:funsape/globalDefines.hpp **** #define __GLOBAL_DEFINES_HPP                    2304
  18:funsape/globalDefines.hpp **** 
  19:funsape/globalDefines.hpp **** // =============================================================================
  20:funsape/globalDefines.hpp **** // Basic definitions
  21:funsape/globalDefines.hpp **** // =============================================================================
  22:funsape/globalDefines.hpp **** 
  23:funsape/globalDefines.hpp **** #ifndef F_CPU
  24:funsape/globalDefines.hpp **** #   define F_CPU    16000000UL
  25:funsape/globalDefines.hpp **** #endif
  26:funsape/globalDefines.hpp **** 
  27:funsape/globalDefines.hpp **** // =============================================================================
  28:funsape/globalDefines.hpp **** // Dependencies
  29:funsape/globalDefines.hpp **** // =============================================================================
  30:funsape/globalDefines.hpp **** 
  31:funsape/globalDefines.hpp **** //     //////////////////     AVR STANDARD LIBRARY     //////////////////     //
  32:funsape/globalDefines.hpp **** #include <avr/io.h>
  33:funsape/globalDefines.hpp **** #include <avr/interrupt.h>
  34:funsape/globalDefines.hpp **** #include <util/delay.h>
  35:funsape/globalDefines.hpp **** #include <util/atomic.h>
  36:funsape/globalDefines.hpp **** 
  37:funsape/globalDefines.hpp **** //     ///////////////////     STANDARD C LIBRARY     ///////////////////     //
  38:funsape/globalDefines.hpp **** #include <stddef.h>
  39:funsape/globalDefines.hpp **** #include <stdint.h>
  40:funsape/globalDefines.hpp **** #include <stdio.h>
  41:funsape/globalDefines.hpp **** #include <stdlib.h>
  42:funsape/globalDefines.hpp **** #include <string.h>
GAS LISTING C:\Users\kenne\AppData\Local\Temp\ccYle9OK.s 			page 2


  43:funsape/globalDefines.hpp **** 
  44:funsape/globalDefines.hpp **** //     //////////////////     LIBRARY DEPENDENCIES     //////////////////     //
  45:funsape/globalDefines.hpp **** #include "pinout.hpp"
  46:funsape/globalDefines.hpp **** #if !defined(__PINOUT_HPP)
  47:funsape/globalDefines.hpp **** #   error "Header file (pinout.hpp) is corrupted!"
  48:funsape/globalDefines.hpp **** #elif __PINOUT_HPP != __GLOBAL_DEFINES_HPP
  49:funsape/globalDefines.hpp **** #   error "Version mismatch between header file and library dependency (pinout.hpp)!"
  50:funsape/globalDefines.hpp **** #endif
  51:funsape/globalDefines.hpp **** 
  52:funsape/globalDefines.hpp **** // =============================================================================
  53:funsape/globalDefines.hpp **** // Undefining previous definitions
  54:funsape/globalDefines.hpp **** // =============================================================================
  55:funsape/globalDefines.hpp **** 
  56:funsape/globalDefines.hpp **** // NONE
  57:funsape/globalDefines.hpp **** 
  58:funsape/globalDefines.hpp **** // =============================================================================
  59:funsape/globalDefines.hpp **** // Constant definitions
  60:funsape/globalDefines.hpp **** // =============================================================================
  61:funsape/globalDefines.hpp **** 
  62:funsape/globalDefines.hpp **** #define inlined                         inline __attribute__((always_inline))
  63:funsape/globalDefines.hpp **** #define weakened                        __attribute__((weak))
  64:funsape/globalDefines.hpp **** 
  65:funsape/globalDefines.hpp **** // =============================================================================
  66:funsape/globalDefines.hpp **** // New data types
  67:funsape/globalDefines.hpp **** // =============================================================================
  68:funsape/globalDefines.hpp **** 
  69:funsape/globalDefines.hpp **** //     ////////////////////     BASIC VARIABLES     /////////////////////     //
  70:funsape/globalDefines.hpp **** typedef bool                            bool_t;
  71:funsape/globalDefines.hpp **** typedef char                            char_t;
  72:funsape/globalDefines.hpp **** 
  73:funsape/globalDefines.hpp **** //     ///////////////////     CONSTANT VARIABLES    ////////////////////     //
  74:funsape/globalDefines.hpp **** typedef const bool_t                    cbool_t;
  75:funsape/globalDefines.hpp **** typedef const char_t                    cchar_t;
  76:funsape/globalDefines.hpp **** typedef const int8_t                    cint8_t;
  77:funsape/globalDefines.hpp **** typedef const int16_t                   cint16_t;
  78:funsape/globalDefines.hpp **** typedef const int32_t                   cint32_t;
  79:funsape/globalDefines.hpp **** typedef const int64_t                   cint64_t;
  80:funsape/globalDefines.hpp **** typedef const uint8_t                   cuint8_t;
  81:funsape/globalDefines.hpp **** typedef const uint16_t                  cuint16_t;
  82:funsape/globalDefines.hpp **** typedef const uint32_t                  cuint32_t;
  83:funsape/globalDefines.hpp **** typedef const uint64_t                  cuint64_t;
  84:funsape/globalDefines.hpp **** 
  85:funsape/globalDefines.hpp **** //     ///////////////////     VOLATILE VARIABLES    ////////////////////     //
  86:funsape/globalDefines.hpp **** typedef volatile bool_t                 vbool_t;
  87:funsape/globalDefines.hpp **** typedef volatile char_t                 vchar_t;
  88:funsape/globalDefines.hpp **** typedef volatile int8_t                 vint8_t;
  89:funsape/globalDefines.hpp **** typedef volatile int16_t                vint16_t;
  90:funsape/globalDefines.hpp **** typedef volatile int32_t                vint32_t;
  91:funsape/globalDefines.hpp **** typedef volatile int64_t                vint64_t;
  92:funsape/globalDefines.hpp **** typedef volatile uint8_t                vuint8_t;
  93:funsape/globalDefines.hpp **** typedef volatile uint16_t               vuint16_t;
  94:funsape/globalDefines.hpp **** typedef volatile uint32_t               vuint32_t;
  95:funsape/globalDefines.hpp **** typedef volatile uint64_t               vuint64_t;
  96:funsape/globalDefines.hpp **** 
  97:funsape/globalDefines.hpp **** //     /////////////////     AVR PLATFORM VARIABLES    //////////////////     //
  98:funsape/globalDefines.hpp **** typedef int16_t                         int_t;          // 16-bit (AVR)
  99:funsape/globalDefines.hpp **** typedef uint16_t                        uint_t;         // 16-bit (AVR)
GAS LISTING C:\Users\kenne\AppData\Local\Temp\ccYle9OK.s 			page 3


 100:funsape/globalDefines.hpp **** typedef cint16_t                        cint_t;         // 16-bit (AVR)
 101:funsape/globalDefines.hpp **** typedef cuint16_t                       cuint_t;        // 16-bit (AVR)
 102:funsape/globalDefines.hpp **** typedef vint16_t                        vint_t;         // 16-bit (AVR)
 103:funsape/globalDefines.hpp **** typedef vuint16_t                       vuint_t;        // 16-bit (AVR)
 104:funsape/globalDefines.hpp **** typedef uint8_t                         ioPinIndex_t;   // 8-bit (AVR)
 105:funsape/globalDefines.hpp **** typedef vuint8_t                       *ioRegAddress_t; // 8-bit address (AVR)
 106:funsape/globalDefines.hpp **** 
 107:funsape/globalDefines.hpp **** //     //////////////////     BINARY ENUMERATIONS     ///////////////////     //
 108:funsape/globalDefines.hpp **** enum class Activation : cbool_t {
 109:funsape/globalDefines.hpp ****     OFF                                 = false,
 110:funsape/globalDefines.hpp ****     ON                                  = true
 111:funsape/globalDefines.hpp **** };
 112:funsape/globalDefines.hpp **** 
 113:funsape/globalDefines.hpp **** enum class DisplayOrientation : cbool_t {
 114:funsape/globalDefines.hpp ****     LANDSCAPE                           = false,
 115:funsape/globalDefines.hpp ****     PORTRAIT                            = true
 116:funsape/globalDefines.hpp **** };
 117:funsape/globalDefines.hpp **** 
 118:funsape/globalDefines.hpp **** enum class DriverMode : cbool_t {
 119:funsape/globalDefines.hpp ****     PUSH_PULL                           = false,
 120:funsape/globalDefines.hpp ****     OPEN_DRAIN                          = true,
 121:funsape/globalDefines.hpp **** };
 122:funsape/globalDefines.hpp **** 
 123:funsape/globalDefines.hpp **** enum class Edge : cbool_t {
 124:funsape/globalDefines.hpp ****     FALLING                             = false,
 125:funsape/globalDefines.hpp ****     RISING                              = true
 126:funsape/globalDefines.hpp **** };
 127:funsape/globalDefines.hpp **** 
 128:funsape/globalDefines.hpp **** enum class IoOperation : cbool_t {
 129:funsape/globalDefines.hpp ****     WRITE                               = false,
 130:funsape/globalDefines.hpp ****     READ                                = true
 131:funsape/globalDefines.hpp **** };
 132:funsape/globalDefines.hpp **** 
 133:funsape/globalDefines.hpp **** enum class LogicLevel : cbool_t {
 134:funsape/globalDefines.hpp ****     LOW                                 = false,
 135:funsape/globalDefines.hpp ****     HIGH                                = true
 136:funsape/globalDefines.hpp **** };
 137:funsape/globalDefines.hpp **** 
 138:funsape/globalDefines.hpp **** enum class PinDirection : cbool_t {
 139:funsape/globalDefines.hpp ****     INPUT                               = false,
 140:funsape/globalDefines.hpp ****     OUTPUT                              = true,
 141:funsape/globalDefines.hpp **** };
 142:funsape/globalDefines.hpp **** 
 143:funsape/globalDefines.hpp **** enum class Rotation : cbool_t {
 144:funsape/globalDefines.hpp ****     CLOCKWISE                           = false,
 145:funsape/globalDefines.hpp ****     COUNTERCLOCKWISE                    = true
 146:funsape/globalDefines.hpp **** };
 147:funsape/globalDefines.hpp **** 
 148:funsape/globalDefines.hpp **** enum class State : cbool_t {
 149:funsape/globalDefines.hpp ****     OFF                                 = false,
 150:funsape/globalDefines.hpp ****     ON                                  = true
 151:funsape/globalDefines.hpp **** };
 152:funsape/globalDefines.hpp **** 
 153:funsape/globalDefines.hpp **** //     ///////////////////     PLAIN ENUMERATIONS    ////////////////////     //
 154:funsape/globalDefines.hpp **** enum class Axis : cuint8_t {
 155:funsape/globalDefines.hpp ****     //                                     Z-AXIS     Y-AXIS     X-AXIS
 156:funsape/globalDefines.hpp ****     NONE                                = (0 << 2) | (0 << 1) | (0 << 0),
GAS LISTING C:\Users\kenne\AppData\Local\Temp\ccYle9OK.s 			page 4


 157:funsape/globalDefines.hpp ****     X                                   = (0 << 2) | (0 << 1) | (1 << 0),
 158:funsape/globalDefines.hpp ****     Y                                   = (0 << 2) | (1 << 1) | (0 << 0),
 159:funsape/globalDefines.hpp ****     XY                                  = (0 << 2) | (1 << 1) | (1 << 0),
 160:funsape/globalDefines.hpp ****     Z                                   = (1 << 2) | (0 << 1) | (0 << 0),
 161:funsape/globalDefines.hpp ****     XZ                                  = (1 << 2) | (0 << 1) | (1 << 0),
 162:funsape/globalDefines.hpp ****     YZ                                  = (1 << 2) | (1 << 1) | (0 << 0),
 163:funsape/globalDefines.hpp ****     ALL                                 = (1 << 2) | (1 << 1) | (1 << 0)
 164:funsape/globalDefines.hpp **** };
 165:funsape/globalDefines.hpp **** 
 166:funsape/globalDefines.hpp **** inlined Axis operator|(Axis a, Axis b)
 167:funsape/globalDefines.hpp **** {
 168:funsape/globalDefines.hpp ****     return static_cast<Axis>(static_cast<cint8_t>(a) | static_cast<uint8_t>(b));
 169:funsape/globalDefines.hpp **** }
 170:funsape/globalDefines.hpp **** 
 171:funsape/globalDefines.hpp **** inlined Axis &operator|=(Axis &a, Axis b)
 172:funsape/globalDefines.hpp **** {
 173:funsape/globalDefines.hpp ****     return a = static_cast<Axis>(static_cast<uint8_t>(a) | static_cast<uint8_t>(b));
 174:funsape/globalDefines.hpp **** }
 175:funsape/globalDefines.hpp **** 
 176:funsape/globalDefines.hpp **** inlined Axis operator&(Axis a, Axis b)
 177:funsape/globalDefines.hpp **** {
 178:funsape/globalDefines.hpp ****     return static_cast<Axis>(static_cast<uint8_t>(a) & static_cast<uint8_t>(b));
 179:funsape/globalDefines.hpp **** }
 180:funsape/globalDefines.hpp **** 
 181:funsape/globalDefines.hpp **** inlined Axis &operator&=(Axis &a, Axis b)
 182:funsape/globalDefines.hpp **** {
 183:funsape/globalDefines.hpp ****     return a = static_cast<Axis>(static_cast<uint8_t>(a) & static_cast<uint8_t>(b));
 184:funsape/globalDefines.hpp **** }
 185:funsape/globalDefines.hpp **** 
 186:funsape/globalDefines.hpp **** enum class Direction : cuint8_t {
 187:funsape/globalDefines.hpp ****     LEFT                                = 0,
 188:funsape/globalDefines.hpp ****     RIGHT                               = 1,
 189:funsape/globalDefines.hpp ****     UP                                  = 2,
 190:funsape/globalDefines.hpp ****     DOWN                                = 3
 191:funsape/globalDefines.hpp **** };
 192:funsape/globalDefines.hpp **** 
 193:funsape/globalDefines.hpp **** enum class InterfaceMode : cuint8_t {
 194:funsape/globalDefines.hpp ****     BLOCKING_MODE                       = 0,
 195:funsape/globalDefines.hpp ****     INTERRUPT_MODE                      = 1,
 196:funsape/globalDefines.hpp ****     DMA_MODE                            = 2
 197:funsape/globalDefines.hpp **** };
 198:funsape/globalDefines.hpp **** 
 199:funsape/globalDefines.hpp **** enum class ThermometricScale : cuint8_t {
 200:funsape/globalDefines.hpp ****     CELSIUS                             = 0,
 201:funsape/globalDefines.hpp ****     DELISLE                             = 1,
 202:funsape/globalDefines.hpp ****     FAHRENHEIT                          = 2,
 203:funsape/globalDefines.hpp ****     KELVIN                              = 3,
 204:funsape/globalDefines.hpp ****     NEWTON                              = 4,
 205:funsape/globalDefines.hpp ****     RANKINE                             = 5,
 206:funsape/globalDefines.hpp ****     REAUMUR                             = 6,
 207:funsape/globalDefines.hpp ****     ROMER                               = 7
 208:funsape/globalDefines.hpp **** };
 209:funsape/globalDefines.hpp **** 
 210:funsape/globalDefines.hpp **** enum class Error : cuint16_t {
 211:funsape/globalDefines.hpp ****     // General error codes
 212:funsape/globalDefines.hpp ****     NONE                                                = 0x0000,   // Success - No errors occurred
 213:funsape/globalDefines.hpp ****     AXIS_INVALID                                        = 0x0001,   // Invalid axis
GAS LISTING C:\Users\kenne\AppData\Local\Temp\ccYle9OK.s 			page 5


 214:funsape/globalDefines.hpp ****     NOT_IMPLEMENTED                                     = 0x0002,   // Not implemented yet
 215:funsape/globalDefines.hpp ****     UNDER_DEVELOPMENT                                   = 0x0003,   // This part of the code is sti
 216:funsape/globalDefines.hpp ****     NOT_INITIALIZED                                     = 0x0004,   // Not initialized
 217:funsape/globalDefines.hpp ****     // BUSY                                                = 0x0005,   // TODO: Describe parameter
 218:funsape/globalDefines.hpp ****     // DEVICE_NOT_SUPPORTED                                = 0x0006,   // Device is not currently s
 219:funsape/globalDefines.hpp ****     FEATURE_NOT_SUPPORTED                               = 0x0007,   // Unsupported feature or confi
 220:funsape/globalDefines.hpp ****     // FUNCTION_POINTER_NULL                               = 0x0008,   // TODO: Describe parameter
 221:funsape/globalDefines.hpp ****     // INSTANCE_INVALID                                    = 0x0009,   // Invalid instance
 222:funsape/globalDefines.hpp ****     // LOCKED                                              = 0x000A,   // Accessed a locked device
 223:funsape/globalDefines.hpp ****     MEMORY_ALLOCATION                                   = 0x000B,   // Memory allocation failed
 224:funsape/globalDefines.hpp ****     // MODE_NOT_SUPPORTED                                  = 0x000C,   // Mode is not currently sup
 225:funsape/globalDefines.hpp ****     // NOT_READY                                           = 0x000D,   // TODO: Describe parameter
 226:funsape/globalDefines.hpp ****     // READ_PROTECTED                                      = 0x000E,   // Tried to read a read prot
 227:funsape/globalDefines.hpp ****     // WRITE_PROTECTED                                     = 0x000F,   // Tried to write a write pr
 228:funsape/globalDefines.hpp **** 
 229:funsape/globalDefines.hpp ****     // Function arguments related error codes
 230:funsape/globalDefines.hpp ****     ARGUMENT_CANNOT_BE_ZERO                             = 0x0010,   // TODO: Describe parameter
 231:funsape/globalDefines.hpp ****     ARGUMENT_POINTER_NULL                               = 0x0011,   // NULL pointer was passed as a
 232:funsape/globalDefines.hpp ****     ARGUMENT_VALUE_INVALID                              = 0x0012,   // TODO: Describe parameter
 233:funsape/globalDefines.hpp ****     // ARGUMENTS_MISMATCH                                  = 0x0013,   // A function was called wit
 234:funsape/globalDefines.hpp ****     // ARGUMENTS_WRONG_NUMBER                              = 0x0014,   // A function was called wit
 235:funsape/globalDefines.hpp ****     // ARGUMENT_GENERIC_ERROR_5                            = 0x0015,   // Generic error (use only o
 236:funsape/globalDefines.hpp ****     // ARGUMENT_GENERIC_ERROR_6                            = 0x0016,   // Generic error (use only o
 237:funsape/globalDefines.hpp ****     // ARGUMENT_GENERIC_ERROR_7                            = 0x0017,   // Generic error (use only o
 238:funsape/globalDefines.hpp ****     // ARGUMENT_GENERIC_ERROR_8                            = 0x0018,   // Generic error (use only o
 239:funsape/globalDefines.hpp ****     // ARGUMENT_GENERIC_ERROR_9                            = 0x0019,   // Generic error (use only o
 240:funsape/globalDefines.hpp ****     // ARGUMENT_GENERIC_ERROR_10                           = 0x001A,   // Generic error (use only o
 241:funsape/globalDefines.hpp ****     // ARGUMENT_GENERIC_ERROR_11                           = 0x001B,   // Generic error (use only o
 242:funsape/globalDefines.hpp ****     // ARGUMENT_GENERIC_ERROR_12                           = 0x001C,   // Generic error (use only o
 243:funsape/globalDefines.hpp ****     // ARGUMENT_GENERIC_ERROR_13                           = 0x001D,   // Generic error (use only o
 244:funsape/globalDefines.hpp ****     // ARGUMENT_GENERIC_ERROR_14                           = 0x001E,   // Generic error (use only o
 245:funsape/globalDefines.hpp ****     // ARGUMENT_GENERIC_ERROR                              = 0x001F,   // Generic error (use only o
 246:funsape/globalDefines.hpp **** 
 247:funsape/globalDefines.hpp ****     // Buffer related error codes
 248:funsape/globalDefines.hpp ****     // BUFFER_EMPTY                                        = 0x0020,   // Buffer is empty
 249:funsape/globalDefines.hpp ****     // BUFFER_FULL                                         = 0x0021,   // Buffer is full
 250:funsape/globalDefines.hpp ****     // BUFFER_NOT_ENOUGH_ELEMENTS                          = 0x0022,   // Not enough space in buffe
 251:funsape/globalDefines.hpp ****     // BUFFER_NOT_ENOUGH_SPACE                             = 0x0023,   // Not enough space in buffe
 252:funsape/globalDefines.hpp ****     // BUFFER_POINTER_NULL                                 = 0x0024,   // Buffer size was set to ze
 253:funsape/globalDefines.hpp ****     BUFFER_SIZE_TOO_LARGE                               = 0x0025,   // Buffer size was set to a lar
 254:funsape/globalDefines.hpp ****     BUFFER_SIZE_TOO_SMALL                               = 0x0026,   // Buffer size was set to a ver
 255:funsape/globalDefines.hpp ****     // BUFFER_SIZE_ZERO                                    = 0x0027,   // Buffer size was set to ze
 256:funsape/globalDefines.hpp ****     // BUFFER_GENERIC_ERROR_8                              = 0x0028,   // Generic error (use only o
 257:funsape/globalDefines.hpp ****     // BUFFER_GENERIC_ERROR_9                              = 0x0029,   // Generic error (use only o
 258:funsape/globalDefines.hpp ****     // BUFFER_GENERIC_ERROR_10                             = 0x002A,   // Generic error (use only o
 259:funsape/globalDefines.hpp ****     // BUFFER_GENERIC_ERROR_11                             = 0x002B,   // Generic error (use only o
 260:funsape/globalDefines.hpp ****     // BUFFER_GENERIC_ERROR_12                             = 0x002C,   // Generic error (use only o
 261:funsape/globalDefines.hpp ****     // BUFFER_GENERIC_ERROR_13                             = 0x002D,   // Generic error (use only o
 262:funsape/globalDefines.hpp ****     // BUFFER_GENERIC_ERROR_14                             = 0x002E,   // Generic error (use only o
 263:funsape/globalDefines.hpp ****     // BUFFER_GENERIC_ERROR_15                             = 0x002F,   // Generic error (use only o
 264:funsape/globalDefines.hpp **** 
 265:funsape/globalDefines.hpp ****     // Clock configuration related error codes
 266:funsape/globalDefines.hpp ****     CLOCK_PRESCALER_CHANGE_FAILED                       = 0x0030,   // Clock prescaler change faile
 267:funsape/globalDefines.hpp ****     CLOCK_PRESCALER_NOT_SUPPORTED                       = 0x0031,   // Clock prescaler configuratio
 268:funsape/globalDefines.hpp ****     CLOCK_SPEED_TOO_HIGH                                = 0x0032,   // TODO: Describe parameter
 269:funsape/globalDefines.hpp ****     CLOCK_SPEED_TOO_LOW                                 = 0x0033,   // TODO: Describe parameter
 270:funsape/globalDefines.hpp ****     // CLOCK_GENERIC_ERROR_4                               = 0x0034,   // Generic error (use only o
GAS LISTING C:\Users\kenne\AppData\Local\Temp\ccYle9OK.s 			page 6


 271:funsape/globalDefines.hpp ****     // CLOCK_GENERIC_ERROR_5                               = 0x0035,   // Generic error (use only o
 272:funsape/globalDefines.hpp ****     // CLOCK_GENERIC_ERROR_6                               = 0x0036,   // Generic error (use only o
 273:funsape/globalDefines.hpp ****     // CLOCK_GENERIC_ERROR_7                               = 0x0037,   // Generic error (use only o
 274:funsape/globalDefines.hpp ****     // CLOCK_GENERIC_ERROR_8                               = 0x0038,   // Generic error (use only o
 275:funsape/globalDefines.hpp ****     // CLOCK_GENERIC_ERROR_9                               = 0x0039,   // Generic error (use only o
 276:funsape/globalDefines.hpp ****     // CLOCK_GENERIC_ERROR_10                              = 0x003A,   // Generic error (use only o
 277:funsape/globalDefines.hpp ****     // CLOCK_GENERIC_ERROR_11                              = 0x003B,   // Generic error (use only o
 278:funsape/globalDefines.hpp ****     // CLOCK_GENERIC_ERROR_12                              = 0x003C,   // Generic error (use only o
 279:funsape/globalDefines.hpp ****     // CLOCK_GENERIC_ERROR_13                              = 0x003D,   // Generic error (use only o
 280:funsape/globalDefines.hpp ****     // CLOCK_GENERIC_ERROR_14                              = 0x003E,   // Generic error (use only o
 281:funsape/globalDefines.hpp ****     // CLOCK_GENERIC_ERROR_15                              = 0x003F,   // Generic error (use only o
 282:funsape/globalDefines.hpp **** 
 283:funsape/globalDefines.hpp ****     // Communication related error codes
 284:funsape/globalDefines.hpp ****     COMMUNICATION_FAILED                                = 0x0040,   // TODO: Describe parameter
 285:funsape/globalDefines.hpp ****     COMMUNICATION_NO_DEVICE_SELECTED                    = 0x0041,   // TODO: Describe parameter
 286:funsape/globalDefines.hpp ****     // COMMUNICATION_PORT_NOT_SET                          = 0x0042,   // TODO: Describe parameter
 287:funsape/globalDefines.hpp ****     COMMUNICATION_TIMEOUT                               = 0x0043,   // The operation timed out
 288:funsape/globalDefines.hpp ****     // COMMUNICATION_DEVICE_ID_MATCH_FAILED                = 0x0044,   // TODO: Describe parameter
 289:funsape/globalDefines.hpp ****     // CHECKSUM_ERROR                                      = 0x0045,   // TODO: Describe parameter
 290:funsape/globalDefines.hpp ****     // FRAME_ERROR                                         = 0x0046,   // TODO: Describe parameter
 291:funsape/globalDefines.hpp ****     // PACKAGE_AWAITING                                    = 0x0047,   // Try to write data to a re
 292:funsape/globalDefines.hpp ****     // PACKAGE_NOT_READY                                   = 0x0048,   // Try to read data from a n
 293:funsape/globalDefines.hpp ****     // COMMUNICATION_GENERIC_ERROR_9                       = 0x0049,   // Generic error (use only o
 294:funsape/globalDefines.hpp ****     // COMMUNICATION_GENERIC_ERROR_10                      = 0x004A,   // Generic error (use only o
 295:funsape/globalDefines.hpp ****     // COMMUNICATION_GENERIC_ERROR_11                      = 0x004B,   // Generic error (use only o
 296:funsape/globalDefines.hpp ****     // COMMUNICATION_GENERIC_ERROR_12                      = 0x004C,   // Generic error (use only o
 297:funsape/globalDefines.hpp ****     // COMMUNICATION_GENERIC_ERROR_13                      = 0x004D,   // Generic error (use only o
 298:funsape/globalDefines.hpp ****     // COMMUNICATION_GENERIC_ERROR_14                      = 0x004E,   // Generic error (use only o
 299:funsape/globalDefines.hpp ****     // COMMUNICATION_GENERIC_ERROR_15                      = 0x004F,   // Generic error (use only o
 300:funsape/globalDefines.hpp **** 
 301:funsape/globalDefines.hpp ****     // DateTime class related error codes
 302:funsape/globalDefines.hpp ****     DATE_NOT_INITIALIZED                                = 0x0050,   // TODO: Describe parameter
 303:funsape/globalDefines.hpp ****     // HOUR_INVALID                                        = 0x0051,   // TODO: Describe parameter
 304:funsape/globalDefines.hpp ****     // MILLISECOND_INVALID                                 = 0x0052,   // TODO: Describe parameter
 305:funsape/globalDefines.hpp ****     // MINUTE_INVALID                                      = 0x0053,   // TODO: Describe parameter
 306:funsape/globalDefines.hpp ****     // MONTH_DAY_INVALID                                   = 0x0054,   // TODO: Describe parameter
 307:funsape/globalDefines.hpp ****     // MONTH_INVALID                                       = 0x0055,   // TODO: Describe parameter
 308:funsape/globalDefines.hpp ****     // SECOND_INVALID                                      = 0x0056,   // TODO: Describe parameter
 309:funsape/globalDefines.hpp ****     TIME_NOT_INITIALIZED                                = 0x0057,   // TODO: Describe parameter
 310:funsape/globalDefines.hpp ****     // TIMEZONE_INVALID                                    = 0x0058,   // TODO: Describe parameter
 311:funsape/globalDefines.hpp ****     // YEAR_INVALID                                        = 0x0059,   // TODO: Describe parameter
 312:funsape/globalDefines.hpp ****     DATE_INVALID                                        = 0x005A,   // TODO: Describe parameter
 313:funsape/globalDefines.hpp ****     TIME_INVALID                                        = 0x005B,   // TODO: Describe parameter
 314:funsape/globalDefines.hpp ****     // GENERIC_ERROR_13                                    = 0x005C,   // Generic error (use only o
 315:funsape/globalDefines.hpp ****     // GENERIC_ERROR_14                                    = 0x005D,   // Generic error (use only o
 316:funsape/globalDefines.hpp ****     // GENERIC_ERROR_15                                    = 0x005F,   // Generic error (use only o
 317:funsape/globalDefines.hpp **** 
 318:funsape/globalDefines.hpp ****     // Handler related error codes
 319:funsape/globalDefines.hpp ****     BUS_HANDLER_NOT_SUPPORTED                           = 0x0060,   // TODO: Describe parameter
 320:funsape/globalDefines.hpp ****     BUS_HANDLER_POINTER_NULL                            = 0x0061,   // TODO: Describe parameter
 321:funsape/globalDefines.hpp ****     // HANDLER_GENERIC_ERROR_2                             = 0x0062,   // Generic error (use only o
 322:funsape/globalDefines.hpp ****     // HANDLER_GENERIC_ERROR_3                             = 0x0063,   // Generic error (use only o
 323:funsape/globalDefines.hpp ****     // HANDLER_GENERIC_ERROR_4                             = 0x0064,   // Generic error (use only o
 324:funsape/globalDefines.hpp ****     // HANDLER_GENERIC_ERROR_5                             = 0x0065,   // Generic error (use only o
 325:funsape/globalDefines.hpp ****     // HANDLER_GENERIC_ERROR_6                             = 0x0066,   // Generic error (use only o
 326:funsape/globalDefines.hpp ****     // HANDLER_GENERIC_ERROR_7                             = 0x0067,   // Generic error (use only o
 327:funsape/globalDefines.hpp ****     // HANDLER_GENERIC_ERROR_8                             = 0x0068,   // Generic error (use only o
GAS LISTING C:\Users\kenne\AppData\Local\Temp\ccYle9OK.s 			page 7


 328:funsape/globalDefines.hpp ****     // HANDLER_GENERIC_ERROR_9                             = 0x0069,   // Generic error (use only o
 329:funsape/globalDefines.hpp ****     // HANDLER_GENERIC_ERROR_10                            = 0x006A,   // Generic error (use only o
 330:funsape/globalDefines.hpp ****     // HANDLER_GENERIC_ERROR_11                            = 0x006B,   // Generic error (use only o
 331:funsape/globalDefines.hpp ****     // HANDLER_GENERIC_ERROR_12                            = 0x006C,   // Generic error (use only o
 332:funsape/globalDefines.hpp ****     // HANDLER_GENERIC_ERROR_13                            = 0x006D,   // Generic error (use only o
 333:funsape/globalDefines.hpp ****     // HANDLER_GENERIC_ERROR_14                            = 0x006E,   // Generic error (use only o
 334:funsape/globalDefines.hpp ****     // HANDLER_GENERIC_ERROR_15                            = 0x006F,   // Generic error (use only o
 335:funsape/globalDefines.hpp **** 
 336:funsape/globalDefines.hpp ****     // External interrupts related error codes
 337:funsape/globalDefines.hpp ****     // INTERRUPT_NOT_AVAILABLE                             = 0x0070,   // TODO: Describe parameter
 338:funsape/globalDefines.hpp ****     // INTERRUPT_PORT_OUTPUT_MODE_NOT_SUPPORTED            = 0x0071,   // TODO: Describe parameter
 339:funsape/globalDefines.hpp ****     // INTERRUPT_SENSE_MODE_NOT_SUPPORTED                  = 0x0072,   // TODO: Describe parameter
 340:funsape/globalDefines.hpp ****     // INTERRUPT_GENERIC_ERROR_3                           = 0x0073,   // Generic error (use only o
 341:funsape/globalDefines.hpp ****     // INTERRUPT_GENERIC_ERROR_4                           = 0x0074,   // Generic error (use only o
 342:funsape/globalDefines.hpp ****     // INTERRUPT_GENERIC_ERROR_5                           = 0x0075,   // Generic error (use only o
 343:funsape/globalDefines.hpp ****     // INTERRUPT_GENERIC_ERROR_6                           = 0x0076,   // Generic error (use only o
 344:funsape/globalDefines.hpp ****     // INTERRUPT_GENERIC_ERROR_7                           = 0x0077,   // Generic error (use only o
 345:funsape/globalDefines.hpp ****     // INTERRUPT_GENERIC_ERROR_8                           = 0x0078,   // Generic error (use only o
 346:funsape/globalDefines.hpp ****     // INTERRUPT_GENERIC_ERROR_9                           = 0x0079,   // Generic error (use only o
 347:funsape/globalDefines.hpp ****     // INTERRUPT_GENERIC_ERROR_10                          = 0x007A,   // Generic error (use only o
 348:funsape/globalDefines.hpp ****     // INTERRUPT_GENERIC_ERROR_11                          = 0x007B,   // Generic error (use only o
 349:funsape/globalDefines.hpp ****     // INTERRUPT_GENERIC_ERROR_12                          = 0x007C,   // Generic error (use only o
 350:funsape/globalDefines.hpp ****     // INTERRUPT_GENERIC_ERROR_13                          = 0x007D,   // Generic error (use only o
 351:funsape/globalDefines.hpp ****     // INTERRUPT_GENERIC_ERROR_14                          = 0x007E,   // Generic error (use only o
 352:funsape/globalDefines.hpp ****     // INTERRUPT_GENERIC_ERROR_15                          = 0x007F,   // Generic error (use only o
 353:funsape/globalDefines.hpp **** 
 354:funsape/globalDefines.hpp **** 
 355:funsape/globalDefines.hpp ****     // Package API class related error codes
 356:funsape/globalDefines.hpp ****     // PACKAGE_API_PACKAGE_DATA_FULL                       = 0x0080,   // TODO: Describe parameter
 357:funsape/globalDefines.hpp ****     // PACKAGE_API_PACKAGE_NOT_READY                       = 0x0081,   // TODO: Describe parameter
 358:funsape/globalDefines.hpp ****     // PACKAGE_API_PAYLOAD_DATA_NULL                       = 0x0082,   // TODO: Describe parameter
 359:funsape/globalDefines.hpp ****     // PACKAGE_API_PAYLOAD_SIZE_NULL                       = 0x0083,   // TODO: Describe parameter
 360:funsape/globalDefines.hpp ****     // PACKAGE_API_SOURCE_ADDRESS_INVALID                  = 0x0084,   // TODO: Describe parameter
 361:funsape/globalDefines.hpp ****     // PACKAGE_API_GENERIC_ERROR_5                         = 0x0085,   // Generic error (use only o
 362:funsape/globalDefines.hpp ****     // PACKAGE_API_GENERIC_ERROR_6                         = 0x0086,   // Generic error (use only o
 363:funsape/globalDefines.hpp ****     // PACKAGE_API_GENERIC_ERROR_7                         = 0x0087,   // Generic error (use only o
 364:funsape/globalDefines.hpp ****     // PACKAGE_API_GENERIC_ERROR_8                         = 0x0088,   // Generic error (use only o
 365:funsape/globalDefines.hpp ****     // PACKAGE_API_GENERIC_ERROR_9                         = 0x0089,   // Generic error (use only o
 366:funsape/globalDefines.hpp ****     // PACKAGE_API_GENERIC_ERROR_10                        = 0x008A,   // Generic error (use only o
 367:funsape/globalDefines.hpp ****     // PACKAGE_API_GENERIC_ERROR_11                        = 0x008B,   // Generic error (use only o
 368:funsape/globalDefines.hpp ****     // PACKAGE_API_GENERIC_ERROR_12                        = 0x008C,   // Generic error (use only o
 369:funsape/globalDefines.hpp ****     // PACKAGE_API_GENERIC_ERROR_13                        = 0x008D,   // Generic error (use only o
 370:funsape/globalDefines.hpp ****     // PACKAGE_API_GENERIC_ERROR_14                        = 0x008E,   // Generic error (use only o
 371:funsape/globalDefines.hpp ****     // PACKAGE_API_GENERIC_ERROR_15                        = 0x008F,   // Generic error (use only o
 372:funsape/globalDefines.hpp **** 
 373:funsape/globalDefines.hpp ****     // SPI related error codes
 374:funsape/globalDefines.hpp ****     // SPI_BUSY_FLAG                                       = 0x0090,   // TODO: Describe parameter
 375:funsape/globalDefines.hpp ****     // SPI_CRC                                             = 0x0091,   // TODO: Describe parameter
 376:funsape/globalDefines.hpp ****     // SPI_DMA                                             = 0x0092,   // TODO: Describe parameter
 377:funsape/globalDefines.hpp ****     // SPI_MODE_FAULT                                      = 0x0093,   // TODO: Describe parameter
 378:funsape/globalDefines.hpp ****     // SPI_OVERRUN                                         = 0x0094,   // TODO: Describe parameter
 379:funsape/globalDefines.hpp ****     // SPI_GENERIC_ERROR_5                                 = 0x0095,   // Generic error (use only o
 380:funsape/globalDefines.hpp ****     // SPI_GENERIC_ERROR_6                                 = 0x0096,   // Generic error (use only o
 381:funsape/globalDefines.hpp ****     // SPI_GENERIC_ERROR_7                                 = 0x0097,   // Generic error (use only o
 382:funsape/globalDefines.hpp ****     // SPI_GENERIC_ERROR_8                                 = 0x0098,   // Generic error (use only o
 383:funsape/globalDefines.hpp ****     // SPI_GENERIC_ERROR_9                                 = 0x0099,   // Generic error (use only o
 384:funsape/globalDefines.hpp ****     // SPI_GENERIC_ERROR_10                                = 0x009A,   // Generic error (use only o
GAS LISTING C:\Users\kenne\AppData\Local\Temp\ccYle9OK.s 			page 8


 385:funsape/globalDefines.hpp ****     // SPI_GENERIC_ERROR_11                                = 0x009B,   // Generic error (use only o
 386:funsape/globalDefines.hpp ****     // SPI_GENERIC_ERROR_12                                = 0x009C,   // Generic error (use only o
 387:funsape/globalDefines.hpp ****     // SPI_GENERIC_ERROR_13                                = 0x009D,   // Generic error (use only o
 388:funsape/globalDefines.hpp ****     // SPI_GENERIC_ERROR_14                                = 0x009E,   // Generic error (use only o
 389:funsape/globalDefines.hpp ****     // SPI_GENERIC_ERROR_15                                = 0x009F,   // Generic error (use only o
 390:funsape/globalDefines.hpp **** 
 391:funsape/globalDefines.hpp ****     // TWI related error codes
 392:funsape/globalDefines.hpp ****     // TWI_AF_FLAG                                         = 0x00A0,   // TWI AF flag error
 393:funsape/globalDefines.hpp ****     // TWI_ARBITRATION_LOST                                = 0x00A1,   // TWI bus arbitration lost
 394:funsape/globalDefines.hpp ****     // TWI_BUS_ERROR                                       = 0x00A2,   // TWI bus error
 395:funsape/globalDefines.hpp ****     // TWI_DMA                                             = 0x00A3,   // DMA parameter error
 396:funsape/globalDefines.hpp ****     // TWI_DMA_PARAM                                       = 0x00A4,   // DMA transfer error
 397:funsape/globalDefines.hpp ****     // TWI_OVERRUN                                         = 0x00A5,   // TWI overrun
 398:funsape/globalDefines.hpp ****     // TWI_SIZE_MANAGEMENT_ERROR                           = 0x00A6,   // Size management error
 399:funsape/globalDefines.hpp ****     // TWI_INVALID_DEVICE_ADDRESS                          = 0x00A7,   // TODO: Describe parameter
 400:funsape/globalDefines.hpp ****     // TWI_GENERIC_ERROR_8                                 = 0x00A8,   // Generic error (use only o
 401:funsape/globalDefines.hpp ****     // TWI_GENERIC_ERROR_9                                 = 0x00A9,   // Generic error (use only o
 402:funsape/globalDefines.hpp ****     // TWI_GENERIC_ERROR_10                                = 0x00AA,   // Generic error (use only o
 403:funsape/globalDefines.hpp ****     // TWI_GENERIC_ERROR_11                                = 0x00AB,   // Generic error (use only o
 404:funsape/globalDefines.hpp ****     // TWI_GENERIC_ERROR_12                                = 0x00AC,   // Generic error (use only o
 405:funsape/globalDefines.hpp ****     // TWI_GENERIC_ERROR_13                                = 0x00AD,   // Generic error (use only o
 406:funsape/globalDefines.hpp ****     // TWI_GENERIC_ERROR_14                                = 0x00AE,   // Generic error (use only o
 407:funsape/globalDefines.hpp ****     // TWI_GENERIC_ERROR_15                                = 0x00AF,   // Generic error (use only o
 408:funsape/globalDefines.hpp **** 
 409:funsape/globalDefines.hpp ****     // USART related error codes
 410:funsape/globalDefines.hpp ****     // USART_BAUD_RATE_NOT_SUPPORTED                       = 0x00B0,   // TODO: Describe parameter
 411:funsape/globalDefines.hpp ****     // USART_CONFIGURATION_PARAMETER_WRONG                 = 0x00B1,   // TODO: Describe parameter
 412:funsape/globalDefines.hpp ****     // USART_DATA_BITS_NOT_SUPPORTED                       = 0x00B2,   // TODO: Describe parameter
 413:funsape/globalDefines.hpp ****     // USART_FRAME_FORMAT_NOT_SUPPORTED                    = 0x00B3,   // TODO: Describe parameter
 414:funsape/globalDefines.hpp ****     // USART_PARITY_NOT_SUPPORTED                          = 0x00B4,   // TODO: Describe parameter
 415:funsape/globalDefines.hpp ****     // USART_STOP_BIT_NOT_SUPPORTED                        = 0x00B5,   // TODO: Describe parameter
 416:funsape/globalDefines.hpp ****     // USART_GENERIC_ERROR_6                               = 0x00B6,   // Generic error (use only o
 417:funsape/globalDefines.hpp ****     // USART_GENERIC_ERROR_7                               = 0x00B7,   // Generic error (use only o
 418:funsape/globalDefines.hpp ****     // USART_GENERIC_ERROR_8                               = 0x00B8,   // Generic error (use only o
 419:funsape/globalDefines.hpp ****     // USART_GENERIC_ERROR_9                               = 0x00B9,   // Generic error (use only o
 420:funsape/globalDefines.hpp ****     // USART_GENERIC_ERROR_10                              = 0x00BA,   // Generic error (use only o
 421:funsape/globalDefines.hpp ****     // USART_GENERIC_ERROR_11                              = 0x00BB,   // Generic error (use only o
 422:funsape/globalDefines.hpp ****     // USART_GENERIC_ERROR_12                              = 0x00BC,   // Generic error (use only o
 423:funsape/globalDefines.hpp ****     // USART_GENERIC_ERROR_13                              = 0x00BD,   // Generic error (use only o
 424:funsape/globalDefines.hpp ****     // USART_GENERIC_ERROR_14                              = 0x00BE,   // Generic error (use only o
 425:funsape/globalDefines.hpp ****     // USART_GENERIC_ERROR_15                              = 0x00BF,   // Generic error (use only o
 426:funsape/globalDefines.hpp **** 
 427:funsape/globalDefines.hpp ****     // LCD related error codes
 428:funsape/globalDefines.hpp ****     // LCD_CONTROL_PORT_NOT_SET                            = 0x00C0,   // TODO: Describe parameter
 429:funsape/globalDefines.hpp ****     // LCD_CONTROL_PIN_E_INVALID                           = 0x00C1,   // TODO: Describe parameter
 430:funsape/globalDefines.hpp ****     // LCD_CONTROL_PIN_RS_INVALID                          = 0x00C2,   // TODO: Describe parameter
 431:funsape/globalDefines.hpp ****     // LCD_CONTROL_PIN_RW_INVALID                          = 0x00C3,   // TODO: Describe parameter
 432:funsape/globalDefines.hpp ****     // LCD_DATA_PORT_NOT_SET                               = 0x00C4,   // TODO: Describe parameter
 433:funsape/globalDefines.hpp ****     // LCD_DATA_PIN_INDEX_OUT_OF_BOUNDARIES                = 0x00C5,   // TODO: Describe parameter
 434:funsape/globalDefines.hpp ****     // LCD_GENERIC_ERROR_6                                 = 0x00C6,   // Generic error (use only o
 435:funsape/globalDefines.hpp ****     // LCD_GENERIC_ERROR_7                                 = 0x00C7,   // Generic error (use only o
 436:funsape/globalDefines.hpp ****     // LCD_GENERIC_ERROR_8                                 = 0x00C8,   // Generic error (use only o
 437:funsape/globalDefines.hpp ****     // LCD_GENERIC_ERROR_9                                 = 0x00C9,   // Generic error (use only o
 438:funsape/globalDefines.hpp ****     // LCD_GENERIC_ERROR_10                                = 0x00CA,   // Generic error (use only o
 439:funsape/globalDefines.hpp ****     // LCD_GENERIC_ERROR_11                                = 0x00CB,   // Generic error (use only o
 440:funsape/globalDefines.hpp ****     // LCD_GENERIC_ERROR_12                                = 0x00CC,   // Generic error (use only o
 441:funsape/globalDefines.hpp ****     // LCD_GENERIC_ERROR_13                                = 0x00CD,   // Generic error (use only o
GAS LISTING C:\Users\kenne\AppData\Local\Temp\ccYle9OK.s 			page 9


 442:funsape/globalDefines.hpp ****     // LCD_GENERIC_ERROR_14                                = 0x00CE,   // Generic error (use only o
 443:funsape/globalDefines.hpp ****     // LCD_GENERIC_ERROR_15                                = 0x00CF,   // Generic error (use only o
 444:funsape/globalDefines.hpp **** 
 445:funsape/globalDefines.hpp ****     // GPIO related error codes
 446:funsape/globalDefines.hpp ****     GPIO_PORT_NOT_SET                                   = 0x00D0,   // Gpio port was not set before
 447:funsape/globalDefines.hpp ****     GPIO_DATA_PORT_NOT_SET                              = 0x00D1,   // Gpio data port was not set b
 448:funsape/globalDefines.hpp ****     GPIO_CONTROL_PORT_NOT_SET                           = 0x00D2,   // Gpio control port was not se
 449:funsape/globalDefines.hpp ****     GPIO_PORT_INVALID                                   = 0x00D3,   // Gpio port address is invalid
 450:funsape/globalDefines.hpp ****     GPIO_DATA_PORT_INVALID                              = 0x00D4,   // Gpio data port address is in
 451:funsape/globalDefines.hpp ****     GPIO_CONTROL_PORT_INVALID                           = 0x00D5,   // Gpio control port address is
 452:funsape/globalDefines.hpp ****     GPIO_PIN_INDEX_INVALID                              = 0x00D6,   // Invalid GPIO Pin
 453:funsape/globalDefines.hpp ****     GPIO_PIN_INDEX_OUT_OF_BOUNDARIES                    = 0x00D7,   // Gpio pin index was out of bo
 454:funsape/globalDefines.hpp ****     // GPIO_NO_PIN_SET                                     = 0x00D8,   // No pin selected at Gpio p
 455:funsape/globalDefines.hpp ****     // GPIO_ADDRESS_INVALID                                = 0x00D9,   // Invalid GPIO Port
 456:funsape/globalDefines.hpp ****     // GPIO_PORT_LOGIC_CONTENTION                          = 0x00DA,   // TODO: Describe parameter
 457:funsape/globalDefines.hpp ****     // GPIO_GENERIC_ERROR_11                               = 0x00DB,   // Generic error (use only o
 458:funsape/globalDefines.hpp ****     // GPIO_GENERIC_ERROR_12                               = 0x00DC,   // Generic error (use only o
 459:funsape/globalDefines.hpp ****     // GPIO_GENERIC_ERROR_13                               = 0x00DD,   // Generic error (use only o
 460:funsape/globalDefines.hpp ****     // GPIO_GENERIC_ERROR_14                               = 0x00DE,   // Generic error (use only o
 461:funsape/globalDefines.hpp ****     // GPIO_GENERIC_ERROR_15                               = 0x00DF,   // Generic error (use only o
 462:funsape/globalDefines.hpp **** 
 463:funsape/globalDefines.hpp ****     // HAL related error codes
 464:funsape/globalDefines.hpp ****     // HAL_UNKNOWN_ERROR                                   = 0x00E0,   // TODO: Describe parameter
 465:funsape/globalDefines.hpp ****     // HAL_STATUS_ERROR                                    = 0x00E1,   // TODO: Describe parameter
 466:funsape/globalDefines.hpp ****     // HAL_STATUS_BUSY                                     = 0x00E2,   // TODO: Describe parameter
 467:funsape/globalDefines.hpp ****     // HAL_STATUS_TIMEOUT                                  = 0x00E3,   // TODO: Describe parameter
 468:funsape/globalDefines.hpp ****     // HAL_GENERIC_ERROR_4                                 = 0x00E4,   // Generic error (use only o
 469:funsape/globalDefines.hpp ****     // HAL_GENERIC_ERROR_5                                 = 0x00E5,   // Generic error (use only o
 470:funsape/globalDefines.hpp ****     // HAL_GENERIC_ERROR_6                                 = 0x00E6,   // Generic error (use only o
 471:funsape/globalDefines.hpp ****     // HAL_GENERIC_ERROR_7                                 = 0x00E7,   // Generic error (use only o
 472:funsape/globalDefines.hpp ****     // HAL_GENERIC_ERROR_8                                 = 0x00E8,   // Generic error (use only o
 473:funsape/globalDefines.hpp ****     // HAL_GENERIC_ERROR_9                                 = 0x00E9,   // Generic error (use only o
 474:funsape/globalDefines.hpp ****     // HAL_GENERIC_ERROR_10                                = 0x00EA,   // Generic error (use only o
 475:funsape/globalDefines.hpp ****     // HAL_GENERIC_ERROR_11                                = 0x00EB,   // Generic error (use only o
 476:funsape/globalDefines.hpp ****     // HAL_GENERIC_ERROR_12                                = 0x00EC,   // Generic error (use only o
 477:funsape/globalDefines.hpp ****     // HAL_GENERIC_ERROR_13                                = 0x00ED,   // Generic error (use only o
 478:funsape/globalDefines.hpp ****     // HAL_GENERIC_ERROR_14                                = 0x00EE,   // Generic error (use only o
 479:funsape/globalDefines.hpp ****     // HAL_GENERIC_ERROR_15                                = 0x00EF,   // Generic error (use only o
 480:funsape/globalDefines.hpp **** 
 481:funsape/globalDefines.hpp ****     // System related error codes
 482:funsape/globalDefines.hpp ****     // SYSTEM_US_TIMER_HANDLER_NULL                        = 0x00F0,   // TODO: Describe parameter
 483:funsape/globalDefines.hpp ****     // SYSTEM_GENERIC_ERROR_1                              = 0x00F1,   // Generic error (use only o
 484:funsape/globalDefines.hpp ****     // SYSTEM_GENERIC_ERROR_2                              = 0x00F2,   // Generic error (use only o
 485:funsape/globalDefines.hpp ****     // SYSTEM_GENERIC_ERROR_3                              = 0x00F3,   // Generic error (use only o
 486:funsape/globalDefines.hpp ****     // SYSTEM_GENERIC_ERROR_4                              = 0x00F4,   // Generic error (use only o
 487:funsape/globalDefines.hpp ****     // SYSTEM_GENERIC_ERROR_5                              = 0x00F5,   // Generic error (use only o
 488:funsape/globalDefines.hpp ****     // SYSTEM_GENERIC_ERROR_6                              = 0x00F6,   // Generic error (use only o
 489:funsape/globalDefines.hpp ****     // SYSTEM_GENERIC_ERROR_7                              = 0x00F7,   // Generic error (use only o
 490:funsape/globalDefines.hpp ****     // SYSTEM_GENERIC_ERROR_8                              = 0x00F8,   // Generic error (use only o
 491:funsape/globalDefines.hpp ****     // SYSTEM_GENERIC_ERROR_9                              = 0x00F9,   // Generic error (use only o
 492:funsape/globalDefines.hpp ****     // SYSTEM_GENERIC_ERROR_10                             = 0x00FA,   // Generic error (use only o
 493:funsape/globalDefines.hpp ****     // SYSTEM_GENERIC_ERROR_11                             = 0x00FB,   // Generic error (use only o
 494:funsape/globalDefines.hpp ****     // SYSTEM_GENERIC_ERROR_12                             = 0x00FC,   // Generic error (use only o
 495:funsape/globalDefines.hpp ****     // SYSTEM_GENERIC_ERROR_13                             = 0x00FD,   // Generic error (use only o
 496:funsape/globalDefines.hpp ****     // SYSTEM_GENERIC_ERROR_14                             = 0x00FE,   // Generic error (use only o
 497:funsape/globalDefines.hpp ****     // SYSTEM_GENERIC_ERROR_15                             = 0x00FF,   // Generic error (use only o
 498:funsape/globalDefines.hpp **** 
GAS LISTING C:\Users\kenne\AppData\Local\Temp\ccYle9OK.s 			page 10


 499:funsape/globalDefines.hpp ****     // FatFs related error codes
 500:funsape/globalDefines.hpp ****     // FAT_FS_UNKNOWN_ERROR                                = 0x0100,   // TODO: Describe parameter
 501:funsape/globalDefines.hpp ****     // FAT_FS_DRIVE_UNSUPPORTED                            = 0x0101,   // TODO: Describe parameter
 502:funsape/globalDefines.hpp ****     // FAT_FS_DISK_NOT_INSERTED                            = 0x0102,   // TODO: Describe parameter
 503:funsape/globalDefines.hpp ****     // FAT_FS_INITIALIZATION_FAILED                        = 0x0103,   // TODO: Describe parameter
 504:funsape/globalDefines.hpp ****     // FAT_FS_GENERIC_ERROR_4                              = 0x0104,   // Generic error (use only o
 505:funsape/globalDefines.hpp ****     // FAT_FS_GENERIC_ERROR_5                              = 0x0105,   // Generic error (use only o
 506:funsape/globalDefines.hpp ****     // FAT_FS_GENERIC_ERROR_6                              = 0x0106,   // Generic error (use only o
 507:funsape/globalDefines.hpp ****     // FAT_FS_GENERIC_ERROR_7                              = 0x0107,   // Generic error (use only o
 508:funsape/globalDefines.hpp ****     // FAT_FS_GENERIC_ERROR_8                              = 0x0108,   // Generic error (use only o
 509:funsape/globalDefines.hpp ****     // FAT_FS_GENERIC_ERROR_9                              = 0x0109,   // Generic error (use only o
 510:funsape/globalDefines.hpp ****     // FAT_FS_GENERIC_ERROR_10                             = 0x010A,   // Generic error (use only o
 511:funsape/globalDefines.hpp ****     // FAT_FS_GENERIC_ERROR_11                             = 0x010B,   // Generic error (use only o
 512:funsape/globalDefines.hpp ****     // FAT_FS_GENERIC_ERROR_12                             = 0x010C,   // Generic error (use only o
 513:funsape/globalDefines.hpp ****     // FAT_FS_GENERIC_ERROR_13                             = 0x010D,   // Generic error (use only o
 514:funsape/globalDefines.hpp ****     // FAT_FS_GENERIC_ERROR_14                             = 0x010E,   // Generic error (use only o
 515:funsape/globalDefines.hpp ****     // FAT_FS_GENERIC_ERROR_15                             = 0x010F,   // Generic error (use only o
 516:funsape/globalDefines.hpp **** 
 517:funsape/globalDefines.hpp ****     // Uncategorized error codes
 518:funsape/globalDefines.hpp ****     // LCD_OUT_OF_BOUNDARIES                               = 0xFFF1,   // TODO: Describe parameter
 519:funsape/globalDefines.hpp ****     // CONTROLLER_NOT_SUPPORTED                            = 0xFFF2,   // Unsupported controller
 520:funsape/globalDefines.hpp ****     // DEVICE_ID_MATCH_FAILED                              = 0xFFF3,   // Device ID doesn't match
 521:funsape/globalDefines.hpp ****     // DMA_NOT_SUPPORTED                                   = 0xFFF4,   // DMA interface mode is not
 522:funsape/globalDefines.hpp ****     // DMA_TRANSFER_ERROR                                  = 0xFFF5,   // DMA transfer error
 523:funsape/globalDefines.hpp ****     // MESSAGE_TOO_LONG                                    = 0xFFF6,   // Message is to long to be 
 524:funsape/globalDefines.hpp ****     // VALID_DATA_NOT_AVAILABLE                            = 0xFFF7,   // Valid data was unavailabl
 525:funsape/globalDefines.hpp ****     // PERIPHERAL_NOT_READY                                = 0xFFF8,   // TODO: Describe parameter
 526:funsape/globalDefines.hpp ****     // STOPWATCH_NOT_STARTED                               = 0xFFF9,   // TODO: Describe parameter
 527:funsape/globalDefines.hpp ****     // UNCATEGORIZED_GENERIC_ERROR_10                      = 0xFFFA,   // Generic error (use only o
 528:funsape/globalDefines.hpp ****     // UNCATEGORIZED_GENERIC_ERROR_11                      = 0xFFFB,   // Generic error (use only o
 529:funsape/globalDefines.hpp ****     // UNCATEGORIZED_GENERIC_ERROR_12                      = 0xFFFC,   // Generic error (use only o
 530:funsape/globalDefines.hpp ****     // UNCATEGORIZED_GENERIC_ERROR_13                      = 0xFFFD,   // Generic error (use only o
 531:funsape/globalDefines.hpp ****     // UNCATEGORIZED_GENERIC_ERROR_14                      = 0xFFFE,   // Generic error (use only o
 532:funsape/globalDefines.hpp **** 
 533:funsape/globalDefines.hpp ****     KEYPAD_COLUMNS_PIN_INDEX_INVALID                    = 0xFFF9,
 534:funsape/globalDefines.hpp ****     KEYPAD_LINES_PIN_INDEX_INVALID                      = 0xFFFA,
 535:funsape/globalDefines.hpp **** 
 536:funsape/globalDefines.hpp ****     KEYPAD_LINES_GPIO_PORT_INVALID                      = 0xFFFB,
 537:funsape/globalDefines.hpp ****     KEYPAD_COLUMNS_GPIO_PORT_INVALID                    = 0xFFFC,
 538:funsape/globalDefines.hpp ****     KEYPAD_TYPE_UNSUPPORTED                             = 0xFFFD,
 539:funsape/globalDefines.hpp ****     KEY_VALUES_NOT_SET                                  = 0xFFFE,
 540:funsape/globalDefines.hpp ****     // "I don't have the slightest idea" error code
 541:funsape/globalDefines.hpp ****     UNKNOWN                                             = 0xFFFF,   // Unknown error - Ops!!!!
 542:funsape/globalDefines.hpp **** };
 543:funsape/globalDefines.hpp **** 
 544:funsape/globalDefines.hpp **** // =============================================================================
 545:funsape/globalDefines.hpp **** // Macrofunctions
 546:funsape/globalDefines.hpp **** // =============================================================================
 547:funsape/globalDefines.hpp **** 
 548:funsape/globalDefines.hpp **** //     //////////////////////     DATA VALIDITY    //////////////////////     //
 549:funsape/globalDefines.hpp **** #define isGpioAddressValid(gpioPort)    (       \
 550:funsape/globalDefines.hpp ****         (IS_GPIO_ALL_INSTANCE(gpioPort))        \
 551:funsape/globalDefines.hpp ****         ? (bool_t)true                          \
 552:funsape/globalDefines.hpp ****         : (bool_t)false)
 553:funsape/globalDefines.hpp **** #define isGpioPinIndexValid(gpioPin)    (       \
 554:funsape/globalDefines.hpp ****         (IS_GPIO_ALL_PIN_NUMBER(gpioPin))       \
 555:funsape/globalDefines.hpp ****         ? (bool_t)true                          \
GAS LISTING C:\Users\kenne\AppData\Local\Temp\ccYle9OK.s 			page 11


 556:funsape/globalDefines.hpp ****         : (bool_t)false)
 557:funsape/globalDefines.hpp **** #define isPointerValid(ptr)             (       \
 558:funsape/globalDefines.hpp ****         ((void *)(ptr))                         \
 559:funsape/globalDefines.hpp ****         ? (bool_t)true                          \
 560:funsape/globalDefines.hpp ****         : (bool_t)false)
 561:funsape/globalDefines.hpp **** 
 562:funsape/globalDefines.hpp **** //     //////////////////////     BIT HANDLING     //////////////////////     //
 563:funsape/globalDefines.hpp **** #ifndef setBit
 564:funsape/globalDefines.hpp **** #   define setBit(reg, bit)                     ((reg) |= (1 << (bit)))
 565:funsape/globalDefines.hpp **** #endif
 566:funsape/globalDefines.hpp **** #ifndef clrBit
 567:funsape/globalDefines.hpp **** #   define clrBit(reg, bit)                     ((reg) &= ~(1 << (bit)))
 568:funsape/globalDefines.hpp **** #endif
 569:funsape/globalDefines.hpp **** #ifndef cplBit
 570:funsape/globalDefines.hpp **** #   define cplBit(reg, bit)                     ((reg) ^= (1 << (bit)))
 571:funsape/globalDefines.hpp **** #endif
 572:funsape/globalDefines.hpp **** 
 573:funsape/globalDefines.hpp **** //     ///////////////////////     BIT TESTING    ///////////////////////     //
 574:funsape/globalDefines.hpp **** #ifndef isBitSet
 575:funsape/globalDefines.hpp **** #   define isBitSet(reg, bit)                   (((reg) >> (bit)) & 1)
 576:funsape/globalDefines.hpp **** #endif
 577:funsape/globalDefines.hpp **** #ifndef isBitClr
 578:funsape/globalDefines.hpp **** #   define isBitClr(reg, bit)                   (!isBitSet(reg,bit))
 579:funsape/globalDefines.hpp **** #endif
 580:funsape/globalDefines.hpp **** 
 581:funsape/globalDefines.hpp **** //     ///////////////////////     BIT LOOPING    ///////////////////////     //
 582:funsape/globalDefines.hpp **** #ifndef waitUntilBitIsSet
 583:funsape/globalDefines.hpp **** #   define waitUntilBitIsSet(reg, bit)          do{     \
 584:funsape/globalDefines.hpp ****         doNothing();                                    \
 585:funsape/globalDefines.hpp ****     } while (isBitClr((reg), (bit)))
 586:funsape/globalDefines.hpp **** #endif
 587:funsape/globalDefines.hpp **** #ifndef waitUntilBitIsClear
 588:funsape/globalDefines.hpp **** #   define waitUntilBitIsClear(reg, bit)        do{     \
 589:funsape/globalDefines.hpp ****         doNothing();                                    \
 590:funsape/globalDefines.hpp ****     }while(isBitSet((reg), (bit)))
 591:funsape/globalDefines.hpp **** #endif
 592:funsape/globalDefines.hpp **** 
 593:funsape/globalDefines.hpp **** //     ////////////////////     BIT MASK HANDLING    ////////////////////     //
 594:funsape/globalDefines.hpp **** #ifndef setMask
 595:funsape/globalDefines.hpp **** #   define setMask(reg, mask)                   ((reg) |= (mask))
 596:funsape/globalDefines.hpp **** #endif
 597:funsape/globalDefines.hpp **** #ifndef clrMask
 598:funsape/globalDefines.hpp **** #   define clrMask(reg, mask)                   ((reg) &= ~(mask))
 599:funsape/globalDefines.hpp **** #endif
 600:funsape/globalDefines.hpp **** #ifndef cplMask
 601:funsape/globalDefines.hpp **** #   define cplMask(reg, mask)                   ((reg) ^= (mask))
 602:funsape/globalDefines.hpp **** #endif
 603:funsape/globalDefines.hpp **** 
 604:funsape/globalDefines.hpp **** //     ////////////////     BIT MASK OFFSET HANDLING     ////////////////     //
 605:funsape/globalDefines.hpp **** #ifndef setMaskOffset
 606:funsape/globalDefines.hpp **** #   define setMaskOffset(reg, mask, offset)     ((reg) |= ((mask) << (offset)))
 607:funsape/globalDefines.hpp **** #endif
 608:funsape/globalDefines.hpp **** #ifndef clrMaskOffset
 609:funsape/globalDefines.hpp **** #   define clrMaskOffset(reg, mask, offset)     ((reg) &= ~((mask) << (offset)))
 610:funsape/globalDefines.hpp **** #endif
 611:funsape/globalDefines.hpp **** #ifndef cplMaskOffset
 612:funsape/globalDefines.hpp **** #   define cplMaskOffset(reg, mask, offset)     ((reg) ^= ((mask) << (offset)))
GAS LISTING C:\Users\kenne\AppData\Local\Temp\ccYle9OK.s 			page 12


 613:funsape/globalDefines.hpp **** #endif
 614:funsape/globalDefines.hpp **** 
 615:funsape/globalDefines.hpp **** //     /////////////     DATA MANIPULATION (8-BITS WIDE)    /////////////     //
 616:funsape/globalDefines.hpp **** #define byteGetNibble1(dataByte)        (((dataByte) >> 4) & 0x0F)
 617:funsape/globalDefines.hpp **** #define byteGetNibble0(dataByte)        ((dataByte) & 0x0F)
 618:funsape/globalDefines.hpp **** #define byteSwitchNibbles(dataByte)     ((byteGetNibble0(dataByte) << 4) | \
 619:funsape/globalDefines.hpp ****         (byteGetNibble1(dataByte)))
 620:funsape/globalDefines.hpp **** 
 621:funsape/globalDefines.hpp **** //     ////////////     DATA MANIPULATION (16-BITS WIDE)     ////////////     //
 622:funsape/globalDefines.hpp **** #define hwordGetByte1(dataHword)        (((dataHword) >> 8) & 0x00FF)
 623:funsape/globalDefines.hpp **** #define hwordGetByte0(dataHword)        ((dataHword) & 0x00FF)
 624:funsape/globalDefines.hpp **** #define hwordSwitchBytes(dataHword)     ((hwordGetByte0(dataHword) << 8) | \
 625:funsape/globalDefines.hpp ****         (hwordGetByte1(dataHword)))
 626:funsape/globalDefines.hpp **** 
 627:funsape/globalDefines.hpp **** //     ////////////     DATA MANIPULATION (32-BITS WIDE)     ////////////     //
 628:funsape/globalDefines.hpp **** #define wordGetByte3(dataWord)          (((dataWord) >> 24) & 0x000000FF)
 629:funsape/globalDefines.hpp **** #define wordGetByte2(dataWord)          (((dataWord) >> 16) & 0x000000FF)
 630:funsape/globalDefines.hpp **** #define wordGetByte1(dataWord)          (((dataWord) >> 8) & 0x000000FF)
 631:funsape/globalDefines.hpp **** #define wordGetByte0(dataWord)          ((dataWord) & 0x000000FF)
 632:funsape/globalDefines.hpp **** #define wordSwitchBytes(dataWord)       ((wordGetByte0(dataWord) << 24)  | \
 633:funsape/globalDefines.hpp ****         (wordGetByte1(dataWord) << 16) | \
 634:funsape/globalDefines.hpp ****         (wordGetByte2(dataWord) << 8)  | \
 635:funsape/globalDefines.hpp ****         (wordGetByte3(dataWord)))
 636:funsape/globalDefines.hpp **** #define wordGetHword1(dataWord)         (((dataWord) >> 16) & 0x0000FFFF)
 637:funsape/globalDefines.hpp **** #define wordGetHword0(dataWord)         ((dataWord) & 0x0000FFFF)
 638:funsape/globalDefines.hpp **** #define wordSwitchHwords(dataWord)      ((wordGetHword0(dataWord) << 16) | \
 639:funsape/globalDefines.hpp ****         (wordGetHword1(dataWord)))
 640:funsape/globalDefines.hpp **** 
 641:funsape/globalDefines.hpp **** //     ////////////     DATA MANIPULATION (64-BITS WIDE)     ////////////     //
 642:funsape/globalDefines.hpp **** #define dwordGetByte7(dataDword)        (((dataDword) >> 56) & 0x00000000000000FF)
 643:funsape/globalDefines.hpp **** #define dwordGetByte6(dataDword)        (((dataDword) >> 48) & 0x00000000000000FF)
 644:funsape/globalDefines.hpp **** #define dwordGetByte5(dataDword)        (((dataDword) >> 40) & 0x00000000000000FF)
 645:funsape/globalDefines.hpp **** #define dwordGetByte4(dataDword)        (((dataDword) >> 32) & 0x00000000000000FF)
 646:funsape/globalDefines.hpp **** #define dwordGetByte3(dataDword)        (((dataDword) >> 24) & 0x00000000000000FF)
 647:funsape/globalDefines.hpp **** #define dwordGetByte2(dataDword)        (((dataDword) >> 16) & 0x00000000000000FF)
 648:funsape/globalDefines.hpp **** #define dwordGetByte1(dataDword)        (((dataDword) >> 8) & 0x00000000000000FF)
 649:funsape/globalDefines.hpp **** #define dwordGetByte0(dataDword)        ((dataDword) & 0x00000000000000FF)
 650:funsape/globalDefines.hpp **** #define dwordSwitchBytes(dataDword)     ((dwordGetByte0(dataDword) << 56)  | \
 651:funsape/globalDefines.hpp ****         (dwordGetByte1(dataDword) << 48) | \
 652:funsape/globalDefines.hpp ****         (dwordGetByte2(dataDword) << 40) | \
 653:funsape/globalDefines.hpp ****         (dwordGetByte3(dataDword) << 32) | \
 654:funsape/globalDefines.hpp ****         (dwordGetByte4(dataDword) << 24) | \
 655:funsape/globalDefines.hpp ****         (dwordGetByte5(dataDword) << 16) | \
 656:funsape/globalDefines.hpp ****         (dwordGetByte6(dataDword) << 8)  | \
 657:funsape/globalDefines.hpp ****         (dwordGetByte7(dataDword)))
 658:funsape/globalDefines.hpp **** #define dwordGetHword3(dataDword)       ((dataDword >> 48) & 0x000000000000FFFF)
 659:funsape/globalDefines.hpp **** #define dwordGetHword2(dataDword)       ((dataDword >> 32) & 0x000000000000FFFF)
 660:funsape/globalDefines.hpp **** #define dwordGetHword1(dataDword)       ((dataDword >> 16) & 0x000000000000FFFF)
 661:funsape/globalDefines.hpp **** #define dwordGetHword0(dataDword)       ((dataDword >> 0) & 0x000000000000FFFF)
 662:funsape/globalDefines.hpp **** #define dwordSwitchHwords(dataDword)    ((dwordGetHword0(dataDword) << 48)  | \
 663:funsape/globalDefines.hpp ****         (dwordGetHword1(dataDword) << 32) | \
 664:funsape/globalDefines.hpp ****         (dwordGetHword2(dataDword) << 16) | \
 665:funsape/globalDefines.hpp ****         (dwordGetHword3(dataDword)))
 666:funsape/globalDefines.hpp **** #define dwordGetWord1(dataDword)         (((dataDword) >> 32) & 0x00000000FFFFFFFF)
 667:funsape/globalDefines.hpp **** #define dwordGetWord0(dataDword)         ((dataDword) & 0x00000000FFFFFFFF)
 668:funsape/globalDefines.hpp **** #define dwordSwitchWords(dataDword)     ((dwordGetWord0(dataDword) << 32)  | \
 669:funsape/globalDefines.hpp ****         (dwordGetWord1(dataDword)))
GAS LISTING C:\Users\kenne\AppData\Local\Temp\ccYle9OK.s 			page 13


 670:funsape/globalDefines.hpp **** 
 671:funsape/globalDefines.hpp **** //     /////////////////////     TRUNCATE VALUES    /////////////////////     //
 672:funsape/globalDefines.hpp **** #define getMaximumOf(var1, var2)        (       \
 673:funsape/globalDefines.hpp ****         ((var1) > (var2))                       \
 674:funsape/globalDefines.hpp ****         ? (var1)                                \
 675:funsape/globalDefines.hpp ****         : (var2))
 676:funsape/globalDefines.hpp **** #define getMinimumOf(var1, var2)        (       \
 677:funsape/globalDefines.hpp ****         ((var1) < (var2))                       \
 678:funsape/globalDefines.hpp ****         ? (var1)                                \
 679:funsape/globalDefines.hpp ****         : (var2))
 680:funsape/globalDefines.hpp **** #define truncateBetween(var, min, max)  (       \
 681:funsape/globalDefines.hpp ****         ((var) < (min))                         \
 682:funsape/globalDefines.hpp ****         ? (min)                                 \
 683:funsape/globalDefines.hpp ****         : (((var) > (max))                      \
 684:funsape/globalDefines.hpp ****                 ? (max)                         \
 685:funsape/globalDefines.hpp ****                 : (var)                         \
 686:funsape/globalDefines.hpp ****         ))
 687:funsape/globalDefines.hpp **** 
 688:funsape/globalDefines.hpp **** //     //////////////////////     STRINGIFYING    ///////////////////////     //
 689:funsape/globalDefines.hpp **** #define stringifyName(constant)         #constant
 690:funsape/globalDefines.hpp **** #define stringifyValue(constant)        stringifyName(constant)
 691:funsape/globalDefines.hpp **** 
 692:funsape/globalDefines.hpp **** // =============================================================================
 693:funsape/globalDefines.hpp **** // Extern global variables
 694:funsape/globalDefines.hpp **** // =============================================================================
 695:funsape/globalDefines.hpp **** 
 696:funsape/globalDefines.hpp **** // NONE
 697:funsape/globalDefines.hpp **** 
 698:funsape/globalDefines.hpp **** // =============================================================================
 699:funsape/globalDefines.hpp **** // Inline functions declaration
 700:funsape/globalDefines.hpp **** // =============================================================================
 701:funsape/globalDefines.hpp **** 
 702:funsape/globalDefines.hpp **** //     ///////////////////     CHARACTER HANDLING    ////////////////////     //
 703:funsape/globalDefines.hpp **** char_t inlined toLowerCase(cchar_t character_p);
 704:funsape/globalDefines.hpp **** char_t inlined toUpperCase(cchar_t character_p);
 705:funsape/globalDefines.hpp **** 
 706:funsape/globalDefines.hpp **** //     /////////////////////     DATA VALIDITY     //////////////////////     //
 707:funsape/globalDefines.hpp **** bool_t inlined isAsciiLowerCaseLetter(cchar_t character_p);
 708:funsape/globalDefines.hpp **** bool_t inlined isAsciiUpperCaseLetter(cchar_t character_p);
 709:funsape/globalDefines.hpp **** bool_t inlined isAsciiCommand(cchar_t character_p);
 710:funsape/globalDefines.hpp **** bool_t inlined isAsciiLetter(cchar_t character_p);
 711:funsape/globalDefines.hpp **** bool_t inlined isAsciiNumber(cchar_t character_p);
 712:funsape/globalDefines.hpp **** bool_t inlined isAsciiSymbol(cchar_t character_p);
 713:funsape/globalDefines.hpp **** 
 714:funsape/globalDefines.hpp **** //     /////////////////////     SYSTEM ACTIONS    //////////////////////     //
 715:funsape/globalDefines.hpp **** void inlined die(Error errorCode_p);
 716:funsape/globalDefines.hpp **** void inlined doNop(void);
 717:funsape/globalDefines.hpp **** void inlined doNothing(void);
 718:funsape/globalDefines.hpp **** void inlined systemHalt(void (*function_p)(void) = nullptr);
 719:funsape/globalDefines.hpp **** 
 720:funsape/globalDefines.hpp **** // =============================================================================
 721:funsape/globalDefines.hpp **** // Inline functions definitions
 722:funsape/globalDefines.hpp **** // =============================================================================
 723:funsape/globalDefines.hpp **** 
 724:funsape/globalDefines.hpp **** //     ///////////////////     CHARACTER HANDLING    ////////////////////     //
 725:funsape/globalDefines.hpp **** char_t inlined toLowerCase(cchar_t character_p)
 726:funsape/globalDefines.hpp **** {
GAS LISTING C:\Users\kenne\AppData\Local\Temp\ccYle9OK.s 			page 14


 727:funsape/globalDefines.hpp ****     return ((isAsciiUpperCaseLetter(character_p)) ? (character_p + 0x20) : character_p);
 728:funsape/globalDefines.hpp **** }
 729:funsape/globalDefines.hpp **** 
 730:funsape/globalDefines.hpp **** char_t inlined toUpperCase(cchar_t character_p)
 731:funsape/globalDefines.hpp **** {
 732:funsape/globalDefines.hpp ****     return ((isAsciiLowerCaseLetter(character_p)) ? (character_p - 0x20) : character_p);
 733:funsape/globalDefines.hpp **** }
 734:funsape/globalDefines.hpp **** 
 735:funsape/globalDefines.hpp **** //     /////////////////////     DATA VALIDITY     //////////////////////     //
 736:funsape/globalDefines.hpp **** bool_t inlined isAsciiLowerCaseLetter(cchar_t character_p)
 737:funsape/globalDefines.hpp **** {
 738:funsape/globalDefines.hpp ****     return ((bool_t)(((character_p >= 'a') && (character_p <= 'z')) ? true : false));
 739:funsape/globalDefines.hpp **** }
 740:funsape/globalDefines.hpp **** 
 741:funsape/globalDefines.hpp **** bool_t inlined isAsciiUpperCaseLetter(cchar_t character_p)
 742:funsape/globalDefines.hpp **** {
 743:funsape/globalDefines.hpp ****     return ((bool_t)(((character_p >= 'A') && (character_p <= 'Z')) ? true : false));
 744:funsape/globalDefines.hpp **** }
 745:funsape/globalDefines.hpp **** 
 746:funsape/globalDefines.hpp **** bool_t inlined isAsciiCommand(cchar_t character_p)
 747:funsape/globalDefines.hpp **** {
 748:funsape/globalDefines.hpp ****     return ((bool_t)((character_p < ' ') ? true : false));
 749:funsape/globalDefines.hpp **** }
 750:funsape/globalDefines.hpp **** 
 751:funsape/globalDefines.hpp **** bool_t inlined isAsciiLetter(cchar_t character_p)
 752:funsape/globalDefines.hpp **** {
 753:funsape/globalDefines.hpp ****     return ((bool_t)((isAsciiLowerCaseLetter(character_p) || (isAsciiUpperCaseLetter(character_p)) 
 754:funsape/globalDefines.hpp **** }
 755:funsape/globalDefines.hpp **** 
 756:funsape/globalDefines.hpp **** bool_t inlined isAsciiNumber(cchar_t character_p)
 757:funsape/globalDefines.hpp **** {
 758:funsape/globalDefines.hpp ****     return ((bool_t)(((character_p >= '0') && (character_p <= '9')) ? true : false));
 759:funsape/globalDefines.hpp **** }
 760:funsape/globalDefines.hpp **** 
 761:funsape/globalDefines.hpp **** bool_t inlined isAsciiSymbol(cchar_t character_p)
 762:funsape/globalDefines.hpp **** {
 763:funsape/globalDefines.hpp ****     return ((bool_t)(((!isAsciiNumber(character_p)) && (!isAsciiCommand(character_p)) &&
 764:funsape/globalDefines.hpp ****                                     (!isAsciiLetter(character_p))) ? true : false));
 765:funsape/globalDefines.hpp **** }
 766:funsape/globalDefines.hpp **** 
 767:funsape/globalDefines.hpp **** //     /////////////////////     SYSTEM ACTIONS    //////////////////////     //
 768:funsape/globalDefines.hpp **** void inlined die(Error errorCode_p)
 769:funsape/globalDefines.hpp **** {
 770:funsape/globalDefines.hpp ****     printf("Failed with error=%u (0x%04x).\r", (cuint16_t)errorCode_p, (cuint16_t)errorCode_p);
 771:funsape/globalDefines.hpp ****     systemHalt();
 772:funsape/globalDefines.hpp **** 
 773:funsape/globalDefines.hpp ****     return;
 774:funsape/globalDefines.hpp **** }
 775:funsape/globalDefines.hpp **** 
 776:funsape/globalDefines.hpp **** void inlined doNop(void)
 777:funsape/globalDefines.hpp **** {
 778:funsape/globalDefines.hpp ****     asm volatile("nop");
 779:funsape/globalDefines.hpp **** 
 780:funsape/globalDefines.hpp ****     return;
 781:funsape/globalDefines.hpp **** }
 782:funsape/globalDefines.hpp **** 
 783:funsape/globalDefines.hpp **** void inlined doNothing(void)
GAS LISTING C:\Users\kenne\AppData\Local\Temp\ccYle9OK.s 			page 15


 784:funsape/globalDefines.hpp **** {
 785:funsape/globalDefines.hpp ****     return;
 786:funsape/globalDefines.hpp **** }
 787:funsape/globalDefines.hpp **** 
 788:funsape/globalDefines.hpp **** void inlined systemHalt(void (*function_p)(void))
 789:funsape/globalDefines.hpp **** {
 790:funsape/globalDefines.hpp ****     if(isPointerValid(function_p)) {
 791:funsape/globalDefines.hpp ****         function_p();
 792:funsape/globalDefines.hpp ****     }
 793:funsape/globalDefines.hpp ****     while(1) {
 794:funsape/globalDefines.hpp ****         doNothing();
 795:funsape/globalDefines.hpp ****     }
 796:funsape/globalDefines.hpp **** 
 797:funsape/globalDefines.hpp ****     return;
 798:funsape/globalDefines.hpp **** }
 799:funsape/globalDefines.hpp **** 
 800:funsape/globalDefines.hpp **** // =============================================================================
 801:funsape/globalDefines.hpp **** // Public functions weakly defined
 802:funsape/globalDefines.hpp **** // =============================================================================
 803:funsape/globalDefines.hpp **** 
 804:funsape/globalDefines.hpp **** #define delayMs(time_p)                 _delay_ms(time_p)
 805:funsape/globalDefines.hpp **** #define delayUs(time_p)                 _delay_us(time_p)
 806:funsape/globalDefines.hpp **** 
 807:funsape/globalDefines.hpp **** weakened uint32_t getTick(void)
 808:funsape/globalDefines.hpp **** {
  17               		.loc 1 808 1 view -0
  18               		.cfi_startproc
  19               	/* prologue: function */
  20               	/* frame size = 0 */
  21               	/* stack size = 0 */
  22               	.L__stack_usage = 0
 809:funsape/globalDefines.hpp ****     // TODO
 810:funsape/globalDefines.hpp ****     return 0;
  23               		.loc 1 810 5 view .LVU1
 811:funsape/globalDefines.hpp **** }
  24               		.loc 1 811 1 is_stmt 0 view .LVU2
  25 0000 60E0      		ldi r22,0
  26 0002 70E0      		ldi r23,0
  27 0004 CB01      		movw r24,r22
  28               	/* epilogue start */
  29 0006 0895      		ret
  30               		.cfi_endproc
  31               	.LFE32:
  33               		.section	.text._Z8getanglem,"ax",@progbits
  34               	.global	_Z8getanglem
  36               	_Z8getanglem:
  37               	.LVL0:
  38               	.LFB55:
  39               		.file 2 "main.cpp"
   1:main.cpp      **** //---DEFINIES---//
   2:main.cpp      **** #define F_CPU 16000000UL
   3:main.cpp      **** 
   4:main.cpp      **** //---INCLUDES---//
   5:main.cpp      **** #include <avr/io.h>
   6:main.cpp      **** #include <util/delay.h>
   7:main.cpp      **** #include <avr/interrupt.h>
   8:main.cpp      **** #include "funsape/globalDefines.hpp"
GAS LISTING C:\Users\kenne\AppData\Local\Temp\ccYle9OK.s 			page 16


   9:main.cpp      **** #include "funsape/peripheral/timer1.hpp"
  10:main.cpp      **** #include "funsape/device/hd44780.hpp"
  11:main.cpp      **** #include "funsape/device/keypad.hpp"
  12:main.cpp      **** 
  13:main.cpp      **** //globals
  14:main.cpp      ****     uint32_t aux = 2999;
  15:main.cpp      ****     int16_t angulo;
  16:main.cpp      **** 
  17:main.cpp      **** int16_t getangle (uint32_t aux){
  40               		.loc 2 17 32 is_stmt 1 view -0
  41               		.cfi_startproc
  42               		.loc 2 17 32 is_stmt 0 view .LVU4
  43 0000 CF93      		push r28
  44               		.cfi_def_cfa_offset 3
  45               		.cfi_offset 28, -2
  46 0002 DF93      		push r29
  47               		.cfi_def_cfa_offset 4
  48               		.cfi_offset 29, -3
  49 0004 00D0      		rcall .
  50 0006 00D0      		rcall .
  51               		.cfi_def_cfa_offset 8
  52 0008 CDB7      		in r28,__SP_L__
  53 000a DEB7      		in r29,__SP_H__
  54               		.cfi_def_cfa_register 28
  55               	/* prologue: function */
  56               	/* frame size = 4 */
  57               	/* stack size = 6 */
  58               	.L__stack_usage = 6
  59 000c 462F      		mov r20,r22
  60 000e 572F      		mov r21,r23
  61 0010 682F      		mov r22,r24
  62               	.LVL1:
  63               		.loc 2 17 32 view .LVU5
  64 0012 792F      		mov r23,r25
  18:main.cpp      ****     int32_t aux2;
  65               		.loc 2 18 5 is_stmt 1 view .LVU6
  19:main.cpp      ****     int16_t angulo;
  66               		.loc 2 19 5 view .LVU7
  20:main.cpp      ****     aux2 = 10*aux -29999;
  67               		.loc 2 20 5 view .LVU8
  68               		.loc 2 20 14 is_stmt 0 view .LVU9
  69 0014 DB01      		movw r26,r22
  70 0016 CA01      		movw r24,r20
  71 0018 880F      		lsl r24
  72 001a 991F      		rol r25
  73 001c AA1F      		rol r26
  74 001e BB1F      		rol r27
  75 0020 880F      		lsl r24
  76 0022 991F      		rol r25
  77 0024 AA1F      		rol r26
  78 0026 BB1F      		rol r27
  79 0028 840F      		add r24,r20
  80 002a 951F      		adc r25,r21
  81 002c A61F      		adc r26,r22
  82 002e B71F      		adc r27,r23
  83 0030 880F      		lsl r24
  84 0032 991F      		rol r25
GAS LISTING C:\Users\kenne\AppData\Local\Temp\ccYle9OK.s 			page 17


  85 0034 AA1F      		rol r26
  86 0036 BB1F      		rol r27
  87               		.loc 2 20 19 view .LVU10
  88 0038 8F52      		subi r24,47
  89 003a 9547      		sbci r25,117
  90 003c A109      		sbc r26,__zero_reg__
  91 003e B109      		sbc r27,__zero_reg__
  92               	.LVL2:
  21:main.cpp      ****     angulo = 10*aux2/741;
  93               		.loc 2 21 5 is_stmt 1 view .LVU11
  94               		.loc 2 21 16 is_stmt 0 view .LVU12
  95 0040 AC01      		movw r20,r24
  96 0042 BD01      		movw r22,r26
  97 0044 440F      		lsl r20
  98 0046 551F      		rol r21
  99 0048 661F      		rol r22
 100 004a 771F      		rol r23
 101 004c 440F      		lsl r20
 102 004e 551F      		rol r21
 103 0050 661F      		rol r22
 104 0052 771F      		rol r23
 105 0054 840F      		add r24,r20
 106 0056 951F      		adc r25,r21
 107 0058 A61F      		adc r26,r22
 108 005a B71F      		adc r27,r23
 109               	.LVL3:
 110               		.loc 2 21 16 view .LVU13
 111 005c 9C01      		movw r18,r24
 112 005e AD01      		movw r20,r26
 113 0060 220F      		lsl r18
 114 0062 331F      		rol r19
 115 0064 441F      		rol r20
 116 0066 551F      		rol r21
 117 0068 2983      		std Y+1,r18
 118 006a 3A83      		std Y+2,r19
 119 006c 4B83      		std Y+3,r20
 120 006e 5C83      		std Y+4,r21
 121               		.loc 2 21 21 view .LVU14
 122 0070 CA01      		movw r24,r20
 123 0072 B901      		movw r22,r18
 124 0074 25EE      		ldi r18,lo8(-27)
 125 0076 32E0      		ldi r19,lo8(2)
 126 0078 40E0      		ldi r20,0
 127 007a 50E0      		ldi r21,0
 128 007c 0E94 0000 		call __divmodsi4
 129               		.loc 2 21 12 view .LVU15
 130 0080 C901      		movw r24,r18
  22:main.cpp      ****     if (angulo >0){
 131               		.loc 2 22 5 is_stmt 1 view .LVU16
 132 0082 1816      		cp __zero_reg__,r24
 133 0084 1906      		cpc __zero_reg__,r25
 134 0086 04F4      		brge .L2
  23:main.cpp      ****     angulo++;
 135               		.loc 2 23 5 view .LVU17
 136               		.loc 2 23 11 is_stmt 0 view .LVU18
 137 0088 0196      		adiw r24,1
 138               	.LVL4:
GAS LISTING C:\Users\kenne\AppData\Local\Temp\ccYle9OK.s 			page 18


  24:main.cpp      ****     }
  25:main.cpp      ****     if (angulo ==1){
 139               		.loc 2 25 5 is_stmt 1 view .LVU19
  26:main.cpp      ****         angulo =0;
  27:main.cpp      ****     }
  28:main.cpp      ****     return angulo;
 140               		.loc 2 28 5 view .LVU20
 141               	.L2:
 142               	/* epilogue start */
  29:main.cpp      **** }
 143               		.loc 2 29 1 is_stmt 0 view .LVU21
 144 008a 0F90      		pop __tmp_reg__
 145 008c 0F90      		pop __tmp_reg__
 146 008e 0F90      		pop __tmp_reg__
 147 0090 0F90      		pop __tmp_reg__
 148 0092 DF91      		pop r29
 149 0094 CF91      		pop r28
 150 0096 0895      		ret
 151               		.cfi_endproc
 152               	.LFE55:
 154               		.section	.rodata.main.str1.1,"aMS",@progbits,1
 155               	.LC0:
 156 0000 2020 2047 		.string	"   Good Morning! :-)   \n"
 156      6F6F 6420 
 156      4D6F 726E 
 156      696E 6721 
 156      203A 2D29 
 157               	.LC1:
 158 0019 416E 6775 		.string	"Angulo = %d\n %d"
 158      6C6F 203D 
 158      2025 640A 
 158      2025 6400 
 159               	.LC2:
 160 0029 416E 6775 		.string	"Angulo = %d \n"
 160      6C6F 203D 
 160      2025 6420 
 160      0A00 
 161               	.LC3:
 162 0037 4E6F 766F 		.string	"Novo="
 162      3D00 
 163               		.section	.text.main,"ax",@progbits
 164               	.global	main
 166               	main:
 167               	.LFB56:
  30:main.cpp      **** 
  31:main.cpp      **** //---MAIN---//
  32:main.cpp      **** int main()
  33:main.cpp      **** {
 168               		.loc 2 33 1 is_stmt 1 view -0
 169               		.cfi_startproc
 170 0000 CDB7      		in r28,__SP_L__
 171 0002 DEB7      		in r29,__SP_H__
 172               		.cfi_def_cfa_register 28
 173 0004 AF97      		sbiw r28,47
 174               		.cfi_def_cfa_offset 49
 175 0006 0FB6      		in __tmp_reg__,__SREG__
 176 0008 F894      		cli
GAS LISTING C:\Users\kenne\AppData\Local\Temp\ccYle9OK.s 			page 19


 177 000a DEBF      		out __SP_H__,r29
 178 000c 0FBE      		out __SREG__,__tmp_reg__
 179 000e CDBF      		out __SP_L__,r28
 180               	/* prologue: function */
 181               	/* frame size = 47 */
 182               	/* stack size = 47 */
 183               	.L__stack_usage = 47
  34:main.cpp      ****     Hd44780 lcd;
 184               		.loc 2 34 5 view .LVU23
 185               		.loc 2 34 13 is_stmt 0 view .LVU24
 186 0010 CE01      		movw r24,r28
 187 0012 0196      		adiw r24,1
 188 0014 0E94 0000 		call _ZN7Hd44780C1Ev
 189               	.LVL5:
  35:main.cpp      **** 
  36:main.cpp      ****     //Config Keypad
  37:main.cpp      ****     Keypad keypad;
 190               		.loc 2 37 5 is_stmt 1 view .LVU25
 191               		.loc 2 37 12 is_stmt 0 view .LVU26
 192 0018 7E01      		movw r14,r28
 193 001a 23E1      		ldi r18,19
 194 001c E20E      		add r14,r18
 195 001e F11C      		adc r15,__zero_reg__
 196 0020 C701      		movw r24,r14
 197 0022 0E94 0000 		call _ZN6KeypadC1Ev
 198               	.LVL6:
  38:main.cpp      ****     keypad.setPorts(&DDRD, PD4, &DDRD, PD0);
 199               		.loc 2 38 5 is_stmt 1 view .LVU27
 200               		.loc 2 38 20 is_stmt 0 view .LVU28
 201 0026 00E0      		ldi r16,0
 202 0028 2AE2      		ldi r18,lo8(42)
 203 002a 30E0      		ldi r19,0
 204 002c 44E0      		ldi r20,lo8(4)
 205 002e 6AE2      		ldi r22,lo8(42)
 206 0030 70E0      		ldi r23,0
 207 0032 C701      		movw r24,r14
 208 0034 0E94 0000 		call _ZN6Keypad8setPortsEPVhhS1_h
 209               	.LVL7:
  39:main.cpp      ****     keypad.setKeyValues(Keypad::Type::KEYPAD_4X4,
 210               		.loc 2 39 5 is_stmt 1 view .LVU29
 211               		.loc 2 39 24 is_stmt 0 view .LVU30
 212 0038 1F92      		push __zero_reg__
 213 003a 84E4      		ldi r24,lo8(68)
 214 003c 8F93      		push r24
 215 003e 1F92      		push __zero_reg__
 216 0040 86E4      		ldi r24,lo8(70)
 217 0042 8F93      		push r24
 218 0044 1F92      		push __zero_reg__
 219 0046 80E3      		ldi r24,lo8(48)
 220 0048 8F93      		push r24
 221 004a 1F92      		push __zero_reg__
 222 004c 85E4      		ldi r24,lo8(69)
 223 004e 8F93      		push r24
 224 0050 1F92      		push __zero_reg__
 225 0052 83E4      		ldi r24,lo8(67)
 226 0054 8F93      		push r24
 227 0056 1F92      		push __zero_reg__
GAS LISTING C:\Users\kenne\AppData\Local\Temp\ccYle9OK.s 			page 20


 228 0058 83E3      		ldi r24,lo8(51)
 229 005a 8F93      		push r24
 230 005c 1F92      		push __zero_reg__
 231 005e 82E3      		ldi r24,lo8(50)
 232 0060 8F93      		push r24
 233 0062 1F92      		push __zero_reg__
 234 0064 81E3      		ldi r24,lo8(49)
 235 0066 8F93      		push r24
 236 0068 1F92      		push __zero_reg__
 237 006a 82E4      		ldi r24,lo8(66)
 238 006c 8F93      		push r24
 239 006e 1F92      		push __zero_reg__
 240 0070 86E3      		ldi r24,lo8(54)
 241 0072 8F93      		push r24
 242 0074 1F92      		push __zero_reg__
 243 0076 85E3      		ldi r24,lo8(53)
 244 0078 8F93      		push r24
 245 007a 1F92      		push __zero_reg__
 246 007c 84E3      		ldi r24,lo8(52)
 247 007e 8F93      		push r24
 248 0080 1F92      		push __zero_reg__
 249 0082 81E4      		ldi r24,lo8(65)
 250 0084 8F93      		push r24
 251 0086 1F92      		push __zero_reg__
 252 0088 89E3      		ldi r24,lo8(57)
 253 008a 8F93      		push r24
 254 008c 1F92      		push __zero_reg__
 255 008e 88E3      		ldi r24,lo8(56)
 256 0090 8F93      		push r24
 257 0092 1F92      		push __zero_reg__
 258 0094 87E3      		ldi r24,lo8(55)
 259 0096 8F93      		push r24
 260 0098 1F92      		push __zero_reg__
 261 009a FF92      		push r15
 262 009c EF92      		push r14
 263 009e 0E94 0000 		call _ZN6Keypad12setKeyValuesENS_4TypeEz
 264               	.LVL8:
  40:main.cpp      ****             '7', '8', '9', 'A',
  41:main.cpp      ****             '4', '5', '6', 'B',
  42:main.cpp      ****             '1', '2', '3', 'C',
  43:main.cpp      ****             'E', '0', 'F', 'D');
  44:main.cpp      ****     keypad.init(10);
 265               		.loc 2 44 5 is_stmt 1 view .LVU31
 266               		.loc 2 44 16 is_stmt 0 view .LVU32
 267 00a2 0FB6      		in __tmp_reg__,__SREG__
 268 00a4 F894      		cli
 269 00a6 DEBF      		out __SP_H__,r29
 270 00a8 0FBE      		out __SREG__,__tmp_reg__
 271 00aa CDBF      		out __SP_L__,r28
 272 00ac 6AE0      		ldi r22,lo8(10)
 273 00ae C701      		movw r24,r14
 274 00b0 0E94 0000 		call _ZN6Keypad4initEh
 275               	.LVL9:
  45:main.cpp      **** 
  46:main.cpp      **** 
  47:main.cpp      **** 
  48:main.cpp      **** 
GAS LISTING C:\Users\kenne\AppData\Local\Temp\ccYle9OK.s 			page 21


  49:main.cpp      ****     //Configure LCD
  50:main.cpp      ****     lcd.controlPortSet(&DDRC, PC1, PC2, PC3);
 276               		.loc 2 50 5 is_stmt 1 view .LVU33
 277               		.loc 2 50 23 is_stmt 0 view .LVU34
 278 00b4 03E0      		ldi r16,lo8(3)
 279 00b6 22E0      		ldi r18,lo8(2)
 280 00b8 41E0      		ldi r20,lo8(1)
 281 00ba 67E2      		ldi r22,lo8(39)
 282 00bc 70E0      		ldi r23,0
 283 00be CE01      		movw r24,r28
 284 00c0 0196      		adiw r24,1
 285 00c2 0E94 0000 		call _ZN7Hd4478014controlPortSetEPVhhhh
 286               	.LVL10:
  51:main.cpp      ****     lcd.dataPortSet(&DDRB, PB2);
 287               		.loc 2 51 5 is_stmt 1 view .LVU35
 288               		.loc 2 51 20 is_stmt 0 view .LVU36
 289 00c6 42E0      		ldi r20,lo8(2)
 290 00c8 64E2      		ldi r22,lo8(36)
 291 00ca 70E0      		ldi r23,0
 292 00cc CE01      		movw r24,r28
 293 00ce 0196      		adiw r24,1
 294 00d0 0E94 0000 		call _ZN7Hd4478011dataPortSetEPVhh
 295               	.LVL11:
  52:main.cpp      ****     lcd.init(Hd44780::Size::LCD_16X2, Hd44780::Font::FONT_5X8, true, true);
 296               		.loc 2 52 5 is_stmt 1 view .LVU37
 297               		.loc 2 52 13 is_stmt 0 view .LVU38
 298 00d4 01E0      		ldi r16,lo8(1)
 299 00d6 21E0      		ldi r18,lo8(1)
 300 00d8 40E0      		ldi r20,0
 301 00da 6CE6      		ldi r22,lo8(108)
 302 00dc CE01      		movw r24,r28
 303 00de 0196      		adiw r24,1
 304 00e0 0E94 0000 		call _ZN7Hd447804initENS_4SizeENS_4FontEbb
 305               	.LVL12:
  53:main.cpp      ****     lcd.stdio();
 306               		.loc 2 53 5 is_stmt 1 view .LVU39
 307               		.loc 2 53 14 is_stmt 0 view .LVU40
 308 00e4 CE01      		movw r24,r28
 309 00e6 0196      		adiw r24,1
 310 00e8 0E94 0000 		call _ZN7Hd447805stdioEv
 311               	.LVL13:
  54:main.cpp      **** 
  55:main.cpp      ****     printf("   Good Morning! :-)   \n\n");
 312               		.loc 2 55 5 is_stmt 1 view .LVU41
 313               		.loc 2 55 11 is_stmt 0 view .LVU42
 314 00ec 80E0      		ldi r24,lo8(.LC0)
 315 00ee 90E0      		ldi r25,hi8(.LC0)
 316 00f0 0E94 0000 		call puts
 317               	.LVL14:
  56:main.cpp      ****     delayMs(500);
 318               		.loc 2 56 5 is_stmt 1 view .LVU43
 319               	.LBB50:
 320               	.LBI50:
 321               		.file 3 "f:\\importante\\faculdade\\mcc\\vscode-avr-win\\toolchains\\avr-gcc\\avr\\include\\util\\
   1:f:\importante\faculdade\mcc\vscode-avr-win\toolchains\avr-gcc\avr\include\util\delay.h **** /* Copyright (c) 2002, Marek Michalkiewicz
   2:f:\importante\faculdade\mcc\vscode-avr-win\toolchains\avr-gcc\avr\include\util\delay.h ****    Copyright (c) 2004,2005,2007 Joerg Wunsch
   3:f:\importante\faculdade\mcc\vscode-avr-win\toolchains\avr-gcc\avr\include\util\delay.h ****    Copyright (c) 2007  Florin-Viorel Petrov
GAS LISTING C:\Users\kenne\AppData\Local\Temp\ccYle9OK.s 			page 22


   4:f:\importante\faculdade\mcc\vscode-avr-win\toolchains\avr-gcc\avr\include\util\delay.h ****    All rights reserved.
   5:f:\importante\faculdade\mcc\vscode-avr-win\toolchains\avr-gcc\avr\include\util\delay.h **** 
   6:f:\importante\faculdade\mcc\vscode-avr-win\toolchains\avr-gcc\avr\include\util\delay.h ****    Redistribution and use in source and binary forms, with or without
   7:f:\importante\faculdade\mcc\vscode-avr-win\toolchains\avr-gcc\avr\include\util\delay.h ****    modification, are permitted provided that the following conditions are met:
   8:f:\importante\faculdade\mcc\vscode-avr-win\toolchains\avr-gcc\avr\include\util\delay.h **** 
   9:f:\importante\faculdade\mcc\vscode-avr-win\toolchains\avr-gcc\avr\include\util\delay.h ****    * Redistributions of source code must retain the above copyright
  10:f:\importante\faculdade\mcc\vscode-avr-win\toolchains\avr-gcc\avr\include\util\delay.h ****      notice, this list of conditions and the following disclaimer.
  11:f:\importante\faculdade\mcc\vscode-avr-win\toolchains\avr-gcc\avr\include\util\delay.h **** 
  12:f:\importante\faculdade\mcc\vscode-avr-win\toolchains\avr-gcc\avr\include\util\delay.h ****    * Redistributions in binary form must reproduce the above copyright
  13:f:\importante\faculdade\mcc\vscode-avr-win\toolchains\avr-gcc\avr\include\util\delay.h ****      notice, this list of conditions and the following disclaimer in
  14:f:\importante\faculdade\mcc\vscode-avr-win\toolchains\avr-gcc\avr\include\util\delay.h ****      the documentation and/or other materials provided with the
  15:f:\importante\faculdade\mcc\vscode-avr-win\toolchains\avr-gcc\avr\include\util\delay.h ****      distribution.
  16:f:\importante\faculdade\mcc\vscode-avr-win\toolchains\avr-gcc\avr\include\util\delay.h **** 
  17:f:\importante\faculdade\mcc\vscode-avr-win\toolchains\avr-gcc\avr\include\util\delay.h ****    * Neither the name of the copyright holders nor the names of
  18:f:\importante\faculdade\mcc\vscode-avr-win\toolchains\avr-gcc\avr\include\util\delay.h ****      contributors may be used to endorse or promote products derived
  19:f:\importante\faculdade\mcc\vscode-avr-win\toolchains\avr-gcc\avr\include\util\delay.h ****      from this software without specific prior written permission.
  20:f:\importante\faculdade\mcc\vscode-avr-win\toolchains\avr-gcc\avr\include\util\delay.h **** 
  21:f:\importante\faculdade\mcc\vscode-avr-win\toolchains\avr-gcc\avr\include\util\delay.h ****   THIS SOFTWARE IS PROVIDED BY THE COPYRIGHT HOLDERS AND CONTRIBUTORS "AS IS"
  22:f:\importante\faculdade\mcc\vscode-avr-win\toolchains\avr-gcc\avr\include\util\delay.h ****   AND ANY EXPRESS OR IMPLIED WARRANTIES, INCLUDING, BUT NOT LIMITED TO, THE
  23:f:\importante\faculdade\mcc\vscode-avr-win\toolchains\avr-gcc\avr\include\util\delay.h ****   IMPLIED WARRANTIES OF MERCHANTABILITY AND FITNESS FOR A PARTICULAR PURPOSE
  24:f:\importante\faculdade\mcc\vscode-avr-win\toolchains\avr-gcc\avr\include\util\delay.h ****   ARE DISCLAIMED. IN NO EVENT SHALL THE COPYRIGHT OWNER OR CONTRIBUTORS BE
  25:f:\importante\faculdade\mcc\vscode-avr-win\toolchains\avr-gcc\avr\include\util\delay.h ****   LIABLE FOR ANY DIRECT, INDIRECT, INCIDENTAL, SPECIAL, EXEMPLARY, OR
  26:f:\importante\faculdade\mcc\vscode-avr-win\toolchains\avr-gcc\avr\include\util\delay.h ****   CONSEQUENTIAL DAMAGES (INCLUDING, BUT NOT LIMITED TO, PROCUREMENT OF
  27:f:\importante\faculdade\mcc\vscode-avr-win\toolchains\avr-gcc\avr\include\util\delay.h ****   SUBSTITUTE GOODS OR SERVICES; LOSS OF USE, DATA, OR PROFITS; OR BUSINESS
  28:f:\importante\faculdade\mcc\vscode-avr-win\toolchains\avr-gcc\avr\include\util\delay.h ****   INTERRUPTION) HOWEVER CAUSED AND ON ANY THEORY OF LIABILITY, WHETHER IN
  29:f:\importante\faculdade\mcc\vscode-avr-win\toolchains\avr-gcc\avr\include\util\delay.h ****   CONTRACT, STRICT LIABILITY, OR TORT (INCLUDING NEGLIGENCE OR OTHERWISE)
  30:f:\importante\faculdade\mcc\vscode-avr-win\toolchains\avr-gcc\avr\include\util\delay.h ****   ARISING IN ANY WAY OUT OF THE USE OF THIS SOFTWARE, EVEN IF ADVISED OF THE
  31:f:\importante\faculdade\mcc\vscode-avr-win\toolchains\avr-gcc\avr\include\util\delay.h ****   POSSIBILITY OF SUCH DAMAGE. */
  32:f:\importante\faculdade\mcc\vscode-avr-win\toolchains\avr-gcc\avr\include\util\delay.h **** 
  33:f:\importante\faculdade\mcc\vscode-avr-win\toolchains\avr-gcc\avr\include\util\delay.h **** /* $Id$ */
  34:f:\importante\faculdade\mcc\vscode-avr-win\toolchains\avr-gcc\avr\include\util\delay.h **** 
  35:f:\importante\faculdade\mcc\vscode-avr-win\toolchains\avr-gcc\avr\include\util\delay.h **** #ifndef _UTIL_DELAY_H_
  36:f:\importante\faculdade\mcc\vscode-avr-win\toolchains\avr-gcc\avr\include\util\delay.h **** #define _UTIL_DELAY_H_ 1
  37:f:\importante\faculdade\mcc\vscode-avr-win\toolchains\avr-gcc\avr\include\util\delay.h **** 
  38:f:\importante\faculdade\mcc\vscode-avr-win\toolchains\avr-gcc\avr\include\util\delay.h **** #ifndef __DOXYGEN__
  39:f:\importante\faculdade\mcc\vscode-avr-win\toolchains\avr-gcc\avr\include\util\delay.h **** #  ifndef __HAS_DELAY_CYCLES
  40:f:\importante\faculdade\mcc\vscode-avr-win\toolchains\avr-gcc\avr\include\util\delay.h **** #    define __HAS_DELAY_CYCLES 1
  41:f:\importante\faculdade\mcc\vscode-avr-win\toolchains\avr-gcc\avr\include\util\delay.h **** #  endif
  42:f:\importante\faculdade\mcc\vscode-avr-win\toolchains\avr-gcc\avr\include\util\delay.h **** #endif  /* __DOXYGEN__ */
  43:f:\importante\faculdade\mcc\vscode-avr-win\toolchains\avr-gcc\avr\include\util\delay.h **** 
  44:f:\importante\faculdade\mcc\vscode-avr-win\toolchains\avr-gcc\avr\include\util\delay.h **** #include <inttypes.h>
  45:f:\importante\faculdade\mcc\vscode-avr-win\toolchains\avr-gcc\avr\include\util\delay.h **** #include <util/delay_basic.h>
  46:f:\importante\faculdade\mcc\vscode-avr-win\toolchains\avr-gcc\avr\include\util\delay.h **** #include <math.h>
  47:f:\importante\faculdade\mcc\vscode-avr-win\toolchains\avr-gcc\avr\include\util\delay.h **** 
  48:f:\importante\faculdade\mcc\vscode-avr-win\toolchains\avr-gcc\avr\include\util\delay.h **** /** \file */
  49:f:\importante\faculdade\mcc\vscode-avr-win\toolchains\avr-gcc\avr\include\util\delay.h **** /** \defgroup util_delay <util/delay.h>: Convenience functions for busy-wait delay loops
  50:f:\importante\faculdade\mcc\vscode-avr-win\toolchains\avr-gcc\avr\include\util\delay.h ****     \code
  51:f:\importante\faculdade\mcc\vscode-avr-win\toolchains\avr-gcc\avr\include\util\delay.h ****     #define F_CPU 1000000UL  // 1 MHz
  52:f:\importante\faculdade\mcc\vscode-avr-win\toolchains\avr-gcc\avr\include\util\delay.h ****     //#define F_CPU 14.7456E6
  53:f:\importante\faculdade\mcc\vscode-avr-win\toolchains\avr-gcc\avr\include\util\delay.h ****     #include <util/delay.h>
  54:f:\importante\faculdade\mcc\vscode-avr-win\toolchains\avr-gcc\avr\include\util\delay.h ****     \endcode
  55:f:\importante\faculdade\mcc\vscode-avr-win\toolchains\avr-gcc\avr\include\util\delay.h **** 
  56:f:\importante\faculdade\mcc\vscode-avr-win\toolchains\avr-gcc\avr\include\util\delay.h ****     \note As an alternative method, it is possible to pass the
  57:f:\importante\faculdade\mcc\vscode-avr-win\toolchains\avr-gcc\avr\include\util\delay.h ****     F_CPU macro down to the compiler from the Makefile.
  58:f:\importante\faculdade\mcc\vscode-avr-win\toolchains\avr-gcc\avr\include\util\delay.h ****     Obviously, in that case, no \c \#define statement should be
  59:f:\importante\faculdade\mcc\vscode-avr-win\toolchains\avr-gcc\avr\include\util\delay.h ****     used.
  60:f:\importante\faculdade\mcc\vscode-avr-win\toolchains\avr-gcc\avr\include\util\delay.h **** 
GAS LISTING C:\Users\kenne\AppData\Local\Temp\ccYle9OK.s 			page 23


  61:f:\importante\faculdade\mcc\vscode-avr-win\toolchains\avr-gcc\avr\include\util\delay.h ****     The functions in this header file are wrappers around the basic
  62:f:\importante\faculdade\mcc\vscode-avr-win\toolchains\avr-gcc\avr\include\util\delay.h ****     busy-wait functions from <util/delay_basic.h>.  They are meant as
  63:f:\importante\faculdade\mcc\vscode-avr-win\toolchains\avr-gcc\avr\include\util\delay.h ****     convenience functions where actual time values can be specified
  64:f:\importante\faculdade\mcc\vscode-avr-win\toolchains\avr-gcc\avr\include\util\delay.h ****     rather than a number of cycles to wait for.  The idea behind is
  65:f:\importante\faculdade\mcc\vscode-avr-win\toolchains\avr-gcc\avr\include\util\delay.h ****     that compile-time constant expressions will be eliminated by
  66:f:\importante\faculdade\mcc\vscode-avr-win\toolchains\avr-gcc\avr\include\util\delay.h ****     compiler optimization so floating-point expressions can be used
  67:f:\importante\faculdade\mcc\vscode-avr-win\toolchains\avr-gcc\avr\include\util\delay.h ****     to calculate the number of delay cycles needed based on the CPU
  68:f:\importante\faculdade\mcc\vscode-avr-win\toolchains\avr-gcc\avr\include\util\delay.h ****     frequency passed by the macro F_CPU.
  69:f:\importante\faculdade\mcc\vscode-avr-win\toolchains\avr-gcc\avr\include\util\delay.h **** 
  70:f:\importante\faculdade\mcc\vscode-avr-win\toolchains\avr-gcc\avr\include\util\delay.h ****     \note In order for these functions to work as intended, compiler
  71:f:\importante\faculdade\mcc\vscode-avr-win\toolchains\avr-gcc\avr\include\util\delay.h ****     optimizations <em>must</em> be enabled, and the delay time
  72:f:\importante\faculdade\mcc\vscode-avr-win\toolchains\avr-gcc\avr\include\util\delay.h ****     <em>must</em> be an expression that is a known constant at
  73:f:\importante\faculdade\mcc\vscode-avr-win\toolchains\avr-gcc\avr\include\util\delay.h ****     compile-time.  If these requirements are not met, the resulting
  74:f:\importante\faculdade\mcc\vscode-avr-win\toolchains\avr-gcc\avr\include\util\delay.h ****     delay will be much longer (and basically unpredictable), and
  75:f:\importante\faculdade\mcc\vscode-avr-win\toolchains\avr-gcc\avr\include\util\delay.h ****     applications that otherwise do not use floating-point calculations
  76:f:\importante\faculdade\mcc\vscode-avr-win\toolchains\avr-gcc\avr\include\util\delay.h ****     will experience severe code bloat by the floating-point library
  77:f:\importante\faculdade\mcc\vscode-avr-win\toolchains\avr-gcc\avr\include\util\delay.h ****     routines linked into the application.
  78:f:\importante\faculdade\mcc\vscode-avr-win\toolchains\avr-gcc\avr\include\util\delay.h **** 
  79:f:\importante\faculdade\mcc\vscode-avr-win\toolchains\avr-gcc\avr\include\util\delay.h ****     The functions available allow the specification of microsecond, and
  80:f:\importante\faculdade\mcc\vscode-avr-win\toolchains\avr-gcc\avr\include\util\delay.h ****     millisecond delays directly, using the application-supplied macro
  81:f:\importante\faculdade\mcc\vscode-avr-win\toolchains\avr-gcc\avr\include\util\delay.h ****     F_CPU as the CPU clock frequency (in Hertz).
  82:f:\importante\faculdade\mcc\vscode-avr-win\toolchains\avr-gcc\avr\include\util\delay.h **** 
  83:f:\importante\faculdade\mcc\vscode-avr-win\toolchains\avr-gcc\avr\include\util\delay.h **** */
  84:f:\importante\faculdade\mcc\vscode-avr-win\toolchains\avr-gcc\avr\include\util\delay.h **** 
  85:f:\importante\faculdade\mcc\vscode-avr-win\toolchains\avr-gcc\avr\include\util\delay.h **** #if !defined(__DOXYGEN__)
  86:f:\importante\faculdade\mcc\vscode-avr-win\toolchains\avr-gcc\avr\include\util\delay.h **** static __inline__ void _delay_us(double __us) __attribute__((__always_inline__));
  87:f:\importante\faculdade\mcc\vscode-avr-win\toolchains\avr-gcc\avr\include\util\delay.h **** static __inline__ void _delay_ms(double __ms) __attribute__((__always_inline__));
  88:f:\importante\faculdade\mcc\vscode-avr-win\toolchains\avr-gcc\avr\include\util\delay.h **** #endif
  89:f:\importante\faculdade\mcc\vscode-avr-win\toolchains\avr-gcc\avr\include\util\delay.h **** 
  90:f:\importante\faculdade\mcc\vscode-avr-win\toolchains\avr-gcc\avr\include\util\delay.h **** #ifndef F_CPU
  91:f:\importante\faculdade\mcc\vscode-avr-win\toolchains\avr-gcc\avr\include\util\delay.h **** /* prevent compiler error by supplying a default */
  92:f:\importante\faculdade\mcc\vscode-avr-win\toolchains\avr-gcc\avr\include\util\delay.h **** # warning "F_CPU not defined for <util/delay.h>"
  93:f:\importante\faculdade\mcc\vscode-avr-win\toolchains\avr-gcc\avr\include\util\delay.h **** /** \ingroup util_delay
  94:f:\importante\faculdade\mcc\vscode-avr-win\toolchains\avr-gcc\avr\include\util\delay.h ****     \def F_CPU
  95:f:\importante\faculdade\mcc\vscode-avr-win\toolchains\avr-gcc\avr\include\util\delay.h ****     \brief CPU frequency in Hz
  96:f:\importante\faculdade\mcc\vscode-avr-win\toolchains\avr-gcc\avr\include\util\delay.h **** 
  97:f:\importante\faculdade\mcc\vscode-avr-win\toolchains\avr-gcc\avr\include\util\delay.h ****     The macro F_CPU specifies the CPU frequency to be considered by
  98:f:\importante\faculdade\mcc\vscode-avr-win\toolchains\avr-gcc\avr\include\util\delay.h ****     the delay macros.  This macro is normally supplied by the
  99:f:\importante\faculdade\mcc\vscode-avr-win\toolchains\avr-gcc\avr\include\util\delay.h ****     environment (e.g. from within a project header, or the project's
 100:f:\importante\faculdade\mcc\vscode-avr-win\toolchains\avr-gcc\avr\include\util\delay.h ****     Makefile).  The value 1 MHz here is only provided as a "vanilla"
 101:f:\importante\faculdade\mcc\vscode-avr-win\toolchains\avr-gcc\avr\include\util\delay.h ****     fallback if no such user-provided definition could be found.
 102:f:\importante\faculdade\mcc\vscode-avr-win\toolchains\avr-gcc\avr\include\util\delay.h **** 
 103:f:\importante\faculdade\mcc\vscode-avr-win\toolchains\avr-gcc\avr\include\util\delay.h ****     In terms of the delay functions, the CPU frequency can be given as
 104:f:\importante\faculdade\mcc\vscode-avr-win\toolchains\avr-gcc\avr\include\util\delay.h ****     a floating-point constant (e.g. 3.6864E6 for 3.6864 MHz).
 105:f:\importante\faculdade\mcc\vscode-avr-win\toolchains\avr-gcc\avr\include\util\delay.h ****     However, the macros in <util/setbaud.h> require it to be an
 106:f:\importante\faculdade\mcc\vscode-avr-win\toolchains\avr-gcc\avr\include\util\delay.h ****     integer value.
 107:f:\importante\faculdade\mcc\vscode-avr-win\toolchains\avr-gcc\avr\include\util\delay.h ****  */
 108:f:\importante\faculdade\mcc\vscode-avr-win\toolchains\avr-gcc\avr\include\util\delay.h **** # define F_CPU 1000000UL
 109:f:\importante\faculdade\mcc\vscode-avr-win\toolchains\avr-gcc\avr\include\util\delay.h **** #endif
 110:f:\importante\faculdade\mcc\vscode-avr-win\toolchains\avr-gcc\avr\include\util\delay.h **** 
 111:f:\importante\faculdade\mcc\vscode-avr-win\toolchains\avr-gcc\avr\include\util\delay.h **** #ifndef __OPTIMIZE__
 112:f:\importante\faculdade\mcc\vscode-avr-win\toolchains\avr-gcc\avr\include\util\delay.h **** # warning "Compiler optimizations disabled; functions from <util/delay.h> won't work as designed"
 113:f:\importante\faculdade\mcc\vscode-avr-win\toolchains\avr-gcc\avr\include\util\delay.h **** #endif
 114:f:\importante\faculdade\mcc\vscode-avr-win\toolchains\avr-gcc\avr\include\util\delay.h **** 
 115:f:\importante\faculdade\mcc\vscode-avr-win\toolchains\avr-gcc\avr\include\util\delay.h **** #if __HAS_DELAY_CYCLES && defined(__OPTIMIZE__) && \
 116:f:\importante\faculdade\mcc\vscode-avr-win\toolchains\avr-gcc\avr\include\util\delay.h ****   !defined(__DELAY_BACKWARD_COMPATIBLE__) &&	   \
 117:f:\importante\faculdade\mcc\vscode-avr-win\toolchains\avr-gcc\avr\include\util\delay.h ****   __STDC_HOSTED__
GAS LISTING C:\Users\kenne\AppData\Local\Temp\ccYle9OK.s 			page 24


 118:f:\importante\faculdade\mcc\vscode-avr-win\toolchains\avr-gcc\avr\include\util\delay.h **** #  include <math.h>
 119:f:\importante\faculdade\mcc\vscode-avr-win\toolchains\avr-gcc\avr\include\util\delay.h **** #endif
 120:f:\importante\faculdade\mcc\vscode-avr-win\toolchains\avr-gcc\avr\include\util\delay.h **** 
 121:f:\importante\faculdade\mcc\vscode-avr-win\toolchains\avr-gcc\avr\include\util\delay.h **** /**
 122:f:\importante\faculdade\mcc\vscode-avr-win\toolchains\avr-gcc\avr\include\util\delay.h ****    \ingroup util_delay
 123:f:\importante\faculdade\mcc\vscode-avr-win\toolchains\avr-gcc\avr\include\util\delay.h **** 
 124:f:\importante\faculdade\mcc\vscode-avr-win\toolchains\avr-gcc\avr\include\util\delay.h ****    Perform a delay of \c __ms milliseconds, using _delay_loop_2().
 125:f:\importante\faculdade\mcc\vscode-avr-win\toolchains\avr-gcc\avr\include\util\delay.h **** 
 126:f:\importante\faculdade\mcc\vscode-avr-win\toolchains\avr-gcc\avr\include\util\delay.h ****    The macro F_CPU is supposed to be defined to a
 127:f:\importante\faculdade\mcc\vscode-avr-win\toolchains\avr-gcc\avr\include\util\delay.h ****    constant defining the CPU clock frequency (in Hertz).
 128:f:\importante\faculdade\mcc\vscode-avr-win\toolchains\avr-gcc\avr\include\util\delay.h **** 
 129:f:\importante\faculdade\mcc\vscode-avr-win\toolchains\avr-gcc\avr\include\util\delay.h ****    The maximal possible delay is 262.14 ms / F_CPU in MHz.
 130:f:\importante\faculdade\mcc\vscode-avr-win\toolchains\avr-gcc\avr\include\util\delay.h **** 
 131:f:\importante\faculdade\mcc\vscode-avr-win\toolchains\avr-gcc\avr\include\util\delay.h ****    When the user request delay which exceed the maximum possible one,
 132:f:\importante\faculdade\mcc\vscode-avr-win\toolchains\avr-gcc\avr\include\util\delay.h ****    _delay_ms() provides a decreased resolution functionality. In this
 133:f:\importante\faculdade\mcc\vscode-avr-win\toolchains\avr-gcc\avr\include\util\delay.h ****    mode _delay_ms() will work with a resolution of 1/10 ms, providing
 134:f:\importante\faculdade\mcc\vscode-avr-win\toolchains\avr-gcc\avr\include\util\delay.h ****    delays up to 6.5535 seconds (independent from CPU frequency).  The
 135:f:\importante\faculdade\mcc\vscode-avr-win\toolchains\avr-gcc\avr\include\util\delay.h ****    user will not be informed about decreased resolution.
 136:f:\importante\faculdade\mcc\vscode-avr-win\toolchains\avr-gcc\avr\include\util\delay.h **** 
 137:f:\importante\faculdade\mcc\vscode-avr-win\toolchains\avr-gcc\avr\include\util\delay.h ****    If the avr-gcc toolchain has __builtin_avr_delay_cycles()
 138:f:\importante\faculdade\mcc\vscode-avr-win\toolchains\avr-gcc\avr\include\util\delay.h ****    support, maximal possible delay is 4294967.295 ms/ F_CPU in MHz. For
 139:f:\importante\faculdade\mcc\vscode-avr-win\toolchains\avr-gcc\avr\include\util\delay.h ****    values greater than the maximal possible delay, overflows results in
 140:f:\importante\faculdade\mcc\vscode-avr-win\toolchains\avr-gcc\avr\include\util\delay.h ****    no delay i.e., 0ms.
 141:f:\importante\faculdade\mcc\vscode-avr-win\toolchains\avr-gcc\avr\include\util\delay.h **** 
 142:f:\importante\faculdade\mcc\vscode-avr-win\toolchains\avr-gcc\avr\include\util\delay.h ****    Conversion of \c __ms into clock cycles may not always result in
 143:f:\importante\faculdade\mcc\vscode-avr-win\toolchains\avr-gcc\avr\include\util\delay.h ****    integer.  By default, the clock cycles rounded up to next
 144:f:\importante\faculdade\mcc\vscode-avr-win\toolchains\avr-gcc\avr\include\util\delay.h ****    integer. This ensures that the user gets at least \c __ms
 145:f:\importante\faculdade\mcc\vscode-avr-win\toolchains\avr-gcc\avr\include\util\delay.h ****    microseconds of delay.
 146:f:\importante\faculdade\mcc\vscode-avr-win\toolchains\avr-gcc\avr\include\util\delay.h **** 
 147:f:\importante\faculdade\mcc\vscode-avr-win\toolchains\avr-gcc\avr\include\util\delay.h ****    Alternatively, by defining the macro \c __DELAY_ROUND_DOWN__, or
 148:f:\importante\faculdade\mcc\vscode-avr-win\toolchains\avr-gcc\avr\include\util\delay.h ****    \c __DELAY_ROUND_CLOSEST__, before including this header file, the
 149:f:\importante\faculdade\mcc\vscode-avr-win\toolchains\avr-gcc\avr\include\util\delay.h ****    algorithm can be made to round down, or round to closest integer,
 150:f:\importante\faculdade\mcc\vscode-avr-win\toolchains\avr-gcc\avr\include\util\delay.h ****    respectively.
 151:f:\importante\faculdade\mcc\vscode-avr-win\toolchains\avr-gcc\avr\include\util\delay.h **** 
 152:f:\importante\faculdade\mcc\vscode-avr-win\toolchains\avr-gcc\avr\include\util\delay.h ****    \note
 153:f:\importante\faculdade\mcc\vscode-avr-win\toolchains\avr-gcc\avr\include\util\delay.h **** 
 154:f:\importante\faculdade\mcc\vscode-avr-win\toolchains\avr-gcc\avr\include\util\delay.h ****    The implementation of _delay_ms() based on
 155:f:\importante\faculdade\mcc\vscode-avr-win\toolchains\avr-gcc\avr\include\util\delay.h ****    __builtin_avr_delay_cycles() is not backward compatible with older
 156:f:\importante\faculdade\mcc\vscode-avr-win\toolchains\avr-gcc\avr\include\util\delay.h ****    implementations.  In order to get functionality backward compatible
 157:f:\importante\faculdade\mcc\vscode-avr-win\toolchains\avr-gcc\avr\include\util\delay.h ****    with previous versions, the macro \c "__DELAY_BACKWARD_COMPATIBLE__"
 158:f:\importante\faculdade\mcc\vscode-avr-win\toolchains\avr-gcc\avr\include\util\delay.h ****    must be defined before including this header file. Also, the
 159:f:\importante\faculdade\mcc\vscode-avr-win\toolchains\avr-gcc\avr\include\util\delay.h ****    backward compatible algorithm will be chosen if the code is
 160:f:\importante\faculdade\mcc\vscode-avr-win\toolchains\avr-gcc\avr\include\util\delay.h ****    compiled in a <em>freestanding environment</em> (GCC option
 161:f:\importante\faculdade\mcc\vscode-avr-win\toolchains\avr-gcc\avr\include\util\delay.h ****    \c -ffreestanding), as the math functions required for rounding are
 162:f:\importante\faculdade\mcc\vscode-avr-win\toolchains\avr-gcc\avr\include\util\delay.h ****    not available to the compiler then.
 163:f:\importante\faculdade\mcc\vscode-avr-win\toolchains\avr-gcc\avr\include\util\delay.h **** 
 164:f:\importante\faculdade\mcc\vscode-avr-win\toolchains\avr-gcc\avr\include\util\delay.h ****  */
 165:f:\importante\faculdade\mcc\vscode-avr-win\toolchains\avr-gcc\avr\include\util\delay.h **** void
 166:f:\importante\faculdade\mcc\vscode-avr-win\toolchains\avr-gcc\avr\include\util\delay.h **** _delay_ms(double __ms)
 322               		.loc 3 166 1 view .LVU44
 323               	.LBB51:
 167:f:\importante\faculdade\mcc\vscode-avr-win\toolchains\avr-gcc\avr\include\util\delay.h **** {
 168:f:\importante\faculdade\mcc\vscode-avr-win\toolchains\avr-gcc\avr\include\util\delay.h **** 	double __tmp ;
 324               		.loc 3 168 2 view .LVU45
 169:f:\importante\faculdade\mcc\vscode-avr-win\toolchains\avr-gcc\avr\include\util\delay.h **** #if __HAS_DELAY_CYCLES && defined(__OPTIMIZE__) && \
 170:f:\importante\faculdade\mcc\vscode-avr-win\toolchains\avr-gcc\avr\include\util\delay.h ****   !defined(__DELAY_BACKWARD_COMPATIBLE__) &&	   \
 171:f:\importante\faculdade\mcc\vscode-avr-win\toolchains\avr-gcc\avr\include\util\delay.h ****   __STDC_HOSTED__
GAS LISTING C:\Users\kenne\AppData\Local\Temp\ccYle9OK.s 			page 25


 172:f:\importante\faculdade\mcc\vscode-avr-win\toolchains\avr-gcc\avr\include\util\delay.h **** 	uint32_t __ticks_dc;
 325               		.loc 3 172 2 view .LVU46
 173:f:\importante\faculdade\mcc\vscode-avr-win\toolchains\avr-gcc\avr\include\util\delay.h **** 	extern void __builtin_avr_delay_cycles(unsigned long);
 326               		.loc 3 173 2 view .LVU47
 174:f:\importante\faculdade\mcc\vscode-avr-win\toolchains\avr-gcc\avr\include\util\delay.h **** 	__tmp = ((F_CPU) / 1e3) * __ms;
 327               		.loc 3 174 2 view .LVU48
 175:f:\importante\faculdade\mcc\vscode-avr-win\toolchains\avr-gcc\avr\include\util\delay.h **** 
 176:f:\importante\faculdade\mcc\vscode-avr-win\toolchains\avr-gcc\avr\include\util\delay.h **** 	#if defined(__DELAY_ROUND_DOWN__)
 177:f:\importante\faculdade\mcc\vscode-avr-win\toolchains\avr-gcc\avr\include\util\delay.h **** 		__ticks_dc = (uint32_t)fabs(__tmp);
 178:f:\importante\faculdade\mcc\vscode-avr-win\toolchains\avr-gcc\avr\include\util\delay.h **** 
 179:f:\importante\faculdade\mcc\vscode-avr-win\toolchains\avr-gcc\avr\include\util\delay.h **** 	#elif defined(__DELAY_ROUND_CLOSEST__)
 180:f:\importante\faculdade\mcc\vscode-avr-win\toolchains\avr-gcc\avr\include\util\delay.h **** 		__ticks_dc = (uint32_t)(fabs(__tmp)+0.5);
 181:f:\importante\faculdade\mcc\vscode-avr-win\toolchains\avr-gcc\avr\include\util\delay.h **** 
 182:f:\importante\faculdade\mcc\vscode-avr-win\toolchains\avr-gcc\avr\include\util\delay.h **** 	#else
 183:f:\importante\faculdade\mcc\vscode-avr-win\toolchains\avr-gcc\avr\include\util\delay.h **** 		//round up by default
 184:f:\importante\faculdade\mcc\vscode-avr-win\toolchains\avr-gcc\avr\include\util\delay.h **** 		__ticks_dc = (uint32_t)(ceil(fabs(__tmp)));
 328               		.loc 3 184 3 view .LVU49
 185:f:\importante\faculdade\mcc\vscode-avr-win\toolchains\avr-gcc\avr\include\util\delay.h **** 	#endif
 186:f:\importante\faculdade\mcc\vscode-avr-win\toolchains\avr-gcc\avr\include\util\delay.h **** 
 187:f:\importante\faculdade\mcc\vscode-avr-win\toolchains\avr-gcc\avr\include\util\delay.h **** 	__builtin_avr_delay_cycles(__ticks_dc);
 329               		.loc 3 187 2 view .LVU50
 330               		.loc 3 187 28 is_stmt 0 view .LVU51
 331 00f4 9FEF      		ldi r25,lo8(1599999)
 332 00f6 A9E6      		ldi r26,hi8(1599999)
 333 00f8 B8E1      		ldi r27,hlo8(1599999)
 334 00fa 9150      	1:	subi r25,1
 335 00fc A040      		sbci r26,0
 336 00fe B040      		sbci r27,0
 337 0100 01F4      		brne 1b
 338 0102 00C0      		rjmp .
 339 0104 0000      		nop
 340               	.LVL15:
 341               		.loc 3 187 28 view .LVU52
 342               	.LBE51:
 343               	.LBE50:
  57:main.cpp      ****     lcd.clearScreen();
 344               		.loc 2 57 5 is_stmt 1 view .LVU53
 345               		.loc 2 57 20 is_stmt 0 view .LVU54
 346 0106 CE01      		movw r24,r28
 347 0108 0196      		adiw r24,1
 348 010a 0E94 0000 		call _ZN7Hd4478011clearScreenEv
 349               	.LVL16:
  58:main.cpp      ****     setBit(DDRB, PB1);
 350               		.loc 2 58 5 is_stmt 1 view .LVU55
 351 010e 84B1      		in r24,0x4
 352 0110 8260      		ori r24,lo8(2)
 353 0112 84B9      		out 0x4,r24
  59:main.cpp      ****     setBit(DDRB, PB2);
 354               		.loc 2 59 5 view .LVU56
 355 0114 84B1      		in r24,0x4
 356 0116 8460      		ori r24,lo8(4)
 357 0118 84B9      		out 0x4,r24
  60:main.cpp      ****     Timer1 timer1;
 358               		.loc 2 60 5 view .LVU57
 359               		.loc 2 60 12 is_stmt 0 view .LVU58
 360 011a CE01      		movw r24,r28
 361 011c 8696      		adiw r24,38
GAS LISTING C:\Users\kenne\AppData\Local\Temp\ccYle9OK.s 			page 26


 362 011e 0E94 0000 		call _ZN6Timer1C1Ev
 363               	.LVL17:
  61:main.cpp      ****     timer1.setOutputMode(Timer1::OutputMode::NON_INVERTING_MODE,
 364               		.loc 2 61 5 is_stmt 1 view .LVU59
 365               		.loc 2 61 25 is_stmt 0 view .LVU60
 366 0122 40E0      		ldi r20,0
 367 0124 62E0      		ldi r22,lo8(2)
 368 0126 CE01      		movw r24,r28
 369 0128 8696      		adiw r24,38
 370 012a 0E94 0000 		call _ZN6Timer113setOutputModeENS_10OutputModeES0_
 371               	.LVL18:
  62:main.cpp      ****             Timer1::OutputMode::NORMAL);   // Fast-PWM, non inverting mode, normal
  63:main.cpp      ****     timer1.init(Timer1::Mode::PWM_FAST_ICR, Timer1::ClockSource::PRESCALER_8);
 372               		.loc 2 63 5 is_stmt 1 view .LVU61
 373               		.loc 2 63 16 is_stmt 0 view .LVU62
 374 012e 42E0      		ldi r20,lo8(2)
 375 0130 6EE0      		ldi r22,lo8(14)
 376 0132 CE01      		movw r24,r28
 377 0134 8696      		adiw r24,38
 378 0136 0E94 0000 		call _ZN6Timer14initENS_4ModeENS_11ClockSourceE
 379               	.LVL19:
  64:main.cpp      ****     timer1.setInputCaptureValue(0xFFFF); //Define ICR, portanto perodo da onda.
 380               		.loc 2 64 5 is_stmt 1 view .LVU63
 381               	.LBB52:
 382               	.LBI52:
 383               		.file 4 "funsape/peripheral/timer1.hpp"
   1:funsape/peripheral/timer1.hpp **** //!
   2:funsape/peripheral/timer1.hpp **** //! \file           timer1.hpp
   3:funsape/peripheral/timer1.hpp **** //! \brief          TIMER1 peripheral control for the FunSAPE AVR8 Library
   4:funsape/peripheral/timer1.hpp **** //! \author         Leandro Schwarz (bladabuska+funsapeavr8lib@gmail.com)
   5:funsape/peripheral/timer1.hpp **** //! \date           2023-04-05
   6:funsape/peripheral/timer1.hpp **** //! \version        23.04
   7:funsape/peripheral/timer1.hpp **** //! \copyright      license
   8:funsape/peripheral/timer1.hpp **** //! \details        TIMER1 peripheral control for the FunSAPE AVR8 Library
   9:funsape/peripheral/timer1.hpp **** //! \todo           Todo list
  10:funsape/peripheral/timer1.hpp **** //!
  11:funsape/peripheral/timer1.hpp **** 
  12:funsape/peripheral/timer1.hpp **** // =============================================================================
  13:funsape/peripheral/timer1.hpp **** // Include guard (START)
  14:funsape/peripheral/timer1.hpp **** // =============================================================================
  15:funsape/peripheral/timer1.hpp **** 
  16:funsape/peripheral/timer1.hpp **** #ifndef __TIMER1_HPP
  17:funsape/peripheral/timer1.hpp **** #define __TIMER1_HPP                            2304
  18:funsape/peripheral/timer1.hpp **** 
  19:funsape/peripheral/timer1.hpp **** // =============================================================================
  20:funsape/peripheral/timer1.hpp **** // Dependencies
  21:funsape/peripheral/timer1.hpp **** // =============================================================================
  22:funsape/peripheral/timer1.hpp **** 
  23:funsape/peripheral/timer1.hpp **** //     /////////////////     GLOBAL DEFINITIONS FILE    /////////////////     //
  24:funsape/peripheral/timer1.hpp **** #include "../globalDefines.hpp"
  25:funsape/peripheral/timer1.hpp **** #if !defined(__GLOBAL_DEFINES_HPP)
  26:funsape/peripheral/timer1.hpp **** #    error "Global definitions file is corrupted!"
  27:funsape/peripheral/timer1.hpp **** #elif __GLOBAL_DEFINES_HPP != __TIMER1_HPP
  28:funsape/peripheral/timer1.hpp **** #    error "Version mismatch between file header and global definitions file!"
  29:funsape/peripheral/timer1.hpp **** #endif
  30:funsape/peripheral/timer1.hpp **** 
  31:funsape/peripheral/timer1.hpp **** //     //////////////////     LIBRARY DEPENDENCIES     //////////////////     //
GAS LISTING C:\Users\kenne\AppData\Local\Temp\ccYle9OK.s 			page 27


  32:funsape/peripheral/timer1.hpp **** #include "../util/debug.hpp"
  33:funsape/peripheral/timer1.hpp **** #if !defined(__DEBUG_HPP)
  34:funsape/peripheral/timer1.hpp **** #   error "Header file (debug.hpp) is corrupted!"
  35:funsape/peripheral/timer1.hpp **** #elif __DEBUG_HPP != __TIMER1_HPP
  36:funsape/peripheral/timer1.hpp **** #   error "Version mismatch between header file and library dependency (debug.hpp)!"
  37:funsape/peripheral/timer1.hpp **** #endif
  38:funsape/peripheral/timer1.hpp **** 
  39:funsape/peripheral/timer1.hpp **** // =============================================================================
  40:funsape/peripheral/timer1.hpp **** // Undefining previous definitions
  41:funsape/peripheral/timer1.hpp **** // =============================================================================
  42:funsape/peripheral/timer1.hpp **** 
  43:funsape/peripheral/timer1.hpp **** // NONE
  44:funsape/peripheral/timer1.hpp **** 
  45:funsape/peripheral/timer1.hpp **** // =============================================================================
  46:funsape/peripheral/timer1.hpp **** // Constant definitions
  47:funsape/peripheral/timer1.hpp **** // =============================================================================
  48:funsape/peripheral/timer1.hpp **** 
  49:funsape/peripheral/timer1.hpp **** // NONE
  50:funsape/peripheral/timer1.hpp **** 
  51:funsape/peripheral/timer1.hpp **** // =============================================================================
  52:funsape/peripheral/timer1.hpp **** // New data types
  53:funsape/peripheral/timer1.hpp **** // =============================================================================
  54:funsape/peripheral/timer1.hpp **** 
  55:funsape/peripheral/timer1.hpp **** // NONE
  56:funsape/peripheral/timer1.hpp **** 
  57:funsape/peripheral/timer1.hpp **** // =============================================================================
  58:funsape/peripheral/timer1.hpp **** // Interrupt callback functions
  59:funsape/peripheral/timer1.hpp **** // =============================================================================
  60:funsape/peripheral/timer1.hpp **** 
  61:funsape/peripheral/timer1.hpp **** //!
  62:funsape/peripheral/timer1.hpp **** //! \brief          TIMER1 compare A match interrupt callback function
  63:funsape/peripheral/timer1.hpp **** //! \details        This function is called when the TIMER1 compare A match
  64:funsape/peripheral/timer1.hpp **** //!                     interrupt is treated. It is a weak function that can be
  65:funsape/peripheral/timer1.hpp **** //!                     overwritten by user code.
  66:funsape/peripheral/timer1.hpp **** //!
  67:funsape/peripheral/timer1.hpp **** void timer1CompareACallback(void);
  68:funsape/peripheral/timer1.hpp **** 
  69:funsape/peripheral/timer1.hpp **** //!
  70:funsape/peripheral/timer1.hpp **** //! \brief          TIMER1 compare B match interrupt callback function
  71:funsape/peripheral/timer1.hpp **** //! \details        This function is called when the TIMER1 compare B match
  72:funsape/peripheral/timer1.hpp **** //!                     interrupt is treated. It is a weak function that can be
  73:funsape/peripheral/timer1.hpp **** //!                     overwritten by user code.
  74:funsape/peripheral/timer1.hpp **** //!
  75:funsape/peripheral/timer1.hpp **** void timer1CompareBCallback(void);
  76:funsape/peripheral/timer1.hpp **** 
  77:funsape/peripheral/timer1.hpp **** //!
  78:funsape/peripheral/timer1.hpp **** //! \brief          TIMER1 Input Capture interrupt callback function
  79:funsape/peripheral/timer1.hpp **** //! \details        This function is called when the TIMER1 input capture
  80:funsape/peripheral/timer1.hpp **** //!                     interrupt is treated. It is a weak function that can be
  81:funsape/peripheral/timer1.hpp **** //!                     overwritten by user code.
  82:funsape/peripheral/timer1.hpp **** //!
  83:funsape/peripheral/timer1.hpp **** void timer1InputCaptureCallback(void);
  84:funsape/peripheral/timer1.hpp **** 
  85:funsape/peripheral/timer1.hpp **** //!
  86:funsape/peripheral/timer1.hpp **** //! \brief          TIMER1 overflow interrupt callback function
  87:funsape/peripheral/timer1.hpp **** //! \details        This function is called when the TIMER1 overflow interrupt
  88:funsape/peripheral/timer1.hpp **** //!                     is treated. It is a weak function that can be
GAS LISTING C:\Users\kenne\AppData\Local\Temp\ccYle9OK.s 			page 28


  89:funsape/peripheral/timer1.hpp **** //!                     overwritten by user code.
  90:funsape/peripheral/timer1.hpp **** //!
  91:funsape/peripheral/timer1.hpp **** void timer1OverflowCallback(void);
  92:funsape/peripheral/timer1.hpp **** 
  93:funsape/peripheral/timer1.hpp **** // =============================================================================
  94:funsape/peripheral/timer1.hpp **** // Timer1 Class
  95:funsape/peripheral/timer1.hpp **** // =============================================================================
  96:funsape/peripheral/timer1.hpp **** 
  97:funsape/peripheral/timer1.hpp **** //!
  98:funsape/peripheral/timer1.hpp **** //! \brief          Timer1 class
  99:funsape/peripheral/timer1.hpp **** //! \details        Timer1 class
 100:funsape/peripheral/timer1.hpp **** //!
 101:funsape/peripheral/timer1.hpp **** class Timer1
 102:funsape/peripheral/timer1.hpp **** {
 103:funsape/peripheral/timer1.hpp ****     // -------------------------------------------------------------------------
 104:funsape/peripheral/timer1.hpp ****     // New data types ----------------------------------------------------------
 105:funsape/peripheral/timer1.hpp **** public:
 106:funsape/peripheral/timer1.hpp **** 
 107:funsape/peripheral/timer1.hpp ****     //     ////////////////     TIMER1 Clock Source     /////////////////     //
 108:funsape/peripheral/timer1.hpp ****     //!
 109:funsape/peripheral/timer1.hpp ****     //! \brief      Clock source enumeration
 110:funsape/peripheral/timer1.hpp ****     //! \details    Clock prescaler options associated with TIMER1.
 111:funsape/peripheral/timer1.hpp ****     //! \warning    The value associate with the symbolic names may change
 112:funsape/peripheral/timer1.hpp ****     //!                 between builds and might not reflect the register/bits
 113:funsape/peripheral/timer1.hpp ****     //!                 real values. In order to ensure compatibility between
 114:funsape/peripheral/timer1.hpp ****     //!                 builds, always refer to the SYMBOLIC NAME, instead of
 115:funsape/peripheral/timer1.hpp ****     //!                 the VALUE.
 116:funsape/peripheral/timer1.hpp ****     //!
 117:funsape/peripheral/timer1.hpp ****     enum class ClockSource : uint8_t {
 118:funsape/peripheral/timer1.hpp ****         DISABLED                    = 0,    //!< Disables clock, timer is off
 119:funsape/peripheral/timer1.hpp ****         PRESCALER_1                 = 1,    //!< Disables prescaler, timer clock frequency will be 
 120:funsape/peripheral/timer1.hpp ****         PRESCALER_8                 = 2,    //!< Timer clock frequency will be CPU clock divided by
 121:funsape/peripheral/timer1.hpp ****         PRESCALER_64                = 3,    //!< Timer clock frequency will be CPU clock divided by
 122:funsape/peripheral/timer1.hpp ****         PRESCALER_256               = 4,    //!< Timer clock frequency will be CPU clock divided by
 123:funsape/peripheral/timer1.hpp ****         PRESCALER_1024              = 5,    //!< Timer clock frequency will be CPU clock divided by
 124:funsape/peripheral/timer1.hpp ****         T1_FALLING_EDGE             = 6,    //!< Timer clock will be based on the falling edge of a
 125:funsape/peripheral/timer1.hpp ****         T1_RISING_EDGE              = 7     //!< Timer clock will be based on the rising edge of a 
 126:funsape/peripheral/timer1.hpp ****     };
 127:funsape/peripheral/timer1.hpp **** 
 128:funsape/peripheral/timer1.hpp ****     //     ////////////////////     TIMER1 Mode     /////////////////////     //
 129:funsape/peripheral/timer1.hpp ****     //!
 130:funsape/peripheral/timer1.hpp ****     //! \brief      Operation Mode enumeration
 131:funsape/peripheral/timer1.hpp ****     //! \details    Operation Mode options associated with TIMER1.
 132:funsape/peripheral/timer1.hpp ****     //! \warning    The value associate with the symbolic names may change
 133:funsape/peripheral/timer1.hpp ****     //!                 between builds and might not reflect the register/bits
 134:funsape/peripheral/timer1.hpp ****     //!                 real values. In order to ensure compatibility between
 135:funsape/peripheral/timer1.hpp ****     //!                 builds, always refer to the SYMBOLIC NAME, instead of
 136:funsape/peripheral/timer1.hpp ****     //!                 the VALUE.
 137:funsape/peripheral/timer1.hpp ****     //!
 138:funsape/peripheral/timer1.hpp ****     enum class Mode : uint8_t {
 139:funsape/peripheral/timer1.hpp ****         NORMAL                          = 0,    //!< Normal mode (direction = UP / TOP = 0x00FF / U
 140:funsape/peripheral/timer1.hpp ****         PWM_PHASE_CORRECTED_8_BITS      = 1,    //!< PWM mode with phase correction (direction = DO
 141:funsape/peripheral/timer1.hpp ****         PWM_PHASE_CORRECTED_9_BITS      = 2,    //!< PWM mode with phase correction (direction = DO
 142:funsape/peripheral/timer1.hpp ****         PWM_PHASE_CORRECTED_10_BITS     = 3,    //!< PWM mode with phase correction (direction = DO
 143:funsape/peripheral/timer1.hpp ****         CTC_OCRA                        = 4,    //!< CTC mode (direction = UP / TOP = OCR1A / UPDAT
 144:funsape/peripheral/timer1.hpp ****         PWM_FAST_8_BITS                 = 5,    //!< PWM mode fast (direction = UP / TOP = 0x00FF /
 145:funsape/peripheral/timer1.hpp ****         PWM_FAST_9_BITS                 = 6,    //!< PWM mode fast (direction = UP / TOP = 0x01FF /
GAS LISTING C:\Users\kenne\AppData\Local\Temp\ccYle9OK.s 			page 29


 146:funsape/peripheral/timer1.hpp ****         PWM_FAST_10_BITS                = 7,    //!< PWM mode fast (direction = UP / TOP = 0x03FF /
 147:funsape/peripheral/timer1.hpp ****         PWM_PHASE_FREQ_CORRECTED_ICR    = 8,    //!< PWM mode with phase and frequency correction (
 148:funsape/peripheral/timer1.hpp ****         PWM_PHASE_FREQ_CORRECTED_OCRA   = 9,    //!< PWM mode with phase and frequency correction (
 149:funsape/peripheral/timer1.hpp ****         PWM_PHASE_CORRECTED_ICR         = 10,   //!< PWM mode with phase correction (direction = DO
 150:funsape/peripheral/timer1.hpp ****         PWM_PHASE_CORRECTED_OCRA        = 11,   //!< PWM mode with phase correction (direction = DO
 151:funsape/peripheral/timer1.hpp ****         CTC_ICR                         = 12,    //!< CTC mode (direction = UP / TOP = ICR1A / UPDA
 152:funsape/peripheral/timer1.hpp ****         // RESERVED                     = 13,
 153:funsape/peripheral/timer1.hpp ****         PWM_FAST_ICR                    = 14,   //!< PWM mode fast (direction = UP / TOP = ICR1 / U
 154:funsape/peripheral/timer1.hpp ****         PWM_FAST_OCRA                   = 15    //!< PWM mode fast (direction = UP / TOP = OCR1A / 
 155:funsape/peripheral/timer1.hpp ****     };
 156:funsape/peripheral/timer1.hpp **** 
 157:funsape/peripheral/timer1.hpp ****     //     /////////////////     TIMER1 Output Mode    //////////////////     //
 158:funsape/peripheral/timer1.hpp ****     //!
 159:funsape/peripheral/timer1.hpp ****     //! \brief      Output Mode enumeration
 160:funsape/peripheral/timer1.hpp ****     //! \details    Output Mode options associated with TIMER1.
 161:funsape/peripheral/timer1.hpp ****     //! \warning    The value associate with the symbolic names may change
 162:funsape/peripheral/timer1.hpp ****     //!                 between builds and might not reflect the register/bits
 163:funsape/peripheral/timer1.hpp ****     //!                 real values. In order to ensure compatibility between
 164:funsape/peripheral/timer1.hpp ****     //!                 builds, always refer to the SYMBOLIC NAME, instead of
 165:funsape/peripheral/timer1.hpp ****     //!                 the VALUE.
 166:funsape/peripheral/timer1.hpp ****     //!
 167:funsape/peripheral/timer1.hpp ****     enum class OutputMode : uint8_t {
 168:funsape/peripheral/timer1.hpp ****         NORMAL                          = 0,    //!< OC1x disabled. Normal port operation
 169:funsape/peripheral/timer1.hpp ****         TOGGLE_ON_COMPARE               = 1,    //!< OC1x will toggle on OCR1x compare match
 170:funsape/peripheral/timer1.hpp ****         CLEAR_ON_COMPARE                = 2,    //!< OC1x will clear on OCR1x compare match
 171:funsape/peripheral/timer1.hpp ****         SET_ON_COMPARE                  = 3,    //!< OC1x will set on OCR1x compare match
 172:funsape/peripheral/timer1.hpp ****         NON_INVERTING_MODE              = 2,    //!< OC1x will produce a non-inverted PWM signal
 173:funsape/peripheral/timer1.hpp ****         INVERTING_MODE                  = 3,    //!< OC1x will produce a inverted PWM signal
 174:funsape/peripheral/timer1.hpp ****     };
 175:funsape/peripheral/timer1.hpp **** 
 176:funsape/peripheral/timer1.hpp ****     // -------------------------------------------------------------------------
 177:funsape/peripheral/timer1.hpp ****     // Constructors ------------------------------------------------------------
 178:funsape/peripheral/timer1.hpp **** public:
 179:funsape/peripheral/timer1.hpp **** 
 180:funsape/peripheral/timer1.hpp ****     //!
 181:funsape/peripheral/timer1.hpp ****     //! \brief      Timer1 class constructor
 182:funsape/peripheral/timer1.hpp ****     //! \details    Creates an Timer1 object
 183:funsape/peripheral/timer1.hpp ****     //!
 184:funsape/peripheral/timer1.hpp ****     Timer1(
 185:funsape/peripheral/timer1.hpp ****             void
 186:funsape/peripheral/timer1.hpp ****     );
 187:funsape/peripheral/timer1.hpp **** 
 188:funsape/peripheral/timer1.hpp ****     //!
 189:funsape/peripheral/timer1.hpp ****     //! \brief      Timer1 class destructor
 190:funsape/peripheral/timer1.hpp ****     //! \details    Destroys an Timer1 object
 191:funsape/peripheral/timer1.hpp ****     //!
 192:funsape/peripheral/timer1.hpp ****     ~Timer1(
 193:funsape/peripheral/timer1.hpp ****             void
 194:funsape/peripheral/timer1.hpp ****     );
 195:funsape/peripheral/timer1.hpp **** 
 196:funsape/peripheral/timer1.hpp ****     // -------------------------------------------------------------------------
 197:funsape/peripheral/timer1.hpp ****     // Methods -----------------------------------------------------------------
 198:funsape/peripheral/timer1.hpp **** public:
 199:funsape/peripheral/timer1.hpp ****     //     ///////////////////     INITIALIZATION    ////////////////////     //
 200:funsape/peripheral/timer1.hpp **** 
 201:funsape/peripheral/timer1.hpp ****     //!
 202:funsape/peripheral/timer1.hpp ****     //! \brief      Initializes the TIMER1 module
GAS LISTING C:\Users\kenne\AppData\Local\Temp\ccYle9OK.s 			page 30


 203:funsape/peripheral/timer1.hpp ****     //! \details    Initializes the TIMER1 module.
 204:funsape/peripheral/timer1.hpp ****     //! \param      mode_p              Operation mode
 205:funsape/peripheral/timer1.hpp ****     //! \param      clockSource_p       Clock source and prescaler
 206:funsape/peripheral/timer1.hpp ****     //! \return     bool_t              True on success / False on failure
 207:funsape/peripheral/timer1.hpp ****     //!
 208:funsape/peripheral/timer1.hpp ****     bool_t init(
 209:funsape/peripheral/timer1.hpp ****             const Mode mode_p,
 210:funsape/peripheral/timer1.hpp ****             const ClockSource clockSource_p
 211:funsape/peripheral/timer1.hpp ****     );
 212:funsape/peripheral/timer1.hpp **** 
 213:funsape/peripheral/timer1.hpp ****     //!
 214:funsape/peripheral/timer1.hpp ****     //! \brief      Configures the clock source and the clock prescaler
 215:funsape/peripheral/timer1.hpp ****     //! \details    Configures the clock source and the clock prescaler.
 216:funsape/peripheral/timer1.hpp ****     //! \param      clockSource_p       Clock source and prescaler
 217:funsape/peripheral/timer1.hpp ****     //! \return     bool_t              True on success / False on failure
 218:funsape/peripheral/timer1.hpp ****     //!
 219:funsape/peripheral/timer1.hpp ****     bool_t setClockSource(
 220:funsape/peripheral/timer1.hpp ****             const ClockSource clockSource_p
 221:funsape/peripheral/timer1.hpp ****     );
 222:funsape/peripheral/timer1.hpp **** 
 223:funsape/peripheral/timer1.hpp ****     //!
 224:funsape/peripheral/timer1.hpp ****     //! \brief      Configures the input capture mode
 225:funsape/peripheral/timer1.hpp ****     //! \details    Configures the input capture mode.
 226:funsape/peripheral/timer1.hpp ****     //! \param      edgeSelection_p     edge of the input capture signal
 227:funsape/peripheral/timer1.hpp ****     //! \param      noiseCanceler_p     state of the noise canceler circuit
 228:funsape/peripheral/timer1.hpp ****     //! \return     bool_t              True on success / False on failure
 229:funsape/peripheral/timer1.hpp ****     //!
 230:funsape/peripheral/timer1.hpp ****     bool_t setInputCaptureMode(
 231:funsape/peripheral/timer1.hpp ****             const Edge edgeSelection_p,
 232:funsape/peripheral/timer1.hpp ****             cbool_t noiseCanceler_p
 233:funsape/peripheral/timer1.hpp ****     );
 234:funsape/peripheral/timer1.hpp **** 
 235:funsape/peripheral/timer1.hpp ****     //!
 236:funsape/peripheral/timer1.hpp ****     //! \brief      Configures the operation mode
 237:funsape/peripheral/timer1.hpp ****     //! \details    Configures the operation mode.
 238:funsape/peripheral/timer1.hpp ****     //! \param      mode_p              Operation mode
 239:funsape/peripheral/timer1.hpp ****     //! \return     bool_t              True on success / False on failure
 240:funsape/peripheral/timer1.hpp ****     //!
 241:funsape/peripheral/timer1.hpp ****     bool_t setMode(
 242:funsape/peripheral/timer1.hpp ****             const Mode mode_p
 243:funsape/peripheral/timer1.hpp ****     );
 244:funsape/peripheral/timer1.hpp **** 
 245:funsape/peripheral/timer1.hpp ****     //!
 246:funsape/peripheral/timer1.hpp ****     //! \brief      Configures the desired behavior of OCR1x pins during compare match
 247:funsape/peripheral/timer1.hpp ****     //! \details    Configures the desired behavior of OCR1x pins during compare match.
 248:funsape/peripheral/timer1.hpp ****     //! \param      compA_p             Behavior of OCR1A pin during a compare A match
 249:funsape/peripheral/timer1.hpp ****     //! \param      compB_p             Behavior of OCR1B pin during a compare B match
 250:funsape/peripheral/timer1.hpp ****     //! \return     bool_t              True on success / False on failure
 251:funsape/peripheral/timer1.hpp ****     //!
 252:funsape/peripheral/timer1.hpp ****     bool_t setOutputMode(
 253:funsape/peripheral/timer1.hpp ****             const OutputMode compA_p,
 254:funsape/peripheral/timer1.hpp ****             const OutputMode compB_p
 255:funsape/peripheral/timer1.hpp ****     );
 256:funsape/peripheral/timer1.hpp **** 
 257:funsape/peripheral/timer1.hpp ****     //     /////////////////     CONTROL AND STATUS    //////////////////     //
 258:funsape/peripheral/timer1.hpp **** 
 259:funsape/peripheral/timer1.hpp ****     //!
GAS LISTING C:\Users\kenne\AppData\Local\Temp\ccYle9OK.s 			page 31


 260:funsape/peripheral/timer1.hpp ****     //! \brief      Returns the last error
 261:funsape/peripheral/timer1.hpp ****     //! \details    Returns the last error.
 262:funsape/peripheral/timer1.hpp ****     //! \return     Error               Error status of the last operation
 263:funsape/peripheral/timer1.hpp ****     //!
 264:funsape/peripheral/timer1.hpp ****     Error getLastError(
 265:funsape/peripheral/timer1.hpp ****             void
 266:funsape/peripheral/timer1.hpp ****     );
 267:funsape/peripheral/timer1.hpp **** 
 268:funsape/peripheral/timer1.hpp ****     //     /////////////////////     COMPARE A     //////////////////////     //
 269:funsape/peripheral/timer1.hpp **** 
 270:funsape/peripheral/timer1.hpp ****     //!
 271:funsape/peripheral/timer1.hpp ****     //! \brief      Activates Compare A Match interrupt
 272:funsape/peripheral/timer1.hpp ****     //! \details    Activates Compare A Match interrupt.
 273:funsape/peripheral/timer1.hpp ****     //!
 274:funsape/peripheral/timer1.hpp ****     void inlined activateCompareAInterrupt(
 275:funsape/peripheral/timer1.hpp ****             void
 276:funsape/peripheral/timer1.hpp ****     );
 277:funsape/peripheral/timer1.hpp **** 
 278:funsape/peripheral/timer1.hpp ****     //!
 279:funsape/peripheral/timer1.hpp ****     //! \brief      Clears Compare A Match interrupt flag
 280:funsape/peripheral/timer1.hpp ****     //! \details    Clears Compare A Match interrupt flag.
 281:funsape/peripheral/timer1.hpp ****     //!
 282:funsape/peripheral/timer1.hpp ****     void inlined clearCompareAInterruptRequest(
 283:funsape/peripheral/timer1.hpp ****             void
 284:funsape/peripheral/timer1.hpp ****     );
 285:funsape/peripheral/timer1.hpp **** 
 286:funsape/peripheral/timer1.hpp ****     //!
 287:funsape/peripheral/timer1.hpp ****     //! \brief      Deactivates Compare A Match interrupt
 288:funsape/peripheral/timer1.hpp ****     //! \details    Deactivates Compare A Match interrupt.
 289:funsape/peripheral/timer1.hpp ****     //!
 290:funsape/peripheral/timer1.hpp ****     void inlined deactivateCompareAInterrupt(
 291:funsape/peripheral/timer1.hpp ****             void
 292:funsape/peripheral/timer1.hpp ****     );
 293:funsape/peripheral/timer1.hpp **** 
 294:funsape/peripheral/timer1.hpp ****     //!
 295:funsape/peripheral/timer1.hpp ****     //! \brief      Forces a Compare A Match condition on output pin
 296:funsape/peripheral/timer1.hpp ****     //! \details    Forces a Compare A Match condition on output pin.
 297:funsape/peripheral/timer1.hpp ****     //!
 298:funsape/peripheral/timer1.hpp ****     void inlined forceCompareA(
 299:funsape/peripheral/timer1.hpp ****             void
 300:funsape/peripheral/timer1.hpp ****     );
 301:funsape/peripheral/timer1.hpp **** 
 302:funsape/peripheral/timer1.hpp ****     //!
 303:funsape/peripheral/timer1.hpp ****     //! \brief      Gets Compare A Match value
 304:funsape/peripheral/timer1.hpp ****     //! \details    Gets Compare A Match value.
 305:funsape/peripheral/timer1.hpp ****     //!
 306:funsape/peripheral/timer1.hpp ****     uint16_t inlined getCompareAValue(
 307:funsape/peripheral/timer1.hpp ****             void
 308:funsape/peripheral/timer1.hpp ****     );
 309:funsape/peripheral/timer1.hpp **** 
 310:funsape/peripheral/timer1.hpp ****     //!
 311:funsape/peripheral/timer1.hpp ****     //! \brief      Sets Compare A Match value
 312:funsape/peripheral/timer1.hpp ****     //! \details    Sets Compare A Match value.
 313:funsape/peripheral/timer1.hpp ****     //!
 314:funsape/peripheral/timer1.hpp ****     void inlined setCompareAValue(
 315:funsape/peripheral/timer1.hpp ****             cuint16_t value_p
 316:funsape/peripheral/timer1.hpp ****     );
GAS LISTING C:\Users\kenne\AppData\Local\Temp\ccYle9OK.s 			page 32


 317:funsape/peripheral/timer1.hpp **** 
 318:funsape/peripheral/timer1.hpp ****     //     /////////////////////     COMPARE B     //////////////////////     //
 319:funsape/peripheral/timer1.hpp **** 
 320:funsape/peripheral/timer1.hpp ****     //!
 321:funsape/peripheral/timer1.hpp ****     //! \brief      Activates Compare B Match interrupt
 322:funsape/peripheral/timer1.hpp ****     //! \details    Activates Compare B Match interrupt.
 323:funsape/peripheral/timer1.hpp ****     //!
 324:funsape/peripheral/timer1.hpp ****     void inlined activateCompareBInterrupt(
 325:funsape/peripheral/timer1.hpp ****             void
 326:funsape/peripheral/timer1.hpp ****     );
 327:funsape/peripheral/timer1.hpp **** 
 328:funsape/peripheral/timer1.hpp ****     //!
 329:funsape/peripheral/timer1.hpp ****     //! \brief      Clears Compare B Match interrupt flag
 330:funsape/peripheral/timer1.hpp ****     //! \details    Clears Compare B Match interrupt flag.
 331:funsape/peripheral/timer1.hpp ****     //!
 332:funsape/peripheral/timer1.hpp ****     void inlined clearCompareBInterruptRequest(
 333:funsape/peripheral/timer1.hpp ****             void
 334:funsape/peripheral/timer1.hpp ****     );
 335:funsape/peripheral/timer1.hpp **** 
 336:funsape/peripheral/timer1.hpp ****     //!
 337:funsape/peripheral/timer1.hpp ****     //! \brief      Deactivates Compare B Match interrupt
 338:funsape/peripheral/timer1.hpp ****     //! \details    Deactivates Compare B Match interrupt.
 339:funsape/peripheral/timer1.hpp ****     //!
 340:funsape/peripheral/timer1.hpp ****     void inlined deactivateCompareBInterrupt(
 341:funsape/peripheral/timer1.hpp ****             void
 342:funsape/peripheral/timer1.hpp ****     );
 343:funsape/peripheral/timer1.hpp **** 
 344:funsape/peripheral/timer1.hpp ****     //!
 345:funsape/peripheral/timer1.hpp ****     //! \brief      Forces a Compare B Match condition on output pin
 346:funsape/peripheral/timer1.hpp ****     //! \details    Forces a Compare B Match condition on output pin.
 347:funsape/peripheral/timer1.hpp ****     //!
 348:funsape/peripheral/timer1.hpp ****     void inlined forceCompareB(
 349:funsape/peripheral/timer1.hpp ****             void
 350:funsape/peripheral/timer1.hpp ****     );
 351:funsape/peripheral/timer1.hpp **** 
 352:funsape/peripheral/timer1.hpp ****     //!
 353:funsape/peripheral/timer1.hpp ****     //! \brief      Gets Compare B Match value
 354:funsape/peripheral/timer1.hpp ****     //! \details    Gets Compare B Match value.
 355:funsape/peripheral/timer1.hpp ****     //!
 356:funsape/peripheral/timer1.hpp ****     uint16_t inlined getCompareBValue(
 357:funsape/peripheral/timer1.hpp ****             void
 358:funsape/peripheral/timer1.hpp ****     );
 359:funsape/peripheral/timer1.hpp **** 
 360:funsape/peripheral/timer1.hpp ****     //!
 361:funsape/peripheral/timer1.hpp ****     //! \brief      Sets Compare B Match value
 362:funsape/peripheral/timer1.hpp ****     //! \details    Sets Compare B Match value.
 363:funsape/peripheral/timer1.hpp ****     //!
 364:funsape/peripheral/timer1.hpp ****     void inlined setCompareBValue(
 365:funsape/peripheral/timer1.hpp ****             cuint16_t value_p
 366:funsape/peripheral/timer1.hpp ****     );
 367:funsape/peripheral/timer1.hpp **** 
 368:funsape/peripheral/timer1.hpp ****     //     ///////////////////     INPUT CAPTURE     ////////////////////     //
 369:funsape/peripheral/timer1.hpp **** 
 370:funsape/peripheral/timer1.hpp ****     //!
 371:funsape/peripheral/timer1.hpp ****     //! \brief      Activates Input Capture interrupt
 372:funsape/peripheral/timer1.hpp ****     //! \details    Activates Input Capture interrupt.
 373:funsape/peripheral/timer1.hpp ****     //!
GAS LISTING C:\Users\kenne\AppData\Local\Temp\ccYle9OK.s 			page 33


 374:funsape/peripheral/timer1.hpp ****     void inlined activateInputCaptureInterrupt(
 375:funsape/peripheral/timer1.hpp ****             void
 376:funsape/peripheral/timer1.hpp ****     );
 377:funsape/peripheral/timer1.hpp **** 
 378:funsape/peripheral/timer1.hpp ****     //!
 379:funsape/peripheral/timer1.hpp ****     //! \brief      Clears Input Capture interrupt flag
 380:funsape/peripheral/timer1.hpp ****     //! \details    Clears Input Capture interrupt flag.
 381:funsape/peripheral/timer1.hpp ****     //!
 382:funsape/peripheral/timer1.hpp ****     void inlined clearInputCaptureInterruptRequest(
 383:funsape/peripheral/timer1.hpp ****             void
 384:funsape/peripheral/timer1.hpp ****     );
 385:funsape/peripheral/timer1.hpp **** 
 386:funsape/peripheral/timer1.hpp ****     //!
 387:funsape/peripheral/timer1.hpp ****     //! \brief      Deactivates Input Capture interrupt
 388:funsape/peripheral/timer1.hpp ****     //! \details    Deactivates Input Capture interrupt.
 389:funsape/peripheral/timer1.hpp ****     //!
 390:funsape/peripheral/timer1.hpp ****     void inlined deactivateInputCaptureInterrupt(
 391:funsape/peripheral/timer1.hpp ****             void
 392:funsape/peripheral/timer1.hpp ****     );
 393:funsape/peripheral/timer1.hpp **** 
 394:funsape/peripheral/timer1.hpp ****     //!
 395:funsape/peripheral/timer1.hpp ****     //! \brief      Gets Input Capture value
 396:funsape/peripheral/timer1.hpp ****     //! \details    Gets Input Capture value.
 397:funsape/peripheral/timer1.hpp ****     //!
 398:funsape/peripheral/timer1.hpp ****     uint16_t inlined getInputCaptureValue(
 399:funsape/peripheral/timer1.hpp ****             void
 400:funsape/peripheral/timer1.hpp ****     );
 401:funsape/peripheral/timer1.hpp **** 
 402:funsape/peripheral/timer1.hpp ****     //!
 403:funsape/peripheral/timer1.hpp ****     //! \brief      Sets Input Capture value
 404:funsape/peripheral/timer1.hpp ****     //! \details    Sets Input Capture value.
 405:funsape/peripheral/timer1.hpp ****     //!
 406:funsape/peripheral/timer1.hpp ****     void inlined setInputCaptureValue(
 407:funsape/peripheral/timer1.hpp ****             cuint16_t value_p
 408:funsape/peripheral/timer1.hpp ****     );
 409:funsape/peripheral/timer1.hpp **** 
 410:funsape/peripheral/timer1.hpp ****     //     //////////////////////     OVERFLOW    ///////////////////////     //
 411:funsape/peripheral/timer1.hpp **** 
 412:funsape/peripheral/timer1.hpp ****     //!
 413:funsape/peripheral/timer1.hpp ****     //! \brief      Activates Overflow interrupt
 414:funsape/peripheral/timer1.hpp ****     //! \details    Activates Overflow interrupt.
 415:funsape/peripheral/timer1.hpp ****     //!
 416:funsape/peripheral/timer1.hpp ****     void inlined activateOverflowInterrupt(
 417:funsape/peripheral/timer1.hpp ****             void
 418:funsape/peripheral/timer1.hpp ****     );
 419:funsape/peripheral/timer1.hpp **** 
 420:funsape/peripheral/timer1.hpp ****     //!
 421:funsape/peripheral/timer1.hpp ****     //! \brief      Clears Compare A Match interrupt flag
 422:funsape/peripheral/timer1.hpp ****     //! \details    Clears Compare A Match interrupt flag.
 423:funsape/peripheral/timer1.hpp ****     //!
 424:funsape/peripheral/timer1.hpp ****     void inlined clearOverflowInterruptRequest(
 425:funsape/peripheral/timer1.hpp ****             void
 426:funsape/peripheral/timer1.hpp ****     );
 427:funsape/peripheral/timer1.hpp **** 
 428:funsape/peripheral/timer1.hpp ****     //!
 429:funsape/peripheral/timer1.hpp ****     //! \brief      Deactivates Overflow Match interrupt
 430:funsape/peripheral/timer1.hpp ****     //! \details    Deactivates Overflow Match interrupt.
GAS LISTING C:\Users\kenne\AppData\Local\Temp\ccYle9OK.s 			page 34


 431:funsape/peripheral/timer1.hpp ****     //!
 432:funsape/peripheral/timer1.hpp ****     void inlined deactivateOverflowInterrupt(
 433:funsape/peripheral/timer1.hpp ****             void
 434:funsape/peripheral/timer1.hpp ****     );
 435:funsape/peripheral/timer1.hpp **** 
 436:funsape/peripheral/timer1.hpp ****     //!
 437:funsape/peripheral/timer1.hpp ****     //! \brief      Gets counter value
 438:funsape/peripheral/timer1.hpp ****     //! \details    Gets counter value.
 439:funsape/peripheral/timer1.hpp ****     //!
 440:funsape/peripheral/timer1.hpp ****     uint16_t inlined getCounterValue(
 441:funsape/peripheral/timer1.hpp ****             void
 442:funsape/peripheral/timer1.hpp ****     );
 443:funsape/peripheral/timer1.hpp **** 
 444:funsape/peripheral/timer1.hpp ****     //!
 445:funsape/peripheral/timer1.hpp ****     //! \brief      Sets counter value
 446:funsape/peripheral/timer1.hpp ****     //! \details    Sets counter value.
 447:funsape/peripheral/timer1.hpp ****     //!
 448:funsape/peripheral/timer1.hpp ****     void inlined setCounterValue(
 449:funsape/peripheral/timer1.hpp ****             cuint16_t value_p
 450:funsape/peripheral/timer1.hpp ****     );
 451:funsape/peripheral/timer1.hpp **** 
 452:funsape/peripheral/timer1.hpp ****     // -------------------------------------------------------------------------
 453:funsape/peripheral/timer1.hpp ****     // Properties --------------------------------------------------------------
 454:funsape/peripheral/timer1.hpp **** private:
 455:funsape/peripheral/timer1.hpp ****     bool_t          _isInitialized      : 1;
 456:funsape/peripheral/timer1.hpp ****     ClockSource     _clockSource;
 457:funsape/peripheral/timer1.hpp ****     Mode            _mode;
 458:funsape/peripheral/timer1.hpp ****     Error           _lastError;
 459:funsape/peripheral/timer1.hpp **** }; // class Timer1
 460:funsape/peripheral/timer1.hpp **** 
 461:funsape/peripheral/timer1.hpp **** // =============================================================================
 462:funsape/peripheral/timer1.hpp **** // Inlined class functions
 463:funsape/peripheral/timer1.hpp **** // =============================================================================
 464:funsape/peripheral/timer1.hpp **** 
 465:funsape/peripheral/timer1.hpp **** //     ///////////////////////     COMPARE A     ////////////////////////     //
 466:funsape/peripheral/timer1.hpp **** void inlined Timer1::activateCompareAInterrupt(void)
 467:funsape/peripheral/timer1.hpp **** {
 468:funsape/peripheral/timer1.hpp ****     setBit(TIMSK1, OCIE1A);
 469:funsape/peripheral/timer1.hpp ****     return;
 470:funsape/peripheral/timer1.hpp **** }
 471:funsape/peripheral/timer1.hpp **** 
 472:funsape/peripheral/timer1.hpp **** void inlined Timer1::clearCompareAInterruptRequest(void)
 473:funsape/peripheral/timer1.hpp **** {
 474:funsape/peripheral/timer1.hpp ****     setBit(TIFR1, OCF1A);
 475:funsape/peripheral/timer1.hpp ****     return;
 476:funsape/peripheral/timer1.hpp **** }
 477:funsape/peripheral/timer1.hpp **** 
 478:funsape/peripheral/timer1.hpp **** void inlined Timer1::deactivateCompareAInterrupt(void)
 479:funsape/peripheral/timer1.hpp **** {
 480:funsape/peripheral/timer1.hpp ****     clrBit(TIMSK1, OCIE1A);
 481:funsape/peripheral/timer1.hpp ****     return;
 482:funsape/peripheral/timer1.hpp **** }
 483:funsape/peripheral/timer1.hpp **** 
 484:funsape/peripheral/timer1.hpp **** void inlined Timer1::forceCompareA(void)
 485:funsape/peripheral/timer1.hpp **** {
 486:funsape/peripheral/timer1.hpp ****     setBit(TCCR1C, FOC1A);
 487:funsape/peripheral/timer1.hpp ****     return;
GAS LISTING C:\Users\kenne\AppData\Local\Temp\ccYle9OK.s 			page 35


 488:funsape/peripheral/timer1.hpp **** }
 489:funsape/peripheral/timer1.hpp **** 
 490:funsape/peripheral/timer1.hpp **** uint16_t inlined Timer1::getCompareAValue(void)
 491:funsape/peripheral/timer1.hpp **** {
 492:funsape/peripheral/timer1.hpp ****     uint16_t aux16 = 0;
 493:funsape/peripheral/timer1.hpp **** 
 494:funsape/peripheral/timer1.hpp ****     ATOMIC_BLOCK(ATOMIC_RESTORESTATE) {
 495:funsape/peripheral/timer1.hpp ****         aux16 = OCR1A;
 496:funsape/peripheral/timer1.hpp ****     }
 497:funsape/peripheral/timer1.hpp ****     return aux16;
 498:funsape/peripheral/timer1.hpp **** }
 499:funsape/peripheral/timer1.hpp **** 
 500:funsape/peripheral/timer1.hpp **** void inlined Timer1::setCompareAValue(cuint16_t value_p)
 501:funsape/peripheral/timer1.hpp **** {
 502:funsape/peripheral/timer1.hpp ****     ATOMIC_BLOCK(ATOMIC_RESTORESTATE) {
 503:funsape/peripheral/timer1.hpp ****         OCR1A = value_p;
 504:funsape/peripheral/timer1.hpp ****     }
 505:funsape/peripheral/timer1.hpp ****     return;
 506:funsape/peripheral/timer1.hpp **** }
 507:funsape/peripheral/timer1.hpp **** 
 508:funsape/peripheral/timer1.hpp **** //     ///////////////////////     COMPARE B     ////////////////////////     //
 509:funsape/peripheral/timer1.hpp **** 
 510:funsape/peripheral/timer1.hpp **** void inlined Timer1::activateCompareBInterrupt(void)
 511:funsape/peripheral/timer1.hpp **** {
 512:funsape/peripheral/timer1.hpp ****     setBit(TIMSK1, OCIE1B);
 513:funsape/peripheral/timer1.hpp ****     return;
 514:funsape/peripheral/timer1.hpp **** }
 515:funsape/peripheral/timer1.hpp **** 
 516:funsape/peripheral/timer1.hpp **** void inlined Timer1::clearCompareBInterruptRequest(void)
 517:funsape/peripheral/timer1.hpp **** {
 518:funsape/peripheral/timer1.hpp ****     setBit(TIFR1, OCF1B);
 519:funsape/peripheral/timer1.hpp ****     return;
 520:funsape/peripheral/timer1.hpp **** }
 521:funsape/peripheral/timer1.hpp **** 
 522:funsape/peripheral/timer1.hpp **** void inlined Timer1::deactivateCompareBInterrupt(void)
 523:funsape/peripheral/timer1.hpp **** {
 524:funsape/peripheral/timer1.hpp ****     clrBit(TIMSK1, OCIE1B);
 525:funsape/peripheral/timer1.hpp ****     return;
 526:funsape/peripheral/timer1.hpp **** }
 527:funsape/peripheral/timer1.hpp **** 
 528:funsape/peripheral/timer1.hpp **** void inlined Timer1::forceCompareB(void)
 529:funsape/peripheral/timer1.hpp **** {
 530:funsape/peripheral/timer1.hpp ****     setBit(TCCR1C, FOC1B);
 531:funsape/peripheral/timer1.hpp ****     return;
 532:funsape/peripheral/timer1.hpp **** }
 533:funsape/peripheral/timer1.hpp **** 
 534:funsape/peripheral/timer1.hpp **** uint16_t inlined Timer1::getCompareBValue(void)
 535:funsape/peripheral/timer1.hpp **** {
 536:funsape/peripheral/timer1.hpp ****     uint16_t aux16 = 0;
 537:funsape/peripheral/timer1.hpp **** 
 538:funsape/peripheral/timer1.hpp ****     ATOMIC_BLOCK(ATOMIC_RESTORESTATE) {
 539:funsape/peripheral/timer1.hpp ****         aux16 = OCR1B;
 540:funsape/peripheral/timer1.hpp ****     }
 541:funsape/peripheral/timer1.hpp ****     return aux16;
 542:funsape/peripheral/timer1.hpp **** }
 543:funsape/peripheral/timer1.hpp **** 
 544:funsape/peripheral/timer1.hpp **** void inlined Timer1::setCompareBValue(cuint16_t value_p)
GAS LISTING C:\Users\kenne\AppData\Local\Temp\ccYle9OK.s 			page 36


 545:funsape/peripheral/timer1.hpp **** {
 546:funsape/peripheral/timer1.hpp ****     ATOMIC_BLOCK(ATOMIC_RESTORESTATE) {
 547:funsape/peripheral/timer1.hpp ****         OCR1B = value_p;
 548:funsape/peripheral/timer1.hpp ****     }
 549:funsape/peripheral/timer1.hpp ****     return;
 550:funsape/peripheral/timer1.hpp **** }
 551:funsape/peripheral/timer1.hpp **** 
 552:funsape/peripheral/timer1.hpp **** //     /////////////////////     INPUT CAPTURE     //////////////////////     //
 553:funsape/peripheral/timer1.hpp **** 
 554:funsape/peripheral/timer1.hpp **** inlined void Timer1::activateInputCaptureInterrupt(void)
 555:funsape/peripheral/timer1.hpp **** {
 556:funsape/peripheral/timer1.hpp ****     setBit(TIMSK1, ICIE1);
 557:funsape/peripheral/timer1.hpp ****     return;
 558:funsape/peripheral/timer1.hpp **** }
 559:funsape/peripheral/timer1.hpp **** 
 560:funsape/peripheral/timer1.hpp **** inlined void Timer1::clearInputCaptureInterruptRequest(void)
 561:funsape/peripheral/timer1.hpp **** {
 562:funsape/peripheral/timer1.hpp ****     setBit(TIFR1, ICF1);
 563:funsape/peripheral/timer1.hpp ****     return;
 564:funsape/peripheral/timer1.hpp **** }
 565:funsape/peripheral/timer1.hpp **** 
 566:funsape/peripheral/timer1.hpp **** inlined void Timer1::deactivateInputCaptureInterrupt(void)
 567:funsape/peripheral/timer1.hpp **** {
 568:funsape/peripheral/timer1.hpp ****     clrBit(TIMSK1, ICIE1);
 569:funsape/peripheral/timer1.hpp ****     return;
 570:funsape/peripheral/timer1.hpp **** }
 571:funsape/peripheral/timer1.hpp **** 
 572:funsape/peripheral/timer1.hpp **** inlined uint16_t Timer1::getInputCaptureValue(void)
 573:funsape/peripheral/timer1.hpp **** {
 574:funsape/peripheral/timer1.hpp ****     uint16_t aux16 = 0;
 575:funsape/peripheral/timer1.hpp **** 
 576:funsape/peripheral/timer1.hpp ****     ATOMIC_BLOCK(ATOMIC_RESTORESTATE) {
 577:funsape/peripheral/timer1.hpp ****         aux16 = ICR1;
 578:funsape/peripheral/timer1.hpp ****     }
 579:funsape/peripheral/timer1.hpp ****     return aux16;
 580:funsape/peripheral/timer1.hpp **** }
 581:funsape/peripheral/timer1.hpp **** 
 582:funsape/peripheral/timer1.hpp **** inlined void Timer1::setInputCaptureValue(cuint16_t value_p)
 384               		.loc 4 582 14 view .LVU64
 583:funsape/peripheral/timer1.hpp **** {
 584:funsape/peripheral/timer1.hpp ****     ATOMIC_BLOCK(ATOMIC_RESTORESTATE) {
 385               		.loc 4 584 5 view .LVU65
 386               	.LBB53:
 387 013a 8FB7      		in r24,__SREG__
 388               	.LVL20:
 389               	.LBB54:
 390               	.LBI54:
 391               		.file 5 "f:\\importante\\faculdade\\mcc\\vscode-avr-win\\toolchains\\avr-gcc\\avr\\include\\util\\
   1:f:\importante\faculdade\mcc\vscode-avr-win\toolchains\avr-gcc\avr\include\util\atomic.h **** /* Copyright (c) 2007 Dean Camera
   2:f:\importante\faculdade\mcc\vscode-avr-win\toolchains\avr-gcc\avr\include\util\atomic.h ****    All rights reserved.
   3:f:\importante\faculdade\mcc\vscode-avr-win\toolchains\avr-gcc\avr\include\util\atomic.h **** 
   4:f:\importante\faculdade\mcc\vscode-avr-win\toolchains\avr-gcc\avr\include\util\atomic.h ****    Redistribution and use in source and binary forms, with or without
   5:f:\importante\faculdade\mcc\vscode-avr-win\toolchains\avr-gcc\avr\include\util\atomic.h ****    modification, are permitted provided that the following conditions are met:
   6:f:\importante\faculdade\mcc\vscode-avr-win\toolchains\avr-gcc\avr\include\util\atomic.h **** 
   7:f:\importante\faculdade\mcc\vscode-avr-win\toolchains\avr-gcc\avr\include\util\atomic.h ****    * Redistributions of source code must retain the above copyright
   8:f:\importante\faculdade\mcc\vscode-avr-win\toolchains\avr-gcc\avr\include\util\atomic.h ****      notice, this list of conditions and the following disclaimer.
   9:f:\importante\faculdade\mcc\vscode-avr-win\toolchains\avr-gcc\avr\include\util\atomic.h **** 
GAS LISTING C:\Users\kenne\AppData\Local\Temp\ccYle9OK.s 			page 37


  10:f:\importante\faculdade\mcc\vscode-avr-win\toolchains\avr-gcc\avr\include\util\atomic.h ****    * Redistributions in binary form must reproduce the above copyright
  11:f:\importante\faculdade\mcc\vscode-avr-win\toolchains\avr-gcc\avr\include\util\atomic.h ****      notice, this list of conditions and the following disclaimer in
  12:f:\importante\faculdade\mcc\vscode-avr-win\toolchains\avr-gcc\avr\include\util\atomic.h ****      the documentation and/or other materials provided with the
  13:f:\importante\faculdade\mcc\vscode-avr-win\toolchains\avr-gcc\avr\include\util\atomic.h ****      distribution.
  14:f:\importante\faculdade\mcc\vscode-avr-win\toolchains\avr-gcc\avr\include\util\atomic.h **** 
  15:f:\importante\faculdade\mcc\vscode-avr-win\toolchains\avr-gcc\avr\include\util\atomic.h ****    * Neither the name of the copyright holders nor the names of
  16:f:\importante\faculdade\mcc\vscode-avr-win\toolchains\avr-gcc\avr\include\util\atomic.h ****      contributors may be used to endorse or promote products derived
  17:f:\importante\faculdade\mcc\vscode-avr-win\toolchains\avr-gcc\avr\include\util\atomic.h ****      from this software without specific prior written permission.
  18:f:\importante\faculdade\mcc\vscode-avr-win\toolchains\avr-gcc\avr\include\util\atomic.h **** 
  19:f:\importante\faculdade\mcc\vscode-avr-win\toolchains\avr-gcc\avr\include\util\atomic.h ****   THIS SOFTWARE IS PROVIDED BY THE COPYRIGHT HOLDERS AND CONTRIBUTORS "AS IS"
  20:f:\importante\faculdade\mcc\vscode-avr-win\toolchains\avr-gcc\avr\include\util\atomic.h ****   AND ANY EXPRESS OR IMPLIED WARRANTIES, INCLUDING, BUT NOT LIMITED TO, THE
  21:f:\importante\faculdade\mcc\vscode-avr-win\toolchains\avr-gcc\avr\include\util\atomic.h ****   IMPLIED WARRANTIES OF MERCHANTABILITY AND FITNESS FOR A PARTICULAR PURPOSE
  22:f:\importante\faculdade\mcc\vscode-avr-win\toolchains\avr-gcc\avr\include\util\atomic.h ****   ARE DISCLAIMED. IN NO EVENT SHALL THE COPYRIGHT OWNER OR CONTRIBUTORS BE
  23:f:\importante\faculdade\mcc\vscode-avr-win\toolchains\avr-gcc\avr\include\util\atomic.h ****   LIABLE FOR ANY DIRECT, INDIRECT, INCIDENTAL, SPECIAL, EXEMPLARY, OR
  24:f:\importante\faculdade\mcc\vscode-avr-win\toolchains\avr-gcc\avr\include\util\atomic.h ****   CONSEQUENTIAL DAMAGES (INCLUDING, BUT NOT LIMITED TO, PROCUREMENT OF
  25:f:\importante\faculdade\mcc\vscode-avr-win\toolchains\avr-gcc\avr\include\util\atomic.h ****   SUBSTITUTE GOODS OR SERVICES; LOSS OF USE, DATA, OR PROFITS; OR BUSINESS
  26:f:\importante\faculdade\mcc\vscode-avr-win\toolchains\avr-gcc\avr\include\util\atomic.h ****   INTERRUPTION) HOWEVER CAUSED AND ON ANY THEORY OF LIABILITY, WHETHER IN
  27:f:\importante\faculdade\mcc\vscode-avr-win\toolchains\avr-gcc\avr\include\util\atomic.h ****   CONTRACT, STRICT LIABILITY, OR TORT (INCLUDING NEGLIGENCE OR OTHERWISE)
  28:f:\importante\faculdade\mcc\vscode-avr-win\toolchains\avr-gcc\avr\include\util\atomic.h ****   ARISING IN ANY WAY OUT OF THE USE OF THIS SOFTWARE, EVEN IF ADVISED OF THE
  29:f:\importante\faculdade\mcc\vscode-avr-win\toolchains\avr-gcc\avr\include\util\atomic.h ****   POSSIBILITY OF SUCH DAMAGE.
  30:f:\importante\faculdade\mcc\vscode-avr-win\toolchains\avr-gcc\avr\include\util\atomic.h **** */
  31:f:\importante\faculdade\mcc\vscode-avr-win\toolchains\avr-gcc\avr\include\util\atomic.h **** 
  32:f:\importante\faculdade\mcc\vscode-avr-win\toolchains\avr-gcc\avr\include\util\atomic.h **** /* $Id$ */
  33:f:\importante\faculdade\mcc\vscode-avr-win\toolchains\avr-gcc\avr\include\util\atomic.h **** 
  34:f:\importante\faculdade\mcc\vscode-avr-win\toolchains\avr-gcc\avr\include\util\atomic.h **** #ifndef _UTIL_ATOMIC_H_
  35:f:\importante\faculdade\mcc\vscode-avr-win\toolchains\avr-gcc\avr\include\util\atomic.h **** #define _UTIL_ATOMIC_H_ 1
  36:f:\importante\faculdade\mcc\vscode-avr-win\toolchains\avr-gcc\avr\include\util\atomic.h **** 
  37:f:\importante\faculdade\mcc\vscode-avr-win\toolchains\avr-gcc\avr\include\util\atomic.h **** #include <avr/io.h>
  38:f:\importante\faculdade\mcc\vscode-avr-win\toolchains\avr-gcc\avr\include\util\atomic.h **** #include <avr/interrupt.h>
  39:f:\importante\faculdade\mcc\vscode-avr-win\toolchains\avr-gcc\avr\include\util\atomic.h **** 
  40:f:\importante\faculdade\mcc\vscode-avr-win\toolchains\avr-gcc\avr\include\util\atomic.h **** #if !defined(__DOXYGEN__)
  41:f:\importante\faculdade\mcc\vscode-avr-win\toolchains\avr-gcc\avr\include\util\atomic.h **** /* Internal helper functions. */
  42:f:\importante\faculdade\mcc\vscode-avr-win\toolchains\avr-gcc\avr\include\util\atomic.h **** static __inline__ uint8_t __iSeiRetVal(void)
  43:f:\importante\faculdade\mcc\vscode-avr-win\toolchains\avr-gcc\avr\include\util\atomic.h **** {
  44:f:\importante\faculdade\mcc\vscode-avr-win\toolchains\avr-gcc\avr\include\util\atomic.h ****     sei();
  45:f:\importante\faculdade\mcc\vscode-avr-win\toolchains\avr-gcc\avr\include\util\atomic.h ****     return 1;
  46:f:\importante\faculdade\mcc\vscode-avr-win\toolchains\avr-gcc\avr\include\util\atomic.h **** }
  47:f:\importante\faculdade\mcc\vscode-avr-win\toolchains\avr-gcc\avr\include\util\atomic.h **** 
  48:f:\importante\faculdade\mcc\vscode-avr-win\toolchains\avr-gcc\avr\include\util\atomic.h **** static __inline__ uint8_t __iCliRetVal(void)
 392               		.loc 5 48 27 view .LVU66
 393               	.LBB55:
  49:f:\importante\faculdade\mcc\vscode-avr-win\toolchains\avr-gcc\avr\include\util\atomic.h **** {
  50:f:\importante\faculdade\mcc\vscode-avr-win\toolchains\avr-gcc\avr\include\util\atomic.h ****     cli();
 394               		.loc 5 50 5 view .LVU67
 395               	/* #APP */
 396               	 ;  50 "f:\importante\faculdade\mcc\vscode-avr-win\toolchains\avr-gcc\avr\include\util\atomic.h" 1
 397 013c F894      		cli
 398               	 ;  0 "" 2
  51:f:\importante\faculdade\mcc\vscode-avr-win\toolchains\avr-gcc\avr\include\util\atomic.h ****     return 1;
 399               		.loc 5 51 5 view .LVU68
 400               	.LVL21:
 401               		.loc 5 51 5 is_stmt 0 view .LVU69
 402               	/* #NOAPP */
 403               	.LBE55:
 404               	.LBE54:
 405               		.loc 4 584 5 is_stmt 1 view .LVU70
 585:funsape/peripheral/timer1.hpp ****         ICR1 = value_p;
GAS LISTING C:\Users\kenne\AppData\Local\Temp\ccYle9OK.s 			page 38


 406               		.loc 4 585 9 view .LVU71
 407               		.loc 4 585 14 is_stmt 0 view .LVU72
 408 013e 2FEF      		ldi r18,lo8(-1)
 409 0140 3FEF      		ldi r19,lo8(-1)
 410 0142 3093 8700 		sts 134+1,r19
 411 0146 2093 8600 		sts 134,r18
 584:funsape/peripheral/timer1.hpp ****         ICR1 = value_p;
 412               		.loc 4 584 5 is_stmt 1 view .LVU73
 413               	.LVL22:
 584:funsape/peripheral/timer1.hpp ****         ICR1 = value_p;
 414               		.loc 4 584 5 view .LVU74
 415               	.LBB56:
 416               	.LBI56:
  52:f:\importante\faculdade\mcc\vscode-avr-win\toolchains\avr-gcc\avr\include\util\atomic.h **** }
  53:f:\importante\faculdade\mcc\vscode-avr-win\toolchains\avr-gcc\avr\include\util\atomic.h **** 
  54:f:\importante\faculdade\mcc\vscode-avr-win\toolchains\avr-gcc\avr\include\util\atomic.h **** static __inline__ void __iSeiParam(const uint8_t *__s)
  55:f:\importante\faculdade\mcc\vscode-avr-win\toolchains\avr-gcc\avr\include\util\atomic.h **** {
  56:f:\importante\faculdade\mcc\vscode-avr-win\toolchains\avr-gcc\avr\include\util\atomic.h ****     sei();
  57:f:\importante\faculdade\mcc\vscode-avr-win\toolchains\avr-gcc\avr\include\util\atomic.h ****     __asm__ volatile ("" ::: "memory");
  58:f:\importante\faculdade\mcc\vscode-avr-win\toolchains\avr-gcc\avr\include\util\atomic.h ****     (void)__s;
  59:f:\importante\faculdade\mcc\vscode-avr-win\toolchains\avr-gcc\avr\include\util\atomic.h **** }
  60:f:\importante\faculdade\mcc\vscode-avr-win\toolchains\avr-gcc\avr\include\util\atomic.h **** 
  61:f:\importante\faculdade\mcc\vscode-avr-win\toolchains\avr-gcc\avr\include\util\atomic.h **** static __inline__ void __iCliParam(const uint8_t *__s)
  62:f:\importante\faculdade\mcc\vscode-avr-win\toolchains\avr-gcc\avr\include\util\atomic.h **** {
  63:f:\importante\faculdade\mcc\vscode-avr-win\toolchains\avr-gcc\avr\include\util\atomic.h ****     cli();
  64:f:\importante\faculdade\mcc\vscode-avr-win\toolchains\avr-gcc\avr\include\util\atomic.h ****     __asm__ volatile ("" ::: "memory");
  65:f:\importante\faculdade\mcc\vscode-avr-win\toolchains\avr-gcc\avr\include\util\atomic.h ****     (void)__s;
  66:f:\importante\faculdade\mcc\vscode-avr-win\toolchains\avr-gcc\avr\include\util\atomic.h **** }
  67:f:\importante\faculdade\mcc\vscode-avr-win\toolchains\avr-gcc\avr\include\util\atomic.h **** 
  68:f:\importante\faculdade\mcc\vscode-avr-win\toolchains\avr-gcc\avr\include\util\atomic.h **** static __inline__ void __iRestore(const  uint8_t *__s)
 417               		.loc 5 68 24 view .LVU75
 418               	.LBB57:
  69:f:\importante\faculdade\mcc\vscode-avr-win\toolchains\avr-gcc\avr\include\util\atomic.h **** {
  70:f:\importante\faculdade\mcc\vscode-avr-win\toolchains\avr-gcc\avr\include\util\atomic.h ****     SREG = *__s;
 419               		.loc 5 70 5 view .LVU76
 420               		.loc 5 70 10 is_stmt 0 view .LVU77
 421 014a 8FBF      		out __SREG__,r24
  71:f:\importante\faculdade\mcc\vscode-avr-win\toolchains\avr-gcc\avr\include\util\atomic.h ****     __asm__ volatile ("" ::: "memory");
 422               		.loc 5 71 5 is_stmt 1 view .LVU78
 423               	.LVL23:
 424               		.loc 5 71 5 is_stmt 0 view .LVU79
 425               	.LBE57:
 426               	.LBE56:
 427               	.LBE53:
 586:funsape/peripheral/timer1.hpp ****     }
 587:funsape/peripheral/timer1.hpp ****     return;
 428               		.loc 4 587 5 is_stmt 1 view .LVU80
 429               		.loc 4 587 5 is_stmt 0 view .LVU81
 430               	.LBE52:
  65:main.cpp      ****     timer1.setCompareAValue(42000);           // Define a largura do pulso, Largura do Pulso(ms) = 
 431               		.loc 2 65 5 is_stmt 1 view .LVU82
 432               	.LBB58:
 433               	.LBI58:
 500:funsape/peripheral/timer1.hpp **** {
 434               		.loc 4 500 14 view .LVU83
 502:funsape/peripheral/timer1.hpp ****         OCR1A = value_p;
 435               		.loc 4 502 5 view .LVU84
GAS LISTING C:\Users\kenne\AppData\Local\Temp\ccYle9OK.s 			page 39


 436               	.LBB59:
 437 014c 8FB7      		in r24,__SREG__
 438               	.LVL24:
 439               	.LBB60:
 440               	.LBI60:
  48:f:\importante\faculdade\mcc\vscode-avr-win\toolchains\avr-gcc\avr\include\util\atomic.h **** {
 441               		.loc 5 48 27 view .LVU85
 442               	.LBB61:
  50:f:\importante\faculdade\mcc\vscode-avr-win\toolchains\avr-gcc\avr\include\util\atomic.h ****     return 1;
 443               		.loc 5 50 5 view .LVU86
 444               	/* #APP */
 445               	 ;  50 "f:\importante\faculdade\mcc\vscode-avr-win\toolchains\avr-gcc\avr\include\util\atomic.h" 1
 446 014e F894      		cli
 447               	 ;  0 "" 2
  51:f:\importante\faculdade\mcc\vscode-avr-win\toolchains\avr-gcc\avr\include\util\atomic.h **** }
 448               		.loc 5 51 5 view .LVU87
 449               	.LVL25:
  51:f:\importante\faculdade\mcc\vscode-avr-win\toolchains\avr-gcc\avr\include\util\atomic.h **** }
 450               		.loc 5 51 5 is_stmt 0 view .LVU88
 451               	/* #NOAPP */
 452               	.LBE61:
 453               	.LBE60:
 502:funsape/peripheral/timer1.hpp ****         OCR1A = value_p;
 454               		.loc 4 502 5 is_stmt 1 view .LVU89
 503:funsape/peripheral/timer1.hpp ****     }
 455               		.loc 4 503 9 view .LVU90
 503:funsape/peripheral/timer1.hpp ****     }
 456               		.loc 4 503 15 is_stmt 0 view .LVU91
 457 0150 E8E8      		ldi r30,lo8(-120)
 458 0152 F0E0      		ldi r31,0
 459 0154 20E1      		ldi r18,lo8(16)
 460 0156 34EA      		ldi r19,lo8(-92)
 461 0158 3183      		std Z+1,r19
 462 015a 2083      		st Z,r18
 502:funsape/peripheral/timer1.hpp ****         OCR1A = value_p;
 463               		.loc 4 502 5 is_stmt 1 view .LVU92
 464               	.LVL26:
 502:funsape/peripheral/timer1.hpp ****         OCR1A = value_p;
 465               		.loc 4 502 5 view .LVU93
 466               	.LBB62:
 467               	.LBI62:
  68:f:\importante\faculdade\mcc\vscode-avr-win\toolchains\avr-gcc\avr\include\util\atomic.h **** {
 468               		.loc 5 68 24 view .LVU94
 469               	.LBB63:
  70:f:\importante\faculdade\mcc\vscode-avr-win\toolchains\avr-gcc\avr\include\util\atomic.h ****     __asm__ volatile ("" ::: "memory");
 470               		.loc 5 70 5 view .LVU95
  70:f:\importante\faculdade\mcc\vscode-avr-win\toolchains\avr-gcc\avr\include\util\atomic.h ****     __asm__ volatile ("" ::: "memory");
 471               		.loc 5 70 10 is_stmt 0 view .LVU96
 472 015c 8FBF      		out __SREG__,r24
 473               		.loc 5 71 5 is_stmt 1 view .LVU97
 474               	.LVL27:
 475               		.loc 5 71 5 is_stmt 0 view .LVU98
 476               	.LBE63:
 477               	.LBE62:
 478               	.LBE59:
 505:funsape/peripheral/timer1.hpp **** }
 479               		.loc 4 505 5 is_stmt 1 view .LVU99
GAS LISTING C:\Users\kenne\AppData\Local\Temp\ccYle9OK.s 			page 40


 505:funsape/peripheral/timer1.hpp **** }
 480               		.loc 4 505 5 is_stmt 0 view .LVU100
 481               	.LBE58:
  66:main.cpp      ****     timer1.setCompareAValue(20000);           // Define a largura do pulso, Largura do Pulso(ms) = 
 482               		.loc 2 66 5 is_stmt 1 view .LVU101
 483               	.LBB64:
 484               	.LBI64:
 500:funsape/peripheral/timer1.hpp **** {
 485               		.loc 4 500 14 view .LVU102
 502:funsape/peripheral/timer1.hpp ****         OCR1A = value_p;
 486               		.loc 4 502 5 view .LVU103
 487               	.LBB65:
 488 015e 8FB7      		in r24,__SREG__
 489               	.LVL28:
 490               	.LBB66:
 491               	.LBI66:
  48:f:\importante\faculdade\mcc\vscode-avr-win\toolchains\avr-gcc\avr\include\util\atomic.h **** {
 492               		.loc 5 48 27 view .LVU104
 493               	.LBB67:
  50:f:\importante\faculdade\mcc\vscode-avr-win\toolchains\avr-gcc\avr\include\util\atomic.h ****     return 1;
 494               		.loc 5 50 5 view .LVU105
 495               	/* #APP */
 496               	 ;  50 "f:\importante\faculdade\mcc\vscode-avr-win\toolchains\avr-gcc\avr\include\util\atomic.h" 1
 497 0160 F894      		cli
 498               	 ;  0 "" 2
  51:f:\importante\faculdade\mcc\vscode-avr-win\toolchains\avr-gcc\avr\include\util\atomic.h **** }
 499               		.loc 5 51 5 view .LVU106
 500               	.LVL29:
  51:f:\importante\faculdade\mcc\vscode-avr-win\toolchains\avr-gcc\avr\include\util\atomic.h **** }
 501               		.loc 5 51 5 is_stmt 0 view .LVU107
 502               	/* #NOAPP */
 503               	.LBE67:
 504               	.LBE66:
 502:funsape/peripheral/timer1.hpp ****         OCR1A = value_p;
 505               		.loc 4 502 5 is_stmt 1 view .LVU108
 503:funsape/peripheral/timer1.hpp ****     }
 506               		.loc 4 503 9 view .LVU109
 503:funsape/peripheral/timer1.hpp ****     }
 507               		.loc 4 503 15 is_stmt 0 view .LVU110
 508 0162 20E2      		ldi r18,lo8(32)
 509 0164 3EE4      		ldi r19,lo8(78)
 510 0166 3183      		std Z+1,r19
 511 0168 2083      		st Z,r18
 502:funsape/peripheral/timer1.hpp ****         OCR1A = value_p;
 512               		.loc 4 502 5 is_stmt 1 view .LVU111
 513               	.LVL30:
 502:funsape/peripheral/timer1.hpp ****         OCR1A = value_p;
 514               		.loc 4 502 5 view .LVU112
 515               	.LBB68:
 516               	.LBI68:
  68:f:\importante\faculdade\mcc\vscode-avr-win\toolchains\avr-gcc\avr\include\util\atomic.h **** {
 517               		.loc 5 68 24 view .LVU113
 518               	.LBB69:
  70:f:\importante\faculdade\mcc\vscode-avr-win\toolchains\avr-gcc\avr\include\util\atomic.h ****     __asm__ volatile ("" ::: "memory");
 519               		.loc 5 70 5 view .LVU114
  70:f:\importante\faculdade\mcc\vscode-avr-win\toolchains\avr-gcc\avr\include\util\atomic.h ****     __asm__ volatile ("" ::: "memory");
 520               		.loc 5 70 10 is_stmt 0 view .LVU115
GAS LISTING C:\Users\kenne\AppData\Local\Temp\ccYle9OK.s 			page 41


 521 016a 8FBF      		out __SREG__,r24
 522               		.loc 5 71 5 is_stmt 1 view .LVU116
 523               	.LVL31:
 524               		.loc 5 71 5 is_stmt 0 view .LVU117
 525               	.LBE69:
 526               	.LBE68:
 527               	.LBE65:
 505:funsape/peripheral/timer1.hpp **** }
 528               		.loc 4 505 5 is_stmt 1 view .LVU118
 505:funsape/peripheral/timer1.hpp **** }
 529               		.loc 4 505 5 is_stmt 0 view .LVU119
 530               	.LBE64:
  67:main.cpp      ****     //posio do servo f(x)=({x-1999}/2000-0.5)*270 p/ range de -135 a +135  ou ainda pos = ({x-b
  68:main.cpp      ****     // f(x)= (x-2999)*0.135
  69:main.cpp      ****     // f(x)=  (10x-29999)/74
  70:main.cpp      ****     //para 270 graus de 1ms a 2ms cada 1 grau ~= 7,4 contas
  71:main.cpp      ****     //para um angulo ang, o valor de OCRA1 deve ser ({ang+135}/135)/2*2000+2000
  72:main.cpp      **** 
  73:main.cpp      ****     uint8_t tecla;
 531               		.loc 2 73 5 is_stmt 1 view .LVU120
  74:main.cpp      ****     timer1.setCompareAValue(aux);
 532               		.loc 2 74 5 view .LVU121
 533               		.loc 2 74 28 is_stmt 0 view .LVU122
 534 016c 2091 0000 		lds r18,aux
 535 0170 3091 0000 		lds r19,aux+1
 536               	.LVL32:
 537               	.LBB70:
 538               	.LBI70:
 500:funsape/peripheral/timer1.hpp **** {
 539               		.loc 4 500 14 is_stmt 1 view .LVU123
 502:funsape/peripheral/timer1.hpp ****         OCR1A = value_p;
 540               		.loc 4 502 5 view .LVU124
 541               	.LBB71:
 542 0174 8FB7      		in r24,__SREG__
 543               	.LVL33:
 544               	.LBB72:
 545               	.LBI72:
  48:f:\importante\faculdade\mcc\vscode-avr-win\toolchains\avr-gcc\avr\include\util\atomic.h **** {
 546               		.loc 5 48 27 view .LVU125
 547               	.LBB73:
  50:f:\importante\faculdade\mcc\vscode-avr-win\toolchains\avr-gcc\avr\include\util\atomic.h ****     return 1;
 548               		.loc 5 50 5 view .LVU126
 549               	/* #APP */
 550               	 ;  50 "f:\importante\faculdade\mcc\vscode-avr-win\toolchains\avr-gcc\avr\include\util\atomic.h" 1
 551 0176 F894      		cli
 552               	 ;  0 "" 2
  51:f:\importante\faculdade\mcc\vscode-avr-win\toolchains\avr-gcc\avr\include\util\atomic.h **** }
 553               		.loc 5 51 5 view .LVU127
 554               	.LVL34:
  51:f:\importante\faculdade\mcc\vscode-avr-win\toolchains\avr-gcc\avr\include\util\atomic.h **** }
 555               		.loc 5 51 5 is_stmt 0 view .LVU128
 556               	/* #NOAPP */
 557               	.LBE73:
 558               	.LBE72:
 502:funsape/peripheral/timer1.hpp ****         OCR1A = value_p;
 559               		.loc 4 502 5 is_stmt 1 view .LVU129
 503:funsape/peripheral/timer1.hpp ****     }
GAS LISTING C:\Users\kenne\AppData\Local\Temp\ccYle9OK.s 			page 42


 560               		.loc 4 503 9 view .LVU130
 503:funsape/peripheral/timer1.hpp ****     }
 561               		.loc 4 503 15 is_stmt 0 view .LVU131
 562 0178 3183      		std Z+1,r19
 563 017a 2083      		st Z,r18
 502:funsape/peripheral/timer1.hpp ****         OCR1A = value_p;
 564               		.loc 4 502 5 is_stmt 1 view .LVU132
 565               	.LVL35:
 502:funsape/peripheral/timer1.hpp ****         OCR1A = value_p;
 566               		.loc 4 502 5 view .LVU133
 567               	.LBB74:
 568               	.LBI74:
  68:f:\importante\faculdade\mcc\vscode-avr-win\toolchains\avr-gcc\avr\include\util\atomic.h **** {
 569               		.loc 5 68 24 view .LVU134
 570               	.LBB75:
  70:f:\importante\faculdade\mcc\vscode-avr-win\toolchains\avr-gcc\avr\include\util\atomic.h ****     __asm__ volatile ("" ::: "memory");
 571               		.loc 5 70 5 view .LVU135
  70:f:\importante\faculdade\mcc\vscode-avr-win\toolchains\avr-gcc\avr\include\util\atomic.h ****     __asm__ volatile ("" ::: "memory");
 572               		.loc 5 70 10 is_stmt 0 view .LVU136
 573 017c 8FBF      		out __SREG__,r24
 574               		.loc 5 71 5 is_stmt 1 view .LVU137
 575               	.LVL36:
 576               		.loc 5 71 5 is_stmt 0 view .LVU138
 577               	.LBE75:
 578               	.LBE74:
 579               	.LBE71:
 505:funsape/peripheral/timer1.hpp **** }
 580               		.loc 4 505 5 is_stmt 1 view .LVU139
 505:funsape/peripheral/timer1.hpp **** }
 581               		.loc 4 505 5 is_stmt 0 view .LVU140
 582               	.LBE70:
  75:main.cpp      **** 
  76:main.cpp      ****     uint8_t estado = 0;
 583               		.loc 2 76 5 is_stmt 1 view .LVU141
  77:main.cpp      ****     while(1) {
 584               		.loc 2 77 5 view .LVU142
  78:main.cpp      ****             switch (estado)
 585               		.loc 2 78 13 view .LVU143
 586 017e 00C0      		rjmp .L9
 587               	.L19:
 588               		.loc 2 78 13 is_stmt 0 view .LVU144
 589 0180 8033      		cpi r24,lo8(48)
 590 0182 01F0      		breq .L7
 591 0184 8334      		cpi r24,lo8(67)
 592 0186 01F4      		brne .L9
  79:main.cpp      ****             {
  80:main.cpp      ****             case 0:
  81:main.cpp      ****                 //entrando no modo ocioso
  82:main.cpp      ****                 while (estado == 0)
  83:main.cpp      ****                 {
  84:main.cpp      ****                     angulo = getangle(aux);
  85:main.cpp      ****                     lcd.clearScreen();
  86:main.cpp      ****                     printf("Angulo = %d\n %d", angulo,aux);
  87:main.cpp      ****                     delayMs(50);
  88:main.cpp      ****                     keypad.readKeyPressed(&tecla);
  89:main.cpp      ****                     switch (tecla)
  90:main.cpp      ****                     {
GAS LISTING C:\Users\kenne\AppData\Local\Temp\ccYle9OK.s 			page 43


  91:main.cpp      ****                     case 0xFF:
  92:main.cpp      ****                     lcd.clearScreen();
  93:main.cpp      ****                     break;
  94:main.cpp      **** 
  95:main.cpp      ****                     case '0':
  96:main.cpp      ****                         aux = 2999;
  97:main.cpp      ****                         OCR1A = aux;
  98:main.cpp      ****                         break;
  99:main.cpp      ****                     case 'C':
 593               		.loc 2 99 21 is_stmt 1 view .LVU145
 100:main.cpp      ****                         aux = aux - 37;
 594               		.loc 2 100 25 view .LVU146
 595               		.loc 2 100 35 is_stmt 0 view .LVU147
 596 0188 8091 0000 		lds r24,aux
 597 018c 9091 0000 		lds r25,aux+1
 598 0190 A091 0000 		lds r26,aux+2
 599 0194 B091 0000 		lds r27,aux+3
 600 0198 8597      		sbiw r24,37
 601 019a A109      		sbc r26,__zero_reg__
 602 019c B109      		sbc r27,__zero_reg__
 603               		.loc 2 100 29 view .LVU148
 604 019e 8093 0000 		sts aux,r24
 605 01a2 9093 0000 		sts aux+1,r25
 606 01a6 A093 0000 		sts aux+2,r26
 607 01aa B093 0000 		sts aux+3,r27
 101:main.cpp      ****                         if (aux<1999){
 608               		.loc 2 101 25 is_stmt 1 view .LVU149
 609 01ae 8F3C      		cpi r24,-49
 610 01b0 9740      		sbci r25,7
 611 01b2 A105      		cpc r26,__zero_reg__
 612 01b4 B105      		cpc r27,__zero_reg__
 613 01b6 00F4      		brsh .L12
 102:main.cpp      ****                             aux = 1999;
 614               		.loc 2 102 29 view .LVU150
 615               		.loc 2 102 33 is_stmt 0 view .LVU151
 616 01b8 8FEC      		ldi r24,lo8(-49)
 617 01ba 97E0      		ldi r25,lo8(7)
 618 01bc A0E0      		ldi r26,0
 619 01be B0E0      		ldi r27,0
 620 01c0 8093 0000 		sts aux,r24
 621 01c4 9093 0000 		sts aux+1,r25
 622 01c8 A093 0000 		sts aux+2,r26
 623 01cc B093 0000 		sts aux+3,r27
 624               	.L12:
 103:main.cpp      ****                         }
 104:main.cpp      ****                         OCR1A = aux;
 625               		.loc 2 104 25 is_stmt 1 view .LVU152
 626               		.loc 2 104 31 is_stmt 0 view .LVU153
 627 01d0 8091 0000 		lds r24,aux
 628 01d4 9091 0000 		lds r25,aux+1
 629 01d8 9093 8900 		sts 136+1,r25
 630 01dc 8093 8800 		sts 136,r24
 105:main.cpp      ****                         break;
 631               		.loc 2 105 25 is_stmt 1 view .LVU154
 632 01e0 00C0      		rjmp .L9
 633               	.L7:
  95:main.cpp      ****                         aux = 2999;
GAS LISTING C:\Users\kenne\AppData\Local\Temp\ccYle9OK.s 			page 44


 634               		.loc 2 95 21 view .LVU155
  96:main.cpp      ****                         OCR1A = aux;
 635               		.loc 2 96 25 view .LVU156
  96:main.cpp      ****                         OCR1A = aux;
 636               		.loc 2 96 29 is_stmt 0 view .LVU157
 637 01e2 87EB      		ldi r24,lo8(-73)
 638 01e4 9BE0      		ldi r25,lo8(11)
 639 01e6 A0E0      		ldi r26,0
 640 01e8 B0E0      		ldi r27,0
 641 01ea 8093 0000 		sts aux,r24
 642 01ee 9093 0000 		sts aux+1,r25
 643 01f2 A093 0000 		sts aux+2,r26
 644 01f6 B093 0000 		sts aux+3,r27
  97:main.cpp      ****                         break;
 645               		.loc 2 97 25 is_stmt 1 view .LVU158
  97:main.cpp      ****                         break;
 646               		.loc 2 97 31 is_stmt 0 view .LVU159
 647 01fa 9093 8900 		sts 136+1,r25
 648 01fe 8093 8800 		sts 136,r24
  98:main.cpp      ****                     case 'C':
 649               		.loc 2 98 25 is_stmt 1 view .LVU160
 650               	.L9:
  82:main.cpp      ****                 {
 651               		.loc 2 82 31 view .LVU161
  84:main.cpp      ****                     lcd.clearScreen();
 652               		.loc 2 84 21 view .LVU162
  84:main.cpp      ****                     lcd.clearScreen();
 653               		.loc 2 84 38 is_stmt 0 view .LVU163
 654 0202 8091 0000 		lds r24,aux
 655 0206 9091 0000 		lds r25,aux+1
 656 020a A091 0000 		lds r26,aux+2
 657 020e B091 0000 		lds r27,aux+3
 658 0212 8CA7      		std Y+44,r24
 659 0214 9DA7      		std Y+45,r25
 660 0216 AEA7      		std Y+46,r26
 661 0218 BFA7      		std Y+47,r27
 662 021a BC01      		movw r22,r24
 663 021c CD01      		movw r24,r26
 664 021e 0E94 0000 		call _Z8getanglem
 665               	.LVL37:
  84:main.cpp      ****                     lcd.clearScreen();
 666               		.loc 2 84 28 view .LVU164
 667 0222 9093 0000 		sts angulo+1,r25
 668 0226 8093 0000 		sts angulo,r24
  85:main.cpp      ****                     printf("Angulo = %d\n %d", angulo,aux);
 669               		.loc 2 85 21 is_stmt 1 view .LVU165
  85:main.cpp      ****                     printf("Angulo = %d\n %d", angulo,aux);
 670               		.loc 2 85 36 is_stmt 0 view .LVU166
 671 022a CE01      		movw r24,r28
 672 022c 0196      		adiw r24,1
 673 022e 0E94 0000 		call _ZN7Hd4478011clearScreenEv
 674               	.LVL38:
  86:main.cpp      ****                     delayMs(50);
 675               		.loc 2 86 21 is_stmt 1 view .LVU167
  86:main.cpp      ****                     delayMs(50);
 676               		.loc 2 86 27 is_stmt 0 view .LVU168
 677 0232 8091 0000 		lds r24,aux+3
GAS LISTING C:\Users\kenne\AppData\Local\Temp\ccYle9OK.s 			page 45


 678 0236 8F93      		push r24
 679 0238 8091 0000 		lds r24,aux+2
 680 023c 8F93      		push r24
 681 023e 8091 0000 		lds r24,aux+1
 682 0242 8F93      		push r24
 683 0244 8091 0000 		lds r24,aux
 684 0248 8F93      		push r24
 685 024a 8091 0000 		lds r24,angulo+1
 686 024e 8F93      		push r24
 687 0250 8091 0000 		lds r24,angulo
 688 0254 8F93      		push r24
 689 0256 80E0      		ldi r24,lo8(.LC1)
 690 0258 90E0      		ldi r25,hi8(.LC1)
 691 025a 9F93      		push r25
 692 025c 8F93      		push r24
 693 025e 0E94 0000 		call printf
 694               	.LVL39:
  87:main.cpp      ****                     keypad.readKeyPressed(&tecla);
 695               		.loc 2 87 21 is_stmt 1 view .LVU169
 696               	.LBB76:
 697               	.LBI76:
 166:f:\importante\faculdade\mcc\vscode-avr-win\toolchains\avr-gcc\avr\include\util\delay.h **** {
 698               		.loc 3 166 1 view .LVU170
 699               	.LBB77:
 168:f:\importante\faculdade\mcc\vscode-avr-win\toolchains\avr-gcc\avr\include\util\delay.h **** #if __HAS_DELAY_CYCLES && defined(__OPTIMIZE__) && \
 700               		.loc 3 168 2 view .LVU171
 172:f:\importante\faculdade\mcc\vscode-avr-win\toolchains\avr-gcc\avr\include\util\delay.h **** 	extern void __builtin_avr_delay_cycles(unsigned long);
 701               		.loc 3 172 2 view .LVU172
 173:f:\importante\faculdade\mcc\vscode-avr-win\toolchains\avr-gcc\avr\include\util\delay.h **** 	__tmp = ((F_CPU) / 1e3) * __ms;
 702               		.loc 3 173 2 view .LVU173
 174:f:\importante\faculdade\mcc\vscode-avr-win\toolchains\avr-gcc\avr\include\util\delay.h **** 
 703               		.loc 3 174 2 view .LVU174
 184:f:\importante\faculdade\mcc\vscode-avr-win\toolchains\avr-gcc\avr\include\util\delay.h **** 	#endif
 704               		.loc 3 184 3 view .LVU175
 705               		.loc 3 187 2 view .LVU176
 706               		.loc 3 187 28 is_stmt 0 view .LVU177
 707 0262 9FEF      		ldi r25,lo8(159999)
 708 0264 A0E7      		ldi r26,hi8(159999)
 709 0266 B2E0      		ldi r27,hlo8(159999)
 710 0268 9150      	1:	subi r25,1
 711 026a A040      		sbci r26,0
 712 026c B040      		sbci r27,0
 713 026e 01F4      		brne 1b
 714 0270 00C0      		rjmp .
 715 0272 0000      		nop
 716               	.LVL40:
 717               		.loc 3 187 28 view .LVU178
 718               	.LBE77:
 719               	.LBE76:
  88:main.cpp      ****                     switch (tecla)
 720               		.loc 2 88 21 is_stmt 1 view .LVU179
  88:main.cpp      ****                     switch (tecla)
 721               		.loc 2 88 42 is_stmt 0 view .LVU180
 722 0274 BE01      		movw r22,r28
 723 0276 655D      		subi r22,-43
 724 0278 7F4F      		sbci r23,-1
 725 027a CE01      		movw r24,r28
GAS LISTING C:\Users\kenne\AppData\Local\Temp\ccYle9OK.s 			page 46


 726 027c 4396      		adiw r24,19
 727 027e 0E94 0000 		call _ZN6Keypad14readKeyPressedEPh
 728               	.LVL41:
  89:main.cpp      ****                     {
 729               		.loc 2 89 21 is_stmt 1 view .LVU181
  89:main.cpp      ****                     {
 730               		.loc 2 89 29 is_stmt 0 view .LVU182
 731 0282 8BA5      		ldd r24,Y+43
 732 0284 0FB6      		in __tmp_reg__,__SREG__
 733 0286 F894      		cli
 734 0288 DEBF      		out __SP_H__,r29
 735 028a 0FBE      		out __SREG__,__tmp_reg__
 736 028c CDBF      		out __SP_L__,r28
 737 028e 8434      		cpi r24,lo8(68)
 738 0290 01F0      		breq .L18
 739 0292 00F4      		brsh .+2
 740 0294 00C0      		rjmp .L19
 741 0296 8634      		cpi r24,lo8(70)
 742 0298 01F0      		breq .L10
 743 029a 8F3F      		cpi r24,lo8(-1)
 744 029c 01F0      		breq .+2
 745 029e 00C0      		rjmp .L9
  91:main.cpp      ****                     lcd.clearScreen();
 746               		.loc 2 91 21 is_stmt 1 view .LVU183
  92:main.cpp      ****                     break;
 747               		.loc 2 92 21 view .LVU184
  92:main.cpp      ****                     break;
 748               		.loc 2 92 36 is_stmt 0 view .LVU185
 749 02a0 CE01      		movw r24,r28
 750 02a2 0196      		adiw r24,1
 751 02a4 0E94 0000 		call _ZN7Hd4478011clearScreenEv
 752               	.LVL42:
  93:main.cpp      **** 
 753               		.loc 2 93 21 is_stmt 1 view .LVU186
 754 02a8 00C0      		rjmp .L9
 755               	.L18:
 106:main.cpp      ****                     case 'D':
 756               		.loc 2 106 21 view .LVU187
 107:main.cpp      ****                         aux = aux + 37;
 757               		.loc 2 107 25 view .LVU188
 758               		.loc 2 107 35 is_stmt 0 view .LVU189
 759 02aa 8091 0000 		lds r24,aux
 760 02ae 9091 0000 		lds r25,aux+1
 761 02b2 A091 0000 		lds r26,aux+2
 762 02b6 B091 0000 		lds r27,aux+3
 763 02ba 8596      		adiw r24,37
 764 02bc A11D      		adc r26,__zero_reg__
 765 02be B11D      		adc r27,__zero_reg__
 766               		.loc 2 107 29 view .LVU190
 767 02c0 8093 0000 		sts aux,r24
 768 02c4 9093 0000 		sts aux+1,r25
 769 02c8 A093 0000 		sts aux+2,r26
 770 02cc B093 0000 		sts aux+3,r27
 108:main.cpp      ****                         if (aux>3999){
 771               		.loc 2 108 25 is_stmt 1 view .LVU191
 772 02d0 803A      		cpi r24,-96
 773 02d2 9F40      		sbci r25,15
GAS LISTING C:\Users\kenne\AppData\Local\Temp\ccYle9OK.s 			page 47


 774 02d4 A105      		cpc r26,__zero_reg__
 775 02d6 B105      		cpc r27,__zero_reg__
 776 02d8 00F0      		brlo .L13
 109:main.cpp      ****                             aux = 3999;
 777               		.loc 2 109 29 view .LVU192
 778               		.loc 2 109 33 is_stmt 0 view .LVU193
 779 02da 8FE9      		ldi r24,lo8(-97)
 780 02dc 9FE0      		ldi r25,lo8(15)
 781 02de A0E0      		ldi r26,0
 782 02e0 B0E0      		ldi r27,0
 783 02e2 8093 0000 		sts aux,r24
 784 02e6 9093 0000 		sts aux+1,r25
 785 02ea A093 0000 		sts aux+2,r26
 786 02ee B093 0000 		sts aux+3,r27
 787               	.L13:
 110:main.cpp      ****                         }
 111:main.cpp      ****                         OCR1A = aux;
 788               		.loc 2 111 25 is_stmt 1 view .LVU194
 789               		.loc 2 111 31 is_stmt 0 view .LVU195
 790 02f2 8091 0000 		lds r24,aux
 791 02f6 9091 0000 		lds r25,aux+1
 792 02fa 9093 8900 		sts 136+1,r25
 793 02fe 8093 8800 		sts 136,r24
 112:main.cpp      ****                         break;
 794               		.loc 2 112 25 is_stmt 1 view .LVU196
 795 0302 00C0      		rjmp .L9
 796               	.L10:
 797               	.LVL43:
 113:main.cpp      ****                     case 'F':
 114:main.cpp      ****                         estado = 1;
 115:main.cpp      ****                         break;
 116:main.cpp      ****                     default:
 117:main.cpp      ****                         break;
 118:main.cpp      ****                     }
 119:main.cpp      ****                 }
 120:main.cpp      ****             case 1:
 798               		.loc 2 120 13 view .LVU197
 121:main.cpp      ****                 angulo = getangle(aux);
 799               		.loc 2 121 17 view .LVU198
 800               		.loc 2 121 34 is_stmt 0 view .LVU199
 801 0304 8091 0000 		lds r24,aux
 802 0308 9091 0000 		lds r25,aux+1
 803 030c A091 0000 		lds r26,aux+2
 804 0310 B091 0000 		lds r27,aux+3
 805 0314 8CA7      		std Y+44,r24
 806 0316 9DA7      		std Y+45,r25
 807 0318 AEA7      		std Y+46,r26
 808 031a BFA7      		std Y+47,r27
 809 031c BC01      		movw r22,r24
 810 031e CD01      		movw r24,r26
 811 0320 0E94 0000 		call _Z8getanglem
 812               	.LVL44:
 813               		.loc 2 121 24 view .LVU200
 814 0324 9093 0000 		sts angulo+1,r25
 815 0328 8093 0000 		sts angulo,r24
 122:main.cpp      ****                 lcd.clearScreen();
 816               		.loc 2 122 17 is_stmt 1 view .LVU201
GAS LISTING C:\Users\kenne\AppData\Local\Temp\ccYle9OK.s 			page 48


 817               		.loc 2 122 32 is_stmt 0 view .LVU202
 818 032c CE01      		movw r24,r28
 819 032e 0196      		adiw r24,1
 820 0330 0E94 0000 		call _ZN7Hd4478011clearScreenEv
 821               	.LVL45:
 123:main.cpp      ****                 printf("Angulo = %d \n", angulo);
 822               		.loc 2 123 17 is_stmt 1 view .LVU203
 823               		.loc 2 123 23 is_stmt 0 view .LVU204
 824 0334 8091 0000 		lds r24,angulo+1
 825 0338 8F93      		push r24
 826 033a 8091 0000 		lds r24,angulo
 827 033e 8F93      		push r24
 828 0340 80E0      		ldi r24,lo8(.LC2)
 829 0342 90E0      		ldi r25,hi8(.LC2)
 830 0344 9F93      		push r25
 831 0346 8F93      		push r24
 832 0348 0E94 0000 		call printf
 833               	.LVL46:
 124:main.cpp      ****                 printf("Novo=");
 834               		.loc 2 124 17 is_stmt 1 view .LVU205
 835               		.loc 2 124 23 is_stmt 0 view .LVU206
 836 034c 80E0      		ldi r24,lo8(.LC3)
 837 034e 90E0      		ldi r25,hi8(.LC3)
 838 0350 9F93      		push r25
 839 0352 8F93      		push r24
 840 0354 0E94 0000 		call printf
 841               	.LVL47:
 125:main.cpp      ****                 // lcd.displayStateSet(Hd44780::DisplayState::CURSOR_ON);
 126:main.cpp      ****                 lcd.displayStateSet(Hd44780::DisplayState::BLINK_ON);
 842               		.loc 2 126 17 is_stmt 1 view .LVU207
 843               		.loc 2 126 36 is_stmt 0 view .LVU208
 844 0358 63E0      		ldi r22,lo8(3)
 845 035a 70E0      		ldi r23,0
 846 035c CE01      		movw r24,r28
 847 035e 0196      		adiw r24,1
 848 0360 0E94 0000 		call _ZN7Hd4478015displayStateSetENS_12DisplayStateE
 849               	.LVL48:
 127:main.cpp      ****                 lcd.cursorGoTo(2,5);
 850               		.loc 2 127 17 is_stmt 1 view .LVU209
 851               		.loc 2 127 31 is_stmt 0 view .LVU210
 852 0364 45E0      		ldi r20,lo8(5)
 853 0366 62E0      		ldi r22,lo8(2)
 854 0368 CE01      		movw r24,r28
 855 036a 0196      		adiw r24,1
 856 036c 0E94 0000 		call _ZN7Hd4478010cursorGoToEhh
 857               	.LVL49:
 128:main.cpp      ****                 while (estado == 1){
 858               		.loc 2 128 17 is_stmt 1 view .LVU211
 859 0370 0F90      		pop __tmp_reg__
 860 0372 0F90      		pop __tmp_reg__
 861 0374 0F90      		pop __tmp_reg__
 862 0376 0F90      		pop __tmp_reg__
 863 0378 0F90      		pop __tmp_reg__
 864 037a 0F90      		pop __tmp_reg__
 865               	.L16:
 866               		.loc 2 128 31 view .LVU212
 129:main.cpp      ****                     keypad.readKeyPressed(&tecla);
GAS LISTING C:\Users\kenne\AppData\Local\Temp\ccYle9OK.s 			page 49


 867               		.loc 2 129 21 view .LVU213
 868               		.loc 2 129 42 is_stmt 0 view .LVU214
 869 037c BE01      		movw r22,r28
 870 037e 655D      		subi r22,-43
 871 0380 7F4F      		sbci r23,-1
 872 0382 CE01      		movw r24,r28
 873 0384 4396      		adiw r24,19
 874 0386 0E94 0000 		call _ZN6Keypad14readKeyPressedEPh
 875               	.LVL50:
 876 038a 00C0      		rjmp .L16
 877               		.cfi_endproc
 878               	.LFE56:
 880               	.global	angulo
 881               		.section	.bss.angulo,"aw",@nobits
 884               	angulo:
 885 0000 0000      		.zero	2
 886               	.global	aux
 887               		.section	.data.aux,"aw"
 890               	aux:
 891 0000 B7        		.byte	-73
 892 0001 0B        		.byte	11
 893 0002 00        		.byte	0
 894 0003 00        		.byte	0
 895               		.text
 896               	.Letext0:
 897               		.file 6 "f:\\importante\\faculdade\\mcc\\vscode-avr-win\\toolchains\\avr-gcc\\avr\\include\\stdint
 898               		.file 7 "funsape/device/hd44780.hpp"
 899               		.file 8 "funsape/device/keypad.hpp"
 900               		.file 9 "f:\\importante\\faculdade\\mcc\\vscode-avr-win\\toolchains\\avr-gcc\\avr\\include\\math.h
 901               		.file 10 "f:\\importante\\faculdade\\mcc\\vscode-avr-win\\toolchains\\avr-gcc\\avr\\include\\stdio
 902               		.file 11 "f:\\importante\\faculdade\\mcc\\vscode-avr-win\\toolchains\\avr-gcc\\avr\\include\\avr\\
GAS LISTING C:\Users\kenne\AppData\Local\Temp\ccYle9OK.s 			page 50


DEFINED SYMBOLS
                            *ABS*:0000000000000000 main.cpp
C:\Users\kenne\AppData\Local\Temp\ccYle9OK.s:2      *ABS*:000000000000003e __SP_H__
C:\Users\kenne\AppData\Local\Temp\ccYle9OK.s:3      *ABS*:000000000000003d __SP_L__
C:\Users\kenne\AppData\Local\Temp\ccYle9OK.s:4      *ABS*:000000000000003f __SREG__
C:\Users\kenne\AppData\Local\Temp\ccYle9OK.s:5      *ABS*:0000000000000000 __tmp_reg__
C:\Users\kenne\AppData\Local\Temp\ccYle9OK.s:6      *ABS*:0000000000000001 __zero_reg__
C:\Users\kenne\AppData\Local\Temp\ccYle9OK.s:14     .text._Z7getTickv:0000000000000000 _Z7getTickv
C:\Users\kenne\AppData\Local\Temp\ccYle9OK.s:17     .text._Z7getTickv:0000000000000000 .Loc.0
C:\Users\kenne\AppData\Local\Temp\ccYle9OK.s:18     .text._Z7getTickv:0000000000000000 L0
C:\Users\kenne\AppData\Local\Temp\ccYle9OK.s:23     .text._Z7getTickv:0000000000000000 .Loc.1
C:\Users\kenne\AppData\Local\Temp\ccYle9OK.s:24     .text._Z7getTickv:0000000000000000 .Loc.2
C:\Users\kenne\AppData\Local\Temp\ccYle9OK.s:30     .text._Z7getTickv:0000000000000008 L0
C:\Users\kenne\AppData\Local\Temp\ccYle9OK.s:36     .text._Z8getanglem:0000000000000000 _Z8getanglem
C:\Users\kenne\AppData\Local\Temp\ccYle9OK.s:40     .text._Z8getanglem:0000000000000000 .Loc.3
C:\Users\kenne\AppData\Local\Temp\ccYle9OK.s:41     .text._Z8getanglem:0000000000000000 L0
C:\Users\kenne\AppData\Local\Temp\ccYle9OK.s:42     .text._Z8getanglem:0000000000000000 .Loc.4
C:\Users\kenne\AppData\Local\Temp\ccYle9OK.s:49     .text._Z8getanglem:0000000000000006 L0
C:\Users\kenne\AppData\Local\Temp\ccYle9OK.s:50     .text._Z8getanglem:0000000000000008 L0
C:\Users\kenne\AppData\Local\Temp\ccYle9OK.s:63     .text._Z8getanglem:0000000000000012 .Loc.5
C:\Users\kenne\AppData\Local\Temp\ccYle9OK.s:65     .text._Z8getanglem:0000000000000014 .Loc.6
C:\Users\kenne\AppData\Local\Temp\ccYle9OK.s:66     .text._Z8getanglem:0000000000000014 .Loc.7
C:\Users\kenne\AppData\Local\Temp\ccYle9OK.s:67     .text._Z8getanglem:0000000000000014 .Loc.8
C:\Users\kenne\AppData\Local\Temp\ccYle9OK.s:68     .text._Z8getanglem:0000000000000014 .Loc.9
C:\Users\kenne\AppData\Local\Temp\ccYle9OK.s:87     .text._Z8getanglem:0000000000000038 .Loc.10
C:\Users\kenne\AppData\Local\Temp\ccYle9OK.s:93     .text._Z8getanglem:0000000000000040 .Loc.11
C:\Users\kenne\AppData\Local\Temp\ccYle9OK.s:94     .text._Z8getanglem:0000000000000040 .Loc.12
C:\Users\kenne\AppData\Local\Temp\ccYle9OK.s:110    .text._Z8getanglem:000000000000005c .Loc.13
C:\Users\kenne\AppData\Local\Temp\ccYle9OK.s:121    .text._Z8getanglem:0000000000000070 .Loc.14
C:\Users\kenne\AppData\Local\Temp\ccYle9OK.s:129    .text._Z8getanglem:0000000000000080 .Loc.15
C:\Users\kenne\AppData\Local\Temp\ccYle9OK.s:131    .text._Z8getanglem:0000000000000082 .Loc.16
C:\Users\kenne\AppData\Local\Temp\ccYle9OK.s:135    .text._Z8getanglem:0000000000000088 .Loc.17
C:\Users\kenne\AppData\Local\Temp\ccYle9OK.s:136    .text._Z8getanglem:0000000000000088 .Loc.18
C:\Users\kenne\AppData\Local\Temp\ccYle9OK.s:139    .text._Z8getanglem:000000000000008a .Loc.19
C:\Users\kenne\AppData\Local\Temp\ccYle9OK.s:140    .text._Z8getanglem:000000000000008a .Loc.20
C:\Users\kenne\AppData\Local\Temp\ccYle9OK.s:143    .text._Z8getanglem:000000000000008a .Loc.21
C:\Users\kenne\AppData\Local\Temp\ccYle9OK.s:151    .text._Z8getanglem:0000000000000098 L0
C:\Users\kenne\AppData\Local\Temp\ccYle9OK.s:166    .text.main:0000000000000000 main
C:\Users\kenne\AppData\Local\Temp\ccYle9OK.s:168    .text.main:0000000000000000 .Loc.22
C:\Users\kenne\AppData\Local\Temp\ccYle9OK.s:169    .text.main:0000000000000000 L0
C:\Users\kenne\AppData\Local\Temp\ccYle9OK.s:184    .text.main:0000000000000010 .Loc.23
C:\Users\kenne\AppData\Local\Temp\ccYle9OK.s:185    .text.main:0000000000000010 .Loc.24
C:\Users\kenne\AppData\Local\Temp\ccYle9OK.s:190    .text.main:0000000000000018 .Loc.25
C:\Users\kenne\AppData\Local\Temp\ccYle9OK.s:191    .text.main:0000000000000018 .Loc.26
C:\Users\kenne\AppData\Local\Temp\ccYle9OK.s:199    .text.main:0000000000000026 .Loc.27
C:\Users\kenne\AppData\Local\Temp\ccYle9OK.s:200    .text.main:0000000000000026 .Loc.28
C:\Users\kenne\AppData\Local\Temp\ccYle9OK.s:210    .text.main:0000000000000038 .Loc.29
C:\Users\kenne\AppData\Local\Temp\ccYle9OK.s:211    .text.main:0000000000000038 .Loc.30
C:\Users\kenne\AppData\Local\Temp\ccYle9OK.s:265    .text.main:00000000000000a2 .Loc.31
C:\Users\kenne\AppData\Local\Temp\ccYle9OK.s:266    .text.main:00000000000000a2 .Loc.32
C:\Users\kenne\AppData\Local\Temp\ccYle9OK.s:276    .text.main:00000000000000b4 .Loc.33
C:\Users\kenne\AppData\Local\Temp\ccYle9OK.s:277    .text.main:00000000000000b4 .Loc.34
C:\Users\kenne\AppData\Local\Temp\ccYle9OK.s:287    .text.main:00000000000000c6 .Loc.35
C:\Users\kenne\AppData\Local\Temp\ccYle9OK.s:288    .text.main:00000000000000c6 .Loc.36
C:\Users\kenne\AppData\Local\Temp\ccYle9OK.s:296    .text.main:00000000000000d4 .Loc.37
C:\Users\kenne\AppData\Local\Temp\ccYle9OK.s:297    .text.main:00000000000000d4 .Loc.38
C:\Users\kenne\AppData\Local\Temp\ccYle9OK.s:306    .text.main:00000000000000e4 .Loc.39
GAS LISTING C:\Users\kenne\AppData\Local\Temp\ccYle9OK.s 			page 51


C:\Users\kenne\AppData\Local\Temp\ccYle9OK.s:307    .text.main:00000000000000e4 .Loc.40
C:\Users\kenne\AppData\Local\Temp\ccYle9OK.s:312    .text.main:00000000000000ec .Loc.41
C:\Users\kenne\AppData\Local\Temp\ccYle9OK.s:313    .text.main:00000000000000ec .Loc.42
C:\Users\kenne\AppData\Local\Temp\ccYle9OK.s:318    .text.main:00000000000000f4 .Loc.43
C:\Users\kenne\AppData\Local\Temp\ccYle9OK.s:322    .text.main:00000000000000f4 .Loc.44
C:\Users\kenne\AppData\Local\Temp\ccYle9OK.s:324    .text.main:00000000000000f4 .Loc.45
C:\Users\kenne\AppData\Local\Temp\ccYle9OK.s:325    .text.main:00000000000000f4 .Loc.46
C:\Users\kenne\AppData\Local\Temp\ccYle9OK.s:326    .text.main:00000000000000f4 .Loc.47
C:\Users\kenne\AppData\Local\Temp\ccYle9OK.s:327    .text.main:00000000000000f4 .Loc.48
C:\Users\kenne\AppData\Local\Temp\ccYle9OK.s:328    .text.main:00000000000000f4 .Loc.49
C:\Users\kenne\AppData\Local\Temp\ccYle9OK.s:329    .text.main:00000000000000f4 .Loc.50
C:\Users\kenne\AppData\Local\Temp\ccYle9OK.s:330    .text.main:00000000000000f4 .Loc.51
C:\Users\kenne\AppData\Local\Temp\ccYle9OK.s:338    .text.main:0000000000000104 L0
C:\Users\kenne\AppData\Local\Temp\ccYle9OK.s:341    .text.main:0000000000000106 .Loc.52
C:\Users\kenne\AppData\Local\Temp\ccYle9OK.s:344    .text.main:0000000000000106 .Loc.53
C:\Users\kenne\AppData\Local\Temp\ccYle9OK.s:345    .text.main:0000000000000106 .Loc.54
C:\Users\kenne\AppData\Local\Temp\ccYle9OK.s:350    .text.main:000000000000010e .Loc.55
C:\Users\kenne\AppData\Local\Temp\ccYle9OK.s:354    .text.main:0000000000000114 .Loc.56
C:\Users\kenne\AppData\Local\Temp\ccYle9OK.s:358    .text.main:000000000000011a .Loc.57
C:\Users\kenne\AppData\Local\Temp\ccYle9OK.s:359    .text.main:000000000000011a .Loc.58
C:\Users\kenne\AppData\Local\Temp\ccYle9OK.s:364    .text.main:0000000000000122 .Loc.59
C:\Users\kenne\AppData\Local\Temp\ccYle9OK.s:365    .text.main:0000000000000122 .Loc.60
C:\Users\kenne\AppData\Local\Temp\ccYle9OK.s:372    .text.main:000000000000012e .Loc.61
C:\Users\kenne\AppData\Local\Temp\ccYle9OK.s:373    .text.main:000000000000012e .Loc.62
C:\Users\kenne\AppData\Local\Temp\ccYle9OK.s:380    .text.main:000000000000013a .Loc.63
C:\Users\kenne\AppData\Local\Temp\ccYle9OK.s:384    .text.main:000000000000013a .Loc.64
C:\Users\kenne\AppData\Local\Temp\ccYle9OK.s:385    .text.main:000000000000013a .Loc.65
C:\Users\kenne\AppData\Local\Temp\ccYle9OK.s:392    .text.main:000000000000013c .Loc.66
C:\Users\kenne\AppData\Local\Temp\ccYle9OK.s:394    .text.main:000000000000013c .Loc.67
C:\Users\kenne\AppData\Local\Temp\ccYle9OK.s:399    .text.main:000000000000013e .Loc.68
C:\Users\kenne\AppData\Local\Temp\ccYle9OK.s:401    .text.main:000000000000013e .Loc.69
C:\Users\kenne\AppData\Local\Temp\ccYle9OK.s:405    .text.main:000000000000013e .Loc.70
C:\Users\kenne\AppData\Local\Temp\ccYle9OK.s:406    .text.main:000000000000013e .Loc.71
C:\Users\kenne\AppData\Local\Temp\ccYle9OK.s:407    .text.main:000000000000013e .Loc.72
C:\Users\kenne\AppData\Local\Temp\ccYle9OK.s:412    .text.main:000000000000014a .Loc.73
C:\Users\kenne\AppData\Local\Temp\ccYle9OK.s:414    .text.main:000000000000014a .Loc.74
C:\Users\kenne\AppData\Local\Temp\ccYle9OK.s:417    .text.main:000000000000014a .Loc.75
C:\Users\kenne\AppData\Local\Temp\ccYle9OK.s:419    .text.main:000000000000014a .Loc.76
C:\Users\kenne\AppData\Local\Temp\ccYle9OK.s:420    .text.main:000000000000014a .Loc.77
C:\Users\kenne\AppData\Local\Temp\ccYle9OK.s:422    .text.main:000000000000014c .Loc.78
C:\Users\kenne\AppData\Local\Temp\ccYle9OK.s:424    .text.main:000000000000014c .Loc.79
C:\Users\kenne\AppData\Local\Temp\ccYle9OK.s:428    .text.main:000000000000014c .Loc.80
C:\Users\kenne\AppData\Local\Temp\ccYle9OK.s:429    .text.main:000000000000014c .Loc.81
C:\Users\kenne\AppData\Local\Temp\ccYle9OK.s:431    .text.main:000000000000014c .Loc.82
C:\Users\kenne\AppData\Local\Temp\ccYle9OK.s:434    .text.main:000000000000014c .Loc.83
C:\Users\kenne\AppData\Local\Temp\ccYle9OK.s:435    .text.main:000000000000014c .Loc.84
C:\Users\kenne\AppData\Local\Temp\ccYle9OK.s:441    .text.main:000000000000014e .Loc.85
C:\Users\kenne\AppData\Local\Temp\ccYle9OK.s:443    .text.main:000000000000014e .Loc.86
C:\Users\kenne\AppData\Local\Temp\ccYle9OK.s:448    .text.main:0000000000000150 .Loc.87
C:\Users\kenne\AppData\Local\Temp\ccYle9OK.s:450    .text.main:0000000000000150 .Loc.88
C:\Users\kenne\AppData\Local\Temp\ccYle9OK.s:454    .text.main:0000000000000150 .Loc.89
C:\Users\kenne\AppData\Local\Temp\ccYle9OK.s:455    .text.main:0000000000000150 .Loc.90
C:\Users\kenne\AppData\Local\Temp\ccYle9OK.s:456    .text.main:0000000000000150 .Loc.91
C:\Users\kenne\AppData\Local\Temp\ccYle9OK.s:463    .text.main:000000000000015c .Loc.92
C:\Users\kenne\AppData\Local\Temp\ccYle9OK.s:465    .text.main:000000000000015c .Loc.93
C:\Users\kenne\AppData\Local\Temp\ccYle9OK.s:468    .text.main:000000000000015c .Loc.94
C:\Users\kenne\AppData\Local\Temp\ccYle9OK.s:470    .text.main:000000000000015c .Loc.95
GAS LISTING C:\Users\kenne\AppData\Local\Temp\ccYle9OK.s 			page 52


C:\Users\kenne\AppData\Local\Temp\ccYle9OK.s:471    .text.main:000000000000015c .Loc.96
C:\Users\kenne\AppData\Local\Temp\ccYle9OK.s:473    .text.main:000000000000015e .Loc.97
C:\Users\kenne\AppData\Local\Temp\ccYle9OK.s:475    .text.main:000000000000015e .Loc.98
C:\Users\kenne\AppData\Local\Temp\ccYle9OK.s:479    .text.main:000000000000015e .Loc.99
C:\Users\kenne\AppData\Local\Temp\ccYle9OK.s:480    .text.main:000000000000015e .Loc.100
C:\Users\kenne\AppData\Local\Temp\ccYle9OK.s:482    .text.main:000000000000015e .Loc.101
C:\Users\kenne\AppData\Local\Temp\ccYle9OK.s:485    .text.main:000000000000015e .Loc.102
C:\Users\kenne\AppData\Local\Temp\ccYle9OK.s:486    .text.main:000000000000015e .Loc.103
C:\Users\kenne\AppData\Local\Temp\ccYle9OK.s:492    .text.main:0000000000000160 .Loc.104
C:\Users\kenne\AppData\Local\Temp\ccYle9OK.s:494    .text.main:0000000000000160 .Loc.105
C:\Users\kenne\AppData\Local\Temp\ccYle9OK.s:499    .text.main:0000000000000162 .Loc.106
C:\Users\kenne\AppData\Local\Temp\ccYle9OK.s:501    .text.main:0000000000000162 .Loc.107
C:\Users\kenne\AppData\Local\Temp\ccYle9OK.s:505    .text.main:0000000000000162 .Loc.108
C:\Users\kenne\AppData\Local\Temp\ccYle9OK.s:506    .text.main:0000000000000162 .Loc.109
C:\Users\kenne\AppData\Local\Temp\ccYle9OK.s:507    .text.main:0000000000000162 .Loc.110
C:\Users\kenne\AppData\Local\Temp\ccYle9OK.s:512    .text.main:000000000000016a .Loc.111
C:\Users\kenne\AppData\Local\Temp\ccYle9OK.s:514    .text.main:000000000000016a .Loc.112
C:\Users\kenne\AppData\Local\Temp\ccYle9OK.s:517    .text.main:000000000000016a .Loc.113
C:\Users\kenne\AppData\Local\Temp\ccYle9OK.s:519    .text.main:000000000000016a .Loc.114
C:\Users\kenne\AppData\Local\Temp\ccYle9OK.s:520    .text.main:000000000000016a .Loc.115
C:\Users\kenne\AppData\Local\Temp\ccYle9OK.s:522    .text.main:000000000000016c .Loc.116
C:\Users\kenne\AppData\Local\Temp\ccYle9OK.s:524    .text.main:000000000000016c .Loc.117
C:\Users\kenne\AppData\Local\Temp\ccYle9OK.s:528    .text.main:000000000000016c .Loc.118
C:\Users\kenne\AppData\Local\Temp\ccYle9OK.s:529    .text.main:000000000000016c .Loc.119
C:\Users\kenne\AppData\Local\Temp\ccYle9OK.s:531    .text.main:000000000000016c .Loc.120
C:\Users\kenne\AppData\Local\Temp\ccYle9OK.s:532    .text.main:000000000000016c .Loc.121
C:\Users\kenne\AppData\Local\Temp\ccYle9OK.s:533    .text.main:000000000000016c .Loc.122
C:\Users\kenne\AppData\Local\Temp\ccYle9OK.s:890    .data.aux:0000000000000000 aux
C:\Users\kenne\AppData\Local\Temp\ccYle9OK.s:539    .text.main:0000000000000174 .Loc.123
C:\Users\kenne\AppData\Local\Temp\ccYle9OK.s:540    .text.main:0000000000000174 .Loc.124
C:\Users\kenne\AppData\Local\Temp\ccYle9OK.s:546    .text.main:0000000000000176 .Loc.125
C:\Users\kenne\AppData\Local\Temp\ccYle9OK.s:548    .text.main:0000000000000176 .Loc.126
C:\Users\kenne\AppData\Local\Temp\ccYle9OK.s:553    .text.main:0000000000000178 .Loc.127
C:\Users\kenne\AppData\Local\Temp\ccYle9OK.s:555    .text.main:0000000000000178 .Loc.128
C:\Users\kenne\AppData\Local\Temp\ccYle9OK.s:559    .text.main:0000000000000178 .Loc.129
C:\Users\kenne\AppData\Local\Temp\ccYle9OK.s:560    .text.main:0000000000000178 .Loc.130
C:\Users\kenne\AppData\Local\Temp\ccYle9OK.s:561    .text.main:0000000000000178 .Loc.131
C:\Users\kenne\AppData\Local\Temp\ccYle9OK.s:564    .text.main:000000000000017c .Loc.132
C:\Users\kenne\AppData\Local\Temp\ccYle9OK.s:566    .text.main:000000000000017c .Loc.133
C:\Users\kenne\AppData\Local\Temp\ccYle9OK.s:569    .text.main:000000000000017c .Loc.134
C:\Users\kenne\AppData\Local\Temp\ccYle9OK.s:571    .text.main:000000000000017c .Loc.135
C:\Users\kenne\AppData\Local\Temp\ccYle9OK.s:572    .text.main:000000000000017c .Loc.136
C:\Users\kenne\AppData\Local\Temp\ccYle9OK.s:574    .text.main:000000000000017e .Loc.137
C:\Users\kenne\AppData\Local\Temp\ccYle9OK.s:576    .text.main:000000000000017e .Loc.138
C:\Users\kenne\AppData\Local\Temp\ccYle9OK.s:580    .text.main:000000000000017e .Loc.139
C:\Users\kenne\AppData\Local\Temp\ccYle9OK.s:581    .text.main:000000000000017e .Loc.140
C:\Users\kenne\AppData\Local\Temp\ccYle9OK.s:583    .text.main:000000000000017e .Loc.141
C:\Users\kenne\AppData\Local\Temp\ccYle9OK.s:584    .text.main:000000000000017e .Loc.142
C:\Users\kenne\AppData\Local\Temp\ccYle9OK.s:585    .text.main:000000000000017e .Loc.143
C:\Users\kenne\AppData\Local\Temp\ccYle9OK.s:588    .text.main:0000000000000180 .Loc.144
C:\Users\kenne\AppData\Local\Temp\ccYle9OK.s:593    .text.main:0000000000000188 .Loc.145
C:\Users\kenne\AppData\Local\Temp\ccYle9OK.s:594    .text.main:0000000000000188 .Loc.146
C:\Users\kenne\AppData\Local\Temp\ccYle9OK.s:595    .text.main:0000000000000188 .Loc.147
C:\Users\kenne\AppData\Local\Temp\ccYle9OK.s:603    .text.main:000000000000019e .Loc.148
C:\Users\kenne\AppData\Local\Temp\ccYle9OK.s:608    .text.main:00000000000001ae .Loc.149
C:\Users\kenne\AppData\Local\Temp\ccYle9OK.s:614    .text.main:00000000000001b8 .Loc.150
C:\Users\kenne\AppData\Local\Temp\ccYle9OK.s:615    .text.main:00000000000001b8 .Loc.151
GAS LISTING C:\Users\kenne\AppData\Local\Temp\ccYle9OK.s 			page 53


C:\Users\kenne\AppData\Local\Temp\ccYle9OK.s:625    .text.main:00000000000001d0 .Loc.152
C:\Users\kenne\AppData\Local\Temp\ccYle9OK.s:626    .text.main:00000000000001d0 .Loc.153
C:\Users\kenne\AppData\Local\Temp\ccYle9OK.s:631    .text.main:00000000000001e0 .Loc.154
C:\Users\kenne\AppData\Local\Temp\ccYle9OK.s:634    .text.main:00000000000001e2 .Loc.155
C:\Users\kenne\AppData\Local\Temp\ccYle9OK.s:635    .text.main:00000000000001e2 .Loc.156
C:\Users\kenne\AppData\Local\Temp\ccYle9OK.s:636    .text.main:00000000000001e2 .Loc.157
C:\Users\kenne\AppData\Local\Temp\ccYle9OK.s:645    .text.main:00000000000001fa .Loc.158
C:\Users\kenne\AppData\Local\Temp\ccYle9OK.s:646    .text.main:00000000000001fa .Loc.159
C:\Users\kenne\AppData\Local\Temp\ccYle9OK.s:649    .text.main:0000000000000202 .Loc.160
C:\Users\kenne\AppData\Local\Temp\ccYle9OK.s:651    .text.main:0000000000000202 .Loc.161
C:\Users\kenne\AppData\Local\Temp\ccYle9OK.s:652    .text.main:0000000000000202 .Loc.162
C:\Users\kenne\AppData\Local\Temp\ccYle9OK.s:653    .text.main:0000000000000202 .Loc.163
C:\Users\kenne\AppData\Local\Temp\ccYle9OK.s:666    .text.main:0000000000000222 .Loc.164
C:\Users\kenne\AppData\Local\Temp\ccYle9OK.s:884    .bss.angulo:0000000000000000 angulo
C:\Users\kenne\AppData\Local\Temp\ccYle9OK.s:669    .text.main:000000000000022a .Loc.165
C:\Users\kenne\AppData\Local\Temp\ccYle9OK.s:670    .text.main:000000000000022a .Loc.166
C:\Users\kenne\AppData\Local\Temp\ccYle9OK.s:675    .text.main:0000000000000232 .Loc.167
C:\Users\kenne\AppData\Local\Temp\ccYle9OK.s:676    .text.main:0000000000000232 .Loc.168
C:\Users\kenne\AppData\Local\Temp\ccYle9OK.s:695    .text.main:0000000000000262 .Loc.169
C:\Users\kenne\AppData\Local\Temp\ccYle9OK.s:698    .text.main:0000000000000262 .Loc.170
C:\Users\kenne\AppData\Local\Temp\ccYle9OK.s:700    .text.main:0000000000000262 .Loc.171
C:\Users\kenne\AppData\Local\Temp\ccYle9OK.s:701    .text.main:0000000000000262 .Loc.172
C:\Users\kenne\AppData\Local\Temp\ccYle9OK.s:702    .text.main:0000000000000262 .Loc.173
C:\Users\kenne\AppData\Local\Temp\ccYle9OK.s:703    .text.main:0000000000000262 .Loc.174
C:\Users\kenne\AppData\Local\Temp\ccYle9OK.s:704    .text.main:0000000000000262 .Loc.175
C:\Users\kenne\AppData\Local\Temp\ccYle9OK.s:705    .text.main:0000000000000262 .Loc.176
C:\Users\kenne\AppData\Local\Temp\ccYle9OK.s:706    .text.main:0000000000000262 .Loc.177
C:\Users\kenne\AppData\Local\Temp\ccYle9OK.s:714    .text.main:0000000000000272 L0
C:\Users\kenne\AppData\Local\Temp\ccYle9OK.s:717    .text.main:0000000000000274 .Loc.178
C:\Users\kenne\AppData\Local\Temp\ccYle9OK.s:720    .text.main:0000000000000274 .Loc.179
C:\Users\kenne\AppData\Local\Temp\ccYle9OK.s:721    .text.main:0000000000000274 .Loc.180
C:\Users\kenne\AppData\Local\Temp\ccYle9OK.s:729    .text.main:0000000000000282 .Loc.181
C:\Users\kenne\AppData\Local\Temp\ccYle9OK.s:730    .text.main:0000000000000282 .Loc.182
C:\Users\kenne\AppData\Local\Temp\ccYle9OK.s:739    .text.main:0000000000000294 L0
C:\Users\kenne\AppData\Local\Temp\ccYle9OK.s:744    .text.main:000000000000029e L0
C:\Users\kenne\AppData\Local\Temp\ccYle9OK.s:746    .text.main:00000000000002a0 .Loc.183
C:\Users\kenne\AppData\Local\Temp\ccYle9OK.s:747    .text.main:00000000000002a0 .Loc.184
C:\Users\kenne\AppData\Local\Temp\ccYle9OK.s:748    .text.main:00000000000002a0 .Loc.185
C:\Users\kenne\AppData\Local\Temp\ccYle9OK.s:753    .text.main:00000000000002a8 .Loc.186
C:\Users\kenne\AppData\Local\Temp\ccYle9OK.s:756    .text.main:00000000000002aa .Loc.187
C:\Users\kenne\AppData\Local\Temp\ccYle9OK.s:757    .text.main:00000000000002aa .Loc.188
C:\Users\kenne\AppData\Local\Temp\ccYle9OK.s:758    .text.main:00000000000002aa .Loc.189
C:\Users\kenne\AppData\Local\Temp\ccYle9OK.s:766    .text.main:00000000000002c0 .Loc.190
C:\Users\kenne\AppData\Local\Temp\ccYle9OK.s:771    .text.main:00000000000002d0 .Loc.191
C:\Users\kenne\AppData\Local\Temp\ccYle9OK.s:777    .text.main:00000000000002da .Loc.192
C:\Users\kenne\AppData\Local\Temp\ccYle9OK.s:778    .text.main:00000000000002da .Loc.193
C:\Users\kenne\AppData\Local\Temp\ccYle9OK.s:788    .text.main:00000000000002f2 .Loc.194
C:\Users\kenne\AppData\Local\Temp\ccYle9OK.s:789    .text.main:00000000000002f2 .Loc.195
C:\Users\kenne\AppData\Local\Temp\ccYle9OK.s:794    .text.main:0000000000000302 .Loc.196
C:\Users\kenne\AppData\Local\Temp\ccYle9OK.s:798    .text.main:0000000000000304 .Loc.197
C:\Users\kenne\AppData\Local\Temp\ccYle9OK.s:799    .text.main:0000000000000304 .Loc.198
C:\Users\kenne\AppData\Local\Temp\ccYle9OK.s:800    .text.main:0000000000000304 .Loc.199
C:\Users\kenne\AppData\Local\Temp\ccYle9OK.s:813    .text.main:0000000000000324 .Loc.200
C:\Users\kenne\AppData\Local\Temp\ccYle9OK.s:816    .text.main:000000000000032c .Loc.201
C:\Users\kenne\AppData\Local\Temp\ccYle9OK.s:817    .text.main:000000000000032c .Loc.202
C:\Users\kenne\AppData\Local\Temp\ccYle9OK.s:822    .text.main:0000000000000334 .Loc.203
C:\Users\kenne\AppData\Local\Temp\ccYle9OK.s:823    .text.main:0000000000000334 .Loc.204
GAS LISTING C:\Users\kenne\AppData\Local\Temp\ccYle9OK.s 			page 54


C:\Users\kenne\AppData\Local\Temp\ccYle9OK.s:834    .text.main:000000000000034c .Loc.205
C:\Users\kenne\AppData\Local\Temp\ccYle9OK.s:835    .text.main:000000000000034c .Loc.206
C:\Users\kenne\AppData\Local\Temp\ccYle9OK.s:842    .text.main:0000000000000358 .Loc.207
C:\Users\kenne\AppData\Local\Temp\ccYle9OK.s:843    .text.main:0000000000000358 .Loc.208
C:\Users\kenne\AppData\Local\Temp\ccYle9OK.s:850    .text.main:0000000000000364 .Loc.209
C:\Users\kenne\AppData\Local\Temp\ccYle9OK.s:851    .text.main:0000000000000364 .Loc.210
C:\Users\kenne\AppData\Local\Temp\ccYle9OK.s:858    .text.main:0000000000000370 .Loc.211
C:\Users\kenne\AppData\Local\Temp\ccYle9OK.s:866    .text.main:000000000000037c .Loc.212
C:\Users\kenne\AppData\Local\Temp\ccYle9OK.s:867    .text.main:000000000000037c .Loc.213
C:\Users\kenne\AppData\Local\Temp\ccYle9OK.s:868    .text.main:000000000000037c .Loc.214
C:\Users\kenne\AppData\Local\Temp\ccYle9OK.s:877    .text.main:000000000000038c L0
C:\Users\kenne\AppData\Local\Temp\ccYle9OK.s:33     .text._Z7getTickv:0000000000000008 L0
C:\Users\kenne\AppData\Local\Temp\ccYle9OK.s:154    .text._Z8getanglem:0000000000000098 L0
C:\Users\kenne\AppData\Local\Temp\ccYle9OK.s:881    .text.main:000000000000038c L0
                     .debug_frame:0000000000000000 L0
C:\Users\kenne\AppData\Local\Temp\ccYle9OK.s:141    .text._Z8getanglem:000000000000008a .L2
C:\Users\kenne\AppData\Local\Temp\ccYle9OK.s:334    .text.main:00000000000000fa .L11
C:\Users\kenne\AppData\Local\Temp\ccYle9OK.s:650    .text.main:0000000000000202 .L9
C:\Users\kenne\AppData\Local\Temp\ccYle9OK.s:633    .text.main:00000000000001e2 .L7
C:\Users\kenne\AppData\Local\Temp\ccYle9OK.s:624    .text.main:00000000000001d0 .L12
C:\Users\kenne\AppData\Local\Temp\ccYle9OK.s:710    .text.main:0000000000000268 .L12
C:\Users\kenne\AppData\Local\Temp\ccYle9OK.s:755    .text.main:00000000000002aa .L18
C:\Users\kenne\AppData\Local\Temp\ccYle9OK.s:587    .text.main:0000000000000180 .L19
C:\Users\kenne\AppData\Local\Temp\ccYle9OK.s:796    .text.main:0000000000000304 .L10
C:\Users\kenne\AppData\Local\Temp\ccYle9OK.s:787    .text.main:00000000000002f2 .L13
C:\Users\kenne\AppData\Local\Temp\ccYle9OK.s:865    .text.main:000000000000037c .L16
C:\Users\kenne\AppData\Local\Temp\ccYle9OK.s:3521   .debug_abbrev:0000000000000000 .Ldebug_abbrev0
C:\Users\kenne\AppData\Local\Temp\ccYle9OK.s:5094   .debug_rnglists:000000000000000c .LLRL30
C:\Users\kenne\AppData\Local\Temp\ccYle9OK.s:5107   .debug_line:0000000000000000 .Ldebug_line0
C:\Users\kenne\AppData\Local\Temp\ccYle9OK.s:167    .text.main:0000000000000000 .LFB56
C:\Users\kenne\AppData\Local\Temp\ccYle9OK.s:878    .text.main:000000000000038c .LFE56
C:\Users\kenne\AppData\Local\Temp\ccYle9OK.s:4641   .debug_loclists:0000000000000010 .LLST3
C:\Users\kenne\AppData\Local\Temp\ccYle9OK.s:4636   .debug_loclists:000000000000000c .LVUS3
C:\Users\kenne\AppData\Local\Temp\ccYle9OK.s:320    .text.main:00000000000000f4 .LBI50
C:\Users\kenne\AppData\Local\Temp\ccYle9OK.s:319    .text.main:00000000000000f4 .LBB50
C:\Users\kenne\AppData\Local\Temp\ccYle9OK.s:343    .text.main:0000000000000106 .LBE50
C:\Users\kenne\AppData\Local\Temp\ccYle9OK.s:4660   .debug_loclists:0000000000000027 .LLST4
C:\Users\kenne\AppData\Local\Temp\ccYle9OK.s:4657   .debug_loclists:0000000000000025 .LVUS4
C:\Users\kenne\AppData\Local\Temp\ccYle9OK.s:4672   .debug_loclists:0000000000000037 .LLST5
C:\Users\kenne\AppData\Local\Temp\ccYle9OK.s:4669   .debug_loclists:0000000000000035 .LVUS5
C:\Users\kenne\AppData\Local\Temp\ccYle9OK.s:4684   .debug_loclists:0000000000000047 .LLST6
C:\Users\kenne\AppData\Local\Temp\ccYle9OK.s:4681   .debug_loclists:0000000000000045 .LVUS6
C:\Users\kenne\AppData\Local\Temp\ccYle9OK.s:382    .text.main:000000000000013a .LBI52
C:\Users\kenne\AppData\Local\Temp\ccYle9OK.s:381    .text.main:000000000000013a .LBB52
C:\Users\kenne\AppData\Local\Temp\ccYle9OK.s:430    .text.main:000000000000014c .LBE52
C:\Users\kenne\AppData\Local\Temp\ccYle9OK.s:4696   .debug_loclists:0000000000000057 .LLST7
C:\Users\kenne\AppData\Local\Temp\ccYle9OK.s:4693   .debug_loclists:0000000000000055 .LVUS7
C:\Users\kenne\AppData\Local\Temp\ccYle9OK.s:4708   .debug_loclists:0000000000000064 .LLST8
C:\Users\kenne\AppData\Local\Temp\ccYle9OK.s:4705   .debug_loclists:0000000000000062 .LVUS8
C:\Users\kenne\AppData\Local\Temp\ccYle9OK.s:386    .text.main:000000000000013a .LBB53
C:\Users\kenne\AppData\Local\Temp\ccYle9OK.s:427    .text.main:000000000000014c .LBE53
C:\Users\kenne\AppData\Local\Temp\ccYle9OK.s:4720   .debug_loclists:0000000000000072 .LLST9
C:\Users\kenne\AppData\Local\Temp\ccYle9OK.s:4717   .debug_loclists:0000000000000070 .LVUS9
C:\Users\kenne\AppData\Local\Temp\ccYle9OK.s:4732   .debug_loclists:000000000000007f .LLST10
C:\Users\kenne\AppData\Local\Temp\ccYle9OK.s:4727   .debug_loclists:000000000000007b .LVUS10
C:\Users\kenne\AppData\Local\Temp\ccYle9OK.s:390    .text.main:000000000000013c .LBI54
C:\Users\kenne\AppData\Local\Temp\ccYle9OK.s:389    .text.main:000000000000013c .LBB54
GAS LISTING C:\Users\kenne\AppData\Local\Temp\ccYle9OK.s 			page 55


C:\Users\kenne\AppData\Local\Temp\ccYle9OK.s:404    .text.main:000000000000013e .LBE54
C:\Users\kenne\AppData\Local\Temp\ccYle9OK.s:416    .text.main:000000000000014a .LBI56
C:\Users\kenne\AppData\Local\Temp\ccYle9OK.s:415    .text.main:000000000000014a .LBB56
C:\Users\kenne\AppData\Local\Temp\ccYle9OK.s:426    .text.main:000000000000014c .LBE56
C:\Users\kenne\AppData\Local\Temp\ccYle9OK.s:4751   .debug_loclists:0000000000000093 .LLST11
C:\Users\kenne\AppData\Local\Temp\ccYle9OK.s:4748   .debug_loclists:0000000000000091 .LVUS11
C:\Users\kenne\AppData\Local\Temp\ccYle9OK.s:433    .text.main:000000000000014c .LBI58
C:\Users\kenne\AppData\Local\Temp\ccYle9OK.s:432    .text.main:000000000000014c .LBB58
C:\Users\kenne\AppData\Local\Temp\ccYle9OK.s:481    .text.main:000000000000015e .LBE58
C:\Users\kenne\AppData\Local\Temp\ccYle9OK.s:4763   .debug_loclists:00000000000000a3 .LLST12
C:\Users\kenne\AppData\Local\Temp\ccYle9OK.s:4760   .debug_loclists:00000000000000a1 .LVUS12
C:\Users\kenne\AppData\Local\Temp\ccYle9OK.s:4775   .debug_loclists:00000000000000b1 .LLST13
C:\Users\kenne\AppData\Local\Temp\ccYle9OK.s:4772   .debug_loclists:00000000000000af .LVUS13
C:\Users\kenne\AppData\Local\Temp\ccYle9OK.s:436    .text.main:000000000000014c .LBB59
C:\Users\kenne\AppData\Local\Temp\ccYle9OK.s:478    .text.main:000000000000015e .LBE59
C:\Users\kenne\AppData\Local\Temp\ccYle9OK.s:4787   .debug_loclists:00000000000000bf .LLST14
C:\Users\kenne\AppData\Local\Temp\ccYle9OK.s:4784   .debug_loclists:00000000000000bd .LVUS14
C:\Users\kenne\AppData\Local\Temp\ccYle9OK.s:4799   .debug_loclists:00000000000000cc .LLST15
C:\Users\kenne\AppData\Local\Temp\ccYle9OK.s:4794   .debug_loclists:00000000000000c8 .LVUS15
C:\Users\kenne\AppData\Local\Temp\ccYle9OK.s:440    .text.main:000000000000014e .LBI60
C:\Users\kenne\AppData\Local\Temp\ccYle9OK.s:439    .text.main:000000000000014e .LBB60
C:\Users\kenne\AppData\Local\Temp\ccYle9OK.s:453    .text.main:0000000000000150 .LBE60
C:\Users\kenne\AppData\Local\Temp\ccYle9OK.s:467    .text.main:000000000000015c .LBI62
C:\Users\kenne\AppData\Local\Temp\ccYle9OK.s:466    .text.main:000000000000015c .LBB62
C:\Users\kenne\AppData\Local\Temp\ccYle9OK.s:477    .text.main:000000000000015e .LBE62
C:\Users\kenne\AppData\Local\Temp\ccYle9OK.s:4818   .debug_loclists:00000000000000e0 .LLST16
C:\Users\kenne\AppData\Local\Temp\ccYle9OK.s:4815   .debug_loclists:00000000000000de .LVUS16
C:\Users\kenne\AppData\Local\Temp\ccYle9OK.s:484    .text.main:000000000000015e .LBI64
C:\Users\kenne\AppData\Local\Temp\ccYle9OK.s:483    .text.main:000000000000015e .LBB64
C:\Users\kenne\AppData\Local\Temp\ccYle9OK.s:530    .text.main:000000000000016c .LBE64
C:\Users\kenne\AppData\Local\Temp\ccYle9OK.s:4830   .debug_loclists:00000000000000f0 .LLST17
C:\Users\kenne\AppData\Local\Temp\ccYle9OK.s:4827   .debug_loclists:00000000000000ee .LVUS17
C:\Users\kenne\AppData\Local\Temp\ccYle9OK.s:4842   .debug_loclists:00000000000000fe .LLST18
C:\Users\kenne\AppData\Local\Temp\ccYle9OK.s:4839   .debug_loclists:00000000000000fc .LVUS18
C:\Users\kenne\AppData\Local\Temp\ccYle9OK.s:487    .text.main:000000000000015e .LBB65
C:\Users\kenne\AppData\Local\Temp\ccYle9OK.s:527    .text.main:000000000000016c .LBE65
C:\Users\kenne\AppData\Local\Temp\ccYle9OK.s:4854   .debug_loclists:000000000000010c .LLST19
C:\Users\kenne\AppData\Local\Temp\ccYle9OK.s:4851   .debug_loclists:000000000000010a .LVUS19
C:\Users\kenne\AppData\Local\Temp\ccYle9OK.s:4866   .debug_loclists:0000000000000119 .LLST20
C:\Users\kenne\AppData\Local\Temp\ccYle9OK.s:4861   .debug_loclists:0000000000000115 .LVUS20
C:\Users\kenne\AppData\Local\Temp\ccYle9OK.s:491    .text.main:0000000000000160 .LBI66
C:\Users\kenne\AppData\Local\Temp\ccYle9OK.s:490    .text.main:0000000000000160 .LBB66
C:\Users\kenne\AppData\Local\Temp\ccYle9OK.s:504    .text.main:0000000000000162 .LBE66
C:\Users\kenne\AppData\Local\Temp\ccYle9OK.s:516    .text.main:000000000000016a .LBI68
C:\Users\kenne\AppData\Local\Temp\ccYle9OK.s:515    .text.main:000000000000016a .LBB68
C:\Users\kenne\AppData\Local\Temp\ccYle9OK.s:526    .text.main:000000000000016c .LBE68
C:\Users\kenne\AppData\Local\Temp\ccYle9OK.s:4885   .debug_loclists:000000000000012d .LLST21
C:\Users\kenne\AppData\Local\Temp\ccYle9OK.s:4882   .debug_loclists:000000000000012b .LVUS21
C:\Users\kenne\AppData\Local\Temp\ccYle9OK.s:538    .text.main:0000000000000174 .LBI70
C:\Users\kenne\AppData\Local\Temp\ccYle9OK.s:537    .text.main:0000000000000174 .LBB70
C:\Users\kenne\AppData\Local\Temp\ccYle9OK.s:582    .text.main:000000000000017e .LBE70
C:\Users\kenne\AppData\Local\Temp\ccYle9OK.s:4897   .debug_loclists:000000000000013d .LLST22
C:\Users\kenne\AppData\Local\Temp\ccYle9OK.s:4894   .debug_loclists:000000000000013b .LVUS22
C:\Users\kenne\AppData\Local\Temp\ccYle9OK.s:4912   .debug_loclists:000000000000014d .LLST23
C:\Users\kenne\AppData\Local\Temp\ccYle9OK.s:4909   .debug_loclists:000000000000014b .LVUS23
C:\Users\kenne\AppData\Local\Temp\ccYle9OK.s:541    .text.main:0000000000000174 .LBB71
C:\Users\kenne\AppData\Local\Temp\ccYle9OK.s:579    .text.main:000000000000017e .LBE71
GAS LISTING C:\Users\kenne\AppData\Local\Temp\ccYle9OK.s 			page 56


C:\Users\kenne\AppData\Local\Temp\ccYle9OK.s:4924   .debug_loclists:000000000000015b .LLST24
C:\Users\kenne\AppData\Local\Temp\ccYle9OK.s:4921   .debug_loclists:0000000000000159 .LVUS24
C:\Users\kenne\AppData\Local\Temp\ccYle9OK.s:4936   .debug_loclists:0000000000000168 .LLST25
C:\Users\kenne\AppData\Local\Temp\ccYle9OK.s:4931   .debug_loclists:0000000000000164 .LVUS25
C:\Users\kenne\AppData\Local\Temp\ccYle9OK.s:545    .text.main:0000000000000176 .LBI72
C:\Users\kenne\AppData\Local\Temp\ccYle9OK.s:544    .text.main:0000000000000176 .LBB72
C:\Users\kenne\AppData\Local\Temp\ccYle9OK.s:558    .text.main:0000000000000178 .LBE72
C:\Users\kenne\AppData\Local\Temp\ccYle9OK.s:568    .text.main:000000000000017c .LBI74
C:\Users\kenne\AppData\Local\Temp\ccYle9OK.s:567    .text.main:000000000000017c .LBB74
C:\Users\kenne\AppData\Local\Temp\ccYle9OK.s:578    .text.main:000000000000017e .LBE74
C:\Users\kenne\AppData\Local\Temp\ccYle9OK.s:4955   .debug_loclists:000000000000017c .LLST26
C:\Users\kenne\AppData\Local\Temp\ccYle9OK.s:4952   .debug_loclists:000000000000017a .LVUS26
C:\Users\kenne\AppData\Local\Temp\ccYle9OK.s:697    .text.main:0000000000000262 .LBI76
C:\Users\kenne\AppData\Local\Temp\ccYle9OK.s:696    .text.main:0000000000000262 .LBB76
C:\Users\kenne\AppData\Local\Temp\ccYle9OK.s:719    .text.main:0000000000000274 .LBE76
C:\Users\kenne\AppData\Local\Temp\ccYle9OK.s:4967   .debug_loclists:000000000000018c .LLST27
C:\Users\kenne\AppData\Local\Temp\ccYle9OK.s:4964   .debug_loclists:000000000000018a .LVUS27
C:\Users\kenne\AppData\Local\Temp\ccYle9OK.s:4979   .debug_loclists:000000000000019c .LLST28
C:\Users\kenne\AppData\Local\Temp\ccYle9OK.s:4976   .debug_loclists:000000000000019a .LVUS28
C:\Users\kenne\AppData\Local\Temp\ccYle9OK.s:4991   .debug_loclists:00000000000001ac .LLST29
C:\Users\kenne\AppData\Local\Temp\ccYle9OK.s:4988   .debug_loclists:00000000000001aa .LVUS29
C:\Users\kenne\AppData\Local\Temp\ccYle9OK.s:189    .text.main:0000000000000018 .LVL5
C:\Users\kenne\AppData\Local\Temp\ccYle9OK.s:198    .text.main:0000000000000026 .LVL6
C:\Users\kenne\AppData\Local\Temp\ccYle9OK.s:209    .text.main:0000000000000038 .LVL7
C:\Users\kenne\AppData\Local\Temp\ccYle9OK.s:264    .text.main:00000000000000a2 .LVL8
C:\Users\kenne\AppData\Local\Temp\ccYle9OK.s:275    .text.main:00000000000000b4 .LVL9
C:\Users\kenne\AppData\Local\Temp\ccYle9OK.s:286    .text.main:00000000000000c6 .LVL10
C:\Users\kenne\AppData\Local\Temp\ccYle9OK.s:295    .text.main:00000000000000d4 .LVL11
C:\Users\kenne\AppData\Local\Temp\ccYle9OK.s:305    .text.main:00000000000000e4 .LVL12
C:\Users\kenne\AppData\Local\Temp\ccYle9OK.s:311    .text.main:00000000000000ec .LVL13
C:\Users\kenne\AppData\Local\Temp\ccYle9OK.s:317    .text.main:00000000000000f4 .LVL14
C:\Users\kenne\AppData\Local\Temp\ccYle9OK.s:349    .text.main:000000000000010e .LVL16
C:\Users\kenne\AppData\Local\Temp\ccYle9OK.s:363    .text.main:0000000000000122 .LVL17
C:\Users\kenne\AppData\Local\Temp\ccYle9OK.s:371    .text.main:000000000000012e .LVL18
C:\Users\kenne\AppData\Local\Temp\ccYle9OK.s:379    .text.main:000000000000013a .LVL19
C:\Users\kenne\AppData\Local\Temp\ccYle9OK.s:665    .text.main:0000000000000222 .LVL37
C:\Users\kenne\AppData\Local\Temp\ccYle9OK.s:674    .text.main:0000000000000232 .LVL38
C:\Users\kenne\AppData\Local\Temp\ccYle9OK.s:694    .text.main:0000000000000262 .LVL39
C:\Users\kenne\AppData\Local\Temp\ccYle9OK.s:728    .text.main:0000000000000282 .LVL41
C:\Users\kenne\AppData\Local\Temp\ccYle9OK.s:752    .text.main:00000000000002a8 .LVL42
C:\Users\kenne\AppData\Local\Temp\ccYle9OK.s:812    .text.main:0000000000000324 .LVL44
C:\Users\kenne\AppData\Local\Temp\ccYle9OK.s:821    .text.main:0000000000000334 .LVL45
C:\Users\kenne\AppData\Local\Temp\ccYle9OK.s:833    .text.main:000000000000034c .LVL46
C:\Users\kenne\AppData\Local\Temp\ccYle9OK.s:841    .text.main:0000000000000358 .LVL47
C:\Users\kenne\AppData\Local\Temp\ccYle9OK.s:849    .text.main:0000000000000364 .LVL48
C:\Users\kenne\AppData\Local\Temp\ccYle9OK.s:857    .text.main:0000000000000370 .LVL49
C:\Users\kenne\AppData\Local\Temp\ccYle9OK.s:875    .text.main:000000000000038a .LVL50
C:\Users\kenne\AppData\Local\Temp\ccYle9OK.s:38     .text._Z8getanglem:0000000000000000 .LFB55
C:\Users\kenne\AppData\Local\Temp\ccYle9OK.s:152    .text._Z8getanglem:0000000000000098 .LFE55
C:\Users\kenne\AppData\Local\Temp\ccYle9OK.s:5005   .debug_loclists:00000000000001be .LLST0
C:\Users\kenne\AppData\Local\Temp\ccYle9OK.s:5000   .debug_loclists:00000000000001ba .LVUS0
C:\Users\kenne\AppData\Local\Temp\ccYle9OK.s:5036   .debug_loclists:00000000000001df .LLST1
C:\Users\kenne\AppData\Local\Temp\ccYle9OK.s:5033   .debug_loclists:00000000000001dd .LVUS1
C:\Users\kenne\AppData\Local\Temp\ccYle9OK.s:5057   .debug_loclists:00000000000001f5 .LLST2
C:\Users\kenne\AppData\Local\Temp\ccYle9OK.s:5054   .debug_loclists:00000000000001f3 .LVUS2
C:\Users\kenne\AppData\Local\Temp\ccYle9OK.s:15     .text._Z7getTickv:0000000000000000 .LFB32
C:\Users\kenne\AppData\Local\Temp\ccYle9OK.s:31     .text._Z7getTickv:0000000000000008 .LFE32
GAS LISTING C:\Users\kenne\AppData\Local\Temp\ccYle9OK.s 			page 57


C:\Users\kenne\AppData\Local\Temp\ccYle9OK.s:575    .text.main:000000000000017e .LVL36
C:\Users\kenne\AppData\Local\Temp\ccYle9OK.s:388    .text.main:000000000000013c .LVL20
C:\Users\kenne\AppData\Local\Temp\ccYle9OK.s:400    .text.main:000000000000013e .LVL21
C:\Users\kenne\AppData\Local\Temp\ccYle9OK.s:413    .text.main:000000000000014a .LVL22
C:\Users\kenne\AppData\Local\Temp\ccYle9OK.s:904    .debug_info:0000000000000000 .Ldebug_info0
C:\Users\kenne\AppData\Local\Temp\ccYle9OK.s:423    .text.main:000000000000014c .LVL23
C:\Users\kenne\AppData\Local\Temp\ccYle9OK.s:438    .text.main:000000000000014e .LVL24
C:\Users\kenne\AppData\Local\Temp\ccYle9OK.s:449    .text.main:0000000000000150 .LVL25
C:\Users\kenne\AppData\Local\Temp\ccYle9OK.s:464    .text.main:000000000000015c .LVL26
C:\Users\kenne\AppData\Local\Temp\ccYle9OK.s:474    .text.main:000000000000015e .LVL27
C:\Users\kenne\AppData\Local\Temp\ccYle9OK.s:489    .text.main:0000000000000160 .LVL28
C:\Users\kenne\AppData\Local\Temp\ccYle9OK.s:500    .text.main:0000000000000162 .LVL29
C:\Users\kenne\AppData\Local\Temp\ccYle9OK.s:513    .text.main:000000000000016a .LVL30
C:\Users\kenne\AppData\Local\Temp\ccYle9OK.s:536    .text.main:0000000000000174 .LVL32
C:\Users\kenne\AppData\Local\Temp\ccYle9OK.s:543    .text.main:0000000000000176 .LVL33
C:\Users\kenne\AppData\Local\Temp\ccYle9OK.s:554    .text.main:0000000000000178 .LVL34
C:\Users\kenne\AppData\Local\Temp\ccYle9OK.s:565    .text.main:000000000000017c .LVL35
C:\Users\kenne\AppData\Local\Temp\ccYle9OK.s:37     .text._Z8getanglem:0000000000000000 .LVL0
C:\Users\kenne\AppData\Local\Temp\ccYle9OK.s:92     .text._Z8getanglem:0000000000000040 .LVL2
C:\Users\kenne\AppData\Local\Temp\ccYle9OK.s:138    .text._Z8getanglem:000000000000008a .LVL4

UNDEFINED SYMBOLS
__divmodsi4
_ZN7Hd44780C1Ev
_ZN6KeypadC1Ev
_ZN6Keypad8setPortsEPVhhS1_h
_ZN6Keypad12setKeyValuesENS_4TypeEz
_ZN6Keypad4initEh
_ZN7Hd4478014controlPortSetEPVhhhh
_ZN7Hd4478011dataPortSetEPVhh
_ZN7Hd447804initENS_4SizeENS_4FontEbb
_ZN7Hd447805stdioEv
puts
_ZN7Hd4478011clearScreenEv
_ZN6Timer1C1Ev
_ZN6Timer113setOutputModeENS_10OutputModeES0_
_ZN6Timer14initENS_4ModeENS_11ClockSourceE
printf
_ZN6Keypad14readKeyPressedEPh
_ZN7Hd4478015displayStateSetENS_12DisplayStateE
_ZN7Hd4478010cursorGoToEhh
__do_copy_data
__do_clear_bss
