GAS LISTING C:\Users\kenne\AppData\Local\Temp\cc2IZjCw.s 			page 1


   1               		.file	"main.cpp"
   2               	__SP_H__ = 0x3e
   3               	__SP_L__ = 0x3d
   4               	__SREG__ = 0x3f
   5               	__tmp_reg__ = 0
   6               	__zero_reg__ = 1
   7               		.text
   8               	.Ltext0:
   9               		.cfi_sections	.debug_frame
  10               		.file 0 "C:\\D\\IFSC\\MCC\\projects\\7_pwmservo" "main.cpp"
  11               		.section	.text._Z7getTickv,"ax",@progbits
  12               		.weak	_Z7getTickv
  14               	_Z7getTickv:
  15               	.LFB32:
  16               		.file 1 "funsape/globalDefines.hpp"
   1:funsape/globalDefines.hpp **** //!
   2:funsape/globalDefines.hpp **** //! \file           globalDefines.hpp
   3:funsape/globalDefines.hpp **** //! \brief          Global definitions file
   4:funsape/globalDefines.hpp **** //! \author         Leandro Schwarz (bladabuska+funsapeavr8lib@gmail.com)
   5:funsape/globalDefines.hpp **** //! \date           2023-04-05
   6:funsape/globalDefines.hpp **** //! \version        23.04
   7:funsape/globalDefines.hpp **** //! \copyright      license
   8:funsape/globalDefines.hpp **** //! \details        Global definitions file.
   9:funsape/globalDefines.hpp **** //! \todo           Todo list
  10:funsape/globalDefines.hpp **** //!
  11:funsape/globalDefines.hpp **** 
  12:funsape/globalDefines.hpp **** // =============================================================================
  13:funsape/globalDefines.hpp **** // Include guard (START)
  14:funsape/globalDefines.hpp **** // =============================================================================
  15:funsape/globalDefines.hpp **** 
  16:funsape/globalDefines.hpp **** #ifndef __GLOBAL_DEFINES_HPP
  17:funsape/globalDefines.hpp **** #define __GLOBAL_DEFINES_HPP                    2304
  18:funsape/globalDefines.hpp **** 
  19:funsape/globalDefines.hpp **** // =============================================================================
  20:funsape/globalDefines.hpp **** // Basic definitions
  21:funsape/globalDefines.hpp **** // =============================================================================
  22:funsape/globalDefines.hpp **** 
  23:funsape/globalDefines.hpp **** #ifndef F_CPU
  24:funsape/globalDefines.hpp **** #   define F_CPU    16000000UL
  25:funsape/globalDefines.hpp **** #endif
  26:funsape/globalDefines.hpp **** 
  27:funsape/globalDefines.hpp **** // =============================================================================
  28:funsape/globalDefines.hpp **** // Dependencies
  29:funsape/globalDefines.hpp **** // =============================================================================
  30:funsape/globalDefines.hpp **** 
  31:funsape/globalDefines.hpp **** //     //////////////////     AVR STANDARD LIBRARY     //////////////////     //
  32:funsape/globalDefines.hpp **** #include <avr/io.h>
  33:funsape/globalDefines.hpp **** #include <avr/interrupt.h>
  34:funsape/globalDefines.hpp **** #include <util/delay.h>
  35:funsape/globalDefines.hpp **** #include <util/atomic.h>
  36:funsape/globalDefines.hpp **** 
  37:funsape/globalDefines.hpp **** //     ///////////////////     STANDARD C LIBRARY     ///////////////////     //
  38:funsape/globalDefines.hpp **** #include <stddef.h>
  39:funsape/globalDefines.hpp **** #include <stdint.h>
  40:funsape/globalDefines.hpp **** #include <stdio.h>
  41:funsape/globalDefines.hpp **** #include <stdlib.h>
  42:funsape/globalDefines.hpp **** #include <string.h>
GAS LISTING C:\Users\kenne\AppData\Local\Temp\cc2IZjCw.s 			page 2


  43:funsape/globalDefines.hpp **** 
  44:funsape/globalDefines.hpp **** //     //////////////////     LIBRARY DEPENDENCIES     //////////////////     //
  45:funsape/globalDefines.hpp **** #include "pinout.hpp"
  46:funsape/globalDefines.hpp **** #if !defined(__PINOUT_HPP)
  47:funsape/globalDefines.hpp **** #   error "Header file (pinout.hpp) is corrupted!"
  48:funsape/globalDefines.hpp **** #elif __PINOUT_HPP != __GLOBAL_DEFINES_HPP
  49:funsape/globalDefines.hpp **** #   error "Version mismatch between header file and library dependency (pinout.hpp)!"
  50:funsape/globalDefines.hpp **** #endif
  51:funsape/globalDefines.hpp **** 
  52:funsape/globalDefines.hpp **** // =============================================================================
  53:funsape/globalDefines.hpp **** // Undefining previous definitions
  54:funsape/globalDefines.hpp **** // =============================================================================
  55:funsape/globalDefines.hpp **** 
  56:funsape/globalDefines.hpp **** // NONE
  57:funsape/globalDefines.hpp **** 
  58:funsape/globalDefines.hpp **** // =============================================================================
  59:funsape/globalDefines.hpp **** // Constant definitions
  60:funsape/globalDefines.hpp **** // =============================================================================
  61:funsape/globalDefines.hpp **** 
  62:funsape/globalDefines.hpp **** #define inlined                         inline __attribute__((always_inline))
  63:funsape/globalDefines.hpp **** #define weakened                        __attribute__((weak))
  64:funsape/globalDefines.hpp **** 
  65:funsape/globalDefines.hpp **** // =============================================================================
  66:funsape/globalDefines.hpp **** // New data types
  67:funsape/globalDefines.hpp **** // =============================================================================
  68:funsape/globalDefines.hpp **** 
  69:funsape/globalDefines.hpp **** //     ////////////////////     BASIC VARIABLES     /////////////////////     //
  70:funsape/globalDefines.hpp **** typedef bool                            bool_t;
  71:funsape/globalDefines.hpp **** typedef char                            char_t;
  72:funsape/globalDefines.hpp **** 
  73:funsape/globalDefines.hpp **** //     ///////////////////     CONSTANT VARIABLES    ////////////////////     //
  74:funsape/globalDefines.hpp **** typedef const bool_t                    cbool_t;
  75:funsape/globalDefines.hpp **** typedef const char_t                    cchar_t;
  76:funsape/globalDefines.hpp **** typedef const int8_t                    cint8_t;
  77:funsape/globalDefines.hpp **** typedef const int16_t                   cint16_t;
  78:funsape/globalDefines.hpp **** typedef const int32_t                   cint32_t;
  79:funsape/globalDefines.hpp **** typedef const int64_t                   cint64_t;
  80:funsape/globalDefines.hpp **** typedef const uint8_t                   cuint8_t;
  81:funsape/globalDefines.hpp **** typedef const uint16_t                  cuint16_t;
  82:funsape/globalDefines.hpp **** typedef const uint32_t                  cuint32_t;
  83:funsape/globalDefines.hpp **** typedef const uint64_t                  cuint64_t;
  84:funsape/globalDefines.hpp **** 
  85:funsape/globalDefines.hpp **** //     ///////////////////     VOLATILE VARIABLES    ////////////////////     //
  86:funsape/globalDefines.hpp **** typedef volatile bool_t                 vbool_t;
  87:funsape/globalDefines.hpp **** typedef volatile char_t                 vchar_t;
  88:funsape/globalDefines.hpp **** typedef volatile int8_t                 vint8_t;
  89:funsape/globalDefines.hpp **** typedef volatile int16_t                vint16_t;
  90:funsape/globalDefines.hpp **** typedef volatile int32_t                vint32_t;
  91:funsape/globalDefines.hpp **** typedef volatile int64_t                vint64_t;
  92:funsape/globalDefines.hpp **** typedef volatile uint8_t                vuint8_t;
  93:funsape/globalDefines.hpp **** typedef volatile uint16_t               vuint16_t;
  94:funsape/globalDefines.hpp **** typedef volatile uint32_t               vuint32_t;
  95:funsape/globalDefines.hpp **** typedef volatile uint64_t               vuint64_t;
  96:funsape/globalDefines.hpp **** 
  97:funsape/globalDefines.hpp **** //     /////////////////     AVR PLATFORM VARIABLES    //////////////////     //
  98:funsape/globalDefines.hpp **** typedef int16_t                         int_t;          // 16-bit (AVR)
  99:funsape/globalDefines.hpp **** typedef uint16_t                        uint_t;         // 16-bit (AVR)
GAS LISTING C:\Users\kenne\AppData\Local\Temp\cc2IZjCw.s 			page 3


 100:funsape/globalDefines.hpp **** typedef cint16_t                        cint_t;         // 16-bit (AVR)
 101:funsape/globalDefines.hpp **** typedef cuint16_t                       cuint_t;        // 16-bit (AVR)
 102:funsape/globalDefines.hpp **** typedef vint16_t                        vint_t;         // 16-bit (AVR)
 103:funsape/globalDefines.hpp **** typedef vuint16_t                       vuint_t;        // 16-bit (AVR)
 104:funsape/globalDefines.hpp **** typedef uint8_t                         ioPinIndex_t;   // 8-bit (AVR)
 105:funsape/globalDefines.hpp **** typedef vuint8_t                       *ioRegAddress_t; // 8-bit address (AVR)
 106:funsape/globalDefines.hpp **** 
 107:funsape/globalDefines.hpp **** //     //////////////////     BINARY ENUMERATIONS     ///////////////////     //
 108:funsape/globalDefines.hpp **** enum class Activation : cbool_t {
 109:funsape/globalDefines.hpp ****     OFF                                 = false,
 110:funsape/globalDefines.hpp ****     ON                                  = true
 111:funsape/globalDefines.hpp **** };
 112:funsape/globalDefines.hpp **** 
 113:funsape/globalDefines.hpp **** enum class DisplayOrientation : cbool_t {
 114:funsape/globalDefines.hpp ****     LANDSCAPE                           = false,
 115:funsape/globalDefines.hpp ****     PORTRAIT                            = true
 116:funsape/globalDefines.hpp **** };
 117:funsape/globalDefines.hpp **** 
 118:funsape/globalDefines.hpp **** enum class DriverMode : cbool_t {
 119:funsape/globalDefines.hpp ****     PUSH_PULL                           = false,
 120:funsape/globalDefines.hpp ****     OPEN_DRAIN                          = true,
 121:funsape/globalDefines.hpp **** };
 122:funsape/globalDefines.hpp **** 
 123:funsape/globalDefines.hpp **** enum class Edge : cbool_t {
 124:funsape/globalDefines.hpp ****     FALLING                             = false,
 125:funsape/globalDefines.hpp ****     RISING                              = true
 126:funsape/globalDefines.hpp **** };
 127:funsape/globalDefines.hpp **** 
 128:funsape/globalDefines.hpp **** enum class IoOperation : cbool_t {
 129:funsape/globalDefines.hpp ****     WRITE                               = false,
 130:funsape/globalDefines.hpp ****     READ                                = true
 131:funsape/globalDefines.hpp **** };
 132:funsape/globalDefines.hpp **** 
 133:funsape/globalDefines.hpp **** enum class LogicLevel : cbool_t {
 134:funsape/globalDefines.hpp ****     LOW                                 = false,
 135:funsape/globalDefines.hpp ****     HIGH                                = true
 136:funsape/globalDefines.hpp **** };
 137:funsape/globalDefines.hpp **** 
 138:funsape/globalDefines.hpp **** enum class PinDirection : cbool_t {
 139:funsape/globalDefines.hpp ****     INPUT                               = false,
 140:funsape/globalDefines.hpp ****     OUTPUT                              = true,
 141:funsape/globalDefines.hpp **** };
 142:funsape/globalDefines.hpp **** 
 143:funsape/globalDefines.hpp **** enum class Rotation : cbool_t {
 144:funsape/globalDefines.hpp ****     CLOCKWISE                           = false,
 145:funsape/globalDefines.hpp ****     COUNTERCLOCKWISE                    = true
 146:funsape/globalDefines.hpp **** };
 147:funsape/globalDefines.hpp **** 
 148:funsape/globalDefines.hpp **** enum class State : cbool_t {
 149:funsape/globalDefines.hpp ****     OFF                                 = false,
 150:funsape/globalDefines.hpp ****     ON                                  = true
 151:funsape/globalDefines.hpp **** };
 152:funsape/globalDefines.hpp **** 
 153:funsape/globalDefines.hpp **** //     ///////////////////     PLAIN ENUMERATIONS    ////////////////////     //
 154:funsape/globalDefines.hpp **** enum class Axis : cuint8_t {
 155:funsape/globalDefines.hpp ****     //                                     Z-AXIS     Y-AXIS     X-AXIS
 156:funsape/globalDefines.hpp ****     NONE                                = (0 << 2) | (0 << 1) | (0 << 0),
GAS LISTING C:\Users\kenne\AppData\Local\Temp\cc2IZjCw.s 			page 4


 157:funsape/globalDefines.hpp ****     X                                   = (0 << 2) | (0 << 1) | (1 << 0),
 158:funsape/globalDefines.hpp ****     Y                                   = (0 << 2) | (1 << 1) | (0 << 0),
 159:funsape/globalDefines.hpp ****     XY                                  = (0 << 2) | (1 << 1) | (1 << 0),
 160:funsape/globalDefines.hpp ****     Z                                   = (1 << 2) | (0 << 1) | (0 << 0),
 161:funsape/globalDefines.hpp ****     XZ                                  = (1 << 2) | (0 << 1) | (1 << 0),
 162:funsape/globalDefines.hpp ****     YZ                                  = (1 << 2) | (1 << 1) | (0 << 0),
 163:funsape/globalDefines.hpp ****     ALL                                 = (1 << 2) | (1 << 1) | (1 << 0)
 164:funsape/globalDefines.hpp **** };
 165:funsape/globalDefines.hpp **** 
 166:funsape/globalDefines.hpp **** inlined Axis operator|(Axis a, Axis b)
 167:funsape/globalDefines.hpp **** {
 168:funsape/globalDefines.hpp ****     return static_cast<Axis>(static_cast<cint8_t>(a) | static_cast<uint8_t>(b));
 169:funsape/globalDefines.hpp **** }
 170:funsape/globalDefines.hpp **** 
 171:funsape/globalDefines.hpp **** inlined Axis &operator|=(Axis &a, Axis b)
 172:funsape/globalDefines.hpp **** {
 173:funsape/globalDefines.hpp ****     return a = static_cast<Axis>(static_cast<uint8_t>(a) | static_cast<uint8_t>(b));
 174:funsape/globalDefines.hpp **** }
 175:funsape/globalDefines.hpp **** 
 176:funsape/globalDefines.hpp **** inlined Axis operator&(Axis a, Axis b)
 177:funsape/globalDefines.hpp **** {
 178:funsape/globalDefines.hpp ****     return static_cast<Axis>(static_cast<uint8_t>(a) & static_cast<uint8_t>(b));
 179:funsape/globalDefines.hpp **** }
 180:funsape/globalDefines.hpp **** 
 181:funsape/globalDefines.hpp **** inlined Axis &operator&=(Axis &a, Axis b)
 182:funsape/globalDefines.hpp **** {
 183:funsape/globalDefines.hpp ****     return a = static_cast<Axis>(static_cast<uint8_t>(a) & static_cast<uint8_t>(b));
 184:funsape/globalDefines.hpp **** }
 185:funsape/globalDefines.hpp **** 
 186:funsape/globalDefines.hpp **** enum class Direction : cuint8_t {
 187:funsape/globalDefines.hpp ****     LEFT                                = 0,
 188:funsape/globalDefines.hpp ****     RIGHT                               = 1,
 189:funsape/globalDefines.hpp ****     UP                                  = 2,
 190:funsape/globalDefines.hpp ****     DOWN                                = 3
 191:funsape/globalDefines.hpp **** };
 192:funsape/globalDefines.hpp **** 
 193:funsape/globalDefines.hpp **** enum class InterfaceMode : cuint8_t {
 194:funsape/globalDefines.hpp ****     BLOCKING_MODE                       = 0,
 195:funsape/globalDefines.hpp ****     INTERRUPT_MODE                      = 1,
 196:funsape/globalDefines.hpp ****     DMA_MODE                            = 2
 197:funsape/globalDefines.hpp **** };
 198:funsape/globalDefines.hpp **** 
 199:funsape/globalDefines.hpp **** enum class ThermometricScale : cuint8_t {
 200:funsape/globalDefines.hpp ****     CELSIUS                             = 0,
 201:funsape/globalDefines.hpp ****     DELISLE                             = 1,
 202:funsape/globalDefines.hpp ****     FAHRENHEIT                          = 2,
 203:funsape/globalDefines.hpp ****     KELVIN                              = 3,
 204:funsape/globalDefines.hpp ****     NEWTON                              = 4,
 205:funsape/globalDefines.hpp ****     RANKINE                             = 5,
 206:funsape/globalDefines.hpp ****     REAUMUR                             = 6,
 207:funsape/globalDefines.hpp ****     ROMER                               = 7
 208:funsape/globalDefines.hpp **** };
 209:funsape/globalDefines.hpp **** 
 210:funsape/globalDefines.hpp **** enum class Error : cuint16_t {
 211:funsape/globalDefines.hpp ****     // General error codes
 212:funsape/globalDefines.hpp ****     NONE                                                = 0x0000,   // Success - No errors occurred
 213:funsape/globalDefines.hpp ****     AXIS_INVALID                                        = 0x0001,   // Invalid axis
GAS LISTING C:\Users\kenne\AppData\Local\Temp\cc2IZjCw.s 			page 5


 214:funsape/globalDefines.hpp ****     NOT_IMPLEMENTED                                     = 0x0002,   // Not implemented yet
 215:funsape/globalDefines.hpp ****     UNDER_DEVELOPMENT                                   = 0x0003,   // This part of the code is sti
 216:funsape/globalDefines.hpp ****     NOT_INITIALIZED                                     = 0x0004,   // Not initialized
 217:funsape/globalDefines.hpp ****     // BUSY                                                = 0x0005,   // TODO: Describe parameter
 218:funsape/globalDefines.hpp ****     // DEVICE_NOT_SUPPORTED                                = 0x0006,   // Device is not currently s
 219:funsape/globalDefines.hpp ****     FEATURE_NOT_SUPPORTED                               = 0x0007,   // Unsupported feature or confi
 220:funsape/globalDefines.hpp ****     // FUNCTION_POINTER_NULL                               = 0x0008,   // TODO: Describe parameter
 221:funsape/globalDefines.hpp ****     // INSTANCE_INVALID                                    = 0x0009,   // Invalid instance
 222:funsape/globalDefines.hpp ****     // LOCKED                                              = 0x000A,   // Accessed a locked device
 223:funsape/globalDefines.hpp ****     MEMORY_ALLOCATION                                   = 0x000B,   // Memory allocation failed
 224:funsape/globalDefines.hpp ****     // MODE_NOT_SUPPORTED                                  = 0x000C,   // Mode is not currently sup
 225:funsape/globalDefines.hpp ****     // NOT_READY                                           = 0x000D,   // TODO: Describe parameter
 226:funsape/globalDefines.hpp ****     // READ_PROTECTED                                      = 0x000E,   // Tried to read a read prot
 227:funsape/globalDefines.hpp ****     // WRITE_PROTECTED                                     = 0x000F,   // Tried to write a write pr
 228:funsape/globalDefines.hpp **** 
 229:funsape/globalDefines.hpp ****     // Function arguments related error codes
 230:funsape/globalDefines.hpp ****     ARGUMENT_CANNOT_BE_ZERO                             = 0x0010,   // TODO: Describe parameter
 231:funsape/globalDefines.hpp ****     ARGUMENT_POINTER_NULL                               = 0x0011,   // NULL pointer was passed as a
 232:funsape/globalDefines.hpp ****     ARGUMENT_VALUE_INVALID                              = 0x0012,   // TODO: Describe parameter
 233:funsape/globalDefines.hpp ****     // ARGUMENTS_MISMATCH                                  = 0x0013,   // A function was called wit
 234:funsape/globalDefines.hpp ****     // ARGUMENTS_WRONG_NUMBER                              = 0x0014,   // A function was called wit
 235:funsape/globalDefines.hpp ****     // ARGUMENT_GENERIC_ERROR_5                            = 0x0015,   // Generic error (use only o
 236:funsape/globalDefines.hpp ****     // ARGUMENT_GENERIC_ERROR_6                            = 0x0016,   // Generic error (use only o
 237:funsape/globalDefines.hpp ****     // ARGUMENT_GENERIC_ERROR_7                            = 0x0017,   // Generic error (use only o
 238:funsape/globalDefines.hpp ****     // ARGUMENT_GENERIC_ERROR_8                            = 0x0018,   // Generic error (use only o
 239:funsape/globalDefines.hpp ****     // ARGUMENT_GENERIC_ERROR_9                            = 0x0019,   // Generic error (use only o
 240:funsape/globalDefines.hpp ****     // ARGUMENT_GENERIC_ERROR_10                           = 0x001A,   // Generic error (use only o
 241:funsape/globalDefines.hpp ****     // ARGUMENT_GENERIC_ERROR_11                           = 0x001B,   // Generic error (use only o
 242:funsape/globalDefines.hpp ****     // ARGUMENT_GENERIC_ERROR_12                           = 0x001C,   // Generic error (use only o
 243:funsape/globalDefines.hpp ****     // ARGUMENT_GENERIC_ERROR_13                           = 0x001D,   // Generic error (use only o
 244:funsape/globalDefines.hpp ****     // ARGUMENT_GENERIC_ERROR_14                           = 0x001E,   // Generic error (use only o
 245:funsape/globalDefines.hpp ****     // ARGUMENT_GENERIC_ERROR                              = 0x001F,   // Generic error (use only o
 246:funsape/globalDefines.hpp **** 
 247:funsape/globalDefines.hpp ****     // Buffer related error codes
 248:funsape/globalDefines.hpp ****     // BUFFER_EMPTY                                        = 0x0020,   // Buffer is empty
 249:funsape/globalDefines.hpp ****     // BUFFER_FULL                                         = 0x0021,   // Buffer is full
 250:funsape/globalDefines.hpp ****     // BUFFER_NOT_ENOUGH_ELEMENTS                          = 0x0022,   // Not enough space in buffe
 251:funsape/globalDefines.hpp ****     // BUFFER_NOT_ENOUGH_SPACE                             = 0x0023,   // Not enough space in buffe
 252:funsape/globalDefines.hpp ****     // BUFFER_POINTER_NULL                                 = 0x0024,   // Buffer size was set to ze
 253:funsape/globalDefines.hpp ****     BUFFER_SIZE_TOO_LARGE                               = 0x0025,   // Buffer size was set to a lar
 254:funsape/globalDefines.hpp ****     BUFFER_SIZE_TOO_SMALL                               = 0x0026,   // Buffer size was set to a ver
 255:funsape/globalDefines.hpp ****     // BUFFER_SIZE_ZERO                                    = 0x0027,   // Buffer size was set to ze
 256:funsape/globalDefines.hpp ****     // BUFFER_GENERIC_ERROR_8                              = 0x0028,   // Generic error (use only o
 257:funsape/globalDefines.hpp ****     // BUFFER_GENERIC_ERROR_9                              = 0x0029,   // Generic error (use only o
 258:funsape/globalDefines.hpp ****     // BUFFER_GENERIC_ERROR_10                             = 0x002A,   // Generic error (use only o
 259:funsape/globalDefines.hpp ****     // BUFFER_GENERIC_ERROR_11                             = 0x002B,   // Generic error (use only o
 260:funsape/globalDefines.hpp ****     // BUFFER_GENERIC_ERROR_12                             = 0x002C,   // Generic error (use only o
 261:funsape/globalDefines.hpp ****     // BUFFER_GENERIC_ERROR_13                             = 0x002D,   // Generic error (use only o
 262:funsape/globalDefines.hpp ****     // BUFFER_GENERIC_ERROR_14                             = 0x002E,   // Generic error (use only o
 263:funsape/globalDefines.hpp ****     // BUFFER_GENERIC_ERROR_15                             = 0x002F,   // Generic error (use only o
 264:funsape/globalDefines.hpp **** 
 265:funsape/globalDefines.hpp ****     // Clock configuration related error codes
 266:funsape/globalDefines.hpp ****     CLOCK_PRESCALER_CHANGE_FAILED                       = 0x0030,   // Clock prescaler change faile
 267:funsape/globalDefines.hpp ****     CLOCK_PRESCALER_NOT_SUPPORTED                       = 0x0031,   // Clock prescaler configuratio
 268:funsape/globalDefines.hpp ****     CLOCK_SPEED_TOO_HIGH                                = 0x0032,   // TODO: Describe parameter
 269:funsape/globalDefines.hpp ****     CLOCK_SPEED_TOO_LOW                                 = 0x0033,   // TODO: Describe parameter
 270:funsape/globalDefines.hpp ****     // CLOCK_GENERIC_ERROR_4                               = 0x0034,   // Generic error (use only o
GAS LISTING C:\Users\kenne\AppData\Local\Temp\cc2IZjCw.s 			page 6


 271:funsape/globalDefines.hpp ****     // CLOCK_GENERIC_ERROR_5                               = 0x0035,   // Generic error (use only o
 272:funsape/globalDefines.hpp ****     // CLOCK_GENERIC_ERROR_6                               = 0x0036,   // Generic error (use only o
 273:funsape/globalDefines.hpp ****     // CLOCK_GENERIC_ERROR_7                               = 0x0037,   // Generic error (use only o
 274:funsape/globalDefines.hpp ****     // CLOCK_GENERIC_ERROR_8                               = 0x0038,   // Generic error (use only o
 275:funsape/globalDefines.hpp ****     // CLOCK_GENERIC_ERROR_9                               = 0x0039,   // Generic error (use only o
 276:funsape/globalDefines.hpp ****     // CLOCK_GENERIC_ERROR_10                              = 0x003A,   // Generic error (use only o
 277:funsape/globalDefines.hpp ****     // CLOCK_GENERIC_ERROR_11                              = 0x003B,   // Generic error (use only o
 278:funsape/globalDefines.hpp ****     // CLOCK_GENERIC_ERROR_12                              = 0x003C,   // Generic error (use only o
 279:funsape/globalDefines.hpp ****     // CLOCK_GENERIC_ERROR_13                              = 0x003D,   // Generic error (use only o
 280:funsape/globalDefines.hpp ****     // CLOCK_GENERIC_ERROR_14                              = 0x003E,   // Generic error (use only o
 281:funsape/globalDefines.hpp ****     // CLOCK_GENERIC_ERROR_15                              = 0x003F,   // Generic error (use only o
 282:funsape/globalDefines.hpp **** 
 283:funsape/globalDefines.hpp ****     // Communication related error codes
 284:funsape/globalDefines.hpp ****     COMMUNICATION_FAILED                                = 0x0040,   // TODO: Describe parameter
 285:funsape/globalDefines.hpp ****     COMMUNICATION_NO_DEVICE_SELECTED                    = 0x0041,   // TODO: Describe parameter
 286:funsape/globalDefines.hpp ****     // COMMUNICATION_PORT_NOT_SET                          = 0x0042,   // TODO: Describe parameter
 287:funsape/globalDefines.hpp ****     COMMUNICATION_TIMEOUT                               = 0x0043,   // The operation timed out
 288:funsape/globalDefines.hpp ****     // COMMUNICATION_DEVICE_ID_MATCH_FAILED                = 0x0044,   // TODO: Describe parameter
 289:funsape/globalDefines.hpp ****     // CHECKSUM_ERROR                                      = 0x0045,   // TODO: Describe parameter
 290:funsape/globalDefines.hpp ****     // FRAME_ERROR                                         = 0x0046,   // TODO: Describe parameter
 291:funsape/globalDefines.hpp ****     // PACKAGE_AWAITING                                    = 0x0047,   // Try to write data to a re
 292:funsape/globalDefines.hpp ****     // PACKAGE_NOT_READY                                   = 0x0048,   // Try to read data from a n
 293:funsape/globalDefines.hpp ****     // COMMUNICATION_GENERIC_ERROR_9                       = 0x0049,   // Generic error (use only o
 294:funsape/globalDefines.hpp ****     // COMMUNICATION_GENERIC_ERROR_10                      = 0x004A,   // Generic error (use only o
 295:funsape/globalDefines.hpp ****     // COMMUNICATION_GENERIC_ERROR_11                      = 0x004B,   // Generic error (use only o
 296:funsape/globalDefines.hpp ****     // COMMUNICATION_GENERIC_ERROR_12                      = 0x004C,   // Generic error (use only o
 297:funsape/globalDefines.hpp ****     // COMMUNICATION_GENERIC_ERROR_13                      = 0x004D,   // Generic error (use only o
 298:funsape/globalDefines.hpp ****     // COMMUNICATION_GENERIC_ERROR_14                      = 0x004E,   // Generic error (use only o
 299:funsape/globalDefines.hpp ****     // COMMUNICATION_GENERIC_ERROR_15                      = 0x004F,   // Generic error (use only o
 300:funsape/globalDefines.hpp **** 
 301:funsape/globalDefines.hpp ****     // DateTime class related error codes
 302:funsape/globalDefines.hpp ****     DATE_NOT_INITIALIZED                                = 0x0050,   // TODO: Describe parameter
 303:funsape/globalDefines.hpp ****     // HOUR_INVALID                                        = 0x0051,   // TODO: Describe parameter
 304:funsape/globalDefines.hpp ****     // MILLISECOND_INVALID                                 = 0x0052,   // TODO: Describe parameter
 305:funsape/globalDefines.hpp ****     // MINUTE_INVALID                                      = 0x0053,   // TODO: Describe parameter
 306:funsape/globalDefines.hpp ****     // MONTH_DAY_INVALID                                   = 0x0054,   // TODO: Describe parameter
 307:funsape/globalDefines.hpp ****     // MONTH_INVALID                                       = 0x0055,   // TODO: Describe parameter
 308:funsape/globalDefines.hpp ****     // SECOND_INVALID                                      = 0x0056,   // TODO: Describe parameter
 309:funsape/globalDefines.hpp ****     TIME_NOT_INITIALIZED                                = 0x0057,   // TODO: Describe parameter
 310:funsape/globalDefines.hpp ****     // TIMEZONE_INVALID                                    = 0x0058,   // TODO: Describe parameter
 311:funsape/globalDefines.hpp ****     // YEAR_INVALID                                        = 0x0059,   // TODO: Describe parameter
 312:funsape/globalDefines.hpp ****     DATE_INVALID                                        = 0x005A,   // TODO: Describe parameter
 313:funsape/globalDefines.hpp ****     TIME_INVALID                                        = 0x005B,   // TODO: Describe parameter
 314:funsape/globalDefines.hpp ****     // GENERIC_ERROR_13                                    = 0x005C,   // Generic error (use only o
 315:funsape/globalDefines.hpp ****     // GENERIC_ERROR_14                                    = 0x005D,   // Generic error (use only o
 316:funsape/globalDefines.hpp ****     // GENERIC_ERROR_15                                    = 0x005F,   // Generic error (use only o
 317:funsape/globalDefines.hpp **** 
 318:funsape/globalDefines.hpp ****     // Handler related error codes
 319:funsape/globalDefines.hpp ****     BUS_HANDLER_NOT_SUPPORTED                           = 0x0060,   // TODO: Describe parameter
 320:funsape/globalDefines.hpp ****     BUS_HANDLER_POINTER_NULL                            = 0x0061,   // TODO: Describe parameter
 321:funsape/globalDefines.hpp ****     // HANDLER_GENERIC_ERROR_2                             = 0x0062,   // Generic error (use only o
 322:funsape/globalDefines.hpp ****     // HANDLER_GENERIC_ERROR_3                             = 0x0063,   // Generic error (use only o
 323:funsape/globalDefines.hpp ****     // HANDLER_GENERIC_ERROR_4                             = 0x0064,   // Generic error (use only o
 324:funsape/globalDefines.hpp ****     // HANDLER_GENERIC_ERROR_5                             = 0x0065,   // Generic error (use only o
 325:funsape/globalDefines.hpp ****     // HANDLER_GENERIC_ERROR_6                             = 0x0066,   // Generic error (use only o
 326:funsape/globalDefines.hpp ****     // HANDLER_GENERIC_ERROR_7                             = 0x0067,   // Generic error (use only o
 327:funsape/globalDefines.hpp ****     // HANDLER_GENERIC_ERROR_8                             = 0x0068,   // Generic error (use only o
GAS LISTING C:\Users\kenne\AppData\Local\Temp\cc2IZjCw.s 			page 7


 328:funsape/globalDefines.hpp ****     // HANDLER_GENERIC_ERROR_9                             = 0x0069,   // Generic error (use only o
 329:funsape/globalDefines.hpp ****     // HANDLER_GENERIC_ERROR_10                            = 0x006A,   // Generic error (use only o
 330:funsape/globalDefines.hpp ****     // HANDLER_GENERIC_ERROR_11                            = 0x006B,   // Generic error (use only o
 331:funsape/globalDefines.hpp ****     // HANDLER_GENERIC_ERROR_12                            = 0x006C,   // Generic error (use only o
 332:funsape/globalDefines.hpp ****     // HANDLER_GENERIC_ERROR_13                            = 0x006D,   // Generic error (use only o
 333:funsape/globalDefines.hpp ****     // HANDLER_GENERIC_ERROR_14                            = 0x006E,   // Generic error (use only o
 334:funsape/globalDefines.hpp ****     // HANDLER_GENERIC_ERROR_15                            = 0x006F,   // Generic error (use only o
 335:funsape/globalDefines.hpp **** 
 336:funsape/globalDefines.hpp ****     // External interrupts related error codes
 337:funsape/globalDefines.hpp ****     // INTERRUPT_NOT_AVAILABLE                             = 0x0070,   // TODO: Describe parameter
 338:funsape/globalDefines.hpp ****     // INTERRUPT_PORT_OUTPUT_MODE_NOT_SUPPORTED            = 0x0071,   // TODO: Describe parameter
 339:funsape/globalDefines.hpp ****     // INTERRUPT_SENSE_MODE_NOT_SUPPORTED                  = 0x0072,   // TODO: Describe parameter
 340:funsape/globalDefines.hpp ****     // INTERRUPT_GENERIC_ERROR_3                           = 0x0073,   // Generic error (use only o
 341:funsape/globalDefines.hpp ****     // INTERRUPT_GENERIC_ERROR_4                           = 0x0074,   // Generic error (use only o
 342:funsape/globalDefines.hpp ****     // INTERRUPT_GENERIC_ERROR_5                           = 0x0075,   // Generic error (use only o
 343:funsape/globalDefines.hpp ****     // INTERRUPT_GENERIC_ERROR_6                           = 0x0076,   // Generic error (use only o
 344:funsape/globalDefines.hpp ****     // INTERRUPT_GENERIC_ERROR_7                           = 0x0077,   // Generic error (use only o
 345:funsape/globalDefines.hpp ****     // INTERRUPT_GENERIC_ERROR_8                           = 0x0078,   // Generic error (use only o
 346:funsape/globalDefines.hpp ****     // INTERRUPT_GENERIC_ERROR_9                           = 0x0079,   // Generic error (use only o
 347:funsape/globalDefines.hpp ****     // INTERRUPT_GENERIC_ERROR_10                          = 0x007A,   // Generic error (use only o
 348:funsape/globalDefines.hpp ****     // INTERRUPT_GENERIC_ERROR_11                          = 0x007B,   // Generic error (use only o
 349:funsape/globalDefines.hpp ****     // INTERRUPT_GENERIC_ERROR_12                          = 0x007C,   // Generic error (use only o
 350:funsape/globalDefines.hpp ****     // INTERRUPT_GENERIC_ERROR_13                          = 0x007D,   // Generic error (use only o
 351:funsape/globalDefines.hpp ****     // INTERRUPT_GENERIC_ERROR_14                          = 0x007E,   // Generic error (use only o
 352:funsape/globalDefines.hpp ****     // INTERRUPT_GENERIC_ERROR_15                          = 0x007F,   // Generic error (use only o
 353:funsape/globalDefines.hpp **** 
 354:funsape/globalDefines.hpp **** 
 355:funsape/globalDefines.hpp ****     // Package API class related error codes
 356:funsape/globalDefines.hpp ****     // PACKAGE_API_PACKAGE_DATA_FULL                       = 0x0080,   // TODO: Describe parameter
 357:funsape/globalDefines.hpp ****     // PACKAGE_API_PACKAGE_NOT_READY                       = 0x0081,   // TODO: Describe parameter
 358:funsape/globalDefines.hpp ****     // PACKAGE_API_PAYLOAD_DATA_NULL                       = 0x0082,   // TODO: Describe parameter
 359:funsape/globalDefines.hpp ****     // PACKAGE_API_PAYLOAD_SIZE_NULL                       = 0x0083,   // TODO: Describe parameter
 360:funsape/globalDefines.hpp ****     // PACKAGE_API_SOURCE_ADDRESS_INVALID                  = 0x0084,   // TODO: Describe parameter
 361:funsape/globalDefines.hpp ****     // PACKAGE_API_GENERIC_ERROR_5                         = 0x0085,   // Generic error (use only o
 362:funsape/globalDefines.hpp ****     // PACKAGE_API_GENERIC_ERROR_6                         = 0x0086,   // Generic error (use only o
 363:funsape/globalDefines.hpp ****     // PACKAGE_API_GENERIC_ERROR_7                         = 0x0087,   // Generic error (use only o
 364:funsape/globalDefines.hpp ****     // PACKAGE_API_GENERIC_ERROR_8                         = 0x0088,   // Generic error (use only o
 365:funsape/globalDefines.hpp ****     // PACKAGE_API_GENERIC_ERROR_9                         = 0x0089,   // Generic error (use only o
 366:funsape/globalDefines.hpp ****     // PACKAGE_API_GENERIC_ERROR_10                        = 0x008A,   // Generic error (use only o
 367:funsape/globalDefines.hpp ****     // PACKAGE_API_GENERIC_ERROR_11                        = 0x008B,   // Generic error (use only o
 368:funsape/globalDefines.hpp ****     // PACKAGE_API_GENERIC_ERROR_12                        = 0x008C,   // Generic error (use only o
 369:funsape/globalDefines.hpp ****     // PACKAGE_API_GENERIC_ERROR_13                        = 0x008D,   // Generic error (use only o
 370:funsape/globalDefines.hpp ****     // PACKAGE_API_GENERIC_ERROR_14                        = 0x008E,   // Generic error (use only o
 371:funsape/globalDefines.hpp ****     // PACKAGE_API_GENERIC_ERROR_15                        = 0x008F,   // Generic error (use only o
 372:funsape/globalDefines.hpp **** 
 373:funsape/globalDefines.hpp ****     // SPI related error codes
 374:funsape/globalDefines.hpp ****     // SPI_BUSY_FLAG                                       = 0x0090,   // TODO: Describe parameter
 375:funsape/globalDefines.hpp ****     // SPI_CRC                                             = 0x0091,   // TODO: Describe parameter
 376:funsape/globalDefines.hpp ****     // SPI_DMA                                             = 0x0092,   // TODO: Describe parameter
 377:funsape/globalDefines.hpp ****     // SPI_MODE_FAULT                                      = 0x0093,   // TODO: Describe parameter
 378:funsape/globalDefines.hpp ****     // SPI_OVERRUN                                         = 0x0094,   // TODO: Describe parameter
 379:funsape/globalDefines.hpp ****     // SPI_GENERIC_ERROR_5                                 = 0x0095,   // Generic error (use only o
 380:funsape/globalDefines.hpp ****     // SPI_GENERIC_ERROR_6                                 = 0x0096,   // Generic error (use only o
 381:funsape/globalDefines.hpp ****     // SPI_GENERIC_ERROR_7                                 = 0x0097,   // Generic error (use only o
 382:funsape/globalDefines.hpp ****     // SPI_GENERIC_ERROR_8                                 = 0x0098,   // Generic error (use only o
 383:funsape/globalDefines.hpp ****     // SPI_GENERIC_ERROR_9                                 = 0x0099,   // Generic error (use only o
 384:funsape/globalDefines.hpp ****     // SPI_GENERIC_ERROR_10                                = 0x009A,   // Generic error (use only o
GAS LISTING C:\Users\kenne\AppData\Local\Temp\cc2IZjCw.s 			page 8


 385:funsape/globalDefines.hpp ****     // SPI_GENERIC_ERROR_11                                = 0x009B,   // Generic error (use only o
 386:funsape/globalDefines.hpp ****     // SPI_GENERIC_ERROR_12                                = 0x009C,   // Generic error (use only o
 387:funsape/globalDefines.hpp ****     // SPI_GENERIC_ERROR_13                                = 0x009D,   // Generic error (use only o
 388:funsape/globalDefines.hpp ****     // SPI_GENERIC_ERROR_14                                = 0x009E,   // Generic error (use only o
 389:funsape/globalDefines.hpp ****     // SPI_GENERIC_ERROR_15                                = 0x009F,   // Generic error (use only o
 390:funsape/globalDefines.hpp **** 
 391:funsape/globalDefines.hpp ****     // TWI related error codes
 392:funsape/globalDefines.hpp ****     // TWI_AF_FLAG                                         = 0x00A0,   // TWI AF flag error
 393:funsape/globalDefines.hpp ****     // TWI_ARBITRATION_LOST                                = 0x00A1,   // TWI bus arbitration lost
 394:funsape/globalDefines.hpp ****     // TWI_BUS_ERROR                                       = 0x00A2,   // TWI bus error
 395:funsape/globalDefines.hpp ****     // TWI_DMA                                             = 0x00A3,   // DMA parameter error
 396:funsape/globalDefines.hpp ****     // TWI_DMA_PARAM                                       = 0x00A4,   // DMA transfer error
 397:funsape/globalDefines.hpp ****     // TWI_OVERRUN                                         = 0x00A5,   // TWI overrun
 398:funsape/globalDefines.hpp ****     // TWI_SIZE_MANAGEMENT_ERROR                           = 0x00A6,   // Size management error
 399:funsape/globalDefines.hpp ****     // TWI_INVALID_DEVICE_ADDRESS                          = 0x00A7,   // TODO: Describe parameter
 400:funsape/globalDefines.hpp ****     // TWI_GENERIC_ERROR_8                                 = 0x00A8,   // Generic error (use only o
 401:funsape/globalDefines.hpp ****     // TWI_GENERIC_ERROR_9                                 = 0x00A9,   // Generic error (use only o
 402:funsape/globalDefines.hpp ****     // TWI_GENERIC_ERROR_10                                = 0x00AA,   // Generic error (use only o
 403:funsape/globalDefines.hpp ****     // TWI_GENERIC_ERROR_11                                = 0x00AB,   // Generic error (use only o
 404:funsape/globalDefines.hpp ****     // TWI_GENERIC_ERROR_12                                = 0x00AC,   // Generic error (use only o
 405:funsape/globalDefines.hpp ****     // TWI_GENERIC_ERROR_13                                = 0x00AD,   // Generic error (use only o
 406:funsape/globalDefines.hpp ****     // TWI_GENERIC_ERROR_14                                = 0x00AE,   // Generic error (use only o
 407:funsape/globalDefines.hpp ****     // TWI_GENERIC_ERROR_15                                = 0x00AF,   // Generic error (use only o
 408:funsape/globalDefines.hpp **** 
 409:funsape/globalDefines.hpp ****     // USART related error codes
 410:funsape/globalDefines.hpp ****     // USART_BAUD_RATE_NOT_SUPPORTED                       = 0x00B0,   // TODO: Describe parameter
 411:funsape/globalDefines.hpp ****     // USART_CONFIGURATION_PARAMETER_WRONG                 = 0x00B1,   // TODO: Describe parameter
 412:funsape/globalDefines.hpp ****     // USART_DATA_BITS_NOT_SUPPORTED                       = 0x00B2,   // TODO: Describe parameter
 413:funsape/globalDefines.hpp ****     // USART_FRAME_FORMAT_NOT_SUPPORTED                    = 0x00B3,   // TODO: Describe parameter
 414:funsape/globalDefines.hpp ****     // USART_PARITY_NOT_SUPPORTED                          = 0x00B4,   // TODO: Describe parameter
 415:funsape/globalDefines.hpp ****     // USART_STOP_BIT_NOT_SUPPORTED                        = 0x00B5,   // TODO: Describe parameter
 416:funsape/globalDefines.hpp ****     // USART_GENERIC_ERROR_6                               = 0x00B6,   // Generic error (use only o
 417:funsape/globalDefines.hpp ****     // USART_GENERIC_ERROR_7                               = 0x00B7,   // Generic error (use only o
 418:funsape/globalDefines.hpp ****     // USART_GENERIC_ERROR_8                               = 0x00B8,   // Generic error (use only o
 419:funsape/globalDefines.hpp ****     // USART_GENERIC_ERROR_9                               = 0x00B9,   // Generic error (use only o
 420:funsape/globalDefines.hpp ****     // USART_GENERIC_ERROR_10                              = 0x00BA,   // Generic error (use only o
 421:funsape/globalDefines.hpp ****     // USART_GENERIC_ERROR_11                              = 0x00BB,   // Generic error (use only o
 422:funsape/globalDefines.hpp ****     // USART_GENERIC_ERROR_12                              = 0x00BC,   // Generic error (use only o
 423:funsape/globalDefines.hpp ****     // USART_GENERIC_ERROR_13                              = 0x00BD,   // Generic error (use only o
 424:funsape/globalDefines.hpp ****     // USART_GENERIC_ERROR_14                              = 0x00BE,   // Generic error (use only o
 425:funsape/globalDefines.hpp ****     // USART_GENERIC_ERROR_15                              = 0x00BF,   // Generic error (use only o
 426:funsape/globalDefines.hpp **** 
 427:funsape/globalDefines.hpp ****     // LCD related error codes
 428:funsape/globalDefines.hpp ****     // LCD_CONTROL_PORT_NOT_SET                            = 0x00C0,   // TODO: Describe parameter
 429:funsape/globalDefines.hpp ****     // LCD_CONTROL_PIN_E_INVALID                           = 0x00C1,   // TODO: Describe parameter
 430:funsape/globalDefines.hpp ****     // LCD_CONTROL_PIN_RS_INVALID                          = 0x00C2,   // TODO: Describe parameter
 431:funsape/globalDefines.hpp ****     // LCD_CONTROL_PIN_RW_INVALID                          = 0x00C3,   // TODO: Describe parameter
 432:funsape/globalDefines.hpp ****     // LCD_DATA_PORT_NOT_SET                               = 0x00C4,   // TODO: Describe parameter
 433:funsape/globalDefines.hpp ****     // LCD_DATA_PIN_INDEX_OUT_OF_BOUNDARIES                = 0x00C5,   // TODO: Describe parameter
 434:funsape/globalDefines.hpp ****     // LCD_GENERIC_ERROR_6                                 = 0x00C6,   // Generic error (use only o
 435:funsape/globalDefines.hpp ****     // LCD_GENERIC_ERROR_7                                 = 0x00C7,   // Generic error (use only o
 436:funsape/globalDefines.hpp ****     // LCD_GENERIC_ERROR_8                                 = 0x00C8,   // Generic error (use only o
 437:funsape/globalDefines.hpp ****     // LCD_GENERIC_ERROR_9                                 = 0x00C9,   // Generic error (use only o
 438:funsape/globalDefines.hpp ****     // LCD_GENERIC_ERROR_10                                = 0x00CA,   // Generic error (use only o
 439:funsape/globalDefines.hpp ****     // LCD_GENERIC_ERROR_11                                = 0x00CB,   // Generic error (use only o
 440:funsape/globalDefines.hpp ****     // LCD_GENERIC_ERROR_12                                = 0x00CC,   // Generic error (use only o
 441:funsape/globalDefines.hpp ****     // LCD_GENERIC_ERROR_13                                = 0x00CD,   // Generic error (use only o
GAS LISTING C:\Users\kenne\AppData\Local\Temp\cc2IZjCw.s 			page 9


 442:funsape/globalDefines.hpp ****     // LCD_GENERIC_ERROR_14                                = 0x00CE,   // Generic error (use only o
 443:funsape/globalDefines.hpp ****     // LCD_GENERIC_ERROR_15                                = 0x00CF,   // Generic error (use only o
 444:funsape/globalDefines.hpp **** 
 445:funsape/globalDefines.hpp ****     // GPIO related error codes
 446:funsape/globalDefines.hpp ****     GPIO_PORT_NOT_SET                                   = 0x00D0,   // Gpio port was not set before
 447:funsape/globalDefines.hpp ****     GPIO_DATA_PORT_NOT_SET                              = 0x00D1,   // Gpio data port was not set b
 448:funsape/globalDefines.hpp ****     GPIO_CONTROL_PORT_NOT_SET                           = 0x00D2,   // Gpio control port was not se
 449:funsape/globalDefines.hpp ****     GPIO_PORT_INVALID                                   = 0x00D3,   // Gpio port address is invalid
 450:funsape/globalDefines.hpp ****     GPIO_DATA_PORT_INVALID                              = 0x00D4,   // Gpio data port address is in
 451:funsape/globalDefines.hpp ****     GPIO_CONTROL_PORT_INVALID                           = 0x00D5,   // Gpio control port address is
 452:funsape/globalDefines.hpp ****     GPIO_PIN_INDEX_INVALID                              = 0x00D6,   // Invalid GPIO Pin
 453:funsape/globalDefines.hpp ****     GPIO_PIN_INDEX_OUT_OF_BOUNDARIES                    = 0x00D7,   // Gpio pin index was out of bo
 454:funsape/globalDefines.hpp ****     // GPIO_NO_PIN_SET                                     = 0x00D8,   // No pin selected at Gpio p
 455:funsape/globalDefines.hpp ****     // GPIO_ADDRESS_INVALID                                = 0x00D9,   // Invalid GPIO Port
 456:funsape/globalDefines.hpp ****     // GPIO_PORT_LOGIC_CONTENTION                          = 0x00DA,   // TODO: Describe parameter
 457:funsape/globalDefines.hpp ****     // GPIO_GENERIC_ERROR_11                               = 0x00DB,   // Generic error (use only o
 458:funsape/globalDefines.hpp ****     // GPIO_GENERIC_ERROR_12                               = 0x00DC,   // Generic error (use only o
 459:funsape/globalDefines.hpp ****     // GPIO_GENERIC_ERROR_13                               = 0x00DD,   // Generic error (use only o
 460:funsape/globalDefines.hpp ****     // GPIO_GENERIC_ERROR_14                               = 0x00DE,   // Generic error (use only o
 461:funsape/globalDefines.hpp ****     // GPIO_GENERIC_ERROR_15                               = 0x00DF,   // Generic error (use only o
 462:funsape/globalDefines.hpp **** 
 463:funsape/globalDefines.hpp ****     // HAL related error codes
 464:funsape/globalDefines.hpp ****     // HAL_UNKNOWN_ERROR                                   = 0x00E0,   // TODO: Describe parameter
 465:funsape/globalDefines.hpp ****     // HAL_STATUS_ERROR                                    = 0x00E1,   // TODO: Describe parameter
 466:funsape/globalDefines.hpp ****     // HAL_STATUS_BUSY                                     = 0x00E2,   // TODO: Describe parameter
 467:funsape/globalDefines.hpp ****     // HAL_STATUS_TIMEOUT                                  = 0x00E3,   // TODO: Describe parameter
 468:funsape/globalDefines.hpp ****     // HAL_GENERIC_ERROR_4                                 = 0x00E4,   // Generic error (use only o
 469:funsape/globalDefines.hpp ****     // HAL_GENERIC_ERROR_5                                 = 0x00E5,   // Generic error (use only o
 470:funsape/globalDefines.hpp ****     // HAL_GENERIC_ERROR_6                                 = 0x00E6,   // Generic error (use only o
 471:funsape/globalDefines.hpp ****     // HAL_GENERIC_ERROR_7                                 = 0x00E7,   // Generic error (use only o
 472:funsape/globalDefines.hpp ****     // HAL_GENERIC_ERROR_8                                 = 0x00E8,   // Generic error (use only o
 473:funsape/globalDefines.hpp ****     // HAL_GENERIC_ERROR_9                                 = 0x00E9,   // Generic error (use only o
 474:funsape/globalDefines.hpp ****     // HAL_GENERIC_ERROR_10                                = 0x00EA,   // Generic error (use only o
 475:funsape/globalDefines.hpp ****     // HAL_GENERIC_ERROR_11                                = 0x00EB,   // Generic error (use only o
 476:funsape/globalDefines.hpp ****     // HAL_GENERIC_ERROR_12                                = 0x00EC,   // Generic error (use only o
 477:funsape/globalDefines.hpp ****     // HAL_GENERIC_ERROR_13                                = 0x00ED,   // Generic error (use only o
 478:funsape/globalDefines.hpp ****     // HAL_GENERIC_ERROR_14                                = 0x00EE,   // Generic error (use only o
 479:funsape/globalDefines.hpp ****     // HAL_GENERIC_ERROR_15                                = 0x00EF,   // Generic error (use only o
 480:funsape/globalDefines.hpp **** 
 481:funsape/globalDefines.hpp ****     // System related error codes
 482:funsape/globalDefines.hpp ****     // SYSTEM_US_TIMER_HANDLER_NULL                        = 0x00F0,   // TODO: Describe parameter
 483:funsape/globalDefines.hpp ****     // SYSTEM_GENERIC_ERROR_1                              = 0x00F1,   // Generic error (use only o
 484:funsape/globalDefines.hpp ****     // SYSTEM_GENERIC_ERROR_2                              = 0x00F2,   // Generic error (use only o
 485:funsape/globalDefines.hpp ****     // SYSTEM_GENERIC_ERROR_3                              = 0x00F3,   // Generic error (use only o
 486:funsape/globalDefines.hpp ****     // SYSTEM_GENERIC_ERROR_4                              = 0x00F4,   // Generic error (use only o
 487:funsape/globalDefines.hpp ****     // SYSTEM_GENERIC_ERROR_5                              = 0x00F5,   // Generic error (use only o
 488:funsape/globalDefines.hpp ****     // SYSTEM_GENERIC_ERROR_6                              = 0x00F6,   // Generic error (use only o
 489:funsape/globalDefines.hpp ****     // SYSTEM_GENERIC_ERROR_7                              = 0x00F7,   // Generic error (use only o
 490:funsape/globalDefines.hpp ****     // SYSTEM_GENERIC_ERROR_8                              = 0x00F8,   // Generic error (use only o
 491:funsape/globalDefines.hpp ****     // SYSTEM_GENERIC_ERROR_9                              = 0x00F9,   // Generic error (use only o
 492:funsape/globalDefines.hpp ****     // SYSTEM_GENERIC_ERROR_10                             = 0x00FA,   // Generic error (use only o
 493:funsape/globalDefines.hpp ****     // SYSTEM_GENERIC_ERROR_11                             = 0x00FB,   // Generic error (use only o
 494:funsape/globalDefines.hpp ****     // SYSTEM_GENERIC_ERROR_12                             = 0x00FC,   // Generic error (use only o
 495:funsape/globalDefines.hpp ****     // SYSTEM_GENERIC_ERROR_13                             = 0x00FD,   // Generic error (use only o
 496:funsape/globalDefines.hpp ****     // SYSTEM_GENERIC_ERROR_14                             = 0x00FE,   // Generic error (use only o
 497:funsape/globalDefines.hpp ****     // SYSTEM_GENERIC_ERROR_15                             = 0x00FF,   // Generic error (use only o
 498:funsape/globalDefines.hpp **** 
GAS LISTING C:\Users\kenne\AppData\Local\Temp\cc2IZjCw.s 			page 10


 499:funsape/globalDefines.hpp ****     // FatFs related error codes
 500:funsape/globalDefines.hpp ****     // FAT_FS_UNKNOWN_ERROR                                = 0x0100,   // TODO: Describe parameter
 501:funsape/globalDefines.hpp ****     // FAT_FS_DRIVE_UNSUPPORTED                            = 0x0101,   // TODO: Describe parameter
 502:funsape/globalDefines.hpp ****     // FAT_FS_DISK_NOT_INSERTED                            = 0x0102,   // TODO: Describe parameter
 503:funsape/globalDefines.hpp ****     // FAT_FS_INITIALIZATION_FAILED                        = 0x0103,   // TODO: Describe parameter
 504:funsape/globalDefines.hpp ****     // FAT_FS_GENERIC_ERROR_4                              = 0x0104,   // Generic error (use only o
 505:funsape/globalDefines.hpp ****     // FAT_FS_GENERIC_ERROR_5                              = 0x0105,   // Generic error (use only o
 506:funsape/globalDefines.hpp ****     // FAT_FS_GENERIC_ERROR_6                              = 0x0106,   // Generic error (use only o
 507:funsape/globalDefines.hpp ****     // FAT_FS_GENERIC_ERROR_7                              = 0x0107,   // Generic error (use only o
 508:funsape/globalDefines.hpp ****     // FAT_FS_GENERIC_ERROR_8                              = 0x0108,   // Generic error (use only o
 509:funsape/globalDefines.hpp ****     // FAT_FS_GENERIC_ERROR_9                              = 0x0109,   // Generic error (use only o
 510:funsape/globalDefines.hpp ****     // FAT_FS_GENERIC_ERROR_10                             = 0x010A,   // Generic error (use only o
 511:funsape/globalDefines.hpp ****     // FAT_FS_GENERIC_ERROR_11                             = 0x010B,   // Generic error (use only o
 512:funsape/globalDefines.hpp ****     // FAT_FS_GENERIC_ERROR_12                             = 0x010C,   // Generic error (use only o
 513:funsape/globalDefines.hpp ****     // FAT_FS_GENERIC_ERROR_13                             = 0x010D,   // Generic error (use only o
 514:funsape/globalDefines.hpp ****     // FAT_FS_GENERIC_ERROR_14                             = 0x010E,   // Generic error (use only o
 515:funsape/globalDefines.hpp ****     // FAT_FS_GENERIC_ERROR_15                             = 0x010F,   // Generic error (use only o
 516:funsape/globalDefines.hpp **** 
 517:funsape/globalDefines.hpp ****     // Uncategorized error codes
 518:funsape/globalDefines.hpp ****     // LCD_OUT_OF_BOUNDARIES                               = 0xFFF1,   // TODO: Describe parameter
 519:funsape/globalDefines.hpp ****     // CONTROLLER_NOT_SUPPORTED                            = 0xFFF2,   // Unsupported controller
 520:funsape/globalDefines.hpp ****     // DEVICE_ID_MATCH_FAILED                              = 0xFFF3,   // Device ID doesn't match
 521:funsape/globalDefines.hpp ****     // DMA_NOT_SUPPORTED                                   = 0xFFF4,   // DMA interface mode is not
 522:funsape/globalDefines.hpp ****     // DMA_TRANSFER_ERROR                                  = 0xFFF5,   // DMA transfer error
 523:funsape/globalDefines.hpp ****     // MESSAGE_TOO_LONG                                    = 0xFFF6,   // Message is to long to be 
 524:funsape/globalDefines.hpp ****     // VALID_DATA_NOT_AVAILABLE                            = 0xFFF7,   // Valid data was unavailabl
 525:funsape/globalDefines.hpp ****     // PERIPHERAL_NOT_READY                                = 0xFFF8,   // TODO: Describe parameter
 526:funsape/globalDefines.hpp ****     // STOPWATCH_NOT_STARTED                               = 0xFFF9,   // TODO: Describe parameter
 527:funsape/globalDefines.hpp ****     // UNCATEGORIZED_GENERIC_ERROR_10                      = 0xFFFA,   // Generic error (use only o
 528:funsape/globalDefines.hpp ****     // UNCATEGORIZED_GENERIC_ERROR_11                      = 0xFFFB,   // Generic error (use only o
 529:funsape/globalDefines.hpp ****     // UNCATEGORIZED_GENERIC_ERROR_12                      = 0xFFFC,   // Generic error (use only o
 530:funsape/globalDefines.hpp ****     // UNCATEGORIZED_GENERIC_ERROR_13                      = 0xFFFD,   // Generic error (use only o
 531:funsape/globalDefines.hpp ****     // UNCATEGORIZED_GENERIC_ERROR_14                      = 0xFFFE,   // Generic error (use only o
 532:funsape/globalDefines.hpp **** 
 533:funsape/globalDefines.hpp ****     KEYPAD_COLUMNS_PIN_INDEX_INVALID                    = 0xFFF9,
 534:funsape/globalDefines.hpp ****     KEYPAD_LINES_PIN_INDEX_INVALID                      = 0xFFFA,
 535:funsape/globalDefines.hpp **** 
 536:funsape/globalDefines.hpp ****     KEYPAD_LINES_GPIO_PORT_INVALID                      = 0xFFFB,
 537:funsape/globalDefines.hpp ****     KEYPAD_COLUMNS_GPIO_PORT_INVALID                    = 0xFFFC,
 538:funsape/globalDefines.hpp ****     KEYPAD_TYPE_UNSUPPORTED                             = 0xFFFD,
 539:funsape/globalDefines.hpp ****     KEY_VALUES_NOT_SET                                  = 0xFFFE,
 540:funsape/globalDefines.hpp ****     // "I don't have the slightest idea" error code
 541:funsape/globalDefines.hpp ****     UNKNOWN                                             = 0xFFFF,   // Unknown error - Ops!!!!
 542:funsape/globalDefines.hpp **** };
 543:funsape/globalDefines.hpp **** 
 544:funsape/globalDefines.hpp **** // =============================================================================
 545:funsape/globalDefines.hpp **** // Macrofunctions
 546:funsape/globalDefines.hpp **** // =============================================================================
 547:funsape/globalDefines.hpp **** 
 548:funsape/globalDefines.hpp **** //     //////////////////////     DATA VALIDITY    //////////////////////     //
 549:funsape/globalDefines.hpp **** #define isGpioAddressValid(gpioPort)    (       \
 550:funsape/globalDefines.hpp ****         (IS_GPIO_ALL_INSTANCE(gpioPort))        \
 551:funsape/globalDefines.hpp ****         ? (bool_t)true                          \
 552:funsape/globalDefines.hpp ****         : (bool_t)false)
 553:funsape/globalDefines.hpp **** #define isGpioPinIndexValid(gpioPin)    (       \
 554:funsape/globalDefines.hpp ****         (IS_GPIO_ALL_PIN_NUMBER(gpioPin))       \
 555:funsape/globalDefines.hpp ****         ? (bool_t)true                          \
GAS LISTING C:\Users\kenne\AppData\Local\Temp\cc2IZjCw.s 			page 11


 556:funsape/globalDefines.hpp ****         : (bool_t)false)
 557:funsape/globalDefines.hpp **** #define isPointerValid(ptr)             (       \
 558:funsape/globalDefines.hpp ****         ((void *)(ptr))                         \
 559:funsape/globalDefines.hpp ****         ? (bool_t)true                          \
 560:funsape/globalDefines.hpp ****         : (bool_t)false)
 561:funsape/globalDefines.hpp **** 
 562:funsape/globalDefines.hpp **** //     //////////////////////     BIT HANDLING     //////////////////////     //
 563:funsape/globalDefines.hpp **** #ifndef setBit
 564:funsape/globalDefines.hpp **** #   define setBit(reg, bit)                     ((reg) |= (1 << (bit)))
 565:funsape/globalDefines.hpp **** #endif
 566:funsape/globalDefines.hpp **** #ifndef clrBit
 567:funsape/globalDefines.hpp **** #   define clrBit(reg, bit)                     ((reg) &= ~(1 << (bit)))
 568:funsape/globalDefines.hpp **** #endif
 569:funsape/globalDefines.hpp **** #ifndef cplBit
 570:funsape/globalDefines.hpp **** #   define cplBit(reg, bit)                     ((reg) ^= (1 << (bit)))
 571:funsape/globalDefines.hpp **** #endif
 572:funsape/globalDefines.hpp **** 
 573:funsape/globalDefines.hpp **** //     ///////////////////////     BIT TESTING    ///////////////////////     //
 574:funsape/globalDefines.hpp **** #ifndef isBitSet
 575:funsape/globalDefines.hpp **** #   define isBitSet(reg, bit)                   (((reg) >> (bit)) & 1)
 576:funsape/globalDefines.hpp **** #endif
 577:funsape/globalDefines.hpp **** #ifndef isBitClr
 578:funsape/globalDefines.hpp **** #   define isBitClr(reg, bit)                   (!isBitSet(reg,bit))
 579:funsape/globalDefines.hpp **** #endif
 580:funsape/globalDefines.hpp **** 
 581:funsape/globalDefines.hpp **** //     ///////////////////////     BIT LOOPING    ///////////////////////     //
 582:funsape/globalDefines.hpp **** #ifndef waitUntilBitIsSet
 583:funsape/globalDefines.hpp **** #   define waitUntilBitIsSet(reg, bit)          do{     \
 584:funsape/globalDefines.hpp ****         doNothing();                                    \
 585:funsape/globalDefines.hpp ****     } while (isBitClr((reg), (bit)))
 586:funsape/globalDefines.hpp **** #endif
 587:funsape/globalDefines.hpp **** #ifndef waitUntilBitIsClear
 588:funsape/globalDefines.hpp **** #   define waitUntilBitIsClear(reg, bit)        do{     \
 589:funsape/globalDefines.hpp ****         doNothing();                                    \
 590:funsape/globalDefines.hpp ****     }while(isBitSet((reg), (bit)))
 591:funsape/globalDefines.hpp **** #endif
 592:funsape/globalDefines.hpp **** 
 593:funsape/globalDefines.hpp **** //     ////////////////////     BIT MASK HANDLING    ////////////////////     //
 594:funsape/globalDefines.hpp **** #ifndef setMask
 595:funsape/globalDefines.hpp **** #   define setMask(reg, mask)                   ((reg) |= (mask))
 596:funsape/globalDefines.hpp **** #endif
 597:funsape/globalDefines.hpp **** #ifndef clrMask
 598:funsape/globalDefines.hpp **** #   define clrMask(reg, mask)                   ((reg) &= ~(mask))
 599:funsape/globalDefines.hpp **** #endif
 600:funsape/globalDefines.hpp **** #ifndef cplMask
 601:funsape/globalDefines.hpp **** #   define cplMask(reg, mask)                   ((reg) ^= (mask))
 602:funsape/globalDefines.hpp **** #endif
 603:funsape/globalDefines.hpp **** 
 604:funsape/globalDefines.hpp **** //     ////////////////     BIT MASK OFFSET HANDLING     ////////////////     //
 605:funsape/globalDefines.hpp **** #ifndef setMaskOffset
 606:funsape/globalDefines.hpp **** #   define setMaskOffset(reg, mask, offset)     ((reg) |= ((mask) << (offset)))
 607:funsape/globalDefines.hpp **** #endif
 608:funsape/globalDefines.hpp **** #ifndef clrMaskOffset
 609:funsape/globalDefines.hpp **** #   define clrMaskOffset(reg, mask, offset)     ((reg) &= ~((mask) << (offset)))
 610:funsape/globalDefines.hpp **** #endif
 611:funsape/globalDefines.hpp **** #ifndef cplMaskOffset
 612:funsape/globalDefines.hpp **** #   define cplMaskOffset(reg, mask, offset)     ((reg) ^= ((mask) << (offset)))
GAS LISTING C:\Users\kenne\AppData\Local\Temp\cc2IZjCw.s 			page 12


 613:funsape/globalDefines.hpp **** #endif
 614:funsape/globalDefines.hpp **** 
 615:funsape/globalDefines.hpp **** //     /////////////     DATA MANIPULATION (8-BITS WIDE)    /////////////     //
 616:funsape/globalDefines.hpp **** #define byteGetNibble1(dataByte)        (((dataByte) >> 4) & 0x0F)
 617:funsape/globalDefines.hpp **** #define byteGetNibble0(dataByte)        ((dataByte) & 0x0F)
 618:funsape/globalDefines.hpp **** #define byteSwitchNibbles(dataByte)     ((byteGetNibble0(dataByte) << 4) | \
 619:funsape/globalDefines.hpp ****         (byteGetNibble1(dataByte)))
 620:funsape/globalDefines.hpp **** 
 621:funsape/globalDefines.hpp **** //     ////////////     DATA MANIPULATION (16-BITS WIDE)     ////////////     //
 622:funsape/globalDefines.hpp **** #define hwordGetByte1(dataHword)        (((dataHword) >> 8) & 0x00FF)
 623:funsape/globalDefines.hpp **** #define hwordGetByte0(dataHword)        ((dataHword) & 0x00FF)
 624:funsape/globalDefines.hpp **** #define hwordSwitchBytes(dataHword)     ((hwordGetByte0(dataHword) << 8) | \
 625:funsape/globalDefines.hpp ****         (hwordGetByte1(dataHword)))
 626:funsape/globalDefines.hpp **** 
 627:funsape/globalDefines.hpp **** //     ////////////     DATA MANIPULATION (32-BITS WIDE)     ////////////     //
 628:funsape/globalDefines.hpp **** #define wordGetByte3(dataWord)          (((dataWord) >> 24) & 0x000000FF)
 629:funsape/globalDefines.hpp **** #define wordGetByte2(dataWord)          (((dataWord) >> 16) & 0x000000FF)
 630:funsape/globalDefines.hpp **** #define wordGetByte1(dataWord)          (((dataWord) >> 8) & 0x000000FF)
 631:funsape/globalDefines.hpp **** #define wordGetByte0(dataWord)          ((dataWord) & 0x000000FF)
 632:funsape/globalDefines.hpp **** #define wordSwitchBytes(dataWord)       ((wordGetByte0(dataWord) << 24)  | \
 633:funsape/globalDefines.hpp ****         (wordGetByte1(dataWord) << 16) | \
 634:funsape/globalDefines.hpp ****         (wordGetByte2(dataWord) << 8)  | \
 635:funsape/globalDefines.hpp ****         (wordGetByte3(dataWord)))
 636:funsape/globalDefines.hpp **** #define wordGetHword1(dataWord)         (((dataWord) >> 16) & 0x0000FFFF)
 637:funsape/globalDefines.hpp **** #define wordGetHword0(dataWord)         ((dataWord) & 0x0000FFFF)
 638:funsape/globalDefines.hpp **** #define wordSwitchHwords(dataWord)      ((wordGetHword0(dataWord) << 16) | \
 639:funsape/globalDefines.hpp ****         (wordGetHword1(dataWord)))
 640:funsape/globalDefines.hpp **** 
 641:funsape/globalDefines.hpp **** //     ////////////     DATA MANIPULATION (64-BITS WIDE)     ////////////     //
 642:funsape/globalDefines.hpp **** #define dwordGetByte7(dataDword)        (((dataDword) >> 56) & 0x00000000000000FF)
 643:funsape/globalDefines.hpp **** #define dwordGetByte6(dataDword)        (((dataDword) >> 48) & 0x00000000000000FF)
 644:funsape/globalDefines.hpp **** #define dwordGetByte5(dataDword)        (((dataDword) >> 40) & 0x00000000000000FF)
 645:funsape/globalDefines.hpp **** #define dwordGetByte4(dataDword)        (((dataDword) >> 32) & 0x00000000000000FF)
 646:funsape/globalDefines.hpp **** #define dwordGetByte3(dataDword)        (((dataDword) >> 24) & 0x00000000000000FF)
 647:funsape/globalDefines.hpp **** #define dwordGetByte2(dataDword)        (((dataDword) >> 16) & 0x00000000000000FF)
 648:funsape/globalDefines.hpp **** #define dwordGetByte1(dataDword)        (((dataDword) >> 8) & 0x00000000000000FF)
 649:funsape/globalDefines.hpp **** #define dwordGetByte0(dataDword)        ((dataDword) & 0x00000000000000FF)
 650:funsape/globalDefines.hpp **** #define dwordSwitchBytes(dataDword)     ((dwordGetByte0(dataDword) << 56)  | \
 651:funsape/globalDefines.hpp ****         (dwordGetByte1(dataDword) << 48) | \
 652:funsape/globalDefines.hpp ****         (dwordGetByte2(dataDword) << 40) | \
 653:funsape/globalDefines.hpp ****         (dwordGetByte3(dataDword) << 32) | \
 654:funsape/globalDefines.hpp ****         (dwordGetByte4(dataDword) << 24) | \
 655:funsape/globalDefines.hpp ****         (dwordGetByte5(dataDword) << 16) | \
 656:funsape/globalDefines.hpp ****         (dwordGetByte6(dataDword) << 8)  | \
 657:funsape/globalDefines.hpp ****         (dwordGetByte7(dataDword)))
 658:funsape/globalDefines.hpp **** #define dwordGetHword3(dataDword)       ((dataDword >> 48) & 0x000000000000FFFF)
 659:funsape/globalDefines.hpp **** #define dwordGetHword2(dataDword)       ((dataDword >> 32) & 0x000000000000FFFF)
 660:funsape/globalDefines.hpp **** #define dwordGetHword1(dataDword)       ((dataDword >> 16) & 0x000000000000FFFF)
 661:funsape/globalDefines.hpp **** #define dwordGetHword0(dataDword)       ((dataDword >> 0) & 0x000000000000FFFF)
 662:funsape/globalDefines.hpp **** #define dwordSwitchHwords(dataDword)    ((dwordGetHword0(dataDword) << 48)  | \
 663:funsape/globalDefines.hpp ****         (dwordGetHword1(dataDword) << 32) | \
 664:funsape/globalDefines.hpp ****         (dwordGetHword2(dataDword) << 16) | \
 665:funsape/globalDefines.hpp ****         (dwordGetHword3(dataDword)))
 666:funsape/globalDefines.hpp **** #define dwordGetWord1(dataDword)         (((dataDword) >> 32) & 0x00000000FFFFFFFF)
 667:funsape/globalDefines.hpp **** #define dwordGetWord0(dataDword)         ((dataDword) & 0x00000000FFFFFFFF)
 668:funsape/globalDefines.hpp **** #define dwordSwitchWords(dataDword)     ((dwordGetWord0(dataDword) << 32)  | \
 669:funsape/globalDefines.hpp ****         (dwordGetWord1(dataDword)))
GAS LISTING C:\Users\kenne\AppData\Local\Temp\cc2IZjCw.s 			page 13


 670:funsape/globalDefines.hpp **** 
 671:funsape/globalDefines.hpp **** //     /////////////////////     TRUNCATE VALUES    /////////////////////     //
 672:funsape/globalDefines.hpp **** #define getMaximumOf(var1, var2)        (       \
 673:funsape/globalDefines.hpp ****         ((var1) > (var2))                       \
 674:funsape/globalDefines.hpp ****         ? (var1)                                \
 675:funsape/globalDefines.hpp ****         : (var2))
 676:funsape/globalDefines.hpp **** #define getMinimumOf(var1, var2)        (       \
 677:funsape/globalDefines.hpp ****         ((var1) < (var2))                       \
 678:funsape/globalDefines.hpp ****         ? (var1)                                \
 679:funsape/globalDefines.hpp ****         : (var2))
 680:funsape/globalDefines.hpp **** #define truncateBetween(var, min, max)  (       \
 681:funsape/globalDefines.hpp ****         ((var) < (min))                         \
 682:funsape/globalDefines.hpp ****         ? (min)                                 \
 683:funsape/globalDefines.hpp ****         : (((var) > (max))                      \
 684:funsape/globalDefines.hpp ****                 ? (max)                         \
 685:funsape/globalDefines.hpp ****                 : (var)                         \
 686:funsape/globalDefines.hpp ****         ))
 687:funsape/globalDefines.hpp **** 
 688:funsape/globalDefines.hpp **** //     //////////////////////     STRINGIFYING    ///////////////////////     //
 689:funsape/globalDefines.hpp **** #define stringifyName(constant)         #constant
 690:funsape/globalDefines.hpp **** #define stringifyValue(constant)        stringifyName(constant)
 691:funsape/globalDefines.hpp **** 
 692:funsape/globalDefines.hpp **** // =============================================================================
 693:funsape/globalDefines.hpp **** // Extern global variables
 694:funsape/globalDefines.hpp **** // =============================================================================
 695:funsape/globalDefines.hpp **** 
 696:funsape/globalDefines.hpp **** // NONE
 697:funsape/globalDefines.hpp **** 
 698:funsape/globalDefines.hpp **** // =============================================================================
 699:funsape/globalDefines.hpp **** // Inline functions declaration
 700:funsape/globalDefines.hpp **** // =============================================================================
 701:funsape/globalDefines.hpp **** 
 702:funsape/globalDefines.hpp **** //     ///////////////////     CHARACTER HANDLING    ////////////////////     //
 703:funsape/globalDefines.hpp **** char_t inlined toLowerCase(cchar_t character_p);
 704:funsape/globalDefines.hpp **** char_t inlined toUpperCase(cchar_t character_p);
 705:funsape/globalDefines.hpp **** 
 706:funsape/globalDefines.hpp **** //     /////////////////////     DATA VALIDITY     //////////////////////     //
 707:funsape/globalDefines.hpp **** bool_t inlined isAsciiLowerCaseLetter(cchar_t character_p);
 708:funsape/globalDefines.hpp **** bool_t inlined isAsciiUpperCaseLetter(cchar_t character_p);
 709:funsape/globalDefines.hpp **** bool_t inlined isAsciiCommand(cchar_t character_p);
 710:funsape/globalDefines.hpp **** bool_t inlined isAsciiLetter(cchar_t character_p);
 711:funsape/globalDefines.hpp **** bool_t inlined isAsciiNumber(cchar_t character_p);
 712:funsape/globalDefines.hpp **** bool_t inlined isAsciiSymbol(cchar_t character_p);
 713:funsape/globalDefines.hpp **** 
 714:funsape/globalDefines.hpp **** //     /////////////////////     SYSTEM ACTIONS    //////////////////////     //
 715:funsape/globalDefines.hpp **** void inlined die(Error errorCode_p);
 716:funsape/globalDefines.hpp **** void inlined doNop(void);
 717:funsape/globalDefines.hpp **** void inlined doNothing(void);
 718:funsape/globalDefines.hpp **** void inlined systemHalt(void (*function_p)(void) = nullptr);
 719:funsape/globalDefines.hpp **** 
 720:funsape/globalDefines.hpp **** // =============================================================================
 721:funsape/globalDefines.hpp **** // Inline functions definitions
 722:funsape/globalDefines.hpp **** // =============================================================================
 723:funsape/globalDefines.hpp **** 
 724:funsape/globalDefines.hpp **** //     ///////////////////     CHARACTER HANDLING    ////////////////////     //
 725:funsape/globalDefines.hpp **** char_t inlined toLowerCase(cchar_t character_p)
 726:funsape/globalDefines.hpp **** {
GAS LISTING C:\Users\kenne\AppData\Local\Temp\cc2IZjCw.s 			page 14


 727:funsape/globalDefines.hpp ****     return ((isAsciiUpperCaseLetter(character_p)) ? (character_p + 0x20) : character_p);
 728:funsape/globalDefines.hpp **** }
 729:funsape/globalDefines.hpp **** 
 730:funsape/globalDefines.hpp **** char_t inlined toUpperCase(cchar_t character_p)
 731:funsape/globalDefines.hpp **** {
 732:funsape/globalDefines.hpp ****     return ((isAsciiLowerCaseLetter(character_p)) ? (character_p - 0x20) : character_p);
 733:funsape/globalDefines.hpp **** }
 734:funsape/globalDefines.hpp **** 
 735:funsape/globalDefines.hpp **** //     /////////////////////     DATA VALIDITY     //////////////////////     //
 736:funsape/globalDefines.hpp **** bool_t inlined isAsciiLowerCaseLetter(cchar_t character_p)
 737:funsape/globalDefines.hpp **** {
 738:funsape/globalDefines.hpp ****     return ((bool_t)(((character_p >= 'a') && (character_p <= 'z')) ? true : false));
 739:funsape/globalDefines.hpp **** }
 740:funsape/globalDefines.hpp **** 
 741:funsape/globalDefines.hpp **** bool_t inlined isAsciiUpperCaseLetter(cchar_t character_p)
 742:funsape/globalDefines.hpp **** {
 743:funsape/globalDefines.hpp ****     return ((bool_t)(((character_p >= 'A') && (character_p <= 'Z')) ? true : false));
 744:funsape/globalDefines.hpp **** }
 745:funsape/globalDefines.hpp **** 
 746:funsape/globalDefines.hpp **** bool_t inlined isAsciiCommand(cchar_t character_p)
 747:funsape/globalDefines.hpp **** {
 748:funsape/globalDefines.hpp ****     return ((bool_t)((character_p < ' ') ? true : false));
 749:funsape/globalDefines.hpp **** }
 750:funsape/globalDefines.hpp **** 
 751:funsape/globalDefines.hpp **** bool_t inlined isAsciiLetter(cchar_t character_p)
 752:funsape/globalDefines.hpp **** {
 753:funsape/globalDefines.hpp ****     return ((bool_t)((isAsciiLowerCaseLetter(character_p) || (isAsciiUpperCaseLetter(character_p)) 
 754:funsape/globalDefines.hpp **** }
 755:funsape/globalDefines.hpp **** 
 756:funsape/globalDefines.hpp **** bool_t inlined isAsciiNumber(cchar_t character_p)
 757:funsape/globalDefines.hpp **** {
 758:funsape/globalDefines.hpp ****     return ((bool_t)(((character_p >= '0') && (character_p <= '9')) ? true : false));
 759:funsape/globalDefines.hpp **** }
 760:funsape/globalDefines.hpp **** 
 761:funsape/globalDefines.hpp **** bool_t inlined isAsciiSymbol(cchar_t character_p)
 762:funsape/globalDefines.hpp **** {
 763:funsape/globalDefines.hpp ****     return ((bool_t)(((!isAsciiNumber(character_p)) && (!isAsciiCommand(character_p)) &&
 764:funsape/globalDefines.hpp ****                                     (!isAsciiLetter(character_p))) ? true : false));
 765:funsape/globalDefines.hpp **** }
 766:funsape/globalDefines.hpp **** 
 767:funsape/globalDefines.hpp **** //     /////////////////////     SYSTEM ACTIONS    //////////////////////     //
 768:funsape/globalDefines.hpp **** void inlined die(Error errorCode_p)
 769:funsape/globalDefines.hpp **** {
 770:funsape/globalDefines.hpp ****     printf("Failed with error=%u (0x%04x).\r", (cuint16_t)errorCode_p, (cuint16_t)errorCode_p);
 771:funsape/globalDefines.hpp ****     systemHalt();
 772:funsape/globalDefines.hpp **** 
 773:funsape/globalDefines.hpp ****     return;
 774:funsape/globalDefines.hpp **** }
 775:funsape/globalDefines.hpp **** 
 776:funsape/globalDefines.hpp **** void inlined doNop(void)
 777:funsape/globalDefines.hpp **** {
 778:funsape/globalDefines.hpp ****     asm volatile("nop");
 779:funsape/globalDefines.hpp **** 
 780:funsape/globalDefines.hpp ****     return;
 781:funsape/globalDefines.hpp **** }
 782:funsape/globalDefines.hpp **** 
 783:funsape/globalDefines.hpp **** void inlined doNothing(void)
GAS LISTING C:\Users\kenne\AppData\Local\Temp\cc2IZjCw.s 			page 15


 784:funsape/globalDefines.hpp **** {
 785:funsape/globalDefines.hpp ****     return;
 786:funsape/globalDefines.hpp **** }
 787:funsape/globalDefines.hpp **** 
 788:funsape/globalDefines.hpp **** void inlined systemHalt(void (*function_p)(void))
 789:funsape/globalDefines.hpp **** {
 790:funsape/globalDefines.hpp ****     if(isPointerValid(function_p)) {
 791:funsape/globalDefines.hpp ****         function_p();
 792:funsape/globalDefines.hpp ****     }
 793:funsape/globalDefines.hpp ****     while(1) {
 794:funsape/globalDefines.hpp ****         doNothing();
 795:funsape/globalDefines.hpp ****     }
 796:funsape/globalDefines.hpp **** 
 797:funsape/globalDefines.hpp ****     return;
 798:funsape/globalDefines.hpp **** }
 799:funsape/globalDefines.hpp **** 
 800:funsape/globalDefines.hpp **** // =============================================================================
 801:funsape/globalDefines.hpp **** // Public functions weakly defined
 802:funsape/globalDefines.hpp **** // =============================================================================
 803:funsape/globalDefines.hpp **** 
 804:funsape/globalDefines.hpp **** #define delayMs(time_p)                 _delay_ms(time_p)
 805:funsape/globalDefines.hpp **** #define delayUs(time_p)                 _delay_us(time_p)
 806:funsape/globalDefines.hpp **** 
 807:funsape/globalDefines.hpp **** weakened uint32_t getTick(void)
 808:funsape/globalDefines.hpp **** {
  17               		.loc 1 808 1 view -0
  18               		.cfi_startproc
  19               	/* prologue: function */
  20               	/* frame size = 0 */
  21               	/* stack size = 0 */
  22               	.L__stack_usage = 0
 809:funsape/globalDefines.hpp ****     // TODO
 810:funsape/globalDefines.hpp ****     return 0;
  23               		.loc 1 810 5 view .LVU1
 811:funsape/globalDefines.hpp **** }
  24               		.loc 1 811 1 is_stmt 0 view .LVU2
  25 0000 60E0      		ldi r22,0
  26 0002 70E0      		ldi r23,0
  27 0004 CB01      		movw r24,r22
  28               	/* epilogue start */
  29 0006 0895      		ret
  30               		.cfi_endproc
  31               	.LFE32:
  33               		.section	.text._Z6typingihh,"ax",@progbits
  34               	.global	_Z6typingihh
  36               	_Z6typingihh:
  37               	.LVL0:
  38               	.LFB55:
  39               		.file 2 "main.cpp"
   1:main.cpp      **** //---DEFINIES---//
   2:main.cpp      **** #define F_CPU 16000000UL
   3:main.cpp      **** 
   4:main.cpp      **** //---INCLUDES---//
   5:main.cpp      **** #include <avr/io.h>
   6:main.cpp      **** #include <util/delay.h>
   7:main.cpp      **** #include <avr/interrupt.h>
   8:main.cpp      **** #include "funsape/globalDefines.hpp"
GAS LISTING C:\Users\kenne\AppData\Local\Temp\cc2IZjCw.s 			page 16


   9:main.cpp      **** #include "funsape/peripheral/timer1.hpp"
  10:main.cpp      **** #include "funsape/device/hd44780.hpp"
  11:main.cpp      **** #include "funsape/device/keypad.hpp"
  12:main.cpp      **** 
  13:main.cpp      **** //globals
  14:main.cpp      **** uint32_t aux = 2999;
  15:main.cpp      **** int16_t angulo;
  16:main.cpp      **** 
  17:main.cpp      **** int16_t typing(int16_t valor, uint8_t digitado, uint8_t subestado)
  18:main.cpp      **** {
  40               		.loc 2 18 1 is_stmt 1 view -0
  41               		.cfi_startproc
  42               	/* prologue: function */
  43               	/* frame size = 0 */
  44               	/* stack size = 0 */
  45               	.L__stack_usage = 0
  46               		.loc 2 18 1 is_stmt 0 view .LVU4
  47 0000 282F      		mov r18,r24
  48 0002 392F      		mov r19,r25
  19:main.cpp      ****     switch(subestado) {
  49               		.loc 2 19 5 is_stmt 1 view .LVU5
  50 0004 4230      		cpi r20,lo8(2)
  51 0006 01F0      		breq .L3
  52 0008 4330      		cpi r20,lo8(3)
  53 000a 01F0      		breq .L4
  54 000c 4130      		cpi r20,lo8(1)
  55 000e 01F0      		breq .L10
  20:main.cpp      ****     case 1:
  21:main.cpp      ****         valor = digitado;
  22:main.cpp      ****         break;
  23:main.cpp      ****     case 2:
  24:main.cpp      ****         if(valor < 0) {
  25:main.cpp      ****             valor = valor * 10 - digitado;
  26:main.cpp      ****             break;
  27:main.cpp      ****         } else {
  28:main.cpp      ****             valor = valor * 10 + digitado;
  29:main.cpp      ****             break;
  30:main.cpp      ****         }
  31:main.cpp      **** 
  32:main.cpp      ****     case 3:
  33:main.cpp      ****         if(valor < 0) {
  34:main.cpp      ****             valor = valor * 10 - digitado;
  35:main.cpp      ****             break;
  36:main.cpp      ****         } else {
  37:main.cpp      ****             valor = valor * 10 + digitado;
  38:main.cpp      ****             break;
  39:main.cpp      ****         }
  40:main.cpp      ****     default:
  56               		.loc 2 40 5 view .LVU6
  41:main.cpp      ****         if(valor < 0) {
  57               		.loc 2 41 9 view .LVU7
  58 0010 3323      		tst r19
  59 0012 04F4      		brge .+2
  60 0014 00C0      		rjmp .L11
  42:main.cpp      ****             valor = valor * 10 - digitado;
  43:main.cpp      ****             break;
  44:main.cpp      ****         } else {
GAS LISTING C:\Users\kenne\AppData\Local\Temp\cc2IZjCw.s 			page 17


  45:main.cpp      ****             valor = valor * 10 + digitado;
  61               		.loc 2 45 13 view .LVU8
  62               		.loc 2 45 27 is_stmt 0 view .LVU9
  63 0016 C901      		movw r24,r18
  64               	.LVL1:
  65               		.loc 2 45 27 view .LVU10
  66 0018 880F      		lsl r24
  67 001a 991F      		rol r25
  68 001c 880F      		lsl r24
  69 001e 991F      		rol r25
  70 0020 820F      		add r24,r18
  71 0022 931F      		adc r25,r19
  72 0024 880F      		lsl r24
  73 0026 991F      		rol r25
  74               		.loc 2 45 19 view .LVU11
  75 0028 860F      		add r24,r22
  76 002a 911D      		adc r25,__zero_reg__
  77               	.LVL2:
  46:main.cpp      ****             break;
  78               		.loc 2 46 13 is_stmt 1 view .LVU12
  47:main.cpp      ****         }
  48:main.cpp      ****     }
  49:main.cpp      ****     return valor;
  79               		.loc 2 49 5 view .LVU13
  80               	/* epilogue start */
  50:main.cpp      **** }
  81               		.loc 2 50 1 is_stmt 0 view .LVU14
  82 002c 0895      		ret
  83               	.L10:
  20:main.cpp      ****         valor = digitado;
  84               		.loc 2 20 5 is_stmt 1 view .LVU15
  21:main.cpp      ****         break;
  85               		.loc 2 21 9 view .LVU16
  21:main.cpp      ****         break;
  86               		.loc 2 21 15 is_stmt 0 view .LVU17
  87 002e 862F      		mov r24,r22
  88               	.LVL3:
  21:main.cpp      ****         break;
  89               		.loc 2 21 15 view .LVU18
  90 0030 90E0      		ldi r25,0
  91               	.LVL4:
  22:main.cpp      ****     case 2:
  92               		.loc 2 22 9 is_stmt 1 view .LVU19
  93 0032 0895      		ret
  94               	.L3:
  23:main.cpp      ****         if(valor < 0) {
  95               		.loc 2 23 5 view .LVU20
  24:main.cpp      ****             valor = valor * 10 - digitado;
  96               		.loc 2 24 9 view .LVU21
  97 0034 3323      		tst r19
  98 0036 04F0      		brlt .L12
  28:main.cpp      ****             break;
  99               		.loc 2 28 13 view .LVU22
  28:main.cpp      ****             break;
 100               		.loc 2 28 27 is_stmt 0 view .LVU23
 101 0038 C901      		movw r24,r18
 102               	.LVL5:
GAS LISTING C:\Users\kenne\AppData\Local\Temp\cc2IZjCw.s 			page 18


  28:main.cpp      ****             break;
 103               		.loc 2 28 27 view .LVU24
 104 003a 880F      		lsl r24
 105 003c 991F      		rol r25
 106 003e 880F      		lsl r24
 107 0040 991F      		rol r25
 108 0042 820F      		add r24,r18
 109 0044 931F      		adc r25,r19
 110 0046 880F      		lsl r24
 111 0048 991F      		rol r25
  28:main.cpp      ****             break;
 112               		.loc 2 28 19 view .LVU25
 113 004a 860F      		add r24,r22
 114 004c 911D      		adc r25,__zero_reg__
 115               	.LVL6:
  29:main.cpp      ****         }
 116               		.loc 2 29 13 is_stmt 1 view .LVU26
 117 004e 0895      		ret
 118               	.L12:
  25:main.cpp      ****             break;
 119               		.loc 2 25 13 view .LVU27
  25:main.cpp      ****             break;
 120               		.loc 2 25 27 is_stmt 0 view .LVU28
 121 0050 C901      		movw r24,r18
 122               	.LVL7:
  25:main.cpp      ****             break;
 123               		.loc 2 25 27 view .LVU29
 124 0052 880F      		lsl r24
 125 0054 991F      		rol r25
 126 0056 880F      		lsl r24
 127 0058 991F      		rol r25
 128 005a 820F      		add r24,r18
 129 005c 931F      		adc r25,r19
 130 005e 880F      		lsl r24
 131 0060 991F      		rol r25
  25:main.cpp      ****             break;
 132               		.loc 2 25 19 view .LVU30
 133 0062 861B      		sub r24,r22
 134 0064 9109      		sbc r25,__zero_reg__
 135               	.LVL8:
  26:main.cpp      ****         } else {
 136               		.loc 2 26 13 is_stmt 1 view .LVU31
 137 0066 0895      		ret
 138               	.L4:
  32:main.cpp      ****         if(valor < 0) {
 139               		.loc 2 32 5 view .LVU32
  33:main.cpp      ****             valor = valor * 10 - digitado;
 140               		.loc 2 33 9 view .LVU33
 141 0068 3323      		tst r19
 142 006a 04F0      		brlt .L13
  37:main.cpp      ****             break;
 143               		.loc 2 37 13 view .LVU34
  37:main.cpp      ****             break;
 144               		.loc 2 37 27 is_stmt 0 view .LVU35
 145 006c C901      		movw r24,r18
 146               	.LVL9:
  37:main.cpp      ****             break;
GAS LISTING C:\Users\kenne\AppData\Local\Temp\cc2IZjCw.s 			page 19


 147               		.loc 2 37 27 view .LVU36
 148 006e 880F      		lsl r24
 149 0070 991F      		rol r25
 150 0072 880F      		lsl r24
 151 0074 991F      		rol r25
 152 0076 820F      		add r24,r18
 153 0078 931F      		adc r25,r19
 154 007a 880F      		lsl r24
 155 007c 991F      		rol r25
  37:main.cpp      ****             break;
 156               		.loc 2 37 19 view .LVU37
 157 007e 860F      		add r24,r22
 158 0080 911D      		adc r25,__zero_reg__
 159               	.LVL10:
  38:main.cpp      ****         }
 160               		.loc 2 38 13 is_stmt 1 view .LVU38
 161 0082 0895      		ret
 162               	.L13:
  34:main.cpp      ****             break;
 163               		.loc 2 34 13 view .LVU39
  34:main.cpp      ****             break;
 164               		.loc 2 34 27 is_stmt 0 view .LVU40
 165 0084 C901      		movw r24,r18
 166               	.LVL11:
  34:main.cpp      ****             break;
 167               		.loc 2 34 27 view .LVU41
 168 0086 880F      		lsl r24
 169 0088 991F      		rol r25
 170 008a 880F      		lsl r24
 171 008c 991F      		rol r25
 172 008e 820F      		add r24,r18
 173 0090 931F      		adc r25,r19
 174 0092 880F      		lsl r24
 175 0094 991F      		rol r25
  34:main.cpp      ****             break;
 176               		.loc 2 34 19 view .LVU42
 177 0096 861B      		sub r24,r22
 178 0098 9109      		sbc r25,__zero_reg__
 179               	.LVL12:
  35:main.cpp      ****         } else {
 180               		.loc 2 35 13 is_stmt 1 view .LVU43
 181 009a 0895      		ret
 182               	.L11:
  42:main.cpp      ****             break;
 183               		.loc 2 42 13 view .LVU44
  42:main.cpp      ****             break;
 184               		.loc 2 42 27 is_stmt 0 view .LVU45
 185 009c C901      		movw r24,r18
 186               	.LVL13:
  42:main.cpp      ****             break;
 187               		.loc 2 42 27 view .LVU46
 188 009e 880F      		lsl r24
 189 00a0 991F      		rol r25
 190 00a2 880F      		lsl r24
 191 00a4 991F      		rol r25
 192 00a6 820F      		add r24,r18
 193 00a8 931F      		adc r25,r19
GAS LISTING C:\Users\kenne\AppData\Local\Temp\cc2IZjCw.s 			page 20


 194 00aa 880F      		lsl r24
 195 00ac 991F      		rol r25
  42:main.cpp      ****             break;
 196               		.loc 2 42 19 view .LVU47
 197 00ae 861B      		sub r24,r22
 198 00b0 9109      		sbc r25,__zero_reg__
 199               	.LVL14:
  43:main.cpp      ****         } else {
 200               		.loc 2 43 13 is_stmt 1 view .LVU48
 201 00b2 0895      		ret
 202               		.cfi_endproc
 203               	.LFE55:
 205               		.section	.text._Z8setanglej,"ax",@progbits
 206               	.global	_Z8setanglej
 208               	_Z8setanglej:
 209               	.LVL15:
 210               	.LFB56:
  51:main.cpp      **** 
  52:main.cpp      **** void setangle(uint16_t angulo)
  53:main.cpp      **** {
 211               		.loc 2 53 1 view -0
 212               		.cfi_startproc
 213               	/* prologue: function */
 214               	/* frame size = 0 */
 215               	/* stack size = 0 */
 216               	.L__stack_usage = 0
  54:main.cpp      ****     aux = ((100 * angulo + 13500) / 135) * 10 + 1999;
 217               		.loc 2 54 5 view .LVU50
 218               		.loc 2 54 17 is_stmt 0 view .LVU51
 219 0000 44E6      		ldi r20,lo8(100)
 220 0002 489F      		mul r20,r24
 221 0004 9001      		movw r18,r0
 222 0006 499F      		mul r20,r25
 223 0008 300D      		add r19,r0
 224 000a 1124      		clr __zero_reg__
 225               		.loc 2 54 26 view .LVU52
 226 000c 2454      		subi r18,68
 227 000e 3B4C      		sbci r19,-53
 228               		.loc 2 54 35 view .LVU53
 229 0010 ADE5      		ldi r26,lo8(93)
 230 0012 B9E7      		ldi r27,lo8(121)
 231 0014 0E94 0000 		call __umulhisi3
 232               	.LVL16:
 233               		.loc 2 54 35 view .LVU54
 234 0018 9C01      		movw r18,r24
 235 001a 0024      		clr __tmp_reg__
 236 001c 220F      		lsl r18
 237 001e 331F      		rol r19
 238 0020 001C      		rol __tmp_reg__
 239 0022 220F      		lsl r18
 240 0024 331F      		rol r19
 241 0026 001C      		rol __tmp_reg__
 242 0028 232F      		mov r18,r19
 243 002a 302D      		mov r19,__tmp_reg__
 244               		.loc 2 54 42 view .LVU55
 245 002c C901      		movw r24,r18
 246 002e 880F      		lsl r24
GAS LISTING C:\Users\kenne\AppData\Local\Temp\cc2IZjCw.s 			page 21


 247 0030 991F      		rol r25
 248 0032 880F      		lsl r24
 249 0034 991F      		rol r25
 250 0036 820F      		add r24,r18
 251 0038 931F      		adc r25,r19
 252 003a 880F      		lsl r24
 253 003c 991F      		rol r25
 254               		.loc 2 54 47 view .LVU56
 255 003e 8153      		subi r24,49
 256 0040 984F      		sbci r25,-8
 257 0042 AC01      		movw r20,r24
 258 0044 60E0      		ldi r22,0
 259 0046 70E0      		ldi r23,0
 260               		.loc 2 54 9 view .LVU57
 261 0048 4093 0000 		sts aux,r20
 262 004c 5093 0000 		sts aux+1,r21
 263 0050 6093 0000 		sts aux+2,r22
 264 0054 7093 0000 		sts aux+3,r23
  55:main.cpp      ****     timer1.setCompareAValue(aux);
 265               		.loc 2 55 5 is_stmt 1 view .LVU58
 266               	.LVL17:
 267               	.LBB76:
 268               	.LBI76:
 269               		.file 3 "funsape/peripheral/timer1.hpp"
   1:funsape/peripheral/timer1.hpp **** //!
   2:funsape/peripheral/timer1.hpp **** //! \file           timer1.hpp
   3:funsape/peripheral/timer1.hpp **** //! \brief          TIMER1 peripheral control for the FunSAPE AVR8 Library
   4:funsape/peripheral/timer1.hpp **** //! \author         Leandro Schwarz (bladabuska+funsapeavr8lib@gmail.com)
   5:funsape/peripheral/timer1.hpp **** //! \date           2023-04-05
   6:funsape/peripheral/timer1.hpp **** //! \version        23.04
   7:funsape/peripheral/timer1.hpp **** //! \copyright      license
   8:funsape/peripheral/timer1.hpp **** //! \details        TIMER1 peripheral control for the FunSAPE AVR8 Library
   9:funsape/peripheral/timer1.hpp **** //! \todo           Todo list
  10:funsape/peripheral/timer1.hpp **** //!
  11:funsape/peripheral/timer1.hpp **** 
  12:funsape/peripheral/timer1.hpp **** // =============================================================================
  13:funsape/peripheral/timer1.hpp **** // Include guard (START)
  14:funsape/peripheral/timer1.hpp **** // =============================================================================
  15:funsape/peripheral/timer1.hpp **** 
  16:funsape/peripheral/timer1.hpp **** #ifndef __TIMER1_HPP
  17:funsape/peripheral/timer1.hpp **** #define __TIMER1_HPP                            2304
  18:funsape/peripheral/timer1.hpp **** 
  19:funsape/peripheral/timer1.hpp **** // =============================================================================
  20:funsape/peripheral/timer1.hpp **** // Dependencies
  21:funsape/peripheral/timer1.hpp **** // =============================================================================
  22:funsape/peripheral/timer1.hpp **** 
  23:funsape/peripheral/timer1.hpp **** //     /////////////////     GLOBAL DEFINITIONS FILE    /////////////////     //
  24:funsape/peripheral/timer1.hpp **** #include "../globalDefines.hpp"
  25:funsape/peripheral/timer1.hpp **** #if !defined(__GLOBAL_DEFINES_HPP)
  26:funsape/peripheral/timer1.hpp **** #    error "Global definitions file is corrupted!"
  27:funsape/peripheral/timer1.hpp **** #elif __GLOBAL_DEFINES_HPP != __TIMER1_HPP
  28:funsape/peripheral/timer1.hpp **** #    error "Version mismatch between file header and global definitions file!"
  29:funsape/peripheral/timer1.hpp **** #endif
  30:funsape/peripheral/timer1.hpp **** 
  31:funsape/peripheral/timer1.hpp **** //     //////////////////     LIBRARY DEPENDENCIES     //////////////////     //
  32:funsape/peripheral/timer1.hpp **** #include "../util/debug.hpp"
  33:funsape/peripheral/timer1.hpp **** #if !defined(__DEBUG_HPP)
GAS LISTING C:\Users\kenne\AppData\Local\Temp\cc2IZjCw.s 			page 22


  34:funsape/peripheral/timer1.hpp **** #   error "Header file (debug.hpp) is corrupted!"
  35:funsape/peripheral/timer1.hpp **** #elif __DEBUG_HPP != __TIMER1_HPP
  36:funsape/peripheral/timer1.hpp **** #   error "Version mismatch between header file and library dependency (debug.hpp)!"
  37:funsape/peripheral/timer1.hpp **** #endif
  38:funsape/peripheral/timer1.hpp **** 
  39:funsape/peripheral/timer1.hpp **** // =============================================================================
  40:funsape/peripheral/timer1.hpp **** // Undefining previous definitions
  41:funsape/peripheral/timer1.hpp **** // =============================================================================
  42:funsape/peripheral/timer1.hpp **** 
  43:funsape/peripheral/timer1.hpp **** // NONE
  44:funsape/peripheral/timer1.hpp **** 
  45:funsape/peripheral/timer1.hpp **** // =============================================================================
  46:funsape/peripheral/timer1.hpp **** // Constant definitions
  47:funsape/peripheral/timer1.hpp **** // =============================================================================
  48:funsape/peripheral/timer1.hpp **** 
  49:funsape/peripheral/timer1.hpp **** // NONE
  50:funsape/peripheral/timer1.hpp **** 
  51:funsape/peripheral/timer1.hpp **** // =============================================================================
  52:funsape/peripheral/timer1.hpp **** // New data types
  53:funsape/peripheral/timer1.hpp **** // =============================================================================
  54:funsape/peripheral/timer1.hpp **** 
  55:funsape/peripheral/timer1.hpp **** // NONE
  56:funsape/peripheral/timer1.hpp **** 
  57:funsape/peripheral/timer1.hpp **** // =============================================================================
  58:funsape/peripheral/timer1.hpp **** // Interrupt callback functions
  59:funsape/peripheral/timer1.hpp **** // =============================================================================
  60:funsape/peripheral/timer1.hpp **** 
  61:funsape/peripheral/timer1.hpp **** //!
  62:funsape/peripheral/timer1.hpp **** //! \brief          TIMER1 compare A match interrupt callback function
  63:funsape/peripheral/timer1.hpp **** //! \details        This function is called when the TIMER1 compare A match
  64:funsape/peripheral/timer1.hpp **** //!                     interrupt is treated. It is a weak function that can be
  65:funsape/peripheral/timer1.hpp **** //!                     overwritten by user code.
  66:funsape/peripheral/timer1.hpp **** //!
  67:funsape/peripheral/timer1.hpp **** void timer1CompareACallback(void);
  68:funsape/peripheral/timer1.hpp **** 
  69:funsape/peripheral/timer1.hpp **** //!
  70:funsape/peripheral/timer1.hpp **** //! \brief          TIMER1 compare B match interrupt callback function
  71:funsape/peripheral/timer1.hpp **** //! \details        This function is called when the TIMER1 compare B match
  72:funsape/peripheral/timer1.hpp **** //!                     interrupt is treated. It is a weak function that can be
  73:funsape/peripheral/timer1.hpp **** //!                     overwritten by user code.
  74:funsape/peripheral/timer1.hpp **** //!
  75:funsape/peripheral/timer1.hpp **** void timer1CompareBCallback(void);
  76:funsape/peripheral/timer1.hpp **** 
  77:funsape/peripheral/timer1.hpp **** //!
  78:funsape/peripheral/timer1.hpp **** //! \brief          TIMER1 Input Capture interrupt callback function
  79:funsape/peripheral/timer1.hpp **** //! \details        This function is called when the TIMER1 input capture
  80:funsape/peripheral/timer1.hpp **** //!                     interrupt is treated. It is a weak function that can be
  81:funsape/peripheral/timer1.hpp **** //!                     overwritten by user code.
  82:funsape/peripheral/timer1.hpp **** //!
  83:funsape/peripheral/timer1.hpp **** void timer1InputCaptureCallback(void);
  84:funsape/peripheral/timer1.hpp **** 
  85:funsape/peripheral/timer1.hpp **** //!
  86:funsape/peripheral/timer1.hpp **** //! \brief          TIMER1 overflow interrupt callback function
  87:funsape/peripheral/timer1.hpp **** //! \details        This function is called when the TIMER1 overflow interrupt
  88:funsape/peripheral/timer1.hpp **** //!                     is treated. It is a weak function that can be
  89:funsape/peripheral/timer1.hpp **** //!                     overwritten by user code.
  90:funsape/peripheral/timer1.hpp **** //!
GAS LISTING C:\Users\kenne\AppData\Local\Temp\cc2IZjCw.s 			page 23


  91:funsape/peripheral/timer1.hpp **** void timer1OverflowCallback(void);
  92:funsape/peripheral/timer1.hpp **** 
  93:funsape/peripheral/timer1.hpp **** // =============================================================================
  94:funsape/peripheral/timer1.hpp **** // Timer1 Class
  95:funsape/peripheral/timer1.hpp **** // =============================================================================
  96:funsape/peripheral/timer1.hpp **** 
  97:funsape/peripheral/timer1.hpp **** //!
  98:funsape/peripheral/timer1.hpp **** //! \brief          Timer1 class
  99:funsape/peripheral/timer1.hpp **** //! \details        Timer1 class
 100:funsape/peripheral/timer1.hpp **** //!
 101:funsape/peripheral/timer1.hpp **** class Timer1
 102:funsape/peripheral/timer1.hpp **** {
 103:funsape/peripheral/timer1.hpp ****     // -------------------------------------------------------------------------
 104:funsape/peripheral/timer1.hpp ****     // New data types ----------------------------------------------------------
 105:funsape/peripheral/timer1.hpp **** public:
 106:funsape/peripheral/timer1.hpp **** 
 107:funsape/peripheral/timer1.hpp ****     //     ////////////////     TIMER1 Clock Source     /////////////////     //
 108:funsape/peripheral/timer1.hpp ****     //!
 109:funsape/peripheral/timer1.hpp ****     //! \brief      Clock source enumeration
 110:funsape/peripheral/timer1.hpp ****     //! \details    Clock prescaler options associated with TIMER1.
 111:funsape/peripheral/timer1.hpp ****     //! \warning    The value associate with the symbolic names may change
 112:funsape/peripheral/timer1.hpp ****     //!                 between builds and might not reflect the register/bits
 113:funsape/peripheral/timer1.hpp ****     //!                 real values. In order to ensure compatibility between
 114:funsape/peripheral/timer1.hpp ****     //!                 builds, always refer to the SYMBOLIC NAME, instead of
 115:funsape/peripheral/timer1.hpp ****     //!                 the VALUE.
 116:funsape/peripheral/timer1.hpp ****     //!
 117:funsape/peripheral/timer1.hpp ****     enum class ClockSource : uint8_t {
 118:funsape/peripheral/timer1.hpp ****         DISABLED                    = 0,    //!< Disables clock, timer is off
 119:funsape/peripheral/timer1.hpp ****         PRESCALER_1                 = 1,    //!< Disables prescaler, timer clock frequency will be 
 120:funsape/peripheral/timer1.hpp ****         PRESCALER_8                 = 2,    //!< Timer clock frequency will be CPU clock divided by
 121:funsape/peripheral/timer1.hpp ****         PRESCALER_64                = 3,    //!< Timer clock frequency will be CPU clock divided by
 122:funsape/peripheral/timer1.hpp ****         PRESCALER_256               = 4,    //!< Timer clock frequency will be CPU clock divided by
 123:funsape/peripheral/timer1.hpp ****         PRESCALER_1024              = 5,    //!< Timer clock frequency will be CPU clock divided by
 124:funsape/peripheral/timer1.hpp ****         T1_FALLING_EDGE             = 6,    //!< Timer clock will be based on the falling edge of a
 125:funsape/peripheral/timer1.hpp ****         T1_RISING_EDGE              = 7     //!< Timer clock will be based on the rising edge of a 
 126:funsape/peripheral/timer1.hpp ****     };
 127:funsape/peripheral/timer1.hpp **** 
 128:funsape/peripheral/timer1.hpp ****     //     ////////////////////     TIMER1 Mode     /////////////////////     //
 129:funsape/peripheral/timer1.hpp ****     //!
 130:funsape/peripheral/timer1.hpp ****     //! \brief      Operation Mode enumeration
 131:funsape/peripheral/timer1.hpp ****     //! \details    Operation Mode options associated with TIMER1.
 132:funsape/peripheral/timer1.hpp ****     //! \warning    The value associate with the symbolic names may change
 133:funsape/peripheral/timer1.hpp ****     //!                 between builds and might not reflect the register/bits
 134:funsape/peripheral/timer1.hpp ****     //!                 real values. In order to ensure compatibility between
 135:funsape/peripheral/timer1.hpp ****     //!                 builds, always refer to the SYMBOLIC NAME, instead of
 136:funsape/peripheral/timer1.hpp ****     //!                 the VALUE.
 137:funsape/peripheral/timer1.hpp ****     //!
 138:funsape/peripheral/timer1.hpp ****     enum class Mode : uint8_t {
 139:funsape/peripheral/timer1.hpp ****         NORMAL                          = 0,    //!< Normal mode (direction = UP / TOP = 0x00FF / U
 140:funsape/peripheral/timer1.hpp ****         PWM_PHASE_CORRECTED_8_BITS      = 1,    //!< PWM mode with phase correction (direction = DO
 141:funsape/peripheral/timer1.hpp ****         PWM_PHASE_CORRECTED_9_BITS      = 2,    //!< PWM mode with phase correction (direction = DO
 142:funsape/peripheral/timer1.hpp ****         PWM_PHASE_CORRECTED_10_BITS     = 3,    //!< PWM mode with phase correction (direction = DO
 143:funsape/peripheral/timer1.hpp ****         CTC_OCRA                        = 4,    //!< CTC mode (direction = UP / TOP = OCR1A / UPDAT
 144:funsape/peripheral/timer1.hpp ****         PWM_FAST_8_BITS                 = 5,    //!< PWM mode fast (direction = UP / TOP = 0x00FF /
 145:funsape/peripheral/timer1.hpp ****         PWM_FAST_9_BITS                 = 6,    //!< PWM mode fast (direction = UP / TOP = 0x01FF /
 146:funsape/peripheral/timer1.hpp ****         PWM_FAST_10_BITS                = 7,    //!< PWM mode fast (direction = UP / TOP = 0x03FF /
 147:funsape/peripheral/timer1.hpp ****         PWM_PHASE_FREQ_CORRECTED_ICR    = 8,    //!< PWM mode with phase and frequency correction (
GAS LISTING C:\Users\kenne\AppData\Local\Temp\cc2IZjCw.s 			page 24


 148:funsape/peripheral/timer1.hpp ****         PWM_PHASE_FREQ_CORRECTED_OCRA   = 9,    //!< PWM mode with phase and frequency correction (
 149:funsape/peripheral/timer1.hpp ****         PWM_PHASE_CORRECTED_ICR         = 10,   //!< PWM mode with phase correction (direction = DO
 150:funsape/peripheral/timer1.hpp ****         PWM_PHASE_CORRECTED_OCRA        = 11,   //!< PWM mode with phase correction (direction = DO
 151:funsape/peripheral/timer1.hpp ****         CTC_ICR                         = 12,    //!< CTC mode (direction = UP / TOP = ICR1A / UPDA
 152:funsape/peripheral/timer1.hpp ****         // RESERVED                     = 13,
 153:funsape/peripheral/timer1.hpp ****         PWM_FAST_ICR                    = 14,   //!< PWM mode fast (direction = UP / TOP = ICR1 / U
 154:funsape/peripheral/timer1.hpp ****         PWM_FAST_OCRA                   = 15    //!< PWM mode fast (direction = UP / TOP = OCR1A / 
 155:funsape/peripheral/timer1.hpp ****     };
 156:funsape/peripheral/timer1.hpp **** 
 157:funsape/peripheral/timer1.hpp ****     //     /////////////////     TIMER1 Output Mode    //////////////////     //
 158:funsape/peripheral/timer1.hpp ****     //!
 159:funsape/peripheral/timer1.hpp ****     //! \brief      Output Mode enumeration
 160:funsape/peripheral/timer1.hpp ****     //! \details    Output Mode options associated with TIMER1.
 161:funsape/peripheral/timer1.hpp ****     //! \warning    The value associate with the symbolic names may change
 162:funsape/peripheral/timer1.hpp ****     //!                 between builds and might not reflect the register/bits
 163:funsape/peripheral/timer1.hpp ****     //!                 real values. In order to ensure compatibility between
 164:funsape/peripheral/timer1.hpp ****     //!                 builds, always refer to the SYMBOLIC NAME, instead of
 165:funsape/peripheral/timer1.hpp ****     //!                 the VALUE.
 166:funsape/peripheral/timer1.hpp ****     //!
 167:funsape/peripheral/timer1.hpp ****     enum class OutputMode : uint8_t {
 168:funsape/peripheral/timer1.hpp ****         NORMAL                          = 0,    //!< OC1x disabled. Normal port operation
 169:funsape/peripheral/timer1.hpp ****         TOGGLE_ON_COMPARE               = 1,    //!< OC1x will toggle on OCR1x compare match
 170:funsape/peripheral/timer1.hpp ****         CLEAR_ON_COMPARE                = 2,    //!< OC1x will clear on OCR1x compare match
 171:funsape/peripheral/timer1.hpp ****         SET_ON_COMPARE                  = 3,    //!< OC1x will set on OCR1x compare match
 172:funsape/peripheral/timer1.hpp ****         NON_INVERTING_MODE              = 2,    //!< OC1x will produce a non-inverted PWM signal
 173:funsape/peripheral/timer1.hpp ****         INVERTING_MODE                  = 3,    //!< OC1x will produce a inverted PWM signal
 174:funsape/peripheral/timer1.hpp ****     };
 175:funsape/peripheral/timer1.hpp **** 
 176:funsape/peripheral/timer1.hpp ****     // -------------------------------------------------------------------------
 177:funsape/peripheral/timer1.hpp ****     // Constructors ------------------------------------------------------------
 178:funsape/peripheral/timer1.hpp **** public:
 179:funsape/peripheral/timer1.hpp **** 
 180:funsape/peripheral/timer1.hpp ****     //!
 181:funsape/peripheral/timer1.hpp ****     //! \brief      Timer1 class constructor
 182:funsape/peripheral/timer1.hpp ****     //! \details    Creates an Timer1 object
 183:funsape/peripheral/timer1.hpp ****     //!
 184:funsape/peripheral/timer1.hpp ****     Timer1(
 185:funsape/peripheral/timer1.hpp ****             void
 186:funsape/peripheral/timer1.hpp ****     );
 187:funsape/peripheral/timer1.hpp **** 
 188:funsape/peripheral/timer1.hpp ****     //!
 189:funsape/peripheral/timer1.hpp ****     //! \brief      Timer1 class destructor
 190:funsape/peripheral/timer1.hpp ****     //! \details    Destroys an Timer1 object
 191:funsape/peripheral/timer1.hpp ****     //!
 192:funsape/peripheral/timer1.hpp ****     ~Timer1(
 193:funsape/peripheral/timer1.hpp ****             void
 194:funsape/peripheral/timer1.hpp ****     );
 195:funsape/peripheral/timer1.hpp **** 
 196:funsape/peripheral/timer1.hpp ****     // -------------------------------------------------------------------------
 197:funsape/peripheral/timer1.hpp ****     // Methods -----------------------------------------------------------------
 198:funsape/peripheral/timer1.hpp **** public:
 199:funsape/peripheral/timer1.hpp ****     //     ///////////////////     INITIALIZATION    ////////////////////     //
 200:funsape/peripheral/timer1.hpp **** 
 201:funsape/peripheral/timer1.hpp ****     //!
 202:funsape/peripheral/timer1.hpp ****     //! \brief      Initializes the TIMER1 module
 203:funsape/peripheral/timer1.hpp ****     //! \details    Initializes the TIMER1 module.
 204:funsape/peripheral/timer1.hpp ****     //! \param      mode_p              Operation mode
GAS LISTING C:\Users\kenne\AppData\Local\Temp\cc2IZjCw.s 			page 25


 205:funsape/peripheral/timer1.hpp ****     //! \param      clockSource_p       Clock source and prescaler
 206:funsape/peripheral/timer1.hpp ****     //! \return     bool_t              True on success / False on failure
 207:funsape/peripheral/timer1.hpp ****     //!
 208:funsape/peripheral/timer1.hpp ****     bool_t init(
 209:funsape/peripheral/timer1.hpp ****             const Mode mode_p,
 210:funsape/peripheral/timer1.hpp ****             const ClockSource clockSource_p
 211:funsape/peripheral/timer1.hpp ****     );
 212:funsape/peripheral/timer1.hpp **** 
 213:funsape/peripheral/timer1.hpp ****     //!
 214:funsape/peripheral/timer1.hpp ****     //! \brief      Configures the clock source and the clock prescaler
 215:funsape/peripheral/timer1.hpp ****     //! \details    Configures the clock source and the clock prescaler.
 216:funsape/peripheral/timer1.hpp ****     //! \param      clockSource_p       Clock source and prescaler
 217:funsape/peripheral/timer1.hpp ****     //! \return     bool_t              True on success / False on failure
 218:funsape/peripheral/timer1.hpp ****     //!
 219:funsape/peripheral/timer1.hpp ****     bool_t setClockSource(
 220:funsape/peripheral/timer1.hpp ****             const ClockSource clockSource_p
 221:funsape/peripheral/timer1.hpp ****     );
 222:funsape/peripheral/timer1.hpp **** 
 223:funsape/peripheral/timer1.hpp ****     //!
 224:funsape/peripheral/timer1.hpp ****     //! \brief      Configures the input capture mode
 225:funsape/peripheral/timer1.hpp ****     //! \details    Configures the input capture mode.
 226:funsape/peripheral/timer1.hpp ****     //! \param      edgeSelection_p     edge of the input capture signal
 227:funsape/peripheral/timer1.hpp ****     //! \param      noiseCanceler_p     state of the noise canceler circuit
 228:funsape/peripheral/timer1.hpp ****     //! \return     bool_t              True on success / False on failure
 229:funsape/peripheral/timer1.hpp ****     //!
 230:funsape/peripheral/timer1.hpp ****     bool_t setInputCaptureMode(
 231:funsape/peripheral/timer1.hpp ****             const Edge edgeSelection_p,
 232:funsape/peripheral/timer1.hpp ****             cbool_t noiseCanceler_p
 233:funsape/peripheral/timer1.hpp ****     );
 234:funsape/peripheral/timer1.hpp **** 
 235:funsape/peripheral/timer1.hpp ****     //!
 236:funsape/peripheral/timer1.hpp ****     //! \brief      Configures the operation mode
 237:funsape/peripheral/timer1.hpp ****     //! \details    Configures the operation mode.
 238:funsape/peripheral/timer1.hpp ****     //! \param      mode_p              Operation mode
 239:funsape/peripheral/timer1.hpp ****     //! \return     bool_t              True on success / False on failure
 240:funsape/peripheral/timer1.hpp ****     //!
 241:funsape/peripheral/timer1.hpp ****     bool_t setMode(
 242:funsape/peripheral/timer1.hpp ****             const Mode mode_p
 243:funsape/peripheral/timer1.hpp ****     );
 244:funsape/peripheral/timer1.hpp **** 
 245:funsape/peripheral/timer1.hpp ****     //!
 246:funsape/peripheral/timer1.hpp ****     //! \brief      Configures the desired behavior of OCR1x pins during compare match
 247:funsape/peripheral/timer1.hpp ****     //! \details    Configures the desired behavior of OCR1x pins during compare match.
 248:funsape/peripheral/timer1.hpp ****     //! \param      compA_p             Behavior of OCR1A pin during a compare A match
 249:funsape/peripheral/timer1.hpp ****     //! \param      compB_p             Behavior of OCR1B pin during a compare B match
 250:funsape/peripheral/timer1.hpp ****     //! \return     bool_t              True on success / False on failure
 251:funsape/peripheral/timer1.hpp ****     //!
 252:funsape/peripheral/timer1.hpp ****     bool_t setOutputMode(
 253:funsape/peripheral/timer1.hpp ****             const OutputMode compA_p,
 254:funsape/peripheral/timer1.hpp ****             const OutputMode compB_p
 255:funsape/peripheral/timer1.hpp ****     );
 256:funsape/peripheral/timer1.hpp **** 
 257:funsape/peripheral/timer1.hpp ****     //     /////////////////     CONTROL AND STATUS    //////////////////     //
 258:funsape/peripheral/timer1.hpp **** 
 259:funsape/peripheral/timer1.hpp ****     //!
 260:funsape/peripheral/timer1.hpp ****     //! \brief      Returns the last error
 261:funsape/peripheral/timer1.hpp ****     //! \details    Returns the last error.
GAS LISTING C:\Users\kenne\AppData\Local\Temp\cc2IZjCw.s 			page 26


 262:funsape/peripheral/timer1.hpp ****     //! \return     Error               Error status of the last operation
 263:funsape/peripheral/timer1.hpp ****     //!
 264:funsape/peripheral/timer1.hpp ****     Error getLastError(
 265:funsape/peripheral/timer1.hpp ****             void
 266:funsape/peripheral/timer1.hpp ****     );
 267:funsape/peripheral/timer1.hpp **** 
 268:funsape/peripheral/timer1.hpp ****     //     /////////////////////     COMPARE A     //////////////////////     //
 269:funsape/peripheral/timer1.hpp **** 
 270:funsape/peripheral/timer1.hpp ****     //!
 271:funsape/peripheral/timer1.hpp ****     //! \brief      Activates Compare A Match interrupt
 272:funsape/peripheral/timer1.hpp ****     //! \details    Activates Compare A Match interrupt.
 273:funsape/peripheral/timer1.hpp ****     //!
 274:funsape/peripheral/timer1.hpp ****     void inlined activateCompareAInterrupt(
 275:funsape/peripheral/timer1.hpp ****             void
 276:funsape/peripheral/timer1.hpp ****     );
 277:funsape/peripheral/timer1.hpp **** 
 278:funsape/peripheral/timer1.hpp ****     //!
 279:funsape/peripheral/timer1.hpp ****     //! \brief      Clears Compare A Match interrupt flag
 280:funsape/peripheral/timer1.hpp ****     //! \details    Clears Compare A Match interrupt flag.
 281:funsape/peripheral/timer1.hpp ****     //!
 282:funsape/peripheral/timer1.hpp ****     void inlined clearCompareAInterruptRequest(
 283:funsape/peripheral/timer1.hpp ****             void
 284:funsape/peripheral/timer1.hpp ****     );
 285:funsape/peripheral/timer1.hpp **** 
 286:funsape/peripheral/timer1.hpp ****     //!
 287:funsape/peripheral/timer1.hpp ****     //! \brief      Deactivates Compare A Match interrupt
 288:funsape/peripheral/timer1.hpp ****     //! \details    Deactivates Compare A Match interrupt.
 289:funsape/peripheral/timer1.hpp ****     //!
 290:funsape/peripheral/timer1.hpp ****     void inlined deactivateCompareAInterrupt(
 291:funsape/peripheral/timer1.hpp ****             void
 292:funsape/peripheral/timer1.hpp ****     );
 293:funsape/peripheral/timer1.hpp **** 
 294:funsape/peripheral/timer1.hpp ****     //!
 295:funsape/peripheral/timer1.hpp ****     //! \brief      Forces a Compare A Match condition on output pin
 296:funsape/peripheral/timer1.hpp ****     //! \details    Forces a Compare A Match condition on output pin.
 297:funsape/peripheral/timer1.hpp ****     //!
 298:funsape/peripheral/timer1.hpp ****     void inlined forceCompareA(
 299:funsape/peripheral/timer1.hpp ****             void
 300:funsape/peripheral/timer1.hpp ****     );
 301:funsape/peripheral/timer1.hpp **** 
 302:funsape/peripheral/timer1.hpp ****     //!
 303:funsape/peripheral/timer1.hpp ****     //! \brief      Gets Compare A Match value
 304:funsape/peripheral/timer1.hpp ****     //! \details    Gets Compare A Match value.
 305:funsape/peripheral/timer1.hpp ****     //!
 306:funsape/peripheral/timer1.hpp ****     uint16_t inlined getCompareAValue(
 307:funsape/peripheral/timer1.hpp ****             void
 308:funsape/peripheral/timer1.hpp ****     );
 309:funsape/peripheral/timer1.hpp **** 
 310:funsape/peripheral/timer1.hpp ****     //!
 311:funsape/peripheral/timer1.hpp ****     //! \brief      Sets Compare A Match value
 312:funsape/peripheral/timer1.hpp ****     //! \details    Sets Compare A Match value.
 313:funsape/peripheral/timer1.hpp ****     //!
 314:funsape/peripheral/timer1.hpp ****     void inlined setCompareAValue(
 315:funsape/peripheral/timer1.hpp ****             cuint16_t value_p
 316:funsape/peripheral/timer1.hpp ****     );
 317:funsape/peripheral/timer1.hpp **** 
 318:funsape/peripheral/timer1.hpp ****     //     /////////////////////     COMPARE B     //////////////////////     //
GAS LISTING C:\Users\kenne\AppData\Local\Temp\cc2IZjCw.s 			page 27


 319:funsape/peripheral/timer1.hpp **** 
 320:funsape/peripheral/timer1.hpp ****     //!
 321:funsape/peripheral/timer1.hpp ****     //! \brief      Activates Compare B Match interrupt
 322:funsape/peripheral/timer1.hpp ****     //! \details    Activates Compare B Match interrupt.
 323:funsape/peripheral/timer1.hpp ****     //!
 324:funsape/peripheral/timer1.hpp ****     void inlined activateCompareBInterrupt(
 325:funsape/peripheral/timer1.hpp ****             void
 326:funsape/peripheral/timer1.hpp ****     );
 327:funsape/peripheral/timer1.hpp **** 
 328:funsape/peripheral/timer1.hpp ****     //!
 329:funsape/peripheral/timer1.hpp ****     //! \brief      Clears Compare B Match interrupt flag
 330:funsape/peripheral/timer1.hpp ****     //! \details    Clears Compare B Match interrupt flag.
 331:funsape/peripheral/timer1.hpp ****     //!
 332:funsape/peripheral/timer1.hpp ****     void inlined clearCompareBInterruptRequest(
 333:funsape/peripheral/timer1.hpp ****             void
 334:funsape/peripheral/timer1.hpp ****     );
 335:funsape/peripheral/timer1.hpp **** 
 336:funsape/peripheral/timer1.hpp ****     //!
 337:funsape/peripheral/timer1.hpp ****     //! \brief      Deactivates Compare B Match interrupt
 338:funsape/peripheral/timer1.hpp ****     //! \details    Deactivates Compare B Match interrupt.
 339:funsape/peripheral/timer1.hpp ****     //!
 340:funsape/peripheral/timer1.hpp ****     void inlined deactivateCompareBInterrupt(
 341:funsape/peripheral/timer1.hpp ****             void
 342:funsape/peripheral/timer1.hpp ****     );
 343:funsape/peripheral/timer1.hpp **** 
 344:funsape/peripheral/timer1.hpp ****     //!
 345:funsape/peripheral/timer1.hpp ****     //! \brief      Forces a Compare B Match condition on output pin
 346:funsape/peripheral/timer1.hpp ****     //! \details    Forces a Compare B Match condition on output pin.
 347:funsape/peripheral/timer1.hpp ****     //!
 348:funsape/peripheral/timer1.hpp ****     void inlined forceCompareB(
 349:funsape/peripheral/timer1.hpp ****             void
 350:funsape/peripheral/timer1.hpp ****     );
 351:funsape/peripheral/timer1.hpp **** 
 352:funsape/peripheral/timer1.hpp ****     //!
 353:funsape/peripheral/timer1.hpp ****     //! \brief      Gets Compare B Match value
 354:funsape/peripheral/timer1.hpp ****     //! \details    Gets Compare B Match value.
 355:funsape/peripheral/timer1.hpp ****     //!
 356:funsape/peripheral/timer1.hpp ****     uint16_t inlined getCompareBValue(
 357:funsape/peripheral/timer1.hpp ****             void
 358:funsape/peripheral/timer1.hpp ****     );
 359:funsape/peripheral/timer1.hpp **** 
 360:funsape/peripheral/timer1.hpp ****     //!
 361:funsape/peripheral/timer1.hpp ****     //! \brief      Sets Compare B Match value
 362:funsape/peripheral/timer1.hpp ****     //! \details    Sets Compare B Match value.
 363:funsape/peripheral/timer1.hpp ****     //!
 364:funsape/peripheral/timer1.hpp ****     void inlined setCompareBValue(
 365:funsape/peripheral/timer1.hpp ****             cuint16_t value_p
 366:funsape/peripheral/timer1.hpp ****     );
 367:funsape/peripheral/timer1.hpp **** 
 368:funsape/peripheral/timer1.hpp ****     //     ///////////////////     INPUT CAPTURE     ////////////////////     //
 369:funsape/peripheral/timer1.hpp **** 
 370:funsape/peripheral/timer1.hpp ****     //!
 371:funsape/peripheral/timer1.hpp ****     //! \brief      Activates Input Capture interrupt
 372:funsape/peripheral/timer1.hpp ****     //! \details    Activates Input Capture interrupt.
 373:funsape/peripheral/timer1.hpp ****     //!
 374:funsape/peripheral/timer1.hpp ****     void inlined activateInputCaptureInterrupt(
 375:funsape/peripheral/timer1.hpp ****             void
GAS LISTING C:\Users\kenne\AppData\Local\Temp\cc2IZjCw.s 			page 28


 376:funsape/peripheral/timer1.hpp ****     );
 377:funsape/peripheral/timer1.hpp **** 
 378:funsape/peripheral/timer1.hpp ****     //!
 379:funsape/peripheral/timer1.hpp ****     //! \brief      Clears Input Capture interrupt flag
 380:funsape/peripheral/timer1.hpp ****     //! \details    Clears Input Capture interrupt flag.
 381:funsape/peripheral/timer1.hpp ****     //!
 382:funsape/peripheral/timer1.hpp ****     void inlined clearInputCaptureInterruptRequest(
 383:funsape/peripheral/timer1.hpp ****             void
 384:funsape/peripheral/timer1.hpp ****     );
 385:funsape/peripheral/timer1.hpp **** 
 386:funsape/peripheral/timer1.hpp ****     //!
 387:funsape/peripheral/timer1.hpp ****     //! \brief      Deactivates Input Capture interrupt
 388:funsape/peripheral/timer1.hpp ****     //! \details    Deactivates Input Capture interrupt.
 389:funsape/peripheral/timer1.hpp ****     //!
 390:funsape/peripheral/timer1.hpp ****     void inlined deactivateInputCaptureInterrupt(
 391:funsape/peripheral/timer1.hpp ****             void
 392:funsape/peripheral/timer1.hpp ****     );
 393:funsape/peripheral/timer1.hpp **** 
 394:funsape/peripheral/timer1.hpp ****     //!
 395:funsape/peripheral/timer1.hpp ****     //! \brief      Gets Input Capture value
 396:funsape/peripheral/timer1.hpp ****     //! \details    Gets Input Capture value.
 397:funsape/peripheral/timer1.hpp ****     //!
 398:funsape/peripheral/timer1.hpp ****     uint16_t inlined getInputCaptureValue(
 399:funsape/peripheral/timer1.hpp ****             void
 400:funsape/peripheral/timer1.hpp ****     );
 401:funsape/peripheral/timer1.hpp **** 
 402:funsape/peripheral/timer1.hpp ****     //!
 403:funsape/peripheral/timer1.hpp ****     //! \brief      Sets Input Capture value
 404:funsape/peripheral/timer1.hpp ****     //! \details    Sets Input Capture value.
 405:funsape/peripheral/timer1.hpp ****     //!
 406:funsape/peripheral/timer1.hpp ****     void inlined setInputCaptureValue(
 407:funsape/peripheral/timer1.hpp ****             cuint16_t value_p
 408:funsape/peripheral/timer1.hpp ****     );
 409:funsape/peripheral/timer1.hpp **** 
 410:funsape/peripheral/timer1.hpp ****     //     //////////////////////     OVERFLOW    ///////////////////////     //
 411:funsape/peripheral/timer1.hpp **** 
 412:funsape/peripheral/timer1.hpp ****     //!
 413:funsape/peripheral/timer1.hpp ****     //! \brief      Activates Overflow interrupt
 414:funsape/peripheral/timer1.hpp ****     //! \details    Activates Overflow interrupt.
 415:funsape/peripheral/timer1.hpp ****     //!
 416:funsape/peripheral/timer1.hpp ****     void inlined activateOverflowInterrupt(
 417:funsape/peripheral/timer1.hpp ****             void
 418:funsape/peripheral/timer1.hpp ****     );
 419:funsape/peripheral/timer1.hpp **** 
 420:funsape/peripheral/timer1.hpp ****     //!
 421:funsape/peripheral/timer1.hpp ****     //! \brief      Clears Compare A Match interrupt flag
 422:funsape/peripheral/timer1.hpp ****     //! \details    Clears Compare A Match interrupt flag.
 423:funsape/peripheral/timer1.hpp ****     //!
 424:funsape/peripheral/timer1.hpp ****     void inlined clearOverflowInterruptRequest(
 425:funsape/peripheral/timer1.hpp ****             void
 426:funsape/peripheral/timer1.hpp ****     );
 427:funsape/peripheral/timer1.hpp **** 
 428:funsape/peripheral/timer1.hpp ****     //!
 429:funsape/peripheral/timer1.hpp ****     //! \brief      Deactivates Overflow Match interrupt
 430:funsape/peripheral/timer1.hpp ****     //! \details    Deactivates Overflow Match interrupt.
 431:funsape/peripheral/timer1.hpp ****     //!
 432:funsape/peripheral/timer1.hpp ****     void inlined deactivateOverflowInterrupt(
GAS LISTING C:\Users\kenne\AppData\Local\Temp\cc2IZjCw.s 			page 29


 433:funsape/peripheral/timer1.hpp ****             void
 434:funsape/peripheral/timer1.hpp ****     );
 435:funsape/peripheral/timer1.hpp **** 
 436:funsape/peripheral/timer1.hpp ****     //!
 437:funsape/peripheral/timer1.hpp ****     //! \brief      Gets counter value
 438:funsape/peripheral/timer1.hpp ****     //! \details    Gets counter value.
 439:funsape/peripheral/timer1.hpp ****     //!
 440:funsape/peripheral/timer1.hpp ****     uint16_t inlined getCounterValue(
 441:funsape/peripheral/timer1.hpp ****             void
 442:funsape/peripheral/timer1.hpp ****     );
 443:funsape/peripheral/timer1.hpp **** 
 444:funsape/peripheral/timer1.hpp ****     //!
 445:funsape/peripheral/timer1.hpp ****     //! \brief      Sets counter value
 446:funsape/peripheral/timer1.hpp ****     //! \details    Sets counter value.
 447:funsape/peripheral/timer1.hpp ****     //!
 448:funsape/peripheral/timer1.hpp ****     void inlined setCounterValue(
 449:funsape/peripheral/timer1.hpp ****             cuint16_t value_p
 450:funsape/peripheral/timer1.hpp ****     );
 451:funsape/peripheral/timer1.hpp **** 
 452:funsape/peripheral/timer1.hpp ****     // -------------------------------------------------------------------------
 453:funsape/peripheral/timer1.hpp ****     // Properties --------------------------------------------------------------
 454:funsape/peripheral/timer1.hpp **** private:
 455:funsape/peripheral/timer1.hpp ****     bool_t          _isInitialized      : 1;
 456:funsape/peripheral/timer1.hpp ****     ClockSource     _clockSource;
 457:funsape/peripheral/timer1.hpp ****     Mode            _mode;
 458:funsape/peripheral/timer1.hpp ****     Error           _lastError;
 459:funsape/peripheral/timer1.hpp **** }; // class Timer1
 460:funsape/peripheral/timer1.hpp **** 
 461:funsape/peripheral/timer1.hpp **** // =============================================================================
 462:funsape/peripheral/timer1.hpp **** // Inlined class functions
 463:funsape/peripheral/timer1.hpp **** // =============================================================================
 464:funsape/peripheral/timer1.hpp **** 
 465:funsape/peripheral/timer1.hpp **** //     ///////////////////////     COMPARE A     ////////////////////////     //
 466:funsape/peripheral/timer1.hpp **** void inlined Timer1::activateCompareAInterrupt(void)
 467:funsape/peripheral/timer1.hpp **** {
 468:funsape/peripheral/timer1.hpp ****     setBit(TIMSK1, OCIE1A);
 469:funsape/peripheral/timer1.hpp ****     return;
 470:funsape/peripheral/timer1.hpp **** }
 471:funsape/peripheral/timer1.hpp **** 
 472:funsape/peripheral/timer1.hpp **** void inlined Timer1::clearCompareAInterruptRequest(void)
 473:funsape/peripheral/timer1.hpp **** {
 474:funsape/peripheral/timer1.hpp ****     setBit(TIFR1, OCF1A);
 475:funsape/peripheral/timer1.hpp ****     return;
 476:funsape/peripheral/timer1.hpp **** }
 477:funsape/peripheral/timer1.hpp **** 
 478:funsape/peripheral/timer1.hpp **** void inlined Timer1::deactivateCompareAInterrupt(void)
 479:funsape/peripheral/timer1.hpp **** {
 480:funsape/peripheral/timer1.hpp ****     clrBit(TIMSK1, OCIE1A);
 481:funsape/peripheral/timer1.hpp ****     return;
 482:funsape/peripheral/timer1.hpp **** }
 483:funsape/peripheral/timer1.hpp **** 
 484:funsape/peripheral/timer1.hpp **** void inlined Timer1::forceCompareA(void)
 485:funsape/peripheral/timer1.hpp **** {
 486:funsape/peripheral/timer1.hpp ****     setBit(TCCR1C, FOC1A);
 487:funsape/peripheral/timer1.hpp ****     return;
 488:funsape/peripheral/timer1.hpp **** }
 489:funsape/peripheral/timer1.hpp **** 
GAS LISTING C:\Users\kenne\AppData\Local\Temp\cc2IZjCw.s 			page 30


 490:funsape/peripheral/timer1.hpp **** uint16_t inlined Timer1::getCompareAValue(void)
 491:funsape/peripheral/timer1.hpp **** {
 492:funsape/peripheral/timer1.hpp ****     uint16_t aux16 = 0;
 493:funsape/peripheral/timer1.hpp **** 
 494:funsape/peripheral/timer1.hpp ****     ATOMIC_BLOCK(ATOMIC_RESTORESTATE) {
 495:funsape/peripheral/timer1.hpp ****         aux16 = OCR1A;
 496:funsape/peripheral/timer1.hpp ****     }
 497:funsape/peripheral/timer1.hpp ****     return aux16;
 498:funsape/peripheral/timer1.hpp **** }
 499:funsape/peripheral/timer1.hpp **** 
 500:funsape/peripheral/timer1.hpp **** void inlined Timer1::setCompareAValue(cuint16_t value_p)
 270               		.loc 3 500 14 view .LVU59
 501:funsape/peripheral/timer1.hpp **** {
 502:funsape/peripheral/timer1.hpp ****     ATOMIC_BLOCK(ATOMIC_RESTORESTATE) {
 271               		.loc 3 502 5 view .LVU60
 272               	.LBB77:
 273 0058 2FB7      		in r18,__SREG__
 274               	.LVL18:
 275               	.LBB78:
 276               	.LBI78:
 277               		.file 4 "c:\\d\\ifsc\\vscodeleandro\\ex\\toolchains\\avr-gcc\\avr\\include\\util\\atomic.h"
   1:c:\d\ifsc\vscodeleandro\ex\toolchains\avr-gcc\avr\include\util\atomic.h **** /* Copyright (c) 2007 Dean Camera
   2:c:\d\ifsc\vscodeleandro\ex\toolchains\avr-gcc\avr\include\util\atomic.h ****    All rights reserved.
   3:c:\d\ifsc\vscodeleandro\ex\toolchains\avr-gcc\avr\include\util\atomic.h **** 
   4:c:\d\ifsc\vscodeleandro\ex\toolchains\avr-gcc\avr\include\util\atomic.h ****    Redistribution and use in source and binary forms, with or without
   5:c:\d\ifsc\vscodeleandro\ex\toolchains\avr-gcc\avr\include\util\atomic.h ****    modification, are permitted provided that the following conditions are met:
   6:c:\d\ifsc\vscodeleandro\ex\toolchains\avr-gcc\avr\include\util\atomic.h **** 
   7:c:\d\ifsc\vscodeleandro\ex\toolchains\avr-gcc\avr\include\util\atomic.h ****    * Redistributions of source code must retain the above copyright
   8:c:\d\ifsc\vscodeleandro\ex\toolchains\avr-gcc\avr\include\util\atomic.h ****      notice, this list of conditions and the following disclaimer.
   9:c:\d\ifsc\vscodeleandro\ex\toolchains\avr-gcc\avr\include\util\atomic.h **** 
  10:c:\d\ifsc\vscodeleandro\ex\toolchains\avr-gcc\avr\include\util\atomic.h ****    * Redistributions in binary form must reproduce the above copyright
  11:c:\d\ifsc\vscodeleandro\ex\toolchains\avr-gcc\avr\include\util\atomic.h ****      notice, this list of conditions and the following disclaimer in
  12:c:\d\ifsc\vscodeleandro\ex\toolchains\avr-gcc\avr\include\util\atomic.h ****      the documentation and/or other materials provided with the
  13:c:\d\ifsc\vscodeleandro\ex\toolchains\avr-gcc\avr\include\util\atomic.h ****      distribution.
  14:c:\d\ifsc\vscodeleandro\ex\toolchains\avr-gcc\avr\include\util\atomic.h **** 
  15:c:\d\ifsc\vscodeleandro\ex\toolchains\avr-gcc\avr\include\util\atomic.h ****    * Neither the name of the copyright holders nor the names of
  16:c:\d\ifsc\vscodeleandro\ex\toolchains\avr-gcc\avr\include\util\atomic.h ****      contributors may be used to endorse or promote products derived
  17:c:\d\ifsc\vscodeleandro\ex\toolchains\avr-gcc\avr\include\util\atomic.h ****      from this software without specific prior written permission.
  18:c:\d\ifsc\vscodeleandro\ex\toolchains\avr-gcc\avr\include\util\atomic.h **** 
  19:c:\d\ifsc\vscodeleandro\ex\toolchains\avr-gcc\avr\include\util\atomic.h ****   THIS SOFTWARE IS PROVIDED BY THE COPYRIGHT HOLDERS AND CONTRIBUTORS "AS IS"
  20:c:\d\ifsc\vscodeleandro\ex\toolchains\avr-gcc\avr\include\util\atomic.h ****   AND ANY EXPRESS OR IMPLIED WARRANTIES, INCLUDING, BUT NOT LIMITED TO, THE
  21:c:\d\ifsc\vscodeleandro\ex\toolchains\avr-gcc\avr\include\util\atomic.h ****   IMPLIED WARRANTIES OF MERCHANTABILITY AND FITNESS FOR A PARTICULAR PURPOSE
  22:c:\d\ifsc\vscodeleandro\ex\toolchains\avr-gcc\avr\include\util\atomic.h ****   ARE DISCLAIMED. IN NO EVENT SHALL THE COPYRIGHT OWNER OR CONTRIBUTORS BE
  23:c:\d\ifsc\vscodeleandro\ex\toolchains\avr-gcc\avr\include\util\atomic.h ****   LIABLE FOR ANY DIRECT, INDIRECT, INCIDENTAL, SPECIAL, EXEMPLARY, OR
  24:c:\d\ifsc\vscodeleandro\ex\toolchains\avr-gcc\avr\include\util\atomic.h ****   CONSEQUENTIAL DAMAGES (INCLUDING, BUT NOT LIMITED TO, PROCUREMENT OF
  25:c:\d\ifsc\vscodeleandro\ex\toolchains\avr-gcc\avr\include\util\atomic.h ****   SUBSTITUTE GOODS OR SERVICES; LOSS OF USE, DATA, OR PROFITS; OR BUSINESS
  26:c:\d\ifsc\vscodeleandro\ex\toolchains\avr-gcc\avr\include\util\atomic.h ****   INTERRUPTION) HOWEVER CAUSED AND ON ANY THEORY OF LIABILITY, WHETHER IN
  27:c:\d\ifsc\vscodeleandro\ex\toolchains\avr-gcc\avr\include\util\atomic.h ****   CONTRACT, STRICT LIABILITY, OR TORT (INCLUDING NEGLIGENCE OR OTHERWISE)
  28:c:\d\ifsc\vscodeleandro\ex\toolchains\avr-gcc\avr\include\util\atomic.h ****   ARISING IN ANY WAY OUT OF THE USE OF THIS SOFTWARE, EVEN IF ADVISED OF THE
  29:c:\d\ifsc\vscodeleandro\ex\toolchains\avr-gcc\avr\include\util\atomic.h ****   POSSIBILITY OF SUCH DAMAGE.
  30:c:\d\ifsc\vscodeleandro\ex\toolchains\avr-gcc\avr\include\util\atomic.h **** */
  31:c:\d\ifsc\vscodeleandro\ex\toolchains\avr-gcc\avr\include\util\atomic.h **** 
  32:c:\d\ifsc\vscodeleandro\ex\toolchains\avr-gcc\avr\include\util\atomic.h **** /* $Id$ */
  33:c:\d\ifsc\vscodeleandro\ex\toolchains\avr-gcc\avr\include\util\atomic.h **** 
  34:c:\d\ifsc\vscodeleandro\ex\toolchains\avr-gcc\avr\include\util\atomic.h **** #ifndef _UTIL_ATOMIC_H_
  35:c:\d\ifsc\vscodeleandro\ex\toolchains\avr-gcc\avr\include\util\atomic.h **** #define _UTIL_ATOMIC_H_ 1
  36:c:\d\ifsc\vscodeleandro\ex\toolchains\avr-gcc\avr\include\util\atomic.h **** 
GAS LISTING C:\Users\kenne\AppData\Local\Temp\cc2IZjCw.s 			page 31


  37:c:\d\ifsc\vscodeleandro\ex\toolchains\avr-gcc\avr\include\util\atomic.h **** #include <avr/io.h>
  38:c:\d\ifsc\vscodeleandro\ex\toolchains\avr-gcc\avr\include\util\atomic.h **** #include <avr/interrupt.h>
  39:c:\d\ifsc\vscodeleandro\ex\toolchains\avr-gcc\avr\include\util\atomic.h **** 
  40:c:\d\ifsc\vscodeleandro\ex\toolchains\avr-gcc\avr\include\util\atomic.h **** #if !defined(__DOXYGEN__)
  41:c:\d\ifsc\vscodeleandro\ex\toolchains\avr-gcc\avr\include\util\atomic.h **** /* Internal helper functions. */
  42:c:\d\ifsc\vscodeleandro\ex\toolchains\avr-gcc\avr\include\util\atomic.h **** static __inline__ uint8_t __iSeiRetVal(void)
  43:c:\d\ifsc\vscodeleandro\ex\toolchains\avr-gcc\avr\include\util\atomic.h **** {
  44:c:\d\ifsc\vscodeleandro\ex\toolchains\avr-gcc\avr\include\util\atomic.h ****     sei();
  45:c:\d\ifsc\vscodeleandro\ex\toolchains\avr-gcc\avr\include\util\atomic.h ****     return 1;
  46:c:\d\ifsc\vscodeleandro\ex\toolchains\avr-gcc\avr\include\util\atomic.h **** }
  47:c:\d\ifsc\vscodeleandro\ex\toolchains\avr-gcc\avr\include\util\atomic.h **** 
  48:c:\d\ifsc\vscodeleandro\ex\toolchains\avr-gcc\avr\include\util\atomic.h **** static __inline__ uint8_t __iCliRetVal(void)
 278               		.loc 4 48 27 view .LVU61
 279               	.LBB79:
  49:c:\d\ifsc\vscodeleandro\ex\toolchains\avr-gcc\avr\include\util\atomic.h **** {
  50:c:\d\ifsc\vscodeleandro\ex\toolchains\avr-gcc\avr\include\util\atomic.h ****     cli();
 280               		.loc 4 50 5 view .LVU62
 281               	/* #APP */
 282               	 ;  50 "c:\d\ifsc\vscodeleandro\ex\toolchains\avr-gcc\avr\include\util\atomic.h" 1
 283 005a F894      		cli
 284               	 ;  0 "" 2
  51:c:\d\ifsc\vscodeleandro\ex\toolchains\avr-gcc\avr\include\util\atomic.h ****     return 1;
 285               		.loc 4 51 5 view .LVU63
 286               	.LVL19:
 287               		.loc 4 51 5 is_stmt 0 view .LVU64
 288               	/* #NOAPP */
 289               	.LBE79:
 290               	.LBE78:
 291               		.loc 3 502 5 is_stmt 1 view .LVU65
 503:funsape/peripheral/timer1.hpp ****         OCR1A = value_p;
 292               		.loc 3 503 9 view .LVU66
 293               		.loc 3 503 15 is_stmt 0 view .LVU67
 294 005c 9093 8900 		sts 136+1,r25
 295 0060 8093 8800 		sts 136,r24
 502:funsape/peripheral/timer1.hpp ****         OCR1A = value_p;
 296               		.loc 3 502 5 is_stmt 1 view .LVU68
 297               	.LVL20:
 502:funsape/peripheral/timer1.hpp ****         OCR1A = value_p;
 298               		.loc 3 502 5 view .LVU69
 299               	.LBB80:
 300               	.LBI80:
  52:c:\d\ifsc\vscodeleandro\ex\toolchains\avr-gcc\avr\include\util\atomic.h **** }
  53:c:\d\ifsc\vscodeleandro\ex\toolchains\avr-gcc\avr\include\util\atomic.h **** 
  54:c:\d\ifsc\vscodeleandro\ex\toolchains\avr-gcc\avr\include\util\atomic.h **** static __inline__ void __iSeiParam(const uint8_t *__s)
  55:c:\d\ifsc\vscodeleandro\ex\toolchains\avr-gcc\avr\include\util\atomic.h **** {
  56:c:\d\ifsc\vscodeleandro\ex\toolchains\avr-gcc\avr\include\util\atomic.h ****     sei();
  57:c:\d\ifsc\vscodeleandro\ex\toolchains\avr-gcc\avr\include\util\atomic.h ****     __asm__ volatile ("" ::: "memory");
  58:c:\d\ifsc\vscodeleandro\ex\toolchains\avr-gcc\avr\include\util\atomic.h ****     (void)__s;
  59:c:\d\ifsc\vscodeleandro\ex\toolchains\avr-gcc\avr\include\util\atomic.h **** }
  60:c:\d\ifsc\vscodeleandro\ex\toolchains\avr-gcc\avr\include\util\atomic.h **** 
  61:c:\d\ifsc\vscodeleandro\ex\toolchains\avr-gcc\avr\include\util\atomic.h **** static __inline__ void __iCliParam(const uint8_t *__s)
  62:c:\d\ifsc\vscodeleandro\ex\toolchains\avr-gcc\avr\include\util\atomic.h **** {
  63:c:\d\ifsc\vscodeleandro\ex\toolchains\avr-gcc\avr\include\util\atomic.h ****     cli();
  64:c:\d\ifsc\vscodeleandro\ex\toolchains\avr-gcc\avr\include\util\atomic.h ****     __asm__ volatile ("" ::: "memory");
  65:c:\d\ifsc\vscodeleandro\ex\toolchains\avr-gcc\avr\include\util\atomic.h ****     (void)__s;
  66:c:\d\ifsc\vscodeleandro\ex\toolchains\avr-gcc\avr\include\util\atomic.h **** }
  67:c:\d\ifsc\vscodeleandro\ex\toolchains\avr-gcc\avr\include\util\atomic.h **** 
GAS LISTING C:\Users\kenne\AppData\Local\Temp\cc2IZjCw.s 			page 32


  68:c:\d\ifsc\vscodeleandro\ex\toolchains\avr-gcc\avr\include\util\atomic.h **** static __inline__ void __iRestore(const  uint8_t *__s)
 301               		.loc 4 68 24 view .LVU70
 302               	.LBB81:
  69:c:\d\ifsc\vscodeleandro\ex\toolchains\avr-gcc\avr\include\util\atomic.h **** {
  70:c:\d\ifsc\vscodeleandro\ex\toolchains\avr-gcc\avr\include\util\atomic.h ****     SREG = *__s;
 303               		.loc 4 70 5 view .LVU71
 304               		.loc 4 70 10 is_stmt 0 view .LVU72
 305 0064 2FBF      		out __SREG__,r18
  71:c:\d\ifsc\vscodeleandro\ex\toolchains\avr-gcc\avr\include\util\atomic.h ****     __asm__ volatile ("" ::: "memory");
 306               		.loc 4 71 5 is_stmt 1 view .LVU73
 307               	.LVL21:
 308               		.loc 4 71 5 is_stmt 0 view .LVU74
 309               	.LBE81:
 310               	.LBE80:
 311               	.LBE77:
 504:funsape/peripheral/timer1.hpp ****     }
 505:funsape/peripheral/timer1.hpp ****     return;
 312               		.loc 3 505 5 is_stmt 1 view .LVU75
 313               	/* epilogue start */
 314               		.loc 3 505 5 is_stmt 0 view .LVU76
 315               	.LBE76:
  56:main.cpp      **** }
 316               		.loc 2 56 1 view .LVU77
 317 0066 0895      		ret
 318               		.cfi_endproc
 319               	.LFE56:
 321               		.section	.text._Z8getanglem,"ax",@progbits
 322               	.global	_Z8getanglem
 324               	_Z8getanglem:
 325               	.LVL22:
 326               	.LFB57:
  57:main.cpp      **** 
  58:main.cpp      **** int16_t getangle(uint32_t aux)
  59:main.cpp      **** {
 327               		.loc 2 59 1 is_stmt 1 view -0
 328               		.cfi_startproc
 329               		.loc 2 59 1 is_stmt 0 view .LVU79
 330 0000 CF93      		push r28
 331               		.cfi_def_cfa_offset 3
 332               		.cfi_offset 28, -2
 333 0002 DF93      		push r29
 334               		.cfi_def_cfa_offset 4
 335               		.cfi_offset 29, -3
 336 0004 00D0      		rcall .
 337 0006 00D0      		rcall .
 338               		.cfi_def_cfa_offset 8
 339 0008 CDB7      		in r28,__SP_L__
 340 000a DEB7      		in r29,__SP_H__
 341               		.cfi_def_cfa_register 28
 342               	/* prologue: function */
 343               	/* frame size = 4 */
 344               	/* stack size = 6 */
 345               	.L__stack_usage = 6
 346 000c 462F      		mov r20,r22
 347 000e 572F      		mov r21,r23
 348 0010 682F      		mov r22,r24
 349               	.LVL23:
GAS LISTING C:\Users\kenne\AppData\Local\Temp\cc2IZjCw.s 			page 33


 350               		.loc 2 59 1 view .LVU80
 351 0012 792F      		mov r23,r25
  60:main.cpp      ****     int32_t aux2;
 352               		.loc 2 60 5 is_stmt 1 view .LVU81
  61:main.cpp      ****     int16_t angulo;
 353               		.loc 2 61 5 view .LVU82
  62:main.cpp      ****     aux2 = 10 * aux - 29999;
 354               		.loc 2 62 5 view .LVU83
 355               		.loc 2 62 15 is_stmt 0 view .LVU84
 356 0014 DB01      		movw r26,r22
 357 0016 CA01      		movw r24,r20
 358 0018 880F      		lsl r24
 359 001a 991F      		rol r25
 360 001c AA1F      		rol r26
 361 001e BB1F      		rol r27
 362 0020 880F      		lsl r24
 363 0022 991F      		rol r25
 364 0024 AA1F      		rol r26
 365 0026 BB1F      		rol r27
 366 0028 840F      		add r24,r20
 367 002a 951F      		adc r25,r21
 368 002c A61F      		adc r26,r22
 369 002e B71F      		adc r27,r23
 370 0030 880F      		lsl r24
 371 0032 991F      		rol r25
 372 0034 AA1F      		rol r26
 373 0036 BB1F      		rol r27
 374               		.loc 2 62 21 view .LVU85
 375 0038 8F52      		subi r24,47
 376 003a 9547      		sbci r25,117
 377 003c A109      		sbc r26,__zero_reg__
 378 003e B109      		sbc r27,__zero_reg__
 379               	.LVL24:
  63:main.cpp      ****     angulo = 10 * aux2 / 741;
 380               		.loc 2 63 5 is_stmt 1 view .LVU86
 381               		.loc 2 63 17 is_stmt 0 view .LVU87
 382 0040 AC01      		movw r20,r24
 383 0042 BD01      		movw r22,r26
 384 0044 440F      		lsl r20
 385 0046 551F      		rol r21
 386 0048 661F      		rol r22
 387 004a 771F      		rol r23
 388 004c 440F      		lsl r20
 389 004e 551F      		rol r21
 390 0050 661F      		rol r22
 391 0052 771F      		rol r23
 392 0054 840F      		add r24,r20
 393 0056 951F      		adc r25,r21
 394 0058 A61F      		adc r26,r22
 395 005a B71F      		adc r27,r23
 396               	.LVL25:
 397               		.loc 2 63 17 view .LVU88
 398 005c 9C01      		movw r18,r24
 399 005e AD01      		movw r20,r26
 400 0060 220F      		lsl r18
 401 0062 331F      		rol r19
 402 0064 441F      		rol r20
GAS LISTING C:\Users\kenne\AppData\Local\Temp\cc2IZjCw.s 			page 34


 403 0066 551F      		rol r21
 404 0068 2983      		std Y+1,r18
 405 006a 3A83      		std Y+2,r19
 406 006c 4B83      		std Y+3,r20
 407 006e 5C83      		std Y+4,r21
 408               		.loc 2 63 24 view .LVU89
 409 0070 CA01      		movw r24,r20
 410 0072 B901      		movw r22,r18
 411 0074 25EE      		ldi r18,lo8(-27)
 412 0076 32E0      		ldi r19,lo8(2)
 413 0078 40E0      		ldi r20,0
 414 007a 50E0      		ldi r21,0
 415 007c 0E94 0000 		call __divmodsi4
 416               		.loc 2 63 12 view .LVU90
 417 0080 C901      		movw r24,r18
  64:main.cpp      ****     if(angulo > 0) {
 418               		.loc 2 64 5 is_stmt 1 view .LVU91
 419 0082 1816      		cp __zero_reg__,r24
 420 0084 1906      		cpc __zero_reg__,r25
 421 0086 04F4      		brge .L15
  65:main.cpp      ****         angulo++;
 422               		.loc 2 65 9 view .LVU92
 423               		.loc 2 65 15 is_stmt 0 view .LVU93
 424 0088 0196      		adiw r24,1
 425               	.LVL26:
  66:main.cpp      ****     }
  67:main.cpp      ****     if(angulo == 1) {
 426               		.loc 2 67 5 is_stmt 1 view .LVU94
  68:main.cpp      ****         angulo = 0;
  69:main.cpp      ****     }
  70:main.cpp      ****     return angulo;
 427               		.loc 2 70 5 view .LVU95
 428               	.L15:
 429               	/* epilogue start */
  71:main.cpp      **** }
 430               		.loc 2 71 1 is_stmt 0 view .LVU96
 431 008a 0F90      		pop __tmp_reg__
 432 008c 0F90      		pop __tmp_reg__
 433 008e 0F90      		pop __tmp_reg__
 434 0090 0F90      		pop __tmp_reg__
 435 0092 DF91      		pop r29
 436 0094 CF91      		pop r28
 437 0096 0895      		ret
 438               		.cfi_endproc
 439               	.LFE57:
 441               		.section	.rodata.main.str1.1,"aMS",@progbits,1
 442               	.LC0:
 443 0000 2020 2047 		.string	"   Good Morning! :-)   \n"
 443      6F6F 6420 
 443      4D6F 726E 
 443      696E 6721 
 443      203A 2D29 
 444               	.LC1:
 445 0019 416E 6775 		.string	"Angulo = %d\n"
 445      6C6F 203D 
 445      2025 640A 
 445      00
GAS LISTING C:\Users\kenne\AppData\Local\Temp\cc2IZjCw.s 			page 35


 446               	.LC2:
 447 0026 416E 6775 		.string	"Angulo = %d \n"
 447      6C6F 203D 
 447      2025 6420 
 447      0A00 
 448               	.LC3:
 449 0034 4E6F 766F 		.string	"Novo="
 449      3D00 
 450               	.LC4:
 451 003a 4E6F 766F 		.string	"Novo= %d"
 451      3D20 2564 
 451      00
 452               	.LC5:
 453 0043 5661 6C6F 		.string	"Valor invalido!"
 453      7220 696E 
 453      7661 6C69 
 453      646F 2100 
 454               		.section	.text.main,"ax",@progbits
 455               	.global	main
 457               	main:
 458               	.LFB58:
  72:main.cpp      **** 
  73:main.cpp      **** //---MAIN---//
  74:main.cpp      **** int main()
  75:main.cpp      **** {
 459               		.loc 2 75 1 is_stmt 1 view -0
 460               		.cfi_startproc
 461 0000 CDB7      		in r28,__SP_L__
 462 0002 DEB7      		in r29,__SP_H__
 463               		.cfi_def_cfa_register 28
 464 0004 AF97      		sbiw r28,47
 465               		.cfi_def_cfa_offset 49
 466 0006 0FB6      		in __tmp_reg__,__SREG__
 467 0008 F894      		cli
 468 000a DEBF      		out __SP_H__,r29
 469 000c 0FBE      		out __SREG__,__tmp_reg__
 470 000e CDBF      		out __SP_L__,r28
 471               	/* prologue: function */
 472               	/* frame size = 47 */
 473               	/* stack size = 47 */
 474               	.L__stack_usage = 47
  76:main.cpp      ****     Hd44780 lcd;
 475               		.loc 2 76 5 view .LVU98
 476               		.loc 2 76 13 is_stmt 0 view .LVU99
 477 0010 CE01      		movw r24,r28
 478 0012 0196      		adiw r24,1
 479 0014 0E94 0000 		call _ZN7Hd44780C1Ev
 480               	.LVL27:
  77:main.cpp      **** 
  78:main.cpp      ****     //Config Keypad
  79:main.cpp      ****     Keypad keypad;
 481               		.loc 2 79 5 is_stmt 1 view .LVU100
 482               		.loc 2 79 12 is_stmt 0 view .LVU101
 483 0018 7E01      		movw r14,r28
 484 001a 23E1      		ldi r18,19
 485 001c E20E      		add r14,r18
 486 001e F11C      		adc r15,__zero_reg__
GAS LISTING C:\Users\kenne\AppData\Local\Temp\cc2IZjCw.s 			page 36


 487 0020 C701      		movw r24,r14
 488 0022 0E94 0000 		call _ZN6KeypadC1Ev
 489               	.LVL28:
  80:main.cpp      ****     keypad.setPorts(&DDRD, PD4, &DDRD, PD0);
 490               		.loc 2 80 5 is_stmt 1 view .LVU102
 491               		.loc 2 80 20 is_stmt 0 view .LVU103
 492 0026 00E0      		ldi r16,0
 493 0028 2AE2      		ldi r18,lo8(42)
 494 002a 30E0      		ldi r19,0
 495 002c 44E0      		ldi r20,lo8(4)
 496 002e 6AE2      		ldi r22,lo8(42)
 497 0030 70E0      		ldi r23,0
 498 0032 C701      		movw r24,r14
 499 0034 0E94 0000 		call _ZN6Keypad8setPortsEPVhhS1_h
 500               	.LVL29:
  81:main.cpp      ****     keypad.setKeyValues(Keypad::Type::KEYPAD_4X4,
 501               		.loc 2 81 5 is_stmt 1 view .LVU104
 502               		.loc 2 81 24 is_stmt 0 view .LVU105
 503 0038 1F92      		push __zero_reg__
 504 003a 84E4      		ldi r24,lo8(68)
 505 003c 8F93      		push r24
 506 003e 1F92      		push __zero_reg__
 507 0040 86E4      		ldi r24,lo8(70)
 508 0042 8F93      		push r24
 509 0044 1F92      		push __zero_reg__
 510 0046 80E3      		ldi r24,lo8(48)
 511 0048 8F93      		push r24
 512 004a 1F92      		push __zero_reg__
 513 004c 85E4      		ldi r24,lo8(69)
 514 004e 8F93      		push r24
 515 0050 1F92      		push __zero_reg__
 516 0052 83E4      		ldi r24,lo8(67)
 517 0054 8F93      		push r24
 518 0056 1F92      		push __zero_reg__
 519 0058 83E3      		ldi r24,lo8(51)
 520 005a 8F93      		push r24
 521 005c 1F92      		push __zero_reg__
 522 005e 82E3      		ldi r24,lo8(50)
 523 0060 8F93      		push r24
 524 0062 1F92      		push __zero_reg__
 525 0064 81E3      		ldi r24,lo8(49)
 526 0066 8F93      		push r24
 527 0068 1F92      		push __zero_reg__
 528 006a 82E4      		ldi r24,lo8(66)
 529 006c 8F93      		push r24
 530 006e 1F92      		push __zero_reg__
 531 0070 86E3      		ldi r24,lo8(54)
 532 0072 8F93      		push r24
 533 0074 1F92      		push __zero_reg__
 534 0076 85E3      		ldi r24,lo8(53)
 535 0078 8F93      		push r24
 536 007a 1F92      		push __zero_reg__
 537 007c 84E3      		ldi r24,lo8(52)
 538 007e 8F93      		push r24
 539 0080 1F92      		push __zero_reg__
 540 0082 81E4      		ldi r24,lo8(65)
 541 0084 8F93      		push r24
GAS LISTING C:\Users\kenne\AppData\Local\Temp\cc2IZjCw.s 			page 37


 542 0086 1F92      		push __zero_reg__
 543 0088 89E3      		ldi r24,lo8(57)
 544 008a 8F93      		push r24
 545 008c 1F92      		push __zero_reg__
 546 008e 88E3      		ldi r24,lo8(56)
 547 0090 8F93      		push r24
 548 0092 1F92      		push __zero_reg__
 549 0094 87E3      		ldi r24,lo8(55)
 550 0096 8F93      		push r24
 551 0098 1F92      		push __zero_reg__
 552 009a FF92      		push r15
 553 009c EF92      		push r14
 554 009e 0E94 0000 		call _ZN6Keypad12setKeyValuesENS_4TypeEz
 555               	.LVL30:
  82:main.cpp      ****             '7', '8', '9', 'A',
  83:main.cpp      ****             '4', '5', '6', 'B',
  84:main.cpp      ****             '1', '2', '3', 'C',
  85:main.cpp      ****             'E', '0', 'F', 'D');
  86:main.cpp      ****     keypad.init(10);
 556               		.loc 2 86 5 is_stmt 1 view .LVU106
 557               		.loc 2 86 16 is_stmt 0 view .LVU107
 558 00a2 0FB6      		in __tmp_reg__,__SREG__
 559 00a4 F894      		cli
 560 00a6 DEBF      		out __SP_H__,r29
 561 00a8 0FBE      		out __SREG__,__tmp_reg__
 562 00aa CDBF      		out __SP_L__,r28
 563 00ac 6AE0      		ldi r22,lo8(10)
 564 00ae C701      		movw r24,r14
 565 00b0 0E94 0000 		call _ZN6Keypad4initEh
 566               	.LVL31:
  87:main.cpp      **** 
  88:main.cpp      **** 
  89:main.cpp      **** 
  90:main.cpp      **** 
  91:main.cpp      ****     //Configure LCD
  92:main.cpp      ****     lcd.controlPortSet(&DDRC, PC1, PC2, PC3);
 567               		.loc 2 92 5 is_stmt 1 view .LVU108
 568               		.loc 2 92 23 is_stmt 0 view .LVU109
 569 00b4 03E0      		ldi r16,lo8(3)
 570 00b6 22E0      		ldi r18,lo8(2)
 571 00b8 41E0      		ldi r20,lo8(1)
 572 00ba 67E2      		ldi r22,lo8(39)
 573 00bc 70E0      		ldi r23,0
 574 00be CE01      		movw r24,r28
 575 00c0 0196      		adiw r24,1
 576 00c2 0E94 0000 		call _ZN7Hd4478014controlPortSetEPVhhhh
 577               	.LVL32:
  93:main.cpp      ****     lcd.dataPortSet(&DDRB, PB2);
 578               		.loc 2 93 5 is_stmt 1 view .LVU110
 579               		.loc 2 93 20 is_stmt 0 view .LVU111
 580 00c6 42E0      		ldi r20,lo8(2)
 581 00c8 64E2      		ldi r22,lo8(36)
 582 00ca 70E0      		ldi r23,0
 583 00cc CE01      		movw r24,r28
 584 00ce 0196      		adiw r24,1
 585 00d0 0E94 0000 		call _ZN7Hd4478011dataPortSetEPVhh
 586               	.LVL33:
GAS LISTING C:\Users\kenne\AppData\Local\Temp\cc2IZjCw.s 			page 38


  94:main.cpp      ****     lcd.init(Hd44780::Size::LCD_16X2, Hd44780::Font::FONT_5X8, true, true);
 587               		.loc 2 94 5 is_stmt 1 view .LVU112
 588               		.loc 2 94 13 is_stmt 0 view .LVU113
 589 00d4 01E0      		ldi r16,lo8(1)
 590 00d6 21E0      		ldi r18,lo8(1)
 591 00d8 40E0      		ldi r20,0
 592 00da 6CE6      		ldi r22,lo8(108)
 593 00dc CE01      		movw r24,r28
 594 00de 0196      		adiw r24,1
 595 00e0 0E94 0000 		call _ZN7Hd447804initENS_4SizeENS_4FontEbb
 596               	.LVL34:
  95:main.cpp      ****     lcd.stdio();
 597               		.loc 2 95 5 is_stmt 1 view .LVU114
 598               		.loc 2 95 14 is_stmt 0 view .LVU115
 599 00e4 CE01      		movw r24,r28
 600 00e6 0196      		adiw r24,1
 601 00e8 0E94 0000 		call _ZN7Hd447805stdioEv
 602               	.LVL35:
  96:main.cpp      **** 
  97:main.cpp      ****     printf("   Good Morning! :-)   \n\n");
 603               		.loc 2 97 5 is_stmt 1 view .LVU116
 604               		.loc 2 97 11 is_stmt 0 view .LVU117
 605 00ec 80E0      		ldi r24,lo8(.LC0)
 606 00ee 90E0      		ldi r25,hi8(.LC0)
 607 00f0 0E94 0000 		call puts
 608               	.LVL36:
  98:main.cpp      ****     delayMs(500);
 609               		.loc 2 98 5 is_stmt 1 view .LVU118
 610               	.LBB82:
 611               	.LBI82:
 612               		.file 5 "c:\\d\\ifsc\\vscodeleandro\\ex\\toolchains\\avr-gcc\\avr\\include\\util\\delay.h"
   1:c:\d\ifsc\vscodeleandro\ex\toolchains\avr-gcc\avr\include\util\delay.h **** /* Copyright (c) 2002, Marek Michalkiewicz
   2:c:\d\ifsc\vscodeleandro\ex\toolchains\avr-gcc\avr\include\util\delay.h ****    Copyright (c) 2004,2005,2007 Joerg Wunsch
   3:c:\d\ifsc\vscodeleandro\ex\toolchains\avr-gcc\avr\include\util\delay.h ****    Copyright (c) 2007  Florin-Viorel Petrov
   4:c:\d\ifsc\vscodeleandro\ex\toolchains\avr-gcc\avr\include\util\delay.h ****    All rights reserved.
   5:c:\d\ifsc\vscodeleandro\ex\toolchains\avr-gcc\avr\include\util\delay.h **** 
   6:c:\d\ifsc\vscodeleandro\ex\toolchains\avr-gcc\avr\include\util\delay.h ****    Redistribution and use in source and binary forms, with or without
   7:c:\d\ifsc\vscodeleandro\ex\toolchains\avr-gcc\avr\include\util\delay.h ****    modification, are permitted provided that the following conditions are met:
   8:c:\d\ifsc\vscodeleandro\ex\toolchains\avr-gcc\avr\include\util\delay.h **** 
   9:c:\d\ifsc\vscodeleandro\ex\toolchains\avr-gcc\avr\include\util\delay.h ****    * Redistributions of source code must retain the above copyright
  10:c:\d\ifsc\vscodeleandro\ex\toolchains\avr-gcc\avr\include\util\delay.h ****      notice, this list of conditions and the following disclaimer.
  11:c:\d\ifsc\vscodeleandro\ex\toolchains\avr-gcc\avr\include\util\delay.h **** 
  12:c:\d\ifsc\vscodeleandro\ex\toolchains\avr-gcc\avr\include\util\delay.h ****    * Redistributions in binary form must reproduce the above copyright
  13:c:\d\ifsc\vscodeleandro\ex\toolchains\avr-gcc\avr\include\util\delay.h ****      notice, this list of conditions and the following disclaimer in
  14:c:\d\ifsc\vscodeleandro\ex\toolchains\avr-gcc\avr\include\util\delay.h ****      the documentation and/or other materials provided with the
  15:c:\d\ifsc\vscodeleandro\ex\toolchains\avr-gcc\avr\include\util\delay.h ****      distribution.
  16:c:\d\ifsc\vscodeleandro\ex\toolchains\avr-gcc\avr\include\util\delay.h **** 
  17:c:\d\ifsc\vscodeleandro\ex\toolchains\avr-gcc\avr\include\util\delay.h ****    * Neither the name of the copyright holders nor the names of
  18:c:\d\ifsc\vscodeleandro\ex\toolchains\avr-gcc\avr\include\util\delay.h ****      contributors may be used to endorse or promote products derived
  19:c:\d\ifsc\vscodeleandro\ex\toolchains\avr-gcc\avr\include\util\delay.h ****      from this software without specific prior written permission.
  20:c:\d\ifsc\vscodeleandro\ex\toolchains\avr-gcc\avr\include\util\delay.h **** 
  21:c:\d\ifsc\vscodeleandro\ex\toolchains\avr-gcc\avr\include\util\delay.h ****   THIS SOFTWARE IS PROVIDED BY THE COPYRIGHT HOLDERS AND CONTRIBUTORS "AS IS"
  22:c:\d\ifsc\vscodeleandro\ex\toolchains\avr-gcc\avr\include\util\delay.h ****   AND ANY EXPRESS OR IMPLIED WARRANTIES, INCLUDING, BUT NOT LIMITED TO, THE
  23:c:\d\ifsc\vscodeleandro\ex\toolchains\avr-gcc\avr\include\util\delay.h ****   IMPLIED WARRANTIES OF MERCHANTABILITY AND FITNESS FOR A PARTICULAR PURPOSE
  24:c:\d\ifsc\vscodeleandro\ex\toolchains\avr-gcc\avr\include\util\delay.h ****   ARE DISCLAIMED. IN NO EVENT SHALL THE COPYRIGHT OWNER OR CONTRIBUTORS BE
  25:c:\d\ifsc\vscodeleandro\ex\toolchains\avr-gcc\avr\include\util\delay.h ****   LIABLE FOR ANY DIRECT, INDIRECT, INCIDENTAL, SPECIAL, EXEMPLARY, OR
  26:c:\d\ifsc\vscodeleandro\ex\toolchains\avr-gcc\avr\include\util\delay.h ****   CONSEQUENTIAL DAMAGES (INCLUDING, BUT NOT LIMITED TO, PROCUREMENT OF
GAS LISTING C:\Users\kenne\AppData\Local\Temp\cc2IZjCw.s 			page 39


  27:c:\d\ifsc\vscodeleandro\ex\toolchains\avr-gcc\avr\include\util\delay.h ****   SUBSTITUTE GOODS OR SERVICES; LOSS OF USE, DATA, OR PROFITS; OR BUSINESS
  28:c:\d\ifsc\vscodeleandro\ex\toolchains\avr-gcc\avr\include\util\delay.h ****   INTERRUPTION) HOWEVER CAUSED AND ON ANY THEORY OF LIABILITY, WHETHER IN
  29:c:\d\ifsc\vscodeleandro\ex\toolchains\avr-gcc\avr\include\util\delay.h ****   CONTRACT, STRICT LIABILITY, OR TORT (INCLUDING NEGLIGENCE OR OTHERWISE)
  30:c:\d\ifsc\vscodeleandro\ex\toolchains\avr-gcc\avr\include\util\delay.h ****   ARISING IN ANY WAY OUT OF THE USE OF THIS SOFTWARE, EVEN IF ADVISED OF THE
  31:c:\d\ifsc\vscodeleandro\ex\toolchains\avr-gcc\avr\include\util\delay.h ****   POSSIBILITY OF SUCH DAMAGE. */
  32:c:\d\ifsc\vscodeleandro\ex\toolchains\avr-gcc\avr\include\util\delay.h **** 
  33:c:\d\ifsc\vscodeleandro\ex\toolchains\avr-gcc\avr\include\util\delay.h **** /* $Id$ */
  34:c:\d\ifsc\vscodeleandro\ex\toolchains\avr-gcc\avr\include\util\delay.h **** 
  35:c:\d\ifsc\vscodeleandro\ex\toolchains\avr-gcc\avr\include\util\delay.h **** #ifndef _UTIL_DELAY_H_
  36:c:\d\ifsc\vscodeleandro\ex\toolchains\avr-gcc\avr\include\util\delay.h **** #define _UTIL_DELAY_H_ 1
  37:c:\d\ifsc\vscodeleandro\ex\toolchains\avr-gcc\avr\include\util\delay.h **** 
  38:c:\d\ifsc\vscodeleandro\ex\toolchains\avr-gcc\avr\include\util\delay.h **** #ifndef __DOXYGEN__
  39:c:\d\ifsc\vscodeleandro\ex\toolchains\avr-gcc\avr\include\util\delay.h **** #  ifndef __HAS_DELAY_CYCLES
  40:c:\d\ifsc\vscodeleandro\ex\toolchains\avr-gcc\avr\include\util\delay.h **** #    define __HAS_DELAY_CYCLES 1
  41:c:\d\ifsc\vscodeleandro\ex\toolchains\avr-gcc\avr\include\util\delay.h **** #  endif
  42:c:\d\ifsc\vscodeleandro\ex\toolchains\avr-gcc\avr\include\util\delay.h **** #endif  /* __DOXYGEN__ */
  43:c:\d\ifsc\vscodeleandro\ex\toolchains\avr-gcc\avr\include\util\delay.h **** 
  44:c:\d\ifsc\vscodeleandro\ex\toolchains\avr-gcc\avr\include\util\delay.h **** #include <inttypes.h>
  45:c:\d\ifsc\vscodeleandro\ex\toolchains\avr-gcc\avr\include\util\delay.h **** #include <util/delay_basic.h>
  46:c:\d\ifsc\vscodeleandro\ex\toolchains\avr-gcc\avr\include\util\delay.h **** #include <math.h>
  47:c:\d\ifsc\vscodeleandro\ex\toolchains\avr-gcc\avr\include\util\delay.h **** 
  48:c:\d\ifsc\vscodeleandro\ex\toolchains\avr-gcc\avr\include\util\delay.h **** /** \file */
  49:c:\d\ifsc\vscodeleandro\ex\toolchains\avr-gcc\avr\include\util\delay.h **** /** \defgroup util_delay <util/delay.h>: Convenience functions for busy-wait delay loops
  50:c:\d\ifsc\vscodeleandro\ex\toolchains\avr-gcc\avr\include\util\delay.h ****     \code
  51:c:\d\ifsc\vscodeleandro\ex\toolchains\avr-gcc\avr\include\util\delay.h ****     #define F_CPU 1000000UL  // 1 MHz
  52:c:\d\ifsc\vscodeleandro\ex\toolchains\avr-gcc\avr\include\util\delay.h ****     //#define F_CPU 14.7456E6
  53:c:\d\ifsc\vscodeleandro\ex\toolchains\avr-gcc\avr\include\util\delay.h ****     #include <util/delay.h>
  54:c:\d\ifsc\vscodeleandro\ex\toolchains\avr-gcc\avr\include\util\delay.h ****     \endcode
  55:c:\d\ifsc\vscodeleandro\ex\toolchains\avr-gcc\avr\include\util\delay.h **** 
  56:c:\d\ifsc\vscodeleandro\ex\toolchains\avr-gcc\avr\include\util\delay.h ****     \note As an alternative method, it is possible to pass the
  57:c:\d\ifsc\vscodeleandro\ex\toolchains\avr-gcc\avr\include\util\delay.h ****     F_CPU macro down to the compiler from the Makefile.
  58:c:\d\ifsc\vscodeleandro\ex\toolchains\avr-gcc\avr\include\util\delay.h ****     Obviously, in that case, no \c \#define statement should be
  59:c:\d\ifsc\vscodeleandro\ex\toolchains\avr-gcc\avr\include\util\delay.h ****     used.
  60:c:\d\ifsc\vscodeleandro\ex\toolchains\avr-gcc\avr\include\util\delay.h **** 
  61:c:\d\ifsc\vscodeleandro\ex\toolchains\avr-gcc\avr\include\util\delay.h ****     The functions in this header file are wrappers around the basic
  62:c:\d\ifsc\vscodeleandro\ex\toolchains\avr-gcc\avr\include\util\delay.h ****     busy-wait functions from <util/delay_basic.h>.  They are meant as
  63:c:\d\ifsc\vscodeleandro\ex\toolchains\avr-gcc\avr\include\util\delay.h ****     convenience functions where actual time values can be specified
  64:c:\d\ifsc\vscodeleandro\ex\toolchains\avr-gcc\avr\include\util\delay.h ****     rather than a number of cycles to wait for.  The idea behind is
  65:c:\d\ifsc\vscodeleandro\ex\toolchains\avr-gcc\avr\include\util\delay.h ****     that compile-time constant expressions will be eliminated by
  66:c:\d\ifsc\vscodeleandro\ex\toolchains\avr-gcc\avr\include\util\delay.h ****     compiler optimization so floating-point expressions can be used
  67:c:\d\ifsc\vscodeleandro\ex\toolchains\avr-gcc\avr\include\util\delay.h ****     to calculate the number of delay cycles needed based on the CPU
  68:c:\d\ifsc\vscodeleandro\ex\toolchains\avr-gcc\avr\include\util\delay.h ****     frequency passed by the macro F_CPU.
  69:c:\d\ifsc\vscodeleandro\ex\toolchains\avr-gcc\avr\include\util\delay.h **** 
  70:c:\d\ifsc\vscodeleandro\ex\toolchains\avr-gcc\avr\include\util\delay.h ****     \note In order for these functions to work as intended, compiler
  71:c:\d\ifsc\vscodeleandro\ex\toolchains\avr-gcc\avr\include\util\delay.h ****     optimizations <em>must</em> be enabled, and the delay time
  72:c:\d\ifsc\vscodeleandro\ex\toolchains\avr-gcc\avr\include\util\delay.h ****     <em>must</em> be an expression that is a known constant at
  73:c:\d\ifsc\vscodeleandro\ex\toolchains\avr-gcc\avr\include\util\delay.h ****     compile-time.  If these requirements are not met, the resulting
  74:c:\d\ifsc\vscodeleandro\ex\toolchains\avr-gcc\avr\include\util\delay.h ****     delay will be much longer (and basically unpredictable), and
  75:c:\d\ifsc\vscodeleandro\ex\toolchains\avr-gcc\avr\include\util\delay.h ****     applications that otherwise do not use floating-point calculations
  76:c:\d\ifsc\vscodeleandro\ex\toolchains\avr-gcc\avr\include\util\delay.h ****     will experience severe code bloat by the floating-point library
  77:c:\d\ifsc\vscodeleandro\ex\toolchains\avr-gcc\avr\include\util\delay.h ****     routines linked into the application.
  78:c:\d\ifsc\vscodeleandro\ex\toolchains\avr-gcc\avr\include\util\delay.h **** 
  79:c:\d\ifsc\vscodeleandro\ex\toolchains\avr-gcc\avr\include\util\delay.h ****     The functions available allow the specification of microsecond, and
  80:c:\d\ifsc\vscodeleandro\ex\toolchains\avr-gcc\avr\include\util\delay.h ****     millisecond delays directly, using the application-supplied macro
  81:c:\d\ifsc\vscodeleandro\ex\toolchains\avr-gcc\avr\include\util\delay.h ****     F_CPU as the CPU clock frequency (in Hertz).
  82:c:\d\ifsc\vscodeleandro\ex\toolchains\avr-gcc\avr\include\util\delay.h **** 
  83:c:\d\ifsc\vscodeleandro\ex\toolchains\avr-gcc\avr\include\util\delay.h **** */
GAS LISTING C:\Users\kenne\AppData\Local\Temp\cc2IZjCw.s 			page 40


  84:c:\d\ifsc\vscodeleandro\ex\toolchains\avr-gcc\avr\include\util\delay.h **** 
  85:c:\d\ifsc\vscodeleandro\ex\toolchains\avr-gcc\avr\include\util\delay.h **** #if !defined(__DOXYGEN__)
  86:c:\d\ifsc\vscodeleandro\ex\toolchains\avr-gcc\avr\include\util\delay.h **** static __inline__ void _delay_us(double __us) __attribute__((__always_inline__));
  87:c:\d\ifsc\vscodeleandro\ex\toolchains\avr-gcc\avr\include\util\delay.h **** static __inline__ void _delay_ms(double __ms) __attribute__((__always_inline__));
  88:c:\d\ifsc\vscodeleandro\ex\toolchains\avr-gcc\avr\include\util\delay.h **** #endif
  89:c:\d\ifsc\vscodeleandro\ex\toolchains\avr-gcc\avr\include\util\delay.h **** 
  90:c:\d\ifsc\vscodeleandro\ex\toolchains\avr-gcc\avr\include\util\delay.h **** #ifndef F_CPU
  91:c:\d\ifsc\vscodeleandro\ex\toolchains\avr-gcc\avr\include\util\delay.h **** /* prevent compiler error by supplying a default */
  92:c:\d\ifsc\vscodeleandro\ex\toolchains\avr-gcc\avr\include\util\delay.h **** # warning "F_CPU not defined for <util/delay.h>"
  93:c:\d\ifsc\vscodeleandro\ex\toolchains\avr-gcc\avr\include\util\delay.h **** /** \ingroup util_delay
  94:c:\d\ifsc\vscodeleandro\ex\toolchains\avr-gcc\avr\include\util\delay.h ****     \def F_CPU
  95:c:\d\ifsc\vscodeleandro\ex\toolchains\avr-gcc\avr\include\util\delay.h ****     \brief CPU frequency in Hz
  96:c:\d\ifsc\vscodeleandro\ex\toolchains\avr-gcc\avr\include\util\delay.h **** 
  97:c:\d\ifsc\vscodeleandro\ex\toolchains\avr-gcc\avr\include\util\delay.h ****     The macro F_CPU specifies the CPU frequency to be considered by
  98:c:\d\ifsc\vscodeleandro\ex\toolchains\avr-gcc\avr\include\util\delay.h ****     the delay macros.  This macro is normally supplied by the
  99:c:\d\ifsc\vscodeleandro\ex\toolchains\avr-gcc\avr\include\util\delay.h ****     environment (e.g. from within a project header, or the project's
 100:c:\d\ifsc\vscodeleandro\ex\toolchains\avr-gcc\avr\include\util\delay.h ****     Makefile).  The value 1 MHz here is only provided as a "vanilla"
 101:c:\d\ifsc\vscodeleandro\ex\toolchains\avr-gcc\avr\include\util\delay.h ****     fallback if no such user-provided definition could be found.
 102:c:\d\ifsc\vscodeleandro\ex\toolchains\avr-gcc\avr\include\util\delay.h **** 
 103:c:\d\ifsc\vscodeleandro\ex\toolchains\avr-gcc\avr\include\util\delay.h ****     In terms of the delay functions, the CPU frequency can be given as
 104:c:\d\ifsc\vscodeleandro\ex\toolchains\avr-gcc\avr\include\util\delay.h ****     a floating-point constant (e.g. 3.6864E6 for 3.6864 MHz).
 105:c:\d\ifsc\vscodeleandro\ex\toolchains\avr-gcc\avr\include\util\delay.h ****     However, the macros in <util/setbaud.h> require it to be an
 106:c:\d\ifsc\vscodeleandro\ex\toolchains\avr-gcc\avr\include\util\delay.h ****     integer value.
 107:c:\d\ifsc\vscodeleandro\ex\toolchains\avr-gcc\avr\include\util\delay.h ****  */
 108:c:\d\ifsc\vscodeleandro\ex\toolchains\avr-gcc\avr\include\util\delay.h **** # define F_CPU 1000000UL
 109:c:\d\ifsc\vscodeleandro\ex\toolchains\avr-gcc\avr\include\util\delay.h **** #endif
 110:c:\d\ifsc\vscodeleandro\ex\toolchains\avr-gcc\avr\include\util\delay.h **** 
 111:c:\d\ifsc\vscodeleandro\ex\toolchains\avr-gcc\avr\include\util\delay.h **** #ifndef __OPTIMIZE__
 112:c:\d\ifsc\vscodeleandro\ex\toolchains\avr-gcc\avr\include\util\delay.h **** # warning "Compiler optimizations disabled; functions from <util/delay.h> won't work as designed"
 113:c:\d\ifsc\vscodeleandro\ex\toolchains\avr-gcc\avr\include\util\delay.h **** #endif
 114:c:\d\ifsc\vscodeleandro\ex\toolchains\avr-gcc\avr\include\util\delay.h **** 
 115:c:\d\ifsc\vscodeleandro\ex\toolchains\avr-gcc\avr\include\util\delay.h **** #if __HAS_DELAY_CYCLES && defined(__OPTIMIZE__) && \
 116:c:\d\ifsc\vscodeleandro\ex\toolchains\avr-gcc\avr\include\util\delay.h ****   !defined(__DELAY_BACKWARD_COMPATIBLE__) &&	   \
 117:c:\d\ifsc\vscodeleandro\ex\toolchains\avr-gcc\avr\include\util\delay.h ****   __STDC_HOSTED__
 118:c:\d\ifsc\vscodeleandro\ex\toolchains\avr-gcc\avr\include\util\delay.h **** #  include <math.h>
 119:c:\d\ifsc\vscodeleandro\ex\toolchains\avr-gcc\avr\include\util\delay.h **** #endif
 120:c:\d\ifsc\vscodeleandro\ex\toolchains\avr-gcc\avr\include\util\delay.h **** 
 121:c:\d\ifsc\vscodeleandro\ex\toolchains\avr-gcc\avr\include\util\delay.h **** /**
 122:c:\d\ifsc\vscodeleandro\ex\toolchains\avr-gcc\avr\include\util\delay.h ****    \ingroup util_delay
 123:c:\d\ifsc\vscodeleandro\ex\toolchains\avr-gcc\avr\include\util\delay.h **** 
 124:c:\d\ifsc\vscodeleandro\ex\toolchains\avr-gcc\avr\include\util\delay.h ****    Perform a delay of \c __ms milliseconds, using _delay_loop_2().
 125:c:\d\ifsc\vscodeleandro\ex\toolchains\avr-gcc\avr\include\util\delay.h **** 
 126:c:\d\ifsc\vscodeleandro\ex\toolchains\avr-gcc\avr\include\util\delay.h ****    The macro F_CPU is supposed to be defined to a
 127:c:\d\ifsc\vscodeleandro\ex\toolchains\avr-gcc\avr\include\util\delay.h ****    constant defining the CPU clock frequency (in Hertz).
 128:c:\d\ifsc\vscodeleandro\ex\toolchains\avr-gcc\avr\include\util\delay.h **** 
 129:c:\d\ifsc\vscodeleandro\ex\toolchains\avr-gcc\avr\include\util\delay.h ****    The maximal possible delay is 262.14 ms / F_CPU in MHz.
 130:c:\d\ifsc\vscodeleandro\ex\toolchains\avr-gcc\avr\include\util\delay.h **** 
 131:c:\d\ifsc\vscodeleandro\ex\toolchains\avr-gcc\avr\include\util\delay.h ****    When the user request delay which exceed the maximum possible one,
 132:c:\d\ifsc\vscodeleandro\ex\toolchains\avr-gcc\avr\include\util\delay.h ****    _delay_ms() provides a decreased resolution functionality. In this
 133:c:\d\ifsc\vscodeleandro\ex\toolchains\avr-gcc\avr\include\util\delay.h ****    mode _delay_ms() will work with a resolution of 1/10 ms, providing
 134:c:\d\ifsc\vscodeleandro\ex\toolchains\avr-gcc\avr\include\util\delay.h ****    delays up to 6.5535 seconds (independent from CPU frequency).  The
 135:c:\d\ifsc\vscodeleandro\ex\toolchains\avr-gcc\avr\include\util\delay.h ****    user will not be informed about decreased resolution.
 136:c:\d\ifsc\vscodeleandro\ex\toolchains\avr-gcc\avr\include\util\delay.h **** 
 137:c:\d\ifsc\vscodeleandro\ex\toolchains\avr-gcc\avr\include\util\delay.h ****    If the avr-gcc toolchain has __builtin_avr_delay_cycles()
 138:c:\d\ifsc\vscodeleandro\ex\toolchains\avr-gcc\avr\include\util\delay.h ****    support, maximal possible delay is 4294967.295 ms/ F_CPU in MHz. For
 139:c:\d\ifsc\vscodeleandro\ex\toolchains\avr-gcc\avr\include\util\delay.h ****    values greater than the maximal possible delay, overflows results in
 140:c:\d\ifsc\vscodeleandro\ex\toolchains\avr-gcc\avr\include\util\delay.h ****    no delay i.e., 0ms.
GAS LISTING C:\Users\kenne\AppData\Local\Temp\cc2IZjCw.s 			page 41


 141:c:\d\ifsc\vscodeleandro\ex\toolchains\avr-gcc\avr\include\util\delay.h **** 
 142:c:\d\ifsc\vscodeleandro\ex\toolchains\avr-gcc\avr\include\util\delay.h ****    Conversion of \c __ms into clock cycles may not always result in
 143:c:\d\ifsc\vscodeleandro\ex\toolchains\avr-gcc\avr\include\util\delay.h ****    integer.  By default, the clock cycles rounded up to next
 144:c:\d\ifsc\vscodeleandro\ex\toolchains\avr-gcc\avr\include\util\delay.h ****    integer. This ensures that the user gets at least \c __ms
 145:c:\d\ifsc\vscodeleandro\ex\toolchains\avr-gcc\avr\include\util\delay.h ****    microseconds of delay.
 146:c:\d\ifsc\vscodeleandro\ex\toolchains\avr-gcc\avr\include\util\delay.h **** 
 147:c:\d\ifsc\vscodeleandro\ex\toolchains\avr-gcc\avr\include\util\delay.h ****    Alternatively, by defining the macro \c __DELAY_ROUND_DOWN__, or
 148:c:\d\ifsc\vscodeleandro\ex\toolchains\avr-gcc\avr\include\util\delay.h ****    \c __DELAY_ROUND_CLOSEST__, before including this header file, the
 149:c:\d\ifsc\vscodeleandro\ex\toolchains\avr-gcc\avr\include\util\delay.h ****    algorithm can be made to round down, or round to closest integer,
 150:c:\d\ifsc\vscodeleandro\ex\toolchains\avr-gcc\avr\include\util\delay.h ****    respectively.
 151:c:\d\ifsc\vscodeleandro\ex\toolchains\avr-gcc\avr\include\util\delay.h **** 
 152:c:\d\ifsc\vscodeleandro\ex\toolchains\avr-gcc\avr\include\util\delay.h ****    \note
 153:c:\d\ifsc\vscodeleandro\ex\toolchains\avr-gcc\avr\include\util\delay.h **** 
 154:c:\d\ifsc\vscodeleandro\ex\toolchains\avr-gcc\avr\include\util\delay.h ****    The implementation of _delay_ms() based on
 155:c:\d\ifsc\vscodeleandro\ex\toolchains\avr-gcc\avr\include\util\delay.h ****    __builtin_avr_delay_cycles() is not backward compatible with older
 156:c:\d\ifsc\vscodeleandro\ex\toolchains\avr-gcc\avr\include\util\delay.h ****    implementations.  In order to get functionality backward compatible
 157:c:\d\ifsc\vscodeleandro\ex\toolchains\avr-gcc\avr\include\util\delay.h ****    with previous versions, the macro \c "__DELAY_BACKWARD_COMPATIBLE__"
 158:c:\d\ifsc\vscodeleandro\ex\toolchains\avr-gcc\avr\include\util\delay.h ****    must be defined before including this header file. Also, the
 159:c:\d\ifsc\vscodeleandro\ex\toolchains\avr-gcc\avr\include\util\delay.h ****    backward compatible algorithm will be chosen if the code is
 160:c:\d\ifsc\vscodeleandro\ex\toolchains\avr-gcc\avr\include\util\delay.h ****    compiled in a <em>freestanding environment</em> (GCC option
 161:c:\d\ifsc\vscodeleandro\ex\toolchains\avr-gcc\avr\include\util\delay.h ****    \c -ffreestanding), as the math functions required for rounding are
 162:c:\d\ifsc\vscodeleandro\ex\toolchains\avr-gcc\avr\include\util\delay.h ****    not available to the compiler then.
 163:c:\d\ifsc\vscodeleandro\ex\toolchains\avr-gcc\avr\include\util\delay.h **** 
 164:c:\d\ifsc\vscodeleandro\ex\toolchains\avr-gcc\avr\include\util\delay.h ****  */
 165:c:\d\ifsc\vscodeleandro\ex\toolchains\avr-gcc\avr\include\util\delay.h **** void
 166:c:\d\ifsc\vscodeleandro\ex\toolchains\avr-gcc\avr\include\util\delay.h **** _delay_ms(double __ms)
 613               		.loc 5 166 1 view .LVU119
 614               	.LBB83:
 167:c:\d\ifsc\vscodeleandro\ex\toolchains\avr-gcc\avr\include\util\delay.h **** {
 168:c:\d\ifsc\vscodeleandro\ex\toolchains\avr-gcc\avr\include\util\delay.h **** 	double __tmp ;
 615               		.loc 5 168 2 view .LVU120
 169:c:\d\ifsc\vscodeleandro\ex\toolchains\avr-gcc\avr\include\util\delay.h **** #if __HAS_DELAY_CYCLES && defined(__OPTIMIZE__) && \
 170:c:\d\ifsc\vscodeleandro\ex\toolchains\avr-gcc\avr\include\util\delay.h ****   !defined(__DELAY_BACKWARD_COMPATIBLE__) &&	   \
 171:c:\d\ifsc\vscodeleandro\ex\toolchains\avr-gcc\avr\include\util\delay.h ****   __STDC_HOSTED__
 172:c:\d\ifsc\vscodeleandro\ex\toolchains\avr-gcc\avr\include\util\delay.h **** 	uint32_t __ticks_dc;
 616               		.loc 5 172 2 view .LVU121
 173:c:\d\ifsc\vscodeleandro\ex\toolchains\avr-gcc\avr\include\util\delay.h **** 	extern void __builtin_avr_delay_cycles(unsigned long);
 617               		.loc 5 173 2 view .LVU122
 174:c:\d\ifsc\vscodeleandro\ex\toolchains\avr-gcc\avr\include\util\delay.h **** 	__tmp = ((F_CPU) / 1e3) * __ms;
 618               		.loc 5 174 2 view .LVU123
 175:c:\d\ifsc\vscodeleandro\ex\toolchains\avr-gcc\avr\include\util\delay.h **** 
 176:c:\d\ifsc\vscodeleandro\ex\toolchains\avr-gcc\avr\include\util\delay.h **** 	#if defined(__DELAY_ROUND_DOWN__)
 177:c:\d\ifsc\vscodeleandro\ex\toolchains\avr-gcc\avr\include\util\delay.h **** 		__ticks_dc = (uint32_t)fabs(__tmp);
 178:c:\d\ifsc\vscodeleandro\ex\toolchains\avr-gcc\avr\include\util\delay.h **** 
 179:c:\d\ifsc\vscodeleandro\ex\toolchains\avr-gcc\avr\include\util\delay.h **** 	#elif defined(__DELAY_ROUND_CLOSEST__)
 180:c:\d\ifsc\vscodeleandro\ex\toolchains\avr-gcc\avr\include\util\delay.h **** 		__ticks_dc = (uint32_t)(fabs(__tmp)+0.5);
 181:c:\d\ifsc\vscodeleandro\ex\toolchains\avr-gcc\avr\include\util\delay.h **** 
 182:c:\d\ifsc\vscodeleandro\ex\toolchains\avr-gcc\avr\include\util\delay.h **** 	#else
 183:c:\d\ifsc\vscodeleandro\ex\toolchains\avr-gcc\avr\include\util\delay.h **** 		//round up by default
 184:c:\d\ifsc\vscodeleandro\ex\toolchains\avr-gcc\avr\include\util\delay.h **** 		__ticks_dc = (uint32_t)(ceil(fabs(__tmp)));
 619               		.loc 5 184 3 view .LVU124
 185:c:\d\ifsc\vscodeleandro\ex\toolchains\avr-gcc\avr\include\util\delay.h **** 	#endif
 186:c:\d\ifsc\vscodeleandro\ex\toolchains\avr-gcc\avr\include\util\delay.h **** 
 187:c:\d\ifsc\vscodeleandro\ex\toolchains\avr-gcc\avr\include\util\delay.h **** 	__builtin_avr_delay_cycles(__ticks_dc);
 620               		.loc 5 187 2 view .LVU125
 621               		.loc 5 187 28 is_stmt 0 view .LVU126
 622 00f4 9FEF      		ldi r25,lo8(1599999)
GAS LISTING C:\Users\kenne\AppData\Local\Temp\cc2IZjCw.s 			page 42


 623 00f6 A9E6      		ldi r26,hi8(1599999)
 624 00f8 B8E1      		ldi r27,hlo8(1599999)
 625 00fa 9150      	1:	subi r25,1
 626 00fc A040      		sbci r26,0
 627 00fe B040      		sbci r27,0
 628 0100 01F4      		brne 1b
 629 0102 00C0      		rjmp .
 630 0104 0000      		nop
 631               	.LVL37:
 632               		.loc 5 187 28 view .LVU127
 633               	.LBE83:
 634               	.LBE82:
  99:main.cpp      ****     lcd.clearScreen();
 635               		.loc 2 99 5 is_stmt 1 view .LVU128
 636               		.loc 2 99 20 is_stmt 0 view .LVU129
 637 0106 CE01      		movw r24,r28
 638 0108 0196      		adiw r24,1
 639 010a 0E94 0000 		call _ZN7Hd4478011clearScreenEv
 640               	.LVL38:
 100:main.cpp      ****     setBit(DDRB, PB1);
 641               		.loc 2 100 5 is_stmt 1 view .LVU130
 642 010e 84B1      		in r24,0x4
 643 0110 8260      		ori r24,lo8(2)
 644 0112 84B9      		out 0x4,r24
 101:main.cpp      ****     setBit(DDRB, PB2);
 645               		.loc 2 101 5 view .LVU131
 646 0114 84B1      		in r24,0x4
 647 0116 8460      		ori r24,lo8(4)
 648 0118 84B9      		out 0x4,r24
 102:main.cpp      ****     Timer1 timer1;
 649               		.loc 2 102 5 view .LVU132
 650               		.loc 2 102 12 is_stmt 0 view .LVU133
 651 011a CE01      		movw r24,r28
 652 011c 8696      		adiw r24,38
 653 011e 0E94 0000 		call _ZN6Timer1C1Ev
 654               	.LVL39:
 103:main.cpp      ****     timer1.setOutputMode(Timer1::OutputMode::NON_INVERTING_MODE,
 655               		.loc 2 103 5 is_stmt 1 view .LVU134
 656               		.loc 2 103 25 is_stmt 0 view .LVU135
 657 0122 40E0      		ldi r20,0
 658 0124 62E0      		ldi r22,lo8(2)
 659 0126 CE01      		movw r24,r28
 660 0128 8696      		adiw r24,38
 661 012a 0E94 0000 		call _ZN6Timer113setOutputModeENS_10OutputModeES0_
 662               	.LVL40:
 104:main.cpp      ****             Timer1::OutputMode::NORMAL);   // Fast-PWM, non inverting mode, normal
 105:main.cpp      ****     timer1.init(Timer1::Mode::PWM_FAST_ICR, Timer1::ClockSource::PRESCALER_8);
 663               		.loc 2 105 5 is_stmt 1 view .LVU136
 664               		.loc 2 105 16 is_stmt 0 view .LVU137
 665 012e 42E0      		ldi r20,lo8(2)
 666 0130 6EE0      		ldi r22,lo8(14)
 667 0132 CE01      		movw r24,r28
 668 0134 8696      		adiw r24,38
 669 0136 0E94 0000 		call _ZN6Timer14initENS_4ModeENS_11ClockSourceE
 670               	.LVL41:
 106:main.cpp      ****     timer1.setInputCaptureValue(0xFFFF); //Define ICR, portanto perodo da onda.
 671               		.loc 2 106 5 is_stmt 1 view .LVU138
GAS LISTING C:\Users\kenne\AppData\Local\Temp\cc2IZjCw.s 			page 43


 672               	.LBB84:
 673               	.LBI84:
 506:funsape/peripheral/timer1.hpp **** }
 507:funsape/peripheral/timer1.hpp **** 
 508:funsape/peripheral/timer1.hpp **** //     ///////////////////////     COMPARE B     ////////////////////////     //
 509:funsape/peripheral/timer1.hpp **** 
 510:funsape/peripheral/timer1.hpp **** void inlined Timer1::activateCompareBInterrupt(void)
 511:funsape/peripheral/timer1.hpp **** {
 512:funsape/peripheral/timer1.hpp ****     setBit(TIMSK1, OCIE1B);
 513:funsape/peripheral/timer1.hpp ****     return;
 514:funsape/peripheral/timer1.hpp **** }
 515:funsape/peripheral/timer1.hpp **** 
 516:funsape/peripheral/timer1.hpp **** void inlined Timer1::clearCompareBInterruptRequest(void)
 517:funsape/peripheral/timer1.hpp **** {
 518:funsape/peripheral/timer1.hpp ****     setBit(TIFR1, OCF1B);
 519:funsape/peripheral/timer1.hpp ****     return;
 520:funsape/peripheral/timer1.hpp **** }
 521:funsape/peripheral/timer1.hpp **** 
 522:funsape/peripheral/timer1.hpp **** void inlined Timer1::deactivateCompareBInterrupt(void)
 523:funsape/peripheral/timer1.hpp **** {
 524:funsape/peripheral/timer1.hpp ****     clrBit(TIMSK1, OCIE1B);
 525:funsape/peripheral/timer1.hpp ****     return;
 526:funsape/peripheral/timer1.hpp **** }
 527:funsape/peripheral/timer1.hpp **** 
 528:funsape/peripheral/timer1.hpp **** void inlined Timer1::forceCompareB(void)
 529:funsape/peripheral/timer1.hpp **** {
 530:funsape/peripheral/timer1.hpp ****     setBit(TCCR1C, FOC1B);
 531:funsape/peripheral/timer1.hpp ****     return;
 532:funsape/peripheral/timer1.hpp **** }
 533:funsape/peripheral/timer1.hpp **** 
 534:funsape/peripheral/timer1.hpp **** uint16_t inlined Timer1::getCompareBValue(void)
 535:funsape/peripheral/timer1.hpp **** {
 536:funsape/peripheral/timer1.hpp ****     uint16_t aux16 = 0;
 537:funsape/peripheral/timer1.hpp **** 
 538:funsape/peripheral/timer1.hpp ****     ATOMIC_BLOCK(ATOMIC_RESTORESTATE) {
 539:funsape/peripheral/timer1.hpp ****         aux16 = OCR1B;
 540:funsape/peripheral/timer1.hpp ****     }
 541:funsape/peripheral/timer1.hpp ****     return aux16;
 542:funsape/peripheral/timer1.hpp **** }
 543:funsape/peripheral/timer1.hpp **** 
 544:funsape/peripheral/timer1.hpp **** void inlined Timer1::setCompareBValue(cuint16_t value_p)
 545:funsape/peripheral/timer1.hpp **** {
 546:funsape/peripheral/timer1.hpp ****     ATOMIC_BLOCK(ATOMIC_RESTORESTATE) {
 547:funsape/peripheral/timer1.hpp ****         OCR1B = value_p;
 548:funsape/peripheral/timer1.hpp ****     }
 549:funsape/peripheral/timer1.hpp ****     return;
 550:funsape/peripheral/timer1.hpp **** }
 551:funsape/peripheral/timer1.hpp **** 
 552:funsape/peripheral/timer1.hpp **** //     /////////////////////     INPUT CAPTURE     //////////////////////     //
 553:funsape/peripheral/timer1.hpp **** 
 554:funsape/peripheral/timer1.hpp **** inlined void Timer1::activateInputCaptureInterrupt(void)
 555:funsape/peripheral/timer1.hpp **** {
 556:funsape/peripheral/timer1.hpp ****     setBit(TIMSK1, ICIE1);
 557:funsape/peripheral/timer1.hpp ****     return;
 558:funsape/peripheral/timer1.hpp **** }
 559:funsape/peripheral/timer1.hpp **** 
 560:funsape/peripheral/timer1.hpp **** inlined void Timer1::clearInputCaptureInterruptRequest(void)
GAS LISTING C:\Users\kenne\AppData\Local\Temp\cc2IZjCw.s 			page 44


 561:funsape/peripheral/timer1.hpp **** {
 562:funsape/peripheral/timer1.hpp ****     setBit(TIFR1, ICF1);
 563:funsape/peripheral/timer1.hpp ****     return;
 564:funsape/peripheral/timer1.hpp **** }
 565:funsape/peripheral/timer1.hpp **** 
 566:funsape/peripheral/timer1.hpp **** inlined void Timer1::deactivateInputCaptureInterrupt(void)
 567:funsape/peripheral/timer1.hpp **** {
 568:funsape/peripheral/timer1.hpp ****     clrBit(TIMSK1, ICIE1);
 569:funsape/peripheral/timer1.hpp ****     return;
 570:funsape/peripheral/timer1.hpp **** }
 571:funsape/peripheral/timer1.hpp **** 
 572:funsape/peripheral/timer1.hpp **** inlined uint16_t Timer1::getInputCaptureValue(void)
 573:funsape/peripheral/timer1.hpp **** {
 574:funsape/peripheral/timer1.hpp ****     uint16_t aux16 = 0;
 575:funsape/peripheral/timer1.hpp **** 
 576:funsape/peripheral/timer1.hpp ****     ATOMIC_BLOCK(ATOMIC_RESTORESTATE) {
 577:funsape/peripheral/timer1.hpp ****         aux16 = ICR1;
 578:funsape/peripheral/timer1.hpp ****     }
 579:funsape/peripheral/timer1.hpp ****     return aux16;
 580:funsape/peripheral/timer1.hpp **** }
 581:funsape/peripheral/timer1.hpp **** 
 582:funsape/peripheral/timer1.hpp **** inlined void Timer1::setInputCaptureValue(cuint16_t value_p)
 674               		.loc 3 582 14 view .LVU139
 583:funsape/peripheral/timer1.hpp **** {
 584:funsape/peripheral/timer1.hpp ****     ATOMIC_BLOCK(ATOMIC_RESTORESTATE) {
 675               		.loc 3 584 5 view .LVU140
 676               	.LBB85:
 677 013a 8FB7      		in r24,__SREG__
 678               	.LVL42:
 679               	.LBB86:
 680               	.LBI86:
  48:c:\d\ifsc\vscodeleandro\ex\toolchains\avr-gcc\avr\include\util\atomic.h **** {
 681               		.loc 4 48 27 view .LVU141
 682               	.LBB87:
  50:c:\d\ifsc\vscodeleandro\ex\toolchains\avr-gcc\avr\include\util\atomic.h ****     return 1;
 683               		.loc 4 50 5 view .LVU142
 684               	/* #APP */
 685               	 ;  50 "c:\d\ifsc\vscodeleandro\ex\toolchains\avr-gcc\avr\include\util\atomic.h" 1
 686 013c F894      		cli
 687               	 ;  0 "" 2
  51:c:\d\ifsc\vscodeleandro\ex\toolchains\avr-gcc\avr\include\util\atomic.h **** }
 688               		.loc 4 51 5 view .LVU143
 689               	.LVL43:
  51:c:\d\ifsc\vscodeleandro\ex\toolchains\avr-gcc\avr\include\util\atomic.h **** }
 690               		.loc 4 51 5 is_stmt 0 view .LVU144
 691               	/* #NOAPP */
 692               	.LBE87:
 693               	.LBE86:
 694               		.loc 3 584 5 is_stmt 1 view .LVU145
 585:funsape/peripheral/timer1.hpp ****         ICR1 = value_p;
 695               		.loc 3 585 9 view .LVU146
 696               		.loc 3 585 14 is_stmt 0 view .LVU147
 697 013e 2FEF      		ldi r18,lo8(-1)
 698 0140 3FEF      		ldi r19,lo8(-1)
 699 0142 3093 8700 		sts 134+1,r19
 700 0146 2093 8600 		sts 134,r18
 584:funsape/peripheral/timer1.hpp ****         ICR1 = value_p;
GAS LISTING C:\Users\kenne\AppData\Local\Temp\cc2IZjCw.s 			page 45


 701               		.loc 3 584 5 is_stmt 1 view .LVU148
 702               	.LVL44:
 584:funsape/peripheral/timer1.hpp ****         ICR1 = value_p;
 703               		.loc 3 584 5 view .LVU149
 704               	.LBB88:
 705               	.LBI88:
  68:c:\d\ifsc\vscodeleandro\ex\toolchains\avr-gcc\avr\include\util\atomic.h **** {
 706               		.loc 4 68 24 view .LVU150
 707               	.LBB89:
  70:c:\d\ifsc\vscodeleandro\ex\toolchains\avr-gcc\avr\include\util\atomic.h ****     __asm__ volatile ("" ::: "memory");
 708               		.loc 4 70 5 view .LVU151
  70:c:\d\ifsc\vscodeleandro\ex\toolchains\avr-gcc\avr\include\util\atomic.h ****     __asm__ volatile ("" ::: "memory");
 709               		.loc 4 70 10 is_stmt 0 view .LVU152
 710 014a 8FBF      		out __SREG__,r24
 711               		.loc 4 71 5 is_stmt 1 view .LVU153
 712               	.LVL45:
 713               		.loc 4 71 5 is_stmt 0 view .LVU154
 714               	.LBE89:
 715               	.LBE88:
 716               	.LBE85:
 586:funsape/peripheral/timer1.hpp ****     }
 587:funsape/peripheral/timer1.hpp ****     return;
 717               		.loc 3 587 5 is_stmt 1 view .LVU155
 718               		.loc 3 587 5 is_stmt 0 view .LVU156
 719               	.LBE84:
 107:main.cpp      ****     timer1.setCompareAValue(42000);           // Define a largura do pulso, Largura do Pulso(ms) = 
 720               		.loc 2 107 5 is_stmt 1 view .LVU157
 721               	.LBB90:
 722               	.LBI90:
 500:funsape/peripheral/timer1.hpp **** {
 723               		.loc 3 500 14 view .LVU158
 502:funsape/peripheral/timer1.hpp ****         OCR1A = value_p;
 724               		.loc 3 502 5 view .LVU159
 725               	.LBB91:
 726 014c 8FB7      		in r24,__SREG__
 727               	.LVL46:
 728               	.LBB92:
 729               	.LBI92:
  48:c:\d\ifsc\vscodeleandro\ex\toolchains\avr-gcc\avr\include\util\atomic.h **** {
 730               		.loc 4 48 27 view .LVU160
 731               	.LBB93:
  50:c:\d\ifsc\vscodeleandro\ex\toolchains\avr-gcc\avr\include\util\atomic.h ****     return 1;
 732               		.loc 4 50 5 view .LVU161
 733               	/* #APP */
 734               	 ;  50 "c:\d\ifsc\vscodeleandro\ex\toolchains\avr-gcc\avr\include\util\atomic.h" 1
 735 014e F894      		cli
 736               	 ;  0 "" 2
  51:c:\d\ifsc\vscodeleandro\ex\toolchains\avr-gcc\avr\include\util\atomic.h **** }
 737               		.loc 4 51 5 view .LVU162
 738               	.LVL47:
  51:c:\d\ifsc\vscodeleandro\ex\toolchains\avr-gcc\avr\include\util\atomic.h **** }
 739               		.loc 4 51 5 is_stmt 0 view .LVU163
 740               	/* #NOAPP */
 741               	.LBE93:
 742               	.LBE92:
 502:funsape/peripheral/timer1.hpp ****         OCR1A = value_p;
 743               		.loc 3 502 5 is_stmt 1 view .LVU164
GAS LISTING C:\Users\kenne\AppData\Local\Temp\cc2IZjCw.s 			page 46


 503:funsape/peripheral/timer1.hpp ****     }
 744               		.loc 3 503 9 view .LVU165
 503:funsape/peripheral/timer1.hpp ****     }
 745               		.loc 3 503 15 is_stmt 0 view .LVU166
 746 0150 E8E8      		ldi r30,lo8(-120)
 747 0152 F0E0      		ldi r31,0
 748 0154 20E1      		ldi r18,lo8(16)
 749 0156 34EA      		ldi r19,lo8(-92)
 750 0158 3183      		std Z+1,r19
 751 015a 2083      		st Z,r18
 502:funsape/peripheral/timer1.hpp ****         OCR1A = value_p;
 752               		.loc 3 502 5 is_stmt 1 view .LVU167
 753               	.LVL48:
 502:funsape/peripheral/timer1.hpp ****         OCR1A = value_p;
 754               		.loc 3 502 5 view .LVU168
 755               	.LBB94:
 756               	.LBI94:
  68:c:\d\ifsc\vscodeleandro\ex\toolchains\avr-gcc\avr\include\util\atomic.h **** {
 757               		.loc 4 68 24 view .LVU169
 758               	.LBB95:
  70:c:\d\ifsc\vscodeleandro\ex\toolchains\avr-gcc\avr\include\util\atomic.h ****     __asm__ volatile ("" ::: "memory");
 759               		.loc 4 70 5 view .LVU170
  70:c:\d\ifsc\vscodeleandro\ex\toolchains\avr-gcc\avr\include\util\atomic.h ****     __asm__ volatile ("" ::: "memory");
 760               		.loc 4 70 10 is_stmt 0 view .LVU171
 761 015c 8FBF      		out __SREG__,r24
 762               		.loc 4 71 5 is_stmt 1 view .LVU172
 763               	.LVL49:
 764               		.loc 4 71 5 is_stmt 0 view .LVU173
 765               	.LBE95:
 766               	.LBE94:
 767               	.LBE91:
 505:funsape/peripheral/timer1.hpp **** }
 768               		.loc 3 505 5 is_stmt 1 view .LVU174
 505:funsape/peripheral/timer1.hpp **** }
 769               		.loc 3 505 5 is_stmt 0 view .LVU175
 770               	.LBE90:
 108:main.cpp      ****     timer1.setCompareAValue(20000);           // Define a largura do pulso, Largura do Pulso(ms) = 
 771               		.loc 2 108 5 is_stmt 1 view .LVU176
 772               	.LBB96:
 773               	.LBI96:
 500:funsape/peripheral/timer1.hpp **** {
 774               		.loc 3 500 14 view .LVU177
 502:funsape/peripheral/timer1.hpp ****         OCR1A = value_p;
 775               		.loc 3 502 5 view .LVU178
 776               	.LBB97:
 777 015e 8FB7      		in r24,__SREG__
 778               	.LVL50:
 779               	.LBB98:
 780               	.LBI98:
  48:c:\d\ifsc\vscodeleandro\ex\toolchains\avr-gcc\avr\include\util\atomic.h **** {
 781               		.loc 4 48 27 view .LVU179
 782               	.LBB99:
  50:c:\d\ifsc\vscodeleandro\ex\toolchains\avr-gcc\avr\include\util\atomic.h ****     return 1;
 783               		.loc 4 50 5 view .LVU180
 784               	/* #APP */
 785               	 ;  50 "c:\d\ifsc\vscodeleandro\ex\toolchains\avr-gcc\avr\include\util\atomic.h" 1
 786 0160 F894      		cli
GAS LISTING C:\Users\kenne\AppData\Local\Temp\cc2IZjCw.s 			page 47


 787               	 ;  0 "" 2
  51:c:\d\ifsc\vscodeleandro\ex\toolchains\avr-gcc\avr\include\util\atomic.h **** }
 788               		.loc 4 51 5 view .LVU181
 789               	.LVL51:
  51:c:\d\ifsc\vscodeleandro\ex\toolchains\avr-gcc\avr\include\util\atomic.h **** }
 790               		.loc 4 51 5 is_stmt 0 view .LVU182
 791               	/* #NOAPP */
 792               	.LBE99:
 793               	.LBE98:
 502:funsape/peripheral/timer1.hpp ****         OCR1A = value_p;
 794               		.loc 3 502 5 is_stmt 1 view .LVU183
 503:funsape/peripheral/timer1.hpp ****     }
 795               		.loc 3 503 9 view .LVU184
 503:funsape/peripheral/timer1.hpp ****     }
 796               		.loc 3 503 15 is_stmt 0 view .LVU185
 797 0162 20E2      		ldi r18,lo8(32)
 798 0164 3EE4      		ldi r19,lo8(78)
 799 0166 3183      		std Z+1,r19
 800 0168 2083      		st Z,r18
 502:funsape/peripheral/timer1.hpp ****         OCR1A = value_p;
 801               		.loc 3 502 5 is_stmt 1 view .LVU186
 802               	.LVL52:
 502:funsape/peripheral/timer1.hpp ****         OCR1A = value_p;
 803               		.loc 3 502 5 view .LVU187
 804               	.LBB100:
 805               	.LBI100:
  68:c:\d\ifsc\vscodeleandro\ex\toolchains\avr-gcc\avr\include\util\atomic.h **** {
 806               		.loc 4 68 24 view .LVU188
 807               	.LBB101:
  70:c:\d\ifsc\vscodeleandro\ex\toolchains\avr-gcc\avr\include\util\atomic.h ****     __asm__ volatile ("" ::: "memory");
 808               		.loc 4 70 5 view .LVU189
  70:c:\d\ifsc\vscodeleandro\ex\toolchains\avr-gcc\avr\include\util\atomic.h ****     __asm__ volatile ("" ::: "memory");
 809               		.loc 4 70 10 is_stmt 0 view .LVU190
 810 016a 8FBF      		out __SREG__,r24
 811               		.loc 4 71 5 is_stmt 1 view .LVU191
 812               	.LVL53:
 813               		.loc 4 71 5 is_stmt 0 view .LVU192
 814               	.LBE101:
 815               	.LBE100:
 816               	.LBE97:
 505:funsape/peripheral/timer1.hpp **** }
 817               		.loc 3 505 5 is_stmt 1 view .LVU193
 505:funsape/peripheral/timer1.hpp **** }
 818               		.loc 3 505 5 is_stmt 0 view .LVU194
 819               	.LBE96:
 109:main.cpp      ****     //posio do servo f(x)=({x-1999}/2000-0.5)*270 p/ range de -135 a +135  ou ainda pos = ({x-b
 110:main.cpp      ****     // f(x)= (x-2999)*0.135
 111:main.cpp      ****     // f(x)=  (10x-29999)/74
 112:main.cpp      ****     //para 270 graus de 1ms a 2ms cada 1 grau ~= 7,4 contas
 113:main.cpp      ****     //para um angulo ang, o valor de OCRA1 deve ser ({ang+135}/135)/2*2000+2000
 114:main.cpp      **** 
 115:main.cpp      ****     uint8_t tecla;
 820               		.loc 2 115 5 is_stmt 1 view .LVU195
 116:main.cpp      ****     timer1.setCompareAValue(aux);
 821               		.loc 2 116 5 view .LVU196
 822               		.loc 2 116 28 is_stmt 0 view .LVU197
 823 016c 2091 0000 		lds r18,aux
GAS LISTING C:\Users\kenne\AppData\Local\Temp\cc2IZjCw.s 			page 48


 824 0170 3091 0000 		lds r19,aux+1
 825               	.LVL54:
 826               	.LBB102:
 827               	.LBI102:
 500:funsape/peripheral/timer1.hpp **** {
 828               		.loc 3 500 14 is_stmt 1 view .LVU198
 502:funsape/peripheral/timer1.hpp ****         OCR1A = value_p;
 829               		.loc 3 502 5 view .LVU199
 830               	.LBB103:
 831 0174 8FB7      		in r24,__SREG__
 832               	.LVL55:
 833               	.LBB104:
 834               	.LBI104:
  48:c:\d\ifsc\vscodeleandro\ex\toolchains\avr-gcc\avr\include\util\atomic.h **** {
 835               		.loc 4 48 27 view .LVU200
 836               	.LBB105:
  50:c:\d\ifsc\vscodeleandro\ex\toolchains\avr-gcc\avr\include\util\atomic.h ****     return 1;
 837               		.loc 4 50 5 view .LVU201
 838               	/* #APP */
 839               	 ;  50 "c:\d\ifsc\vscodeleandro\ex\toolchains\avr-gcc\avr\include\util\atomic.h" 1
 840 0176 F894      		cli
 841               	 ;  0 "" 2
  51:c:\d\ifsc\vscodeleandro\ex\toolchains\avr-gcc\avr\include\util\atomic.h **** }
 842               		.loc 4 51 5 view .LVU202
 843               	.LVL56:
  51:c:\d\ifsc\vscodeleandro\ex\toolchains\avr-gcc\avr\include\util\atomic.h **** }
 844               		.loc 4 51 5 is_stmt 0 view .LVU203
 845               	/* #NOAPP */
 846               	.LBE105:
 847               	.LBE104:
 502:funsape/peripheral/timer1.hpp ****         OCR1A = value_p;
 848               		.loc 3 502 5 is_stmt 1 view .LVU204
 503:funsape/peripheral/timer1.hpp ****     }
 849               		.loc 3 503 9 view .LVU205
 503:funsape/peripheral/timer1.hpp ****     }
 850               		.loc 3 503 15 is_stmt 0 view .LVU206
 851 0178 3183      		std Z+1,r19
 852 017a 2083      		st Z,r18
 502:funsape/peripheral/timer1.hpp ****         OCR1A = value_p;
 853               		.loc 3 502 5 is_stmt 1 view .LVU207
 854               	.LVL57:
 502:funsape/peripheral/timer1.hpp ****         OCR1A = value_p;
 855               		.loc 3 502 5 view .LVU208
 856               	.LBB106:
 857               	.LBI106:
  68:c:\d\ifsc\vscodeleandro\ex\toolchains\avr-gcc\avr\include\util\atomic.h **** {
 858               		.loc 4 68 24 view .LVU209
 859               	.LBB107:
  70:c:\d\ifsc\vscodeleandro\ex\toolchains\avr-gcc\avr\include\util\atomic.h ****     __asm__ volatile ("" ::: "memory");
 860               		.loc 4 70 5 view .LVU210
  70:c:\d\ifsc\vscodeleandro\ex\toolchains\avr-gcc\avr\include\util\atomic.h ****     __asm__ volatile ("" ::: "memory");
 861               		.loc 4 70 10 is_stmt 0 view .LVU211
 862 017c 8FBF      		out __SREG__,r24
 863               		.loc 4 71 5 is_stmt 1 view .LVU212
 864               	.LVL58:
 865               		.loc 4 71 5 is_stmt 0 view .LVU213
 866               	.LBE107:
GAS LISTING C:\Users\kenne\AppData\Local\Temp\cc2IZjCw.s 			page 49


 867               	.LBE106:
 868               	.LBE103:
 505:funsape/peripheral/timer1.hpp **** }
 869               		.loc 3 505 5 is_stmt 1 view .LVU214
 505:funsape/peripheral/timer1.hpp **** }
 870               		.loc 3 505 5 is_stmt 0 view .LVU215
 871               	.LBE102:
 117:main.cpp      **** 
 118:main.cpp      ****     uint8_t estado = 0;
 872               		.loc 2 118 5 is_stmt 1 view .LVU216
 119:main.cpp      ****     uint8_t subestado = 1;
 873               		.loc 2 119 5 view .LVU217
 120:main.cpp      ****     int16_t valor = 0;
 874               		.loc 2 120 5 view .LVU218
 875               		.loc 2 120 13 is_stmt 0 view .LVU219
 876 017e E12C      		mov r14,__zero_reg__
 877 0180 F12C      		mov r15,__zero_reg__
 118:main.cpp      ****     uint8_t subestado = 1;
 878               		.loc 2 118 13 view .LVU220
 879 0182 10E0      		ldi r17,0
 880 0184 00C0      		rjmp .L20
 881               	.LVL59:
 882               	.L18:
 121:main.cpp      ****     while(1) {
 122:main.cpp      ****         switch(estado) {
 123:main.cpp      ****         case 0:
 883               		.loc 2 123 9 is_stmt 1 view .LVU221
 124:main.cpp      ****             //entrando no modo ocioso
 125:main.cpp      ****             lcd.displayStateSet(Hd44780::DisplayState::CURSOR_OFF);
 884               		.loc 2 125 13 view .LVU222
 885               		.loc 2 125 32 is_stmt 0 view .LVU223
 886 0186 61E0      		ldi r22,lo8(1)
 887 0188 70E0      		ldi r23,0
 888 018a CE01      		movw r24,r28
 889 018c 0196      		adiw r24,1
 890 018e 0E94 0000 		call _ZN7Hd4478015displayStateSetENS_12DisplayStateE
 891               	.LVL60:
 126:main.cpp      ****             angulo = getangle(aux);
 892               		.loc 2 126 13 is_stmt 1 view .LVU224
 893               		.loc 2 126 30 is_stmt 0 view .LVU225
 894 0192 8091 0000 		lds r24,aux
 895 0196 9091 0000 		lds r25,aux+1
 896 019a A091 0000 		lds r26,aux+2
 897 019e B091 0000 		lds r27,aux+3
 898 01a2 8CA7      		std Y+44,r24
 899 01a4 9DA7      		std Y+45,r25
 900 01a6 AEA7      		std Y+46,r26
 901 01a8 BFA7      		std Y+47,r27
 902 01aa BC01      		movw r22,r24
 903 01ac CD01      		movw r24,r26
 904 01ae 0E94 0000 		call _Z8getanglem
 905               	.LVL61:
 906               		.loc 2 126 20 view .LVU226
 907 01b2 9093 0000 		sts angulo+1,r25
 908 01b6 8093 0000 		sts angulo,r24
 127:main.cpp      ****             lcd.clearScreen();
 909               		.loc 2 127 13 is_stmt 1 view .LVU227
GAS LISTING C:\Users\kenne\AppData\Local\Temp\cc2IZjCw.s 			page 50


 910               		.loc 2 127 28 is_stmt 0 view .LVU228
 911 01ba CE01      		movw r24,r28
 912 01bc 0196      		adiw r24,1
 913 01be 0E94 0000 		call _ZN7Hd4478011clearScreenEv
 914               	.LVL62:
 128:main.cpp      ****             printf("Angulo = %d\n", angulo);
 915               		.loc 2 128 13 is_stmt 1 view .LVU229
 916               		.loc 2 128 19 is_stmt 0 view .LVU230
 917 01c2 8091 0000 		lds r24,angulo+1
 918 01c6 8F93      		push r24
 919 01c8 8091 0000 		lds r24,angulo
 920 01cc 8F93      		push r24
 921 01ce 80E0      		ldi r24,lo8(.LC1)
 922 01d0 90E0      		ldi r25,hi8(.LC1)
 923 01d2 9F93      		push r25
 924 01d4 8F93      		push r24
 925 01d6 0E94 0000 		call printf
 926               	.LVL63:
 129:main.cpp      ****             delayMs(50);
 927               		.loc 2 129 13 is_stmt 1 view .LVU231
 928               	.LBB108:
 929               	.LBI108:
 166:c:\d\ifsc\vscodeleandro\ex\toolchains\avr-gcc\avr\include\util\delay.h **** {
 930               		.loc 5 166 1 view .LVU232
 931               	.LBB109:
 168:c:\d\ifsc\vscodeleandro\ex\toolchains\avr-gcc\avr\include\util\delay.h **** #if __HAS_DELAY_CYCLES && defined(__OPTIMIZE__) && \
 932               		.loc 5 168 2 view .LVU233
 172:c:\d\ifsc\vscodeleandro\ex\toolchains\avr-gcc\avr\include\util\delay.h **** 	extern void __builtin_avr_delay_cycles(unsigned long);
 933               		.loc 5 172 2 view .LVU234
 173:c:\d\ifsc\vscodeleandro\ex\toolchains\avr-gcc\avr\include\util\delay.h **** 	__tmp = ((F_CPU) / 1e3) * __ms;
 934               		.loc 5 173 2 view .LVU235
 174:c:\d\ifsc\vscodeleandro\ex\toolchains\avr-gcc\avr\include\util\delay.h **** 
 935               		.loc 5 174 2 view .LVU236
 184:c:\d\ifsc\vscodeleandro\ex\toolchains\avr-gcc\avr\include\util\delay.h **** 	#endif
 936               		.loc 5 184 3 view .LVU237
 937               		.loc 5 187 2 view .LVU238
 938               		.loc 5 187 28 is_stmt 0 view .LVU239
 939 01da 9FEF      		ldi r25,lo8(159999)
 940 01dc A0E7      		ldi r26,hi8(159999)
 941 01de B2E0      		ldi r27,hlo8(159999)
 942 01e0 9150      	1:	subi r25,1
 943 01e2 A040      		sbci r26,0
 944 01e4 B040      		sbci r27,0
 945 01e6 01F4      		brne 1b
 946 01e8 00C0      		rjmp .
 947 01ea 0000      		nop
 188:c:\d\ifsc\vscodeleandro\ex\toolchains\avr-gcc\avr\include\util\delay.h **** 
 189:c:\d\ifsc\vscodeleandro\ex\toolchains\avr-gcc\avr\include\util\delay.h **** #else
 190:c:\d\ifsc\vscodeleandro\ex\toolchains\avr-gcc\avr\include\util\delay.h **** 	uint16_t __ticks;
 191:c:\d\ifsc\vscodeleandro\ex\toolchains\avr-gcc\avr\include\util\delay.h **** 	__tmp = ((F_CPU) / 4e3) * __ms;
 192:c:\d\ifsc\vscodeleandro\ex\toolchains\avr-gcc\avr\include\util\delay.h **** 	if (__tmp < 1.0)
 193:c:\d\ifsc\vscodeleandro\ex\toolchains\avr-gcc\avr\include\util\delay.h **** 		__ticks = 1;
 194:c:\d\ifsc\vscodeleandro\ex\toolchains\avr-gcc\avr\include\util\delay.h **** 	else if (__tmp > 65535)
 195:c:\d\ifsc\vscodeleandro\ex\toolchains\avr-gcc\avr\include\util\delay.h **** 	{
 196:c:\d\ifsc\vscodeleandro\ex\toolchains\avr-gcc\avr\include\util\delay.h **** 		//	__ticks = requested delay in 1/10 ms
 197:c:\d\ifsc\vscodeleandro\ex\toolchains\avr-gcc\avr\include\util\delay.h **** 		__ticks = (uint16_t) (__ms * 10.0);
 198:c:\d\ifsc\vscodeleandro\ex\toolchains\avr-gcc\avr\include\util\delay.h **** 		while(__ticks)
GAS LISTING C:\Users\kenne\AppData\Local\Temp\cc2IZjCw.s 			page 51


 199:c:\d\ifsc\vscodeleandro\ex\toolchains\avr-gcc\avr\include\util\delay.h **** 		{
 200:c:\d\ifsc\vscodeleandro\ex\toolchains\avr-gcc\avr\include\util\delay.h **** 			// wait 1/10 ms
 201:c:\d\ifsc\vscodeleandro\ex\toolchains\avr-gcc\avr\include\util\delay.h **** 			_delay_loop_2(((F_CPU) / 4e3) / 10);
 202:c:\d\ifsc\vscodeleandro\ex\toolchains\avr-gcc\avr\include\util\delay.h **** 			__ticks --;
 203:c:\d\ifsc\vscodeleandro\ex\toolchains\avr-gcc\avr\include\util\delay.h **** 		}
 204:c:\d\ifsc\vscodeleandro\ex\toolchains\avr-gcc\avr\include\util\delay.h **** 		return;
 205:c:\d\ifsc\vscodeleandro\ex\toolchains\avr-gcc\avr\include\util\delay.h **** 	}
 206:c:\d\ifsc\vscodeleandro\ex\toolchains\avr-gcc\avr\include\util\delay.h **** 	else
 207:c:\d\ifsc\vscodeleandro\ex\toolchains\avr-gcc\avr\include\util\delay.h **** 		__ticks = (uint16_t)__tmp;
 208:c:\d\ifsc\vscodeleandro\ex\toolchains\avr-gcc\avr\include\util\delay.h **** 	_delay_loop_2(__ticks);
 209:c:\d\ifsc\vscodeleandro\ex\toolchains\avr-gcc\avr\include\util\delay.h **** #endif
 210:c:\d\ifsc\vscodeleandro\ex\toolchains\avr-gcc\avr\include\util\delay.h **** }
 948               		.loc 5 210 1 view .LVU240
 949 01ec 0F90      		pop __tmp_reg__
 950 01ee 0F90      		pop __tmp_reg__
 951 01f0 0F90      		pop __tmp_reg__
 952 01f2 0F90      		pop __tmp_reg__
 953 01f4 00C0      		rjmp .L21
 954               	.LVL64:
 955               	.L23:
 956               		.loc 5 210 1 view .LVU241
 957               	.LBE109:
 958               	.LBE108:
 959 01f6 8634      		cpi r24,lo8(70)
 960 01f8 01F4      		brne .L21
 130:main.cpp      ****             while(estado == 0) {
 131:main.cpp      ****                 angulo = getangle(aux);
 132:main.cpp      ****                 keypad.readKeyPressed(&tecla);
 133:main.cpp      ****                 switch(tecla) {
 134:main.cpp      ****                 case 0xFF:
 135:main.cpp      ****                     break;
 136:main.cpp      **** 
 137:main.cpp      ****                 case '0':
 138:main.cpp      ****                     aux = 2999;
 139:main.cpp      ****                     OCR1A = aux;
 140:main.cpp      ****                     angulo = getangle(aux);
 141:main.cpp      ****                     lcd.clearScreen();
 142:main.cpp      ****                     printf("Angulo = %d\n", angulo);
 143:main.cpp      ****                     delayMs(50);
 144:main.cpp      ****                     break;
 145:main.cpp      **** 
 146:main.cpp      ****                 case 'C':
 147:main.cpp      ****                     aux = aux - 37;
 148:main.cpp      ****                     if(aux < 1999) {
 149:main.cpp      ****                         aux = 1999;
 150:main.cpp      ****                     }
 151:main.cpp      ****                     OCR1A = aux;
 152:main.cpp      ****                     angulo = getangle(aux);
 153:main.cpp      ****                     lcd.clearScreen();
 154:main.cpp      ****                     printf("Angulo = %d\n", angulo);
 155:main.cpp      ****                     delayMs(50);
 156:main.cpp      ****                     break;
 157:main.cpp      **** 
 158:main.cpp      ****                 case 'D':
 159:main.cpp      ****                     aux = aux + 37;
 160:main.cpp      ****                     if(aux > 3999) {
 161:main.cpp      ****                         aux = 3999;
GAS LISTING C:\Users\kenne\AppData\Local\Temp\cc2IZjCw.s 			page 52


 162:main.cpp      ****                     }
 163:main.cpp      ****                     OCR1A = aux;
 164:main.cpp      ****                     angulo = getangle(aux);
 165:main.cpp      ****                     lcd.clearScreen();
 166:main.cpp      ****                     printf("Angulo = %d\n", angulo);
 167:main.cpp      ****                     delayMs(50);
 168:main.cpp      ****                     break;
 169:main.cpp      **** 
 170:main.cpp      ****                 case 'F':
 171:main.cpp      ****                     estado = 1;
 172:main.cpp      ****                     subestado = 1;
 173:main.cpp      ****                     valor = 0;
 961               		.loc 2 173 27 view .LVU242
 962 01fa E12C      		mov r14,__zero_reg__
 963 01fc F12C      		mov r15,__zero_reg__
 964               	.LVL65:
 172:main.cpp      ****                     valor = 0;
 965               		.loc 2 172 31 view .LVU243
 966 01fe 01E0      		ldi r16,lo8(1)
 967               	.LVL66:
 171:main.cpp      ****                     subestado = 1;
 968               		.loc 2 171 28 view .LVU244
 969 0200 11E0      		ldi r17,lo8(1)
 970               	.LVL67:
 971               	.L21:
 130:main.cpp      ****             while(estado == 0) {
 972               		.loc 2 130 26 is_stmt 1 view .LVU245
 973 0202 1111      		cpse r17,__zero_reg__
 974 0204 00C0      		rjmp .L19
 131:main.cpp      ****                 keypad.readKeyPressed(&tecla);
 975               		.loc 2 131 17 view .LVU246
 131:main.cpp      ****                 keypad.readKeyPressed(&tecla);
 976               		.loc 2 131 34 is_stmt 0 view .LVU247
 977 0206 8091 0000 		lds r24,aux
 978 020a 9091 0000 		lds r25,aux+1
 979 020e A091 0000 		lds r26,aux+2
 980 0212 B091 0000 		lds r27,aux+3
 981 0216 8CA7      		std Y+44,r24
 982 0218 9DA7      		std Y+45,r25
 983 021a AEA7      		std Y+46,r26
 984 021c BFA7      		std Y+47,r27
 985 021e BC01      		movw r22,r24
 986 0220 CD01      		movw r24,r26
 987 0222 0E94 0000 		call _Z8getanglem
 988               	.LVL68:
 131:main.cpp      ****                 keypad.readKeyPressed(&tecla);
 989               		.loc 2 131 24 view .LVU248
 990 0226 9093 0000 		sts angulo+1,r25
 991 022a 8093 0000 		sts angulo,r24
 132:main.cpp      ****                 switch(tecla) {
 992               		.loc 2 132 17 is_stmt 1 view .LVU249
 132:main.cpp      ****                 switch(tecla) {
 993               		.loc 2 132 38 is_stmt 0 view .LVU250
 994 022e BE01      		movw r22,r28
 995 0230 655D      		subi r22,-43
 996 0232 7F4F      		sbci r23,-1
 997 0234 CE01      		movw r24,r28
GAS LISTING C:\Users\kenne\AppData\Local\Temp\cc2IZjCw.s 			page 53


 998 0236 4396      		adiw r24,19
 999 0238 0E94 0000 		call _ZN6Keypad14readKeyPressedEPh
 1000               	.LVL69:
 133:main.cpp      ****                 case 0xFF:
 1001               		.loc 2 133 17 is_stmt 1 view .LVU251
 133:main.cpp      ****                 case 0xFF:
 1002               		.loc 2 133 24 is_stmt 0 view .LVU252
 1003 023c 8BA5      		ldd r24,Y+43
 1004 023e 8434      		cpi r24,lo8(68)
 1005 0240 01F4      		brne .+2
 1006 0242 00C0      		rjmp .L22
 1007 0244 00F4      		brsh .L23
 1008 0246 8033      		cpi r24,lo8(48)
 1009 0248 01F4      		brne .+2
 1010 024a 00C0      		rjmp .L24
 1011 024c 8334      		cpi r24,lo8(67)
 1012 024e 01F4      		brne .L21
 146:main.cpp      ****                     aux = aux - 37;
 1013               		.loc 2 146 17 is_stmt 1 view .LVU253
 147:main.cpp      ****                     if(aux < 1999) {
 1014               		.loc 2 147 21 view .LVU254
 147:main.cpp      ****                     if(aux < 1999) {
 1015               		.loc 2 147 31 is_stmt 0 view .LVU255
 1016 0250 8091 0000 		lds r24,aux
 1017 0254 9091 0000 		lds r25,aux+1
 1018 0258 A091 0000 		lds r26,aux+2
 1019 025c B091 0000 		lds r27,aux+3
 1020 0260 8597      		sbiw r24,37
 1021 0262 A109      		sbc r26,__zero_reg__
 1022 0264 B109      		sbc r27,__zero_reg__
 147:main.cpp      ****                     if(aux < 1999) {
 1023               		.loc 2 147 25 view .LVU256
 1024 0266 8093 0000 		sts aux,r24
 1025 026a 9093 0000 		sts aux+1,r25
 1026 026e A093 0000 		sts aux+2,r26
 1027 0272 B093 0000 		sts aux+3,r27
 148:main.cpp      ****                         aux = 1999;
 1028               		.loc 2 148 21 is_stmt 1 view .LVU257
 1029 0276 8F3C      		cpi r24,-49
 1030 0278 9740      		sbci r25,7
 1031 027a A105      		cpc r26,__zero_reg__
 1032 027c B105      		cpc r27,__zero_reg__
 1033 027e 00F4      		brsh .L27
 149:main.cpp      ****                     }
 1034               		.loc 2 149 25 view .LVU258
 149:main.cpp      ****                     }
 1035               		.loc 2 149 29 is_stmt 0 view .LVU259
 1036 0280 8FEC      		ldi r24,lo8(-49)
 1037 0282 97E0      		ldi r25,lo8(7)
 1038 0284 A0E0      		ldi r26,0
 1039 0286 B0E0      		ldi r27,0
 1040 0288 8093 0000 		sts aux,r24
 1041 028c 9093 0000 		sts aux+1,r25
 1042 0290 A093 0000 		sts aux+2,r26
 1043 0294 B093 0000 		sts aux+3,r27
 1044               	.L27:
 151:main.cpp      ****                     angulo = getangle(aux);
GAS LISTING C:\Users\kenne\AppData\Local\Temp\cc2IZjCw.s 			page 54


 1045               		.loc 2 151 21 is_stmt 1 view .LVU260
 151:main.cpp      ****                     angulo = getangle(aux);
 1046               		.loc 2 151 27 is_stmt 0 view .LVU261
 1047 0298 8091 0000 		lds r24,aux
 1048 029c 9091 0000 		lds r25,aux+1
 1049 02a0 9093 8900 		sts 136+1,r25
 1050 02a4 8093 8800 		sts 136,r24
 152:main.cpp      ****                     lcd.clearScreen();
 1051               		.loc 2 152 21 is_stmt 1 view .LVU262
 152:main.cpp      ****                     lcd.clearScreen();
 1052               		.loc 2 152 38 is_stmt 0 view .LVU263
 1053 02a8 8091 0000 		lds r24,aux
 1054 02ac 9091 0000 		lds r25,aux+1
 1055 02b0 A091 0000 		lds r26,aux+2
 1056 02b4 B091 0000 		lds r27,aux+3
 1057 02b8 8CA7      		std Y+44,r24
 1058 02ba 9DA7      		std Y+45,r25
 1059 02bc AEA7      		std Y+46,r26
 1060 02be BFA7      		std Y+47,r27
 1061 02c0 BC01      		movw r22,r24
 1062 02c2 CD01      		movw r24,r26
 1063 02c4 0E94 0000 		call _Z8getanglem
 1064               	.LVL70:
 152:main.cpp      ****                     lcd.clearScreen();
 1065               		.loc 2 152 28 view .LVU264
 1066 02c8 9093 0000 		sts angulo+1,r25
 1067 02cc 8093 0000 		sts angulo,r24
 153:main.cpp      ****                     printf("Angulo = %d\n", angulo);
 1068               		.loc 2 153 21 is_stmt 1 view .LVU265
 153:main.cpp      ****                     printf("Angulo = %d\n", angulo);
 1069               		.loc 2 153 36 is_stmt 0 view .LVU266
 1070 02d0 CE01      		movw r24,r28
 1071 02d2 0196      		adiw r24,1
 1072 02d4 0E94 0000 		call _ZN7Hd4478011clearScreenEv
 1073               	.LVL71:
 154:main.cpp      ****                     delayMs(50);
 1074               		.loc 2 154 21 is_stmt 1 view .LVU267
 154:main.cpp      ****                     delayMs(50);
 1075               		.loc 2 154 27 is_stmt 0 view .LVU268
 1076 02d8 8091 0000 		lds r24,angulo+1
 1077 02dc 8F93      		push r24
 1078 02de 8091 0000 		lds r24,angulo
 1079 02e2 8F93      		push r24
 1080 02e4 80E0      		ldi r24,lo8(.LC1)
 1081 02e6 90E0      		ldi r25,hi8(.LC1)
 1082 02e8 9F93      		push r25
 1083 02ea 8F93      		push r24
 1084 02ec 0E94 0000 		call printf
 1085               	.LVL72:
 155:main.cpp      ****                     break;
 1086               		.loc 2 155 21 is_stmt 1 view .LVU269
 1087               	.LBB110:
 1088               	.LBI110:
 166:c:\d\ifsc\vscodeleandro\ex\toolchains\avr-gcc\avr\include\util\delay.h **** {
 1089               		.loc 5 166 1 view .LVU270
 1090               	.LBB111:
 168:c:\d\ifsc\vscodeleandro\ex\toolchains\avr-gcc\avr\include\util\delay.h **** #if __HAS_DELAY_CYCLES && defined(__OPTIMIZE__) && \
GAS LISTING C:\Users\kenne\AppData\Local\Temp\cc2IZjCw.s 			page 55


 1091               		.loc 5 168 2 view .LVU271
 172:c:\d\ifsc\vscodeleandro\ex\toolchains\avr-gcc\avr\include\util\delay.h **** 	extern void __builtin_avr_delay_cycles(unsigned long);
 1092               		.loc 5 172 2 view .LVU272
 173:c:\d\ifsc\vscodeleandro\ex\toolchains\avr-gcc\avr\include\util\delay.h **** 	__tmp = ((F_CPU) / 1e3) * __ms;
 1093               		.loc 5 173 2 view .LVU273
 174:c:\d\ifsc\vscodeleandro\ex\toolchains\avr-gcc\avr\include\util\delay.h **** 
 1094               		.loc 5 174 2 view .LVU274
 184:c:\d\ifsc\vscodeleandro\ex\toolchains\avr-gcc\avr\include\util\delay.h **** 	#endif
 1095               		.loc 5 184 3 view .LVU275
 187:c:\d\ifsc\vscodeleandro\ex\toolchains\avr-gcc\avr\include\util\delay.h **** 
 1096               		.loc 5 187 2 view .LVU276
 187:c:\d\ifsc\vscodeleandro\ex\toolchains\avr-gcc\avr\include\util\delay.h **** 
 1097               		.loc 5 187 28 is_stmt 0 view .LVU277
 1098 02f0 9FEF      		ldi r25,lo8(159999)
 1099 02f2 A0E7      		ldi r26,hi8(159999)
 1100 02f4 B2E0      		ldi r27,hlo8(159999)
 1101 02f6 9150      	1:	subi r25,1
 1102 02f8 A040      		sbci r26,0
 1103 02fa B040      		sbci r27,0
 1104 02fc 01F4      		brne 1b
 1105 02fe 00C0      		rjmp .
 1106 0300 0000      		nop
 1107               		.loc 5 210 1 view .LVU278
 1108 0302 0F90      		pop __tmp_reg__
 1109 0304 0F90      		pop __tmp_reg__
 1110 0306 0F90      		pop __tmp_reg__
 1111 0308 0F90      		pop __tmp_reg__
 1112 030a 00C0      		rjmp .L21
 1113               	.LVL73:
 1114               	.L24:
 1115               		.loc 5 210 1 view .LVU279
 1116               	.LBE111:
 1117               	.LBE110:
 137:main.cpp      ****                     aux = 2999;
 1118               		.loc 2 137 17 is_stmt 1 view .LVU280
 138:main.cpp      ****                     OCR1A = aux;
 1119               		.loc 2 138 21 view .LVU281
 138:main.cpp      ****                     OCR1A = aux;
 1120               		.loc 2 138 25 is_stmt 0 view .LVU282
 1121 030c 87EB      		ldi r24,lo8(-73)
 1122 030e 9BE0      		ldi r25,lo8(11)
 1123 0310 A0E0      		ldi r26,0
 1124 0312 B0E0      		ldi r27,0
 1125 0314 8093 0000 		sts aux,r24
 1126 0318 9093 0000 		sts aux+1,r25
 1127 031c A093 0000 		sts aux+2,r26
 1128 0320 B093 0000 		sts aux+3,r27
 139:main.cpp      ****                     angulo = getangle(aux);
 1129               		.loc 2 139 21 is_stmt 1 view .LVU283
 139:main.cpp      ****                     angulo = getangle(aux);
 1130               		.loc 2 139 27 is_stmt 0 view .LVU284
 1131 0324 9093 8900 		sts 136+1,r25
 1132 0328 8093 8800 		sts 136,r24
 140:main.cpp      ****                     lcd.clearScreen();
 1133               		.loc 2 140 21 is_stmt 1 view .LVU285
 140:main.cpp      ****                     lcd.clearScreen();
 1134               		.loc 2 140 38 is_stmt 0 view .LVU286
GAS LISTING C:\Users\kenne\AppData\Local\Temp\cc2IZjCw.s 			page 56


 1135 032c 8091 0000 		lds r24,aux
 1136 0330 9091 0000 		lds r25,aux+1
 1137 0334 A091 0000 		lds r26,aux+2
 1138 0338 B091 0000 		lds r27,aux+3
 1139 033c 8CA7      		std Y+44,r24
 1140 033e 9DA7      		std Y+45,r25
 1141 0340 AEA7      		std Y+46,r26
 1142 0342 BFA7      		std Y+47,r27
 1143 0344 BC01      		movw r22,r24
 1144 0346 CD01      		movw r24,r26
 1145 0348 0E94 0000 		call _Z8getanglem
 1146               	.LVL74:
 140:main.cpp      ****                     lcd.clearScreen();
 1147               		.loc 2 140 28 view .LVU287
 1148 034c 9093 0000 		sts angulo+1,r25
 1149 0350 8093 0000 		sts angulo,r24
 141:main.cpp      ****                     printf("Angulo = %d\n", angulo);
 1150               		.loc 2 141 21 is_stmt 1 view .LVU288
 141:main.cpp      ****                     printf("Angulo = %d\n", angulo);
 1151               		.loc 2 141 36 is_stmt 0 view .LVU289
 1152 0354 CE01      		movw r24,r28
 1153 0356 0196      		adiw r24,1
 1154 0358 0E94 0000 		call _ZN7Hd4478011clearScreenEv
 1155               	.LVL75:
 142:main.cpp      ****                     delayMs(50);
 1156               		.loc 2 142 21 is_stmt 1 view .LVU290
 142:main.cpp      ****                     delayMs(50);
 1157               		.loc 2 142 27 is_stmt 0 view .LVU291
 1158 035c 8091 0000 		lds r24,angulo+1
 1159 0360 8F93      		push r24
 1160 0362 8091 0000 		lds r24,angulo
 1161 0366 8F93      		push r24
 1162 0368 80E0      		ldi r24,lo8(.LC1)
 1163 036a 90E0      		ldi r25,hi8(.LC1)
 1164 036c 9F93      		push r25
 1165 036e 8F93      		push r24
 1166 0370 0E94 0000 		call printf
 1167               	.LVL76:
 143:main.cpp      ****                     break;
 1168               		.loc 2 143 21 is_stmt 1 view .LVU292
 1169               	.LBB112:
 1170               	.LBI112:
 166:c:\d\ifsc\vscodeleandro\ex\toolchains\avr-gcc\avr\include\util\delay.h **** {
 1171               		.loc 5 166 1 view .LVU293
 1172               	.LBB113:
 168:c:\d\ifsc\vscodeleandro\ex\toolchains\avr-gcc\avr\include\util\delay.h **** #if __HAS_DELAY_CYCLES && defined(__OPTIMIZE__) && \
 1173               		.loc 5 168 2 view .LVU294
 172:c:\d\ifsc\vscodeleandro\ex\toolchains\avr-gcc\avr\include\util\delay.h **** 	extern void __builtin_avr_delay_cycles(unsigned long);
 1174               		.loc 5 172 2 view .LVU295
 173:c:\d\ifsc\vscodeleandro\ex\toolchains\avr-gcc\avr\include\util\delay.h **** 	__tmp = ((F_CPU) / 1e3) * __ms;
 1175               		.loc 5 173 2 view .LVU296
 174:c:\d\ifsc\vscodeleandro\ex\toolchains\avr-gcc\avr\include\util\delay.h **** 
 1176               		.loc 5 174 2 view .LVU297
 184:c:\d\ifsc\vscodeleandro\ex\toolchains\avr-gcc\avr\include\util\delay.h **** 	#endif
 1177               		.loc 5 184 3 view .LVU298
 187:c:\d\ifsc\vscodeleandro\ex\toolchains\avr-gcc\avr\include\util\delay.h **** 
 1178               		.loc 5 187 2 view .LVU299
GAS LISTING C:\Users\kenne\AppData\Local\Temp\cc2IZjCw.s 			page 57


 187:c:\d\ifsc\vscodeleandro\ex\toolchains\avr-gcc\avr\include\util\delay.h **** 
 1179               		.loc 5 187 28 is_stmt 0 view .LVU300
 1180 0374 9FEF      		ldi r25,lo8(159999)
 1181 0376 A0E7      		ldi r26,hi8(159999)
 1182 0378 B2E0      		ldi r27,hlo8(159999)
 1183 037a 9150      	1:	subi r25,1
 1184 037c A040      		sbci r26,0
 1185 037e B040      		sbci r27,0
 1186 0380 01F4      		brne 1b
 1187 0382 00C0      		rjmp .
 1188 0384 0000      		nop
 1189               		.loc 5 210 1 view .LVU301
 1190 0386 0F90      		pop __tmp_reg__
 1191 0388 0F90      		pop __tmp_reg__
 1192 038a 0F90      		pop __tmp_reg__
 1193 038c 0F90      		pop __tmp_reg__
 1194 038e 00C0      		rjmp .L21
 1195               	.LVL77:
 1196               	.L22:
 1197               		.loc 5 210 1 view .LVU302
 1198               	.LBE113:
 1199               	.LBE112:
 158:main.cpp      ****                     aux = aux + 37;
 1200               		.loc 2 158 17 is_stmt 1 view .LVU303
 159:main.cpp      ****                     if(aux > 3999) {
 1201               		.loc 2 159 21 view .LVU304
 159:main.cpp      ****                     if(aux > 3999) {
 1202               		.loc 2 159 31 is_stmt 0 view .LVU305
 1203 0390 8091 0000 		lds r24,aux
 1204 0394 9091 0000 		lds r25,aux+1
 1205 0398 A091 0000 		lds r26,aux+2
 1206 039c B091 0000 		lds r27,aux+3
 1207 03a0 8596      		adiw r24,37
 1208 03a2 A11D      		adc r26,__zero_reg__
 1209 03a4 B11D      		adc r27,__zero_reg__
 159:main.cpp      ****                     if(aux > 3999) {
 1210               		.loc 2 159 25 view .LVU306
 1211 03a6 8093 0000 		sts aux,r24
 1212 03aa 9093 0000 		sts aux+1,r25
 1213 03ae A093 0000 		sts aux+2,r26
 1214 03b2 B093 0000 		sts aux+3,r27
 160:main.cpp      ****                         aux = 3999;
 1215               		.loc 2 160 21 is_stmt 1 view .LVU307
 1216 03b6 803A      		cpi r24,-96
 1217 03b8 9F40      		sbci r25,15
 1218 03ba A105      		cpc r26,__zero_reg__
 1219 03bc B105      		cpc r27,__zero_reg__
 1220 03be 00F0      		brlo .L28
 161:main.cpp      ****                     }
 1221               		.loc 2 161 25 view .LVU308
 161:main.cpp      ****                     }
 1222               		.loc 2 161 29 is_stmt 0 view .LVU309
 1223 03c0 8FE9      		ldi r24,lo8(-97)
 1224 03c2 9FE0      		ldi r25,lo8(15)
 1225 03c4 A0E0      		ldi r26,0
 1226 03c6 B0E0      		ldi r27,0
 1227 03c8 8093 0000 		sts aux,r24
GAS LISTING C:\Users\kenne\AppData\Local\Temp\cc2IZjCw.s 			page 58


 1228 03cc 9093 0000 		sts aux+1,r25
 1229 03d0 A093 0000 		sts aux+2,r26
 1230 03d4 B093 0000 		sts aux+3,r27
 1231               	.L28:
 163:main.cpp      ****                     angulo = getangle(aux);
 1232               		.loc 2 163 21 is_stmt 1 view .LVU310
 163:main.cpp      ****                     angulo = getangle(aux);
 1233               		.loc 2 163 27 is_stmt 0 view .LVU311
 1234 03d8 8091 0000 		lds r24,aux
 1235 03dc 9091 0000 		lds r25,aux+1
 1236 03e0 9093 8900 		sts 136+1,r25
 1237 03e4 8093 8800 		sts 136,r24
 164:main.cpp      ****                     lcd.clearScreen();
 1238               		.loc 2 164 21 is_stmt 1 view .LVU312
 164:main.cpp      ****                     lcd.clearScreen();
 1239               		.loc 2 164 38 is_stmt 0 view .LVU313
 1240 03e8 8091 0000 		lds r24,aux
 1241 03ec 9091 0000 		lds r25,aux+1
 1242 03f0 A091 0000 		lds r26,aux+2
 1243 03f4 B091 0000 		lds r27,aux+3
 1244 03f8 8CA7      		std Y+44,r24
 1245 03fa 9DA7      		std Y+45,r25
 1246 03fc AEA7      		std Y+46,r26
 1247 03fe BFA7      		std Y+47,r27
 1248 0400 BC01      		movw r22,r24
 1249 0402 CD01      		movw r24,r26
 1250 0404 0E94 0000 		call _Z8getanglem
 1251               	.LVL78:
 164:main.cpp      ****                     lcd.clearScreen();
 1252               		.loc 2 164 28 view .LVU314
 1253 0408 9093 0000 		sts angulo+1,r25
 1254 040c 8093 0000 		sts angulo,r24
 165:main.cpp      ****                     printf("Angulo = %d\n", angulo);
 1255               		.loc 2 165 21 is_stmt 1 view .LVU315
 165:main.cpp      ****                     printf("Angulo = %d\n", angulo);
 1256               		.loc 2 165 36 is_stmt 0 view .LVU316
 1257 0410 CE01      		movw r24,r28
 1258 0412 0196      		adiw r24,1
 1259 0414 0E94 0000 		call _ZN7Hd4478011clearScreenEv
 1260               	.LVL79:
 166:main.cpp      ****                     delayMs(50);
 1261               		.loc 2 166 21 is_stmt 1 view .LVU317
 166:main.cpp      ****                     delayMs(50);
 1262               		.loc 2 166 27 is_stmt 0 view .LVU318
 1263 0418 8091 0000 		lds r24,angulo+1
 1264 041c 8F93      		push r24
 1265 041e 8091 0000 		lds r24,angulo
 1266 0422 8F93      		push r24
 1267 0424 80E0      		ldi r24,lo8(.LC1)
 1268 0426 90E0      		ldi r25,hi8(.LC1)
 1269 0428 9F93      		push r25
 1270 042a 8F93      		push r24
 1271 042c 0E94 0000 		call printf
 1272               	.LVL80:
 167:main.cpp      ****                     break;
 1273               		.loc 2 167 21 is_stmt 1 view .LVU319
 1274               	.LBB114:
GAS LISTING C:\Users\kenne\AppData\Local\Temp\cc2IZjCw.s 			page 59


 1275               	.LBI114:
 166:c:\d\ifsc\vscodeleandro\ex\toolchains\avr-gcc\avr\include\util\delay.h **** {
 1276               		.loc 5 166 1 view .LVU320
 1277               	.LBB115:
 168:c:\d\ifsc\vscodeleandro\ex\toolchains\avr-gcc\avr\include\util\delay.h **** #if __HAS_DELAY_CYCLES && defined(__OPTIMIZE__) && \
 1278               		.loc 5 168 2 view .LVU321
 172:c:\d\ifsc\vscodeleandro\ex\toolchains\avr-gcc\avr\include\util\delay.h **** 	extern void __builtin_avr_delay_cycles(unsigned long);
 1279               		.loc 5 172 2 view .LVU322
 173:c:\d\ifsc\vscodeleandro\ex\toolchains\avr-gcc\avr\include\util\delay.h **** 	__tmp = ((F_CPU) / 1e3) * __ms;
 1280               		.loc 5 173 2 view .LVU323
 174:c:\d\ifsc\vscodeleandro\ex\toolchains\avr-gcc\avr\include\util\delay.h **** 
 1281               		.loc 5 174 2 view .LVU324
 184:c:\d\ifsc\vscodeleandro\ex\toolchains\avr-gcc\avr\include\util\delay.h **** 	#endif
 1282               		.loc 5 184 3 view .LVU325
 187:c:\d\ifsc\vscodeleandro\ex\toolchains\avr-gcc\avr\include\util\delay.h **** 
 1283               		.loc 5 187 2 view .LVU326
 187:c:\d\ifsc\vscodeleandro\ex\toolchains\avr-gcc\avr\include\util\delay.h **** 
 1284               		.loc 5 187 28 is_stmt 0 view .LVU327
 1285 0430 9FEF      		ldi r25,lo8(159999)
 1286 0432 A0E7      		ldi r26,hi8(159999)
 1287 0434 B2E0      		ldi r27,hlo8(159999)
 1288 0436 9150      	1:	subi r25,1
 1289 0438 A040      		sbci r26,0
 1290 043a B040      		sbci r27,0
 1291 043c 01F4      		brne 1b
 1292 043e 00C0      		rjmp .
 1293 0440 0000      		nop
 1294               		.loc 5 210 1 view .LVU328
 1295 0442 0F90      		pop __tmp_reg__
 1296 0444 0F90      		pop __tmp_reg__
 1297 0446 0F90      		pop __tmp_reg__
 1298 0448 0F90      		pop __tmp_reg__
 1299               	.LVL81:
 1300               		.loc 5 210 1 view .LVU329
 1301 044a 00C0      		rjmp .L21
 1302               	.LVL82:
 1303               	.L19:
 1304               		.loc 5 210 1 view .LVU330
 1305               	.LBE115:
 1306               	.LBE114:
 174:main.cpp      ****                     break;
 175:main.cpp      ****                 default:
 176:main.cpp      ****                     break;
 177:main.cpp      ****                 }
 178:main.cpp      ****             }
 179:main.cpp      ****         case 1:
 1307               		.loc 2 179 9 is_stmt 1 view .LVU331
 180:main.cpp      ****             angulo = getangle(aux);
 1308               		.loc 2 180 13 view .LVU332
 1309               		.loc 2 180 30 is_stmt 0 view .LVU333
 1310 044c 8091 0000 		lds r24,aux
 1311 0450 9091 0000 		lds r25,aux+1
 1312 0454 A091 0000 		lds r26,aux+2
 1313 0458 B091 0000 		lds r27,aux+3
 1314 045c 8CA7      		std Y+44,r24
 1315 045e 9DA7      		std Y+45,r25
 1316 0460 AEA7      		std Y+46,r26
GAS LISTING C:\Users\kenne\AppData\Local\Temp\cc2IZjCw.s 			page 60


 1317 0462 BFA7      		std Y+47,r27
 1318 0464 BC01      		movw r22,r24
 1319 0466 CD01      		movw r24,r26
 1320 0468 0E94 0000 		call _Z8getanglem
 1321               	.LVL83:
 1322               		.loc 2 180 20 view .LVU334
 1323 046c 9093 0000 		sts angulo+1,r25
 1324 0470 8093 0000 		sts angulo,r24
 181:main.cpp      ****             lcd.clearScreen();
 1325               		.loc 2 181 13 is_stmt 1 view .LVU335
 1326               		.loc 2 181 28 is_stmt 0 view .LVU336
 1327 0474 CE01      		movw r24,r28
 1328 0476 0196      		adiw r24,1
 1329 0478 0E94 0000 		call _ZN7Hd4478011clearScreenEv
 1330               	.LVL84:
 182:main.cpp      ****             printf("Angulo = %d \n", angulo);
 1331               		.loc 2 182 13 is_stmt 1 view .LVU337
 1332               		.loc 2 182 19 is_stmt 0 view .LVU338
 1333 047c 8091 0000 		lds r24,angulo+1
 1334 0480 8F93      		push r24
 1335 0482 8091 0000 		lds r24,angulo
 1336 0486 8F93      		push r24
 1337 0488 80E0      		ldi r24,lo8(.LC2)
 1338 048a 90E0      		ldi r25,hi8(.LC2)
 1339 048c 9F93      		push r25
 1340 048e 8F93      		push r24
 1341 0490 0E94 0000 		call printf
 1342               	.LVL85:
 183:main.cpp      ****             printf("Novo=");
 1343               		.loc 2 183 13 is_stmt 1 view .LVU339
 1344               		.loc 2 183 19 is_stmt 0 view .LVU340
 1345 0494 80E0      		ldi r24,lo8(.LC3)
 1346 0496 90E0      		ldi r25,hi8(.LC3)
 1347 0498 9F93      		push r25
 1348 049a 8F93      		push r24
 1349 049c 0E94 0000 		call printf
 1350               	.LVL86:
 184:main.cpp      ****             lcd.displayStateSet(Hd44780::DisplayState::BLINK_ON);
 1351               		.loc 2 184 13 is_stmt 1 view .LVU341
 1352               		.loc 2 184 32 is_stmt 0 view .LVU342
 1353 04a0 63E0      		ldi r22,lo8(3)
 1354 04a2 70E0      		ldi r23,0
 1355 04a4 CE01      		movw r24,r28
 1356 04a6 0196      		adiw r24,1
 1357 04a8 0E94 0000 		call _ZN7Hd4478015displayStateSetENS_12DisplayStateE
 1358               	.LVL87:
 185:main.cpp      ****             lcd.cursorGoTo(2, 5);
 1359               		.loc 2 185 13 is_stmt 1 view .LVU343
 1360               		.loc 2 185 27 is_stmt 0 view .LVU344
 1361 04ac 45E0      		ldi r20,lo8(5)
 1362 04ae 62E0      		ldi r22,lo8(2)
 1363 04b0 CE01      		movw r24,r28
 1364 04b2 0196      		adiw r24,1
 1365 04b4 0E94 0000 		call _ZN7Hd4478010cursorGoToEhh
 1366               	.LVL88:
 186:main.cpp      ****             while(estado == 1) {
 1367               		.loc 2 186 13 is_stmt 1 view .LVU345
GAS LISTING C:\Users\kenne\AppData\Local\Temp\cc2IZjCw.s 			page 61


 1368 04b8 0F90      		pop __tmp_reg__
 1369 04ba 0F90      		pop __tmp_reg__
 1370 04bc 0F90      		pop __tmp_reg__
 1371 04be 0F90      		pop __tmp_reg__
 1372 04c0 0F90      		pop __tmp_reg__
 1373 04c2 0F90      		pop __tmp_reg__
 1374               	.LVL89:
 1375               	.L30:
 1376               		.loc 2 186 26 view .LVU346
 1377 04c4 1130      		cpi r17,lo8(1)
 1378 04c6 01F0      		breq .L43
 1379               	.LVL90:
 1380               	.L20:
 121:main.cpp      ****         switch(estado) {
 1381               		.loc 2 121 5 view .LVU347
 122:main.cpp      ****         case 0:
 1382               		.loc 2 122 9 view .LVU348
 1383 04c8 1123      		tst r17
 1384 04ca 01F4      		brne .+2
 1385 04cc 00C0      		rjmp .L18
 1386 04ce 1130      		cpi r17,lo8(1)
 1387 04d0 01F4      		brne .+2
 1388 04d2 00C0      		rjmp .L19
 1389 04d4 00C0      		rjmp .L20
 1390               	.L43:
 187:main.cpp      ****                 keypad.readKeyPressed(&tecla);
 1391               		.loc 2 187 17 view .LVU349
 1392               		.loc 2 187 38 is_stmt 0 view .LVU350
 1393 04d6 BE01      		movw r22,r28
 1394 04d8 655D      		subi r22,-43
 1395 04da 7F4F      		sbci r23,-1
 1396 04dc CE01      		movw r24,r28
 1397 04de 4396      		adiw r24,19
 1398 04e0 0E94 0000 		call _ZN6Keypad14readKeyPressedEPh
 1399               	.LVL91:
 188:main.cpp      ****                 switch(tecla) {
 1400               		.loc 2 188 17 is_stmt 1 view .LVU351
 1401               		.loc 2 188 24 is_stmt 0 view .LVU352
 1402 04e4 6BA5      		ldd r22,Y+43
 1403 04e6 6634      		cpi r22,lo8(70)
 1404 04e8 01F4      		brne .+2
 1405 04ea 00C0      		rjmp .L31
 1406 04ec 00F4      		brsh .L32
 1407 04ee 6334      		cpi r22,lo8(67)
 1408 04f0 01F0      		breq .L33
 1409 04f2 6534      		cpi r22,lo8(69)
 1410 04f4 01F4      		brne .L35
 189:main.cpp      ****                 case 'C':
 190:main.cpp      ****                     // printf("tecla %c pressionada", tecla);
 191:main.cpp      ****                     // delayMs(300);
 192:main.cpp      ****                     // lcd.clearScreen();
 193:main.cpp      ****                     valor = -valor;
 194:main.cpp      ****                     lcd.clearScreen();
 195:main.cpp      ****                     printf("Angulo = %d \n", angulo);
 196:main.cpp      ****                     printf("Novo= %d", valor);
 197:main.cpp      ****                     break;
 198:main.cpp      ****                 case 'E':
GAS LISTING C:\Users\kenne\AppData\Local\Temp\cc2IZjCw.s 			page 62


 199:main.cpp      ****                     estado = 0;
 1411               		.loc 2 199 28 view .LVU353
 1412 04f6 10E0      		ldi r17,0
 1413               	.LVL92:
 1414               		.loc 2 199 28 view .LVU354
 1415 04f8 00C0      		rjmp .L30
 1416               	.LVL93:
 1417               	.L32:
 1418               		.loc 2 199 28 view .LVU355
 1419 04fa 6F3F      		cpi r22,lo8(-1)
 1420 04fc 01F0      		breq .L30
 1421               	.L35:
 200:main.cpp      ****                     break;
 201:main.cpp      ****                 case 'F':
 202:main.cpp      ****                     if(valor >= -135 && valor <= 135) {
 203:main.cpp      ****                         setangle(valor);
 204:main.cpp      ****                         estado = 0;
 205:main.cpp      ****                     } else {
 206:main.cpp      ****                         lcd.clearScreen();
 207:main.cpp      ****                         lcd.displayStateSet(Hd44780::DisplayState::CURSOR_OFF);
 208:main.cpp      ****                         printf("Angulo = %d \n", angulo);
 209:main.cpp      ****                         printf("Valor invalido!");
 210:main.cpp      ****                         delayMs(1500);
 211:main.cpp      ****                         estado = 0;
 212:main.cpp      ****                     }
 213:main.cpp      ****                     break;
 214:main.cpp      ****                 case 0xFF:
 215:main.cpp      ****                     break;
 216:main.cpp      ****                 default:
 1422               		.loc 2 216 17 is_stmt 1 view .LVU356
 217:main.cpp      ****                     //lcd.clearScreen();
 218:main.cpp      ****                     //printf("tecla %c pressionada", tecla);
 219:main.cpp      ****                     //delayMs(300);
 220:main.cpp      ****                     switch(subestado) {
 1423               		.loc 2 220 21 view .LVU357
 1424 04fe 0230      		cpi r16,lo8(2)
 1425 0500 01F4      		brne .+2
 1426 0502 00C0      		rjmp .L37
 1427 0504 0330      		cpi r16,lo8(3)
 1428 0506 01F4      		brne .+2
 1429 0508 00C0      		rjmp .L38
 1430 050a 0130      		cpi r16,lo8(1)
 1431 050c 01F4      		brne .+2
 1432 050e 00C0      		rjmp .L44
 221:main.cpp      ****                     case 1:
 222:main.cpp      ****                         valor = typing(0, tecla - '0', subestado);
 223:main.cpp      ****                         lcd.clearScreen();
 224:main.cpp      ****                         printf("Angulo = %d \n", angulo);
 225:main.cpp      ****                         printf("Novo= %d", valor);
 226:main.cpp      ****                         subestado++;
 227:main.cpp      ****                         break;
 228:main.cpp      ****                     case 2:
 229:main.cpp      ****                         valor = typing(valor, tecla - '0', subestado);
 230:main.cpp      ****                         lcd.clearScreen();
 231:main.cpp      ****                         printf("Angulo = %d \n", angulo);
 232:main.cpp      ****                         printf("Novo= %d", valor);
 233:main.cpp      ****                         subestado++;
GAS LISTING C:\Users\kenne\AppData\Local\Temp\cc2IZjCw.s 			page 63


 234:main.cpp      ****                         break;
 235:main.cpp      ****                     case 3:
 236:main.cpp      ****                         valor = typing(valor, tecla - '0', subestado);
 237:main.cpp      ****                         lcd.clearScreen();
 238:main.cpp      ****                         printf("Angulo = %d \n", angulo);
 239:main.cpp      ****                         printf("Novo= %d", valor);
 240:main.cpp      ****                         subestado++;
 241:main.cpp      ****                         break;
 242:main.cpp      ****                     default:
 1433               		.loc 2 242 21 view .LVU358
 243:main.cpp      ****                         valor = typing(valor, tecla - '0', subestado);
 1434               		.loc 2 243 25 view .LVU359
 1435               		.loc 2 243 39 is_stmt 0 view .LVU360
 1436 0510 6053      		subi r22,lo8(-(-48))
 1437 0512 402F      		mov r20,r16
 1438 0514 C701      		movw r24,r14
 1439 0516 0E94 0000 		call _Z6typingihh
 1440               	.LVL94:
 1441 051a E82E      		mov r14,r24
 1442               	.LVL95:
 1443               		.loc 2 243 39 view .LVU361
 1444 051c F92E      		mov r15,r25
 1445               	.LVL96:
 244:main.cpp      ****                         lcd.clearScreen();
 1446               		.loc 2 244 25 is_stmt 1 view .LVU362
 1447               		.loc 2 244 40 is_stmt 0 view .LVU363
 1448 051e CE01      		movw r24,r28
 1449 0520 0196      		adiw r24,1
 1450 0522 0E94 0000 		call _ZN7Hd4478011clearScreenEv
 1451               	.LVL97:
 245:main.cpp      ****                         printf("Angulo = %d \n", angulo);
 1452               		.loc 2 245 25 is_stmt 1 view .LVU364
 1453               		.loc 2 245 31 is_stmt 0 view .LVU365
 1454 0526 8091 0000 		lds r24,angulo+1
 1455 052a 8F93      		push r24
 1456 052c 8091 0000 		lds r24,angulo
 1457 0530 8F93      		push r24
 1458 0532 80E0      		ldi r24,lo8(.LC2)
 1459 0534 90E0      		ldi r25,hi8(.LC2)
 1460 0536 9F93      		push r25
 1461 0538 8F93      		push r24
 1462 053a 0E94 0000 		call printf
 1463               	.LVL98:
 246:main.cpp      ****                         printf("Novo= %d", valor);
 1464               		.loc 2 246 25 is_stmt 1 view .LVU366
 1465               		.loc 2 246 31 is_stmt 0 view .LVU367
 1466 053e FF92      		push r15
 1467 0540 EF92      		push r14
 1468 0542 80E0      		ldi r24,lo8(.LC4)
 1469 0544 90E0      		ldi r25,hi8(.LC4)
 1470 0546 9F93      		push r25
 1471 0548 8F93      		push r24
 1472 054a 0E94 0000 		call printf
 1473               	.LVL99:
 247:main.cpp      ****                         subestado++;
 1474               		.loc 2 247 25 is_stmt 1 view .LVU368
 1475               		.loc 2 247 34 is_stmt 0 view .LVU369
GAS LISTING C:\Users\kenne\AppData\Local\Temp\cc2IZjCw.s 			page 64


 1476 054e 0F5F      		subi r16,lo8(-(1))
 1477               	.LVL100:
 248:main.cpp      ****                         break;
 1478               		.loc 2 248 25 is_stmt 1 view .LVU370
 1479 0550 0FB6      		in __tmp_reg__,__SREG__
 1480 0552 F894      		cli
 1481 0554 DEBF      		out __SP_H__,r29
 1482 0556 0FBE      		out __SREG__,__tmp_reg__
 1483 0558 CDBF      		out __SP_L__,r28
 1484 055a 00C0      		rjmp .L30
 1485               	.L33:
 189:main.cpp      ****                     // printf("tecla %c pressionada", tecla);
 1486               		.loc 2 189 17 view .LVU371
 193:main.cpp      ****                     lcd.clearScreen();
 1487               		.loc 2 193 21 view .LVU372
 193:main.cpp      ****                     lcd.clearScreen();
 1488               		.loc 2 193 27 is_stmt 0 view .LVU373
 1489 055c F194      		neg r15
 1490 055e E194      		neg r14
 1491 0560 F108      		sbc r15,__zero_reg__
 1492               	.LVL101:
 194:main.cpp      ****                     printf("Angulo = %d \n", angulo);
 1493               		.loc 2 194 21 is_stmt 1 view .LVU374
 194:main.cpp      ****                     printf("Angulo = %d \n", angulo);
 1494               		.loc 2 194 36 is_stmt 0 view .LVU375
 1495 0562 CE01      		movw r24,r28
 1496 0564 0196      		adiw r24,1
 1497 0566 0E94 0000 		call _ZN7Hd4478011clearScreenEv
 1498               	.LVL102:
 195:main.cpp      ****                     printf("Novo= %d", valor);
 1499               		.loc 2 195 21 is_stmt 1 view .LVU376
 195:main.cpp      ****                     printf("Novo= %d", valor);
 1500               		.loc 2 195 27 is_stmt 0 view .LVU377
 1501 056a 8091 0000 		lds r24,angulo+1
 1502 056e 8F93      		push r24
 1503 0570 8091 0000 		lds r24,angulo
 1504 0574 8F93      		push r24
 1505 0576 80E0      		ldi r24,lo8(.LC2)
 1506 0578 90E0      		ldi r25,hi8(.LC2)
 1507 057a 9F93      		push r25
 1508 057c 8F93      		push r24
 1509 057e 0E94 0000 		call printf
 1510               	.LVL103:
 196:main.cpp      ****                     break;
 1511               		.loc 2 196 21 is_stmt 1 view .LVU378
 196:main.cpp      ****                     break;
 1512               		.loc 2 196 27 is_stmt 0 view .LVU379
 1513 0582 FF92      		push r15
 1514 0584 EF92      		push r14
 1515 0586 80E0      		ldi r24,lo8(.LC4)
 1516 0588 90E0      		ldi r25,hi8(.LC4)
 1517 058a 9F93      		push r25
 1518 058c 8F93      		push r24
 1519 058e 0E94 0000 		call printf
 1520               	.LVL104:
 197:main.cpp      ****                 case 'E':
 1521               		.loc 2 197 21 is_stmt 1 view .LVU380
GAS LISTING C:\Users\kenne\AppData\Local\Temp\cc2IZjCw.s 			page 65


 1522 0592 0FB6      		in __tmp_reg__,__SREG__
 1523 0594 F894      		cli
 1524 0596 DEBF      		out __SP_H__,r29
 1525 0598 0FBE      		out __SREG__,__tmp_reg__
 1526 059a CDBF      		out __SP_L__,r28
 1527 059c 00C0      		rjmp .L30
 1528               	.L31:
 201:main.cpp      ****                     if(valor >= -135 && valor <= 135) {
 1529               		.loc 2 201 17 view .LVU381
 202:main.cpp      ****                         setangle(valor);
 1530               		.loc 2 202 21 view .LVU382
 202:main.cpp      ****                         setangle(valor);
 1531               		.loc 2 202 38 is_stmt 0 view .LVU383
 1532 059e C701      		movw r24,r14
 1533 05a0 8957      		subi r24,121
 1534 05a2 9F4F      		sbci r25,-1
 202:main.cpp      ****                         setangle(valor);
 1535               		.loc 2 202 21 view .LVU384
 1536 05a4 8F30      		cpi r24,15
 1537 05a6 9140      		sbci r25,1
 1538 05a8 00F4      		brsh .L36
 203:main.cpp      ****                         estado = 0;
 1539               		.loc 2 203 25 is_stmt 1 view .LVU385
 203:main.cpp      ****                         estado = 0;
 1540               		.loc 2 203 33 is_stmt 0 view .LVU386
 1541 05aa C701      		movw r24,r14
 1542 05ac 0E94 0000 		call _Z8setanglej
 1543               	.LVL105:
 204:main.cpp      ****                     } else {
 1544               		.loc 2 204 25 is_stmt 1 view .LVU387
 204:main.cpp      ****                     } else {
 1545               		.loc 2 204 32 is_stmt 0 view .LVU388
 1546 05b0 10E0      		ldi r17,0
 1547 05b2 00C0      		rjmp .L30
 1548               	.LVL106:
 1549               	.L36:
 206:main.cpp      ****                         lcd.displayStateSet(Hd44780::DisplayState::CURSOR_OFF);
 1550               		.loc 2 206 25 is_stmt 1 view .LVU389
 206:main.cpp      ****                         lcd.displayStateSet(Hd44780::DisplayState::CURSOR_OFF);
 1551               		.loc 2 206 40 is_stmt 0 view .LVU390
 1552 05b4 CE01      		movw r24,r28
 1553 05b6 0196      		adiw r24,1
 1554 05b8 0E94 0000 		call _ZN7Hd4478011clearScreenEv
 1555               	.LVL107:
 207:main.cpp      ****                         printf("Angulo = %d \n", angulo);
 1556               		.loc 2 207 25 is_stmt 1 view .LVU391
 207:main.cpp      ****                         printf("Angulo = %d \n", angulo);
 1557               		.loc 2 207 44 is_stmt 0 view .LVU392
 1558 05bc 61E0      		ldi r22,lo8(1)
 1559 05be 70E0      		ldi r23,0
 1560 05c0 CE01      		movw r24,r28
 1561 05c2 0196      		adiw r24,1
 1562 05c4 0E94 0000 		call _ZN7Hd4478015displayStateSetENS_12DisplayStateE
 1563               	.LVL108:
 208:main.cpp      ****                         printf("Valor invalido!");
 1564               		.loc 2 208 25 is_stmt 1 view .LVU393
 208:main.cpp      ****                         printf("Valor invalido!");
GAS LISTING C:\Users\kenne\AppData\Local\Temp\cc2IZjCw.s 			page 66


 1565               		.loc 2 208 31 is_stmt 0 view .LVU394
 1566 05c8 8091 0000 		lds r24,angulo+1
 1567 05cc 8F93      		push r24
 1568 05ce 8091 0000 		lds r24,angulo
 1569 05d2 8F93      		push r24
 1570 05d4 80E0      		ldi r24,lo8(.LC2)
 1571 05d6 90E0      		ldi r25,hi8(.LC2)
 1572 05d8 9F93      		push r25
 1573 05da 8F93      		push r24
 1574 05dc 0E94 0000 		call printf
 1575               	.LVL109:
 209:main.cpp      ****                         delayMs(1500);
 1576               		.loc 2 209 25 is_stmt 1 view .LVU395
 209:main.cpp      ****                         delayMs(1500);
 1577               		.loc 2 209 31 is_stmt 0 view .LVU396
 1578 05e0 80E0      		ldi r24,lo8(.LC5)
 1579 05e2 90E0      		ldi r25,hi8(.LC5)
 1580 05e4 9F93      		push r25
 1581 05e6 8F93      		push r24
 1582 05e8 0E94 0000 		call printf
 1583               	.LVL110:
 210:main.cpp      ****                         estado = 0;
 1584               		.loc 2 210 25 is_stmt 1 view .LVU397
 1585               	.LBB116:
 1586               	.LBI116:
 166:c:\d\ifsc\vscodeleandro\ex\toolchains\avr-gcc\avr\include\util\delay.h **** {
 1587               		.loc 5 166 1 view .LVU398
 1588               	.LBB117:
 168:c:\d\ifsc\vscodeleandro\ex\toolchains\avr-gcc\avr\include\util\delay.h **** #if __HAS_DELAY_CYCLES && defined(__OPTIMIZE__) && \
 1589               		.loc 5 168 2 view .LVU399
 172:c:\d\ifsc\vscodeleandro\ex\toolchains\avr-gcc\avr\include\util\delay.h **** 	extern void __builtin_avr_delay_cycles(unsigned long);
 1590               		.loc 5 172 2 view .LVU400
 173:c:\d\ifsc\vscodeleandro\ex\toolchains\avr-gcc\avr\include\util\delay.h **** 	__tmp = ((F_CPU) / 1e3) * __ms;
 1591               		.loc 5 173 2 view .LVU401
 174:c:\d\ifsc\vscodeleandro\ex\toolchains\avr-gcc\avr\include\util\delay.h **** 
 1592               		.loc 5 174 2 view .LVU402
 184:c:\d\ifsc\vscodeleandro\ex\toolchains\avr-gcc\avr\include\util\delay.h **** 	#endif
 1593               		.loc 5 184 3 view .LVU403
 187:c:\d\ifsc\vscodeleandro\ex\toolchains\avr-gcc\avr\include\util\delay.h **** 
 1594               		.loc 5 187 2 view .LVU404
 187:c:\d\ifsc\vscodeleandro\ex\toolchains\avr-gcc\avr\include\util\delay.h **** 
 1595               		.loc 5 187 28 is_stmt 0 view .LVU405
 1596 05ec 2FEF      		ldi r18,lo8(4799999)
 1597 05ee 8DE3      		ldi r24,hi8(4799999)
 1598 05f0 99E4      		ldi r25,hlo8(4799999)
 1599 05f2 2150      	1:	subi r18,1
 1600 05f4 8040      		sbci r24,0
 1601 05f6 9040      		sbci r25,0
 1602 05f8 01F4      		brne 1b
 1603 05fa 00C0      		rjmp .
 1604 05fc 0000      		nop
 1605               	.LVL111:
 187:c:\d\ifsc\vscodeleandro\ex\toolchains\avr-gcc\avr\include\util\delay.h **** 
 1606               		.loc 5 187 28 view .LVU406
 1607               	.LBE117:
 1608               	.LBE116:
 211:main.cpp      ****                     }
GAS LISTING C:\Users\kenne\AppData\Local\Temp\cc2IZjCw.s 			page 67


 1609               		.loc 2 211 25 is_stmt 1 view .LVU407
 1610               	.LBB119:
 1611               	.LBB118:
 187:c:\d\ifsc\vscodeleandro\ex\toolchains\avr-gcc\avr\include\util\delay.h **** 
 1612               		.loc 5 187 28 is_stmt 0 view .LVU408
 1613 05fe 0F90      		pop __tmp_reg__
 1614 0600 0F90      		pop __tmp_reg__
 1615 0602 0F90      		pop __tmp_reg__
 1616 0604 0F90      		pop __tmp_reg__
 1617 0606 0F90      		pop __tmp_reg__
 1618 0608 0F90      		pop __tmp_reg__
 1619               	.LBE118:
 1620               	.LBE119:
 211:main.cpp      ****                     }
 1621               		.loc 2 211 32 view .LVU409
 1622 060a 10E0      		ldi r17,0
 1623 060c 00C0      		rjmp .L30
 1624               	.LVL112:
 1625               	.L44:
 221:main.cpp      ****                         valor = typing(0, tecla - '0', subestado);
 1626               		.loc 2 221 21 is_stmt 1 view .LVU410
 222:main.cpp      ****                         lcd.clearScreen();
 1627               		.loc 2 222 25 view .LVU411
 222:main.cpp      ****                         lcd.clearScreen();
 1628               		.loc 2 222 39 is_stmt 0 view .LVU412
 1629 060e 6053      		subi r22,lo8(-(-48))
 1630 0610 402F      		mov r20,r16
 1631 0612 80E0      		ldi r24,0
 1632 0614 90E0      		ldi r25,0
 1633 0616 0E94 0000 		call _Z6typingihh
 1634               	.LVL113:
 1635 061a E82E      		mov r14,r24
 1636               	.LVL114:
 222:main.cpp      ****                         lcd.clearScreen();
 1637               		.loc 2 222 39 view .LVU413
 1638 061c F92E      		mov r15,r25
 1639               	.LVL115:
 223:main.cpp      ****                         printf("Angulo = %d \n", angulo);
 1640               		.loc 2 223 25 is_stmt 1 view .LVU414
 223:main.cpp      ****                         printf("Angulo = %d \n", angulo);
 1641               		.loc 2 223 40 is_stmt 0 view .LVU415
 1642 061e CE01      		movw r24,r28
 1643 0620 0196      		adiw r24,1
 1644 0622 0E94 0000 		call _ZN7Hd4478011clearScreenEv
 1645               	.LVL116:
 224:main.cpp      ****                         printf("Novo= %d", valor);
 1646               		.loc 2 224 25 is_stmt 1 view .LVU416
 224:main.cpp      ****                         printf("Novo= %d", valor);
 1647               		.loc 2 224 31 is_stmt 0 view .LVU417
 1648 0626 8091 0000 		lds r24,angulo+1
 1649 062a 8F93      		push r24
 1650 062c 8091 0000 		lds r24,angulo
 1651 0630 8F93      		push r24
 1652 0632 80E0      		ldi r24,lo8(.LC2)
 1653 0634 90E0      		ldi r25,hi8(.LC2)
 1654 0636 9F93      		push r25
 1655 0638 8F93      		push r24
GAS LISTING C:\Users\kenne\AppData\Local\Temp\cc2IZjCw.s 			page 68


 1656 063a 0E94 0000 		call printf
 1657               	.LVL117:
 225:main.cpp      ****                         subestado++;
 1658               		.loc 2 225 25 is_stmt 1 view .LVU418
 225:main.cpp      ****                         subestado++;
 1659               		.loc 2 225 31 is_stmt 0 view .LVU419
 1660 063e FF92      		push r15
 1661 0640 EF92      		push r14
 1662 0642 80E0      		ldi r24,lo8(.LC4)
 1663 0644 90E0      		ldi r25,hi8(.LC4)
 1664 0646 9F93      		push r25
 1665 0648 8F93      		push r24
 1666 064a 0E94 0000 		call printf
 1667               	.LVL118:
 226:main.cpp      ****                         break;
 1668               		.loc 2 226 25 is_stmt 1 view .LVU420
 226:main.cpp      ****                         break;
 1669               		.loc 2 226 34 is_stmt 0 view .LVU421
 1670 064e 0F5F      		subi r16,lo8(-(1))
 1671               	.LVL119:
 227:main.cpp      ****                     case 2:
 1672               		.loc 2 227 25 is_stmt 1 view .LVU422
 1673 0650 0FB6      		in __tmp_reg__,__SREG__
 1674 0652 F894      		cli
 1675 0654 DEBF      		out __SP_H__,r29
 1676 0656 0FBE      		out __SREG__,__tmp_reg__
 1677 0658 CDBF      		out __SP_L__,r28
 1678 065a 00C0      		rjmp .L30
 1679               	.L37:
 228:main.cpp      ****                         valor = typing(valor, tecla - '0', subestado);
 1680               		.loc 2 228 21 view .LVU423
 229:main.cpp      ****                         lcd.clearScreen();
 1681               		.loc 2 229 25 view .LVU424
 229:main.cpp      ****                         lcd.clearScreen();
 1682               		.loc 2 229 39 is_stmt 0 view .LVU425
 1683 065c 6053      		subi r22,lo8(-(-48))
 1684 065e 402F      		mov r20,r16
 1685 0660 C701      		movw r24,r14
 1686 0662 0E94 0000 		call _Z6typingihh
 1687               	.LVL120:
 1688 0666 E82E      		mov r14,r24
 1689               	.LVL121:
 229:main.cpp      ****                         lcd.clearScreen();
 1690               		.loc 2 229 39 view .LVU426
 1691 0668 F92E      		mov r15,r25
 1692               	.LVL122:
 230:main.cpp      ****                         printf("Angulo = %d \n", angulo);
 1693               		.loc 2 230 25 is_stmt 1 view .LVU427
 230:main.cpp      ****                         printf("Angulo = %d \n", angulo);
 1694               		.loc 2 230 40 is_stmt 0 view .LVU428
 1695 066a CE01      		movw r24,r28
 1696 066c 0196      		adiw r24,1
 1697 066e 0E94 0000 		call _ZN7Hd4478011clearScreenEv
 1698               	.LVL123:
 231:main.cpp      ****                         printf("Novo= %d", valor);
 1699               		.loc 2 231 25 is_stmt 1 view .LVU429
 231:main.cpp      ****                         printf("Novo= %d", valor);
GAS LISTING C:\Users\kenne\AppData\Local\Temp\cc2IZjCw.s 			page 69


 1700               		.loc 2 231 31 is_stmt 0 view .LVU430
 1701 0672 8091 0000 		lds r24,angulo+1
 1702 0676 8F93      		push r24
 1703 0678 8091 0000 		lds r24,angulo
 1704 067c 8F93      		push r24
 1705 067e 80E0      		ldi r24,lo8(.LC2)
 1706 0680 90E0      		ldi r25,hi8(.LC2)
 1707 0682 9F93      		push r25
 1708 0684 8F93      		push r24
 1709 0686 0E94 0000 		call printf
 1710               	.LVL124:
 232:main.cpp      ****                         subestado++;
 1711               		.loc 2 232 25 is_stmt 1 view .LVU431
 232:main.cpp      ****                         subestado++;
 1712               		.loc 2 232 31 is_stmt 0 view .LVU432
 1713 068a FF92      		push r15
 1714 068c EF92      		push r14
 1715 068e 80E0      		ldi r24,lo8(.LC4)
 1716 0690 90E0      		ldi r25,hi8(.LC4)
 1717 0692 9F93      		push r25
 1718 0694 8F93      		push r24
 1719 0696 0E94 0000 		call printf
 1720               	.LVL125:
 233:main.cpp      ****                         break;
 1721               		.loc 2 233 25 is_stmt 1 view .LVU433
 233:main.cpp      ****                         break;
 1722               		.loc 2 233 34 is_stmt 0 view .LVU434
 1723 069a 0F5F      		subi r16,lo8(-(1))
 1724               	.LVL126:
 234:main.cpp      ****                     case 3:
 1725               		.loc 2 234 25 is_stmt 1 view .LVU435
 1726 069c 0FB6      		in __tmp_reg__,__SREG__
 1727 069e F894      		cli
 1728 06a0 DEBF      		out __SP_H__,r29
 1729 06a2 0FBE      		out __SREG__,__tmp_reg__
 1730 06a4 CDBF      		out __SP_L__,r28
 1731 06a6 00C0      		rjmp .L30
 1732               	.L38:
 235:main.cpp      ****                         valor = typing(valor, tecla - '0', subestado);
 1733               		.loc 2 235 21 view .LVU436
 236:main.cpp      ****                         lcd.clearScreen();
 1734               		.loc 2 236 25 view .LVU437
 236:main.cpp      ****                         lcd.clearScreen();
 1735               		.loc 2 236 39 is_stmt 0 view .LVU438
 1736 06a8 6053      		subi r22,lo8(-(-48))
 1737 06aa 402F      		mov r20,r16
 1738 06ac C701      		movw r24,r14
 1739 06ae 0E94 0000 		call _Z6typingihh
 1740               	.LVL127:
 1741 06b2 E82E      		mov r14,r24
 1742               	.LVL128:
 236:main.cpp      ****                         lcd.clearScreen();
 1743               		.loc 2 236 39 view .LVU439
 1744 06b4 F92E      		mov r15,r25
 1745               	.LVL129:
 237:main.cpp      ****                         printf("Angulo = %d \n", angulo);
 1746               		.loc 2 237 25 is_stmt 1 view .LVU440
GAS LISTING C:\Users\kenne\AppData\Local\Temp\cc2IZjCw.s 			page 70


 237:main.cpp      ****                         printf("Angulo = %d \n", angulo);
 1747               		.loc 2 237 40 is_stmt 0 view .LVU441
 1748 06b6 CE01      		movw r24,r28
 1749 06b8 0196      		adiw r24,1
 1750 06ba 0E94 0000 		call _ZN7Hd4478011clearScreenEv
 1751               	.LVL130:
 238:main.cpp      ****                         printf("Novo= %d", valor);
 1752               		.loc 2 238 25 is_stmt 1 view .LVU442
 238:main.cpp      ****                         printf("Novo= %d", valor);
 1753               		.loc 2 238 31 is_stmt 0 view .LVU443
 1754 06be 8091 0000 		lds r24,angulo+1
 1755 06c2 8F93      		push r24
 1756 06c4 8091 0000 		lds r24,angulo
 1757 06c8 8F93      		push r24
 1758 06ca 80E0      		ldi r24,lo8(.LC2)
 1759 06cc 90E0      		ldi r25,hi8(.LC2)
 1760 06ce 9F93      		push r25
 1761 06d0 8F93      		push r24
 1762 06d2 0E94 0000 		call printf
 1763               	.LVL131:
 239:main.cpp      ****                         subestado++;
 1764               		.loc 2 239 25 is_stmt 1 view .LVU444
 239:main.cpp      ****                         subestado++;
 1765               		.loc 2 239 31 is_stmt 0 view .LVU445
 1766 06d6 FF92      		push r15
 1767 06d8 EF92      		push r14
 1768 06da 80E0      		ldi r24,lo8(.LC4)
 1769 06dc 90E0      		ldi r25,hi8(.LC4)
 1770 06de 9F93      		push r25
 1771 06e0 8F93      		push r24
 1772 06e2 0E94 0000 		call printf
 1773               	.LVL132:
 240:main.cpp      ****                         break;
 1774               		.loc 2 240 25 is_stmt 1 view .LVU446
 240:main.cpp      ****                         break;
 1775               		.loc 2 240 34 is_stmt 0 view .LVU447
 1776 06e6 0F5F      		subi r16,lo8(-(1))
 1777               	.LVL133:
 241:main.cpp      ****                     default:
 1778               		.loc 2 241 25 is_stmt 1 view .LVU448
 1779 06e8 0FB6      		in __tmp_reg__,__SREG__
 1780 06ea F894      		cli
 1781 06ec DEBF      		out __SP_H__,r29
 1782 06ee 0FBE      		out __SREG__,__tmp_reg__
 1783 06f0 CDBF      		out __SP_L__,r28
 1784 06f2 00C0      		rjmp .L30
 1785               		.cfi_endproc
 1786               	.LFE58:
 1788               	.global	angulo
 1789               		.section	.bss.angulo,"aw",@nobits
 1792               	angulo:
 1793 0000 0000      		.zero	2
 1794               	.global	aux
 1795               		.section	.data.aux,"aw"
 1798               	aux:
 1799 0000 B7        		.byte	-73
 1800 0001 0B        		.byte	11
GAS LISTING C:\Users\kenne\AppData\Local\Temp\cc2IZjCw.s 			page 71


 1801 0002 00        		.byte	0
 1802 0003 00        		.byte	0
 1803               		.text
 1804               	.Letext0:
 1805               		.file 6 "c:\\d\\ifsc\\vscodeleandro\\ex\\toolchains\\avr-gcc\\avr\\include\\stdint.h"
 1806               		.file 7 "funsape/device/hd44780.hpp"
 1807               		.file 8 "funsape/device/keypad.hpp"
 1808               		.file 9 "c:\\d\\ifsc\\vscodeleandro\\ex\\toolchains\\avr-gcc\\avr\\include\\math.h"
 1809               		.file 10 "c:\\d\\ifsc\\vscodeleandro\\ex\\toolchains\\avr-gcc\\avr\\include\\stdio.h"
 1810               		.file 11 "c:\\d\\ifsc\\vscodeleandro\\ex\\toolchains\\avr-gcc\\avr\\include\\avr\\builtins.h"
GAS LISTING C:\Users\kenne\AppData\Local\Temp\cc2IZjCw.s 			page 72


DEFINED SYMBOLS
                            *ABS*:00000000 main.cpp
C:\Users\kenne\AppData\Local\Temp\cc2IZjCw.s:2      *ABS*:0000003e __SP_H__
C:\Users\kenne\AppData\Local\Temp\cc2IZjCw.s:3      *ABS*:0000003d __SP_L__
C:\Users\kenne\AppData\Local\Temp\cc2IZjCw.s:4      *ABS*:0000003f __SREG__
C:\Users\kenne\AppData\Local\Temp\cc2IZjCw.s:5      *ABS*:00000000 __tmp_reg__
C:\Users\kenne\AppData\Local\Temp\cc2IZjCw.s:6      *ABS*:00000001 __zero_reg__
C:\Users\kenne\AppData\Local\Temp\cc2IZjCw.s:14     .text._Z7getTickv:00000000 _Z7getTickv
C:\Users\kenne\AppData\Local\Temp\cc2IZjCw.s:17     .text._Z7getTickv:00000000 .Loc.0
C:\Users\kenne\AppData\Local\Temp\cc2IZjCw.s:18     .text._Z7getTickv:00000000 L0
C:\Users\kenne\AppData\Local\Temp\cc2IZjCw.s:23     .text._Z7getTickv:00000000 .Loc.1
C:\Users\kenne\AppData\Local\Temp\cc2IZjCw.s:24     .text._Z7getTickv:00000000 .Loc.2
C:\Users\kenne\AppData\Local\Temp\cc2IZjCw.s:30     .text._Z7getTickv:00000008 L0
C:\Users\kenne\AppData\Local\Temp\cc2IZjCw.s:36     .text._Z6typingihh:00000000 _Z6typingihh
C:\Users\kenne\AppData\Local\Temp\cc2IZjCw.s:40     .text._Z6typingihh:00000000 .Loc.3
C:\Users\kenne\AppData\Local\Temp\cc2IZjCw.s:41     .text._Z6typingihh:00000000 L0
C:\Users\kenne\AppData\Local\Temp\cc2IZjCw.s:46     .text._Z6typingihh:00000000 .Loc.4
C:\Users\kenne\AppData\Local\Temp\cc2IZjCw.s:49     .text._Z6typingihh:00000004 .Loc.5
C:\Users\kenne\AppData\Local\Temp\cc2IZjCw.s:56     .text._Z6typingihh:00000010 .Loc.6
C:\Users\kenne\AppData\Local\Temp\cc2IZjCw.s:57     .text._Z6typingihh:00000010 .Loc.7
C:\Users\kenne\AppData\Local\Temp\cc2IZjCw.s:59     .text._Z6typingihh:00000014 L0
C:\Users\kenne\AppData\Local\Temp\cc2IZjCw.s:61     .text._Z6typingihh:00000016 .Loc.8
C:\Users\kenne\AppData\Local\Temp\cc2IZjCw.s:62     .text._Z6typingihh:00000016 .Loc.9
C:\Users\kenne\AppData\Local\Temp\cc2IZjCw.s:65     .text._Z6typingihh:00000018 .Loc.10
C:\Users\kenne\AppData\Local\Temp\cc2IZjCw.s:74     .text._Z6typingihh:00000028 .Loc.11
C:\Users\kenne\AppData\Local\Temp\cc2IZjCw.s:78     .text._Z6typingihh:0000002c .Loc.12
C:\Users\kenne\AppData\Local\Temp\cc2IZjCw.s:79     .text._Z6typingihh:0000002c .Loc.13
C:\Users\kenne\AppData\Local\Temp\cc2IZjCw.s:81     .text._Z6typingihh:0000002c .Loc.14
C:\Users\kenne\AppData\Local\Temp\cc2IZjCw.s:84     .text._Z6typingihh:0000002e .Loc.15
C:\Users\kenne\AppData\Local\Temp\cc2IZjCw.s:85     .text._Z6typingihh:0000002e .Loc.16
C:\Users\kenne\AppData\Local\Temp\cc2IZjCw.s:86     .text._Z6typingihh:0000002e .Loc.17
C:\Users\kenne\AppData\Local\Temp\cc2IZjCw.s:89     .text._Z6typingihh:00000030 .Loc.18
C:\Users\kenne\AppData\Local\Temp\cc2IZjCw.s:92     .text._Z6typingihh:00000032 .Loc.19
C:\Users\kenne\AppData\Local\Temp\cc2IZjCw.s:95     .text._Z6typingihh:00000034 .Loc.20
C:\Users\kenne\AppData\Local\Temp\cc2IZjCw.s:96     .text._Z6typingihh:00000034 .Loc.21
C:\Users\kenne\AppData\Local\Temp\cc2IZjCw.s:99     .text._Z6typingihh:00000038 .Loc.22
C:\Users\kenne\AppData\Local\Temp\cc2IZjCw.s:100    .text._Z6typingihh:00000038 .Loc.23
C:\Users\kenne\AppData\Local\Temp\cc2IZjCw.s:103    .text._Z6typingihh:0000003a .Loc.24
C:\Users\kenne\AppData\Local\Temp\cc2IZjCw.s:112    .text._Z6typingihh:0000004a .Loc.25
C:\Users\kenne\AppData\Local\Temp\cc2IZjCw.s:116    .text._Z6typingihh:0000004e .Loc.26
C:\Users\kenne\AppData\Local\Temp\cc2IZjCw.s:119    .text._Z6typingihh:00000050 .Loc.27
C:\Users\kenne\AppData\Local\Temp\cc2IZjCw.s:120    .text._Z6typingihh:00000050 .Loc.28
C:\Users\kenne\AppData\Local\Temp\cc2IZjCw.s:123    .text._Z6typingihh:00000052 .Loc.29
C:\Users\kenne\AppData\Local\Temp\cc2IZjCw.s:132    .text._Z6typingihh:00000062 .Loc.30
C:\Users\kenne\AppData\Local\Temp\cc2IZjCw.s:136    .text._Z6typingihh:00000066 .Loc.31
C:\Users\kenne\AppData\Local\Temp\cc2IZjCw.s:139    .text._Z6typingihh:00000068 .Loc.32
C:\Users\kenne\AppData\Local\Temp\cc2IZjCw.s:140    .text._Z6typingihh:00000068 .Loc.33
C:\Users\kenne\AppData\Local\Temp\cc2IZjCw.s:143    .text._Z6typingihh:0000006c .Loc.34
C:\Users\kenne\AppData\Local\Temp\cc2IZjCw.s:144    .text._Z6typingihh:0000006c .Loc.35
C:\Users\kenne\AppData\Local\Temp\cc2IZjCw.s:147    .text._Z6typingihh:0000006e .Loc.36
C:\Users\kenne\AppData\Local\Temp\cc2IZjCw.s:156    .text._Z6typingihh:0000007e .Loc.37
C:\Users\kenne\AppData\Local\Temp\cc2IZjCw.s:160    .text._Z6typingihh:00000082 .Loc.38
C:\Users\kenne\AppData\Local\Temp\cc2IZjCw.s:163    .text._Z6typingihh:00000084 .Loc.39
C:\Users\kenne\AppData\Local\Temp\cc2IZjCw.s:164    .text._Z6typingihh:00000084 .Loc.40
C:\Users\kenne\AppData\Local\Temp\cc2IZjCw.s:167    .text._Z6typingihh:00000086 .Loc.41
C:\Users\kenne\AppData\Local\Temp\cc2IZjCw.s:176    .text._Z6typingihh:00000096 .Loc.42
C:\Users\kenne\AppData\Local\Temp\cc2IZjCw.s:180    .text._Z6typingihh:0000009a .Loc.43
GAS LISTING C:\Users\kenne\AppData\Local\Temp\cc2IZjCw.s 			page 73


C:\Users\kenne\AppData\Local\Temp\cc2IZjCw.s:183    .text._Z6typingihh:0000009c .Loc.44
C:\Users\kenne\AppData\Local\Temp\cc2IZjCw.s:184    .text._Z6typingihh:0000009c .Loc.45
C:\Users\kenne\AppData\Local\Temp\cc2IZjCw.s:187    .text._Z6typingihh:0000009e .Loc.46
C:\Users\kenne\AppData\Local\Temp\cc2IZjCw.s:196    .text._Z6typingihh:000000ae .Loc.47
C:\Users\kenne\AppData\Local\Temp\cc2IZjCw.s:200    .text._Z6typingihh:000000b2 .Loc.48
C:\Users\kenne\AppData\Local\Temp\cc2IZjCw.s:202    .text._Z6typingihh:000000b4 L0
C:\Users\kenne\AppData\Local\Temp\cc2IZjCw.s:208    .text._Z8setanglej:00000000 _Z8setanglej
C:\Users\kenne\AppData\Local\Temp\cc2IZjCw.s:211    .text._Z8setanglej:00000000 .Loc.49
C:\Users\kenne\AppData\Local\Temp\cc2IZjCw.s:212    .text._Z8setanglej:00000000 L0
C:\Users\kenne\AppData\Local\Temp\cc2IZjCw.s:217    .text._Z8setanglej:00000000 .Loc.50
C:\Users\kenne\AppData\Local\Temp\cc2IZjCw.s:218    .text._Z8setanglej:00000000 .Loc.51
C:\Users\kenne\AppData\Local\Temp\cc2IZjCw.s:225    .text._Z8setanglej:0000000c .Loc.52
C:\Users\kenne\AppData\Local\Temp\cc2IZjCw.s:228    .text._Z8setanglej:00000010 .Loc.53
C:\Users\kenne\AppData\Local\Temp\cc2IZjCw.s:233    .text._Z8setanglej:00000018 .Loc.54
C:\Users\kenne\AppData\Local\Temp\cc2IZjCw.s:244    .text._Z8setanglej:0000002c .Loc.55
C:\Users\kenne\AppData\Local\Temp\cc2IZjCw.s:254    .text._Z8setanglej:0000003e .Loc.56
C:\Users\kenne\AppData\Local\Temp\cc2IZjCw.s:260    .text._Z8setanglej:00000048 .Loc.57
C:\Users\kenne\AppData\Local\Temp\cc2IZjCw.s:1798   .data.aux:00000000 aux
C:\Users\kenne\AppData\Local\Temp\cc2IZjCw.s:265    .text._Z8setanglej:00000058 .Loc.58
C:\Users\kenne\AppData\Local\Temp\cc2IZjCw.s:270    .text._Z8setanglej:00000058 .Loc.59
C:\Users\kenne\AppData\Local\Temp\cc2IZjCw.s:271    .text._Z8setanglej:00000058 .Loc.60
C:\Users\kenne\AppData\Local\Temp\cc2IZjCw.s:278    .text._Z8setanglej:0000005a .Loc.61
C:\Users\kenne\AppData\Local\Temp\cc2IZjCw.s:280    .text._Z8setanglej:0000005a .Loc.62
C:\Users\kenne\AppData\Local\Temp\cc2IZjCw.s:285    .text._Z8setanglej:0000005c .Loc.63
C:\Users\kenne\AppData\Local\Temp\cc2IZjCw.s:287    .text._Z8setanglej:0000005c .Loc.64
C:\Users\kenne\AppData\Local\Temp\cc2IZjCw.s:291    .text._Z8setanglej:0000005c .Loc.65
C:\Users\kenne\AppData\Local\Temp\cc2IZjCw.s:292    .text._Z8setanglej:0000005c .Loc.66
C:\Users\kenne\AppData\Local\Temp\cc2IZjCw.s:293    .text._Z8setanglej:0000005c .Loc.67
C:\Users\kenne\AppData\Local\Temp\cc2IZjCw.s:296    .text._Z8setanglej:00000064 .Loc.68
C:\Users\kenne\AppData\Local\Temp\cc2IZjCw.s:298    .text._Z8setanglej:00000064 .Loc.69
C:\Users\kenne\AppData\Local\Temp\cc2IZjCw.s:301    .text._Z8setanglej:00000064 .Loc.70
C:\Users\kenne\AppData\Local\Temp\cc2IZjCw.s:303    .text._Z8setanglej:00000064 .Loc.71
C:\Users\kenne\AppData\Local\Temp\cc2IZjCw.s:304    .text._Z8setanglej:00000064 .Loc.72
C:\Users\kenne\AppData\Local\Temp\cc2IZjCw.s:306    .text._Z8setanglej:00000066 .Loc.73
C:\Users\kenne\AppData\Local\Temp\cc2IZjCw.s:308    .text._Z8setanglej:00000066 .Loc.74
C:\Users\kenne\AppData\Local\Temp\cc2IZjCw.s:312    .text._Z8setanglej:00000066 .Loc.75
C:\Users\kenne\AppData\Local\Temp\cc2IZjCw.s:314    .text._Z8setanglej:00000066 .Loc.76
C:\Users\kenne\AppData\Local\Temp\cc2IZjCw.s:316    .text._Z8setanglej:00000066 .Loc.77
C:\Users\kenne\AppData\Local\Temp\cc2IZjCw.s:318    .text._Z8setanglej:00000068 L0
C:\Users\kenne\AppData\Local\Temp\cc2IZjCw.s:324    .text._Z8getanglem:00000000 _Z8getanglem
C:\Users\kenne\AppData\Local\Temp\cc2IZjCw.s:327    .text._Z8getanglem:00000000 .Loc.78
C:\Users\kenne\AppData\Local\Temp\cc2IZjCw.s:328    .text._Z8getanglem:00000000 L0
C:\Users\kenne\AppData\Local\Temp\cc2IZjCw.s:329    .text._Z8getanglem:00000000 .Loc.79
C:\Users\kenne\AppData\Local\Temp\cc2IZjCw.s:336    .text._Z8getanglem:00000006 L0
C:\Users\kenne\AppData\Local\Temp\cc2IZjCw.s:337    .text._Z8getanglem:00000008 L0
C:\Users\kenne\AppData\Local\Temp\cc2IZjCw.s:350    .text._Z8getanglem:00000012 .Loc.80
C:\Users\kenne\AppData\Local\Temp\cc2IZjCw.s:352    .text._Z8getanglem:00000014 .Loc.81
C:\Users\kenne\AppData\Local\Temp\cc2IZjCw.s:353    .text._Z8getanglem:00000014 .Loc.82
C:\Users\kenne\AppData\Local\Temp\cc2IZjCw.s:354    .text._Z8getanglem:00000014 .Loc.83
C:\Users\kenne\AppData\Local\Temp\cc2IZjCw.s:355    .text._Z8getanglem:00000014 .Loc.84
C:\Users\kenne\AppData\Local\Temp\cc2IZjCw.s:374    .text._Z8getanglem:00000038 .Loc.85
C:\Users\kenne\AppData\Local\Temp\cc2IZjCw.s:380    .text._Z8getanglem:00000040 .Loc.86
C:\Users\kenne\AppData\Local\Temp\cc2IZjCw.s:381    .text._Z8getanglem:00000040 .Loc.87
C:\Users\kenne\AppData\Local\Temp\cc2IZjCw.s:397    .text._Z8getanglem:0000005c .Loc.88
C:\Users\kenne\AppData\Local\Temp\cc2IZjCw.s:408    .text._Z8getanglem:00000070 .Loc.89
C:\Users\kenne\AppData\Local\Temp\cc2IZjCw.s:416    .text._Z8getanglem:00000080 .Loc.90
C:\Users\kenne\AppData\Local\Temp\cc2IZjCw.s:418    .text._Z8getanglem:00000082 .Loc.91
GAS LISTING C:\Users\kenne\AppData\Local\Temp\cc2IZjCw.s 			page 74


C:\Users\kenne\AppData\Local\Temp\cc2IZjCw.s:422    .text._Z8getanglem:00000088 .Loc.92
C:\Users\kenne\AppData\Local\Temp\cc2IZjCw.s:423    .text._Z8getanglem:00000088 .Loc.93
C:\Users\kenne\AppData\Local\Temp\cc2IZjCw.s:426    .text._Z8getanglem:0000008a .Loc.94
C:\Users\kenne\AppData\Local\Temp\cc2IZjCw.s:427    .text._Z8getanglem:0000008a .Loc.95
C:\Users\kenne\AppData\Local\Temp\cc2IZjCw.s:430    .text._Z8getanglem:0000008a .Loc.96
C:\Users\kenne\AppData\Local\Temp\cc2IZjCw.s:438    .text._Z8getanglem:00000098 L0
C:\Users\kenne\AppData\Local\Temp\cc2IZjCw.s:457    .text.main:00000000 main
C:\Users\kenne\AppData\Local\Temp\cc2IZjCw.s:459    .text.main:00000000 .Loc.97
C:\Users\kenne\AppData\Local\Temp\cc2IZjCw.s:460    .text.main:00000000 L0
C:\Users\kenne\AppData\Local\Temp\cc2IZjCw.s:475    .text.main:00000010 .Loc.98
C:\Users\kenne\AppData\Local\Temp\cc2IZjCw.s:476    .text.main:00000010 .Loc.99
C:\Users\kenne\AppData\Local\Temp\cc2IZjCw.s:481    .text.main:00000018 .Loc.100
C:\Users\kenne\AppData\Local\Temp\cc2IZjCw.s:482    .text.main:00000018 .Loc.101
C:\Users\kenne\AppData\Local\Temp\cc2IZjCw.s:490    .text.main:00000026 .Loc.102
C:\Users\kenne\AppData\Local\Temp\cc2IZjCw.s:491    .text.main:00000026 .Loc.103
C:\Users\kenne\AppData\Local\Temp\cc2IZjCw.s:501    .text.main:00000038 .Loc.104
C:\Users\kenne\AppData\Local\Temp\cc2IZjCw.s:502    .text.main:00000038 .Loc.105
C:\Users\kenne\AppData\Local\Temp\cc2IZjCw.s:556    .text.main:000000a2 .Loc.106
C:\Users\kenne\AppData\Local\Temp\cc2IZjCw.s:557    .text.main:000000a2 .Loc.107
C:\Users\kenne\AppData\Local\Temp\cc2IZjCw.s:567    .text.main:000000b4 .Loc.108
C:\Users\kenne\AppData\Local\Temp\cc2IZjCw.s:568    .text.main:000000b4 .Loc.109
C:\Users\kenne\AppData\Local\Temp\cc2IZjCw.s:578    .text.main:000000c6 .Loc.110
C:\Users\kenne\AppData\Local\Temp\cc2IZjCw.s:579    .text.main:000000c6 .Loc.111
C:\Users\kenne\AppData\Local\Temp\cc2IZjCw.s:587    .text.main:000000d4 .Loc.112
C:\Users\kenne\AppData\Local\Temp\cc2IZjCw.s:588    .text.main:000000d4 .Loc.113
C:\Users\kenne\AppData\Local\Temp\cc2IZjCw.s:597    .text.main:000000e4 .Loc.114
C:\Users\kenne\AppData\Local\Temp\cc2IZjCw.s:598    .text.main:000000e4 .Loc.115
C:\Users\kenne\AppData\Local\Temp\cc2IZjCw.s:603    .text.main:000000ec .Loc.116
C:\Users\kenne\AppData\Local\Temp\cc2IZjCw.s:604    .text.main:000000ec .Loc.117
C:\Users\kenne\AppData\Local\Temp\cc2IZjCw.s:609    .text.main:000000f4 .Loc.118
C:\Users\kenne\AppData\Local\Temp\cc2IZjCw.s:613    .text.main:000000f4 .Loc.119
C:\Users\kenne\AppData\Local\Temp\cc2IZjCw.s:615    .text.main:000000f4 .Loc.120
C:\Users\kenne\AppData\Local\Temp\cc2IZjCw.s:616    .text.main:000000f4 .Loc.121
C:\Users\kenne\AppData\Local\Temp\cc2IZjCw.s:617    .text.main:000000f4 .Loc.122
C:\Users\kenne\AppData\Local\Temp\cc2IZjCw.s:618    .text.main:000000f4 .Loc.123
C:\Users\kenne\AppData\Local\Temp\cc2IZjCw.s:619    .text.main:000000f4 .Loc.124
C:\Users\kenne\AppData\Local\Temp\cc2IZjCw.s:620    .text.main:000000f4 .Loc.125
C:\Users\kenne\AppData\Local\Temp\cc2IZjCw.s:621    .text.main:000000f4 .Loc.126
C:\Users\kenne\AppData\Local\Temp\cc2IZjCw.s:629    .text.main:00000104 L0
C:\Users\kenne\AppData\Local\Temp\cc2IZjCw.s:632    .text.main:00000106 .Loc.127
C:\Users\kenne\AppData\Local\Temp\cc2IZjCw.s:635    .text.main:00000106 .Loc.128
C:\Users\kenne\AppData\Local\Temp\cc2IZjCw.s:636    .text.main:00000106 .Loc.129
C:\Users\kenne\AppData\Local\Temp\cc2IZjCw.s:641    .text.main:0000010e .Loc.130
C:\Users\kenne\AppData\Local\Temp\cc2IZjCw.s:645    .text.main:00000114 .Loc.131
C:\Users\kenne\AppData\Local\Temp\cc2IZjCw.s:649    .text.main:0000011a .Loc.132
C:\Users\kenne\AppData\Local\Temp\cc2IZjCw.s:650    .text.main:0000011a .Loc.133
C:\Users\kenne\AppData\Local\Temp\cc2IZjCw.s:655    .text.main:00000122 .Loc.134
C:\Users\kenne\AppData\Local\Temp\cc2IZjCw.s:656    .text.main:00000122 .Loc.135
C:\Users\kenne\AppData\Local\Temp\cc2IZjCw.s:663    .text.main:0000012e .Loc.136
C:\Users\kenne\AppData\Local\Temp\cc2IZjCw.s:664    .text.main:0000012e .Loc.137
C:\Users\kenne\AppData\Local\Temp\cc2IZjCw.s:671    .text.main:0000013a .Loc.138
C:\Users\kenne\AppData\Local\Temp\cc2IZjCw.s:674    .text.main:0000013a .Loc.139
C:\Users\kenne\AppData\Local\Temp\cc2IZjCw.s:675    .text.main:0000013a .Loc.140
C:\Users\kenne\AppData\Local\Temp\cc2IZjCw.s:681    .text.main:0000013c .Loc.141
C:\Users\kenne\AppData\Local\Temp\cc2IZjCw.s:683    .text.main:0000013c .Loc.142
C:\Users\kenne\AppData\Local\Temp\cc2IZjCw.s:688    .text.main:0000013e .Loc.143
C:\Users\kenne\AppData\Local\Temp\cc2IZjCw.s:690    .text.main:0000013e .Loc.144
GAS LISTING C:\Users\kenne\AppData\Local\Temp\cc2IZjCw.s 			page 75


C:\Users\kenne\AppData\Local\Temp\cc2IZjCw.s:694    .text.main:0000013e .Loc.145
C:\Users\kenne\AppData\Local\Temp\cc2IZjCw.s:695    .text.main:0000013e .Loc.146
C:\Users\kenne\AppData\Local\Temp\cc2IZjCw.s:696    .text.main:0000013e .Loc.147
C:\Users\kenne\AppData\Local\Temp\cc2IZjCw.s:701    .text.main:0000014a .Loc.148
C:\Users\kenne\AppData\Local\Temp\cc2IZjCw.s:703    .text.main:0000014a .Loc.149
C:\Users\kenne\AppData\Local\Temp\cc2IZjCw.s:706    .text.main:0000014a .Loc.150
C:\Users\kenne\AppData\Local\Temp\cc2IZjCw.s:708    .text.main:0000014a .Loc.151
C:\Users\kenne\AppData\Local\Temp\cc2IZjCw.s:709    .text.main:0000014a .Loc.152
C:\Users\kenne\AppData\Local\Temp\cc2IZjCw.s:711    .text.main:0000014c .Loc.153
C:\Users\kenne\AppData\Local\Temp\cc2IZjCw.s:713    .text.main:0000014c .Loc.154
C:\Users\kenne\AppData\Local\Temp\cc2IZjCw.s:717    .text.main:0000014c .Loc.155
C:\Users\kenne\AppData\Local\Temp\cc2IZjCw.s:718    .text.main:0000014c .Loc.156
C:\Users\kenne\AppData\Local\Temp\cc2IZjCw.s:720    .text.main:0000014c .Loc.157
C:\Users\kenne\AppData\Local\Temp\cc2IZjCw.s:723    .text.main:0000014c .Loc.158
C:\Users\kenne\AppData\Local\Temp\cc2IZjCw.s:724    .text.main:0000014c .Loc.159
C:\Users\kenne\AppData\Local\Temp\cc2IZjCw.s:730    .text.main:0000014e .Loc.160
C:\Users\kenne\AppData\Local\Temp\cc2IZjCw.s:732    .text.main:0000014e .Loc.161
C:\Users\kenne\AppData\Local\Temp\cc2IZjCw.s:737    .text.main:00000150 .Loc.162
C:\Users\kenne\AppData\Local\Temp\cc2IZjCw.s:739    .text.main:00000150 .Loc.163
C:\Users\kenne\AppData\Local\Temp\cc2IZjCw.s:743    .text.main:00000150 .Loc.164
C:\Users\kenne\AppData\Local\Temp\cc2IZjCw.s:744    .text.main:00000150 .Loc.165
C:\Users\kenne\AppData\Local\Temp\cc2IZjCw.s:745    .text.main:00000150 .Loc.166
C:\Users\kenne\AppData\Local\Temp\cc2IZjCw.s:752    .text.main:0000015c .Loc.167
C:\Users\kenne\AppData\Local\Temp\cc2IZjCw.s:754    .text.main:0000015c .Loc.168
C:\Users\kenne\AppData\Local\Temp\cc2IZjCw.s:757    .text.main:0000015c .Loc.169
C:\Users\kenne\AppData\Local\Temp\cc2IZjCw.s:759    .text.main:0000015c .Loc.170
C:\Users\kenne\AppData\Local\Temp\cc2IZjCw.s:760    .text.main:0000015c .Loc.171
C:\Users\kenne\AppData\Local\Temp\cc2IZjCw.s:762    .text.main:0000015e .Loc.172
C:\Users\kenne\AppData\Local\Temp\cc2IZjCw.s:764    .text.main:0000015e .Loc.173
C:\Users\kenne\AppData\Local\Temp\cc2IZjCw.s:768    .text.main:0000015e .Loc.174
C:\Users\kenne\AppData\Local\Temp\cc2IZjCw.s:769    .text.main:0000015e .Loc.175
C:\Users\kenne\AppData\Local\Temp\cc2IZjCw.s:771    .text.main:0000015e .Loc.176
C:\Users\kenne\AppData\Local\Temp\cc2IZjCw.s:774    .text.main:0000015e .Loc.177
C:\Users\kenne\AppData\Local\Temp\cc2IZjCw.s:775    .text.main:0000015e .Loc.178
C:\Users\kenne\AppData\Local\Temp\cc2IZjCw.s:781    .text.main:00000160 .Loc.179
C:\Users\kenne\AppData\Local\Temp\cc2IZjCw.s:783    .text.main:00000160 .Loc.180
C:\Users\kenne\AppData\Local\Temp\cc2IZjCw.s:788    .text.main:00000162 .Loc.181
C:\Users\kenne\AppData\Local\Temp\cc2IZjCw.s:790    .text.main:00000162 .Loc.182
C:\Users\kenne\AppData\Local\Temp\cc2IZjCw.s:794    .text.main:00000162 .Loc.183
C:\Users\kenne\AppData\Local\Temp\cc2IZjCw.s:795    .text.main:00000162 .Loc.184
C:\Users\kenne\AppData\Local\Temp\cc2IZjCw.s:796    .text.main:00000162 .Loc.185
C:\Users\kenne\AppData\Local\Temp\cc2IZjCw.s:801    .text.main:0000016a .Loc.186
C:\Users\kenne\AppData\Local\Temp\cc2IZjCw.s:803    .text.main:0000016a .Loc.187
C:\Users\kenne\AppData\Local\Temp\cc2IZjCw.s:806    .text.main:0000016a .Loc.188
C:\Users\kenne\AppData\Local\Temp\cc2IZjCw.s:808    .text.main:0000016a .Loc.189
C:\Users\kenne\AppData\Local\Temp\cc2IZjCw.s:809    .text.main:0000016a .Loc.190
C:\Users\kenne\AppData\Local\Temp\cc2IZjCw.s:811    .text.main:0000016c .Loc.191
C:\Users\kenne\AppData\Local\Temp\cc2IZjCw.s:813    .text.main:0000016c .Loc.192
C:\Users\kenne\AppData\Local\Temp\cc2IZjCw.s:817    .text.main:0000016c .Loc.193
C:\Users\kenne\AppData\Local\Temp\cc2IZjCw.s:818    .text.main:0000016c .Loc.194
C:\Users\kenne\AppData\Local\Temp\cc2IZjCw.s:820    .text.main:0000016c .Loc.195
C:\Users\kenne\AppData\Local\Temp\cc2IZjCw.s:821    .text.main:0000016c .Loc.196
C:\Users\kenne\AppData\Local\Temp\cc2IZjCw.s:822    .text.main:0000016c .Loc.197
C:\Users\kenne\AppData\Local\Temp\cc2IZjCw.s:828    .text.main:00000174 .Loc.198
C:\Users\kenne\AppData\Local\Temp\cc2IZjCw.s:829    .text.main:00000174 .Loc.199
C:\Users\kenne\AppData\Local\Temp\cc2IZjCw.s:835    .text.main:00000176 .Loc.200
C:\Users\kenne\AppData\Local\Temp\cc2IZjCw.s:837    .text.main:00000176 .Loc.201
GAS LISTING C:\Users\kenne\AppData\Local\Temp\cc2IZjCw.s 			page 76


C:\Users\kenne\AppData\Local\Temp\cc2IZjCw.s:842    .text.main:00000178 .Loc.202
C:\Users\kenne\AppData\Local\Temp\cc2IZjCw.s:844    .text.main:00000178 .Loc.203
C:\Users\kenne\AppData\Local\Temp\cc2IZjCw.s:848    .text.main:00000178 .Loc.204
C:\Users\kenne\AppData\Local\Temp\cc2IZjCw.s:849    .text.main:00000178 .Loc.205
C:\Users\kenne\AppData\Local\Temp\cc2IZjCw.s:850    .text.main:00000178 .Loc.206
C:\Users\kenne\AppData\Local\Temp\cc2IZjCw.s:853    .text.main:0000017c .Loc.207
C:\Users\kenne\AppData\Local\Temp\cc2IZjCw.s:855    .text.main:0000017c .Loc.208
C:\Users\kenne\AppData\Local\Temp\cc2IZjCw.s:858    .text.main:0000017c .Loc.209
C:\Users\kenne\AppData\Local\Temp\cc2IZjCw.s:860    .text.main:0000017c .Loc.210
C:\Users\kenne\AppData\Local\Temp\cc2IZjCw.s:861    .text.main:0000017c .Loc.211
C:\Users\kenne\AppData\Local\Temp\cc2IZjCw.s:863    .text.main:0000017e .Loc.212
C:\Users\kenne\AppData\Local\Temp\cc2IZjCw.s:865    .text.main:0000017e .Loc.213
C:\Users\kenne\AppData\Local\Temp\cc2IZjCw.s:869    .text.main:0000017e .Loc.214
C:\Users\kenne\AppData\Local\Temp\cc2IZjCw.s:870    .text.main:0000017e .Loc.215
C:\Users\kenne\AppData\Local\Temp\cc2IZjCw.s:872    .text.main:0000017e .Loc.216
C:\Users\kenne\AppData\Local\Temp\cc2IZjCw.s:873    .text.main:0000017e .Loc.217
C:\Users\kenne\AppData\Local\Temp\cc2IZjCw.s:874    .text.main:0000017e .Loc.218
C:\Users\kenne\AppData\Local\Temp\cc2IZjCw.s:875    .text.main:0000017e .Loc.219
C:\Users\kenne\AppData\Local\Temp\cc2IZjCw.s:878    .text.main:00000182 .Loc.220
C:\Users\kenne\AppData\Local\Temp\cc2IZjCw.s:883    .text.main:00000186 .Loc.221
C:\Users\kenne\AppData\Local\Temp\cc2IZjCw.s:884    .text.main:00000186 .Loc.222
C:\Users\kenne\AppData\Local\Temp\cc2IZjCw.s:885    .text.main:00000186 .Loc.223
C:\Users\kenne\AppData\Local\Temp\cc2IZjCw.s:892    .text.main:00000192 .Loc.224
C:\Users\kenne\AppData\Local\Temp\cc2IZjCw.s:893    .text.main:00000192 .Loc.225
C:\Users\kenne\AppData\Local\Temp\cc2IZjCw.s:906    .text.main:000001b2 .Loc.226
C:\Users\kenne\AppData\Local\Temp\cc2IZjCw.s:1792   .bss.angulo:00000000 angulo
C:\Users\kenne\AppData\Local\Temp\cc2IZjCw.s:909    .text.main:000001ba .Loc.227
C:\Users\kenne\AppData\Local\Temp\cc2IZjCw.s:910    .text.main:000001ba .Loc.228
C:\Users\kenne\AppData\Local\Temp\cc2IZjCw.s:915    .text.main:000001c2 .Loc.229
C:\Users\kenne\AppData\Local\Temp\cc2IZjCw.s:916    .text.main:000001c2 .Loc.230
C:\Users\kenne\AppData\Local\Temp\cc2IZjCw.s:927    .text.main:000001da .Loc.231
C:\Users\kenne\AppData\Local\Temp\cc2IZjCw.s:930    .text.main:000001da .Loc.232
C:\Users\kenne\AppData\Local\Temp\cc2IZjCw.s:932    .text.main:000001da .Loc.233
C:\Users\kenne\AppData\Local\Temp\cc2IZjCw.s:933    .text.main:000001da .Loc.234
C:\Users\kenne\AppData\Local\Temp\cc2IZjCw.s:934    .text.main:000001da .Loc.235
C:\Users\kenne\AppData\Local\Temp\cc2IZjCw.s:935    .text.main:000001da .Loc.236
C:\Users\kenne\AppData\Local\Temp\cc2IZjCw.s:936    .text.main:000001da .Loc.237
C:\Users\kenne\AppData\Local\Temp\cc2IZjCw.s:937    .text.main:000001da .Loc.238
C:\Users\kenne\AppData\Local\Temp\cc2IZjCw.s:938    .text.main:000001da .Loc.239
C:\Users\kenne\AppData\Local\Temp\cc2IZjCw.s:946    .text.main:000001ea L0
C:\Users\kenne\AppData\Local\Temp\cc2IZjCw.s:948    .text.main:000001ec .Loc.240
C:\Users\kenne\AppData\Local\Temp\cc2IZjCw.s:956    .text.main:000001f6 .Loc.241
C:\Users\kenne\AppData\Local\Temp\cc2IZjCw.s:961    .text.main:000001fa .Loc.242
C:\Users\kenne\AppData\Local\Temp\cc2IZjCw.s:965    .text.main:000001fe .Loc.243
C:\Users\kenne\AppData\Local\Temp\cc2IZjCw.s:968    .text.main:00000200 .Loc.244
C:\Users\kenne\AppData\Local\Temp\cc2IZjCw.s:972    .text.main:00000202 .Loc.245
C:\Users\kenne\AppData\Local\Temp\cc2IZjCw.s:975    .text.main:00000206 .Loc.246
C:\Users\kenne\AppData\Local\Temp\cc2IZjCw.s:976    .text.main:00000206 .Loc.247
C:\Users\kenne\AppData\Local\Temp\cc2IZjCw.s:989    .text.main:00000226 .Loc.248
C:\Users\kenne\AppData\Local\Temp\cc2IZjCw.s:992    .text.main:0000022e .Loc.249
C:\Users\kenne\AppData\Local\Temp\cc2IZjCw.s:993    .text.main:0000022e .Loc.250
C:\Users\kenne\AppData\Local\Temp\cc2IZjCw.s:1001   .text.main:0000023c .Loc.251
C:\Users\kenne\AppData\Local\Temp\cc2IZjCw.s:1002   .text.main:0000023c .Loc.252
C:\Users\kenne\AppData\Local\Temp\cc2IZjCw.s:1005   .text.main:00000242 L0
C:\Users\kenne\AppData\Local\Temp\cc2IZjCw.s:1009   .text.main:0000024a L0
C:\Users\kenne\AppData\Local\Temp\cc2IZjCw.s:1013   .text.main:00000250 .Loc.253
C:\Users\kenne\AppData\Local\Temp\cc2IZjCw.s:1014   .text.main:00000250 .Loc.254
GAS LISTING C:\Users\kenne\AppData\Local\Temp\cc2IZjCw.s 			page 77


C:\Users\kenne\AppData\Local\Temp\cc2IZjCw.s:1015   .text.main:00000250 .Loc.255
C:\Users\kenne\AppData\Local\Temp\cc2IZjCw.s:1023   .text.main:00000266 .Loc.256
C:\Users\kenne\AppData\Local\Temp\cc2IZjCw.s:1028   .text.main:00000276 .Loc.257
C:\Users\kenne\AppData\Local\Temp\cc2IZjCw.s:1034   .text.main:00000280 .Loc.258
C:\Users\kenne\AppData\Local\Temp\cc2IZjCw.s:1035   .text.main:00000280 .Loc.259
C:\Users\kenne\AppData\Local\Temp\cc2IZjCw.s:1045   .text.main:00000298 .Loc.260
C:\Users\kenne\AppData\Local\Temp\cc2IZjCw.s:1046   .text.main:00000298 .Loc.261
C:\Users\kenne\AppData\Local\Temp\cc2IZjCw.s:1051   .text.main:000002a8 .Loc.262
C:\Users\kenne\AppData\Local\Temp\cc2IZjCw.s:1052   .text.main:000002a8 .Loc.263
C:\Users\kenne\AppData\Local\Temp\cc2IZjCw.s:1065   .text.main:000002c8 .Loc.264
C:\Users\kenne\AppData\Local\Temp\cc2IZjCw.s:1068   .text.main:000002d0 .Loc.265
C:\Users\kenne\AppData\Local\Temp\cc2IZjCw.s:1069   .text.main:000002d0 .Loc.266
C:\Users\kenne\AppData\Local\Temp\cc2IZjCw.s:1074   .text.main:000002d8 .Loc.267
C:\Users\kenne\AppData\Local\Temp\cc2IZjCw.s:1075   .text.main:000002d8 .Loc.268
C:\Users\kenne\AppData\Local\Temp\cc2IZjCw.s:1086   .text.main:000002f0 .Loc.269
C:\Users\kenne\AppData\Local\Temp\cc2IZjCw.s:1089   .text.main:000002f0 .Loc.270
C:\Users\kenne\AppData\Local\Temp\cc2IZjCw.s:1091   .text.main:000002f0 .Loc.271
C:\Users\kenne\AppData\Local\Temp\cc2IZjCw.s:1092   .text.main:000002f0 .Loc.272
C:\Users\kenne\AppData\Local\Temp\cc2IZjCw.s:1093   .text.main:000002f0 .Loc.273
C:\Users\kenne\AppData\Local\Temp\cc2IZjCw.s:1094   .text.main:000002f0 .Loc.274
C:\Users\kenne\AppData\Local\Temp\cc2IZjCw.s:1095   .text.main:000002f0 .Loc.275
C:\Users\kenne\AppData\Local\Temp\cc2IZjCw.s:1096   .text.main:000002f0 .Loc.276
C:\Users\kenne\AppData\Local\Temp\cc2IZjCw.s:1097   .text.main:000002f0 .Loc.277
C:\Users\kenne\AppData\Local\Temp\cc2IZjCw.s:1105   .text.main:00000300 L0
C:\Users\kenne\AppData\Local\Temp\cc2IZjCw.s:1107   .text.main:00000302 .Loc.278
C:\Users\kenne\AppData\Local\Temp\cc2IZjCw.s:1115   .text.main:0000030c .Loc.279
C:\Users\kenne\AppData\Local\Temp\cc2IZjCw.s:1118   .text.main:0000030c .Loc.280
C:\Users\kenne\AppData\Local\Temp\cc2IZjCw.s:1119   .text.main:0000030c .Loc.281
C:\Users\kenne\AppData\Local\Temp\cc2IZjCw.s:1120   .text.main:0000030c .Loc.282
C:\Users\kenne\AppData\Local\Temp\cc2IZjCw.s:1129   .text.main:00000324 .Loc.283
C:\Users\kenne\AppData\Local\Temp\cc2IZjCw.s:1130   .text.main:00000324 .Loc.284
C:\Users\kenne\AppData\Local\Temp\cc2IZjCw.s:1133   .text.main:0000032c .Loc.285
C:\Users\kenne\AppData\Local\Temp\cc2IZjCw.s:1134   .text.main:0000032c .Loc.286
C:\Users\kenne\AppData\Local\Temp\cc2IZjCw.s:1147   .text.main:0000034c .Loc.287
C:\Users\kenne\AppData\Local\Temp\cc2IZjCw.s:1150   .text.main:00000354 .Loc.288
C:\Users\kenne\AppData\Local\Temp\cc2IZjCw.s:1151   .text.main:00000354 .Loc.289
C:\Users\kenne\AppData\Local\Temp\cc2IZjCw.s:1156   .text.main:0000035c .Loc.290
C:\Users\kenne\AppData\Local\Temp\cc2IZjCw.s:1157   .text.main:0000035c .Loc.291
C:\Users\kenne\AppData\Local\Temp\cc2IZjCw.s:1168   .text.main:00000374 .Loc.292
C:\Users\kenne\AppData\Local\Temp\cc2IZjCw.s:1171   .text.main:00000374 .Loc.293
C:\Users\kenne\AppData\Local\Temp\cc2IZjCw.s:1173   .text.main:00000374 .Loc.294
C:\Users\kenne\AppData\Local\Temp\cc2IZjCw.s:1174   .text.main:00000374 .Loc.295
C:\Users\kenne\AppData\Local\Temp\cc2IZjCw.s:1175   .text.main:00000374 .Loc.296
C:\Users\kenne\AppData\Local\Temp\cc2IZjCw.s:1176   .text.main:00000374 .Loc.297
C:\Users\kenne\AppData\Local\Temp\cc2IZjCw.s:1177   .text.main:00000374 .Loc.298
C:\Users\kenne\AppData\Local\Temp\cc2IZjCw.s:1178   .text.main:00000374 .Loc.299
C:\Users\kenne\AppData\Local\Temp\cc2IZjCw.s:1179   .text.main:00000374 .Loc.300
C:\Users\kenne\AppData\Local\Temp\cc2IZjCw.s:1187   .text.main:00000384 L0
C:\Users\kenne\AppData\Local\Temp\cc2IZjCw.s:1189   .text.main:00000386 .Loc.301
C:\Users\kenne\AppData\Local\Temp\cc2IZjCw.s:1197   .text.main:00000390 .Loc.302
C:\Users\kenne\AppData\Local\Temp\cc2IZjCw.s:1200   .text.main:00000390 .Loc.303
C:\Users\kenne\AppData\Local\Temp\cc2IZjCw.s:1201   .text.main:00000390 .Loc.304
C:\Users\kenne\AppData\Local\Temp\cc2IZjCw.s:1202   .text.main:00000390 .Loc.305
C:\Users\kenne\AppData\Local\Temp\cc2IZjCw.s:1210   .text.main:000003a6 .Loc.306
C:\Users\kenne\AppData\Local\Temp\cc2IZjCw.s:1215   .text.main:000003b6 .Loc.307
C:\Users\kenne\AppData\Local\Temp\cc2IZjCw.s:1221   .text.main:000003c0 .Loc.308
C:\Users\kenne\AppData\Local\Temp\cc2IZjCw.s:1222   .text.main:000003c0 .Loc.309
GAS LISTING C:\Users\kenne\AppData\Local\Temp\cc2IZjCw.s 			page 78


C:\Users\kenne\AppData\Local\Temp\cc2IZjCw.s:1232   .text.main:000003d8 .Loc.310
C:\Users\kenne\AppData\Local\Temp\cc2IZjCw.s:1233   .text.main:000003d8 .Loc.311
C:\Users\kenne\AppData\Local\Temp\cc2IZjCw.s:1238   .text.main:000003e8 .Loc.312
C:\Users\kenne\AppData\Local\Temp\cc2IZjCw.s:1239   .text.main:000003e8 .Loc.313
C:\Users\kenne\AppData\Local\Temp\cc2IZjCw.s:1252   .text.main:00000408 .Loc.314
C:\Users\kenne\AppData\Local\Temp\cc2IZjCw.s:1255   .text.main:00000410 .Loc.315
C:\Users\kenne\AppData\Local\Temp\cc2IZjCw.s:1256   .text.main:00000410 .Loc.316
C:\Users\kenne\AppData\Local\Temp\cc2IZjCw.s:1261   .text.main:00000418 .Loc.317
C:\Users\kenne\AppData\Local\Temp\cc2IZjCw.s:1262   .text.main:00000418 .Loc.318
C:\Users\kenne\AppData\Local\Temp\cc2IZjCw.s:1273   .text.main:00000430 .Loc.319
C:\Users\kenne\AppData\Local\Temp\cc2IZjCw.s:1276   .text.main:00000430 .Loc.320
C:\Users\kenne\AppData\Local\Temp\cc2IZjCw.s:1278   .text.main:00000430 .Loc.321
C:\Users\kenne\AppData\Local\Temp\cc2IZjCw.s:1279   .text.main:00000430 .Loc.322
C:\Users\kenne\AppData\Local\Temp\cc2IZjCw.s:1280   .text.main:00000430 .Loc.323
C:\Users\kenne\AppData\Local\Temp\cc2IZjCw.s:1281   .text.main:00000430 .Loc.324
C:\Users\kenne\AppData\Local\Temp\cc2IZjCw.s:1282   .text.main:00000430 .Loc.325
C:\Users\kenne\AppData\Local\Temp\cc2IZjCw.s:1283   .text.main:00000430 .Loc.326
C:\Users\kenne\AppData\Local\Temp\cc2IZjCw.s:1284   .text.main:00000430 .Loc.327
C:\Users\kenne\AppData\Local\Temp\cc2IZjCw.s:1292   .text.main:00000440 L0
C:\Users\kenne\AppData\Local\Temp\cc2IZjCw.s:1294   .text.main:00000442 .Loc.328
C:\Users\kenne\AppData\Local\Temp\cc2IZjCw.s:1300   .text.main:0000044a .Loc.329
C:\Users\kenne\AppData\Local\Temp\cc2IZjCw.s:1304   .text.main:0000044c .Loc.330
C:\Users\kenne\AppData\Local\Temp\cc2IZjCw.s:1307   .text.main:0000044c .Loc.331
C:\Users\kenne\AppData\Local\Temp\cc2IZjCw.s:1308   .text.main:0000044c .Loc.332
C:\Users\kenne\AppData\Local\Temp\cc2IZjCw.s:1309   .text.main:0000044c .Loc.333
C:\Users\kenne\AppData\Local\Temp\cc2IZjCw.s:1322   .text.main:0000046c .Loc.334
C:\Users\kenne\AppData\Local\Temp\cc2IZjCw.s:1325   .text.main:00000474 .Loc.335
C:\Users\kenne\AppData\Local\Temp\cc2IZjCw.s:1326   .text.main:00000474 .Loc.336
C:\Users\kenne\AppData\Local\Temp\cc2IZjCw.s:1331   .text.main:0000047c .Loc.337
C:\Users\kenne\AppData\Local\Temp\cc2IZjCw.s:1332   .text.main:0000047c .Loc.338
C:\Users\kenne\AppData\Local\Temp\cc2IZjCw.s:1343   .text.main:00000494 .Loc.339
C:\Users\kenne\AppData\Local\Temp\cc2IZjCw.s:1344   .text.main:00000494 .Loc.340
C:\Users\kenne\AppData\Local\Temp\cc2IZjCw.s:1351   .text.main:000004a0 .Loc.341
C:\Users\kenne\AppData\Local\Temp\cc2IZjCw.s:1352   .text.main:000004a0 .Loc.342
C:\Users\kenne\AppData\Local\Temp\cc2IZjCw.s:1359   .text.main:000004ac .Loc.343
C:\Users\kenne\AppData\Local\Temp\cc2IZjCw.s:1360   .text.main:000004ac .Loc.344
C:\Users\kenne\AppData\Local\Temp\cc2IZjCw.s:1367   .text.main:000004b8 .Loc.345
C:\Users\kenne\AppData\Local\Temp\cc2IZjCw.s:1376   .text.main:000004c4 .Loc.346
C:\Users\kenne\AppData\Local\Temp\cc2IZjCw.s:1381   .text.main:000004c8 .Loc.347
C:\Users\kenne\AppData\Local\Temp\cc2IZjCw.s:1382   .text.main:000004c8 .Loc.348
C:\Users\kenne\AppData\Local\Temp\cc2IZjCw.s:1384   .text.main:000004cc L0
C:\Users\kenne\AppData\Local\Temp\cc2IZjCw.s:1387   .text.main:000004d2 L0
C:\Users\kenne\AppData\Local\Temp\cc2IZjCw.s:1391   .text.main:000004d6 .Loc.349
C:\Users\kenne\AppData\Local\Temp\cc2IZjCw.s:1392   .text.main:000004d6 .Loc.350
C:\Users\kenne\AppData\Local\Temp\cc2IZjCw.s:1400   .text.main:000004e4 .Loc.351
C:\Users\kenne\AppData\Local\Temp\cc2IZjCw.s:1401   .text.main:000004e4 .Loc.352
C:\Users\kenne\AppData\Local\Temp\cc2IZjCw.s:1404   .text.main:000004ea L0
C:\Users\kenne\AppData\Local\Temp\cc2IZjCw.s:1411   .text.main:000004f6 .Loc.353
C:\Users\kenne\AppData\Local\Temp\cc2IZjCw.s:1414   .text.main:000004f8 .Loc.354
C:\Users\kenne\AppData\Local\Temp\cc2IZjCw.s:1418   .text.main:000004fa .Loc.355
C:\Users\kenne\AppData\Local\Temp\cc2IZjCw.s:1422   .text.main:000004fe .Loc.356
C:\Users\kenne\AppData\Local\Temp\cc2IZjCw.s:1423   .text.main:000004fe .Loc.357
C:\Users\kenne\AppData\Local\Temp\cc2IZjCw.s:1425   .text.main:00000502 L0
C:\Users\kenne\AppData\Local\Temp\cc2IZjCw.s:1428   .text.main:00000508 L0
C:\Users\kenne\AppData\Local\Temp\cc2IZjCw.s:1431   .text.main:0000050e L0
C:\Users\kenne\AppData\Local\Temp\cc2IZjCw.s:1433   .text.main:00000510 .Loc.358
C:\Users\kenne\AppData\Local\Temp\cc2IZjCw.s:1434   .text.main:00000510 .Loc.359
GAS LISTING C:\Users\kenne\AppData\Local\Temp\cc2IZjCw.s 			page 79


C:\Users\kenne\AppData\Local\Temp\cc2IZjCw.s:1435   .text.main:00000510 .Loc.360
C:\Users\kenne\AppData\Local\Temp\cc2IZjCw.s:1443   .text.main:0000051c .Loc.361
C:\Users\kenne\AppData\Local\Temp\cc2IZjCw.s:1446   .text.main:0000051e .Loc.362
C:\Users\kenne\AppData\Local\Temp\cc2IZjCw.s:1447   .text.main:0000051e .Loc.363
C:\Users\kenne\AppData\Local\Temp\cc2IZjCw.s:1452   .text.main:00000526 .Loc.364
C:\Users\kenne\AppData\Local\Temp\cc2IZjCw.s:1453   .text.main:00000526 .Loc.365
C:\Users\kenne\AppData\Local\Temp\cc2IZjCw.s:1464   .text.main:0000053e .Loc.366
C:\Users\kenne\AppData\Local\Temp\cc2IZjCw.s:1465   .text.main:0000053e .Loc.367
C:\Users\kenne\AppData\Local\Temp\cc2IZjCw.s:1474   .text.main:0000054e .Loc.368
C:\Users\kenne\AppData\Local\Temp\cc2IZjCw.s:1475   .text.main:0000054e .Loc.369
C:\Users\kenne\AppData\Local\Temp\cc2IZjCw.s:1478   .text.main:00000550 .Loc.370
C:\Users\kenne\AppData\Local\Temp\cc2IZjCw.s:1486   .text.main:0000055c .Loc.371
C:\Users\kenne\AppData\Local\Temp\cc2IZjCw.s:1487   .text.main:0000055c .Loc.372
C:\Users\kenne\AppData\Local\Temp\cc2IZjCw.s:1488   .text.main:0000055c .Loc.373
C:\Users\kenne\AppData\Local\Temp\cc2IZjCw.s:1493   .text.main:00000562 .Loc.374
C:\Users\kenne\AppData\Local\Temp\cc2IZjCw.s:1494   .text.main:00000562 .Loc.375
C:\Users\kenne\AppData\Local\Temp\cc2IZjCw.s:1499   .text.main:0000056a .Loc.376
C:\Users\kenne\AppData\Local\Temp\cc2IZjCw.s:1500   .text.main:0000056a .Loc.377
C:\Users\kenne\AppData\Local\Temp\cc2IZjCw.s:1511   .text.main:00000582 .Loc.378
C:\Users\kenne\AppData\Local\Temp\cc2IZjCw.s:1512   .text.main:00000582 .Loc.379
C:\Users\kenne\AppData\Local\Temp\cc2IZjCw.s:1521   .text.main:00000592 .Loc.380
C:\Users\kenne\AppData\Local\Temp\cc2IZjCw.s:1529   .text.main:0000059e .Loc.381
C:\Users\kenne\AppData\Local\Temp\cc2IZjCw.s:1530   .text.main:0000059e .Loc.382
C:\Users\kenne\AppData\Local\Temp\cc2IZjCw.s:1531   .text.main:0000059e .Loc.383
C:\Users\kenne\AppData\Local\Temp\cc2IZjCw.s:1535   .text.main:000005a4 .Loc.384
C:\Users\kenne\AppData\Local\Temp\cc2IZjCw.s:1539   .text.main:000005aa .Loc.385
C:\Users\kenne\AppData\Local\Temp\cc2IZjCw.s:1540   .text.main:000005aa .Loc.386
C:\Users\kenne\AppData\Local\Temp\cc2IZjCw.s:1544   .text.main:000005b0 .Loc.387
C:\Users\kenne\AppData\Local\Temp\cc2IZjCw.s:1545   .text.main:000005b0 .Loc.388
C:\Users\kenne\AppData\Local\Temp\cc2IZjCw.s:1550   .text.main:000005b4 .Loc.389
C:\Users\kenne\AppData\Local\Temp\cc2IZjCw.s:1551   .text.main:000005b4 .Loc.390
C:\Users\kenne\AppData\Local\Temp\cc2IZjCw.s:1556   .text.main:000005bc .Loc.391
C:\Users\kenne\AppData\Local\Temp\cc2IZjCw.s:1557   .text.main:000005bc .Loc.392
C:\Users\kenne\AppData\Local\Temp\cc2IZjCw.s:1564   .text.main:000005c8 .Loc.393
C:\Users\kenne\AppData\Local\Temp\cc2IZjCw.s:1565   .text.main:000005c8 .Loc.394
C:\Users\kenne\AppData\Local\Temp\cc2IZjCw.s:1576   .text.main:000005e0 .Loc.395
C:\Users\kenne\AppData\Local\Temp\cc2IZjCw.s:1577   .text.main:000005e0 .Loc.396
C:\Users\kenne\AppData\Local\Temp\cc2IZjCw.s:1584   .text.main:000005ec .Loc.397
C:\Users\kenne\AppData\Local\Temp\cc2IZjCw.s:1587   .text.main:000005ec .Loc.398
C:\Users\kenne\AppData\Local\Temp\cc2IZjCw.s:1589   .text.main:000005ec .Loc.399
C:\Users\kenne\AppData\Local\Temp\cc2IZjCw.s:1590   .text.main:000005ec .Loc.400
C:\Users\kenne\AppData\Local\Temp\cc2IZjCw.s:1591   .text.main:000005ec .Loc.401
C:\Users\kenne\AppData\Local\Temp\cc2IZjCw.s:1592   .text.main:000005ec .Loc.402
C:\Users\kenne\AppData\Local\Temp\cc2IZjCw.s:1593   .text.main:000005ec .Loc.403
C:\Users\kenne\AppData\Local\Temp\cc2IZjCw.s:1594   .text.main:000005ec .Loc.404
C:\Users\kenne\AppData\Local\Temp\cc2IZjCw.s:1595   .text.main:000005ec .Loc.405
C:\Users\kenne\AppData\Local\Temp\cc2IZjCw.s:1603   .text.main:000005fc L0
C:\Users\kenne\AppData\Local\Temp\cc2IZjCw.s:1606   .text.main:000005fe .Loc.406
C:\Users\kenne\AppData\Local\Temp\cc2IZjCw.s:1609   .text.main:000005fe .Loc.407
C:\Users\kenne\AppData\Local\Temp\cc2IZjCw.s:1612   .text.main:000005fe .Loc.408
C:\Users\kenne\AppData\Local\Temp\cc2IZjCw.s:1621   .text.main:0000060a .Loc.409
C:\Users\kenne\AppData\Local\Temp\cc2IZjCw.s:1626   .text.main:0000060e .Loc.410
C:\Users\kenne\AppData\Local\Temp\cc2IZjCw.s:1627   .text.main:0000060e .Loc.411
C:\Users\kenne\AppData\Local\Temp\cc2IZjCw.s:1628   .text.main:0000060e .Loc.412
C:\Users\kenne\AppData\Local\Temp\cc2IZjCw.s:1637   .text.main:0000061c .Loc.413
C:\Users\kenne\AppData\Local\Temp\cc2IZjCw.s:1640   .text.main:0000061e .Loc.414
C:\Users\kenne\AppData\Local\Temp\cc2IZjCw.s:1641   .text.main:0000061e .Loc.415
GAS LISTING C:\Users\kenne\AppData\Local\Temp\cc2IZjCw.s 			page 80


C:\Users\kenne\AppData\Local\Temp\cc2IZjCw.s:1646   .text.main:00000626 .Loc.416
C:\Users\kenne\AppData\Local\Temp\cc2IZjCw.s:1647   .text.main:00000626 .Loc.417
C:\Users\kenne\AppData\Local\Temp\cc2IZjCw.s:1658   .text.main:0000063e .Loc.418
C:\Users\kenne\AppData\Local\Temp\cc2IZjCw.s:1659   .text.main:0000063e .Loc.419
C:\Users\kenne\AppData\Local\Temp\cc2IZjCw.s:1668   .text.main:0000064e .Loc.420
C:\Users\kenne\AppData\Local\Temp\cc2IZjCw.s:1669   .text.main:0000064e .Loc.421
C:\Users\kenne\AppData\Local\Temp\cc2IZjCw.s:1672   .text.main:00000650 .Loc.422
C:\Users\kenne\AppData\Local\Temp\cc2IZjCw.s:1680   .text.main:0000065c .Loc.423
C:\Users\kenne\AppData\Local\Temp\cc2IZjCw.s:1681   .text.main:0000065c .Loc.424
C:\Users\kenne\AppData\Local\Temp\cc2IZjCw.s:1682   .text.main:0000065c .Loc.425
C:\Users\kenne\AppData\Local\Temp\cc2IZjCw.s:1690   .text.main:00000668 .Loc.426
C:\Users\kenne\AppData\Local\Temp\cc2IZjCw.s:1693   .text.main:0000066a .Loc.427
C:\Users\kenne\AppData\Local\Temp\cc2IZjCw.s:1694   .text.main:0000066a .Loc.428
C:\Users\kenne\AppData\Local\Temp\cc2IZjCw.s:1699   .text.main:00000672 .Loc.429
C:\Users\kenne\AppData\Local\Temp\cc2IZjCw.s:1700   .text.main:00000672 .Loc.430
C:\Users\kenne\AppData\Local\Temp\cc2IZjCw.s:1711   .text.main:0000068a .Loc.431
C:\Users\kenne\AppData\Local\Temp\cc2IZjCw.s:1712   .text.main:0000068a .Loc.432
C:\Users\kenne\AppData\Local\Temp\cc2IZjCw.s:1721   .text.main:0000069a .Loc.433
C:\Users\kenne\AppData\Local\Temp\cc2IZjCw.s:1722   .text.main:0000069a .Loc.434
C:\Users\kenne\AppData\Local\Temp\cc2IZjCw.s:1725   .text.main:0000069c .Loc.435
C:\Users\kenne\AppData\Local\Temp\cc2IZjCw.s:1733   .text.main:000006a8 .Loc.436
C:\Users\kenne\AppData\Local\Temp\cc2IZjCw.s:1734   .text.main:000006a8 .Loc.437
C:\Users\kenne\AppData\Local\Temp\cc2IZjCw.s:1735   .text.main:000006a8 .Loc.438
C:\Users\kenne\AppData\Local\Temp\cc2IZjCw.s:1743   .text.main:000006b4 .Loc.439
C:\Users\kenne\AppData\Local\Temp\cc2IZjCw.s:1746   .text.main:000006b6 .Loc.440
C:\Users\kenne\AppData\Local\Temp\cc2IZjCw.s:1747   .text.main:000006b6 .Loc.441
C:\Users\kenne\AppData\Local\Temp\cc2IZjCw.s:1752   .text.main:000006be .Loc.442
C:\Users\kenne\AppData\Local\Temp\cc2IZjCw.s:1753   .text.main:000006be .Loc.443
C:\Users\kenne\AppData\Local\Temp\cc2IZjCw.s:1764   .text.main:000006d6 .Loc.444
C:\Users\kenne\AppData\Local\Temp\cc2IZjCw.s:1765   .text.main:000006d6 .Loc.445
C:\Users\kenne\AppData\Local\Temp\cc2IZjCw.s:1774   .text.main:000006e6 .Loc.446
C:\Users\kenne\AppData\Local\Temp\cc2IZjCw.s:1775   .text.main:000006e6 .Loc.447
C:\Users\kenne\AppData\Local\Temp\cc2IZjCw.s:1778   .text.main:000006e8 .Loc.448
C:\Users\kenne\AppData\Local\Temp\cc2IZjCw.s:1785   .text.main:000006f4 L0
C:\Users\kenne\AppData\Local\Temp\cc2IZjCw.s:33     .text._Z7getTickv:00000008 L0
C:\Users\kenne\AppData\Local\Temp\cc2IZjCw.s:205    .text._Z6typingihh:000000b4 L0
C:\Users\kenne\AppData\Local\Temp\cc2IZjCw.s:321    .text._Z8setanglej:00000068 L0
C:\Users\kenne\AppData\Local\Temp\cc2IZjCw.s:441    .text._Z8getanglem:00000098 L0
C:\Users\kenne\AppData\Local\Temp\cc2IZjCw.s:1789   .text.main:000006f4 L0
                     .debug_frame:00000000 L0
C:\Users\kenne\AppData\Local\Temp\cc2IZjCw.s:94     .text._Z6typingihh:00000034 .L3
C:\Users\kenne\AppData\Local\Temp\cc2IZjCw.s:138    .text._Z6typingihh:00000068 .L4
C:\Users\kenne\AppData\Local\Temp\cc2IZjCw.s:83     .text._Z6typingihh:0000002e .L10
C:\Users\kenne\AppData\Local\Temp\cc2IZjCw.s:182    .text._Z6typingihh:0000009c .L11
C:\Users\kenne\AppData\Local\Temp\cc2IZjCw.s:118    .text._Z6typingihh:00000050 .L12
C:\Users\kenne\AppData\Local\Temp\cc2IZjCw.s:162    .text._Z6typingihh:00000084 .L13
C:\Users\kenne\AppData\Local\Temp\cc2IZjCw.s:428    .text._Z8getanglem:0000008a .L15
C:\Users\kenne\AppData\Local\Temp\cc2IZjCw.s:625    .text.main:000000fa .L11
C:\Users\kenne\AppData\Local\Temp\cc2IZjCw.s:1380   .text.main:000004c8 .L20
C:\Users\kenne\AppData\Local\Temp\cc2IZjCw.s:942    .text.main:000001e0 .L12
C:\Users\kenne\AppData\Local\Temp\cc2IZjCw.s:971    .text.main:00000202 .L21
C:\Users\kenne\AppData\Local\Temp\cc2IZjCw.s:1303   .text.main:0000044c .L19
C:\Users\kenne\AppData\Local\Temp\cc2IZjCw.s:1196   .text.main:00000390 .L22
C:\Users\kenne\AppData\Local\Temp\cc2IZjCw.s:955    .text.main:000001f6 .L23
C:\Users\kenne\AppData\Local\Temp\cc2IZjCw.s:1114   .text.main:0000030c .L24
C:\Users\kenne\AppData\Local\Temp\cc2IZjCw.s:1044   .text.main:00000298 .L27
C:\Users\kenne\AppData\Local\Temp\cc2IZjCw.s:1101   .text.main:000002f6 .L13
GAS LISTING C:\Users\kenne\AppData\Local\Temp\cc2IZjCw.s 			page 81


C:\Users\kenne\AppData\Local\Temp\cc2IZjCw.s:1183   .text.main:0000037a .L14
C:\Users\kenne\AppData\Local\Temp\cc2IZjCw.s:1231   .text.main:000003d8 .L28
C:\Users\kenne\AppData\Local\Temp\cc2IZjCw.s:1288   .text.main:00000436 .L15
C:\Users\kenne\AppData\Local\Temp\cc2IZjCw.s:1390   .text.main:000004d6 .L43
C:\Users\kenne\AppData\Local\Temp\cc2IZjCw.s:882    .text.main:00000186 .L18
C:\Users\kenne\AppData\Local\Temp\cc2IZjCw.s:1528   .text.main:0000059e .L31
C:\Users\kenne\AppData\Local\Temp\cc2IZjCw.s:1417   .text.main:000004fa .L32
C:\Users\kenne\AppData\Local\Temp\cc2IZjCw.s:1485   .text.main:0000055c .L33
C:\Users\kenne\AppData\Local\Temp\cc2IZjCw.s:1421   .text.main:000004fe .L35
C:\Users\kenne\AppData\Local\Temp\cc2IZjCw.s:1375   .text.main:000004c4 .L30
C:\Users\kenne\AppData\Local\Temp\cc2IZjCw.s:1679   .text.main:0000065c .L37
C:\Users\kenne\AppData\Local\Temp\cc2IZjCw.s:1732   .text.main:000006a8 .L38
C:\Users\kenne\AppData\Local\Temp\cc2IZjCw.s:1625   .text.main:0000060e .L44
C:\Users\kenne\AppData\Local\Temp\cc2IZjCw.s:1549   .text.main:000005b4 .L36
C:\Users\kenne\AppData\Local\Temp\cc2IZjCw.s:1599   .text.main:000005f2 .L16
C:\Users\kenne\AppData\Local\Temp\cc2IZjCw.s:5051   .debug_abbrev:00000000 .Ldebug_abbrev0
C:\Users\kenne\AppData\Local\Temp\cc2IZjCw.s:7347   .debug_rnglists:00000018 .LLRL51
C:\Users\kenne\AppData\Local\Temp\cc2IZjCw.s:7366   .debug_line:00000000 .Ldebug_line0
C:\Users\kenne\AppData\Local\Temp\cc2IZjCw.s:458    .text.main:00000000 .LFB58
C:\Users\kenne\AppData\Local\Temp\cc2IZjCw.s:1786   .text.main:000006f4 .LFE58
C:\Users\kenne\AppData\Local\Temp\cc2IZjCw.s:6318   .debug_loclists:0000001c .LLST9
C:\Users\kenne\AppData\Local\Temp\cc2IZjCw.s:6301   .debug_loclists:0000000c .LVUS9
C:\Users\kenne\AppData\Local\Temp\cc2IZjCw.s:6374   .debug_loclists:00000062 .LLST10
C:\Users\kenne\AppData\Local\Temp\cc2IZjCw.s:6365   .debug_loclists:0000005a .LVUS10
C:\Users\kenne\AppData\Local\Temp\cc2IZjCw.s:6416   .debug_loclists:00000092 .LLST11
C:\Users\kenne\AppData\Local\Temp\cc2IZjCw.s:6399   .debug_loclists:00000082 .LVUS11
C:\Users\kenne\AppData\Local\Temp\cc2IZjCw.s:611    .text.main:000000f4 .LBI82
C:\Users\kenne\AppData\Local\Temp\cc2IZjCw.s:610    .text.main:000000f4 .LBB82
C:\Users\kenne\AppData\Local\Temp\cc2IZjCw.s:634    .text.main:00000106 .LBE82
C:\Users\kenne\AppData\Local\Temp\cc2IZjCw.s:6499   .debug_loclists:000000f3 .LLST12
C:\Users\kenne\AppData\Local\Temp\cc2IZjCw.s:6496   .debug_loclists:000000f1 .LVUS12
C:\Users\kenne\AppData\Local\Temp\cc2IZjCw.s:6511   .debug_loclists:00000103 .LLST13
C:\Users\kenne\AppData\Local\Temp\cc2IZjCw.s:6508   .debug_loclists:00000101 .LVUS13
C:\Users\kenne\AppData\Local\Temp\cc2IZjCw.s:6523   .debug_loclists:00000113 .LLST14
C:\Users\kenne\AppData\Local\Temp\cc2IZjCw.s:6520   .debug_loclists:00000111 .LVUS14
C:\Users\kenne\AppData\Local\Temp\cc2IZjCw.s:673    .text.main:0000013a .LBI84
C:\Users\kenne\AppData\Local\Temp\cc2IZjCw.s:672    .text.main:0000013a .LBB84
C:\Users\kenne\AppData\Local\Temp\cc2IZjCw.s:719    .text.main:0000014c .LBE84
C:\Users\kenne\AppData\Local\Temp\cc2IZjCw.s:6535   .debug_loclists:00000123 .LLST15
C:\Users\kenne\AppData\Local\Temp\cc2IZjCw.s:6532   .debug_loclists:00000121 .LVUS15
C:\Users\kenne\AppData\Local\Temp\cc2IZjCw.s:6547   .debug_loclists:00000130 .LLST16
C:\Users\kenne\AppData\Local\Temp\cc2IZjCw.s:6544   .debug_loclists:0000012e .LVUS16
C:\Users\kenne\AppData\Local\Temp\cc2IZjCw.s:676    .text.main:0000013a .LBB85
C:\Users\kenne\AppData\Local\Temp\cc2IZjCw.s:716    .text.main:0000014c .LBE85
C:\Users\kenne\AppData\Local\Temp\cc2IZjCw.s:6559   .debug_loclists:0000013e .LLST17
C:\Users\kenne\AppData\Local\Temp\cc2IZjCw.s:6556   .debug_loclists:0000013c .LVUS17
C:\Users\kenne\AppData\Local\Temp\cc2IZjCw.s:6571   .debug_loclists:0000014b .LLST18
C:\Users\kenne\AppData\Local\Temp\cc2IZjCw.s:6566   .debug_loclists:00000147 .LVUS18
C:\Users\kenne\AppData\Local\Temp\cc2IZjCw.s:680    .text.main:0000013c .LBI86
C:\Users\kenne\AppData\Local\Temp\cc2IZjCw.s:679    .text.main:0000013c .LBB86
C:\Users\kenne\AppData\Local\Temp\cc2IZjCw.s:693    .text.main:0000013e .LBE86
C:\Users\kenne\AppData\Local\Temp\cc2IZjCw.s:705    .text.main:0000014a .LBI88
C:\Users\kenne\AppData\Local\Temp\cc2IZjCw.s:704    .text.main:0000014a .LBB88
C:\Users\kenne\AppData\Local\Temp\cc2IZjCw.s:715    .text.main:0000014c .LBE88
C:\Users\kenne\AppData\Local\Temp\cc2IZjCw.s:6590   .debug_loclists:0000015f .LLST19
C:\Users\kenne\AppData\Local\Temp\cc2IZjCw.s:6587   .debug_loclists:0000015d .LVUS19
C:\Users\kenne\AppData\Local\Temp\cc2IZjCw.s:722    .text.main:0000014c .LBI90
GAS LISTING C:\Users\kenne\AppData\Local\Temp\cc2IZjCw.s 			page 82


C:\Users\kenne\AppData\Local\Temp\cc2IZjCw.s:721    .text.main:0000014c .LBB90
C:\Users\kenne\AppData\Local\Temp\cc2IZjCw.s:770    .text.main:0000015e .LBE90
C:\Users\kenne\AppData\Local\Temp\cc2IZjCw.s:6602   .debug_loclists:0000016f .LLST20
C:\Users\kenne\AppData\Local\Temp\cc2IZjCw.s:6599   .debug_loclists:0000016d .LVUS20
C:\Users\kenne\AppData\Local\Temp\cc2IZjCw.s:6614   .debug_loclists:0000017d .LLST21
C:\Users\kenne\AppData\Local\Temp\cc2IZjCw.s:6611   .debug_loclists:0000017b .LVUS21
C:\Users\kenne\AppData\Local\Temp\cc2IZjCw.s:725    .text.main:0000014c .LBB91
C:\Users\kenne\AppData\Local\Temp\cc2IZjCw.s:767    .text.main:0000015e .LBE91
C:\Users\kenne\AppData\Local\Temp\cc2IZjCw.s:6626   .debug_loclists:0000018b .LLST22
C:\Users\kenne\AppData\Local\Temp\cc2IZjCw.s:6623   .debug_loclists:00000189 .LVUS22
C:\Users\kenne\AppData\Local\Temp\cc2IZjCw.s:6638   .debug_loclists:00000198 .LLST23
C:\Users\kenne\AppData\Local\Temp\cc2IZjCw.s:6633   .debug_loclists:00000194 .LVUS23
C:\Users\kenne\AppData\Local\Temp\cc2IZjCw.s:729    .text.main:0000014e .LBI92
C:\Users\kenne\AppData\Local\Temp\cc2IZjCw.s:728    .text.main:0000014e .LBB92
C:\Users\kenne\AppData\Local\Temp\cc2IZjCw.s:742    .text.main:00000150 .LBE92
C:\Users\kenne\AppData\Local\Temp\cc2IZjCw.s:756    .text.main:0000015c .LBI94
C:\Users\kenne\AppData\Local\Temp\cc2IZjCw.s:755    .text.main:0000015c .LBB94
C:\Users\kenne\AppData\Local\Temp\cc2IZjCw.s:766    .text.main:0000015e .LBE94
C:\Users\kenne\AppData\Local\Temp\cc2IZjCw.s:6657   .debug_loclists:000001ac .LLST24
C:\Users\kenne\AppData\Local\Temp\cc2IZjCw.s:6654   .debug_loclists:000001aa .LVUS24
C:\Users\kenne\AppData\Local\Temp\cc2IZjCw.s:773    .text.main:0000015e .LBI96
C:\Users\kenne\AppData\Local\Temp\cc2IZjCw.s:772    .text.main:0000015e .LBB96
C:\Users\kenne\AppData\Local\Temp\cc2IZjCw.s:819    .text.main:0000016c .LBE96
C:\Users\kenne\AppData\Local\Temp\cc2IZjCw.s:6669   .debug_loclists:000001bc .LLST25
C:\Users\kenne\AppData\Local\Temp\cc2IZjCw.s:6666   .debug_loclists:000001ba .LVUS25
C:\Users\kenne\AppData\Local\Temp\cc2IZjCw.s:6681   .debug_loclists:000001ca .LLST26
C:\Users\kenne\AppData\Local\Temp\cc2IZjCw.s:6678   .debug_loclists:000001c8 .LVUS26
C:\Users\kenne\AppData\Local\Temp\cc2IZjCw.s:776    .text.main:0000015e .LBB97
C:\Users\kenne\AppData\Local\Temp\cc2IZjCw.s:816    .text.main:0000016c .LBE97
C:\Users\kenne\AppData\Local\Temp\cc2IZjCw.s:6693   .debug_loclists:000001d8 .LLST27
C:\Users\kenne\AppData\Local\Temp\cc2IZjCw.s:6690   .debug_loclists:000001d6 .LVUS27
C:\Users\kenne\AppData\Local\Temp\cc2IZjCw.s:6705   .debug_loclists:000001e5 .LLST28
C:\Users\kenne\AppData\Local\Temp\cc2IZjCw.s:6700   .debug_loclists:000001e1 .LVUS28
C:\Users\kenne\AppData\Local\Temp\cc2IZjCw.s:780    .text.main:00000160 .LBI98
C:\Users\kenne\AppData\Local\Temp\cc2IZjCw.s:779    .text.main:00000160 .LBB98
C:\Users\kenne\AppData\Local\Temp\cc2IZjCw.s:793    .text.main:00000162 .LBE98
C:\Users\kenne\AppData\Local\Temp\cc2IZjCw.s:805    .text.main:0000016a .LBI100
C:\Users\kenne\AppData\Local\Temp\cc2IZjCw.s:804    .text.main:0000016a .LBB100
C:\Users\kenne\AppData\Local\Temp\cc2IZjCw.s:815    .text.main:0000016c .LBE100
C:\Users\kenne\AppData\Local\Temp\cc2IZjCw.s:6724   .debug_loclists:000001f9 .LLST29
C:\Users\kenne\AppData\Local\Temp\cc2IZjCw.s:6721   .debug_loclists:000001f7 .LVUS29
C:\Users\kenne\AppData\Local\Temp\cc2IZjCw.s:827    .text.main:00000174 .LBI102
C:\Users\kenne\AppData\Local\Temp\cc2IZjCw.s:826    .text.main:00000174 .LBB102
C:\Users\kenne\AppData\Local\Temp\cc2IZjCw.s:871    .text.main:0000017e .LBE102
C:\Users\kenne\AppData\Local\Temp\cc2IZjCw.s:6736   .debug_loclists:00000209 .LLST30
C:\Users\kenne\AppData\Local\Temp\cc2IZjCw.s:6733   .debug_loclists:00000207 .LVUS30
C:\Users\kenne\AppData\Local\Temp\cc2IZjCw.s:6751   .debug_loclists:00000219 .LLST31
C:\Users\kenne\AppData\Local\Temp\cc2IZjCw.s:6748   .debug_loclists:00000217 .LVUS31
C:\Users\kenne\AppData\Local\Temp\cc2IZjCw.s:830    .text.main:00000174 .LBB103
C:\Users\kenne\AppData\Local\Temp\cc2IZjCw.s:868    .text.main:0000017e .LBE103
C:\Users\kenne\AppData\Local\Temp\cc2IZjCw.s:6763   .debug_loclists:00000227 .LLST32
C:\Users\kenne\AppData\Local\Temp\cc2IZjCw.s:6760   .debug_loclists:00000225 .LVUS32
C:\Users\kenne\AppData\Local\Temp\cc2IZjCw.s:6775   .debug_loclists:00000234 .LLST33
C:\Users\kenne\AppData\Local\Temp\cc2IZjCw.s:6770   .debug_loclists:00000230 .LVUS33
C:\Users\kenne\AppData\Local\Temp\cc2IZjCw.s:834    .text.main:00000176 .LBI104
C:\Users\kenne\AppData\Local\Temp\cc2IZjCw.s:833    .text.main:00000176 .LBB104
C:\Users\kenne\AppData\Local\Temp\cc2IZjCw.s:847    .text.main:00000178 .LBE104
GAS LISTING C:\Users\kenne\AppData\Local\Temp\cc2IZjCw.s 			page 83


C:\Users\kenne\AppData\Local\Temp\cc2IZjCw.s:857    .text.main:0000017c .LBI106
C:\Users\kenne\AppData\Local\Temp\cc2IZjCw.s:856    .text.main:0000017c .LBB106
C:\Users\kenne\AppData\Local\Temp\cc2IZjCw.s:867    .text.main:0000017e .LBE106
C:\Users\kenne\AppData\Local\Temp\cc2IZjCw.s:6794   .debug_loclists:00000248 .LLST34
C:\Users\kenne\AppData\Local\Temp\cc2IZjCw.s:6791   .debug_loclists:00000246 .LVUS34
C:\Users\kenne\AppData\Local\Temp\cc2IZjCw.s:929    .text.main:000001da .LBI108
C:\Users\kenne\AppData\Local\Temp\cc2IZjCw.s:928    .text.main:000001da .LBB108
C:\Users\kenne\AppData\Local\Temp\cc2IZjCw.s:958    .text.main:000001f6 .LBE108
C:\Users\kenne\AppData\Local\Temp\cc2IZjCw.s:6806   .debug_loclists:00000258 .LLST35
C:\Users\kenne\AppData\Local\Temp\cc2IZjCw.s:6803   .debug_loclists:00000256 .LVUS35
C:\Users\kenne\AppData\Local\Temp\cc2IZjCw.s:6818   .debug_loclists:00000268 .LLST36
C:\Users\kenne\AppData\Local\Temp\cc2IZjCw.s:6815   .debug_loclists:00000266 .LVUS36
C:\Users\kenne\AppData\Local\Temp\cc2IZjCw.s:6830   .debug_loclists:00000278 .LLST37
C:\Users\kenne\AppData\Local\Temp\cc2IZjCw.s:6827   .debug_loclists:00000276 .LVUS37
C:\Users\kenne\AppData\Local\Temp\cc2IZjCw.s:1088   .text.main:000002f0 .LBI110
C:\Users\kenne\AppData\Local\Temp\cc2IZjCw.s:1087   .text.main:000002f0 .LBB110
C:\Users\kenne\AppData\Local\Temp\cc2IZjCw.s:1117   .text.main:0000030c .LBE110
C:\Users\kenne\AppData\Local\Temp\cc2IZjCw.s:6842   .debug_loclists:00000288 .LLST38
C:\Users\kenne\AppData\Local\Temp\cc2IZjCw.s:6839   .debug_loclists:00000286 .LVUS38
C:\Users\kenne\AppData\Local\Temp\cc2IZjCw.s:6854   .debug_loclists:00000298 .LLST39
C:\Users\kenne\AppData\Local\Temp\cc2IZjCw.s:6851   .debug_loclists:00000296 .LVUS39
C:\Users\kenne\AppData\Local\Temp\cc2IZjCw.s:6866   .debug_loclists:000002a8 .LLST40
C:\Users\kenne\AppData\Local\Temp\cc2IZjCw.s:6863   .debug_loclists:000002a6 .LVUS40
C:\Users\kenne\AppData\Local\Temp\cc2IZjCw.s:1170   .text.main:00000374 .LBI112
C:\Users\kenne\AppData\Local\Temp\cc2IZjCw.s:1169   .text.main:00000374 .LBB112
C:\Users\kenne\AppData\Local\Temp\cc2IZjCw.s:1199   .text.main:00000390 .LBE112
C:\Users\kenne\AppData\Local\Temp\cc2IZjCw.s:6878   .debug_loclists:000002b8 .LLST41
C:\Users\kenne\AppData\Local\Temp\cc2IZjCw.s:6875   .debug_loclists:000002b6 .LVUS41
C:\Users\kenne\AppData\Local\Temp\cc2IZjCw.s:6890   .debug_loclists:000002c8 .LLST42
C:\Users\kenne\AppData\Local\Temp\cc2IZjCw.s:6887   .debug_loclists:000002c6 .LVUS42
C:\Users\kenne\AppData\Local\Temp\cc2IZjCw.s:6902   .debug_loclists:000002d8 .LLST43
C:\Users\kenne\AppData\Local\Temp\cc2IZjCw.s:6899   .debug_loclists:000002d6 .LVUS43
C:\Users\kenne\AppData\Local\Temp\cc2IZjCw.s:1275   .text.main:00000430 .LBI114
C:\Users\kenne\AppData\Local\Temp\cc2IZjCw.s:1274   .text.main:00000430 .LBB114
C:\Users\kenne\AppData\Local\Temp\cc2IZjCw.s:1306   .text.main:0000044c .LBE114
C:\Users\kenne\AppData\Local\Temp\cc2IZjCw.s:6914   .debug_loclists:000002e8 .LLST44
C:\Users\kenne\AppData\Local\Temp\cc2IZjCw.s:6911   .debug_loclists:000002e6 .LVUS44
C:\Users\kenne\AppData\Local\Temp\cc2IZjCw.s:6926   .debug_loclists:000002f8 .LLST45
C:\Users\kenne\AppData\Local\Temp\cc2IZjCw.s:6923   .debug_loclists:000002f6 .LVUS45
C:\Users\kenne\AppData\Local\Temp\cc2IZjCw.s:6938   .debug_loclists:00000308 .LLST46
C:\Users\kenne\AppData\Local\Temp\cc2IZjCw.s:6935   .debug_loclists:00000306 .LVUS46
C:\Users\kenne\AppData\Local\Temp\cc2IZjCw.s:1586   .text.main:000005ec .LBI116
C:\Users\kenne\AppData\Local\Temp\cc2IZjCw.s:7337   .debug_rnglists:0000000c .LLRL47
C:\Users\kenne\AppData\Local\Temp\cc2IZjCw.s:6950   .debug_loclists:00000318 .LLST48
C:\Users\kenne\AppData\Local\Temp\cc2IZjCw.s:6947   .debug_loclists:00000316 .LVUS48
C:\Users\kenne\AppData\Local\Temp\cc2IZjCw.s:6962   .debug_loclists:00000328 .LLST49
C:\Users\kenne\AppData\Local\Temp\cc2IZjCw.s:6959   .debug_loclists:00000326 .LVUS49
C:\Users\kenne\AppData\Local\Temp\cc2IZjCw.s:6974   .debug_loclists:00000338 .LLST50
C:\Users\kenne\AppData\Local\Temp\cc2IZjCw.s:6971   .debug_loclists:00000336 .LVUS50
C:\Users\kenne\AppData\Local\Temp\cc2IZjCw.s:480    .text.main:00000018 .LVL27
C:\Users\kenne\AppData\Local\Temp\cc2IZjCw.s:489    .text.main:00000026 .LVL28
C:\Users\kenne\AppData\Local\Temp\cc2IZjCw.s:500    .text.main:00000038 .LVL29
C:\Users\kenne\AppData\Local\Temp\cc2IZjCw.s:555    .text.main:000000a2 .LVL30
C:\Users\kenne\AppData\Local\Temp\cc2IZjCw.s:566    .text.main:000000b4 .LVL31
C:\Users\kenne\AppData\Local\Temp\cc2IZjCw.s:577    .text.main:000000c6 .LVL32
C:\Users\kenne\AppData\Local\Temp\cc2IZjCw.s:586    .text.main:000000d4 .LVL33
C:\Users\kenne\AppData\Local\Temp\cc2IZjCw.s:596    .text.main:000000e4 .LVL34
GAS LISTING C:\Users\kenne\AppData\Local\Temp\cc2IZjCw.s 			page 84


C:\Users\kenne\AppData\Local\Temp\cc2IZjCw.s:602    .text.main:000000ec .LVL35
C:\Users\kenne\AppData\Local\Temp\cc2IZjCw.s:608    .text.main:000000f4 .LVL36
C:\Users\kenne\AppData\Local\Temp\cc2IZjCw.s:640    .text.main:0000010e .LVL38
C:\Users\kenne\AppData\Local\Temp\cc2IZjCw.s:654    .text.main:00000122 .LVL39
C:\Users\kenne\AppData\Local\Temp\cc2IZjCw.s:662    .text.main:0000012e .LVL40
C:\Users\kenne\AppData\Local\Temp\cc2IZjCw.s:670    .text.main:0000013a .LVL41
C:\Users\kenne\AppData\Local\Temp\cc2IZjCw.s:891    .text.main:00000192 .LVL60
C:\Users\kenne\AppData\Local\Temp\cc2IZjCw.s:905    .text.main:000001b2 .LVL61
C:\Users\kenne\AppData\Local\Temp\cc2IZjCw.s:914    .text.main:000001c2 .LVL62
C:\Users\kenne\AppData\Local\Temp\cc2IZjCw.s:926    .text.main:000001da .LVL63
C:\Users\kenne\AppData\Local\Temp\cc2IZjCw.s:988    .text.main:00000226 .LVL68
C:\Users\kenne\AppData\Local\Temp\cc2IZjCw.s:1000   .text.main:0000023c .LVL69
C:\Users\kenne\AppData\Local\Temp\cc2IZjCw.s:1064   .text.main:000002c8 .LVL70
C:\Users\kenne\AppData\Local\Temp\cc2IZjCw.s:1073   .text.main:000002d8 .LVL71
C:\Users\kenne\AppData\Local\Temp\cc2IZjCw.s:1085   .text.main:000002f0 .LVL72
C:\Users\kenne\AppData\Local\Temp\cc2IZjCw.s:1146   .text.main:0000034c .LVL74
C:\Users\kenne\AppData\Local\Temp\cc2IZjCw.s:1155   .text.main:0000035c .LVL75
C:\Users\kenne\AppData\Local\Temp\cc2IZjCw.s:1167   .text.main:00000374 .LVL76
C:\Users\kenne\AppData\Local\Temp\cc2IZjCw.s:1251   .text.main:00000408 .LVL78
C:\Users\kenne\AppData\Local\Temp\cc2IZjCw.s:1260   .text.main:00000418 .LVL79
C:\Users\kenne\AppData\Local\Temp\cc2IZjCw.s:1272   .text.main:00000430 .LVL80
C:\Users\kenne\AppData\Local\Temp\cc2IZjCw.s:1321   .text.main:0000046c .LVL83
C:\Users\kenne\AppData\Local\Temp\cc2IZjCw.s:1330   .text.main:0000047c .LVL84
C:\Users\kenne\AppData\Local\Temp\cc2IZjCw.s:1342   .text.main:00000494 .LVL85
C:\Users\kenne\AppData\Local\Temp\cc2IZjCw.s:1350   .text.main:000004a0 .LVL86
C:\Users\kenne\AppData\Local\Temp\cc2IZjCw.s:1358   .text.main:000004ac .LVL87
C:\Users\kenne\AppData\Local\Temp\cc2IZjCw.s:1366   .text.main:000004b8 .LVL88
C:\Users\kenne\AppData\Local\Temp\cc2IZjCw.s:1399   .text.main:000004e4 .LVL91
C:\Users\kenne\AppData\Local\Temp\cc2IZjCw.s:1440   .text.main:0000051a .LVL94
C:\Users\kenne\AppData\Local\Temp\cc2IZjCw.s:1451   .text.main:00000526 .LVL97
C:\Users\kenne\AppData\Local\Temp\cc2IZjCw.s:1463   .text.main:0000053e .LVL98
C:\Users\kenne\AppData\Local\Temp\cc2IZjCw.s:1473   .text.main:0000054e .LVL99
C:\Users\kenne\AppData\Local\Temp\cc2IZjCw.s:1498   .text.main:0000056a .LVL102
C:\Users\kenne\AppData\Local\Temp\cc2IZjCw.s:1510   .text.main:00000582 .LVL103
C:\Users\kenne\AppData\Local\Temp\cc2IZjCw.s:1520   .text.main:00000592 .LVL104
C:\Users\kenne\AppData\Local\Temp\cc2IZjCw.s:1543   .text.main:000005b0 .LVL105
C:\Users\kenne\AppData\Local\Temp\cc2IZjCw.s:1555   .text.main:000005bc .LVL107
C:\Users\kenne\AppData\Local\Temp\cc2IZjCw.s:1563   .text.main:000005c8 .LVL108
C:\Users\kenne\AppData\Local\Temp\cc2IZjCw.s:1575   .text.main:000005e0 .LVL109
C:\Users\kenne\AppData\Local\Temp\cc2IZjCw.s:1583   .text.main:000005ec .LVL110
C:\Users\kenne\AppData\Local\Temp\cc2IZjCw.s:1634   .text.main:0000061a .LVL113
C:\Users\kenne\AppData\Local\Temp\cc2IZjCw.s:1645   .text.main:00000626 .LVL116
C:\Users\kenne\AppData\Local\Temp\cc2IZjCw.s:1657   .text.main:0000063e .LVL117
C:\Users\kenne\AppData\Local\Temp\cc2IZjCw.s:1667   .text.main:0000064e .LVL118
C:\Users\kenne\AppData\Local\Temp\cc2IZjCw.s:1687   .text.main:00000666 .LVL120
C:\Users\kenne\AppData\Local\Temp\cc2IZjCw.s:1698   .text.main:00000672 .LVL123
C:\Users\kenne\AppData\Local\Temp\cc2IZjCw.s:1710   .text.main:0000068a .LVL124
C:\Users\kenne\AppData\Local\Temp\cc2IZjCw.s:1720   .text.main:0000069a .LVL125
C:\Users\kenne\AppData\Local\Temp\cc2IZjCw.s:1740   .text.main:000006b2 .LVL127
C:\Users\kenne\AppData\Local\Temp\cc2IZjCw.s:1751   .text.main:000006be .LVL130
C:\Users\kenne\AppData\Local\Temp\cc2IZjCw.s:1763   .text.main:000006d6 .LVL131
C:\Users\kenne\AppData\Local\Temp\cc2IZjCw.s:1773   .text.main:000006e6 .LVL132
C:\Users\kenne\AppData\Local\Temp\cc2IZjCw.s:326    .text._Z8getanglem:00000000 .LFB57
C:\Users\kenne\AppData\Local\Temp\cc2IZjCw.s:439    .text._Z8getanglem:00000098 .LFE57
C:\Users\kenne\AppData\Local\Temp\cc2IZjCw.s:6988   .debug_loclists:0000034a .LLST6
C:\Users\kenne\AppData\Local\Temp\cc2IZjCw.s:6983   .debug_loclists:00000346 .LVUS6
C:\Users\kenne\AppData\Local\Temp\cc2IZjCw.s:7019   .debug_loclists:0000036b .LLST7
GAS LISTING C:\Users\kenne\AppData\Local\Temp\cc2IZjCw.s 			page 85


C:\Users\kenne\AppData\Local\Temp\cc2IZjCw.s:7016   .debug_loclists:00000369 .LVUS7
C:\Users\kenne\AppData\Local\Temp\cc2IZjCw.s:7040   .debug_loclists:00000381 .LLST8
C:\Users\kenne\AppData\Local\Temp\cc2IZjCw.s:7037   .debug_loclists:0000037f .LVUS8
C:\Users\kenne\AppData\Local\Temp\cc2IZjCw.s:210    .text._Z8setanglej:00000000 .LFB56
C:\Users\kenne\AppData\Local\Temp\cc2IZjCw.s:319    .text._Z8setanglej:00000068 .LFE56
C:\Users\kenne\AppData\Local\Temp\cc2IZjCw.s:7057   .debug_loclists:00000393 .LLST1
C:\Users\kenne\AppData\Local\Temp\cc2IZjCw.s:7052   .debug_loclists:0000038f .LVUS1
C:\Users\kenne\AppData\Local\Temp\cc2IZjCw.s:268    .text._Z8setanglej:00000058 .LBI76
C:\Users\kenne\AppData\Local\Temp\cc2IZjCw.s:267    .text._Z8setanglej:00000058 .LBB76
C:\Users\kenne\AppData\Local\Temp\cc2IZjCw.s:315    .text._Z8setanglej:00000066 .LBE76
C:\Users\kenne\AppData\Local\Temp\cc2IZjCw.s:7082   .debug_loclists:000003ad .LLST2
C:\Users\kenne\AppData\Local\Temp\cc2IZjCw.s:7079   .debug_loclists:000003ab .LVUS2
C:\Users\kenne\AppData\Local\Temp\cc2IZjCw.s:272    .text._Z8setanglej:00000058 .LBB77
C:\Users\kenne\AppData\Local\Temp\cc2IZjCw.s:311    .text._Z8setanglej:00000066 .LBE77
C:\Users\kenne\AppData\Local\Temp\cc2IZjCw.s:7097   .debug_loclists:000003bd .LLST3
C:\Users\kenne\AppData\Local\Temp\cc2IZjCw.s:7094   .debug_loclists:000003bb .LVUS3
C:\Users\kenne\AppData\Local\Temp\cc2IZjCw.s:7109   .debug_loclists:000003ca .LLST4
C:\Users\kenne\AppData\Local\Temp\cc2IZjCw.s:7104   .debug_loclists:000003c6 .LVUS4
C:\Users\kenne\AppData\Local\Temp\cc2IZjCw.s:276    .text._Z8setanglej:0000005a .LBI78
C:\Users\kenne\AppData\Local\Temp\cc2IZjCw.s:275    .text._Z8setanglej:0000005a .LBB78
C:\Users\kenne\AppData\Local\Temp\cc2IZjCw.s:290    .text._Z8setanglej:0000005c .LBE78
C:\Users\kenne\AppData\Local\Temp\cc2IZjCw.s:300    .text._Z8setanglej:00000064 .LBI80
C:\Users\kenne\AppData\Local\Temp\cc2IZjCw.s:299    .text._Z8setanglej:00000064 .LBB80
C:\Users\kenne\AppData\Local\Temp\cc2IZjCw.s:310    .text._Z8setanglej:00000066 .LBE80
C:\Users\kenne\AppData\Local\Temp\cc2IZjCw.s:7128   .debug_loclists:000003de .LLST5
C:\Users\kenne\AppData\Local\Temp\cc2IZjCw.s:7125   .debug_loclists:000003dc .LVUS5
C:\Users\kenne\AppData\Local\Temp\cc2IZjCw.s:38     .text._Z6typingihh:00000000 .LFB55
C:\Users\kenne\AppData\Local\Temp\cc2IZjCw.s:203    .text._Z6typingihh:000000b4 .LFE55
C:\Users\kenne\AppData\Local\Temp\cc2IZjCw.s:7168   .debug_loclists:0000040a .LLST0
C:\Users\kenne\AppData\Local\Temp\cc2IZjCw.s:7137   .debug_loclists:000003ec .LVUS0
C:\Users\kenne\AppData\Local\Temp\cc2IZjCw.s:15     .text._Z7getTickv:00000000 .LFB32
C:\Users\kenne\AppData\Local\Temp\cc2IZjCw.s:31     .text._Z7getTickv:00000008 .LFE32
C:\Users\kenne\AppData\Local\Temp\cc2IZjCw.s:864    .text.main:0000017e .LVL58
C:\Users\kenne\AppData\Local\Temp\cc2IZjCw.s:678    .text.main:0000013c .LVL42
C:\Users\kenne\AppData\Local\Temp\cc2IZjCw.s:689    .text.main:0000013e .LVL43
C:\Users\kenne\AppData\Local\Temp\cc2IZjCw.s:702    .text.main:0000014a .LVL44
C:\Users\kenne\AppData\Local\Temp\cc2IZjCw.s:1812   .debug_info:00000000 .Ldebug_info0
C:\Users\kenne\AppData\Local\Temp\cc2IZjCw.s:712    .text.main:0000014c .LVL45
C:\Users\kenne\AppData\Local\Temp\cc2IZjCw.s:727    .text.main:0000014e .LVL46
C:\Users\kenne\AppData\Local\Temp\cc2IZjCw.s:738    .text.main:00000150 .LVL47
C:\Users\kenne\AppData\Local\Temp\cc2IZjCw.s:753    .text.main:0000015c .LVL48
C:\Users\kenne\AppData\Local\Temp\cc2IZjCw.s:763    .text.main:0000015e .LVL49
C:\Users\kenne\AppData\Local\Temp\cc2IZjCw.s:778    .text.main:00000160 .LVL50
C:\Users\kenne\AppData\Local\Temp\cc2IZjCw.s:789    .text.main:00000162 .LVL51
C:\Users\kenne\AppData\Local\Temp\cc2IZjCw.s:802    .text.main:0000016a .LVL52
C:\Users\kenne\AppData\Local\Temp\cc2IZjCw.s:825    .text.main:00000174 .LVL54
C:\Users\kenne\AppData\Local\Temp\cc2IZjCw.s:832    .text.main:00000176 .LVL55
C:\Users\kenne\AppData\Local\Temp\cc2IZjCw.s:843    .text.main:00000178 .LVL56
C:\Users\kenne\AppData\Local\Temp\cc2IZjCw.s:854    .text.main:0000017c .LVL57
C:\Users\kenne\AppData\Local\Temp\cc2IZjCw.s:325    .text._Z8getanglem:00000000 .LVL22
C:\Users\kenne\AppData\Local\Temp\cc2IZjCw.s:379    .text._Z8getanglem:00000040 .LVL24
C:\Users\kenne\AppData\Local\Temp\cc2IZjCw.s:425    .text._Z8getanglem:0000008a .LVL26
C:\Users\kenne\AppData\Local\Temp\cc2IZjCw.s:209    .text._Z8setanglej:00000000 .LVL15
C:\Users\kenne\AppData\Local\Temp\cc2IZjCw.s:266    .text._Z8setanglej:00000058 .LVL17
C:\Users\kenne\AppData\Local\Temp\cc2IZjCw.s:274    .text._Z8setanglej:0000005a .LVL18
C:\Users\kenne\AppData\Local\Temp\cc2IZjCw.s:286    .text._Z8setanglej:0000005c .LVL19
C:\Users\kenne\AppData\Local\Temp\cc2IZjCw.s:297    .text._Z8setanglej:00000064 .LVL20
GAS LISTING C:\Users\kenne\AppData\Local\Temp\cc2IZjCw.s 			page 86


C:\Users\kenne\AppData\Local\Temp\cc2IZjCw.s:37     .text._Z6typingihh:00000000 .LVL0
C:\Users\kenne\AppData\Local\Temp\cc2IZjCw.s:1585   .text.main:000005ec .LBB116

UNDEFINED SYMBOLS
__umulhisi3
__divmodsi4
_ZN7Hd44780C1Ev
_ZN6KeypadC1Ev
_ZN6Keypad8setPortsEPVhhS1_h
_ZN6Keypad12setKeyValuesENS_4TypeEz
_ZN6Keypad4initEh
_ZN7Hd4478014controlPortSetEPVhhhh
_ZN7Hd4478011dataPortSetEPVhh
_ZN7Hd447804initENS_4SizeENS_4FontEbb
_ZN7Hd447805stdioEv
puts
_ZN7Hd4478011clearScreenEv
_ZN6Timer1C1Ev
_ZN6Timer113setOutputModeENS_10OutputModeES0_
_ZN6Timer14initENS_4ModeENS_11ClockSourceE
_ZN7Hd4478015displayStateSetENS_12DisplayStateE
printf
_ZN6Keypad14readKeyPressedEPh
_ZN7Hd4478010cursorGoToEhh
__do_copy_data
__do_clear_bss
