GAS LISTING C:\Users\kenne\AppData\Local\Temp\ccwOixCa.s 			page 1


   1               		.file	"main.cpp"
   2               	__SP_H__ = 0x3e
   3               	__SP_L__ = 0x3d
   4               	__SREG__ = 0x3f
   5               	__tmp_reg__ = 0
   6               	__zero_reg__ = 1
   7               		.text
   8               	.Ltext0:
   9               		.cfi_sections	.debug_frame
  10               		.file 0 "C:\\D\\IFSC\\MCC\\projects\\lcdTestfix" "main.cpp"
  11               		.section	.text._Z41__static_initialization_and_destruction_0ii,"ax",@progbits
  13               	_Z41__static_initialization_and_destruction_0ii:
  14               	.LVL0:
  15               	.LFB78:
  16               		.file 1 "main.cpp"
   1:main.cpp      **** #define F_CPU 16000000UL
   2:main.cpp      **** 
   3:main.cpp      **** #include <avr/io.h>
   4:main.cpp      **** #include <avr/interrupt.h>
   5:main.cpp      **** #include <util/delay.h>
   6:main.cpp      **** #include "funsape/globalDefines.hpp"
   7:main.cpp      **** #include "funsape/device/hd44780.hpp"
   8:main.cpp      **** #include "funsape/peripheral/timer0.hpp"
   9:main.cpp      **** #include "funsape/peripheral/timer1.hpp"
  10:main.cpp      **** 
  11:main.cpp      **** void stopWatchStart(void);
  12:main.cpp      **** void stopWatchStop(void);
  13:main.cpp      **** uint32_t stopWatchGetTime(void);
  14:main.cpp      **** Hd44780 lcd;
  15:main.cpp      **** vuint8_t num = 0;
  16:main.cpp      **** vuint8_t nOvf = 0;
  17:main.cpp      **** 
  18:main.cpp      **** int main()
  19:main.cpp      **** {
  20:main.cpp      ****     uint16_t dia = 29;
  21:main.cpp      ****     uint16_t mes = 4;
  22:main.cpp      ****     uint16_t ano = 23;
  23:main.cpp      ****     uint16_t hora = 10;
  24:main.cpp      ****     uint16_t minuto = 30;
  25:main.cpp      ****     uint16_t segundo = 37;
  26:main.cpp      **** 
  27:main.cpp      ****     //Disable USART (Fix to solve bootloader issue)
  28:main.cpp      ****     UCSR0A = 0;
  29:main.cpp      ****     UCSR0B = 0;
  30:main.cpp      **** 
  31:main.cpp      ****     //Config INT0
  32:main.cpp      ****     clrBit(DDRD, PD2); // Pin as input
  33:main.cpp      ****     setBit(PORTD, PD2); //Pin as input with pull-up
  34:main.cpp      ****     clrMaskOffset(EICRA, 0b11, ISC00); // Clear to configure the sense later
  35:main.cpp      ****     setMaskOffset(EICRA, 2, ISC00); // configure INT0 trigger sense at falling edge
  36:main.cpp      ****     setBit(EIMSK, INT0); // Enable INT0 service routine
  37:main.cpp      **** 
  38:main.cpp      ****     //Timer1 configuration
  39:main.cpp      ****     timer1.setMode(Timer1::Mode::NORMAL);
  40:main.cpp      ****     timer1.setClockSource(Timer1::ClockSource::DISABLED);
  41:main.cpp      ****     timer1.activateOverflowInterrupt();
  42:main.cpp      **** 
GAS LISTING C:\Users\kenne\AppData\Local\Temp\ccwOixCa.s 			page 2


  43:main.cpp      ****     //Config LCD
  44:main.cpp      ****     lcd.controlPortSet(&DDRB, PB4, PB5);
  45:main.cpp      ****     lcd.dataPortSet(&DDRB, PB0);
  46:main.cpp      ****     lcd.init(Hd44780::Size::LCD_16X2, Hd44780::Font::FONT_5X8, true, false);
  47:main.cpp      ****     lcd.stdio();
  48:main.cpp      **** 
  49:main.cpp      ****     // Splash screen
  50:main.cpp      ****     printf(" %02d/%02d/20%02d %3s\n", dia, mes, ano, "SEG");
  51:main.cpp      ****     printf("    %02d:%02d:%02d    \n", hora, minuto, segundo);
  52:main.cpp      ****     delayMs(2000);
  53:main.cpp      **** 
  54:main.cpp      ****     lcd.clearScreen();
  55:main.cpp      ****     printf("Kenner");
  56:main.cpp      **** 
  57:main.cpp      ****     setBit(DDRB, PB5);
  58:main.cpp      **** 
  59:main.cpp      ****     sei(); // Enable interrupt
  60:main.cpp      **** 
  61:main.cpp      ****     while(1) {
  62:main.cpp      ****         stopWatchStart();
  63:main.cpp      ****         delayMs(1000);
  64:main.cpp      ****         // lcd.clearScreen();
  65:main.cpp      ****         // printf("qqr coisa\n");
  66:main.cpp      ****         // printf("Num=%d\n",num++)
  67:main.cpp      ****         // cplBit(PORTB, PB5);
  68:main.cpp      ****         // delayMs(250);
  69:main.cpp      ****         stopWatchStop();
  70:main.cpp      **** 
  71:main.cpp      ****         lcd.clearScreen();
  72:main.cpp      ****         printf("time=%lu\n %u %u", stopWatchGetTime(), nOvf, TCNT1);
  73:main.cpp      ****         delayMs(1000);
  74:main.cpp      ****     }
  75:main.cpp      **** 
  76:main.cpp      ****     return 0;
  77:main.cpp      **** }
  78:main.cpp      **** 
  79:main.cpp      **** 
  80:main.cpp      **** ISR(INT0_vect)
  81:main.cpp      **** {
  82:main.cpp      ****     //stopWatchStart();
  83:main.cpp      ****     lcd.clearScreen();
  84:main.cpp      ****     printf("Outra coisa\n");
  85:main.cpp      ****     printf("num=%d\n", num++);
  86:main.cpp      ****     //stopWatchStop();
  87:main.cpp      **** 
  88:main.cpp      **** }
  89:main.cpp      **** 
  90:main.cpp      **** 
  91:main.cpp      **** void timer1OverflowCallback(void)
  92:main.cpp      **** {
  93:main.cpp      ****     nOvf++;
  94:main.cpp      ****     timer1.setCounterValue(0);
  95:main.cpp      **** }
  96:main.cpp      **** 
  97:main.cpp      **** void stopWatchStart(void)
  98:main.cpp      **** {
  99:main.cpp      ****     //clear all vars
GAS LISTING C:\Users\kenne\AppData\Local\Temp\ccwOixCa.s 			page 3


 100:main.cpp      ****     nOvf = 0;
 101:main.cpp      ****     timer1.setCounterValue(0);
 102:main.cpp      **** 
 103:main.cpp      ****     //timer1 run
 104:main.cpp      ****     timer1.setClockSource(Timer1::ClockSource::PRESCALER_8);
 105:main.cpp      **** }
 106:main.cpp      **** void stopWatchStop(void)
 107:main.cpp      **** {
 108:main.cpp      ****     //timer1 stop
 109:main.cpp      ****     timer1.setClockSource(Timer1::ClockSource::DISABLED);
 110:main.cpp      **** }
 111:main.cpp      **** 
 112:main.cpp      **** uint32_t stopWatchGetTime(void)
 113:main.cpp      **** {
 114:main.cpp      ****     uint32_t totalTime = 0;
 115:main.cpp      ****     totalTime = (uint32_t)nOvf * (0x0FFFFUL + 1) + (uint32_t)timer1.getCounterValue();
 116:main.cpp      **** 
 117:main.cpp      ****     return (totalTime / 2);
 118:main.cpp      **** }
  17               		.loc 1 118 1 view -0
  18               		.cfi_startproc
  19               		.loc 1 118 1 is_stmt 0 view .LVU1
  20 0000 0F93      		push r16
  21               		.cfi_def_cfa_offset 3
  22               		.cfi_offset 16, -2
  23 0002 1F93      		push r17
  24               		.cfi_def_cfa_offset 4
  25               		.cfi_offset 17, -3
  26 0004 CF93      		push r28
  27               		.cfi_def_cfa_offset 5
  28               		.cfi_offset 28, -4
  29 0006 DF93      		push r29
  30               		.cfi_def_cfa_offset 6
  31               		.cfi_offset 29, -5
  32               	/* prologue: function */
  33               	/* frame size = 0 */
  34               	/* stack size = 4 */
  35               	.L__stack_usage = 4
  36 0008 C82F      		mov r28,r24
  37 000a D92F      		mov r29,r25
  38 000c 062F      		mov r16,r22
  39 000e 172F      		mov r17,r23
  40               		.loc 1 118 1 view .LVU2
  41 0010 C130      		cpi r28,1
  42 0012 D105      		cpc r29,__zero_reg__
  43 0014 01F0      		breq .L4
  44               	.LVL1:
  45               	.L2:
  14:main.cpp      **** vuint8_t num = 0;
  46               		.loc 1 14 9 view .LVU3
  47 0016 CD2B      		or r28,r29
  48 0018 01F4      		brne .L1
  14:main.cpp      **** vuint8_t num = 0;
  49               		.loc 1 14 9 discriminator 1 view .LVU4
  50 001a 0F3F      		cpi r16,-1
  51 001c 1F4F      		sbci r17,-1
  52 001e 01F0      		breq .L5
GAS LISTING C:\Users\kenne\AppData\Local\Temp\ccwOixCa.s 			page 4


  53               	.L1:
  54               	/* epilogue start */
  55               		.loc 1 118 1 view .LVU5
  56 0020 DF91      		pop r29
  57 0022 CF91      		pop r28
  58 0024 1F91      		pop r17
  59 0026 0F91      		pop r16
  60 0028 0895      		ret
  61               	.LVL2:
  62               	.L4:
  63               		.loc 1 118 1 discriminator 1 view .LVU6
  64 002a 0F3F      		cpi r16,-1
  65 002c 1007      		cpc r17,r16
  66               	.LVL3:
  67               		.loc 1 118 1 discriminator 1 view .LVU7
  68 002e 01F4      		brne .L2
  14:main.cpp      **** vuint8_t num = 0;
  69               		.loc 1 14 9 view .LVU8
  70 0030 80E0      		ldi r24,lo8(lcd)
  71 0032 90E0      		ldi r25,hi8(lcd)
  72 0034 0E94 0000 		call _ZN7Hd44780C1Ev
  73               	.LVL4:
  14:main.cpp      **** vuint8_t num = 0;
  74               		.loc 1 14 9 view .LVU9
  75 0038 00C0      		rjmp .L2
  76               	.L5:
  14:main.cpp      **** vuint8_t num = 0;
  77               		.loc 1 14 9 discriminator 2 view .LVU10
  78 003a 80E0      		ldi r24,lo8(lcd)
  79 003c 90E0      		ldi r25,hi8(lcd)
  80 003e 0E94 0000 		call _ZN7Hd44780D1Ev
  81               	.LVL5:
  82               		.loc 1 118 1 discriminator 2 view .LVU11
  83 0042 00C0      		rjmp .L1
  84               		.cfi_endproc
  85               	.LFE78:
  87               		.section	.text._Z7getTickv,"ax",@progbits
  88               		.weak	_Z7getTickv
  90               	_Z7getTickv:
  91               	.LFB32:
  92               		.file 2 "funsape/globalDefines.hpp"
   1:funsape/globalDefines.hpp **** //!
   2:funsape/globalDefines.hpp **** //! \file           globalDefines.hpp
   3:funsape/globalDefines.hpp **** //! \brief          Global definitions file
   4:funsape/globalDefines.hpp **** //! \author         Leandro Schwarz (bladabuska+funsapeavr8lib@gmail.com)
   5:funsape/globalDefines.hpp **** //! \date           2023-04-05
   6:funsape/globalDefines.hpp **** //! \version        23.04
   7:funsape/globalDefines.hpp **** //! \copyright      license
   8:funsape/globalDefines.hpp **** //! \details        Global definitions file.
   9:funsape/globalDefines.hpp **** //! \todo           Todo list
  10:funsape/globalDefines.hpp **** //!
  11:funsape/globalDefines.hpp **** 
  12:funsape/globalDefines.hpp **** // =============================================================================
  13:funsape/globalDefines.hpp **** // Include guard (START)
  14:funsape/globalDefines.hpp **** // =============================================================================
  15:funsape/globalDefines.hpp **** 
  16:funsape/globalDefines.hpp **** #ifndef __GLOBAL_DEFINES_HPP
GAS LISTING C:\Users\kenne\AppData\Local\Temp\ccwOixCa.s 			page 5


  17:funsape/globalDefines.hpp **** #define __GLOBAL_DEFINES_HPP                    2304
  18:funsape/globalDefines.hpp **** 
  19:funsape/globalDefines.hpp **** // =============================================================================
  20:funsape/globalDefines.hpp **** // Basic definitions
  21:funsape/globalDefines.hpp **** // =============================================================================
  22:funsape/globalDefines.hpp **** 
  23:funsape/globalDefines.hpp **** #ifndef F_CPU
  24:funsape/globalDefines.hpp **** #   define F_CPU    16000000UL
  25:funsape/globalDefines.hpp **** #endif
  26:funsape/globalDefines.hpp **** 
  27:funsape/globalDefines.hpp **** // =============================================================================
  28:funsape/globalDefines.hpp **** // Dependencies
  29:funsape/globalDefines.hpp **** // =============================================================================
  30:funsape/globalDefines.hpp **** 
  31:funsape/globalDefines.hpp **** //     //////////////////     AVR STANDARD LIBRARY     //////////////////     //
  32:funsape/globalDefines.hpp **** #include <avr/io.h>
  33:funsape/globalDefines.hpp **** #include <avr/interrupt.h>
  34:funsape/globalDefines.hpp **** #include <util/delay.h>
  35:funsape/globalDefines.hpp **** #include <util/atomic.h>
  36:funsape/globalDefines.hpp **** 
  37:funsape/globalDefines.hpp **** //     ///////////////////     STANDARD C LIBRARY     ///////////////////     //
  38:funsape/globalDefines.hpp **** #include <stddef.h>
  39:funsape/globalDefines.hpp **** #include <stdint.h>
  40:funsape/globalDefines.hpp **** #include <stdio.h>
  41:funsape/globalDefines.hpp **** #include <stdlib.h>
  42:funsape/globalDefines.hpp **** #include <string.h>
  43:funsape/globalDefines.hpp **** 
  44:funsape/globalDefines.hpp **** //     //////////////////     LIBRARY DEPENDENCIES     //////////////////     //
  45:funsape/globalDefines.hpp **** #include "pinout.hpp"
  46:funsape/globalDefines.hpp **** #if !defined(__PINOUT_HPP)
  47:funsape/globalDefines.hpp **** #   error "Header file (pinout.hpp) is corrupted!"
  48:funsape/globalDefines.hpp **** #elif __PINOUT_HPP != __GLOBAL_DEFINES_HPP
  49:funsape/globalDefines.hpp **** #   error "Version mismatch between header file and library dependency (pinout.hpp)!"
  50:funsape/globalDefines.hpp **** #endif
  51:funsape/globalDefines.hpp **** 
  52:funsape/globalDefines.hpp **** // =============================================================================
  53:funsape/globalDefines.hpp **** // Undefining previous definitions
  54:funsape/globalDefines.hpp **** // =============================================================================
  55:funsape/globalDefines.hpp **** 
  56:funsape/globalDefines.hpp **** // NONE
  57:funsape/globalDefines.hpp **** 
  58:funsape/globalDefines.hpp **** // =============================================================================
  59:funsape/globalDefines.hpp **** // Constant definitions
  60:funsape/globalDefines.hpp **** // =============================================================================
  61:funsape/globalDefines.hpp **** 
  62:funsape/globalDefines.hpp **** #define inlined                         inline __attribute__((always_inline))
  63:funsape/globalDefines.hpp **** #define weakened                        __attribute__((weak))
  64:funsape/globalDefines.hpp **** 
  65:funsape/globalDefines.hpp **** // =============================================================================
  66:funsape/globalDefines.hpp **** // New data types
  67:funsape/globalDefines.hpp **** // =============================================================================
  68:funsape/globalDefines.hpp **** 
  69:funsape/globalDefines.hpp **** //     ////////////////////     BASIC VARIABLES     /////////////////////     //
  70:funsape/globalDefines.hpp **** typedef bool                            bool_t;
  71:funsape/globalDefines.hpp **** typedef char                            char_t;
  72:funsape/globalDefines.hpp **** 
  73:funsape/globalDefines.hpp **** //     ///////////////////     CONSTANT VARIABLES    ////////////////////     //
GAS LISTING C:\Users\kenne\AppData\Local\Temp\ccwOixCa.s 			page 6


  74:funsape/globalDefines.hpp **** typedef const bool_t                    cbool_t;
  75:funsape/globalDefines.hpp **** typedef const char_t                    cchar_t;
  76:funsape/globalDefines.hpp **** typedef const int8_t                    cint8_t;
  77:funsape/globalDefines.hpp **** typedef const int16_t                   cint16_t;
  78:funsape/globalDefines.hpp **** typedef const int32_t                   cint32_t;
  79:funsape/globalDefines.hpp **** typedef const int64_t                   cint64_t;
  80:funsape/globalDefines.hpp **** typedef const uint8_t                   cuint8_t;
  81:funsape/globalDefines.hpp **** typedef const uint16_t                  cuint16_t;
  82:funsape/globalDefines.hpp **** typedef const uint32_t                  cuint32_t;
  83:funsape/globalDefines.hpp **** typedef const uint64_t                  cuint64_t;
  84:funsape/globalDefines.hpp **** 
  85:funsape/globalDefines.hpp **** //     ///////////////////     VOLATILE VARIABLES    ////////////////////     //
  86:funsape/globalDefines.hpp **** typedef volatile bool_t                 vbool_t;
  87:funsape/globalDefines.hpp **** typedef volatile char_t                 vchar_t;
  88:funsape/globalDefines.hpp **** typedef volatile int8_t                 vint8_t;
  89:funsape/globalDefines.hpp **** typedef volatile int16_t                vint16_t;
  90:funsape/globalDefines.hpp **** typedef volatile int32_t                vint32_t;
  91:funsape/globalDefines.hpp **** typedef volatile int64_t                vint64_t;
  92:funsape/globalDefines.hpp **** typedef volatile uint8_t                vuint8_t;
  93:funsape/globalDefines.hpp **** typedef volatile uint16_t               vuint16_t;
  94:funsape/globalDefines.hpp **** typedef volatile uint32_t               vuint32_t;
  95:funsape/globalDefines.hpp **** typedef volatile uint64_t               vuint64_t;
  96:funsape/globalDefines.hpp **** 
  97:funsape/globalDefines.hpp **** //     /////////////////     AVR PLATFORM VARIABLES    //////////////////     //
  98:funsape/globalDefines.hpp **** typedef int16_t                         int_t;          // 16-bit (AVR)
  99:funsape/globalDefines.hpp **** typedef uint16_t                        uint_t;         // 16-bit (AVR)
 100:funsape/globalDefines.hpp **** typedef cint16_t                        cint_t;         // 16-bit (AVR)
 101:funsape/globalDefines.hpp **** typedef cuint16_t                       cuint_t;        // 16-bit (AVR)
 102:funsape/globalDefines.hpp **** typedef vint16_t                        vint_t;         // 16-bit (AVR)
 103:funsape/globalDefines.hpp **** typedef vuint16_t                       vuint_t;        // 16-bit (AVR)
 104:funsape/globalDefines.hpp **** typedef uint8_t                         ioPinIndex_t;   // 8-bit (AVR)
 105:funsape/globalDefines.hpp **** typedef vuint8_t                       *ioRegAddress_t; // 8-bit address (AVR)
 106:funsape/globalDefines.hpp **** 
 107:funsape/globalDefines.hpp **** //     //////////////////     BINARY ENUMERATIONS     ///////////////////     //
 108:funsape/globalDefines.hpp **** enum class Activation : cbool_t {
 109:funsape/globalDefines.hpp ****     OFF                                 = false,
 110:funsape/globalDefines.hpp ****     ON                                  = true
 111:funsape/globalDefines.hpp **** };
 112:funsape/globalDefines.hpp **** 
 113:funsape/globalDefines.hpp **** enum class DisplayOrientation : cbool_t {
 114:funsape/globalDefines.hpp ****     LANDSCAPE                           = false,
 115:funsape/globalDefines.hpp ****     PORTRAIT                            = true
 116:funsape/globalDefines.hpp **** };
 117:funsape/globalDefines.hpp **** 
 118:funsape/globalDefines.hpp **** enum class DriverMode : cbool_t {
 119:funsape/globalDefines.hpp ****     PUSH_PULL                           = false,
 120:funsape/globalDefines.hpp ****     OPEN_DRAIN                          = true,
 121:funsape/globalDefines.hpp **** };
 122:funsape/globalDefines.hpp **** 
 123:funsape/globalDefines.hpp **** enum class Edge : cbool_t {
 124:funsape/globalDefines.hpp ****     FALLING                             = false,
 125:funsape/globalDefines.hpp ****     RISING                              = true
 126:funsape/globalDefines.hpp **** };
 127:funsape/globalDefines.hpp **** 
 128:funsape/globalDefines.hpp **** enum class IoOperation : cbool_t {
 129:funsape/globalDefines.hpp ****     WRITE                               = false,
 130:funsape/globalDefines.hpp ****     READ                                = true
GAS LISTING C:\Users\kenne\AppData\Local\Temp\ccwOixCa.s 			page 7


 131:funsape/globalDefines.hpp **** };
 132:funsape/globalDefines.hpp **** 
 133:funsape/globalDefines.hpp **** enum class LogicLevel : cbool_t {
 134:funsape/globalDefines.hpp ****     LOW                                 = false,
 135:funsape/globalDefines.hpp ****     HIGH                                = true
 136:funsape/globalDefines.hpp **** };
 137:funsape/globalDefines.hpp **** 
 138:funsape/globalDefines.hpp **** enum class PinDirection : cbool_t {
 139:funsape/globalDefines.hpp ****     INPUT                               = false,
 140:funsape/globalDefines.hpp ****     OUTPUT                              = true,
 141:funsape/globalDefines.hpp **** };
 142:funsape/globalDefines.hpp **** 
 143:funsape/globalDefines.hpp **** enum class Rotation : cbool_t {
 144:funsape/globalDefines.hpp ****     CLOCKWISE                           = false,
 145:funsape/globalDefines.hpp ****     COUNTERCLOCKWISE                    = true
 146:funsape/globalDefines.hpp **** };
 147:funsape/globalDefines.hpp **** 
 148:funsape/globalDefines.hpp **** enum class State : cbool_t {
 149:funsape/globalDefines.hpp ****     OFF                                 = false,
 150:funsape/globalDefines.hpp ****     ON                                  = true
 151:funsape/globalDefines.hpp **** };
 152:funsape/globalDefines.hpp **** 
 153:funsape/globalDefines.hpp **** //     ///////////////////     PLAIN ENUMERATIONS    ////////////////////     //
 154:funsape/globalDefines.hpp **** enum class Axis : cuint8_t {
 155:funsape/globalDefines.hpp ****     //                                     Z-AXIS     Y-AXIS     X-AXIS
 156:funsape/globalDefines.hpp ****     NONE                                = (0 << 2) | (0 << 1) | (0 << 0),
 157:funsape/globalDefines.hpp ****     X                                   = (0 << 2) | (0 << 1) | (1 << 0),
 158:funsape/globalDefines.hpp ****     Y                                   = (0 << 2) | (1 << 1) | (0 << 0),
 159:funsape/globalDefines.hpp ****     XY                                  = (0 << 2) | (1 << 1) | (1 << 0),
 160:funsape/globalDefines.hpp ****     Z                                   = (1 << 2) | (0 << 1) | (0 << 0),
 161:funsape/globalDefines.hpp ****     XZ                                  = (1 << 2) | (0 << 1) | (1 << 0),
 162:funsape/globalDefines.hpp ****     YZ                                  = (1 << 2) | (1 << 1) | (0 << 0),
 163:funsape/globalDefines.hpp ****     ALL                                 = (1 << 2) | (1 << 1) | (1 << 0)
 164:funsape/globalDefines.hpp **** };
 165:funsape/globalDefines.hpp **** 
 166:funsape/globalDefines.hpp **** inlined Axis operator|(Axis a, Axis b)
 167:funsape/globalDefines.hpp **** {
 168:funsape/globalDefines.hpp ****     return static_cast<Axis>(static_cast<cint8_t>(a) | static_cast<uint8_t>(b));
 169:funsape/globalDefines.hpp **** }
 170:funsape/globalDefines.hpp **** 
 171:funsape/globalDefines.hpp **** inlined Axis &operator|=(Axis &a, Axis b)
 172:funsape/globalDefines.hpp **** {
 173:funsape/globalDefines.hpp ****     return a = static_cast<Axis>(static_cast<uint8_t>(a) | static_cast<uint8_t>(b));
 174:funsape/globalDefines.hpp **** }
 175:funsape/globalDefines.hpp **** 
 176:funsape/globalDefines.hpp **** inlined Axis operator&(Axis a, Axis b)
 177:funsape/globalDefines.hpp **** {
 178:funsape/globalDefines.hpp ****     return static_cast<Axis>(static_cast<uint8_t>(a) & static_cast<uint8_t>(b));
 179:funsape/globalDefines.hpp **** }
 180:funsape/globalDefines.hpp **** 
 181:funsape/globalDefines.hpp **** inlined Axis &operator&=(Axis &a, Axis b)
 182:funsape/globalDefines.hpp **** {
 183:funsape/globalDefines.hpp ****     return a = static_cast<Axis>(static_cast<uint8_t>(a) & static_cast<uint8_t>(b));
 184:funsape/globalDefines.hpp **** }
 185:funsape/globalDefines.hpp **** 
 186:funsape/globalDefines.hpp **** enum class Direction : cuint8_t {
 187:funsape/globalDefines.hpp ****     LEFT                                = 0,
GAS LISTING C:\Users\kenne\AppData\Local\Temp\ccwOixCa.s 			page 8


 188:funsape/globalDefines.hpp ****     RIGHT                               = 1,
 189:funsape/globalDefines.hpp ****     UP                                  = 2,
 190:funsape/globalDefines.hpp ****     DOWN                                = 3
 191:funsape/globalDefines.hpp **** };
 192:funsape/globalDefines.hpp **** 
 193:funsape/globalDefines.hpp **** enum class InterfaceMode : cuint8_t {
 194:funsape/globalDefines.hpp ****     BLOCKING_MODE                       = 0,
 195:funsape/globalDefines.hpp ****     INTERRUPT_MODE                      = 1,
 196:funsape/globalDefines.hpp ****     DMA_MODE                            = 2
 197:funsape/globalDefines.hpp **** };
 198:funsape/globalDefines.hpp **** 
 199:funsape/globalDefines.hpp **** enum class ThermometricScale : cuint8_t {
 200:funsape/globalDefines.hpp ****     CELSIUS                             = 0,
 201:funsape/globalDefines.hpp ****     DELISLE                             = 1,
 202:funsape/globalDefines.hpp ****     FAHRENHEIT                          = 2,
 203:funsape/globalDefines.hpp ****     KELVIN                              = 3,
 204:funsape/globalDefines.hpp ****     NEWTON                              = 4,
 205:funsape/globalDefines.hpp ****     RANKINE                             = 5,
 206:funsape/globalDefines.hpp ****     REAUMUR                             = 6,
 207:funsape/globalDefines.hpp ****     ROMER                               = 7
 208:funsape/globalDefines.hpp **** };
 209:funsape/globalDefines.hpp **** 
 210:funsape/globalDefines.hpp **** enum class Error : cuint16_t {
 211:funsape/globalDefines.hpp ****     // General error codes
 212:funsape/globalDefines.hpp ****     NONE                                                = 0x0000,   // Success - No errors occurred
 213:funsape/globalDefines.hpp ****     AXIS_INVALID                                        = 0x0001,   // Invalid axis
 214:funsape/globalDefines.hpp ****     NOT_IMPLEMENTED                                     = 0x0002,   // Not implemented yet
 215:funsape/globalDefines.hpp ****     UNDER_DEVELOPMENT                                   = 0x0003,   // This part of the code is sti
 216:funsape/globalDefines.hpp ****     NOT_INITIALIZED                                     = 0x0004,   // Not initialized
 217:funsape/globalDefines.hpp ****     // BUSY                                                = 0x0005,   // TODO: Describe parameter
 218:funsape/globalDefines.hpp ****     // DEVICE_NOT_SUPPORTED                                = 0x0006,   // Device is not currently s
 219:funsape/globalDefines.hpp ****     // FEATURE_NOT_SUPPORTED                               = 0x0007,   // Unsupported feature or co
 220:funsape/globalDefines.hpp ****     // FUNCTION_POINTER_NULL                               = 0x0008,   // TODO: Describe parameter
 221:funsape/globalDefines.hpp ****     // INSTANCE_INVALID                                    = 0x0009,   // Invalid instance
 222:funsape/globalDefines.hpp ****     // LOCKED                                              = 0x000A,   // Accessed a locked device
 223:funsape/globalDefines.hpp ****     MEMORY_ALLOCATION                                   = 0x000B,   // Memory allocation failed
 224:funsape/globalDefines.hpp ****     // MODE_NOT_SUPPORTED                                  = 0x000C,   // Mode is not currently sup
 225:funsape/globalDefines.hpp ****     // NOT_READY                                           = 0x000D,   // TODO: Describe parameter
 226:funsape/globalDefines.hpp ****     // READ_PROTECTED                                      = 0x000E,   // Tried to read a read prot
 227:funsape/globalDefines.hpp ****     // WRITE_PROTECTED                                     = 0x000F,   // Tried to write a write pr
 228:funsape/globalDefines.hpp **** 
 229:funsape/globalDefines.hpp ****     // Function arguments related error codes
 230:funsape/globalDefines.hpp ****     // ARGUMENT_CANNOT_BE_ZERO                             = 0x0010,   // TODO: Describe parameter
 231:funsape/globalDefines.hpp ****     ARGUMENT_POINTER_NULL                               = 0x0011,   // NULL pointer was passed as a
 232:funsape/globalDefines.hpp ****     ARGUMENT_VALUE_INVALID                              = 0x0012,   // TODO: Describe parameter
 233:funsape/globalDefines.hpp ****     // ARGUMENTS_MISMATCH                                  = 0x0013,   // A function was called wit
 234:funsape/globalDefines.hpp ****     // ARGUMENTS_WRONG_NUMBER                              = 0x0014,   // A function was called wit
 235:funsape/globalDefines.hpp ****     // ARGUMENT_GENERIC_ERROR_5                            = 0x0015,   // Generic error (use only o
 236:funsape/globalDefines.hpp ****     // ARGUMENT_GENERIC_ERROR_6                            = 0x0016,   // Generic error (use only o
 237:funsape/globalDefines.hpp ****     // ARGUMENT_GENERIC_ERROR_7                            = 0x0017,   // Generic error (use only o
 238:funsape/globalDefines.hpp ****     // ARGUMENT_GENERIC_ERROR_8                            = 0x0018,   // Generic error (use only o
 239:funsape/globalDefines.hpp ****     // ARGUMENT_GENERIC_ERROR_9                            = 0x0019,   // Generic error (use only o
 240:funsape/globalDefines.hpp ****     // ARGUMENT_GENERIC_ERROR_10                           = 0x001A,   // Generic error (use only o
 241:funsape/globalDefines.hpp ****     // ARGUMENT_GENERIC_ERROR_11                           = 0x001B,   // Generic error (use only o
 242:funsape/globalDefines.hpp ****     // ARGUMENT_GENERIC_ERROR_12                           = 0x001C,   // Generic error (use only o
 243:funsape/globalDefines.hpp ****     // ARGUMENT_GENERIC_ERROR_13                           = 0x001D,   // Generic error (use only o
 244:funsape/globalDefines.hpp ****     // ARGUMENT_GENERIC_ERROR_14                           = 0x001E,   // Generic error (use only o
GAS LISTING C:\Users\kenne\AppData\Local\Temp\ccwOixCa.s 			page 9


 245:funsape/globalDefines.hpp ****     // ARGUMENT_GENERIC_ERROR                              = 0x001F,   // Generic error (use only o
 246:funsape/globalDefines.hpp **** 
 247:funsape/globalDefines.hpp ****     // Buffer related error codes
 248:funsape/globalDefines.hpp ****     // BUFFER_EMPTY                                        = 0x0020,   // Buffer is empty
 249:funsape/globalDefines.hpp ****     // BUFFER_FULL                                         = 0x0021,   // Buffer is full
 250:funsape/globalDefines.hpp ****     // BUFFER_NOT_ENOUGH_ELEMENTS                          = 0x0022,   // Not enough space in buffe
 251:funsape/globalDefines.hpp ****     // BUFFER_NOT_ENOUGH_SPACE                             = 0x0023,   // Not enough space in buffe
 252:funsape/globalDefines.hpp ****     // BUFFER_POINTER_NULL                                 = 0x0024,   // Buffer size was set to ze
 253:funsape/globalDefines.hpp ****     // BUFFER_SIZE_TOO_LARGE                               = 0x0025,   // Buffer size was set to a 
 254:funsape/globalDefines.hpp ****     // BUFFER_SIZE_TOO_SMALL                               = 0x0026,   // Buffer size was set to a 
 255:funsape/globalDefines.hpp ****     // BUFFER_SIZE_ZERO                                    = 0x0027,   // Buffer size was set to ze
 256:funsape/globalDefines.hpp ****     // BUFFER_GENERIC_ERROR_8                              = 0x0028,   // Generic error (use only o
 257:funsape/globalDefines.hpp ****     // BUFFER_GENERIC_ERROR_9                              = 0x0029,   // Generic error (use only o
 258:funsape/globalDefines.hpp ****     // BUFFER_GENERIC_ERROR_10                             = 0x002A,   // Generic error (use only o
 259:funsape/globalDefines.hpp ****     // BUFFER_GENERIC_ERROR_11                             = 0x002B,   // Generic error (use only o
 260:funsape/globalDefines.hpp ****     // BUFFER_GENERIC_ERROR_12                             = 0x002C,   // Generic error (use only o
 261:funsape/globalDefines.hpp ****     // BUFFER_GENERIC_ERROR_13                             = 0x002D,   // Generic error (use only o
 262:funsape/globalDefines.hpp ****     // BUFFER_GENERIC_ERROR_14                             = 0x002E,   // Generic error (use only o
 263:funsape/globalDefines.hpp ****     // BUFFER_GENERIC_ERROR_15                             = 0x002F,   // Generic error (use only o
 264:funsape/globalDefines.hpp **** 
 265:funsape/globalDefines.hpp ****     // Clock configuration related error codes
 266:funsape/globalDefines.hpp ****     // CLOCK_PRESCALER_CHANGE_FAILED                       = 0x0030,   // Clock prescaler change fa
 267:funsape/globalDefines.hpp ****     // CLOCK_PRESCALER_NOT_SUPPORTED                       = 0x0031,   // Clock prescaler configura
 268:funsape/globalDefines.hpp ****     // CLOCK_SPEED_TOO_HIGH                                = 0x0032,   // TODO: Describe parameter
 269:funsape/globalDefines.hpp ****     // CLOCK_SPEED_TOO_LOW                                 = 0x0033,   // TODO: Describe parameter
 270:funsape/globalDefines.hpp ****     // CLOCK_GENERIC_ERROR_4                               = 0x0034,   // Generic error (use only o
 271:funsape/globalDefines.hpp ****     // CLOCK_GENERIC_ERROR_5                               = 0x0035,   // Generic error (use only o
 272:funsape/globalDefines.hpp ****     // CLOCK_GENERIC_ERROR_6                               = 0x0036,   // Generic error (use only o
 273:funsape/globalDefines.hpp ****     // CLOCK_GENERIC_ERROR_7                               = 0x0037,   // Generic error (use only o
 274:funsape/globalDefines.hpp ****     // CLOCK_GENERIC_ERROR_8                               = 0x0038,   // Generic error (use only o
 275:funsape/globalDefines.hpp ****     // CLOCK_GENERIC_ERROR_9                               = 0x0039,   // Generic error (use only o
 276:funsape/globalDefines.hpp ****     // CLOCK_GENERIC_ERROR_10                              = 0x003A,   // Generic error (use only o
 277:funsape/globalDefines.hpp ****     // CLOCK_GENERIC_ERROR_11                              = 0x003B,   // Generic error (use only o
 278:funsape/globalDefines.hpp ****     // CLOCK_GENERIC_ERROR_12                              = 0x003C,   // Generic error (use only o
 279:funsape/globalDefines.hpp ****     // CLOCK_GENERIC_ERROR_13                              = 0x003D,   // Generic error (use only o
 280:funsape/globalDefines.hpp ****     // CLOCK_GENERIC_ERROR_14                              = 0x003E,   // Generic error (use only o
 281:funsape/globalDefines.hpp ****     // CLOCK_GENERIC_ERROR_15                              = 0x003F,   // Generic error (use only o
 282:funsape/globalDefines.hpp **** 
 283:funsape/globalDefines.hpp ****     // Communication related error codes
 284:funsape/globalDefines.hpp ****     // COMMUNICATION_FAILED                                = 0x0040,   // TODO: Describe parameter
 285:funsape/globalDefines.hpp ****     // COMMUNICATION_NO_DEVICE_SELECTED                    = 0x0041,   // TODO: Describe parameter
 286:funsape/globalDefines.hpp ****     // COMMUNICATION_PORT_NOT_SET                          = 0x0042,   // TODO: Describe parameter
 287:funsape/globalDefines.hpp ****     // COMMUNICATION_TIMEOUT                               = 0x0043,   // The operation timed out
 288:funsape/globalDefines.hpp ****     // COMMUNICATION_DEVICE_ID_MATCH_FAILED                = 0x0044,   // TODO: Describe parameter
 289:funsape/globalDefines.hpp ****     // CHECKSUM_ERROR                                      = 0x0045,   // TODO: Describe parameter
 290:funsape/globalDefines.hpp ****     // FRAME_ERROR                                         = 0x0046,   // TODO: Describe parameter
 291:funsape/globalDefines.hpp ****     // PACKAGE_AWAITING                                    = 0x0047,   // Try to write data to a re
 292:funsape/globalDefines.hpp ****     // PACKAGE_NOT_READY                                   = 0x0048,   // Try to read data from a n
 293:funsape/globalDefines.hpp ****     // COMMUNICATION_GENERIC_ERROR_9                       = 0x0049,   // Generic error (use only o
 294:funsape/globalDefines.hpp ****     // COMMUNICATION_GENERIC_ERROR_10                      = 0x004A,   // Generic error (use only o
 295:funsape/globalDefines.hpp ****     // COMMUNICATION_GENERIC_ERROR_11                      = 0x004B,   // Generic error (use only o
 296:funsape/globalDefines.hpp ****     // COMMUNICATION_GENERIC_ERROR_12                      = 0x004C,   // Generic error (use only o
 297:funsape/globalDefines.hpp ****     // COMMUNICATION_GENERIC_ERROR_13                      = 0x004D,   // Generic error (use only o
 298:funsape/globalDefines.hpp ****     // COMMUNICATION_GENERIC_ERROR_14                      = 0x004E,   // Generic error (use only o
 299:funsape/globalDefines.hpp ****     // COMMUNICATION_GENERIC_ERROR_15                      = 0x004F,   // Generic error (use only o
 300:funsape/globalDefines.hpp **** 
 301:funsape/globalDefines.hpp ****     // DateTime class related error codes
GAS LISTING C:\Users\kenne\AppData\Local\Temp\ccwOixCa.s 			page 10


 302:funsape/globalDefines.hpp ****     // DATETIME_DATE_NOT_INITIALIZED                       = 0x0050,   // TODO: Describe parameter
 303:funsape/globalDefines.hpp ****     // DATETIME_HOUR_INVALID                               = 0x0051,   // TODO: Describe parameter
 304:funsape/globalDefines.hpp ****     // DATETIME_MILLISECOND_INVALID                        = 0x0052,   // TODO: Describe parameter
 305:funsape/globalDefines.hpp ****     // DATETIME_MINUTE_INVALID                             = 0x0053,   // TODO: Describe parameter
 306:funsape/globalDefines.hpp ****     // DATETIME_MONTH_DAY_INVALID                          = 0x0054,   // TODO: Describe parameter
 307:funsape/globalDefines.hpp ****     // DATETIME_MONTH_INVALID                              = 0x0055,   // TODO: Describe parameter
 308:funsape/globalDefines.hpp ****     // DATETIME_SECOND_INVALID                             = 0x0056,   // TODO: Describe parameter
 309:funsape/globalDefines.hpp ****     // DATETIME_TIME_NOT_INITIALIZED                       = 0x0057,   // TODO: Describe parameter
 310:funsape/globalDefines.hpp ****     // DATETIME_TIMEZONE_INVALID                           = 0x0058,   // TODO: Describe parameter
 311:funsape/globalDefines.hpp ****     // DATETIME_YEAR_INVALID                               = 0x0059,   // TODO: Describe parameter
 312:funsape/globalDefines.hpp ****     // DATETIME_DATE_INVALID                               = 0x005A,   // TODO: Describe parameter
 313:funsape/globalDefines.hpp ****     // DATETIME_TIME_INVALID                               = 0x005B,   // TODO: Describe parameter
 314:funsape/globalDefines.hpp ****     // DATETIME_GENERIC_ERROR_13                           = 0x005C,   // Generic error (use only o
 315:funsape/globalDefines.hpp ****     // DATETIME_GENERIC_ERROR_14                           = 0x005D,   // Generic error (use only o
 316:funsape/globalDefines.hpp ****     // DATETIME_GENERIC_ERROR_15                           = 0x005F,   // Generic error (use only o
 317:funsape/globalDefines.hpp **** 
 318:funsape/globalDefines.hpp ****     // Handler related error codes
 319:funsape/globalDefines.hpp ****     // HANDLER_NOT_SUPPORTED                               = 0x0060,   // TODO: Describe parameter
 320:funsape/globalDefines.hpp ****     // HANDLER_POINTER_NULL                                = 0x0061,   // TODO: Describe parameter
 321:funsape/globalDefines.hpp ****     // HANDLER_GENERIC_ERROR_2                             = 0x0062,   // Generic error (use only o
 322:funsape/globalDefines.hpp ****     // HANDLER_GENERIC_ERROR_3                             = 0x0063,   // Generic error (use only o
 323:funsape/globalDefines.hpp ****     // HANDLER_GENERIC_ERROR_4                             = 0x0064,   // Generic error (use only o
 324:funsape/globalDefines.hpp ****     // HANDLER_GENERIC_ERROR_5                             = 0x0065,   // Generic error (use only o
 325:funsape/globalDefines.hpp ****     // HANDLER_GENERIC_ERROR_6                             = 0x0066,   // Generic error (use only o
 326:funsape/globalDefines.hpp ****     // HANDLER_GENERIC_ERROR_7                             = 0x0067,   // Generic error (use only o
 327:funsape/globalDefines.hpp ****     // HANDLER_GENERIC_ERROR_8                             = 0x0068,   // Generic error (use only o
 328:funsape/globalDefines.hpp ****     // HANDLER_GENERIC_ERROR_9                             = 0x0069,   // Generic error (use only o
 329:funsape/globalDefines.hpp ****     // HANDLER_GENERIC_ERROR_10                            = 0x006A,   // Generic error (use only o
 330:funsape/globalDefines.hpp ****     // HANDLER_GENERIC_ERROR_11                            = 0x006B,   // Generic error (use only o
 331:funsape/globalDefines.hpp ****     // HANDLER_GENERIC_ERROR_12                            = 0x006C,   // Generic error (use only o
 332:funsape/globalDefines.hpp ****     // HANDLER_GENERIC_ERROR_13                            = 0x006D,   // Generic error (use only o
 333:funsape/globalDefines.hpp ****     // HANDLER_GENERIC_ERROR_14                            = 0x006E,   // Generic error (use only o
 334:funsape/globalDefines.hpp ****     // HANDLER_GENERIC_ERROR_15                            = 0x006F,   // Generic error (use only o
 335:funsape/globalDefines.hpp **** 
 336:funsape/globalDefines.hpp ****     // External interrupts related error codes
 337:funsape/globalDefines.hpp ****     // INTERRUPT_NOT_AVAILABLE                             = 0x0070,   // TODO: Describe parameter
 338:funsape/globalDefines.hpp ****     // INTERRUPT_PORT_OUTPUT_MODE_NOT_SUPPORTED            = 0x0071,   // TODO: Describe parameter
 339:funsape/globalDefines.hpp ****     // INTERRUPT_SENSE_MODE_NOT_SUPPORTED                  = 0x0072,   // TODO: Describe parameter
 340:funsape/globalDefines.hpp ****     // INTERRUPT_GENERIC_ERROR_3                           = 0x0073,   // Generic error (use only o
 341:funsape/globalDefines.hpp ****     // INTERRUPT_GENERIC_ERROR_4                           = 0x0074,   // Generic error (use only o
 342:funsape/globalDefines.hpp ****     // INTERRUPT_GENERIC_ERROR_5                           = 0x0075,   // Generic error (use only o
 343:funsape/globalDefines.hpp ****     // INTERRUPT_GENERIC_ERROR_6                           = 0x0076,   // Generic error (use only o
 344:funsape/globalDefines.hpp ****     // INTERRUPT_GENERIC_ERROR_7                           = 0x0077,   // Generic error (use only o
 345:funsape/globalDefines.hpp ****     // INTERRUPT_GENERIC_ERROR_8                           = 0x0078,   // Generic error (use only o
 346:funsape/globalDefines.hpp ****     // INTERRUPT_GENERIC_ERROR_9                           = 0x0079,   // Generic error (use only o
 347:funsape/globalDefines.hpp ****     // INTERRUPT_GENERIC_ERROR_10                          = 0x007A,   // Generic error (use only o
 348:funsape/globalDefines.hpp ****     // INTERRUPT_GENERIC_ERROR_11                          = 0x007B,   // Generic error (use only o
 349:funsape/globalDefines.hpp ****     // INTERRUPT_GENERIC_ERROR_12                          = 0x007C,   // Generic error (use only o
 350:funsape/globalDefines.hpp ****     // INTERRUPT_GENERIC_ERROR_13                          = 0x007D,   // Generic error (use only o
 351:funsape/globalDefines.hpp ****     // INTERRUPT_GENERIC_ERROR_14                          = 0x007E,   // Generic error (use only o
 352:funsape/globalDefines.hpp ****     // INTERRUPT_GENERIC_ERROR_15                          = 0x007F,   // Generic error (use only o
 353:funsape/globalDefines.hpp **** 
 354:funsape/globalDefines.hpp **** 
 355:funsape/globalDefines.hpp ****     // Package API class related error codes
 356:funsape/globalDefines.hpp ****     // PACKAGE_API_PACKAGE_DATA_FULL                       = 0x0080,   // TODO: Describe parameter
 357:funsape/globalDefines.hpp ****     // PACKAGE_API_PACKAGE_NOT_READY                       = 0x0081,   // TODO: Describe parameter
 358:funsape/globalDefines.hpp ****     // PACKAGE_API_PAYLOAD_DATA_NULL                       = 0x0082,   // TODO: Describe parameter
GAS LISTING C:\Users\kenne\AppData\Local\Temp\ccwOixCa.s 			page 11


 359:funsape/globalDefines.hpp ****     // PACKAGE_API_PAYLOAD_SIZE_NULL                       = 0x0083,   // TODO: Describe parameter
 360:funsape/globalDefines.hpp ****     // PACKAGE_API_SOURCE_ADDRESS_INVALID                  = 0x0084,   // TODO: Describe parameter
 361:funsape/globalDefines.hpp ****     // PACKAGE_API_GENERIC_ERROR_5                         = 0x0085,   // Generic error (use only o
 362:funsape/globalDefines.hpp ****     // PACKAGE_API_GENERIC_ERROR_6                         = 0x0086,   // Generic error (use only o
 363:funsape/globalDefines.hpp ****     // PACKAGE_API_GENERIC_ERROR_7                         = 0x0087,   // Generic error (use only o
 364:funsape/globalDefines.hpp ****     // PACKAGE_API_GENERIC_ERROR_8                         = 0x0088,   // Generic error (use only o
 365:funsape/globalDefines.hpp ****     // PACKAGE_API_GENERIC_ERROR_9                         = 0x0089,   // Generic error (use only o
 366:funsape/globalDefines.hpp ****     // PACKAGE_API_GENERIC_ERROR_10                        = 0x008A,   // Generic error (use only o
 367:funsape/globalDefines.hpp ****     // PACKAGE_API_GENERIC_ERROR_11                        = 0x008B,   // Generic error (use only o
 368:funsape/globalDefines.hpp ****     // PACKAGE_API_GENERIC_ERROR_12                        = 0x008C,   // Generic error (use only o
 369:funsape/globalDefines.hpp ****     // PACKAGE_API_GENERIC_ERROR_13                        = 0x008D,   // Generic error (use only o
 370:funsape/globalDefines.hpp ****     // PACKAGE_API_GENERIC_ERROR_14                        = 0x008E,   // Generic error (use only o
 371:funsape/globalDefines.hpp ****     // PACKAGE_API_GENERIC_ERROR_15                        = 0x008F,   // Generic error (use only o
 372:funsape/globalDefines.hpp **** 
 373:funsape/globalDefines.hpp ****     // SPI related error codes
 374:funsape/globalDefines.hpp ****     // SPI_BUSY_FLAG                                       = 0x0090,   // TODO: Describe parameter
 375:funsape/globalDefines.hpp ****     // SPI_CRC                                             = 0x0091,   // TODO: Describe parameter
 376:funsape/globalDefines.hpp ****     // SPI_DMA                                             = 0x0092,   // TODO: Describe parameter
 377:funsape/globalDefines.hpp ****     // SPI_MODE_FAULT                                      = 0x0093,   // TODO: Describe parameter
 378:funsape/globalDefines.hpp ****     // SPI_OVERRUN                                         = 0x0094,   // TODO: Describe parameter
 379:funsape/globalDefines.hpp ****     // SPI_GENERIC_ERROR_5                                 = 0x0095,   // Generic error (use only o
 380:funsape/globalDefines.hpp ****     // SPI_GENERIC_ERROR_6                                 = 0x0096,   // Generic error (use only o
 381:funsape/globalDefines.hpp ****     // SPI_GENERIC_ERROR_7                                 = 0x0097,   // Generic error (use only o
 382:funsape/globalDefines.hpp ****     // SPI_GENERIC_ERROR_8                                 = 0x0098,   // Generic error (use only o
 383:funsape/globalDefines.hpp ****     // SPI_GENERIC_ERROR_9                                 = 0x0099,   // Generic error (use only o
 384:funsape/globalDefines.hpp ****     // SPI_GENERIC_ERROR_10                                = 0x009A,   // Generic error (use only o
 385:funsape/globalDefines.hpp ****     // SPI_GENERIC_ERROR_11                                = 0x009B,   // Generic error (use only o
 386:funsape/globalDefines.hpp ****     // SPI_GENERIC_ERROR_12                                = 0x009C,   // Generic error (use only o
 387:funsape/globalDefines.hpp ****     // SPI_GENERIC_ERROR_13                                = 0x009D,   // Generic error (use only o
 388:funsape/globalDefines.hpp ****     // SPI_GENERIC_ERROR_14                                = 0x009E,   // Generic error (use only o
 389:funsape/globalDefines.hpp ****     // SPI_GENERIC_ERROR_15                                = 0x009F,   // Generic error (use only o
 390:funsape/globalDefines.hpp **** 
 391:funsape/globalDefines.hpp ****     // TWI related error codes
 392:funsape/globalDefines.hpp ****     // TWI_AF_FLAG                                         = 0x00A0,   // TWI AF flag error
 393:funsape/globalDefines.hpp ****     // TWI_ARBITRATION_LOST                                = 0x00A1,   // TWI bus arbitration lost
 394:funsape/globalDefines.hpp ****     // TWI_BUS_ERROR                                       = 0x00A2,   // TWI bus error
 395:funsape/globalDefines.hpp ****     // TWI_DMA                                             = 0x00A3,   // DMA parameter error
 396:funsape/globalDefines.hpp ****     // TWI_DMA_PARAM                                       = 0x00A4,   // DMA transfer error
 397:funsape/globalDefines.hpp ****     // TWI_OVERRUN                                         = 0x00A5,   // TWI overrun
 398:funsape/globalDefines.hpp ****     // TWI_SIZE_MANAGEMENT_ERROR                           = 0x00A6,   // Size management error
 399:funsape/globalDefines.hpp ****     // TWI_INVALID_DEVICE_ADDRESS                          = 0x00A7,   // TODO: Describe parameter
 400:funsape/globalDefines.hpp ****     // TWI_GENERIC_ERROR_8                                 = 0x00A8,   // Generic error (use only o
 401:funsape/globalDefines.hpp ****     // TWI_GENERIC_ERROR_9                                 = 0x00A9,   // Generic error (use only o
 402:funsape/globalDefines.hpp ****     // TWI_GENERIC_ERROR_10                                = 0x00AA,   // Generic error (use only o
 403:funsape/globalDefines.hpp ****     // TWI_GENERIC_ERROR_11                                = 0x00AB,   // Generic error (use only o
 404:funsape/globalDefines.hpp ****     // TWI_GENERIC_ERROR_12                                = 0x00AC,   // Generic error (use only o
 405:funsape/globalDefines.hpp ****     // TWI_GENERIC_ERROR_13                                = 0x00AD,   // Generic error (use only o
 406:funsape/globalDefines.hpp ****     // TWI_GENERIC_ERROR_14                                = 0x00AE,   // Generic error (use only o
 407:funsape/globalDefines.hpp ****     // TWI_GENERIC_ERROR_15                                = 0x00AF,   // Generic error (use only o
 408:funsape/globalDefines.hpp **** 
 409:funsape/globalDefines.hpp ****     // USART related error codes
 410:funsape/globalDefines.hpp ****     // USART_BAUD_RATE_NOT_SUPPORTED                       = 0x00B0,   // TODO: Describe parameter
 411:funsape/globalDefines.hpp ****     // USART_CONFIGURATION_PARAMETER_WRONG                 = 0x00B1,   // TODO: Describe parameter
 412:funsape/globalDefines.hpp ****     // USART_DATA_BITS_NOT_SUPPORTED                       = 0x00B2,   // TODO: Describe parameter
 413:funsape/globalDefines.hpp ****     // USART_FRAME_FORMAT_NOT_SUPPORTED                    = 0x00B3,   // TODO: Describe parameter
 414:funsape/globalDefines.hpp ****     // USART_PARITY_NOT_SUPPORTED                          = 0x00B4,   // TODO: Describe parameter
 415:funsape/globalDefines.hpp ****     // USART_STOP_BIT_NOT_SUPPORTED                        = 0x00B5,   // TODO: Describe parameter
GAS LISTING C:\Users\kenne\AppData\Local\Temp\ccwOixCa.s 			page 12


 416:funsape/globalDefines.hpp ****     // USART_GENERIC_ERROR_6                               = 0x00B6,   // Generic error (use only o
 417:funsape/globalDefines.hpp ****     // USART_GENERIC_ERROR_7                               = 0x00B7,   // Generic error (use only o
 418:funsape/globalDefines.hpp ****     // USART_GENERIC_ERROR_8                               = 0x00B8,   // Generic error (use only o
 419:funsape/globalDefines.hpp ****     // USART_GENERIC_ERROR_9                               = 0x00B9,   // Generic error (use only o
 420:funsape/globalDefines.hpp ****     // USART_GENERIC_ERROR_10                              = 0x00BA,   // Generic error (use only o
 421:funsape/globalDefines.hpp ****     // USART_GENERIC_ERROR_11                              = 0x00BB,   // Generic error (use only o
 422:funsape/globalDefines.hpp ****     // USART_GENERIC_ERROR_12                              = 0x00BC,   // Generic error (use only o
 423:funsape/globalDefines.hpp ****     // USART_GENERIC_ERROR_13                              = 0x00BD,   // Generic error (use only o
 424:funsape/globalDefines.hpp ****     // USART_GENERIC_ERROR_14                              = 0x00BE,   // Generic error (use only o
 425:funsape/globalDefines.hpp ****     // USART_GENERIC_ERROR_15                              = 0x00BF,   // Generic error (use only o
 426:funsape/globalDefines.hpp **** 
 427:funsape/globalDefines.hpp ****     // LCD related error codes
 428:funsape/globalDefines.hpp ****     // LCD_CONTROL_PORT_NOT_SET                            = 0x00C0,   // TODO: Describe parameter
 429:funsape/globalDefines.hpp ****     // LCD_CONTROL_PIN_E_INVALID                           = 0x00C1,   // TODO: Describe parameter
 430:funsape/globalDefines.hpp ****     // LCD_CONTROL_PIN_RS_INVALID                          = 0x00C2,   // TODO: Describe parameter
 431:funsape/globalDefines.hpp ****     // LCD_CONTROL_PIN_RW_INVALID                          = 0x00C3,   // TODO: Describe parameter
 432:funsape/globalDefines.hpp ****     // LCD_DATA_PORT_NOT_SET                               = 0x00C4,   // TODO: Describe parameter
 433:funsape/globalDefines.hpp ****     // LCD_DATA_PIN_INDEX_OUT_OF_BOUNDARIES                = 0x00C5,   // TODO: Describe parameter
 434:funsape/globalDefines.hpp ****     // LCD_GENERIC_ERROR_6                                 = 0x00C6,   // Generic error (use only o
 435:funsape/globalDefines.hpp ****     // LCD_GENERIC_ERROR_7                                 = 0x00C7,   // Generic error (use only o
 436:funsape/globalDefines.hpp ****     // LCD_GENERIC_ERROR_8                                 = 0x00C8,   // Generic error (use only o
 437:funsape/globalDefines.hpp ****     // LCD_GENERIC_ERROR_9                                 = 0x00C9,   // Generic error (use only o
 438:funsape/globalDefines.hpp ****     // LCD_GENERIC_ERROR_10                                = 0x00CA,   // Generic error (use only o
 439:funsape/globalDefines.hpp ****     // LCD_GENERIC_ERROR_11                                = 0x00CB,   // Generic error (use only o
 440:funsape/globalDefines.hpp ****     // LCD_GENERIC_ERROR_12                                = 0x00CC,   // Generic error (use only o
 441:funsape/globalDefines.hpp ****     // LCD_GENERIC_ERROR_13                                = 0x00CD,   // Generic error (use only o
 442:funsape/globalDefines.hpp ****     // LCD_GENERIC_ERROR_14                                = 0x00CE,   // Generic error (use only o
 443:funsape/globalDefines.hpp ****     // LCD_GENERIC_ERROR_15                                = 0x00CF,   // Generic error (use only o
 444:funsape/globalDefines.hpp **** 
 445:funsape/globalDefines.hpp ****     // GPIO related error codes
 446:funsape/globalDefines.hpp ****     GPIO_PORT_NOT_SET                                   = 0x00D0,   // Gpio port was not set before
 447:funsape/globalDefines.hpp ****     GPIO_DATA_PORT_NOT_SET                              = 0x00D1,   // Gpio data port was not set b
 448:funsape/globalDefines.hpp ****     GPIO_CONTROL_PORT_NOT_SET                           = 0x00D2,   // Gpio control port was not se
 449:funsape/globalDefines.hpp ****     GPIO_PORT_INVALID                                   = 0x00D3,   // Gpio port address is invalid
 450:funsape/globalDefines.hpp ****     GPIO_DATA_PORT_INVALID                              = 0x00D4,   // Gpio data port address is in
 451:funsape/globalDefines.hpp ****     GPIO_CONTROL_PORT_INVALID                           = 0x00D5,   // Gpio control port address is
 452:funsape/globalDefines.hpp ****     GPIO_PIN_INDEX_INVALID                              = 0x00D6,   // Invalid GPIO Pin
 453:funsape/globalDefines.hpp ****     GPIO_PIN_INDEX_OUT_OF_BOUNDARIES                    = 0x00D7,   // Gpio pin index was out of bo
 454:funsape/globalDefines.hpp ****     // GPIO_NO_PIN_SET                                     = 0x00D8,   // No pin selected at Gpio p
 455:funsape/globalDefines.hpp ****     // GPIO_ADDRESS_INVALID                                = 0x00D9,   // Invalid GPIO Port
 456:funsape/globalDefines.hpp ****     // GPIO_PORT_LOGIC_CONTENTION                          = 0x00DA,   // TODO: Describe parameter
 457:funsape/globalDefines.hpp ****     // GPIO_GENERIC_ERROR_11                               = 0x00DB,   // Generic error (use only o
 458:funsape/globalDefines.hpp ****     // GPIO_GENERIC_ERROR_12                               = 0x00DC,   // Generic error (use only o
 459:funsape/globalDefines.hpp ****     // GPIO_GENERIC_ERROR_13                               = 0x00DD,   // Generic error (use only o
 460:funsape/globalDefines.hpp ****     // GPIO_GENERIC_ERROR_14                               = 0x00DE,   // Generic error (use only o
 461:funsape/globalDefines.hpp ****     // GPIO_GENERIC_ERROR_15                               = 0x00DF,   // Generic error (use only o
 462:funsape/globalDefines.hpp **** 
 463:funsape/globalDefines.hpp ****     // HAL related error codes
 464:funsape/globalDefines.hpp ****     // HAL_UNKNOWN_ERROR                                   = 0x00E0,   // TODO: Describe parameter
 465:funsape/globalDefines.hpp ****     // HAL_STATUS_ERROR                                    = 0x00E1,   // TODO: Describe parameter
 466:funsape/globalDefines.hpp ****     // HAL_STATUS_BUSY                                     = 0x00E2,   // TODO: Describe parameter
 467:funsape/globalDefines.hpp ****     // HAL_STATUS_TIMEOUT                                  = 0x00E3,   // TODO: Describe parameter
 468:funsape/globalDefines.hpp ****     // HAL_GENERIC_ERROR_4                                 = 0x00E4,   // Generic error (use only o
 469:funsape/globalDefines.hpp ****     // HAL_GENERIC_ERROR_5                                 = 0x00E5,   // Generic error (use only o
 470:funsape/globalDefines.hpp ****     // HAL_GENERIC_ERROR_6                                 = 0x00E6,   // Generic error (use only o
 471:funsape/globalDefines.hpp ****     // HAL_GENERIC_ERROR_7                                 = 0x00E7,   // Generic error (use only o
 472:funsape/globalDefines.hpp ****     // HAL_GENERIC_ERROR_8                                 = 0x00E8,   // Generic error (use only o
GAS LISTING C:\Users\kenne\AppData\Local\Temp\ccwOixCa.s 			page 13


 473:funsape/globalDefines.hpp ****     // HAL_GENERIC_ERROR_9                                 = 0x00E9,   // Generic error (use only o
 474:funsape/globalDefines.hpp ****     // HAL_GENERIC_ERROR_10                                = 0x00EA,   // Generic error (use only o
 475:funsape/globalDefines.hpp ****     // HAL_GENERIC_ERROR_11                                = 0x00EB,   // Generic error (use only o
 476:funsape/globalDefines.hpp ****     // HAL_GENERIC_ERROR_12                                = 0x00EC,   // Generic error (use only o
 477:funsape/globalDefines.hpp ****     // HAL_GENERIC_ERROR_13                                = 0x00ED,   // Generic error (use only o
 478:funsape/globalDefines.hpp ****     // HAL_GENERIC_ERROR_14                                = 0x00EE,   // Generic error (use only o
 479:funsape/globalDefines.hpp ****     // HAL_GENERIC_ERROR_15                                = 0x00EF,   // Generic error (use only o
 480:funsape/globalDefines.hpp **** 
 481:funsape/globalDefines.hpp ****     // System related error codes
 482:funsape/globalDefines.hpp ****     // SYSTEM_US_TIMER_HANDLER_NULL                        = 0x00F0,   // TODO: Describe parameter
 483:funsape/globalDefines.hpp ****     // SYSTEM_GENERIC_ERROR_1                              = 0x00F1,   // Generic error (use only o
 484:funsape/globalDefines.hpp ****     // SYSTEM_GENERIC_ERROR_2                              = 0x00F2,   // Generic error (use only o
 485:funsape/globalDefines.hpp ****     // SYSTEM_GENERIC_ERROR_3                              = 0x00F3,   // Generic error (use only o
 486:funsape/globalDefines.hpp ****     // SYSTEM_GENERIC_ERROR_4                              = 0x00F4,   // Generic error (use only o
 487:funsape/globalDefines.hpp ****     // SYSTEM_GENERIC_ERROR_5                              = 0x00F5,   // Generic error (use only o
 488:funsape/globalDefines.hpp ****     // SYSTEM_GENERIC_ERROR_6                              = 0x00F6,   // Generic error (use only o
 489:funsape/globalDefines.hpp ****     // SYSTEM_GENERIC_ERROR_7                              = 0x00F7,   // Generic error (use only o
 490:funsape/globalDefines.hpp ****     // SYSTEM_GENERIC_ERROR_8                              = 0x00F8,   // Generic error (use only o
 491:funsape/globalDefines.hpp ****     // SYSTEM_GENERIC_ERROR_9                              = 0x00F9,   // Generic error (use only o
 492:funsape/globalDefines.hpp ****     // SYSTEM_GENERIC_ERROR_10                             = 0x00FA,   // Generic error (use only o
 493:funsape/globalDefines.hpp ****     // SYSTEM_GENERIC_ERROR_11                             = 0x00FB,   // Generic error (use only o
 494:funsape/globalDefines.hpp ****     // SYSTEM_GENERIC_ERROR_12                             = 0x00FC,   // Generic error (use only o
 495:funsape/globalDefines.hpp ****     // SYSTEM_GENERIC_ERROR_13                             = 0x00FD,   // Generic error (use only o
 496:funsape/globalDefines.hpp ****     // SYSTEM_GENERIC_ERROR_14                             = 0x00FE,   // Generic error (use only o
 497:funsape/globalDefines.hpp ****     // SYSTEM_GENERIC_ERROR_15                             = 0x00FF,   // Generic error (use only o
 498:funsape/globalDefines.hpp **** 
 499:funsape/globalDefines.hpp ****     // FatFs related error codes
 500:funsape/globalDefines.hpp ****     // FAT_FS_UNKNOWN_ERROR                                = 0x0100,   // TODO: Describe parameter
 501:funsape/globalDefines.hpp ****     // FAT_FS_DRIVE_UNSUPPORTED                            = 0x0101,   // TODO: Describe parameter
 502:funsape/globalDefines.hpp ****     // FAT_FS_DISK_NOT_INSERTED                            = 0x0102,   // TODO: Describe parameter
 503:funsape/globalDefines.hpp ****     // FAT_FS_INITIALIZATION_FAILED                        = 0x0103,   // TODO: Describe parameter
 504:funsape/globalDefines.hpp ****     // FAT_FS_GENERIC_ERROR_4                              = 0x0104,   // Generic error (use only o
 505:funsape/globalDefines.hpp ****     // FAT_FS_GENERIC_ERROR_5                              = 0x0105,   // Generic error (use only o
 506:funsape/globalDefines.hpp ****     // FAT_FS_GENERIC_ERROR_6                              = 0x0106,   // Generic error (use only o
 507:funsape/globalDefines.hpp ****     // FAT_FS_GENERIC_ERROR_7                              = 0x0107,   // Generic error (use only o
 508:funsape/globalDefines.hpp ****     // FAT_FS_GENERIC_ERROR_8                              = 0x0108,   // Generic error (use only o
 509:funsape/globalDefines.hpp ****     // FAT_FS_GENERIC_ERROR_9                              = 0x0109,   // Generic error (use only o
 510:funsape/globalDefines.hpp ****     // FAT_FS_GENERIC_ERROR_10                             = 0x010A,   // Generic error (use only o
 511:funsape/globalDefines.hpp ****     // FAT_FS_GENERIC_ERROR_11                             = 0x010B,   // Generic error (use only o
 512:funsape/globalDefines.hpp ****     // FAT_FS_GENERIC_ERROR_12                             = 0x010C,   // Generic error (use only o
 513:funsape/globalDefines.hpp ****     // FAT_FS_GENERIC_ERROR_13                             = 0x010D,   // Generic error (use only o
 514:funsape/globalDefines.hpp ****     // FAT_FS_GENERIC_ERROR_14                             = 0x010E,   // Generic error (use only o
 515:funsape/globalDefines.hpp ****     // FAT_FS_GENERIC_ERROR_15                             = 0x010F,   // Generic error (use only o
 516:funsape/globalDefines.hpp **** 
 517:funsape/globalDefines.hpp ****     // Uncategorized error codes
 518:funsape/globalDefines.hpp ****     // LCD_OUT_OF_BOUNDARIES                               = 0xFFF1,   // TODO: Describe parameter
 519:funsape/globalDefines.hpp ****     // CONTROLLER_NOT_SUPPORTED                            = 0xFFF2,   // Unsupported controller
 520:funsape/globalDefines.hpp ****     // DEVICE_ID_MATCH_FAILED                              = 0xFFF3,   // Device ID doesn't match
 521:funsape/globalDefines.hpp ****     // DMA_NOT_SUPPORTED                                   = 0xFFF4,   // DMA interface mode is not
 522:funsape/globalDefines.hpp ****     // DMA_TRANSFER_ERROR                                  = 0xFFF5,   // DMA transfer error
 523:funsape/globalDefines.hpp ****     // MESSAGE_TOO_LONG                                    = 0xFFF6,   // Message is to long to be 
 524:funsape/globalDefines.hpp ****     // VALID_DATA_NOT_AVAILABLE                            = 0xFFF7,   // Valid data was unavailabl
 525:funsape/globalDefines.hpp ****     // PERIPHERAL_NOT_READY                                = 0xFFF8,   // TODO: Describe parameter
 526:funsape/globalDefines.hpp ****     // STOPWATCH_NOT_STARTED                               = 0xFFF9,   // TODO: Describe parameter
 527:funsape/globalDefines.hpp ****     // UNCATEGORIZED_GENERIC_ERROR_10                      = 0xFFFA,   // Generic error (use only o
 528:funsape/globalDefines.hpp ****     // UNCATEGORIZED_GENERIC_ERROR_11                      = 0xFFFB,   // Generic error (use only o
 529:funsape/globalDefines.hpp ****     // UNCATEGORIZED_GENERIC_ERROR_12                      = 0xFFFC,   // Generic error (use only o
GAS LISTING C:\Users\kenne\AppData\Local\Temp\ccwOixCa.s 			page 14


 530:funsape/globalDefines.hpp ****     // UNCATEGORIZED_GENERIC_ERROR_13                      = 0xFFFD,   // Generic error (use only o
 531:funsape/globalDefines.hpp ****     // UNCATEGORIZED_GENERIC_ERROR_14                      = 0xFFFE,   // Generic error (use only o
 532:funsape/globalDefines.hpp **** 
 533:funsape/globalDefines.hpp ****     KEYPAD_COLUMNS_PIN_INDEX_INVALID                    = 0xFFF9,
 534:funsape/globalDefines.hpp ****     KEYPAD_LINES_PIN_INDEX_INVALID                      = 0xFFFA,
 535:funsape/globalDefines.hpp **** 
 536:funsape/globalDefines.hpp ****     KEYPAD_LINES_GPIO_PORT_INVALID                      = 0xFFFB,
 537:funsape/globalDefines.hpp ****     KEYPAD_COLUMNS_GPIO_PORT_INVALID                    = 0xFFFC,
 538:funsape/globalDefines.hpp ****     KEYPAD_TYPE_UNSUPPORTED                             = 0xFFFD,
 539:funsape/globalDefines.hpp ****     KEY_VALUES_NOT_SET                                  = 0xFFFE,
 540:funsape/globalDefines.hpp ****     // "I don't have the slightest idea" error code
 541:funsape/globalDefines.hpp ****     UNKNOWN                                             = 0xFFFF,   // Unknown error - Ops!!!!
 542:funsape/globalDefines.hpp **** };
 543:funsape/globalDefines.hpp **** 
 544:funsape/globalDefines.hpp **** // =============================================================================
 545:funsape/globalDefines.hpp **** // Macrofunctions
 546:funsape/globalDefines.hpp **** // =============================================================================
 547:funsape/globalDefines.hpp **** 
 548:funsape/globalDefines.hpp **** //     //////////////////////     DATA VALIDITY    //////////////////////     //
 549:funsape/globalDefines.hpp **** #define isGpioAddressValid(gpioPort)    (       \
 550:funsape/globalDefines.hpp ****         (IS_GPIO_ALL_INSTANCE(gpioPort))        \
 551:funsape/globalDefines.hpp ****         ? (bool_t)true                          \
 552:funsape/globalDefines.hpp ****         : (bool_t)false)
 553:funsape/globalDefines.hpp **** #define isGpioPinIndexValid(gpioPin)    (       \
 554:funsape/globalDefines.hpp ****         (IS_GPIO_ALL_PIN_NUMBER(gpioPin))       \
 555:funsape/globalDefines.hpp ****         ? (bool_t)true                          \
 556:funsape/globalDefines.hpp ****         : (bool_t)false)
 557:funsape/globalDefines.hpp **** #define isPointerValid(ptr)             (       \
 558:funsape/globalDefines.hpp ****         ((void *)(ptr))                         \
 559:funsape/globalDefines.hpp ****         ? (bool_t)true                          \
 560:funsape/globalDefines.hpp ****         : (bool_t)false)
 561:funsape/globalDefines.hpp **** 
 562:funsape/globalDefines.hpp **** //     //////////////////////     BIT HANDLING     //////////////////////     //
 563:funsape/globalDefines.hpp **** #ifndef setBit
 564:funsape/globalDefines.hpp **** #   define setBit(reg, bit)                     ((reg) |= (1 << (bit)))
 565:funsape/globalDefines.hpp **** #endif
 566:funsape/globalDefines.hpp **** #ifndef clrBit
 567:funsape/globalDefines.hpp **** #   define clrBit(reg, bit)                     ((reg) &= ~(1 << (bit)))
 568:funsape/globalDefines.hpp **** #endif
 569:funsape/globalDefines.hpp **** #ifndef cplBit
 570:funsape/globalDefines.hpp **** #   define cplBit(reg, bit)                     ((reg) ^= (1 << (bit)))
 571:funsape/globalDefines.hpp **** #endif
 572:funsape/globalDefines.hpp **** 
 573:funsape/globalDefines.hpp **** //     ///////////////////////     BIT TESTING    ///////////////////////     //
 574:funsape/globalDefines.hpp **** #ifndef isBitSet
 575:funsape/globalDefines.hpp **** #   define isBitSet(reg, bit)                   (((reg) >> (bit)) & 1)
 576:funsape/globalDefines.hpp **** #endif
 577:funsape/globalDefines.hpp **** #ifndef isBitClr
 578:funsape/globalDefines.hpp **** #   define isBitClr(reg, bit)                   (!isBitSet(reg,bit))
 579:funsape/globalDefines.hpp **** #endif
 580:funsape/globalDefines.hpp **** 
 581:funsape/globalDefines.hpp **** //     ///////////////////////     BIT LOOPING    ///////////////////////     //
 582:funsape/globalDefines.hpp **** #ifndef waitUntilBitIsSet
 583:funsape/globalDefines.hpp **** #   define waitUntilBitIsSet(reg, bit)          do{     \
 584:funsape/globalDefines.hpp ****         doNothing();                                    \
 585:funsape/globalDefines.hpp ****     } while (isBitClr((reg), (bit)))
 586:funsape/globalDefines.hpp **** #endif
GAS LISTING C:\Users\kenne\AppData\Local\Temp\ccwOixCa.s 			page 15


 587:funsape/globalDefines.hpp **** #ifndef waitUntilBitIsClear
 588:funsape/globalDefines.hpp **** #   define waitUntilBitIsClear(reg, bit)        do{     \
 589:funsape/globalDefines.hpp ****         doNothing();                                    \
 590:funsape/globalDefines.hpp ****     }while(isBitSet((reg), (bit)))
 591:funsape/globalDefines.hpp **** #endif
 592:funsape/globalDefines.hpp **** 
 593:funsape/globalDefines.hpp **** //     ////////////////////     BIT MASK HANDLING    ////////////////////     //
 594:funsape/globalDefines.hpp **** #ifndef setMask
 595:funsape/globalDefines.hpp **** #   define setMask(reg, mask)                   ((reg) |= (mask))
 596:funsape/globalDefines.hpp **** #endif
 597:funsape/globalDefines.hpp **** #ifndef clrMask
 598:funsape/globalDefines.hpp **** #   define clrMask(reg, mask)                   ((reg) &= ~(mask))
 599:funsape/globalDefines.hpp **** #endif
 600:funsape/globalDefines.hpp **** #ifndef cplMask
 601:funsape/globalDefines.hpp **** #   define cplMask(reg, mask)                   ((reg) ^= (mask))
 602:funsape/globalDefines.hpp **** #endif
 603:funsape/globalDefines.hpp **** 
 604:funsape/globalDefines.hpp **** //     ////////////////     BIT MASK OFFSET HANDLING     ////////////////     //
 605:funsape/globalDefines.hpp **** #ifndef setMaskOffset
 606:funsape/globalDefines.hpp **** #   define setMaskOffset(reg, mask, offset)     ((reg) |= ((mask) << (offset)))
 607:funsape/globalDefines.hpp **** #endif
 608:funsape/globalDefines.hpp **** #ifndef clrMaskOffset
 609:funsape/globalDefines.hpp **** #   define clrMaskOffset(reg, mask, offset)     ((reg) &= ~((mask) << (offset)))
 610:funsape/globalDefines.hpp **** #endif
 611:funsape/globalDefines.hpp **** #ifndef cplMaskOffset
 612:funsape/globalDefines.hpp **** #   define cplMaskOffset(reg, mask, offset)     ((reg) ^= ((mask) << (offset)))
 613:funsape/globalDefines.hpp **** #endif
 614:funsape/globalDefines.hpp **** 
 615:funsape/globalDefines.hpp **** //     /////////////     DATA MANIPULATION (8-BITS WIDE)    /////////////     //
 616:funsape/globalDefines.hpp **** #define byteGetNibble1(dataByte)        (((dataByte) >> 4) & 0x0F)
 617:funsape/globalDefines.hpp **** #define byteGetNibble0(dataByte)        ((dataByte) & 0x0F)
 618:funsape/globalDefines.hpp **** #define byteSwitchNibbles(dataByte)     ((byteGetNibble0(dataByte) << 4) | \
 619:funsape/globalDefines.hpp ****         (byteGetNibble1(dataByte)))
 620:funsape/globalDefines.hpp **** 
 621:funsape/globalDefines.hpp **** //     ////////////     DATA MANIPULATION (16-BITS WIDE)     ////////////     //
 622:funsape/globalDefines.hpp **** #define hwordGetByte1(dataHword)        (((dataHword) >> 8) & 0x00FF)
 623:funsape/globalDefines.hpp **** #define hwordGetByte0(dataHword)        ((dataHword) & 0x00FF)
 624:funsape/globalDefines.hpp **** #define hwordSwitchBytes(dataHword)     ((hwordGetByte0(dataHword) << 8) | \
 625:funsape/globalDefines.hpp ****         (hwordGetByte1(dataHword)))
 626:funsape/globalDefines.hpp **** 
 627:funsape/globalDefines.hpp **** //     ////////////     DATA MANIPULATION (32-BITS WIDE)     ////////////     //
 628:funsape/globalDefines.hpp **** #define wordGetByte3(dataWord)          (((dataWord) >> 24) & 0x000000FF)
 629:funsape/globalDefines.hpp **** #define wordGetByte2(dataWord)          (((dataWord) >> 16) & 0x000000FF)
 630:funsape/globalDefines.hpp **** #define wordGetByte1(dataWord)          (((dataWord) >> 8) & 0x000000FF)
 631:funsape/globalDefines.hpp **** #define wordGetByte0(dataWord)          ((dataWord) & 0x000000FF)
 632:funsape/globalDefines.hpp **** #define wordSwitchBytes(dataWord)       ((wordGetByte0(dataWord) << 24)  | \
 633:funsape/globalDefines.hpp ****         (wordGetByte1(dataWord) << 16) | \
 634:funsape/globalDefines.hpp ****         (wordGetByte2(dataWord) << 8)  | \
 635:funsape/globalDefines.hpp ****         (wordGetByte3(dataWord)))
 636:funsape/globalDefines.hpp **** #define wordGetHword1(dataWord)         (((dataWord) >> 16) & 0x0000FFFF)
 637:funsape/globalDefines.hpp **** #define wordGetHword0(dataWord)         ((dataWord) & 0x0000FFFF)
 638:funsape/globalDefines.hpp **** #define wordSwitchHwords(dataWord)      ((wordGetHword0(dataWord) << 16) | \
 639:funsape/globalDefines.hpp ****         (wordGetHword1(dataWord)))
 640:funsape/globalDefines.hpp **** 
 641:funsape/globalDefines.hpp **** //     ////////////     DATA MANIPULATION (64-BITS WIDE)     ////////////     //
 642:funsape/globalDefines.hpp **** #define dwordGetByte7(dataDword)        (((dataDword) >> 56) & 0x00000000000000FF)
 643:funsape/globalDefines.hpp **** #define dwordGetByte6(dataDword)        (((dataDword) >> 48) & 0x00000000000000FF)
GAS LISTING C:\Users\kenne\AppData\Local\Temp\ccwOixCa.s 			page 16


 644:funsape/globalDefines.hpp **** #define dwordGetByte5(dataDword)        (((dataDword) >> 40) & 0x00000000000000FF)
 645:funsape/globalDefines.hpp **** #define dwordGetByte4(dataDword)        (((dataDword) >> 32) & 0x00000000000000FF)
 646:funsape/globalDefines.hpp **** #define dwordGetByte3(dataDword)        (((dataDword) >> 24) & 0x00000000000000FF)
 647:funsape/globalDefines.hpp **** #define dwordGetByte2(dataDword)        (((dataDword) >> 16) & 0x00000000000000FF)
 648:funsape/globalDefines.hpp **** #define dwordGetByte1(dataDword)        (((dataDword) >> 8) & 0x00000000000000FF)
 649:funsape/globalDefines.hpp **** #define dwordGetByte0(dataDword)        ((dataDword) & 0x00000000000000FF)
 650:funsape/globalDefines.hpp **** #define dwordSwitchBytes(dataDword)     ((dwordGetByte0(dataDword) << 56)  | \
 651:funsape/globalDefines.hpp ****         (dwordGetByte1(dataDword) << 48) | \
 652:funsape/globalDefines.hpp ****         (dwordGetByte2(dataDword) << 40) | \
 653:funsape/globalDefines.hpp ****         (dwordGetByte3(dataDword) << 32) | \
 654:funsape/globalDefines.hpp ****         (dwordGetByte4(dataDword) << 24) | \
 655:funsape/globalDefines.hpp ****         (dwordGetByte5(dataDword) << 16) | \
 656:funsape/globalDefines.hpp ****         (dwordGetByte6(dataDword) << 8)  | \
 657:funsape/globalDefines.hpp ****         (dwordGetByte7(dataDword)))
 658:funsape/globalDefines.hpp **** #define dwordGetHword3(dataDword)       ((dataDword >> 48) & 0x000000000000FFFF)
 659:funsape/globalDefines.hpp **** #define dwordGetHword2(dataDword)       ((dataDword >> 32) & 0x000000000000FFFF)
 660:funsape/globalDefines.hpp **** #define dwordGetHword1(dataDword)       ((dataDword >> 16) & 0x000000000000FFFF)
 661:funsape/globalDefines.hpp **** #define dwordGetHword0(dataDword)       ((dataDword >> 0) & 0x000000000000FFFF)
 662:funsape/globalDefines.hpp **** #define dwordSwitchHwords(dataDword)    ((dwordGetHword0(dataDword) << 48)  | \
 663:funsape/globalDefines.hpp ****         (dwordGetHword1(dataDword) << 32) | \
 664:funsape/globalDefines.hpp ****         (dwordGetHword2(dataDword) << 16) | \
 665:funsape/globalDefines.hpp ****         (dwordGetHword3(dataDword)))
 666:funsape/globalDefines.hpp **** #define dwordGetWord1(dataDword)         (((dataDword) >> 32) & 0x00000000FFFFFFFF)
 667:funsape/globalDefines.hpp **** #define dwordGetWord0(dataDword)         ((dataDword) & 0x00000000FFFFFFFF)
 668:funsape/globalDefines.hpp **** #define dwordSwitchWords(dataDword)     ((dwordGetWord0(dataDword) << 32)  | \
 669:funsape/globalDefines.hpp ****         (dwordGetWord1(dataDword)))
 670:funsape/globalDefines.hpp **** 
 671:funsape/globalDefines.hpp **** //     /////////////////////     TRUNCATE VALUES    /////////////////////     //
 672:funsape/globalDefines.hpp **** #define getMaximumOf(var1, var2)        (       \
 673:funsape/globalDefines.hpp ****         ((var1) > (var2))                       \
 674:funsape/globalDefines.hpp ****         ? (var1)                                \
 675:funsape/globalDefines.hpp ****         : (var2))
 676:funsape/globalDefines.hpp **** #define getMinimumOf(var1, var2)        (       \
 677:funsape/globalDefines.hpp ****         ((var1) < (var2))                       \
 678:funsape/globalDefines.hpp ****         ? (var1)                                \
 679:funsape/globalDefines.hpp ****         : (var2))
 680:funsape/globalDefines.hpp **** #define truncateBetween(var, min, max)  (       \
 681:funsape/globalDefines.hpp ****         ((var) < (min))                         \
 682:funsape/globalDefines.hpp ****         ? (min)                                 \
 683:funsape/globalDefines.hpp ****         : (((var) > (max))                      \
 684:funsape/globalDefines.hpp ****                 ? (max)                         \
 685:funsape/globalDefines.hpp ****                 : (var)                         \
 686:funsape/globalDefines.hpp ****         ))
 687:funsape/globalDefines.hpp **** 
 688:funsape/globalDefines.hpp **** //     //////////////////////     STRINGIFYING    ///////////////////////     //
 689:funsape/globalDefines.hpp **** #define stringifyName(constant)         #constant
 690:funsape/globalDefines.hpp **** #define stringifyValue(constant)        stringifyName(constant)
 691:funsape/globalDefines.hpp **** 
 692:funsape/globalDefines.hpp **** // =============================================================================
 693:funsape/globalDefines.hpp **** // Extern global variables
 694:funsape/globalDefines.hpp **** // =============================================================================
 695:funsape/globalDefines.hpp **** 
 696:funsape/globalDefines.hpp **** // NONE
 697:funsape/globalDefines.hpp **** 
 698:funsape/globalDefines.hpp **** // =============================================================================
 699:funsape/globalDefines.hpp **** // Inline functions declaration
 700:funsape/globalDefines.hpp **** // =============================================================================
GAS LISTING C:\Users\kenne\AppData\Local\Temp\ccwOixCa.s 			page 17


 701:funsape/globalDefines.hpp **** 
 702:funsape/globalDefines.hpp **** //     ///////////////////     CHARACTER HANDLING    ////////////////////     //
 703:funsape/globalDefines.hpp **** char_t inlined toLowerCase(cchar_t character_p);
 704:funsape/globalDefines.hpp **** char_t inlined toUpperCase(cchar_t character_p);
 705:funsape/globalDefines.hpp **** 
 706:funsape/globalDefines.hpp **** //     /////////////////////     DATA VALIDITY     //////////////////////     //
 707:funsape/globalDefines.hpp **** bool_t inlined isAsciiLowerCaseLetter(cchar_t character_p);
 708:funsape/globalDefines.hpp **** bool_t inlined isAsciiUpperCaseLetter(cchar_t character_p);
 709:funsape/globalDefines.hpp **** bool_t inlined isAsciiCommand(cchar_t character_p);
 710:funsape/globalDefines.hpp **** bool_t inlined isAsciiLetter(cchar_t character_p);
 711:funsape/globalDefines.hpp **** bool_t inlined isAsciiNumber(cchar_t character_p);
 712:funsape/globalDefines.hpp **** bool_t inlined isAsciiSymbol(cchar_t character_p);
 713:funsape/globalDefines.hpp **** 
 714:funsape/globalDefines.hpp **** //     /////////////////////     SYSTEM ACTIONS    //////////////////////     //
 715:funsape/globalDefines.hpp **** void inlined die(Error errorCode_p);
 716:funsape/globalDefines.hpp **** void inlined doNop(void);
 717:funsape/globalDefines.hpp **** void inlined doNothing(void);
 718:funsape/globalDefines.hpp **** void inlined systemHalt(void (*function_p)(void) = nullptr);
 719:funsape/globalDefines.hpp **** 
 720:funsape/globalDefines.hpp **** // =============================================================================
 721:funsape/globalDefines.hpp **** // Inline functions definitions
 722:funsape/globalDefines.hpp **** // =============================================================================
 723:funsape/globalDefines.hpp **** 
 724:funsape/globalDefines.hpp **** //     ///////////////////     CHARACTER HANDLING    ////////////////////     //
 725:funsape/globalDefines.hpp **** char_t inlined toLowerCase(cchar_t character_p)
 726:funsape/globalDefines.hpp **** {
 727:funsape/globalDefines.hpp ****     return ((isAsciiUpperCaseLetter(character_p)) ? (character_p + 0x20) : character_p);
 728:funsape/globalDefines.hpp **** }
 729:funsape/globalDefines.hpp **** 
 730:funsape/globalDefines.hpp **** char_t inlined toUpperCase(cchar_t character_p)
 731:funsape/globalDefines.hpp **** {
 732:funsape/globalDefines.hpp ****     return ((isAsciiLowerCaseLetter(character_p)) ? (character_p - 0x20) : character_p);
 733:funsape/globalDefines.hpp **** }
 734:funsape/globalDefines.hpp **** 
 735:funsape/globalDefines.hpp **** //     /////////////////////     DATA VALIDITY     //////////////////////     //
 736:funsape/globalDefines.hpp **** bool_t inlined isAsciiLowerCaseLetter(cchar_t character_p)
 737:funsape/globalDefines.hpp **** {
 738:funsape/globalDefines.hpp ****     return ((bool_t)(((character_p >= 'a') && (character_p <= 'z')) ? true : false));
 739:funsape/globalDefines.hpp **** }
 740:funsape/globalDefines.hpp **** 
 741:funsape/globalDefines.hpp **** bool_t inlined isAsciiUpperCaseLetter(cchar_t character_p)
 742:funsape/globalDefines.hpp **** {
 743:funsape/globalDefines.hpp ****     return ((bool_t)(((character_p >= 'A') && (character_p <= 'Z')) ? true : false));
 744:funsape/globalDefines.hpp **** }
 745:funsape/globalDefines.hpp **** 
 746:funsape/globalDefines.hpp **** bool_t inlined isAsciiCommand(cchar_t character_p)
 747:funsape/globalDefines.hpp **** {
 748:funsape/globalDefines.hpp ****     return ((bool_t)((character_p < ' ') ? true : false));
 749:funsape/globalDefines.hpp **** }
 750:funsape/globalDefines.hpp **** 
 751:funsape/globalDefines.hpp **** bool_t inlined isAsciiLetter(cchar_t character_p)
 752:funsape/globalDefines.hpp **** {
 753:funsape/globalDefines.hpp ****     return ((bool_t)((isAsciiLowerCaseLetter(character_p) || (isAsciiUpperCaseLetter(character_p)) 
 754:funsape/globalDefines.hpp **** }
 755:funsape/globalDefines.hpp **** 
 756:funsape/globalDefines.hpp **** bool_t inlined isAsciiNumber(cchar_t character_p)
 757:funsape/globalDefines.hpp **** {
GAS LISTING C:\Users\kenne\AppData\Local\Temp\ccwOixCa.s 			page 18


 758:funsape/globalDefines.hpp ****     return ((bool_t)(((character_p >= '0') && (character_p <= '9')) ? true : false));
 759:funsape/globalDefines.hpp **** }
 760:funsape/globalDefines.hpp **** 
 761:funsape/globalDefines.hpp **** bool_t inlined isAsciiSymbol(cchar_t character_p)
 762:funsape/globalDefines.hpp **** {
 763:funsape/globalDefines.hpp ****     return ((bool_t)(((!isAsciiNumber(character_p)) && (!isAsciiCommand(character_p)) &&
 764:funsape/globalDefines.hpp ****                                     (!isAsciiLetter(character_p))) ? true : false));
 765:funsape/globalDefines.hpp **** }
 766:funsape/globalDefines.hpp **** 
 767:funsape/globalDefines.hpp **** //     /////////////////////     SYSTEM ACTIONS    //////////////////////     //
 768:funsape/globalDefines.hpp **** void inlined die(Error errorCode_p)
 769:funsape/globalDefines.hpp **** {
 770:funsape/globalDefines.hpp ****     printf("Failed with error=%u (0x%04x).\r", (cuint16_t)errorCode_p, (cuint16_t)errorCode_p);
 771:funsape/globalDefines.hpp ****     systemHalt();
 772:funsape/globalDefines.hpp **** 
 773:funsape/globalDefines.hpp ****     return;
 774:funsape/globalDefines.hpp **** }
 775:funsape/globalDefines.hpp **** 
 776:funsape/globalDefines.hpp **** void inlined doNop(void)
 777:funsape/globalDefines.hpp **** {
 778:funsape/globalDefines.hpp ****     asm volatile("nop");
 779:funsape/globalDefines.hpp **** 
 780:funsape/globalDefines.hpp ****     return;
 781:funsape/globalDefines.hpp **** }
 782:funsape/globalDefines.hpp **** 
 783:funsape/globalDefines.hpp **** void inlined doNothing(void)
 784:funsape/globalDefines.hpp **** {
 785:funsape/globalDefines.hpp ****     return;
 786:funsape/globalDefines.hpp **** }
 787:funsape/globalDefines.hpp **** 
 788:funsape/globalDefines.hpp **** void inlined systemHalt(void (*function_p)(void))
 789:funsape/globalDefines.hpp **** {
 790:funsape/globalDefines.hpp ****     if(isPointerValid(function_p)) {
 791:funsape/globalDefines.hpp ****         function_p();
 792:funsape/globalDefines.hpp ****     }
 793:funsape/globalDefines.hpp ****     while(1) {
 794:funsape/globalDefines.hpp ****         doNothing();
 795:funsape/globalDefines.hpp ****     }
 796:funsape/globalDefines.hpp **** 
 797:funsape/globalDefines.hpp ****     return;
 798:funsape/globalDefines.hpp **** }
 799:funsape/globalDefines.hpp **** 
 800:funsape/globalDefines.hpp **** // =============================================================================
 801:funsape/globalDefines.hpp **** // Public functions weakly defined
 802:funsape/globalDefines.hpp **** // =============================================================================
 803:funsape/globalDefines.hpp **** 
 804:funsape/globalDefines.hpp **** #define delayMs(time_p)                 _delay_ms(time_p)
 805:funsape/globalDefines.hpp **** #define delayUs(time_p)                 _delay_us(time_p)
 806:funsape/globalDefines.hpp **** 
 807:funsape/globalDefines.hpp **** weakened uint32_t getTick(void)
 808:funsape/globalDefines.hpp **** {
  93               		.loc 2 808 1 is_stmt 1 view -0
  94               		.cfi_startproc
  95               	/* prologue: function */
  96               	/* frame size = 0 */
  97               	/* stack size = 0 */
  98               	.L__stack_usage = 0
GAS LISTING C:\Users\kenne\AppData\Local\Temp\ccwOixCa.s 			page 19


 809:funsape/globalDefines.hpp ****     // TODO
 810:funsape/globalDefines.hpp ****     return 0;
  99               		.loc 2 810 5 view .LVU13
 811:funsape/globalDefines.hpp **** }
 100               		.loc 2 811 1 is_stmt 0 view .LVU14
 101 0000 60E0      		ldi r22,0
 102 0002 70E0      		ldi r23,0
 103 0004 CB01      		movw r24,r22
 104               	/* epilogue start */
 105 0006 0895      		ret
 106               		.cfi_endproc
 107               	.LFE32:
 109               		.section	.rodata.__vector_1.str1.1,"aMS",@progbits,1
 110               	.LC0:
 111 0000 4F75 7472 		.string	"Outra coisa"
 111      6120 636F 
 111      6973 6100 
 112               	.LC1:
 113 000c 6E75 6D3D 		.string	"num=%d\n"
 113      2564 0A00 
 114               		.section	.text.__vector_1,"ax",@progbits
 115               	.global	__vector_1
 117               	__vector_1:
 118               	.LFB73:
  81:main.cpp      ****     //stopWatchStart();
 119               		.loc 1 81 1 is_stmt 1 view -0
 120               		.cfi_startproc
 121 0000 1F92      		push r1
 122               		.cfi_def_cfa_offset 3
 123               		.cfi_offset 1, -2
 124 0002 0F92      		push r0
 125               		.cfi_def_cfa_offset 4
 126               		.cfi_offset 0, -3
 127 0004 0FB6      		in r0,__SREG__
 128 0006 0F92      		push r0
 129 0008 1124      		clr __zero_reg__
 130 000a 2F93      		push r18
 131               		.cfi_def_cfa_offset 5
 132               		.cfi_offset 18, -4
 133 000c 3F93      		push r19
 134               		.cfi_def_cfa_offset 6
 135               		.cfi_offset 19, -5
 136 000e 4F93      		push r20
 137               		.cfi_def_cfa_offset 7
 138               		.cfi_offset 20, -6
 139 0010 5F93      		push r21
 140               		.cfi_def_cfa_offset 8
 141               		.cfi_offset 21, -7
 142 0012 6F93      		push r22
 143               		.cfi_def_cfa_offset 9
 144               		.cfi_offset 22, -8
 145 0014 7F93      		push r23
 146               		.cfi_def_cfa_offset 10
 147               		.cfi_offset 23, -9
 148 0016 8F93      		push r24
 149               		.cfi_def_cfa_offset 11
 150               		.cfi_offset 24, -10
GAS LISTING C:\Users\kenne\AppData\Local\Temp\ccwOixCa.s 			page 20


 151 0018 9F93      		push r25
 152               		.cfi_def_cfa_offset 12
 153               		.cfi_offset 25, -11
 154 001a AF93      		push r26
 155               		.cfi_def_cfa_offset 13
 156               		.cfi_offset 26, -12
 157 001c BF93      		push r27
 158               		.cfi_def_cfa_offset 14
 159               		.cfi_offset 27, -13
 160 001e EF93      		push r30
 161               		.cfi_def_cfa_offset 15
 162               		.cfi_offset 30, -14
 163 0020 FF93      		push r31
 164               		.cfi_def_cfa_offset 16
 165               		.cfi_offset 31, -15
 166               	/* prologue: Signal */
 167               	/* frame size = 0 */
 168               	/* stack size = 15 */
 169               	.L__stack_usage = 15
  83:main.cpp      ****     printf("Outra coisa\n");
 170               		.loc 1 83 5 view .LVU16
  83:main.cpp      ****     printf("Outra coisa\n");
 171               		.loc 1 83 20 is_stmt 0 view .LVU17
 172 0022 80E0      		ldi r24,lo8(lcd)
 173 0024 90E0      		ldi r25,hi8(lcd)
 174 0026 0E94 0000 		call _ZN7Hd4478011clearScreenEv
 175               	.LVL6:
  84:main.cpp      ****     printf("num=%d\n", num++);
 176               		.loc 1 84 5 is_stmt 1 view .LVU18
  84:main.cpp      ****     printf("num=%d\n", num++);
 177               		.loc 1 84 11 is_stmt 0 view .LVU19
 178 002a 80E0      		ldi r24,lo8(.LC0)
 179 002c 90E0      		ldi r25,hi8(.LC0)
 180 002e 0E94 0000 		call puts
 181               	.LVL7:
  85:main.cpp      ****     //stopWatchStop();
 182               		.loc 1 85 5 is_stmt 1 view .LVU20
  85:main.cpp      ****     //stopWatchStop();
 183               		.loc 1 85 27 is_stmt 0 view .LVU21
 184 0032 8091 0000 		lds r24,num
 185 0036 91E0      		ldi r25,lo8(1)
 186 0038 980F      		add r25,r24
 187 003a 9093 0000 		sts num,r25
  85:main.cpp      ****     //stopWatchStop();
 188               		.loc 1 85 11 view .LVU22
 189 003e 1F92      		push __zero_reg__
 190               		.cfi_def_cfa_offset 17
 191 0040 8F93      		push r24
 192               		.cfi_def_cfa_offset 18
 193 0042 80E0      		ldi r24,lo8(.LC1)
 194 0044 90E0      		ldi r25,hi8(.LC1)
 195 0046 9F93      		push r25
 196               		.cfi_def_cfa_offset 19
 197 0048 8F93      		push r24
 198               		.cfi_def_cfa_offset 20
 199 004a 0E94 0000 		call printf
 200               	.LVL8:
GAS LISTING C:\Users\kenne\AppData\Local\Temp\ccwOixCa.s 			page 21


  88:main.cpp      **** 
 201               		.loc 1 88 1 view .LVU23
 202 004e 0F90      		pop __tmp_reg__
 203 0050 0F90      		pop __tmp_reg__
 204 0052 0F90      		pop __tmp_reg__
 205 0054 0F90      		pop __tmp_reg__
 206               		.cfi_def_cfa_offset 16
 207               	/* epilogue start */
 208 0056 FF91      		pop r31
 209 0058 EF91      		pop r30
 210 005a BF91      		pop r27
 211 005c AF91      		pop r26
 212 005e 9F91      		pop r25
 213 0060 8F91      		pop r24
 214 0062 7F91      		pop r23
 215 0064 6F91      		pop r22
 216 0066 5F91      		pop r21
 217 0068 4F91      		pop r20
 218 006a 3F91      		pop r19
 219 006c 2F91      		pop r18
 220 006e 0F90      		pop r0
 221 0070 0FBE      		out __SREG__,r0
 222 0072 0F90      		pop r0
 223 0074 1F90      		pop r1
 224 0076 1895      		reti
 225               		.cfi_endproc
 226               	.LFE73:
 228               		.section	.text._Z22timer1OverflowCallbackv,"ax",@progbits
 229               	.global	_Z22timer1OverflowCallbackv
 231               	_Z22timer1OverflowCallbackv:
 232               	.LFB74:
  92:main.cpp      ****     nOvf++;
 233               		.loc 1 92 1 is_stmt 1 view -0
 234               		.cfi_startproc
 235               	/* prologue: function */
 236               	/* frame size = 0 */
 237               	/* stack size = 0 */
 238               	.L__stack_usage = 0
  93:main.cpp      ****     timer1.setCounterValue(0);
 239               		.loc 1 93 5 view .LVU25
  93:main.cpp      ****     timer1.setCounterValue(0);
 240               		.loc 1 93 9 is_stmt 0 view .LVU26
 241 0000 8091 0000 		lds r24,nOvf
 242 0004 8F5F      		subi r24,lo8(-(1))
 243 0006 8093 0000 		sts nOvf,r24
  94:main.cpp      **** }
 244               		.loc 1 94 5 is_stmt 1 view .LVU27
 245               	.LVL9:
 246               	.LBB40:
 247               	.LBI40:
 248               		.file 3 "funsape/peripheral/timer1.hpp"
   1:funsape/peripheral/timer1.hpp **** //!
   2:funsape/peripheral/timer1.hpp **** //! \file           timer1.hpp
   3:funsape/peripheral/timer1.hpp **** //! \brief          TIMER1 peripheral control for the FunSAPE AVR8 Library
   4:funsape/peripheral/timer1.hpp **** //! \author         Leandro Schwarz (bladabuska+funsapeavr8lib@gmail.com)
   5:funsape/peripheral/timer1.hpp **** //! \date           2023-04-05
   6:funsape/peripheral/timer1.hpp **** //! \version        23.04
GAS LISTING C:\Users\kenne\AppData\Local\Temp\ccwOixCa.s 			page 22


   7:funsape/peripheral/timer1.hpp **** //! \copyright      license
   8:funsape/peripheral/timer1.hpp **** //! \details        TIMER1 peripheral control for the FunSAPE AVR8 Library
   9:funsape/peripheral/timer1.hpp **** //! \todo           Todo list
  10:funsape/peripheral/timer1.hpp **** //!
  11:funsape/peripheral/timer1.hpp **** 
  12:funsape/peripheral/timer1.hpp **** // =============================================================================
  13:funsape/peripheral/timer1.hpp **** // Include guard (START)
  14:funsape/peripheral/timer1.hpp **** // =============================================================================
  15:funsape/peripheral/timer1.hpp **** 
  16:funsape/peripheral/timer1.hpp **** #ifndef __TIMER1_HPP
  17:funsape/peripheral/timer1.hpp **** #define __TIMER1_HPP                            2304
  18:funsape/peripheral/timer1.hpp **** 
  19:funsape/peripheral/timer1.hpp **** // =============================================================================
  20:funsape/peripheral/timer1.hpp **** // Dependencies
  21:funsape/peripheral/timer1.hpp **** // =============================================================================
  22:funsape/peripheral/timer1.hpp **** 
  23:funsape/peripheral/timer1.hpp **** //     /////////////////     GLOBAL DEFINITIONS FILE    /////////////////     //
  24:funsape/peripheral/timer1.hpp **** #include "../globalDefines.hpp"
  25:funsape/peripheral/timer1.hpp **** #if !defined(__GLOBAL_DEFINES_HPP)
  26:funsape/peripheral/timer1.hpp **** #    error "Global definitions file is corrupted!"
  27:funsape/peripheral/timer1.hpp **** #elif __GLOBAL_DEFINES_HPP != __TIMER1_HPP
  28:funsape/peripheral/timer1.hpp **** #    error "Version mismatch between file header and global definitions file!"
  29:funsape/peripheral/timer1.hpp **** #endif
  30:funsape/peripheral/timer1.hpp **** 
  31:funsape/peripheral/timer1.hpp **** //     //////////////////     LIBRARY DEPENDENCIES     //////////////////     //
  32:funsape/peripheral/timer1.hpp **** #include "../util/debug.hpp"
  33:funsape/peripheral/timer1.hpp **** #if !defined(__DEBUG_HPP)
  34:funsape/peripheral/timer1.hpp **** #   error "Header file (debug.hpp) is corrupted!"
  35:funsape/peripheral/timer1.hpp **** #elif __DEBUG_HPP != __TIMER1_HPP
  36:funsape/peripheral/timer1.hpp **** #   error "Version mismatch between header file and library dependency (debug.hpp)!"
  37:funsape/peripheral/timer1.hpp **** #endif
  38:funsape/peripheral/timer1.hpp **** 
  39:funsape/peripheral/timer1.hpp **** // =============================================================================
  40:funsape/peripheral/timer1.hpp **** // Undefining previous definitions
  41:funsape/peripheral/timer1.hpp **** // =============================================================================
  42:funsape/peripheral/timer1.hpp **** 
  43:funsape/peripheral/timer1.hpp **** // NONE
  44:funsape/peripheral/timer1.hpp **** 
  45:funsape/peripheral/timer1.hpp **** // =============================================================================
  46:funsape/peripheral/timer1.hpp **** // Constant definitions
  47:funsape/peripheral/timer1.hpp **** // =============================================================================
  48:funsape/peripheral/timer1.hpp **** 
  49:funsape/peripheral/timer1.hpp **** // NONE
  50:funsape/peripheral/timer1.hpp **** 
  51:funsape/peripheral/timer1.hpp **** // =============================================================================
  52:funsape/peripheral/timer1.hpp **** // New data types
  53:funsape/peripheral/timer1.hpp **** // =============================================================================
  54:funsape/peripheral/timer1.hpp **** 
  55:funsape/peripheral/timer1.hpp **** // NONE
  56:funsape/peripheral/timer1.hpp **** 
  57:funsape/peripheral/timer1.hpp **** // =============================================================================
  58:funsape/peripheral/timer1.hpp **** // Interrupt callback functions
  59:funsape/peripheral/timer1.hpp **** // =============================================================================
  60:funsape/peripheral/timer1.hpp **** 
  61:funsape/peripheral/timer1.hpp **** //!
  62:funsape/peripheral/timer1.hpp **** //! \brief          TIMER1 compare A match interrupt callback function
  63:funsape/peripheral/timer1.hpp **** //! \details        This function is called when the TIMER1 compare A match
GAS LISTING C:\Users\kenne\AppData\Local\Temp\ccwOixCa.s 			page 23


  64:funsape/peripheral/timer1.hpp **** //!                     interrupt is treated. It is a weak function that can be
  65:funsape/peripheral/timer1.hpp **** //!                     overwritten by user code.
  66:funsape/peripheral/timer1.hpp **** //!
  67:funsape/peripheral/timer1.hpp **** void timer1CompareACallback(void);
  68:funsape/peripheral/timer1.hpp **** 
  69:funsape/peripheral/timer1.hpp **** //!
  70:funsape/peripheral/timer1.hpp **** //! \brief          TIMER1 compare B match interrupt callback function
  71:funsape/peripheral/timer1.hpp **** //! \details        This function is called when the TIMER1 compare B match
  72:funsape/peripheral/timer1.hpp **** //!                     interrupt is treated. It is a weak function that can be
  73:funsape/peripheral/timer1.hpp **** //!                     overwritten by user code.
  74:funsape/peripheral/timer1.hpp **** //!
  75:funsape/peripheral/timer1.hpp **** void timer1CompareBCallback(void);
  76:funsape/peripheral/timer1.hpp **** 
  77:funsape/peripheral/timer1.hpp **** //!
  78:funsape/peripheral/timer1.hpp **** //! \brief          TIMER1 Input Capture interrupt callback function
  79:funsape/peripheral/timer1.hpp **** //! \details        This function is called when the TIMER1 input capture
  80:funsape/peripheral/timer1.hpp **** //!                     interrupt is treated. It is a weak function that can be
  81:funsape/peripheral/timer1.hpp **** //!                     overwritten by user code.
  82:funsape/peripheral/timer1.hpp **** //!
  83:funsape/peripheral/timer1.hpp **** void timer1InputCaptureCallback(void);
  84:funsape/peripheral/timer1.hpp **** 
  85:funsape/peripheral/timer1.hpp **** //!
  86:funsape/peripheral/timer1.hpp **** //! \brief          TIMER1 overflow interrupt callback function
  87:funsape/peripheral/timer1.hpp **** //! \details        This function is called when the TIMER1 overflow interrupt
  88:funsape/peripheral/timer1.hpp **** //!                     is treated. It is a weak function that can be
  89:funsape/peripheral/timer1.hpp **** //!                     overwritten by user code.
  90:funsape/peripheral/timer1.hpp **** //!
  91:funsape/peripheral/timer1.hpp **** void timer1OverflowCallback(void);
  92:funsape/peripheral/timer1.hpp **** 
  93:funsape/peripheral/timer1.hpp **** // =============================================================================
  94:funsape/peripheral/timer1.hpp **** // Timer1 Class
  95:funsape/peripheral/timer1.hpp **** // =============================================================================
  96:funsape/peripheral/timer1.hpp **** 
  97:funsape/peripheral/timer1.hpp **** //!
  98:funsape/peripheral/timer1.hpp **** //! \brief          Timer1 class
  99:funsape/peripheral/timer1.hpp **** //! \details        Timer1 class
 100:funsape/peripheral/timer1.hpp **** //!
 101:funsape/peripheral/timer1.hpp **** class Timer1
 102:funsape/peripheral/timer1.hpp **** {
 103:funsape/peripheral/timer1.hpp ****     // -------------------------------------------------------------------------
 104:funsape/peripheral/timer1.hpp ****     // New data types ----------------------------------------------------------
 105:funsape/peripheral/timer1.hpp **** public:
 106:funsape/peripheral/timer1.hpp **** 
 107:funsape/peripheral/timer1.hpp ****     //     ////////////////     TIMER1 Clock Source     /////////////////     //
 108:funsape/peripheral/timer1.hpp ****     //!
 109:funsape/peripheral/timer1.hpp ****     //! \brief      Clock source enumeration
 110:funsape/peripheral/timer1.hpp ****     //! \details    Clock prescaler options associated with TIMER1.
 111:funsape/peripheral/timer1.hpp ****     //! \warning    The value associate with the symbolic names may change
 112:funsape/peripheral/timer1.hpp ****     //!                 between builds and might not reflect the register/bits
 113:funsape/peripheral/timer1.hpp ****     //!                 real values. In order to ensure compatibility between
 114:funsape/peripheral/timer1.hpp ****     //!                 builds, always refer to the SYMBOLIC NAME, instead of
 115:funsape/peripheral/timer1.hpp ****     //!                 the VALUE.
 116:funsape/peripheral/timer1.hpp ****     //!
 117:funsape/peripheral/timer1.hpp ****     enum class ClockSource : uint8_t {
 118:funsape/peripheral/timer1.hpp ****         DISABLED                    = 0,    //!< Disables clock, timer is off
 119:funsape/peripheral/timer1.hpp ****         PRESCALER_1                 = 1,    //!< Disables prescaler, timer clock frequency will be 
 120:funsape/peripheral/timer1.hpp ****         PRESCALER_8                 = 2,    //!< Timer clock frequency will be CPU clock divided by
GAS LISTING C:\Users\kenne\AppData\Local\Temp\ccwOixCa.s 			page 24


 121:funsape/peripheral/timer1.hpp ****         PRESCALER_64                = 3,    //!< Timer clock frequency will be CPU clock divided by
 122:funsape/peripheral/timer1.hpp ****         PRESCALER_256               = 4,    //!< Timer clock frequency will be CPU clock divided by
 123:funsape/peripheral/timer1.hpp ****         PRESCALER_1024              = 5,    //!< Timer clock frequency will be CPU clock divided by
 124:funsape/peripheral/timer1.hpp ****         T1_FALLING_EDGE             = 6,    //!< Timer clock will be based on the falling edge of a
 125:funsape/peripheral/timer1.hpp ****         T1_RISING_EDGE              = 7     //!< Timer clock will be based on the rising edge of a 
 126:funsape/peripheral/timer1.hpp ****     };
 127:funsape/peripheral/timer1.hpp **** 
 128:funsape/peripheral/timer1.hpp ****     //     ////////////////////     TIMER1 Mode     /////////////////////     //
 129:funsape/peripheral/timer1.hpp ****     //!
 130:funsape/peripheral/timer1.hpp ****     //! \brief      Operation Mode enumeration
 131:funsape/peripheral/timer1.hpp ****     //! \details    Operation Mode options associated with TIMER1.
 132:funsape/peripheral/timer1.hpp ****     //! \warning    The value associate with the symbolic names may change
 133:funsape/peripheral/timer1.hpp ****     //!                 between builds and might not reflect the register/bits
 134:funsape/peripheral/timer1.hpp ****     //!                 real values. In order to ensure compatibility between
 135:funsape/peripheral/timer1.hpp ****     //!                 builds, always refer to the SYMBOLIC NAME, instead of
 136:funsape/peripheral/timer1.hpp ****     //!                 the VALUE.
 137:funsape/peripheral/timer1.hpp ****     //!
 138:funsape/peripheral/timer1.hpp ****     enum class Mode : uint8_t {
 139:funsape/peripheral/timer1.hpp ****         NORMAL                          = 0,    //!< Normal mode (direction = UP / TOP = 0x00FF / U
 140:funsape/peripheral/timer1.hpp ****         PWM_PHASE_CORRECTED_8_BITS      = 1,    //!< PWM mode with phase correction (direction = DO
 141:funsape/peripheral/timer1.hpp ****         PWM_PHASE_CORRECTED_9_BITS      = 2,    //!< PWM mode with phase correction (direction = DO
 142:funsape/peripheral/timer1.hpp ****         PWM_PHASE_CORRECTED_10_BITS     = 3,    //!< PWM mode with phase correction (direction = DO
 143:funsape/peripheral/timer1.hpp ****         CTC_OCRA                        = 4,    //!< CTC mode (direction = UP / TOP = OCR1A / UPDAT
 144:funsape/peripheral/timer1.hpp ****         PWM_FAST_8_BITS                 = 5,    //!< PWM mode fast (direction = UP / TOP = 0x00FF /
 145:funsape/peripheral/timer1.hpp ****         PWM_FAST_9_BITS                 = 6,    //!< PWM mode fast (direction = UP / TOP = 0x01FF /
 146:funsape/peripheral/timer1.hpp ****         PWM_FAST_10_BITS                = 7,    //!< PWM mode fast (direction = UP / TOP = 0x03FF /
 147:funsape/peripheral/timer1.hpp ****         PWM_PHASE_FREQ_CORRECTED_ICR    = 8,    //!< PWM mode with phase and frequency correction (
 148:funsape/peripheral/timer1.hpp ****         PWM_PHASE_FREQ_CORRECTED_OCRA   = 9,    //!< PWM mode with phase and frequency correction (
 149:funsape/peripheral/timer1.hpp ****         PWM_PHASE_CORRECTED_ICR         = 10,   //!< PWM mode with phase correction (direction = DO
 150:funsape/peripheral/timer1.hpp ****         PWM_PHASE_CORRECTED_OCRA        = 11,   //!< PWM mode with phase correction (direction = DO
 151:funsape/peripheral/timer1.hpp ****         CTC_ICR                         = 12,    //!< CTC mode (direction = UP / TOP = ICR1A / UPDA
 152:funsape/peripheral/timer1.hpp ****         // RESERVED                     = 13,
 153:funsape/peripheral/timer1.hpp ****         PWM_FAST_ICR                    = 14,   //!< PWM mode fast (direction = UP / TOP = ICR1 / U
 154:funsape/peripheral/timer1.hpp ****         PWM_FAST_OCRA                   = 15    //!< PWM mode fast (direction = UP / TOP = OCR1A / 
 155:funsape/peripheral/timer1.hpp ****     };
 156:funsape/peripheral/timer1.hpp **** 
 157:funsape/peripheral/timer1.hpp ****     //     /////////////////     TIMER1 Output Mode    //////////////////     //
 158:funsape/peripheral/timer1.hpp ****     //!
 159:funsape/peripheral/timer1.hpp ****     //! \brief      Output Mode enumeration
 160:funsape/peripheral/timer1.hpp ****     //! \details    Output Mode options associated with TIMER1.
 161:funsape/peripheral/timer1.hpp ****     //! \warning    The value associate with the symbolic names may change
 162:funsape/peripheral/timer1.hpp ****     //!                 between builds and might not reflect the register/bits
 163:funsape/peripheral/timer1.hpp ****     //!                 real values. In order to ensure compatibility between
 164:funsape/peripheral/timer1.hpp ****     //!                 builds, always refer to the SYMBOLIC NAME, instead of
 165:funsape/peripheral/timer1.hpp ****     //!                 the VALUE.
 166:funsape/peripheral/timer1.hpp ****     //!
 167:funsape/peripheral/timer1.hpp ****     enum class OutputMode : uint8_t {
 168:funsape/peripheral/timer1.hpp ****         NORMAL                          = 0,    //!< OC1x disabled. Normal port operation
 169:funsape/peripheral/timer1.hpp ****         TOGGLE_ON_COMPARE               = 1,    //!< OC1x will toggle on OCR1x compare match
 170:funsape/peripheral/timer1.hpp ****         CLEAR_ON_COMPARE                = 2,    //!< OC1x will clear on OCR1x compare match
 171:funsape/peripheral/timer1.hpp ****         SET_ON_COMPARE                  = 3,    //!< OC1x will set on OCR1x compare match
 172:funsape/peripheral/timer1.hpp ****         NON_INVERTING_MODE              = 2,    //!< OC1x will produce a non-inverted PWM signal
 173:funsape/peripheral/timer1.hpp ****         INVERTING_MODE                  = 3,    //!< OC1x will produce a inverted PWM signal
 174:funsape/peripheral/timer1.hpp ****     };
 175:funsape/peripheral/timer1.hpp **** 
 176:funsape/peripheral/timer1.hpp ****     // -------------------------------------------------------------------------
 177:funsape/peripheral/timer1.hpp ****     // Constructors ------------------------------------------------------------
GAS LISTING C:\Users\kenne\AppData\Local\Temp\ccwOixCa.s 			page 25


 178:funsape/peripheral/timer1.hpp **** public:
 179:funsape/peripheral/timer1.hpp **** 
 180:funsape/peripheral/timer1.hpp ****     //!
 181:funsape/peripheral/timer1.hpp ****     //! \brief      Timer1 class constructor
 182:funsape/peripheral/timer1.hpp ****     //! \details    Creates an Timer1 object
 183:funsape/peripheral/timer1.hpp ****     //!
 184:funsape/peripheral/timer1.hpp ****     Timer1(
 185:funsape/peripheral/timer1.hpp ****             void
 186:funsape/peripheral/timer1.hpp ****     );
 187:funsape/peripheral/timer1.hpp **** 
 188:funsape/peripheral/timer1.hpp ****     //!
 189:funsape/peripheral/timer1.hpp ****     //! \brief      Timer1 class destructor
 190:funsape/peripheral/timer1.hpp ****     //! \details    Destroys an Timer1 object
 191:funsape/peripheral/timer1.hpp ****     //!
 192:funsape/peripheral/timer1.hpp ****     ~Timer1(
 193:funsape/peripheral/timer1.hpp ****             void
 194:funsape/peripheral/timer1.hpp ****     );
 195:funsape/peripheral/timer1.hpp **** 
 196:funsape/peripheral/timer1.hpp ****     // -------------------------------------------------------------------------
 197:funsape/peripheral/timer1.hpp ****     // Methods -----------------------------------------------------------------
 198:funsape/peripheral/timer1.hpp **** public:
 199:funsape/peripheral/timer1.hpp ****     //     ///////////////////     INITIALIZATION    ////////////////////     //
 200:funsape/peripheral/timer1.hpp **** 
 201:funsape/peripheral/timer1.hpp ****     //!
 202:funsape/peripheral/timer1.hpp ****     //! \brief      Initializes the TIMER1 module
 203:funsape/peripheral/timer1.hpp ****     //! \details    Initializes the TIMER1 module.
 204:funsape/peripheral/timer1.hpp ****     //! \param      mode_p              Operation mode
 205:funsape/peripheral/timer1.hpp ****     //! \param      clockSource_p       Clock source and prescaler
 206:funsape/peripheral/timer1.hpp ****     //! \return     bool_t              True on success / False on failure
 207:funsape/peripheral/timer1.hpp ****     //!
 208:funsape/peripheral/timer1.hpp ****     bool_t init(
 209:funsape/peripheral/timer1.hpp ****             const Mode mode_p,
 210:funsape/peripheral/timer1.hpp ****             const ClockSource clockSource_p
 211:funsape/peripheral/timer1.hpp ****     );
 212:funsape/peripheral/timer1.hpp **** 
 213:funsape/peripheral/timer1.hpp ****     //!
 214:funsape/peripheral/timer1.hpp ****     //! \brief      Configures the clock source and the clock prescaler
 215:funsape/peripheral/timer1.hpp ****     //! \details    Configures the clock source and the clock prescaler.
 216:funsape/peripheral/timer1.hpp ****     //! \param      clockSource_p       Clock source and prescaler
 217:funsape/peripheral/timer1.hpp ****     //! \return     bool_t              True on success / False on failure
 218:funsape/peripheral/timer1.hpp ****     //!
 219:funsape/peripheral/timer1.hpp ****     bool_t setClockSource(
 220:funsape/peripheral/timer1.hpp ****             const ClockSource clockSource_p
 221:funsape/peripheral/timer1.hpp ****     );
 222:funsape/peripheral/timer1.hpp **** 
 223:funsape/peripheral/timer1.hpp ****     //!
 224:funsape/peripheral/timer1.hpp ****     //! \brief      Configures the input capture mode
 225:funsape/peripheral/timer1.hpp ****     //! \details    Configures the input capture mode.
 226:funsape/peripheral/timer1.hpp ****     //! \param      edgeSelection_p     edge of the input capture signal
 227:funsape/peripheral/timer1.hpp ****     //! \param      noiseCanceler_p     state of the noise canceler circuit
 228:funsape/peripheral/timer1.hpp ****     //! \return     bool_t              True on success / False on failure
 229:funsape/peripheral/timer1.hpp ****     //!
 230:funsape/peripheral/timer1.hpp ****     bool_t setInputCaptureMode(
 231:funsape/peripheral/timer1.hpp ****             const Edge edgeSelection_p,
 232:funsape/peripheral/timer1.hpp ****             cbool_t noiseCanceler_p
 233:funsape/peripheral/timer1.hpp ****     );
 234:funsape/peripheral/timer1.hpp **** 
GAS LISTING C:\Users\kenne\AppData\Local\Temp\ccwOixCa.s 			page 26


 235:funsape/peripheral/timer1.hpp ****     //!
 236:funsape/peripheral/timer1.hpp ****     //! \brief      Configures the operation mode
 237:funsape/peripheral/timer1.hpp ****     //! \details    Configures the operation mode.
 238:funsape/peripheral/timer1.hpp ****     //! \param      mode_p              Operation mode
 239:funsape/peripheral/timer1.hpp ****     //! \return     bool_t              True on success / False on failure
 240:funsape/peripheral/timer1.hpp ****     //!
 241:funsape/peripheral/timer1.hpp ****     bool_t setMode(
 242:funsape/peripheral/timer1.hpp ****             const Mode mode_p
 243:funsape/peripheral/timer1.hpp ****     );
 244:funsape/peripheral/timer1.hpp **** 
 245:funsape/peripheral/timer1.hpp ****     //!
 246:funsape/peripheral/timer1.hpp ****     //! \brief      Configures the desired behavior of OCR1x pins during compare match
 247:funsape/peripheral/timer1.hpp ****     //! \details    Configures the desired behavior of OCR1x pins during compare match.
 248:funsape/peripheral/timer1.hpp ****     //! \param      compA_p             Behavior of OCR1A pin during a compare A match
 249:funsape/peripheral/timer1.hpp ****     //! \param      compB_p             Behavior of OCR1B pin during a compare B match
 250:funsape/peripheral/timer1.hpp ****     //! \return     bool_t              True on success / False on failure
 251:funsape/peripheral/timer1.hpp ****     //!
 252:funsape/peripheral/timer1.hpp ****     bool_t setOutputMode(
 253:funsape/peripheral/timer1.hpp ****             const OutputMode compA_p,
 254:funsape/peripheral/timer1.hpp ****             const OutputMode compB_p
 255:funsape/peripheral/timer1.hpp ****     );
 256:funsape/peripheral/timer1.hpp **** 
 257:funsape/peripheral/timer1.hpp ****     //     /////////////////     CONTROL AND STATUS    //////////////////     //
 258:funsape/peripheral/timer1.hpp **** 
 259:funsape/peripheral/timer1.hpp ****     //!
 260:funsape/peripheral/timer1.hpp ****     //! \brief      Returns the last error
 261:funsape/peripheral/timer1.hpp ****     //! \details    Returns the last error.
 262:funsape/peripheral/timer1.hpp ****     //! \return     Error               Error status of the last operation
 263:funsape/peripheral/timer1.hpp ****     //!
 264:funsape/peripheral/timer1.hpp ****     Error getLastError(
 265:funsape/peripheral/timer1.hpp ****             void
 266:funsape/peripheral/timer1.hpp ****     );
 267:funsape/peripheral/timer1.hpp **** 
 268:funsape/peripheral/timer1.hpp ****     //     /////////////////////     COMPARE A     //////////////////////     //
 269:funsape/peripheral/timer1.hpp **** 
 270:funsape/peripheral/timer1.hpp ****     //!
 271:funsape/peripheral/timer1.hpp ****     //! \brief      Activates Compare A Match interrupt
 272:funsape/peripheral/timer1.hpp ****     //! \details    Activates Compare A Match interrupt.
 273:funsape/peripheral/timer1.hpp ****     //!
 274:funsape/peripheral/timer1.hpp ****     void inlined activateCompareAInterrupt(
 275:funsape/peripheral/timer1.hpp ****             void
 276:funsape/peripheral/timer1.hpp ****     );
 277:funsape/peripheral/timer1.hpp **** 
 278:funsape/peripheral/timer1.hpp ****     //!
 279:funsape/peripheral/timer1.hpp ****     //! \brief      Clears Compare A Match interrupt flag
 280:funsape/peripheral/timer1.hpp ****     //! \details    Clears Compare A Match interrupt flag.
 281:funsape/peripheral/timer1.hpp ****     //!
 282:funsape/peripheral/timer1.hpp ****     void inlined clearCompareAInterruptRequest(
 283:funsape/peripheral/timer1.hpp ****             void
 284:funsape/peripheral/timer1.hpp ****     );
 285:funsape/peripheral/timer1.hpp **** 
 286:funsape/peripheral/timer1.hpp ****     //!
 287:funsape/peripheral/timer1.hpp ****     //! \brief      Deactivates Compare A Match interrupt
 288:funsape/peripheral/timer1.hpp ****     //! \details    Deactivates Compare A Match interrupt.
 289:funsape/peripheral/timer1.hpp ****     //!
 290:funsape/peripheral/timer1.hpp ****     void inlined deactivateCompareAInterrupt(
 291:funsape/peripheral/timer1.hpp ****             void
GAS LISTING C:\Users\kenne\AppData\Local\Temp\ccwOixCa.s 			page 27


 292:funsape/peripheral/timer1.hpp ****     );
 293:funsape/peripheral/timer1.hpp **** 
 294:funsape/peripheral/timer1.hpp ****     //!
 295:funsape/peripheral/timer1.hpp ****     //! \brief      Forces a Compare A Match condition on output pin
 296:funsape/peripheral/timer1.hpp ****     //! \details    Forces a Compare A Match condition on output pin.
 297:funsape/peripheral/timer1.hpp ****     //!
 298:funsape/peripheral/timer1.hpp ****     void inlined forceCompareA(
 299:funsape/peripheral/timer1.hpp ****             void
 300:funsape/peripheral/timer1.hpp ****     );
 301:funsape/peripheral/timer1.hpp **** 
 302:funsape/peripheral/timer1.hpp ****     //!
 303:funsape/peripheral/timer1.hpp ****     //! \brief      Gets Compare A Match value
 304:funsape/peripheral/timer1.hpp ****     //! \details    Gets Compare A Match value.
 305:funsape/peripheral/timer1.hpp ****     //!
 306:funsape/peripheral/timer1.hpp ****     uint16_t inlined getCompareAValue(
 307:funsape/peripheral/timer1.hpp ****             void
 308:funsape/peripheral/timer1.hpp ****     );
 309:funsape/peripheral/timer1.hpp **** 
 310:funsape/peripheral/timer1.hpp ****     //!
 311:funsape/peripheral/timer1.hpp ****     //! \brief      Sets Compare A Match value
 312:funsape/peripheral/timer1.hpp ****     //! \details    Sets Compare A Match value.
 313:funsape/peripheral/timer1.hpp ****     //!
 314:funsape/peripheral/timer1.hpp ****     void inlined setCompareAValue(
 315:funsape/peripheral/timer1.hpp ****             cuint16_t value_p
 316:funsape/peripheral/timer1.hpp ****     );
 317:funsape/peripheral/timer1.hpp **** 
 318:funsape/peripheral/timer1.hpp ****     //     /////////////////////     COMPARE B     //////////////////////     //
 319:funsape/peripheral/timer1.hpp **** 
 320:funsape/peripheral/timer1.hpp ****     //!
 321:funsape/peripheral/timer1.hpp ****     //! \brief      Activates Compare B Match interrupt
 322:funsape/peripheral/timer1.hpp ****     //! \details    Activates Compare B Match interrupt.
 323:funsape/peripheral/timer1.hpp ****     //!
 324:funsape/peripheral/timer1.hpp ****     void inlined activateCompareBInterrupt(
 325:funsape/peripheral/timer1.hpp ****             void
 326:funsape/peripheral/timer1.hpp ****     );
 327:funsape/peripheral/timer1.hpp **** 
 328:funsape/peripheral/timer1.hpp ****     //!
 329:funsape/peripheral/timer1.hpp ****     //! \brief      Clears Compare B Match interrupt flag
 330:funsape/peripheral/timer1.hpp ****     //! \details    Clears Compare B Match interrupt flag.
 331:funsape/peripheral/timer1.hpp ****     //!
 332:funsape/peripheral/timer1.hpp ****     void inlined clearCompareBInterruptRequest(
 333:funsape/peripheral/timer1.hpp ****             void
 334:funsape/peripheral/timer1.hpp ****     );
 335:funsape/peripheral/timer1.hpp **** 
 336:funsape/peripheral/timer1.hpp ****     //!
 337:funsape/peripheral/timer1.hpp ****     //! \brief      Deactivates Compare B Match interrupt
 338:funsape/peripheral/timer1.hpp ****     //! \details    Deactivates Compare B Match interrupt.
 339:funsape/peripheral/timer1.hpp ****     //!
 340:funsape/peripheral/timer1.hpp ****     void inlined deactivateCompareBInterrupt(
 341:funsape/peripheral/timer1.hpp ****             void
 342:funsape/peripheral/timer1.hpp ****     );
 343:funsape/peripheral/timer1.hpp **** 
 344:funsape/peripheral/timer1.hpp ****     //!
 345:funsape/peripheral/timer1.hpp ****     //! \brief      Forces a Compare B Match condition on output pin
 346:funsape/peripheral/timer1.hpp ****     //! \details    Forces a Compare B Match condition on output pin.
 347:funsape/peripheral/timer1.hpp ****     //!
 348:funsape/peripheral/timer1.hpp ****     void inlined forceCompareB(
GAS LISTING C:\Users\kenne\AppData\Local\Temp\ccwOixCa.s 			page 28


 349:funsape/peripheral/timer1.hpp ****             void
 350:funsape/peripheral/timer1.hpp ****     );
 351:funsape/peripheral/timer1.hpp **** 
 352:funsape/peripheral/timer1.hpp ****     //!
 353:funsape/peripheral/timer1.hpp ****     //! \brief      Gets Compare B Match value
 354:funsape/peripheral/timer1.hpp ****     //! \details    Gets Compare B Match value.
 355:funsape/peripheral/timer1.hpp ****     //!
 356:funsape/peripheral/timer1.hpp ****     uint16_t inlined getCompareBValue(
 357:funsape/peripheral/timer1.hpp ****             void
 358:funsape/peripheral/timer1.hpp ****     );
 359:funsape/peripheral/timer1.hpp **** 
 360:funsape/peripheral/timer1.hpp ****     //!
 361:funsape/peripheral/timer1.hpp ****     //! \brief      Sets Compare B Match value
 362:funsape/peripheral/timer1.hpp ****     //! \details    Sets Compare B Match value.
 363:funsape/peripheral/timer1.hpp ****     //!
 364:funsape/peripheral/timer1.hpp ****     void inlined setCompareBValue(
 365:funsape/peripheral/timer1.hpp ****             cuint16_t value_p
 366:funsape/peripheral/timer1.hpp ****     );
 367:funsape/peripheral/timer1.hpp **** 
 368:funsape/peripheral/timer1.hpp ****     //     ///////////////////     INPUT CAPTURE     ////////////////////     //
 369:funsape/peripheral/timer1.hpp **** 
 370:funsape/peripheral/timer1.hpp ****     //!
 371:funsape/peripheral/timer1.hpp ****     //! \brief      Activates Input Capture interrupt
 372:funsape/peripheral/timer1.hpp ****     //! \details    Activates Input Capture interrupt.
 373:funsape/peripheral/timer1.hpp ****     //!
 374:funsape/peripheral/timer1.hpp ****     void inlined activateInputCaptureInterrupt(
 375:funsape/peripheral/timer1.hpp ****             void
 376:funsape/peripheral/timer1.hpp ****     );
 377:funsape/peripheral/timer1.hpp **** 
 378:funsape/peripheral/timer1.hpp ****     //!
 379:funsape/peripheral/timer1.hpp ****     //! \brief      Clears Input Capture interrupt flag
 380:funsape/peripheral/timer1.hpp ****     //! \details    Clears Input Capture interrupt flag.
 381:funsape/peripheral/timer1.hpp ****     //!
 382:funsape/peripheral/timer1.hpp ****     void inlined clearInputCaptureInterruptRequest(
 383:funsape/peripheral/timer1.hpp ****             void
 384:funsape/peripheral/timer1.hpp ****     );
 385:funsape/peripheral/timer1.hpp **** 
 386:funsape/peripheral/timer1.hpp ****     //!
 387:funsape/peripheral/timer1.hpp ****     //! \brief      Deactivates Input Capture interrupt
 388:funsape/peripheral/timer1.hpp ****     //! \details    Deactivates Input Capture interrupt.
 389:funsape/peripheral/timer1.hpp ****     //!
 390:funsape/peripheral/timer1.hpp ****     void inlined deactivateInputCaptureInterrupt(
 391:funsape/peripheral/timer1.hpp ****             void
 392:funsape/peripheral/timer1.hpp ****     );
 393:funsape/peripheral/timer1.hpp **** 
 394:funsape/peripheral/timer1.hpp ****     //!
 395:funsape/peripheral/timer1.hpp ****     //! \brief      Gets Input Capture value
 396:funsape/peripheral/timer1.hpp ****     //! \details    Gets Input Capture value.
 397:funsape/peripheral/timer1.hpp ****     //!
 398:funsape/peripheral/timer1.hpp ****     uint16_t inlined getInputCaptureValue(
 399:funsape/peripheral/timer1.hpp ****             void
 400:funsape/peripheral/timer1.hpp ****     );
 401:funsape/peripheral/timer1.hpp **** 
 402:funsape/peripheral/timer1.hpp ****     //!
 403:funsape/peripheral/timer1.hpp ****     //! \brief      Sets Input Capture value
 404:funsape/peripheral/timer1.hpp ****     //! \details    Sets Input Capture value.
 405:funsape/peripheral/timer1.hpp ****     //!
GAS LISTING C:\Users\kenne\AppData\Local\Temp\ccwOixCa.s 			page 29


 406:funsape/peripheral/timer1.hpp ****     void inlined setInputCaptureValue(
 407:funsape/peripheral/timer1.hpp ****             cuint16_t value_p
 408:funsape/peripheral/timer1.hpp ****     );
 409:funsape/peripheral/timer1.hpp **** 
 410:funsape/peripheral/timer1.hpp ****     //     //////////////////////     OVERFLOW    ///////////////////////     //
 411:funsape/peripheral/timer1.hpp **** 
 412:funsape/peripheral/timer1.hpp ****     //!
 413:funsape/peripheral/timer1.hpp ****     //! \brief      Activates Overflow interrupt
 414:funsape/peripheral/timer1.hpp ****     //! \details    Activates Overflow interrupt.
 415:funsape/peripheral/timer1.hpp ****     //!
 416:funsape/peripheral/timer1.hpp ****     void inlined activateOverflowInterrupt(
 417:funsape/peripheral/timer1.hpp ****             void
 418:funsape/peripheral/timer1.hpp ****     );
 419:funsape/peripheral/timer1.hpp **** 
 420:funsape/peripheral/timer1.hpp ****     //!
 421:funsape/peripheral/timer1.hpp ****     //! \brief      Clears Compare A Match interrupt flag
 422:funsape/peripheral/timer1.hpp ****     //! \details    Clears Compare A Match interrupt flag.
 423:funsape/peripheral/timer1.hpp ****     //!
 424:funsape/peripheral/timer1.hpp ****     void inlined clearOverflowInterruptRequest(
 425:funsape/peripheral/timer1.hpp ****             void
 426:funsape/peripheral/timer1.hpp ****     );
 427:funsape/peripheral/timer1.hpp **** 
 428:funsape/peripheral/timer1.hpp ****     //!
 429:funsape/peripheral/timer1.hpp ****     //! \brief      Deactivates Overflow Match interrupt
 430:funsape/peripheral/timer1.hpp ****     //! \details    Deactivates Overflow Match interrupt.
 431:funsape/peripheral/timer1.hpp ****     //!
 432:funsape/peripheral/timer1.hpp ****     void inlined deactivateOverflowInterrupt(
 433:funsape/peripheral/timer1.hpp ****             void
 434:funsape/peripheral/timer1.hpp ****     );
 435:funsape/peripheral/timer1.hpp **** 
 436:funsape/peripheral/timer1.hpp ****     //!
 437:funsape/peripheral/timer1.hpp ****     //! \brief      Gets counter value
 438:funsape/peripheral/timer1.hpp ****     //! \details    Gets counter value.
 439:funsape/peripheral/timer1.hpp ****     //!
 440:funsape/peripheral/timer1.hpp ****     uint16_t inlined getCounterValue(
 441:funsape/peripheral/timer1.hpp ****             void
 442:funsape/peripheral/timer1.hpp ****     );
 443:funsape/peripheral/timer1.hpp **** 
 444:funsape/peripheral/timer1.hpp ****     //!
 445:funsape/peripheral/timer1.hpp ****     //! \brief      Sets counter value
 446:funsape/peripheral/timer1.hpp ****     //! \details    Sets counter value.
 447:funsape/peripheral/timer1.hpp ****     //!
 448:funsape/peripheral/timer1.hpp ****     void inlined setCounterValue(
 449:funsape/peripheral/timer1.hpp ****             cuint16_t value_p
 450:funsape/peripheral/timer1.hpp ****     );
 451:funsape/peripheral/timer1.hpp **** 
 452:funsape/peripheral/timer1.hpp ****     // -------------------------------------------------------------------------
 453:funsape/peripheral/timer1.hpp ****     // Properties --------------------------------------------------------------
 454:funsape/peripheral/timer1.hpp **** private:
 455:funsape/peripheral/timer1.hpp ****     bool_t          _isInitialized      : 1;
 456:funsape/peripheral/timer1.hpp ****     ClockSource     _clockSource;
 457:funsape/peripheral/timer1.hpp ****     Mode            _mode;
 458:funsape/peripheral/timer1.hpp ****     Error           _lastError;
 459:funsape/peripheral/timer1.hpp **** }; // class Timer1
 460:funsape/peripheral/timer1.hpp **** 
 461:funsape/peripheral/timer1.hpp **** // =============================================================================
 462:funsape/peripheral/timer1.hpp **** // Inlined class functions
GAS LISTING C:\Users\kenne\AppData\Local\Temp\ccwOixCa.s 			page 30


 463:funsape/peripheral/timer1.hpp **** // =============================================================================
 464:funsape/peripheral/timer1.hpp **** 
 465:funsape/peripheral/timer1.hpp **** //     ///////////////////////     COMPARE A     ////////////////////////     //
 466:funsape/peripheral/timer1.hpp **** void inlined Timer1::activateCompareAInterrupt(void)
 467:funsape/peripheral/timer1.hpp **** {
 468:funsape/peripheral/timer1.hpp ****     setBit(TIMSK1, OCIE1A);
 469:funsape/peripheral/timer1.hpp ****     return;
 470:funsape/peripheral/timer1.hpp **** }
 471:funsape/peripheral/timer1.hpp **** 
 472:funsape/peripheral/timer1.hpp **** void inlined Timer1::clearCompareAInterruptRequest(void)
 473:funsape/peripheral/timer1.hpp **** {
 474:funsape/peripheral/timer1.hpp ****     setBit(TIFR1, OCF1A);
 475:funsape/peripheral/timer1.hpp ****     return;
 476:funsape/peripheral/timer1.hpp **** }
 477:funsape/peripheral/timer1.hpp **** 
 478:funsape/peripheral/timer1.hpp **** void inlined Timer1::deactivateCompareAInterrupt(void)
 479:funsape/peripheral/timer1.hpp **** {
 480:funsape/peripheral/timer1.hpp ****     clrBit(TIMSK1, OCIE1A);
 481:funsape/peripheral/timer1.hpp ****     return;
 482:funsape/peripheral/timer1.hpp **** }
 483:funsape/peripheral/timer1.hpp **** 
 484:funsape/peripheral/timer1.hpp **** void inlined Timer1::forceCompareA(void)
 485:funsape/peripheral/timer1.hpp **** {
 486:funsape/peripheral/timer1.hpp ****     setBit(TCCR1C, FOC1A);
 487:funsape/peripheral/timer1.hpp ****     return;
 488:funsape/peripheral/timer1.hpp **** }
 489:funsape/peripheral/timer1.hpp **** 
 490:funsape/peripheral/timer1.hpp **** uint16_t inlined Timer1::getCompareAValue(void)
 491:funsape/peripheral/timer1.hpp **** {
 492:funsape/peripheral/timer1.hpp ****     uint16_t aux16 = 0;
 493:funsape/peripheral/timer1.hpp **** 
 494:funsape/peripheral/timer1.hpp ****     ATOMIC_BLOCK(ATOMIC_RESTORESTATE) {
 495:funsape/peripheral/timer1.hpp ****         aux16 = OCR1A;
 496:funsape/peripheral/timer1.hpp ****     }
 497:funsape/peripheral/timer1.hpp ****     return aux16;
 498:funsape/peripheral/timer1.hpp **** }
 499:funsape/peripheral/timer1.hpp **** 
 500:funsape/peripheral/timer1.hpp **** void inlined Timer1::setCompareAValue(cuint16_t value_p)
 501:funsape/peripheral/timer1.hpp **** {
 502:funsape/peripheral/timer1.hpp ****     ATOMIC_BLOCK(ATOMIC_RESTORESTATE) {
 503:funsape/peripheral/timer1.hpp ****         OCR1A = value_p;
 504:funsape/peripheral/timer1.hpp ****     }
 505:funsape/peripheral/timer1.hpp ****     return;
 506:funsape/peripheral/timer1.hpp **** }
 507:funsape/peripheral/timer1.hpp **** 
 508:funsape/peripheral/timer1.hpp **** //     ///////////////////////     COMPARE B     ////////////////////////     //
 509:funsape/peripheral/timer1.hpp **** 
 510:funsape/peripheral/timer1.hpp **** void inlined Timer1::activateCompareBInterrupt(void)
 511:funsape/peripheral/timer1.hpp **** {
 512:funsape/peripheral/timer1.hpp ****     setBit(TIMSK1, OCIE1B);
 513:funsape/peripheral/timer1.hpp ****     return;
 514:funsape/peripheral/timer1.hpp **** }
 515:funsape/peripheral/timer1.hpp **** 
 516:funsape/peripheral/timer1.hpp **** void inlined Timer1::clearCompareBInterruptRequest(void)
 517:funsape/peripheral/timer1.hpp **** {
 518:funsape/peripheral/timer1.hpp ****     setBit(TIFR1, OCF1B);
 519:funsape/peripheral/timer1.hpp ****     return;
GAS LISTING C:\Users\kenne\AppData\Local\Temp\ccwOixCa.s 			page 31


 520:funsape/peripheral/timer1.hpp **** }
 521:funsape/peripheral/timer1.hpp **** 
 522:funsape/peripheral/timer1.hpp **** void inlined Timer1::deactivateCompareBInterrupt(void)
 523:funsape/peripheral/timer1.hpp **** {
 524:funsape/peripheral/timer1.hpp ****     clrBit(TIMSK1, OCIE1B);
 525:funsape/peripheral/timer1.hpp ****     return;
 526:funsape/peripheral/timer1.hpp **** }
 527:funsape/peripheral/timer1.hpp **** 
 528:funsape/peripheral/timer1.hpp **** void inlined Timer1::forceCompareB(void)
 529:funsape/peripheral/timer1.hpp **** {
 530:funsape/peripheral/timer1.hpp ****     setBit(TCCR1C, FOC1B);
 531:funsape/peripheral/timer1.hpp ****     return;
 532:funsape/peripheral/timer1.hpp **** }
 533:funsape/peripheral/timer1.hpp **** 
 534:funsape/peripheral/timer1.hpp **** uint16_t inlined Timer1::getCompareBValue(void)
 535:funsape/peripheral/timer1.hpp **** {
 536:funsape/peripheral/timer1.hpp ****     uint16_t aux16 = 0;
 537:funsape/peripheral/timer1.hpp **** 
 538:funsape/peripheral/timer1.hpp ****     ATOMIC_BLOCK(ATOMIC_RESTORESTATE) {
 539:funsape/peripheral/timer1.hpp ****         aux16 = OCR1B;
 540:funsape/peripheral/timer1.hpp ****     }
 541:funsape/peripheral/timer1.hpp ****     return aux16;
 542:funsape/peripheral/timer1.hpp **** }
 543:funsape/peripheral/timer1.hpp **** 
 544:funsape/peripheral/timer1.hpp **** void inlined Timer1::setCompareBValue(cuint16_t value_p)
 545:funsape/peripheral/timer1.hpp **** {
 546:funsape/peripheral/timer1.hpp ****     ATOMIC_BLOCK(ATOMIC_RESTORESTATE) {
 547:funsape/peripheral/timer1.hpp ****         OCR1B = value_p;
 548:funsape/peripheral/timer1.hpp ****     }
 549:funsape/peripheral/timer1.hpp ****     return;
 550:funsape/peripheral/timer1.hpp **** }
 551:funsape/peripheral/timer1.hpp **** 
 552:funsape/peripheral/timer1.hpp **** //     /////////////////////     INPUT CAPTURE     //////////////////////     //
 553:funsape/peripheral/timer1.hpp **** 
 554:funsape/peripheral/timer1.hpp **** inlined void Timer1::activateInputCaptureInterrupt(void)
 555:funsape/peripheral/timer1.hpp **** {
 556:funsape/peripheral/timer1.hpp ****     setBit(TIMSK1, ICIE1);
 557:funsape/peripheral/timer1.hpp ****     return;
 558:funsape/peripheral/timer1.hpp **** }
 559:funsape/peripheral/timer1.hpp **** 
 560:funsape/peripheral/timer1.hpp **** inlined void Timer1::clearInputCaptureInterruptRequest(void)
 561:funsape/peripheral/timer1.hpp **** {
 562:funsape/peripheral/timer1.hpp ****     setBit(TIFR1, ICF1);
 563:funsape/peripheral/timer1.hpp ****     return;
 564:funsape/peripheral/timer1.hpp **** }
 565:funsape/peripheral/timer1.hpp **** 
 566:funsape/peripheral/timer1.hpp **** inlined void Timer1::deactivateInputCaptureInterrupt(void)
 567:funsape/peripheral/timer1.hpp **** {
 568:funsape/peripheral/timer1.hpp ****     clrBit(TIMSK1, ICIE1);
 569:funsape/peripheral/timer1.hpp ****     return;
 570:funsape/peripheral/timer1.hpp **** }
 571:funsape/peripheral/timer1.hpp **** 
 572:funsape/peripheral/timer1.hpp **** inlined uint16_t Timer1::getInputCaptureValue(void)
 573:funsape/peripheral/timer1.hpp **** {
 574:funsape/peripheral/timer1.hpp ****     uint16_t aux16 = 0;
 575:funsape/peripheral/timer1.hpp **** 
 576:funsape/peripheral/timer1.hpp ****     ATOMIC_BLOCK(ATOMIC_RESTORESTATE) {
GAS LISTING C:\Users\kenne\AppData\Local\Temp\ccwOixCa.s 			page 32


 577:funsape/peripheral/timer1.hpp ****         aux16 = ICR1;
 578:funsape/peripheral/timer1.hpp ****     }
 579:funsape/peripheral/timer1.hpp ****     return aux16;
 580:funsape/peripheral/timer1.hpp **** }
 581:funsape/peripheral/timer1.hpp **** 
 582:funsape/peripheral/timer1.hpp **** inlined void Timer1::setInputCaptureValue(cuint16_t value_p)
 583:funsape/peripheral/timer1.hpp **** {
 584:funsape/peripheral/timer1.hpp ****     ATOMIC_BLOCK(ATOMIC_RESTORESTATE) {
 585:funsape/peripheral/timer1.hpp ****         ICR1 = value_p;
 586:funsape/peripheral/timer1.hpp ****     }
 587:funsape/peripheral/timer1.hpp ****     return;
 588:funsape/peripheral/timer1.hpp **** }
 589:funsape/peripheral/timer1.hpp **** 
 590:funsape/peripheral/timer1.hpp **** //     ////////////////////////     OVERFLOW    /////////////////////////     //
 591:funsape/peripheral/timer1.hpp **** 
 592:funsape/peripheral/timer1.hpp **** void inlined Timer1::activateOverflowInterrupt(void)
 593:funsape/peripheral/timer1.hpp **** {
 594:funsape/peripheral/timer1.hpp ****     setBit(TIMSK1, TOIE1);
 595:funsape/peripheral/timer1.hpp ****     return;
 596:funsape/peripheral/timer1.hpp **** }
 597:funsape/peripheral/timer1.hpp **** 
 598:funsape/peripheral/timer1.hpp **** void inlined Timer1::clearOverflowInterruptRequest(void)
 599:funsape/peripheral/timer1.hpp **** {
 600:funsape/peripheral/timer1.hpp ****     setBit(TIFR1, TOV1);
 601:funsape/peripheral/timer1.hpp ****     return;
 602:funsape/peripheral/timer1.hpp **** }
 603:funsape/peripheral/timer1.hpp **** 
 604:funsape/peripheral/timer1.hpp **** void inlined Timer1::deactivateOverflowInterrupt(void)
 605:funsape/peripheral/timer1.hpp **** {
 606:funsape/peripheral/timer1.hpp ****     clrBit(TIMSK1, TOIE1);
 607:funsape/peripheral/timer1.hpp ****     return;
 608:funsape/peripheral/timer1.hpp **** }
 609:funsape/peripheral/timer1.hpp **** 
 610:funsape/peripheral/timer1.hpp **** uint16_t inlined Timer1::getCounterValue(void)
 611:funsape/peripheral/timer1.hpp **** {
 612:funsape/peripheral/timer1.hpp ****     uint16_t aux16 = 0;
 613:funsape/peripheral/timer1.hpp **** 
 614:funsape/peripheral/timer1.hpp ****     ATOMIC_BLOCK(ATOMIC_RESTORESTATE) {
 615:funsape/peripheral/timer1.hpp ****         aux16 = TCNT1;
 616:funsape/peripheral/timer1.hpp ****     }
 617:funsape/peripheral/timer1.hpp ****     return aux16;
 618:funsape/peripheral/timer1.hpp **** }
 619:funsape/peripheral/timer1.hpp **** 
 620:funsape/peripheral/timer1.hpp **** void inlined Timer1::setCounterValue(cuint16_t value_p)
 249               		.loc 3 620 14 view .LVU28
 621:funsape/peripheral/timer1.hpp **** {
 622:funsape/peripheral/timer1.hpp ****     ATOMIC_BLOCK(ATOMIC_RESTORESTATE) {
 250               		.loc 3 622 5 view .LVU29
 251               	.LBB41:
 252 000a 8FB7      		in r24,__SREG__
 253               	.LVL10:
 254               	.LBB42:
 255               	.LBI42:
 256               		.file 4 "d:\\ifsc\\vscodeleandro\\ex\\toolchains\\avr-gcc\\avr\\include\\util\\atomic.h"
   1:d:\ifsc\vscodeleandro\ex\toolchains\avr-gcc\avr\include\util\atomic.h **** /* Copyright (c) 2007 Dean Camera
   2:d:\ifsc\vscodeleandro\ex\toolchains\avr-gcc\avr\include\util\atomic.h ****    All rights reserved.
   3:d:\ifsc\vscodeleandro\ex\toolchains\avr-gcc\avr\include\util\atomic.h **** 
GAS LISTING C:\Users\kenne\AppData\Local\Temp\ccwOixCa.s 			page 33


   4:d:\ifsc\vscodeleandro\ex\toolchains\avr-gcc\avr\include\util\atomic.h ****    Redistribution and use in source and binary forms, with or without
   5:d:\ifsc\vscodeleandro\ex\toolchains\avr-gcc\avr\include\util\atomic.h ****    modification, are permitted provided that the following conditions are met:
   6:d:\ifsc\vscodeleandro\ex\toolchains\avr-gcc\avr\include\util\atomic.h **** 
   7:d:\ifsc\vscodeleandro\ex\toolchains\avr-gcc\avr\include\util\atomic.h ****    * Redistributions of source code must retain the above copyright
   8:d:\ifsc\vscodeleandro\ex\toolchains\avr-gcc\avr\include\util\atomic.h ****      notice, this list of conditions and the following disclaimer.
   9:d:\ifsc\vscodeleandro\ex\toolchains\avr-gcc\avr\include\util\atomic.h **** 
  10:d:\ifsc\vscodeleandro\ex\toolchains\avr-gcc\avr\include\util\atomic.h ****    * Redistributions in binary form must reproduce the above copyright
  11:d:\ifsc\vscodeleandro\ex\toolchains\avr-gcc\avr\include\util\atomic.h ****      notice, this list of conditions and the following disclaimer in
  12:d:\ifsc\vscodeleandro\ex\toolchains\avr-gcc\avr\include\util\atomic.h ****      the documentation and/or other materials provided with the
  13:d:\ifsc\vscodeleandro\ex\toolchains\avr-gcc\avr\include\util\atomic.h ****      distribution.
  14:d:\ifsc\vscodeleandro\ex\toolchains\avr-gcc\avr\include\util\atomic.h **** 
  15:d:\ifsc\vscodeleandro\ex\toolchains\avr-gcc\avr\include\util\atomic.h ****    * Neither the name of the copyright holders nor the names of
  16:d:\ifsc\vscodeleandro\ex\toolchains\avr-gcc\avr\include\util\atomic.h ****      contributors may be used to endorse or promote products derived
  17:d:\ifsc\vscodeleandro\ex\toolchains\avr-gcc\avr\include\util\atomic.h ****      from this software without specific prior written permission.
  18:d:\ifsc\vscodeleandro\ex\toolchains\avr-gcc\avr\include\util\atomic.h **** 
  19:d:\ifsc\vscodeleandro\ex\toolchains\avr-gcc\avr\include\util\atomic.h ****   THIS SOFTWARE IS PROVIDED BY THE COPYRIGHT HOLDERS AND CONTRIBUTORS "AS IS"
  20:d:\ifsc\vscodeleandro\ex\toolchains\avr-gcc\avr\include\util\atomic.h ****   AND ANY EXPRESS OR IMPLIED WARRANTIES, INCLUDING, BUT NOT LIMITED TO, THE
  21:d:\ifsc\vscodeleandro\ex\toolchains\avr-gcc\avr\include\util\atomic.h ****   IMPLIED WARRANTIES OF MERCHANTABILITY AND FITNESS FOR A PARTICULAR PURPOSE
  22:d:\ifsc\vscodeleandro\ex\toolchains\avr-gcc\avr\include\util\atomic.h ****   ARE DISCLAIMED. IN NO EVENT SHALL THE COPYRIGHT OWNER OR CONTRIBUTORS BE
  23:d:\ifsc\vscodeleandro\ex\toolchains\avr-gcc\avr\include\util\atomic.h ****   LIABLE FOR ANY DIRECT, INDIRECT, INCIDENTAL, SPECIAL, EXEMPLARY, OR
  24:d:\ifsc\vscodeleandro\ex\toolchains\avr-gcc\avr\include\util\atomic.h ****   CONSEQUENTIAL DAMAGES (INCLUDING, BUT NOT LIMITED TO, PROCUREMENT OF
  25:d:\ifsc\vscodeleandro\ex\toolchains\avr-gcc\avr\include\util\atomic.h ****   SUBSTITUTE GOODS OR SERVICES; LOSS OF USE, DATA, OR PROFITS; OR BUSINESS
  26:d:\ifsc\vscodeleandro\ex\toolchains\avr-gcc\avr\include\util\atomic.h ****   INTERRUPTION) HOWEVER CAUSED AND ON ANY THEORY OF LIABILITY, WHETHER IN
  27:d:\ifsc\vscodeleandro\ex\toolchains\avr-gcc\avr\include\util\atomic.h ****   CONTRACT, STRICT LIABILITY, OR TORT (INCLUDING NEGLIGENCE OR OTHERWISE)
  28:d:\ifsc\vscodeleandro\ex\toolchains\avr-gcc\avr\include\util\atomic.h ****   ARISING IN ANY WAY OUT OF THE USE OF THIS SOFTWARE, EVEN IF ADVISED OF THE
  29:d:\ifsc\vscodeleandro\ex\toolchains\avr-gcc\avr\include\util\atomic.h ****   POSSIBILITY OF SUCH DAMAGE.
  30:d:\ifsc\vscodeleandro\ex\toolchains\avr-gcc\avr\include\util\atomic.h **** */
  31:d:\ifsc\vscodeleandro\ex\toolchains\avr-gcc\avr\include\util\atomic.h **** 
  32:d:\ifsc\vscodeleandro\ex\toolchains\avr-gcc\avr\include\util\atomic.h **** /* $Id$ */
  33:d:\ifsc\vscodeleandro\ex\toolchains\avr-gcc\avr\include\util\atomic.h **** 
  34:d:\ifsc\vscodeleandro\ex\toolchains\avr-gcc\avr\include\util\atomic.h **** #ifndef _UTIL_ATOMIC_H_
  35:d:\ifsc\vscodeleandro\ex\toolchains\avr-gcc\avr\include\util\atomic.h **** #define _UTIL_ATOMIC_H_ 1
  36:d:\ifsc\vscodeleandro\ex\toolchains\avr-gcc\avr\include\util\atomic.h **** 
  37:d:\ifsc\vscodeleandro\ex\toolchains\avr-gcc\avr\include\util\atomic.h **** #include <avr/io.h>
  38:d:\ifsc\vscodeleandro\ex\toolchains\avr-gcc\avr\include\util\atomic.h **** #include <avr/interrupt.h>
  39:d:\ifsc\vscodeleandro\ex\toolchains\avr-gcc\avr\include\util\atomic.h **** 
  40:d:\ifsc\vscodeleandro\ex\toolchains\avr-gcc\avr\include\util\atomic.h **** #if !defined(__DOXYGEN__)
  41:d:\ifsc\vscodeleandro\ex\toolchains\avr-gcc\avr\include\util\atomic.h **** /* Internal helper functions. */
  42:d:\ifsc\vscodeleandro\ex\toolchains\avr-gcc\avr\include\util\atomic.h **** static __inline__ uint8_t __iSeiRetVal(void)
  43:d:\ifsc\vscodeleandro\ex\toolchains\avr-gcc\avr\include\util\atomic.h **** {
  44:d:\ifsc\vscodeleandro\ex\toolchains\avr-gcc\avr\include\util\atomic.h ****     sei();
  45:d:\ifsc\vscodeleandro\ex\toolchains\avr-gcc\avr\include\util\atomic.h ****     return 1;
  46:d:\ifsc\vscodeleandro\ex\toolchains\avr-gcc\avr\include\util\atomic.h **** }
  47:d:\ifsc\vscodeleandro\ex\toolchains\avr-gcc\avr\include\util\atomic.h **** 
  48:d:\ifsc\vscodeleandro\ex\toolchains\avr-gcc\avr\include\util\atomic.h **** static __inline__ uint8_t __iCliRetVal(void)
 257               		.loc 4 48 27 view .LVU30
 258               	.LBB43:
  49:d:\ifsc\vscodeleandro\ex\toolchains\avr-gcc\avr\include\util\atomic.h **** {
  50:d:\ifsc\vscodeleandro\ex\toolchains\avr-gcc\avr\include\util\atomic.h ****     cli();
 259               		.loc 4 50 5 view .LVU31
 260               	/* #APP */
 261               	 ;  50 "d:\ifsc\vscodeleandro\ex\toolchains\avr-gcc\avr\include\util\atomic.h" 1
 262 000c F894      		cli
 263               	 ;  0 "" 2
  51:d:\ifsc\vscodeleandro\ex\toolchains\avr-gcc\avr\include\util\atomic.h ****     return 1;
 264               		.loc 4 51 5 view .LVU32
 265               	.LVL11:
GAS LISTING C:\Users\kenne\AppData\Local\Temp\ccwOixCa.s 			page 34


 266               		.loc 4 51 5 is_stmt 0 view .LVU33
 267               	/* #NOAPP */
 268               	.LBE43:
 269               	.LBE42:
 270               		.loc 3 622 5 is_stmt 1 view .LVU34
 623:funsape/peripheral/timer1.hpp ****         TCNT1 = value_p;
 271               		.loc 3 623 9 view .LVU35
 272               		.loc 3 623 15 is_stmt 0 view .LVU36
 273 000e 1092 8500 		sts 132+1,__zero_reg__
 274 0012 1092 8400 		sts 132,__zero_reg__
 622:funsape/peripheral/timer1.hpp ****         TCNT1 = value_p;
 275               		.loc 3 622 5 is_stmt 1 view .LVU37
 276               	.LVL12:
 622:funsape/peripheral/timer1.hpp ****         TCNT1 = value_p;
 277               		.loc 3 622 5 view .LVU38
 278               	.LBB44:
 279               	.LBI44:
  52:d:\ifsc\vscodeleandro\ex\toolchains\avr-gcc\avr\include\util\atomic.h **** }
  53:d:\ifsc\vscodeleandro\ex\toolchains\avr-gcc\avr\include\util\atomic.h **** 
  54:d:\ifsc\vscodeleandro\ex\toolchains\avr-gcc\avr\include\util\atomic.h **** static __inline__ void __iSeiParam(const uint8_t *__s)
  55:d:\ifsc\vscodeleandro\ex\toolchains\avr-gcc\avr\include\util\atomic.h **** {
  56:d:\ifsc\vscodeleandro\ex\toolchains\avr-gcc\avr\include\util\atomic.h ****     sei();
  57:d:\ifsc\vscodeleandro\ex\toolchains\avr-gcc\avr\include\util\atomic.h ****     __asm__ volatile ("" ::: "memory");
  58:d:\ifsc\vscodeleandro\ex\toolchains\avr-gcc\avr\include\util\atomic.h ****     (void)__s;
  59:d:\ifsc\vscodeleandro\ex\toolchains\avr-gcc\avr\include\util\atomic.h **** }
  60:d:\ifsc\vscodeleandro\ex\toolchains\avr-gcc\avr\include\util\atomic.h **** 
  61:d:\ifsc\vscodeleandro\ex\toolchains\avr-gcc\avr\include\util\atomic.h **** static __inline__ void __iCliParam(const uint8_t *__s)
  62:d:\ifsc\vscodeleandro\ex\toolchains\avr-gcc\avr\include\util\atomic.h **** {
  63:d:\ifsc\vscodeleandro\ex\toolchains\avr-gcc\avr\include\util\atomic.h ****     cli();
  64:d:\ifsc\vscodeleandro\ex\toolchains\avr-gcc\avr\include\util\atomic.h ****     __asm__ volatile ("" ::: "memory");
  65:d:\ifsc\vscodeleandro\ex\toolchains\avr-gcc\avr\include\util\atomic.h ****     (void)__s;
  66:d:\ifsc\vscodeleandro\ex\toolchains\avr-gcc\avr\include\util\atomic.h **** }
  67:d:\ifsc\vscodeleandro\ex\toolchains\avr-gcc\avr\include\util\atomic.h **** 
  68:d:\ifsc\vscodeleandro\ex\toolchains\avr-gcc\avr\include\util\atomic.h **** static __inline__ void __iRestore(const  uint8_t *__s)
 280               		.loc 4 68 24 view .LVU39
 281               	.LBB45:
  69:d:\ifsc\vscodeleandro\ex\toolchains\avr-gcc\avr\include\util\atomic.h **** {
  70:d:\ifsc\vscodeleandro\ex\toolchains\avr-gcc\avr\include\util\atomic.h ****     SREG = *__s;
 282               		.loc 4 70 5 view .LVU40
 283               		.loc 4 70 10 is_stmt 0 view .LVU41
 284 0016 8FBF      		out __SREG__,r24
  71:d:\ifsc\vscodeleandro\ex\toolchains\avr-gcc\avr\include\util\atomic.h ****     __asm__ volatile ("" ::: "memory");
 285               		.loc 4 71 5 is_stmt 1 view .LVU42
 286               	.LVL13:
 287               		.loc 4 71 5 is_stmt 0 view .LVU43
 288               	.LBE45:
 289               	.LBE44:
 290               	.LBE41:
 624:funsape/peripheral/timer1.hpp ****     }
 625:funsape/peripheral/timer1.hpp ****     return;
 291               		.loc 3 625 5 is_stmt 1 view .LVU44
 292               	/* epilogue start */
 293               		.loc 3 625 5 is_stmt 0 view .LVU45
 294               	.LBE40:
  95:main.cpp      **** 
 295               		.loc 1 95 1 view .LVU46
 296 0018 0895      		ret
GAS LISTING C:\Users\kenne\AppData\Local\Temp\ccwOixCa.s 			page 35


 297               		.cfi_endproc
 298               	.LFE74:
 300               		.section	.text._Z14stopWatchStartv,"ax",@progbits
 301               	.global	_Z14stopWatchStartv
 303               	_Z14stopWatchStartv:
 304               	.LFB75:
  98:main.cpp      ****     //clear all vars
 305               		.loc 1 98 1 is_stmt 1 view -0
 306               		.cfi_startproc
 307               	/* prologue: function */
 308               	/* frame size = 0 */
 309               	/* stack size = 0 */
 310               	.L__stack_usage = 0
 100:main.cpp      ****     timer1.setCounterValue(0);
 311               		.loc 1 100 5 view .LVU48
 100:main.cpp      ****     timer1.setCounterValue(0);
 312               		.loc 1 100 10 is_stmt 0 view .LVU49
 313 0000 1092 0000 		sts nOvf,__zero_reg__
 101:main.cpp      **** 
 314               		.loc 1 101 5 is_stmt 1 view .LVU50
 315               	.LVL14:
 316               	.LBB46:
 317               	.LBI46:
 620:funsape/peripheral/timer1.hpp **** {
 318               		.loc 3 620 14 view .LVU51
 622:funsape/peripheral/timer1.hpp ****         TCNT1 = value_p;
 319               		.loc 3 622 5 view .LVU52
 320               	.LBB47:
 321 0004 8FB7      		in r24,__SREG__
 322               	.LVL15:
 323               	.LBB48:
 324               	.LBI48:
  48:d:\ifsc\vscodeleandro\ex\toolchains\avr-gcc\avr\include\util\atomic.h **** {
 325               		.loc 4 48 27 view .LVU53
 326               	.LBB49:
  50:d:\ifsc\vscodeleandro\ex\toolchains\avr-gcc\avr\include\util\atomic.h ****     return 1;
 327               		.loc 4 50 5 view .LVU54
 328               	/* #APP */
 329               	 ;  50 "d:\ifsc\vscodeleandro\ex\toolchains\avr-gcc\avr\include\util\atomic.h" 1
 330 0006 F894      		cli
 331               	 ;  0 "" 2
  51:d:\ifsc\vscodeleandro\ex\toolchains\avr-gcc\avr\include\util\atomic.h **** }
 332               		.loc 4 51 5 view .LVU55
 333               	.LVL16:
  51:d:\ifsc\vscodeleandro\ex\toolchains\avr-gcc\avr\include\util\atomic.h **** }
 334               		.loc 4 51 5 is_stmt 0 view .LVU56
 335               	/* #NOAPP */
 336               	.LBE49:
 337               	.LBE48:
 622:funsape/peripheral/timer1.hpp ****         TCNT1 = value_p;
 338               		.loc 3 622 5 is_stmt 1 view .LVU57
 623:funsape/peripheral/timer1.hpp ****     }
 339               		.loc 3 623 9 view .LVU58
 623:funsape/peripheral/timer1.hpp ****     }
 340               		.loc 3 623 15 is_stmt 0 view .LVU59
 341 0008 1092 8500 		sts 132+1,__zero_reg__
 342 000c 1092 8400 		sts 132,__zero_reg__
GAS LISTING C:\Users\kenne\AppData\Local\Temp\ccwOixCa.s 			page 36


 622:funsape/peripheral/timer1.hpp ****         TCNT1 = value_p;
 343               		.loc 3 622 5 is_stmt 1 view .LVU60
 344               	.LVL17:
 622:funsape/peripheral/timer1.hpp ****         TCNT1 = value_p;
 345               		.loc 3 622 5 view .LVU61
 346               	.LBB50:
 347               	.LBI50:
  68:d:\ifsc\vscodeleandro\ex\toolchains\avr-gcc\avr\include\util\atomic.h **** {
 348               		.loc 4 68 24 view .LVU62
 349               	.LBB51:
  70:d:\ifsc\vscodeleandro\ex\toolchains\avr-gcc\avr\include\util\atomic.h ****     __asm__ volatile ("" ::: "memory");
 350               		.loc 4 70 5 view .LVU63
  70:d:\ifsc\vscodeleandro\ex\toolchains\avr-gcc\avr\include\util\atomic.h ****     __asm__ volatile ("" ::: "memory");
 351               		.loc 4 70 10 is_stmt 0 view .LVU64
 352 0010 8FBF      		out __SREG__,r24
 353               		.loc 4 71 5 is_stmt 1 view .LVU65
 354               	.LVL18:
 355               		.loc 4 71 5 is_stmt 0 view .LVU66
 356               	.LBE51:
 357               	.LBE50:
 358               	.LBE47:
 359               		.loc 3 625 5 is_stmt 1 view .LVU67
 360               		.loc 3 625 5 is_stmt 0 view .LVU68
 361               	.LBE46:
 104:main.cpp      **** }
 362               		.loc 1 104 5 is_stmt 1 view .LVU69
 104:main.cpp      **** }
 363               		.loc 1 104 26 is_stmt 0 view .LVU70
 364 0012 62E0      		ldi r22,lo8(2)
 365 0014 80E0      		ldi r24,lo8(timer1)
 366 0016 90E0      		ldi r25,hi8(timer1)
 367 0018 0E94 0000 		call _ZN6Timer114setClockSourceENS_11ClockSourceE
 368               	.LVL19:
 369               	/* epilogue start */
 105:main.cpp      **** void stopWatchStop(void)
 370               		.loc 1 105 1 view .LVU71
 371 001c 0895      		ret
 372               		.cfi_endproc
 373               	.LFE75:
 375               		.section	.text._Z13stopWatchStopv,"ax",@progbits
 376               	.global	_Z13stopWatchStopv
 378               	_Z13stopWatchStopv:
 379               	.LFB76:
 107:main.cpp      ****     //timer1 stop
 380               		.loc 1 107 1 is_stmt 1 view -0
 381               		.cfi_startproc
 382               	/* prologue: function */
 383               	/* frame size = 0 */
 384               	/* stack size = 0 */
 385               	.L__stack_usage = 0
 109:main.cpp      **** }
 386               		.loc 1 109 5 view .LVU73
 109:main.cpp      **** }
 387               		.loc 1 109 26 is_stmt 0 view .LVU74
 388 0000 60E0      		ldi r22,0
 389 0002 80E0      		ldi r24,lo8(timer1)
 390 0004 90E0      		ldi r25,hi8(timer1)
GAS LISTING C:\Users\kenne\AppData\Local\Temp\ccwOixCa.s 			page 37


 391 0006 0E94 0000 		call _ZN6Timer114setClockSourceENS_11ClockSourceE
 392               	.LVL20:
 393               	/* epilogue start */
 110:main.cpp      **** 
 394               		.loc 1 110 1 view .LVU75
 395 000a 0895      		ret
 396               		.cfi_endproc
 397               	.LFE76:
 399               		.section	.text._Z16stopWatchGetTimev,"ax",@progbits
 400               	.global	_Z16stopWatchGetTimev
 402               	_Z16stopWatchGetTimev:
 403               	.LFB77:
 113:main.cpp      ****     uint32_t totalTime = 0;
 404               		.loc 1 113 1 is_stmt 1 view -0
 405               		.cfi_startproc
 406 0000 CF93      		push r28
 407               		.cfi_def_cfa_offset 3
 408               		.cfi_offset 28, -2
 409 0002 DF93      		push r29
 410               		.cfi_def_cfa_offset 4
 411               		.cfi_offset 29, -3
 412 0004 00D0      		rcall .
 413 0006 00D0      		rcall .
 414               		.cfi_def_cfa_offset 8
 415 0008 CDB7      		in r28,__SP_L__
 416 000a DEB7      		in r29,__SP_H__
 417               		.cfi_def_cfa_register 28
 418               	/* prologue: function */
 419               	/* frame size = 4 */
 420               	/* stack size = 6 */
 421               	.L__stack_usage = 6
 114:main.cpp      ****     totalTime = (uint32_t)nOvf * (0x0FFFFUL + 1) + (uint32_t)timer1.getCounterValue();
 422               		.loc 1 114 5 view .LVU77
 423               	.LVL21:
 115:main.cpp      **** 
 424               		.loc 1 115 5 view .LVU78
 115:main.cpp      **** 
 425               		.loc 1 115 17 is_stmt 0 view .LVU79
 426 000c 8091 0000 		lds r24,nOvf
 427 0010 90E0      		ldi r25,0
 428 0012 A0E0      		ldi r26,0
 429 0014 B0E0      		ldi r27,0
 115:main.cpp      **** 
 430               		.loc 1 115 32 view .LVU80
 431 0016 DC01      		movw r26,r24
 432 0018 9927      		clr r25
 433 001a 8827      		clr r24
 434               	.LVL22:
 435               	.LBB52:
 436               	.LBI52:
 610:funsape/peripheral/timer1.hpp **** {
 437               		.loc 3 610 18 is_stmt 1 view .LVU81
 438               	.LBB53:
 612:funsape/peripheral/timer1.hpp **** 
 439               		.loc 3 612 5 view .LVU82
 614:funsape/peripheral/timer1.hpp ****         aux16 = TCNT1;
 440               		.loc 3 614 5 view .LVU83
GAS LISTING C:\Users\kenne\AppData\Local\Temp\ccwOixCa.s 			page 38


 441               	.LBB54:
 442 001c 4FB7      		in r20,__SREG__
 443               	.LVL23:
 444               	.LBB55:
 445               	.LBI55:
  48:d:\ifsc\vscodeleandro\ex\toolchains\avr-gcc\avr\include\util\atomic.h **** {
 446               		.loc 4 48 27 view .LVU84
 447               	.LBB56:
  50:d:\ifsc\vscodeleandro\ex\toolchains\avr-gcc\avr\include\util\atomic.h ****     return 1;
 448               		.loc 4 50 5 view .LVU85
 449               	/* #APP */
 450               	 ;  50 "d:\ifsc\vscodeleandro\ex\toolchains\avr-gcc\avr\include\util\atomic.h" 1
 451 001e F894      		cli
 452               	 ;  0 "" 2
  51:d:\ifsc\vscodeleandro\ex\toolchains\avr-gcc\avr\include\util\atomic.h **** }
 453               		.loc 4 51 5 view .LVU86
 454               	.LVL24:
  51:d:\ifsc\vscodeleandro\ex\toolchains\avr-gcc\avr\include\util\atomic.h **** }
 455               		.loc 4 51 5 is_stmt 0 view .LVU87
 456               	/* #NOAPP */
 457               	.LBE56:
 458               	.LBE55:
 614:funsape/peripheral/timer1.hpp ****         aux16 = TCNT1;
 459               		.loc 3 614 5 is_stmt 1 view .LVU88
 615:funsape/peripheral/timer1.hpp ****     }
 460               		.loc 3 615 9 view .LVU89
 615:funsape/peripheral/timer1.hpp ****     }
 461               		.loc 3 615 15 is_stmt 0 view .LVU90
 462 0020 2091 8400 		lds r18,132
 463 0024 3091 8500 		lds r19,132+1
 464               	.LVL25:
 614:funsape/peripheral/timer1.hpp ****         aux16 = TCNT1;
 465               		.loc 3 614 5 is_stmt 1 view .LVU91
 614:funsape/peripheral/timer1.hpp ****         aux16 = TCNT1;
 466               		.loc 3 614 5 view .LVU92
 467               	.LBB57:
 468               	.LBI57:
  68:d:\ifsc\vscodeleandro\ex\toolchains\avr-gcc\avr\include\util\atomic.h **** {
 469               		.loc 4 68 24 view .LVU93
 470               	.LBB58:
  70:d:\ifsc\vscodeleandro\ex\toolchains\avr-gcc\avr\include\util\atomic.h ****     __asm__ volatile ("" ::: "memory");
 471               		.loc 4 70 5 view .LVU94
  70:d:\ifsc\vscodeleandro\ex\toolchains\avr-gcc\avr\include\util\atomic.h ****     __asm__ volatile ("" ::: "memory");
 472               		.loc 4 70 10 is_stmt 0 view .LVU95
 473 0028 4FBF      		out __SREG__,r20
 474               		.loc 4 71 5 is_stmt 1 view .LVU96
 475               	.LVL26:
 476               		.loc 4 71 5 is_stmt 0 view .LVU97
 477               	.LBE58:
 478               	.LBE57:
 479               	.LBE54:
 617:funsape/peripheral/timer1.hpp **** }
 480               		.loc 3 617 5 is_stmt 1 view .LVU98
 617:funsape/peripheral/timer1.hpp **** }
 481               		.loc 3 617 5 is_stmt 0 view .LVU99
 482               	.LBE53:
 483               	.LBE52:
GAS LISTING C:\Users\kenne\AppData\Local\Temp\ccwOixCa.s 			page 39


 115:main.cpp      **** 
 484               		.loc 1 115 15 view .LVU100
 485 002a 820F      		add r24,r18
 486 002c 931F      		adc r25,r19
 487 002e A11D      		adc r26,__zero_reg__
 488 0030 B11D      		adc r27,__zero_reg__
 489               	.LVL27:
 117:main.cpp      **** }
 490               		.loc 1 117 5 is_stmt 1 view .LVU101
 117:main.cpp      **** }
 491               		.loc 1 117 26 is_stmt 0 view .LVU102
 492 0032 9C01      		movw r18,r24
 493 0034 AD01      		movw r20,r26
 494 0036 5695      		lsr r21
 495 0038 4795      		ror r20
 496 003a 3795      		ror r19
 497 003c 2795      		ror r18
 498 003e 2983      		std Y+1,r18
 499 0040 3A83      		std Y+2,r19
 500 0042 4B83      		std Y+3,r20
 501 0044 5C83      		std Y+4,r21
 502               		.loc 1 118 1 view .LVU103
 503 0046 CA01      		movw r24,r20
 504 0048 B901      		movw r22,r18
 505               	/* epilogue start */
 506 004a 0F90      		pop __tmp_reg__
 507 004c 0F90      		pop __tmp_reg__
 508 004e 0F90      		pop __tmp_reg__
 509 0050 0F90      		pop __tmp_reg__
 510 0052 DF91      		pop r29
 511 0054 CF91      		pop r28
 512 0056 0895      		ret
 513               		.cfi_endproc
 514               	.LFE77:
 516               		.section	.rodata.main.str1.1,"aMS",@progbits,1
 517               	.LC2:
 518 0000 5345 4700 		.string	"SEG"
 519               	.LC3:
 520 0004 2025 3032 		.string	" %02d/%02d/20%02d %3s\n"
 520      642F 2530 
 520      3264 2F32 
 520      3025 3032 
 520      6420 2533 
 521               	.LC4:
 522 001b 2020 2020 		.string	"    %02d:%02d:%02d    \n"
 522      2530 3264 
 522      3A25 3032 
 522      643A 2530 
 522      3264 2020 
 523               	.LC5:
 524 0033 4B65 6E6E 		.string	"Kenner"
 524      6572 00
 525               	.LC6:
 526 003a 7469 6D65 		.string	"time=%lu\n %u %u"
 526      3D25 6C75 
 526      0A20 2575 
 526      2025 7500 
GAS LISTING C:\Users\kenne\AppData\Local\Temp\ccwOixCa.s 			page 40


 527               		.section	.text.main,"ax",@progbits
 528               	.global	main
 530               	main:
 531               	.LFB72:
  19:main.cpp      ****     uint16_t dia = 29;
 532               		.loc 1 19 1 is_stmt 1 view -0
 533               		.cfi_startproc
 534               	/* prologue: function */
 535               	/* frame size = 0 */
 536               	/* stack size = 0 */
 537               	.L__stack_usage = 0
  20:main.cpp      ****     uint16_t mes = 4;
 538               		.loc 1 20 5 view .LVU105
  21:main.cpp      ****     uint16_t ano = 23;
 539               		.loc 1 21 5 view .LVU106
  22:main.cpp      ****     uint16_t hora = 10;
 540               		.loc 1 22 5 view .LVU107
  23:main.cpp      ****     uint16_t minuto = 30;
 541               		.loc 1 23 5 view .LVU108
  24:main.cpp      ****     uint16_t segundo = 37;
 542               		.loc 1 24 5 view .LVU109
  25:main.cpp      **** 
 543               		.loc 1 25 5 view .LVU110
  28:main.cpp      ****     UCSR0B = 0;
 544               		.loc 1 28 5 view .LVU111
  28:main.cpp      ****     UCSR0B = 0;
 545               		.loc 1 28 12 is_stmt 0 view .LVU112
 546 0000 1092 C000 		sts 192,__zero_reg__
  29:main.cpp      **** 
 547               		.loc 1 29 5 is_stmt 1 view .LVU113
  29:main.cpp      **** 
 548               		.loc 1 29 12 is_stmt 0 view .LVU114
 549 0004 1092 C100 		sts 193,__zero_reg__
  32:main.cpp      ****     setBit(PORTD, PD2); //Pin as input with pull-up
 550               		.loc 1 32 5 is_stmt 1 view .LVU115
 551 0008 8AB1      		in r24,0xa
 552 000a 8B7F      		andi r24,lo8(-5)
 553 000c 8AB9      		out 0xa,r24
  33:main.cpp      ****     clrMaskOffset(EICRA, 0b11, ISC00); // Clear to configure the sense later
 554               		.loc 1 33 5 view .LVU116
 555 000e 8BB1      		in r24,0xb
 556 0010 8460      		ori r24,lo8(4)
 557 0012 8BB9      		out 0xb,r24
  34:main.cpp      ****     setMaskOffset(EICRA, 2, ISC00); // configure INT0 trigger sense at falling edge
 558               		.loc 1 34 5 view .LVU117
 559 0014 E9E6      		ldi r30,lo8(105)
 560 0016 F0E0      		ldi r31,0
 561 0018 8081      		ld r24,Z
 562 001a 8C7F      		andi r24,lo8(-4)
 563 001c 8083      		st Z,r24
  35:main.cpp      ****     setBit(EIMSK, INT0); // Enable INT0 service routine
 564               		.loc 1 35 5 view .LVU118
 565 001e 8081      		ld r24,Z
 566 0020 8260      		ori r24,lo8(2)
 567 0022 8083      		st Z,r24
  36:main.cpp      **** 
 568               		.loc 1 36 5 view .LVU119
GAS LISTING C:\Users\kenne\AppData\Local\Temp\ccwOixCa.s 			page 41


 569 0024 8DB3      		in r24,0x1d
 570 0026 8160      		ori r24,lo8(1)
 571 0028 8DBB      		out 0x1d,r24
  39:main.cpp      ****     timer1.setClockSource(Timer1::ClockSource::DISABLED);
 572               		.loc 1 39 5 view .LVU120
  39:main.cpp      ****     timer1.setClockSource(Timer1::ClockSource::DISABLED);
 573               		.loc 1 39 19 is_stmt 0 view .LVU121
 574 002a 60E0      		ldi r22,0
 575 002c 80E0      		ldi r24,lo8(timer1)
 576 002e 90E0      		ldi r25,hi8(timer1)
 577 0030 0E94 0000 		call _ZN6Timer17setModeENS_4ModeE
  40:main.cpp      ****     timer1.activateOverflowInterrupt();
 578               		.loc 1 40 5 is_stmt 1 view .LVU122
  40:main.cpp      ****     timer1.activateOverflowInterrupt();
 579               		.loc 1 40 26 is_stmt 0 view .LVU123
 580 0034 60E0      		ldi r22,0
 581 0036 80E0      		ldi r24,lo8(timer1)
 582 0038 90E0      		ldi r25,hi8(timer1)
 583 003a 0E94 0000 		call _ZN6Timer114setClockSourceENS_11ClockSourceE
  41:main.cpp      **** 
 584               		.loc 1 41 5 is_stmt 1 view .LVU124
 585               	.LBB59:
 586               	.LBI59:
 592:funsape/peripheral/timer1.hpp **** {
 587               		.loc 3 592 14 view .LVU125
 588               	.LBB60:
 594:funsape/peripheral/timer1.hpp ****     return;
 589               		.loc 3 594 5 view .LVU126
 590 003e EFE6      		ldi r30,lo8(111)
 591 0040 F0E0      		ldi r31,0
 592 0042 8081      		ld r24,Z
 593 0044 8160      		ori r24,lo8(1)
 594 0046 8083      		st Z,r24
 595:funsape/peripheral/timer1.hpp **** }
 595               		.loc 3 595 5 view .LVU127
 596               	.LBE60:
 597               	.LBE59:
  44:main.cpp      ****     lcd.dataPortSet(&DDRB, PB0);
 598               		.loc 1 44 5 view .LVU128
  44:main.cpp      ****     lcd.dataPortSet(&DDRB, PB0);
 599               		.loc 1 44 23 is_stmt 0 view .LVU129
 600 0048 00E0      		ldi r16,0
 601 004a 25E0      		ldi r18,lo8(5)
 602 004c 44E0      		ldi r20,lo8(4)
 603 004e 64E2      		ldi r22,lo8(36)
 604 0050 70E0      		ldi r23,0
 605 0052 80E0      		ldi r24,lo8(lcd)
 606 0054 90E0      		ldi r25,hi8(lcd)
 607 0056 0E94 0000 		call _ZN7Hd4478014controlPortSetEPVhhhh
  45:main.cpp      ****     lcd.init(Hd44780::Size::LCD_16X2, Hd44780::Font::FONT_5X8, true, false);
 608               		.loc 1 45 5 is_stmt 1 view .LVU130
  45:main.cpp      ****     lcd.init(Hd44780::Size::LCD_16X2, Hd44780::Font::FONT_5X8, true, false);
 609               		.loc 1 45 20 is_stmt 0 view .LVU131
 610 005a 40E0      		ldi r20,0
 611 005c 64E2      		ldi r22,lo8(36)
 612 005e 70E0      		ldi r23,0
 613 0060 80E0      		ldi r24,lo8(lcd)
GAS LISTING C:\Users\kenne\AppData\Local\Temp\ccwOixCa.s 			page 42


 614 0062 90E0      		ldi r25,hi8(lcd)
 615 0064 0E94 0000 		call _ZN7Hd4478011dataPortSetEPVhh
  46:main.cpp      ****     lcd.stdio();
 616               		.loc 1 46 5 is_stmt 1 view .LVU132
  46:main.cpp      ****     lcd.stdio();
 617               		.loc 1 46 13 is_stmt 0 view .LVU133
 618 0068 21E0      		ldi r18,lo8(1)
 619 006a 40E0      		ldi r20,0
 620 006c 6CE6      		ldi r22,lo8(108)
 621 006e 80E0      		ldi r24,lo8(lcd)
 622 0070 90E0      		ldi r25,hi8(lcd)
 623 0072 0E94 0000 		call _ZN7Hd447804initENS_4SizeENS_4FontEbb
  47:main.cpp      **** 
 624               		.loc 1 47 5 is_stmt 1 view .LVU134
  47:main.cpp      **** 
 625               		.loc 1 47 14 is_stmt 0 view .LVU135
 626 0076 80E0      		ldi r24,lo8(lcd)
 627 0078 90E0      		ldi r25,hi8(lcd)
 628 007a 0E94 0000 		call _ZN7Hd447805stdioEv
  50:main.cpp      ****     printf("    %02d:%02d:%02d    \n", hora, minuto, segundo);
 629               		.loc 1 50 5 is_stmt 1 view .LVU136
  50:main.cpp      ****     printf("    %02d:%02d:%02d    \n", hora, minuto, segundo);
 630               		.loc 1 50 11 is_stmt 0 view .LVU137
 631 007e 80E0      		ldi r24,lo8(.LC2)
 632 0080 90E0      		ldi r25,hi8(.LC2)
 633 0082 9F93      		push r25
 634               		.cfi_def_cfa_offset 3
 635 0084 8F93      		push r24
 636               		.cfi_def_cfa_offset 4
 637 0086 1F92      		push __zero_reg__
 638               		.cfi_def_cfa_offset 5
 639 0088 87E1      		ldi r24,lo8(23)
 640 008a 8F93      		push r24
 641               		.cfi_def_cfa_offset 6
 642 008c 1F92      		push __zero_reg__
 643               		.cfi_def_cfa_offset 7
 644 008e 84E0      		ldi r24,lo8(4)
 645 0090 8F93      		push r24
 646               		.cfi_def_cfa_offset 8
 647 0092 1F92      		push __zero_reg__
 648               		.cfi_def_cfa_offset 9
 649 0094 8DE1      		ldi r24,lo8(29)
 650 0096 8F93      		push r24
 651               		.cfi_def_cfa_offset 10
 652 0098 80E0      		ldi r24,lo8(.LC3)
 653 009a 90E0      		ldi r25,hi8(.LC3)
 654 009c 9F93      		push r25
 655               		.cfi_def_cfa_offset 11
 656 009e 8F93      		push r24
 657               		.cfi_def_cfa_offset 12
 658 00a0 0E94 0000 		call printf
  51:main.cpp      ****     delayMs(2000);
 659               		.loc 1 51 5 is_stmt 1 view .LVU138
  51:main.cpp      ****     delayMs(2000);
 660               		.loc 1 51 11 is_stmt 0 view .LVU139
 661 00a4 1F92      		push __zero_reg__
 662               		.cfi_def_cfa_offset 13
GAS LISTING C:\Users\kenne\AppData\Local\Temp\ccwOixCa.s 			page 43


 663 00a6 85E2      		ldi r24,lo8(37)
 664 00a8 8F93      		push r24
 665               		.cfi_def_cfa_offset 14
 666 00aa 1F92      		push __zero_reg__
 667               		.cfi_def_cfa_offset 15
 668 00ac 8EE1      		ldi r24,lo8(30)
 669 00ae 8F93      		push r24
 670               		.cfi_def_cfa_offset 16
 671 00b0 1F92      		push __zero_reg__
 672               		.cfi_def_cfa_offset 17
 673 00b2 8AE0      		ldi r24,lo8(10)
 674 00b4 8F93      		push r24
 675               		.cfi_def_cfa_offset 18
 676 00b6 80E0      		ldi r24,lo8(.LC4)
 677 00b8 90E0      		ldi r25,hi8(.LC4)
 678 00ba 9F93      		push r25
 679               		.cfi_def_cfa_offset 19
 680 00bc 8F93      		push r24
 681               		.cfi_def_cfa_offset 20
 682 00be 0E94 0000 		call printf
  52:main.cpp      **** 
 683               		.loc 1 52 5 is_stmt 1 view .LVU140
 684               	.LBB61:
 685               	.LBI61:
 686               		.file 5 "d:\\ifsc\\vscodeleandro\\ex\\toolchains\\avr-gcc\\avr\\include\\util\\delay.h"
   1:d:\ifsc\vscodeleandro\ex\toolchains\avr-gcc\avr\include\util\delay.h **** /* Copyright (c) 2002, Marek Michalkiewicz
   2:d:\ifsc\vscodeleandro\ex\toolchains\avr-gcc\avr\include\util\delay.h ****    Copyright (c) 2004,2005,2007 Joerg Wunsch
   3:d:\ifsc\vscodeleandro\ex\toolchains\avr-gcc\avr\include\util\delay.h ****    Copyright (c) 2007  Florin-Viorel Petrov
   4:d:\ifsc\vscodeleandro\ex\toolchains\avr-gcc\avr\include\util\delay.h ****    All rights reserved.
   5:d:\ifsc\vscodeleandro\ex\toolchains\avr-gcc\avr\include\util\delay.h **** 
   6:d:\ifsc\vscodeleandro\ex\toolchains\avr-gcc\avr\include\util\delay.h ****    Redistribution and use in source and binary forms, with or without
   7:d:\ifsc\vscodeleandro\ex\toolchains\avr-gcc\avr\include\util\delay.h ****    modification, are permitted provided that the following conditions are met:
   8:d:\ifsc\vscodeleandro\ex\toolchains\avr-gcc\avr\include\util\delay.h **** 
   9:d:\ifsc\vscodeleandro\ex\toolchains\avr-gcc\avr\include\util\delay.h ****    * Redistributions of source code must retain the above copyright
  10:d:\ifsc\vscodeleandro\ex\toolchains\avr-gcc\avr\include\util\delay.h ****      notice, this list of conditions and the following disclaimer.
  11:d:\ifsc\vscodeleandro\ex\toolchains\avr-gcc\avr\include\util\delay.h **** 
  12:d:\ifsc\vscodeleandro\ex\toolchains\avr-gcc\avr\include\util\delay.h ****    * Redistributions in binary form must reproduce the above copyright
  13:d:\ifsc\vscodeleandro\ex\toolchains\avr-gcc\avr\include\util\delay.h ****      notice, this list of conditions and the following disclaimer in
  14:d:\ifsc\vscodeleandro\ex\toolchains\avr-gcc\avr\include\util\delay.h ****      the documentation and/or other materials provided with the
  15:d:\ifsc\vscodeleandro\ex\toolchains\avr-gcc\avr\include\util\delay.h ****      distribution.
  16:d:\ifsc\vscodeleandro\ex\toolchains\avr-gcc\avr\include\util\delay.h **** 
  17:d:\ifsc\vscodeleandro\ex\toolchains\avr-gcc\avr\include\util\delay.h ****    * Neither the name of the copyright holders nor the names of
  18:d:\ifsc\vscodeleandro\ex\toolchains\avr-gcc\avr\include\util\delay.h ****      contributors may be used to endorse or promote products derived
  19:d:\ifsc\vscodeleandro\ex\toolchains\avr-gcc\avr\include\util\delay.h ****      from this software without specific prior written permission.
  20:d:\ifsc\vscodeleandro\ex\toolchains\avr-gcc\avr\include\util\delay.h **** 
  21:d:\ifsc\vscodeleandro\ex\toolchains\avr-gcc\avr\include\util\delay.h ****   THIS SOFTWARE IS PROVIDED BY THE COPYRIGHT HOLDERS AND CONTRIBUTORS "AS IS"
  22:d:\ifsc\vscodeleandro\ex\toolchains\avr-gcc\avr\include\util\delay.h ****   AND ANY EXPRESS OR IMPLIED WARRANTIES, INCLUDING, BUT NOT LIMITED TO, THE
  23:d:\ifsc\vscodeleandro\ex\toolchains\avr-gcc\avr\include\util\delay.h ****   IMPLIED WARRANTIES OF MERCHANTABILITY AND FITNESS FOR A PARTICULAR PURPOSE
  24:d:\ifsc\vscodeleandro\ex\toolchains\avr-gcc\avr\include\util\delay.h ****   ARE DISCLAIMED. IN NO EVENT SHALL THE COPYRIGHT OWNER OR CONTRIBUTORS BE
  25:d:\ifsc\vscodeleandro\ex\toolchains\avr-gcc\avr\include\util\delay.h ****   LIABLE FOR ANY DIRECT, INDIRECT, INCIDENTAL, SPECIAL, EXEMPLARY, OR
  26:d:\ifsc\vscodeleandro\ex\toolchains\avr-gcc\avr\include\util\delay.h ****   CONSEQUENTIAL DAMAGES (INCLUDING, BUT NOT LIMITED TO, PROCUREMENT OF
  27:d:\ifsc\vscodeleandro\ex\toolchains\avr-gcc\avr\include\util\delay.h ****   SUBSTITUTE GOODS OR SERVICES; LOSS OF USE, DATA, OR PROFITS; OR BUSINESS
  28:d:\ifsc\vscodeleandro\ex\toolchains\avr-gcc\avr\include\util\delay.h ****   INTERRUPTION) HOWEVER CAUSED AND ON ANY THEORY OF LIABILITY, WHETHER IN
  29:d:\ifsc\vscodeleandro\ex\toolchains\avr-gcc\avr\include\util\delay.h ****   CONTRACT, STRICT LIABILITY, OR TORT (INCLUDING NEGLIGENCE OR OTHERWISE)
  30:d:\ifsc\vscodeleandro\ex\toolchains\avr-gcc\avr\include\util\delay.h ****   ARISING IN ANY WAY OUT OF THE USE OF THIS SOFTWARE, EVEN IF ADVISED OF THE
  31:d:\ifsc\vscodeleandro\ex\toolchains\avr-gcc\avr\include\util\delay.h ****   POSSIBILITY OF SUCH DAMAGE. */
  32:d:\ifsc\vscodeleandro\ex\toolchains\avr-gcc\avr\include\util\delay.h **** 
GAS LISTING C:\Users\kenne\AppData\Local\Temp\ccwOixCa.s 			page 44


  33:d:\ifsc\vscodeleandro\ex\toolchains\avr-gcc\avr\include\util\delay.h **** /* $Id$ */
  34:d:\ifsc\vscodeleandro\ex\toolchains\avr-gcc\avr\include\util\delay.h **** 
  35:d:\ifsc\vscodeleandro\ex\toolchains\avr-gcc\avr\include\util\delay.h **** #ifndef _UTIL_DELAY_H_
  36:d:\ifsc\vscodeleandro\ex\toolchains\avr-gcc\avr\include\util\delay.h **** #define _UTIL_DELAY_H_ 1
  37:d:\ifsc\vscodeleandro\ex\toolchains\avr-gcc\avr\include\util\delay.h **** 
  38:d:\ifsc\vscodeleandro\ex\toolchains\avr-gcc\avr\include\util\delay.h **** #ifndef __DOXYGEN__
  39:d:\ifsc\vscodeleandro\ex\toolchains\avr-gcc\avr\include\util\delay.h **** #  ifndef __HAS_DELAY_CYCLES
  40:d:\ifsc\vscodeleandro\ex\toolchains\avr-gcc\avr\include\util\delay.h **** #    define __HAS_DELAY_CYCLES 1
  41:d:\ifsc\vscodeleandro\ex\toolchains\avr-gcc\avr\include\util\delay.h **** #  endif
  42:d:\ifsc\vscodeleandro\ex\toolchains\avr-gcc\avr\include\util\delay.h **** #endif  /* __DOXYGEN__ */
  43:d:\ifsc\vscodeleandro\ex\toolchains\avr-gcc\avr\include\util\delay.h **** 
  44:d:\ifsc\vscodeleandro\ex\toolchains\avr-gcc\avr\include\util\delay.h **** #include <inttypes.h>
  45:d:\ifsc\vscodeleandro\ex\toolchains\avr-gcc\avr\include\util\delay.h **** #include <util/delay_basic.h>
  46:d:\ifsc\vscodeleandro\ex\toolchains\avr-gcc\avr\include\util\delay.h **** #include <math.h>
  47:d:\ifsc\vscodeleandro\ex\toolchains\avr-gcc\avr\include\util\delay.h **** 
  48:d:\ifsc\vscodeleandro\ex\toolchains\avr-gcc\avr\include\util\delay.h **** /** \file */
  49:d:\ifsc\vscodeleandro\ex\toolchains\avr-gcc\avr\include\util\delay.h **** /** \defgroup util_delay <util/delay.h>: Convenience functions for busy-wait delay loops
  50:d:\ifsc\vscodeleandro\ex\toolchains\avr-gcc\avr\include\util\delay.h ****     \code
  51:d:\ifsc\vscodeleandro\ex\toolchains\avr-gcc\avr\include\util\delay.h ****     #define F_CPU 1000000UL  // 1 MHz
  52:d:\ifsc\vscodeleandro\ex\toolchains\avr-gcc\avr\include\util\delay.h ****     //#define F_CPU 14.7456E6
  53:d:\ifsc\vscodeleandro\ex\toolchains\avr-gcc\avr\include\util\delay.h ****     #include <util/delay.h>
  54:d:\ifsc\vscodeleandro\ex\toolchains\avr-gcc\avr\include\util\delay.h ****     \endcode
  55:d:\ifsc\vscodeleandro\ex\toolchains\avr-gcc\avr\include\util\delay.h **** 
  56:d:\ifsc\vscodeleandro\ex\toolchains\avr-gcc\avr\include\util\delay.h ****     \note As an alternative method, it is possible to pass the
  57:d:\ifsc\vscodeleandro\ex\toolchains\avr-gcc\avr\include\util\delay.h ****     F_CPU macro down to the compiler from the Makefile.
  58:d:\ifsc\vscodeleandro\ex\toolchains\avr-gcc\avr\include\util\delay.h ****     Obviously, in that case, no \c \#define statement should be
  59:d:\ifsc\vscodeleandro\ex\toolchains\avr-gcc\avr\include\util\delay.h ****     used.
  60:d:\ifsc\vscodeleandro\ex\toolchains\avr-gcc\avr\include\util\delay.h **** 
  61:d:\ifsc\vscodeleandro\ex\toolchains\avr-gcc\avr\include\util\delay.h ****     The functions in this header file are wrappers around the basic
  62:d:\ifsc\vscodeleandro\ex\toolchains\avr-gcc\avr\include\util\delay.h ****     busy-wait functions from <util/delay_basic.h>.  They are meant as
  63:d:\ifsc\vscodeleandro\ex\toolchains\avr-gcc\avr\include\util\delay.h ****     convenience functions where actual time values can be specified
  64:d:\ifsc\vscodeleandro\ex\toolchains\avr-gcc\avr\include\util\delay.h ****     rather than a number of cycles to wait for.  The idea behind is
  65:d:\ifsc\vscodeleandro\ex\toolchains\avr-gcc\avr\include\util\delay.h ****     that compile-time constant expressions will be eliminated by
  66:d:\ifsc\vscodeleandro\ex\toolchains\avr-gcc\avr\include\util\delay.h ****     compiler optimization so floating-point expressions can be used
  67:d:\ifsc\vscodeleandro\ex\toolchains\avr-gcc\avr\include\util\delay.h ****     to calculate the number of delay cycles needed based on the CPU
  68:d:\ifsc\vscodeleandro\ex\toolchains\avr-gcc\avr\include\util\delay.h ****     frequency passed by the macro F_CPU.
  69:d:\ifsc\vscodeleandro\ex\toolchains\avr-gcc\avr\include\util\delay.h **** 
  70:d:\ifsc\vscodeleandro\ex\toolchains\avr-gcc\avr\include\util\delay.h ****     \note In order for these functions to work as intended, compiler
  71:d:\ifsc\vscodeleandro\ex\toolchains\avr-gcc\avr\include\util\delay.h ****     optimizations <em>must</em> be enabled, and the delay time
  72:d:\ifsc\vscodeleandro\ex\toolchains\avr-gcc\avr\include\util\delay.h ****     <em>must</em> be an expression that is a known constant at
  73:d:\ifsc\vscodeleandro\ex\toolchains\avr-gcc\avr\include\util\delay.h ****     compile-time.  If these requirements are not met, the resulting
  74:d:\ifsc\vscodeleandro\ex\toolchains\avr-gcc\avr\include\util\delay.h ****     delay will be much longer (and basically unpredictable), and
  75:d:\ifsc\vscodeleandro\ex\toolchains\avr-gcc\avr\include\util\delay.h ****     applications that otherwise do not use floating-point calculations
  76:d:\ifsc\vscodeleandro\ex\toolchains\avr-gcc\avr\include\util\delay.h ****     will experience severe code bloat by the floating-point library
  77:d:\ifsc\vscodeleandro\ex\toolchains\avr-gcc\avr\include\util\delay.h ****     routines linked into the application.
  78:d:\ifsc\vscodeleandro\ex\toolchains\avr-gcc\avr\include\util\delay.h **** 
  79:d:\ifsc\vscodeleandro\ex\toolchains\avr-gcc\avr\include\util\delay.h ****     The functions available allow the specification of microsecond, and
  80:d:\ifsc\vscodeleandro\ex\toolchains\avr-gcc\avr\include\util\delay.h ****     millisecond delays directly, using the application-supplied macro
  81:d:\ifsc\vscodeleandro\ex\toolchains\avr-gcc\avr\include\util\delay.h ****     F_CPU as the CPU clock frequency (in Hertz).
  82:d:\ifsc\vscodeleandro\ex\toolchains\avr-gcc\avr\include\util\delay.h **** 
  83:d:\ifsc\vscodeleandro\ex\toolchains\avr-gcc\avr\include\util\delay.h **** */
  84:d:\ifsc\vscodeleandro\ex\toolchains\avr-gcc\avr\include\util\delay.h **** 
  85:d:\ifsc\vscodeleandro\ex\toolchains\avr-gcc\avr\include\util\delay.h **** #if !defined(__DOXYGEN__)
  86:d:\ifsc\vscodeleandro\ex\toolchains\avr-gcc\avr\include\util\delay.h **** static __inline__ void _delay_us(double __us) __attribute__((__always_inline__));
  87:d:\ifsc\vscodeleandro\ex\toolchains\avr-gcc\avr\include\util\delay.h **** static __inline__ void _delay_ms(double __ms) __attribute__((__always_inline__));
  88:d:\ifsc\vscodeleandro\ex\toolchains\avr-gcc\avr\include\util\delay.h **** #endif
  89:d:\ifsc\vscodeleandro\ex\toolchains\avr-gcc\avr\include\util\delay.h **** 
GAS LISTING C:\Users\kenne\AppData\Local\Temp\ccwOixCa.s 			page 45


  90:d:\ifsc\vscodeleandro\ex\toolchains\avr-gcc\avr\include\util\delay.h **** #ifndef F_CPU
  91:d:\ifsc\vscodeleandro\ex\toolchains\avr-gcc\avr\include\util\delay.h **** /* prevent compiler error by supplying a default */
  92:d:\ifsc\vscodeleandro\ex\toolchains\avr-gcc\avr\include\util\delay.h **** # warning "F_CPU not defined for <util/delay.h>"
  93:d:\ifsc\vscodeleandro\ex\toolchains\avr-gcc\avr\include\util\delay.h **** /** \ingroup util_delay
  94:d:\ifsc\vscodeleandro\ex\toolchains\avr-gcc\avr\include\util\delay.h ****     \def F_CPU
  95:d:\ifsc\vscodeleandro\ex\toolchains\avr-gcc\avr\include\util\delay.h ****     \brief CPU frequency in Hz
  96:d:\ifsc\vscodeleandro\ex\toolchains\avr-gcc\avr\include\util\delay.h **** 
  97:d:\ifsc\vscodeleandro\ex\toolchains\avr-gcc\avr\include\util\delay.h ****     The macro F_CPU specifies the CPU frequency to be considered by
  98:d:\ifsc\vscodeleandro\ex\toolchains\avr-gcc\avr\include\util\delay.h ****     the delay macros.  This macro is normally supplied by the
  99:d:\ifsc\vscodeleandro\ex\toolchains\avr-gcc\avr\include\util\delay.h ****     environment (e.g. from within a project header, or the project's
 100:d:\ifsc\vscodeleandro\ex\toolchains\avr-gcc\avr\include\util\delay.h ****     Makefile).  The value 1 MHz here is only provided as a "vanilla"
 101:d:\ifsc\vscodeleandro\ex\toolchains\avr-gcc\avr\include\util\delay.h ****     fallback if no such user-provided definition could be found.
 102:d:\ifsc\vscodeleandro\ex\toolchains\avr-gcc\avr\include\util\delay.h **** 
 103:d:\ifsc\vscodeleandro\ex\toolchains\avr-gcc\avr\include\util\delay.h ****     In terms of the delay functions, the CPU frequency can be given as
 104:d:\ifsc\vscodeleandro\ex\toolchains\avr-gcc\avr\include\util\delay.h ****     a floating-point constant (e.g. 3.6864E6 for 3.6864 MHz).
 105:d:\ifsc\vscodeleandro\ex\toolchains\avr-gcc\avr\include\util\delay.h ****     However, the macros in <util/setbaud.h> require it to be an
 106:d:\ifsc\vscodeleandro\ex\toolchains\avr-gcc\avr\include\util\delay.h ****     integer value.
 107:d:\ifsc\vscodeleandro\ex\toolchains\avr-gcc\avr\include\util\delay.h ****  */
 108:d:\ifsc\vscodeleandro\ex\toolchains\avr-gcc\avr\include\util\delay.h **** # define F_CPU 1000000UL
 109:d:\ifsc\vscodeleandro\ex\toolchains\avr-gcc\avr\include\util\delay.h **** #endif
 110:d:\ifsc\vscodeleandro\ex\toolchains\avr-gcc\avr\include\util\delay.h **** 
 111:d:\ifsc\vscodeleandro\ex\toolchains\avr-gcc\avr\include\util\delay.h **** #ifndef __OPTIMIZE__
 112:d:\ifsc\vscodeleandro\ex\toolchains\avr-gcc\avr\include\util\delay.h **** # warning "Compiler optimizations disabled; functions from <util/delay.h> won't work as designed"
 113:d:\ifsc\vscodeleandro\ex\toolchains\avr-gcc\avr\include\util\delay.h **** #endif
 114:d:\ifsc\vscodeleandro\ex\toolchains\avr-gcc\avr\include\util\delay.h **** 
 115:d:\ifsc\vscodeleandro\ex\toolchains\avr-gcc\avr\include\util\delay.h **** #if __HAS_DELAY_CYCLES && defined(__OPTIMIZE__) && \
 116:d:\ifsc\vscodeleandro\ex\toolchains\avr-gcc\avr\include\util\delay.h ****   !defined(__DELAY_BACKWARD_COMPATIBLE__) &&	   \
 117:d:\ifsc\vscodeleandro\ex\toolchains\avr-gcc\avr\include\util\delay.h ****   __STDC_HOSTED__
 118:d:\ifsc\vscodeleandro\ex\toolchains\avr-gcc\avr\include\util\delay.h **** #  include <math.h>
 119:d:\ifsc\vscodeleandro\ex\toolchains\avr-gcc\avr\include\util\delay.h **** #endif
 120:d:\ifsc\vscodeleandro\ex\toolchains\avr-gcc\avr\include\util\delay.h **** 
 121:d:\ifsc\vscodeleandro\ex\toolchains\avr-gcc\avr\include\util\delay.h **** /**
 122:d:\ifsc\vscodeleandro\ex\toolchains\avr-gcc\avr\include\util\delay.h ****    \ingroup util_delay
 123:d:\ifsc\vscodeleandro\ex\toolchains\avr-gcc\avr\include\util\delay.h **** 
 124:d:\ifsc\vscodeleandro\ex\toolchains\avr-gcc\avr\include\util\delay.h ****    Perform a delay of \c __ms milliseconds, using _delay_loop_2().
 125:d:\ifsc\vscodeleandro\ex\toolchains\avr-gcc\avr\include\util\delay.h **** 
 126:d:\ifsc\vscodeleandro\ex\toolchains\avr-gcc\avr\include\util\delay.h ****    The macro F_CPU is supposed to be defined to a
 127:d:\ifsc\vscodeleandro\ex\toolchains\avr-gcc\avr\include\util\delay.h ****    constant defining the CPU clock frequency (in Hertz).
 128:d:\ifsc\vscodeleandro\ex\toolchains\avr-gcc\avr\include\util\delay.h **** 
 129:d:\ifsc\vscodeleandro\ex\toolchains\avr-gcc\avr\include\util\delay.h ****    The maximal possible delay is 262.14 ms / F_CPU in MHz.
 130:d:\ifsc\vscodeleandro\ex\toolchains\avr-gcc\avr\include\util\delay.h **** 
 131:d:\ifsc\vscodeleandro\ex\toolchains\avr-gcc\avr\include\util\delay.h ****    When the user request delay which exceed the maximum possible one,
 132:d:\ifsc\vscodeleandro\ex\toolchains\avr-gcc\avr\include\util\delay.h ****    _delay_ms() provides a decreased resolution functionality. In this
 133:d:\ifsc\vscodeleandro\ex\toolchains\avr-gcc\avr\include\util\delay.h ****    mode _delay_ms() will work with a resolution of 1/10 ms, providing
 134:d:\ifsc\vscodeleandro\ex\toolchains\avr-gcc\avr\include\util\delay.h ****    delays up to 6.5535 seconds (independent from CPU frequency).  The
 135:d:\ifsc\vscodeleandro\ex\toolchains\avr-gcc\avr\include\util\delay.h ****    user will not be informed about decreased resolution.
 136:d:\ifsc\vscodeleandro\ex\toolchains\avr-gcc\avr\include\util\delay.h **** 
 137:d:\ifsc\vscodeleandro\ex\toolchains\avr-gcc\avr\include\util\delay.h ****    If the avr-gcc toolchain has __builtin_avr_delay_cycles()
 138:d:\ifsc\vscodeleandro\ex\toolchains\avr-gcc\avr\include\util\delay.h ****    support, maximal possible delay is 4294967.295 ms/ F_CPU in MHz. For
 139:d:\ifsc\vscodeleandro\ex\toolchains\avr-gcc\avr\include\util\delay.h ****    values greater than the maximal possible delay, overflows results in
 140:d:\ifsc\vscodeleandro\ex\toolchains\avr-gcc\avr\include\util\delay.h ****    no delay i.e., 0ms.
 141:d:\ifsc\vscodeleandro\ex\toolchains\avr-gcc\avr\include\util\delay.h **** 
 142:d:\ifsc\vscodeleandro\ex\toolchains\avr-gcc\avr\include\util\delay.h ****    Conversion of \c __ms into clock cycles may not always result in
 143:d:\ifsc\vscodeleandro\ex\toolchains\avr-gcc\avr\include\util\delay.h ****    integer.  By default, the clock cycles rounded up to next
 144:d:\ifsc\vscodeleandro\ex\toolchains\avr-gcc\avr\include\util\delay.h ****    integer. This ensures that the user gets at least \c __ms
 145:d:\ifsc\vscodeleandro\ex\toolchains\avr-gcc\avr\include\util\delay.h ****    microseconds of delay.
 146:d:\ifsc\vscodeleandro\ex\toolchains\avr-gcc\avr\include\util\delay.h **** 
GAS LISTING C:\Users\kenne\AppData\Local\Temp\ccwOixCa.s 			page 46


 147:d:\ifsc\vscodeleandro\ex\toolchains\avr-gcc\avr\include\util\delay.h ****    Alternatively, by defining the macro \c __DELAY_ROUND_DOWN__, or
 148:d:\ifsc\vscodeleandro\ex\toolchains\avr-gcc\avr\include\util\delay.h ****    \c __DELAY_ROUND_CLOSEST__, before including this header file, the
 149:d:\ifsc\vscodeleandro\ex\toolchains\avr-gcc\avr\include\util\delay.h ****    algorithm can be made to round down, or round to closest integer,
 150:d:\ifsc\vscodeleandro\ex\toolchains\avr-gcc\avr\include\util\delay.h ****    respectively.
 151:d:\ifsc\vscodeleandro\ex\toolchains\avr-gcc\avr\include\util\delay.h **** 
 152:d:\ifsc\vscodeleandro\ex\toolchains\avr-gcc\avr\include\util\delay.h ****    \note
 153:d:\ifsc\vscodeleandro\ex\toolchains\avr-gcc\avr\include\util\delay.h **** 
 154:d:\ifsc\vscodeleandro\ex\toolchains\avr-gcc\avr\include\util\delay.h ****    The implementation of _delay_ms() based on
 155:d:\ifsc\vscodeleandro\ex\toolchains\avr-gcc\avr\include\util\delay.h ****    __builtin_avr_delay_cycles() is not backward compatible with older
 156:d:\ifsc\vscodeleandro\ex\toolchains\avr-gcc\avr\include\util\delay.h ****    implementations.  In order to get functionality backward compatible
 157:d:\ifsc\vscodeleandro\ex\toolchains\avr-gcc\avr\include\util\delay.h ****    with previous versions, the macro \c "__DELAY_BACKWARD_COMPATIBLE__"
 158:d:\ifsc\vscodeleandro\ex\toolchains\avr-gcc\avr\include\util\delay.h ****    must be defined before including this header file. Also, the
 159:d:\ifsc\vscodeleandro\ex\toolchains\avr-gcc\avr\include\util\delay.h ****    backward compatible algorithm will be chosen if the code is
 160:d:\ifsc\vscodeleandro\ex\toolchains\avr-gcc\avr\include\util\delay.h ****    compiled in a <em>freestanding environment</em> (GCC option
 161:d:\ifsc\vscodeleandro\ex\toolchains\avr-gcc\avr\include\util\delay.h ****    \c -ffreestanding), as the math functions required for rounding are
 162:d:\ifsc\vscodeleandro\ex\toolchains\avr-gcc\avr\include\util\delay.h ****    not available to the compiler then.
 163:d:\ifsc\vscodeleandro\ex\toolchains\avr-gcc\avr\include\util\delay.h **** 
 164:d:\ifsc\vscodeleandro\ex\toolchains\avr-gcc\avr\include\util\delay.h ****  */
 165:d:\ifsc\vscodeleandro\ex\toolchains\avr-gcc\avr\include\util\delay.h **** void
 166:d:\ifsc\vscodeleandro\ex\toolchains\avr-gcc\avr\include\util\delay.h **** _delay_ms(double __ms)
 687               		.loc 5 166 1 view .LVU141
 688               	.LBB62:
 167:d:\ifsc\vscodeleandro\ex\toolchains\avr-gcc\avr\include\util\delay.h **** {
 168:d:\ifsc\vscodeleandro\ex\toolchains\avr-gcc\avr\include\util\delay.h **** 	double __tmp ;
 689               		.loc 5 168 2 view .LVU142
 169:d:\ifsc\vscodeleandro\ex\toolchains\avr-gcc\avr\include\util\delay.h **** #if __HAS_DELAY_CYCLES && defined(__OPTIMIZE__) && \
 170:d:\ifsc\vscodeleandro\ex\toolchains\avr-gcc\avr\include\util\delay.h ****   !defined(__DELAY_BACKWARD_COMPATIBLE__) &&	   \
 171:d:\ifsc\vscodeleandro\ex\toolchains\avr-gcc\avr\include\util\delay.h ****   __STDC_HOSTED__
 172:d:\ifsc\vscodeleandro\ex\toolchains\avr-gcc\avr\include\util\delay.h **** 	uint32_t __ticks_dc;
 690               		.loc 5 172 2 view .LVU143
 173:d:\ifsc\vscodeleandro\ex\toolchains\avr-gcc\avr\include\util\delay.h **** 	extern void __builtin_avr_delay_cycles(unsigned long);
 691               		.loc 5 173 2 view .LVU144
 174:d:\ifsc\vscodeleandro\ex\toolchains\avr-gcc\avr\include\util\delay.h **** 	__tmp = ((F_CPU) / 1e3) * __ms;
 692               		.loc 5 174 2 view .LVU145
 175:d:\ifsc\vscodeleandro\ex\toolchains\avr-gcc\avr\include\util\delay.h **** 
 176:d:\ifsc\vscodeleandro\ex\toolchains\avr-gcc\avr\include\util\delay.h **** 	#if defined(__DELAY_ROUND_DOWN__)
 177:d:\ifsc\vscodeleandro\ex\toolchains\avr-gcc\avr\include\util\delay.h **** 		__ticks_dc = (uint32_t)fabs(__tmp);
 178:d:\ifsc\vscodeleandro\ex\toolchains\avr-gcc\avr\include\util\delay.h **** 
 179:d:\ifsc\vscodeleandro\ex\toolchains\avr-gcc\avr\include\util\delay.h **** 	#elif defined(__DELAY_ROUND_CLOSEST__)
 180:d:\ifsc\vscodeleandro\ex\toolchains\avr-gcc\avr\include\util\delay.h **** 		__ticks_dc = (uint32_t)(fabs(__tmp)+0.5);
 181:d:\ifsc\vscodeleandro\ex\toolchains\avr-gcc\avr\include\util\delay.h **** 
 182:d:\ifsc\vscodeleandro\ex\toolchains\avr-gcc\avr\include\util\delay.h **** 	#else
 183:d:\ifsc\vscodeleandro\ex\toolchains\avr-gcc\avr\include\util\delay.h **** 		//round up by default
 184:d:\ifsc\vscodeleandro\ex\toolchains\avr-gcc\avr\include\util\delay.h **** 		__ticks_dc = (uint32_t)(ceil(fabs(__tmp)));
 693               		.loc 5 184 3 view .LVU146
 185:d:\ifsc\vscodeleandro\ex\toolchains\avr-gcc\avr\include\util\delay.h **** 	#endif
 186:d:\ifsc\vscodeleandro\ex\toolchains\avr-gcc\avr\include\util\delay.h **** 
 187:d:\ifsc\vscodeleandro\ex\toolchains\avr-gcc\avr\include\util\delay.h **** 	__builtin_avr_delay_cycles(__ticks_dc);
 694               		.loc 5 187 2 view .LVU147
 695               		.loc 5 187 28 is_stmt 0 view .LVU148
 696 00c2 2FEF      		ldi r18,lo8(6399999)
 697 00c4 87EA      		ldi r24,hi8(6399999)
 698 00c6 91E6      		ldi r25,hlo8(6399999)
 699 00c8 2150      	1:	subi r18,1
 700 00ca 8040      		sbci r24,0
 701 00cc 9040      		sbci r25,0
 702 00ce 01F4      		brne 1b
GAS LISTING C:\Users\kenne\AppData\Local\Temp\ccwOixCa.s 			page 47


 703 00d0 00C0      		rjmp .
 704 00d2 0000      		nop
 705               	.LBE62:
 706               	.LBE61:
  54:main.cpp      ****     printf("Kenner");
 707               		.loc 1 54 5 is_stmt 1 view .LVU149
  54:main.cpp      ****     printf("Kenner");
 708               		.loc 1 54 20 is_stmt 0 view .LVU150
 709 00d4 80E0      		ldi r24,lo8(lcd)
 710 00d6 90E0      		ldi r25,hi8(lcd)
 711 00d8 0E94 0000 		call _ZN7Hd4478011clearScreenEv
  55:main.cpp      **** 
 712               		.loc 1 55 5 is_stmt 1 view .LVU151
  55:main.cpp      **** 
 713               		.loc 1 55 11 is_stmt 0 view .LVU152
 714 00dc 80E0      		ldi r24,lo8(.LC5)
 715 00de 90E0      		ldi r25,hi8(.LC5)
 716 00e0 9F93      		push r25
 717               		.cfi_def_cfa_offset 21
 718 00e2 8F93      		push r24
 719               		.cfi_def_cfa_offset 22
 720 00e4 0E94 0000 		call printf
  57:main.cpp      **** 
 721               		.loc 1 57 5 is_stmt 1 view .LVU153
 722 00e8 84B1      		in r24,0x4
 723 00ea 8062      		ori r24,lo8(32)
 724 00ec 84B9      		out 0x4,r24
  59:main.cpp      **** 
 725               		.loc 1 59 5 view .LVU154
 726               	/* #APP */
 727               	 ;  59 "main.cpp" 1
 728 00ee 7894      		sei
 729               	 ;  0 "" 2
 730               	/* #NOAPP */
 731 00f0 8DB7      		in r24,__SP_L__
 732 00f2 9EB7      		in r25,__SP_H__
 733 00f4 4496      		adiw r24,20
 734 00f6 0FB6      		in __tmp_reg__,__SREG__
 735 00f8 F894      		cli
 736 00fa 9EBF      		out __SP_H__,r25
 737 00fc 0FBE      		out __SREG__,__tmp_reg__
 738 00fe 8DBF      		out __SP_L__,r24
 739               		.cfi_def_cfa_offset 2
 740               	.L13:
  61:main.cpp      ****         stopWatchStart();
 741               		.loc 1 61 5 discriminator 1 view .LVU155
  62:main.cpp      ****         delayMs(1000);
 742               		.loc 1 62 9 discriminator 1 view .LVU156
  62:main.cpp      ****         delayMs(1000);
 743               		.loc 1 62 23 is_stmt 0 discriminator 1 view .LVU157
 744 0100 0E94 0000 		call _Z14stopWatchStartv
  63:main.cpp      ****         // lcd.clearScreen();
 745               		.loc 1 63 9 is_stmt 1 discriminator 1 view .LVU158
 746               	.LBB63:
 747               	.LBI63:
 166:d:\ifsc\vscodeleandro\ex\toolchains\avr-gcc\avr\include\util\delay.h **** {
 748               		.loc 5 166 1 discriminator 1 view .LVU159
GAS LISTING C:\Users\kenne\AppData\Local\Temp\ccwOixCa.s 			page 48


 749               	.LBB64:
 168:d:\ifsc\vscodeleandro\ex\toolchains\avr-gcc\avr\include\util\delay.h **** #if __HAS_DELAY_CYCLES && defined(__OPTIMIZE__) && \
 750               		.loc 5 168 2 discriminator 1 view .LVU160
 172:d:\ifsc\vscodeleandro\ex\toolchains\avr-gcc\avr\include\util\delay.h **** 	extern void __builtin_avr_delay_cycles(unsigned long);
 751               		.loc 5 172 2 discriminator 1 view .LVU161
 173:d:\ifsc\vscodeleandro\ex\toolchains\avr-gcc\avr\include\util\delay.h **** 	__tmp = ((F_CPU) / 1e3) * __ms;
 752               		.loc 5 173 2 discriminator 1 view .LVU162
 174:d:\ifsc\vscodeleandro\ex\toolchains\avr-gcc\avr\include\util\delay.h **** 
 753               		.loc 5 174 2 discriminator 1 view .LVU163
 184:d:\ifsc\vscodeleandro\ex\toolchains\avr-gcc\avr\include\util\delay.h **** 	#endif
 754               		.loc 5 184 3 discriminator 1 view .LVU164
 755               		.loc 5 187 2 discriminator 1 view .LVU165
 756               		.loc 5 187 28 is_stmt 0 discriminator 1 view .LVU166
 757 0104 9FEF      		ldi r25,lo8(3199999)
 758 0106 23ED      		ldi r18,hi8(3199999)
 759 0108 80E3      		ldi r24,hlo8(3199999)
 760 010a 9150      	1:	subi r25,1
 761 010c 2040      		sbci r18,0
 762 010e 8040      		sbci r24,0
 763 0110 01F4      		brne 1b
 764 0112 00C0      		rjmp .
 765 0114 0000      		nop
 766               	.LBE64:
 767               	.LBE63:
  69:main.cpp      **** 
 768               		.loc 1 69 9 is_stmt 1 discriminator 1 view .LVU167
  69:main.cpp      **** 
 769               		.loc 1 69 22 is_stmt 0 discriminator 1 view .LVU168
 770 0116 0E94 0000 		call _Z13stopWatchStopv
  71:main.cpp      ****         printf("time=%lu\n %u %u", stopWatchGetTime(), nOvf, TCNT1);
 771               		.loc 1 71 9 is_stmt 1 discriminator 1 view .LVU169
  71:main.cpp      ****         printf("time=%lu\n %u %u", stopWatchGetTime(), nOvf, TCNT1);
 772               		.loc 1 71 24 is_stmt 0 discriminator 1 view .LVU170
 773 011a 80E0      		ldi r24,lo8(lcd)
 774 011c 90E0      		ldi r25,hi8(lcd)
 775 011e 0E94 0000 		call _ZN7Hd4478011clearScreenEv
  72:main.cpp      ****         delayMs(1000);
 776               		.loc 1 72 9 is_stmt 1 discriminator 1 view .LVU171
  72:main.cpp      ****         delayMs(1000);
 777               		.loc 1 72 15 is_stmt 0 discriminator 1 view .LVU172
 778 0122 C091 8400 		lds r28,132
 779 0126 D091 8500 		lds r29,132+1
 780 012a 1091 0000 		lds r17,nOvf
 781 012e 0E94 0000 		call _Z16stopWatchGetTimev
 782 0132 DF93      		push r29
 783               		.cfi_def_cfa_offset 3
 784 0134 CF93      		push r28
 785               		.cfi_def_cfa_offset 4
 786 0136 1F92      		push __zero_reg__
 787               		.cfi_def_cfa_offset 5
 788 0138 1F93      		push r17
 789               		.cfi_def_cfa_offset 6
 790 013a 9F93      		push r25
 791               		.cfi_def_cfa_offset 7
 792 013c 8F93      		push r24
 793               		.cfi_def_cfa_offset 8
 794 013e 7F93      		push r23
GAS LISTING C:\Users\kenne\AppData\Local\Temp\ccwOixCa.s 			page 49


 795               		.cfi_def_cfa_offset 9
 796 0140 6F93      		push r22
 797               		.cfi_def_cfa_offset 10
 798 0142 80E0      		ldi r24,lo8(.LC6)
 799 0144 90E0      		ldi r25,hi8(.LC6)
 800 0146 9F93      		push r25
 801               		.cfi_def_cfa_offset 11
 802 0148 8F93      		push r24
 803               		.cfi_def_cfa_offset 12
 804 014a 0E94 0000 		call printf
  73:main.cpp      ****     }
 805               		.loc 1 73 9 is_stmt 1 discriminator 1 view .LVU173
 806               	.LBB65:
 807               	.LBI65:
 166:d:\ifsc\vscodeleandro\ex\toolchains\avr-gcc\avr\include\util\delay.h **** {
 808               		.loc 5 166 1 discriminator 1 view .LVU174
 809               	.LBB66:
 168:d:\ifsc\vscodeleandro\ex\toolchains\avr-gcc\avr\include\util\delay.h **** #if __HAS_DELAY_CYCLES && defined(__OPTIMIZE__) && \
 810               		.loc 5 168 2 discriminator 1 view .LVU175
 172:d:\ifsc\vscodeleandro\ex\toolchains\avr-gcc\avr\include\util\delay.h **** 	extern void __builtin_avr_delay_cycles(unsigned long);
 811               		.loc 5 172 2 discriminator 1 view .LVU176
 173:d:\ifsc\vscodeleandro\ex\toolchains\avr-gcc\avr\include\util\delay.h **** 	__tmp = ((F_CPU) / 1e3) * __ms;
 812               		.loc 5 173 2 discriminator 1 view .LVU177
 174:d:\ifsc\vscodeleandro\ex\toolchains\avr-gcc\avr\include\util\delay.h **** 
 813               		.loc 5 174 2 discriminator 1 view .LVU178
 184:d:\ifsc\vscodeleandro\ex\toolchains\avr-gcc\avr\include\util\delay.h **** 	#endif
 814               		.loc 5 184 3 discriminator 1 view .LVU179
 815               		.loc 5 187 2 discriminator 1 view .LVU180
 816               		.loc 5 187 28 is_stmt 0 discriminator 1 view .LVU181
 817 014e 8FEF      		ldi r24,lo8(3199999)
 818 0150 93ED      		ldi r25,hi8(3199999)
 819 0152 20E3      		ldi r18,hlo8(3199999)
 820 0154 8150      	1:	subi r24,1
 821 0156 9040      		sbci r25,0
 822 0158 2040      		sbci r18,0
 823 015a 01F4      		brne 1b
 824 015c 00C0      		rjmp .
 825 015e 0000      		nop
 826 0160 8DB7      		in r24,__SP_L__
 827 0162 9EB7      		in r25,__SP_H__
 828 0164 0A96      		adiw r24,10
 829 0166 0FB6      		in __tmp_reg__,__SREG__
 830 0168 F894      		cli
 831 016a 9EBF      		out __SP_H__,r25
 832 016c 0FBE      		out __SREG__,__tmp_reg__
 833 016e 8DBF      		out __SP_L__,r24
 834               		.cfi_def_cfa_offset 2
 835 0170 00C0      		rjmp .L13
 836               	.LBE66:
 837               	.LBE65:
 838               		.cfi_endproc
 839               	.LFE72:
 841               		.section	.text._GLOBAL__sub_I_lcd,"ax",@progbits
 843               	_GLOBAL__sub_I_lcd:
 844               	.LFB79:
 845               		.loc 1 118 1 is_stmt 1 view -0
 846               		.cfi_startproc
GAS LISTING C:\Users\kenne\AppData\Local\Temp\ccwOixCa.s 			page 50


 847               	/* prologue: function */
 848               	/* frame size = 0 */
 849               	/* stack size = 0 */
 850               	.L__stack_usage = 0
 851               		.loc 1 118 1 is_stmt 0 view .LVU183
 852 0000 6FEF      		ldi r22,lo8(-1)
 853 0002 7FEF      		ldi r23,lo8(-1)
 854 0004 81E0      		ldi r24,lo8(1)
 855 0006 90E0      		ldi r25,0
 856 0008 0E94 0000 		call _Z41__static_initialization_and_destruction_0ii
 857               	.LVL28:
 858               	/* epilogue start */
 859 000c 0895      		ret
 860               		.cfi_endproc
 861               	.LFE79:
 863               		.global __do_global_ctors
 864               		.section .ctors,"a",@progbits
 865               		.p2align	1
 866 0000 0000      		.word	gs(_GLOBAL__sub_I_lcd)
 867               		.section	.text._GLOBAL__sub_D_lcd,"ax",@progbits
 869               	_GLOBAL__sub_D_lcd:
 870               	.LFB80:
 871               		.loc 1 118 1 is_stmt 1 view -0
 872               		.cfi_startproc
 873               	/* prologue: function */
 874               	/* frame size = 0 */
 875               	/* stack size = 0 */
 876               	.L__stack_usage = 0
 877               		.loc 1 118 1 is_stmt 0 view .LVU185
 878 0000 6FEF      		ldi r22,lo8(-1)
 879 0002 7FEF      		ldi r23,lo8(-1)
 880 0004 80E0      		ldi r24,0
 881 0006 90E0      		ldi r25,0
 882 0008 0E94 0000 		call _Z41__static_initialization_and_destruction_0ii
 883               	.LVL29:
 884               	/* epilogue start */
 885 000c 0895      		ret
 886               		.cfi_endproc
 887               	.LFE80:
 889               		.global __do_global_dtors
 890               		.section .dtors,"a",@progbits
 891               		.p2align	1
 892 0000 0000      		.word	gs(_GLOBAL__sub_D_lcd)
 893               	.global	nOvf
 894               		.section	.bss.nOvf,"aw",@nobits
 897               	nOvf:
 898 0000 00        		.zero	1
 899               	.global	num
 900               		.section	.bss.num,"aw",@nobits
 903               	num:
 904 0000 00        		.zero	1
 905               	.global	lcd
 906               		.section	.bss.lcd,"aw",@nobits
 909               	lcd:
 910 0000 0000 0000 		.zero	18
 910      0000 0000 
 910      0000 0000 
GAS LISTING C:\Users\kenne\AppData\Local\Temp\ccwOixCa.s 			page 51


 910      0000 0000 
 910      0000 
 911               		.text
 912               	.Letext0:
 913               		.file 6 "d:\\ifsc\\vscodeleandro\\ex\\toolchains\\avr-gcc\\avr\\include\\stdint.h"
 914               		.file 7 "funsape/device/hd44780.hpp"
 915               		.file 8 "d:\\ifsc\\vscodeleandro\\ex\\toolchains\\avr-gcc\\avr\\include\\math.h"
 916               		.file 9 "d:\\ifsc\\vscodeleandro\\ex\\toolchains\\avr-gcc\\avr\\include\\stdio.h"
GAS LISTING C:\Users\kenne\AppData\Local\Temp\ccwOixCa.s 			page 52

