GAS LISTING C:\Users\kenne\AppData\Local\Temp\ccmiL9m5.s 			page 1


   1               		.file	"adc.cpp"
   2               	__SP_H__ = 0x3e
   3               	__SP_L__ = 0x3d
   4               	__SREG__ = 0x3f
   5               	__tmp_reg__ = 0
   6               	__zero_reg__ = 1
   7               		.text
   8               	.Ltext0:
   9               		.cfi_sections	.debug_frame
  10               		.file 0 "C:\\D\\IFSC\\MCC\\Exemplos de aula\\Keypad" "funsape/peripheral/adc.cpp"
  11               		.section	.text._Z7getTickv,"ax",@progbits
  12               		.weak	_Z7getTickv
  14               	_Z7getTickv:
  15               	.LFB32:
  16               		.file 1 "funsape/peripheral/../globalDefines.hpp"
   1:funsape/peripheral/../globalDefines.hpp **** //!
   2:funsape/peripheral/../globalDefines.hpp **** //! \file           globalDefines.hpp
   3:funsape/peripheral/../globalDefines.hpp **** //! \brief          Global definitions file
   4:funsape/peripheral/../globalDefines.hpp **** //! \author         Leandro Schwarz (bladabuska+funsapeavr8lib@gmail.com)
   5:funsape/peripheral/../globalDefines.hpp **** //! \date           2023-04-05
   6:funsape/peripheral/../globalDefines.hpp **** //! \version        23.04
   7:funsape/peripheral/../globalDefines.hpp **** //! \copyright      license
   8:funsape/peripheral/../globalDefines.hpp **** //! \details        Global definitions file.
   9:funsape/peripheral/../globalDefines.hpp **** //! \todo           Todo list
  10:funsape/peripheral/../globalDefines.hpp **** //!
  11:funsape/peripheral/../globalDefines.hpp **** 
  12:funsape/peripheral/../globalDefines.hpp **** // =============================================================================
  13:funsape/peripheral/../globalDefines.hpp **** // Include guard (START)
  14:funsape/peripheral/../globalDefines.hpp **** // =============================================================================
  15:funsape/peripheral/../globalDefines.hpp **** 
  16:funsape/peripheral/../globalDefines.hpp **** #ifndef __GLOBAL_DEFINES_HPP
  17:funsape/peripheral/../globalDefines.hpp **** #define __GLOBAL_DEFINES_HPP                    2304
  18:funsape/peripheral/../globalDefines.hpp **** 
  19:funsape/peripheral/../globalDefines.hpp **** // =============================================================================
  20:funsape/peripheral/../globalDefines.hpp **** // Basic definitions
  21:funsape/peripheral/../globalDefines.hpp **** // =============================================================================
  22:funsape/peripheral/../globalDefines.hpp **** 
  23:funsape/peripheral/../globalDefines.hpp **** #ifndef F_CPU
  24:funsape/peripheral/../globalDefines.hpp **** #   define F_CPU    16000000UL
  25:funsape/peripheral/../globalDefines.hpp **** #endif
  26:funsape/peripheral/../globalDefines.hpp **** 
  27:funsape/peripheral/../globalDefines.hpp **** // =============================================================================
  28:funsape/peripheral/../globalDefines.hpp **** // Dependencies
  29:funsape/peripheral/../globalDefines.hpp **** // =============================================================================
  30:funsape/peripheral/../globalDefines.hpp **** 
  31:funsape/peripheral/../globalDefines.hpp **** //     //////////////////     AVR STANDARD LIBRARY     //////////////////     //
  32:funsape/peripheral/../globalDefines.hpp **** #include <avr/io.h>
  33:funsape/peripheral/../globalDefines.hpp **** #include <avr/interrupt.h>
  34:funsape/peripheral/../globalDefines.hpp **** #include <util/delay.h>
  35:funsape/peripheral/../globalDefines.hpp **** #include <util/atomic.h>
  36:funsape/peripheral/../globalDefines.hpp **** 
  37:funsape/peripheral/../globalDefines.hpp **** //     ///////////////////     STANDARD C LIBRARY     ///////////////////     //
  38:funsape/peripheral/../globalDefines.hpp **** #include <stddef.h>
  39:funsape/peripheral/../globalDefines.hpp **** #include <stdint.h>
  40:funsape/peripheral/../globalDefines.hpp **** #include <stdio.h>
  41:funsape/peripheral/../globalDefines.hpp **** #include <stdlib.h>
  42:funsape/peripheral/../globalDefines.hpp **** #include <string.h>
GAS LISTING C:\Users\kenne\AppData\Local\Temp\ccmiL9m5.s 			page 2


  43:funsape/peripheral/../globalDefines.hpp **** 
  44:funsape/peripheral/../globalDefines.hpp **** //     //////////////////     LIBRARY DEPENDENCIES     //////////////////     //
  45:funsape/peripheral/../globalDefines.hpp **** #include "pinout.hpp"
  46:funsape/peripheral/../globalDefines.hpp **** #if !defined(__PINOUT_HPP)
  47:funsape/peripheral/../globalDefines.hpp **** #   error "Header file (pinout.hpp) is corrupted!"
  48:funsape/peripheral/../globalDefines.hpp **** #elif __PINOUT_HPP != __GLOBAL_DEFINES_HPP
  49:funsape/peripheral/../globalDefines.hpp **** #   error "Version mismatch between header file and library dependency (pinout.hpp)!"
  50:funsape/peripheral/../globalDefines.hpp **** #endif
  51:funsape/peripheral/../globalDefines.hpp **** 
  52:funsape/peripheral/../globalDefines.hpp **** // =============================================================================
  53:funsape/peripheral/../globalDefines.hpp **** // Undefining previous definitions
  54:funsape/peripheral/../globalDefines.hpp **** // =============================================================================
  55:funsape/peripheral/../globalDefines.hpp **** 
  56:funsape/peripheral/../globalDefines.hpp **** // NONE
  57:funsape/peripheral/../globalDefines.hpp **** 
  58:funsape/peripheral/../globalDefines.hpp **** // =============================================================================
  59:funsape/peripheral/../globalDefines.hpp **** // Constant definitions
  60:funsape/peripheral/../globalDefines.hpp **** // =============================================================================
  61:funsape/peripheral/../globalDefines.hpp **** 
  62:funsape/peripheral/../globalDefines.hpp **** #define inlined                         inline __attribute__((always_inline))
  63:funsape/peripheral/../globalDefines.hpp **** #define weakened                        __attribute__((weak))
  64:funsape/peripheral/../globalDefines.hpp **** 
  65:funsape/peripheral/../globalDefines.hpp **** // =============================================================================
  66:funsape/peripheral/../globalDefines.hpp **** // New data types
  67:funsape/peripheral/../globalDefines.hpp **** // =============================================================================
  68:funsape/peripheral/../globalDefines.hpp **** 
  69:funsape/peripheral/../globalDefines.hpp **** //     ////////////////////     BASIC VARIABLES     /////////////////////     //
  70:funsape/peripheral/../globalDefines.hpp **** typedef bool                            bool_t;
  71:funsape/peripheral/../globalDefines.hpp **** typedef char                            char_t;
  72:funsape/peripheral/../globalDefines.hpp **** 
  73:funsape/peripheral/../globalDefines.hpp **** //     ///////////////////     CONSTANT VARIABLES    ////////////////////     //
  74:funsape/peripheral/../globalDefines.hpp **** typedef const bool_t                    cbool_t;
  75:funsape/peripheral/../globalDefines.hpp **** typedef const char_t                    cchar_t;
  76:funsape/peripheral/../globalDefines.hpp **** typedef const int8_t                    cint8_t;
  77:funsape/peripheral/../globalDefines.hpp **** typedef const int16_t                   cint16_t;
  78:funsape/peripheral/../globalDefines.hpp **** typedef const int32_t                   cint32_t;
  79:funsape/peripheral/../globalDefines.hpp **** typedef const int64_t                   cint64_t;
  80:funsape/peripheral/../globalDefines.hpp **** typedef const uint8_t                   cuint8_t;
  81:funsape/peripheral/../globalDefines.hpp **** typedef const uint16_t                  cuint16_t;
  82:funsape/peripheral/../globalDefines.hpp **** typedef const uint32_t                  cuint32_t;
  83:funsape/peripheral/../globalDefines.hpp **** typedef const uint64_t                  cuint64_t;
  84:funsape/peripheral/../globalDefines.hpp **** 
  85:funsape/peripheral/../globalDefines.hpp **** //     ///////////////////     VOLATILE VARIABLES    ////////////////////     //
  86:funsape/peripheral/../globalDefines.hpp **** typedef volatile bool_t                 vbool_t;
  87:funsape/peripheral/../globalDefines.hpp **** typedef volatile char_t                 vchar_t;
  88:funsape/peripheral/../globalDefines.hpp **** typedef volatile int8_t                 vint8_t;
  89:funsape/peripheral/../globalDefines.hpp **** typedef volatile int16_t                vint16_t;
  90:funsape/peripheral/../globalDefines.hpp **** typedef volatile int32_t                vint32_t;
  91:funsape/peripheral/../globalDefines.hpp **** typedef volatile int64_t                vint64_t;
  92:funsape/peripheral/../globalDefines.hpp **** typedef volatile uint8_t                vuint8_t;
  93:funsape/peripheral/../globalDefines.hpp **** typedef volatile uint16_t               vuint16_t;
  94:funsape/peripheral/../globalDefines.hpp **** typedef volatile uint32_t               vuint32_t;
  95:funsape/peripheral/../globalDefines.hpp **** typedef volatile uint64_t               vuint64_t;
  96:funsape/peripheral/../globalDefines.hpp **** 
  97:funsape/peripheral/../globalDefines.hpp **** //     /////////////////     AVR PLATFORM VARIABLES    //////////////////     //
  98:funsape/peripheral/../globalDefines.hpp **** typedef int16_t                         int_t;          // 16-bit (AVR)
  99:funsape/peripheral/../globalDefines.hpp **** typedef uint16_t                        uint_t;         // 16-bit (AVR)
GAS LISTING C:\Users\kenne\AppData\Local\Temp\ccmiL9m5.s 			page 3


 100:funsape/peripheral/../globalDefines.hpp **** typedef cint16_t                        cint_t;         // 16-bit (AVR)
 101:funsape/peripheral/../globalDefines.hpp **** typedef cuint16_t                       cuint_t;        // 16-bit (AVR)
 102:funsape/peripheral/../globalDefines.hpp **** typedef vint16_t                        vint_t;         // 16-bit (AVR)
 103:funsape/peripheral/../globalDefines.hpp **** typedef vuint16_t                       vuint_t;        // 16-bit (AVR)
 104:funsape/peripheral/../globalDefines.hpp **** typedef uint8_t                         ioPinIndex_t;   // 8-bit (AVR)
 105:funsape/peripheral/../globalDefines.hpp **** typedef vuint8_t                       *ioRegAddress_t; // 8-bit address (AVR)
 106:funsape/peripheral/../globalDefines.hpp **** 
 107:funsape/peripheral/../globalDefines.hpp **** //     //////////////////     BINARY ENUMERATIONS     ///////////////////     //
 108:funsape/peripheral/../globalDefines.hpp **** enum class Activation : cbool_t {
 109:funsape/peripheral/../globalDefines.hpp ****     OFF                                 = false,
 110:funsape/peripheral/../globalDefines.hpp ****     ON                                  = true
 111:funsape/peripheral/../globalDefines.hpp **** };
 112:funsape/peripheral/../globalDefines.hpp **** 
 113:funsape/peripheral/../globalDefines.hpp **** enum class DisplayOrientation : cbool_t {
 114:funsape/peripheral/../globalDefines.hpp ****     LANDSCAPE                           = false,
 115:funsape/peripheral/../globalDefines.hpp ****     PORTRAIT                            = true
 116:funsape/peripheral/../globalDefines.hpp **** };
 117:funsape/peripheral/../globalDefines.hpp **** 
 118:funsape/peripheral/../globalDefines.hpp **** enum class DriverMode : cbool_t {
 119:funsape/peripheral/../globalDefines.hpp ****     PUSH_PULL                           = false,
 120:funsape/peripheral/../globalDefines.hpp ****     OPEN_DRAIN                          = true,
 121:funsape/peripheral/../globalDefines.hpp **** };
 122:funsape/peripheral/../globalDefines.hpp **** 
 123:funsape/peripheral/../globalDefines.hpp **** enum class Edge : cbool_t {
 124:funsape/peripheral/../globalDefines.hpp ****     FALLING                             = false,
 125:funsape/peripheral/../globalDefines.hpp ****     RISING                              = true
 126:funsape/peripheral/../globalDefines.hpp **** };
 127:funsape/peripheral/../globalDefines.hpp **** 
 128:funsape/peripheral/../globalDefines.hpp **** enum class IoOperation : cbool_t {
 129:funsape/peripheral/../globalDefines.hpp ****     WRITE                               = false,
 130:funsape/peripheral/../globalDefines.hpp ****     READ                                = true
 131:funsape/peripheral/../globalDefines.hpp **** };
 132:funsape/peripheral/../globalDefines.hpp **** 
 133:funsape/peripheral/../globalDefines.hpp **** enum class LogicLevel : cbool_t {
 134:funsape/peripheral/../globalDefines.hpp ****     LOW                                 = false,
 135:funsape/peripheral/../globalDefines.hpp ****     HIGH                                = true
 136:funsape/peripheral/../globalDefines.hpp **** };
 137:funsape/peripheral/../globalDefines.hpp **** 
 138:funsape/peripheral/../globalDefines.hpp **** enum class PinDirection : cbool_t {
 139:funsape/peripheral/../globalDefines.hpp ****     INPUT                               = false,
 140:funsape/peripheral/../globalDefines.hpp ****     OUTPUT                              = true,
 141:funsape/peripheral/../globalDefines.hpp **** };
 142:funsape/peripheral/../globalDefines.hpp **** 
 143:funsape/peripheral/../globalDefines.hpp **** enum class Rotation : cbool_t {
 144:funsape/peripheral/../globalDefines.hpp ****     CLOCKWISE                           = false,
 145:funsape/peripheral/../globalDefines.hpp ****     COUNTERCLOCKWISE                    = true
 146:funsape/peripheral/../globalDefines.hpp **** };
 147:funsape/peripheral/../globalDefines.hpp **** 
 148:funsape/peripheral/../globalDefines.hpp **** enum class State : cbool_t {
 149:funsape/peripheral/../globalDefines.hpp ****     OFF                                 = false,
 150:funsape/peripheral/../globalDefines.hpp ****     ON                                  = true
 151:funsape/peripheral/../globalDefines.hpp **** };
 152:funsape/peripheral/../globalDefines.hpp **** 
 153:funsape/peripheral/../globalDefines.hpp **** //     ///////////////////     PLAIN ENUMERATIONS    ////////////////////     //
 154:funsape/peripheral/../globalDefines.hpp **** enum class Axis : cuint8_t {
 155:funsape/peripheral/../globalDefines.hpp ****     //                                     Z-AXIS     Y-AXIS     X-AXIS
 156:funsape/peripheral/../globalDefines.hpp ****     NONE                                = (0 << 2) | (0 << 1) | (0 << 0),
GAS LISTING C:\Users\kenne\AppData\Local\Temp\ccmiL9m5.s 			page 4


 157:funsape/peripheral/../globalDefines.hpp ****     X                                   = (0 << 2) | (0 << 1) | (1 << 0),
 158:funsape/peripheral/../globalDefines.hpp ****     Y                                   = (0 << 2) | (1 << 1) | (0 << 0),
 159:funsape/peripheral/../globalDefines.hpp ****     XY                                  = (0 << 2) | (1 << 1) | (1 << 0),
 160:funsape/peripheral/../globalDefines.hpp ****     Z                                   = (1 << 2) | (0 << 1) | (0 << 0),
 161:funsape/peripheral/../globalDefines.hpp ****     XZ                                  = (1 << 2) | (0 << 1) | (1 << 0),
 162:funsape/peripheral/../globalDefines.hpp ****     YZ                                  = (1 << 2) | (1 << 1) | (0 << 0),
 163:funsape/peripheral/../globalDefines.hpp ****     ALL                                 = (1 << 2) | (1 << 1) | (1 << 0)
 164:funsape/peripheral/../globalDefines.hpp **** };
 165:funsape/peripheral/../globalDefines.hpp **** 
 166:funsape/peripheral/../globalDefines.hpp **** inlined Axis operator|(Axis a, Axis b)
 167:funsape/peripheral/../globalDefines.hpp **** {
 168:funsape/peripheral/../globalDefines.hpp ****     return static_cast<Axis>(static_cast<cint8_t>(a) | static_cast<uint8_t>(b));
 169:funsape/peripheral/../globalDefines.hpp **** }
 170:funsape/peripheral/../globalDefines.hpp **** 
 171:funsape/peripheral/../globalDefines.hpp **** inlined Axis &operator|=(Axis &a, Axis b)
 172:funsape/peripheral/../globalDefines.hpp **** {
 173:funsape/peripheral/../globalDefines.hpp ****     return a = static_cast<Axis>(static_cast<uint8_t>(a) | static_cast<uint8_t>(b));
 174:funsape/peripheral/../globalDefines.hpp **** }
 175:funsape/peripheral/../globalDefines.hpp **** 
 176:funsape/peripheral/../globalDefines.hpp **** inlined Axis operator&(Axis a, Axis b)
 177:funsape/peripheral/../globalDefines.hpp **** {
 178:funsape/peripheral/../globalDefines.hpp ****     return static_cast<Axis>(static_cast<uint8_t>(a) & static_cast<uint8_t>(b));
 179:funsape/peripheral/../globalDefines.hpp **** }
 180:funsape/peripheral/../globalDefines.hpp **** 
 181:funsape/peripheral/../globalDefines.hpp **** inlined Axis &operator&=(Axis &a, Axis b)
 182:funsape/peripheral/../globalDefines.hpp **** {
 183:funsape/peripheral/../globalDefines.hpp ****     return a = static_cast<Axis>(static_cast<uint8_t>(a) & static_cast<uint8_t>(b));
 184:funsape/peripheral/../globalDefines.hpp **** }
 185:funsape/peripheral/../globalDefines.hpp **** 
 186:funsape/peripheral/../globalDefines.hpp **** enum class Direction : cuint8_t {
 187:funsape/peripheral/../globalDefines.hpp ****     LEFT                                = 0,
 188:funsape/peripheral/../globalDefines.hpp ****     RIGHT                               = 1,
 189:funsape/peripheral/../globalDefines.hpp ****     UP                                  = 2,
 190:funsape/peripheral/../globalDefines.hpp ****     DOWN                                = 3
 191:funsape/peripheral/../globalDefines.hpp **** };
 192:funsape/peripheral/../globalDefines.hpp **** 
 193:funsape/peripheral/../globalDefines.hpp **** enum class InterfaceMode : cuint8_t {
 194:funsape/peripheral/../globalDefines.hpp ****     BLOCKING_MODE                       = 0,
 195:funsape/peripheral/../globalDefines.hpp ****     INTERRUPT_MODE                      = 1,
 196:funsape/peripheral/../globalDefines.hpp ****     DMA_MODE                            = 2
 197:funsape/peripheral/../globalDefines.hpp **** };
 198:funsape/peripheral/../globalDefines.hpp **** 
 199:funsape/peripheral/../globalDefines.hpp **** enum class ThermometricScale : cuint8_t {
 200:funsape/peripheral/../globalDefines.hpp ****     CELSIUS                             = 0,
 201:funsape/peripheral/../globalDefines.hpp ****     DELISLE                             = 1,
 202:funsape/peripheral/../globalDefines.hpp ****     FAHRENHEIT                          = 2,
 203:funsape/peripheral/../globalDefines.hpp ****     KELVIN                              = 3,
 204:funsape/peripheral/../globalDefines.hpp ****     NEWTON                              = 4,
 205:funsape/peripheral/../globalDefines.hpp ****     RANKINE                             = 5,
 206:funsape/peripheral/../globalDefines.hpp ****     REAUMUR                             = 6,
 207:funsape/peripheral/../globalDefines.hpp ****     ROMER                               = 7
 208:funsape/peripheral/../globalDefines.hpp **** };
 209:funsape/peripheral/../globalDefines.hpp **** 
 210:funsape/peripheral/../globalDefines.hpp **** enum class Error : cuint16_t {
 211:funsape/peripheral/../globalDefines.hpp ****     // General error codes
 212:funsape/peripheral/../globalDefines.hpp ****     NONE                                                = 0x0000,   // Success - No errors occurred
 213:funsape/peripheral/../globalDefines.hpp ****     AXIS_INVALID                                        = 0x0001,   // Invalid axis
GAS LISTING C:\Users\kenne\AppData\Local\Temp\ccmiL9m5.s 			page 5


 214:funsape/peripheral/../globalDefines.hpp ****     NOT_IMPLEMENTED                                     = 0x0002,   // Not implemented yet
 215:funsape/peripheral/../globalDefines.hpp ****     UNDER_DEVELOPMENT                                   = 0x0003,   // This part of the code is sti
 216:funsape/peripheral/../globalDefines.hpp ****     NOT_INITIALIZED                                     = 0x0004,   // Not initialized
 217:funsape/peripheral/../globalDefines.hpp ****     // BUSY                                                = 0x0005,   // TODO: Describe parameter
 218:funsape/peripheral/../globalDefines.hpp ****     // DEVICE_NOT_SUPPORTED                                = 0x0006,   // Device is not currently s
 219:funsape/peripheral/../globalDefines.hpp ****     // FEATURE_NOT_SUPPORTED                               = 0x0007,   // Unsupported feature or co
 220:funsape/peripheral/../globalDefines.hpp ****     // FUNCTION_POINTER_NULL                               = 0x0008,   // TODO: Describe parameter
 221:funsape/peripheral/../globalDefines.hpp ****     // INSTANCE_INVALID                                    = 0x0009,   // Invalid instance
 222:funsape/peripheral/../globalDefines.hpp ****     // LOCKED                                              = 0x000A,   // Accessed a locked device
 223:funsape/peripheral/../globalDefines.hpp ****     MEMORY_ALLOCATION                                   = 0x000B,   // Memory allocation failed
 224:funsape/peripheral/../globalDefines.hpp ****     // MODE_NOT_SUPPORTED                                  = 0x000C,   // Mode is not currently sup
 225:funsape/peripheral/../globalDefines.hpp ****     // NOT_READY                                           = 0x000D,   // TODO: Describe parameter
 226:funsape/peripheral/../globalDefines.hpp ****     // READ_PROTECTED                                      = 0x000E,   // Tried to read a read prot
 227:funsape/peripheral/../globalDefines.hpp ****     // WRITE_PROTECTED                                     = 0x000F,   // Tried to write a write pr
 228:funsape/peripheral/../globalDefines.hpp **** 
 229:funsape/peripheral/../globalDefines.hpp ****     // Function arguments related error codes
 230:funsape/peripheral/../globalDefines.hpp ****     // ARGUMENT_CANNOT_BE_ZERO                             = 0x0010,   // TODO: Describe parameter
 231:funsape/peripheral/../globalDefines.hpp ****     ARGUMENT_POINTER_NULL                               = 0x0011,   // NULL pointer was passed as a
 232:funsape/peripheral/../globalDefines.hpp ****     ARGUMENT_VALUE_INVALID                              = 0x0012,   // TODO: Describe parameter
 233:funsape/peripheral/../globalDefines.hpp ****     // ARGUMENTS_MISMATCH                                  = 0x0013,   // A function was called wit
 234:funsape/peripheral/../globalDefines.hpp ****     // ARGUMENTS_WRONG_NUMBER                              = 0x0014,   // A function was called wit
 235:funsape/peripheral/../globalDefines.hpp ****     // ARGUMENT_GENERIC_ERROR_5                            = 0x0015,   // Generic error (use only o
 236:funsape/peripheral/../globalDefines.hpp ****     // ARGUMENT_GENERIC_ERROR_6                            = 0x0016,   // Generic error (use only o
 237:funsape/peripheral/../globalDefines.hpp ****     // ARGUMENT_GENERIC_ERROR_7                            = 0x0017,   // Generic error (use only o
 238:funsape/peripheral/../globalDefines.hpp ****     // ARGUMENT_GENERIC_ERROR_8                            = 0x0018,   // Generic error (use only o
 239:funsape/peripheral/../globalDefines.hpp ****     // ARGUMENT_GENERIC_ERROR_9                            = 0x0019,   // Generic error (use only o
 240:funsape/peripheral/../globalDefines.hpp ****     // ARGUMENT_GENERIC_ERROR_10                           = 0x001A,   // Generic error (use only o
 241:funsape/peripheral/../globalDefines.hpp ****     // ARGUMENT_GENERIC_ERROR_11                           = 0x001B,   // Generic error (use only o
 242:funsape/peripheral/../globalDefines.hpp ****     // ARGUMENT_GENERIC_ERROR_12                           = 0x001C,   // Generic error (use only o
 243:funsape/peripheral/../globalDefines.hpp ****     // ARGUMENT_GENERIC_ERROR_13                           = 0x001D,   // Generic error (use only o
 244:funsape/peripheral/../globalDefines.hpp ****     // ARGUMENT_GENERIC_ERROR_14                           = 0x001E,   // Generic error (use only o
 245:funsape/peripheral/../globalDefines.hpp ****     // ARGUMENT_GENERIC_ERROR                              = 0x001F,   // Generic error (use only o
 246:funsape/peripheral/../globalDefines.hpp **** 
 247:funsape/peripheral/../globalDefines.hpp ****     // Buffer related error codes
 248:funsape/peripheral/../globalDefines.hpp ****     // BUFFER_EMPTY                                        = 0x0020,   // Buffer is empty
 249:funsape/peripheral/../globalDefines.hpp ****     // BUFFER_FULL                                         = 0x0021,   // Buffer is full
 250:funsape/peripheral/../globalDefines.hpp ****     // BUFFER_NOT_ENOUGH_ELEMENTS                          = 0x0022,   // Not enough space in buffe
 251:funsape/peripheral/../globalDefines.hpp ****     // BUFFER_NOT_ENOUGH_SPACE                             = 0x0023,   // Not enough space in buffe
 252:funsape/peripheral/../globalDefines.hpp ****     // BUFFER_POINTER_NULL                                 = 0x0024,   // Buffer size was set to ze
 253:funsape/peripheral/../globalDefines.hpp ****     // BUFFER_SIZE_TOO_LARGE                               = 0x0025,   // Buffer size was set to a 
 254:funsape/peripheral/../globalDefines.hpp ****     // BUFFER_SIZE_TOO_SMALL                               = 0x0026,   // Buffer size was set to a 
 255:funsape/peripheral/../globalDefines.hpp ****     // BUFFER_SIZE_ZERO                                    = 0x0027,   // Buffer size was set to ze
 256:funsape/peripheral/../globalDefines.hpp ****     // BUFFER_GENERIC_ERROR_8                              = 0x0028,   // Generic error (use only o
 257:funsape/peripheral/../globalDefines.hpp ****     // BUFFER_GENERIC_ERROR_9                              = 0x0029,   // Generic error (use only o
 258:funsape/peripheral/../globalDefines.hpp ****     // BUFFER_GENERIC_ERROR_10                             = 0x002A,   // Generic error (use only o
 259:funsape/peripheral/../globalDefines.hpp ****     // BUFFER_GENERIC_ERROR_11                             = 0x002B,   // Generic error (use only o
 260:funsape/peripheral/../globalDefines.hpp ****     // BUFFER_GENERIC_ERROR_12                             = 0x002C,   // Generic error (use only o
 261:funsape/peripheral/../globalDefines.hpp ****     // BUFFER_GENERIC_ERROR_13                             = 0x002D,   // Generic error (use only o
 262:funsape/peripheral/../globalDefines.hpp ****     // BUFFER_GENERIC_ERROR_14                             = 0x002E,   // Generic error (use only o
 263:funsape/peripheral/../globalDefines.hpp ****     // BUFFER_GENERIC_ERROR_15                             = 0x002F,   // Generic error (use only o
 264:funsape/peripheral/../globalDefines.hpp **** 
 265:funsape/peripheral/../globalDefines.hpp ****     // Clock configuration related error codes
 266:funsape/peripheral/../globalDefines.hpp ****     // CLOCK_PRESCALER_CHANGE_FAILED                       = 0x0030,   // Clock prescaler change fa
 267:funsape/peripheral/../globalDefines.hpp ****     // CLOCK_PRESCALER_NOT_SUPPORTED                       = 0x0031,   // Clock prescaler configura
 268:funsape/peripheral/../globalDefines.hpp ****     // CLOCK_SPEED_TOO_HIGH                                = 0x0032,   // TODO: Describe parameter
 269:funsape/peripheral/../globalDefines.hpp ****     // CLOCK_SPEED_TOO_LOW                                 = 0x0033,   // TODO: Describe parameter
 270:funsape/peripheral/../globalDefines.hpp ****     // CLOCK_GENERIC_ERROR_4                               = 0x0034,   // Generic error (use only o
GAS LISTING C:\Users\kenne\AppData\Local\Temp\ccmiL9m5.s 			page 6


 271:funsape/peripheral/../globalDefines.hpp ****     // CLOCK_GENERIC_ERROR_5                               = 0x0035,   // Generic error (use only o
 272:funsape/peripheral/../globalDefines.hpp ****     // CLOCK_GENERIC_ERROR_6                               = 0x0036,   // Generic error (use only o
 273:funsape/peripheral/../globalDefines.hpp ****     // CLOCK_GENERIC_ERROR_7                               = 0x0037,   // Generic error (use only o
 274:funsape/peripheral/../globalDefines.hpp ****     // CLOCK_GENERIC_ERROR_8                               = 0x0038,   // Generic error (use only o
 275:funsape/peripheral/../globalDefines.hpp ****     // CLOCK_GENERIC_ERROR_9                               = 0x0039,   // Generic error (use only o
 276:funsape/peripheral/../globalDefines.hpp ****     // CLOCK_GENERIC_ERROR_10                              = 0x003A,   // Generic error (use only o
 277:funsape/peripheral/../globalDefines.hpp ****     // CLOCK_GENERIC_ERROR_11                              = 0x003B,   // Generic error (use only o
 278:funsape/peripheral/../globalDefines.hpp ****     // CLOCK_GENERIC_ERROR_12                              = 0x003C,   // Generic error (use only o
 279:funsape/peripheral/../globalDefines.hpp ****     // CLOCK_GENERIC_ERROR_13                              = 0x003D,   // Generic error (use only o
 280:funsape/peripheral/../globalDefines.hpp ****     // CLOCK_GENERIC_ERROR_14                              = 0x003E,   // Generic error (use only o
 281:funsape/peripheral/../globalDefines.hpp ****     // CLOCK_GENERIC_ERROR_15                              = 0x003F,   // Generic error (use only o
 282:funsape/peripheral/../globalDefines.hpp **** 
 283:funsape/peripheral/../globalDefines.hpp ****     // Communication related error codes
 284:funsape/peripheral/../globalDefines.hpp ****     // COMMUNICATION_FAILED                                = 0x0040,   // TODO: Describe parameter
 285:funsape/peripheral/../globalDefines.hpp ****     // COMMUNICATION_NO_DEVICE_SELECTED                    = 0x0041,   // TODO: Describe parameter
 286:funsape/peripheral/../globalDefines.hpp ****     // COMMUNICATION_PORT_NOT_SET                          = 0x0042,   // TODO: Describe parameter
 287:funsape/peripheral/../globalDefines.hpp ****     // COMMUNICATION_TIMEOUT                               = 0x0043,   // The operation timed out
 288:funsape/peripheral/../globalDefines.hpp ****     // COMMUNICATION_DEVICE_ID_MATCH_FAILED                = 0x0044,   // TODO: Describe parameter
 289:funsape/peripheral/../globalDefines.hpp ****     // CHECKSUM_ERROR                                      = 0x0045,   // TODO: Describe parameter
 290:funsape/peripheral/../globalDefines.hpp ****     // FRAME_ERROR                                         = 0x0046,   // TODO: Describe parameter
 291:funsape/peripheral/../globalDefines.hpp ****     // PACKAGE_AWAITING                                    = 0x0047,   // Try to write data to a re
 292:funsape/peripheral/../globalDefines.hpp ****     // PACKAGE_NOT_READY                                   = 0x0048,   // Try to read data from a n
 293:funsape/peripheral/../globalDefines.hpp ****     // COMMUNICATION_GENERIC_ERROR_9                       = 0x0049,   // Generic error (use only o
 294:funsape/peripheral/../globalDefines.hpp ****     // COMMUNICATION_GENERIC_ERROR_10                      = 0x004A,   // Generic error (use only o
 295:funsape/peripheral/../globalDefines.hpp ****     // COMMUNICATION_GENERIC_ERROR_11                      = 0x004B,   // Generic error (use only o
 296:funsape/peripheral/../globalDefines.hpp ****     // COMMUNICATION_GENERIC_ERROR_12                      = 0x004C,   // Generic error (use only o
 297:funsape/peripheral/../globalDefines.hpp ****     // COMMUNICATION_GENERIC_ERROR_13                      = 0x004D,   // Generic error (use only o
 298:funsape/peripheral/../globalDefines.hpp ****     // COMMUNICATION_GENERIC_ERROR_14                      = 0x004E,   // Generic error (use only o
 299:funsape/peripheral/../globalDefines.hpp ****     // COMMUNICATION_GENERIC_ERROR_15                      = 0x004F,   // Generic error (use only o
 300:funsape/peripheral/../globalDefines.hpp **** 
 301:funsape/peripheral/../globalDefines.hpp ****     // DateTime class related error codes
 302:funsape/peripheral/../globalDefines.hpp ****     // DATETIME_DATE_NOT_INITIALIZED                       = 0x0050,   // TODO: Describe parameter
 303:funsape/peripheral/../globalDefines.hpp ****     // DATETIME_HOUR_INVALID                               = 0x0051,   // TODO: Describe parameter
 304:funsape/peripheral/../globalDefines.hpp ****     // DATETIME_MILLISECOND_INVALID                        = 0x0052,   // TODO: Describe parameter
 305:funsape/peripheral/../globalDefines.hpp ****     // DATETIME_MINUTE_INVALID                             = 0x0053,   // TODO: Describe parameter
 306:funsape/peripheral/../globalDefines.hpp ****     // DATETIME_MONTH_DAY_INVALID                          = 0x0054,   // TODO: Describe parameter
 307:funsape/peripheral/../globalDefines.hpp ****     // DATETIME_MONTH_INVALID                              = 0x0055,   // TODO: Describe parameter
 308:funsape/peripheral/../globalDefines.hpp ****     // DATETIME_SECOND_INVALID                             = 0x0056,   // TODO: Describe parameter
 309:funsape/peripheral/../globalDefines.hpp ****     // DATETIME_TIME_NOT_INITIALIZED                       = 0x0057,   // TODO: Describe parameter
 310:funsape/peripheral/../globalDefines.hpp ****     // DATETIME_TIMEZONE_INVALID                           = 0x0058,   // TODO: Describe parameter
 311:funsape/peripheral/../globalDefines.hpp ****     // DATETIME_YEAR_INVALID                               = 0x0059,   // TODO: Describe parameter
 312:funsape/peripheral/../globalDefines.hpp ****     // DATETIME_DATE_INVALID                               = 0x005A,   // TODO: Describe parameter
 313:funsape/peripheral/../globalDefines.hpp ****     // DATETIME_TIME_INVALID                               = 0x005B,   // TODO: Describe parameter
 314:funsape/peripheral/../globalDefines.hpp ****     // DATETIME_GENERIC_ERROR_13                           = 0x005C,   // Generic error (use only o
 315:funsape/peripheral/../globalDefines.hpp ****     // DATETIME_GENERIC_ERROR_14                           = 0x005D,   // Generic error (use only o
 316:funsape/peripheral/../globalDefines.hpp ****     // DATETIME_GENERIC_ERROR_15                           = 0x005F,   // Generic error (use only o
 317:funsape/peripheral/../globalDefines.hpp **** 
 318:funsape/peripheral/../globalDefines.hpp ****     // Handler related error codes
 319:funsape/peripheral/../globalDefines.hpp ****     // HANDLER_NOT_SUPPORTED                               = 0x0060,   // TODO: Describe parameter
 320:funsape/peripheral/../globalDefines.hpp ****     // HANDLER_POINTER_NULL                                = 0x0061,   // TODO: Describe parameter
 321:funsape/peripheral/../globalDefines.hpp ****     // HANDLER_GENERIC_ERROR_2                             = 0x0062,   // Generic error (use only o
 322:funsape/peripheral/../globalDefines.hpp ****     // HANDLER_GENERIC_ERROR_3                             = 0x0063,   // Generic error (use only o
 323:funsape/peripheral/../globalDefines.hpp ****     // HANDLER_GENERIC_ERROR_4                             = 0x0064,   // Generic error (use only o
 324:funsape/peripheral/../globalDefines.hpp ****     // HANDLER_GENERIC_ERROR_5                             = 0x0065,   // Generic error (use only o
 325:funsape/peripheral/../globalDefines.hpp ****     // HANDLER_GENERIC_ERROR_6                             = 0x0066,   // Generic error (use only o
 326:funsape/peripheral/../globalDefines.hpp ****     // HANDLER_GENERIC_ERROR_7                             = 0x0067,   // Generic error (use only o
 327:funsape/peripheral/../globalDefines.hpp ****     // HANDLER_GENERIC_ERROR_8                             = 0x0068,   // Generic error (use only o
GAS LISTING C:\Users\kenne\AppData\Local\Temp\ccmiL9m5.s 			page 7


 328:funsape/peripheral/../globalDefines.hpp ****     // HANDLER_GENERIC_ERROR_9                             = 0x0069,   // Generic error (use only o
 329:funsape/peripheral/../globalDefines.hpp ****     // HANDLER_GENERIC_ERROR_10                            = 0x006A,   // Generic error (use only o
 330:funsape/peripheral/../globalDefines.hpp ****     // HANDLER_GENERIC_ERROR_11                            = 0x006B,   // Generic error (use only o
 331:funsape/peripheral/../globalDefines.hpp ****     // HANDLER_GENERIC_ERROR_12                            = 0x006C,   // Generic error (use only o
 332:funsape/peripheral/../globalDefines.hpp ****     // HANDLER_GENERIC_ERROR_13                            = 0x006D,   // Generic error (use only o
 333:funsape/peripheral/../globalDefines.hpp ****     // HANDLER_GENERIC_ERROR_14                            = 0x006E,   // Generic error (use only o
 334:funsape/peripheral/../globalDefines.hpp ****     // HANDLER_GENERIC_ERROR_15                            = 0x006F,   // Generic error (use only o
 335:funsape/peripheral/../globalDefines.hpp **** 
 336:funsape/peripheral/../globalDefines.hpp ****     // External interrupts related error codes
 337:funsape/peripheral/../globalDefines.hpp ****     // INTERRUPT_NOT_AVAILABLE                             = 0x0070,   // TODO: Describe parameter
 338:funsape/peripheral/../globalDefines.hpp ****     // INTERRUPT_PORT_OUTPUT_MODE_NOT_SUPPORTED            = 0x0071,   // TODO: Describe parameter
 339:funsape/peripheral/../globalDefines.hpp ****     // INTERRUPT_SENSE_MODE_NOT_SUPPORTED                  = 0x0072,   // TODO: Describe parameter
 340:funsape/peripheral/../globalDefines.hpp ****     // INTERRUPT_GENERIC_ERROR_3                           = 0x0073,   // Generic error (use only o
 341:funsape/peripheral/../globalDefines.hpp ****     // INTERRUPT_GENERIC_ERROR_4                           = 0x0074,   // Generic error (use only o
 342:funsape/peripheral/../globalDefines.hpp ****     // INTERRUPT_GENERIC_ERROR_5                           = 0x0075,   // Generic error (use only o
 343:funsape/peripheral/../globalDefines.hpp ****     // INTERRUPT_GENERIC_ERROR_6                           = 0x0076,   // Generic error (use only o
 344:funsape/peripheral/../globalDefines.hpp ****     // INTERRUPT_GENERIC_ERROR_7                           = 0x0077,   // Generic error (use only o
 345:funsape/peripheral/../globalDefines.hpp ****     // INTERRUPT_GENERIC_ERROR_8                           = 0x0078,   // Generic error (use only o
 346:funsape/peripheral/../globalDefines.hpp ****     // INTERRUPT_GENERIC_ERROR_9                           = 0x0079,   // Generic error (use only o
 347:funsape/peripheral/../globalDefines.hpp ****     // INTERRUPT_GENERIC_ERROR_10                          = 0x007A,   // Generic error (use only o
 348:funsape/peripheral/../globalDefines.hpp ****     // INTERRUPT_GENERIC_ERROR_11                          = 0x007B,   // Generic error (use only o
 349:funsape/peripheral/../globalDefines.hpp ****     // INTERRUPT_GENERIC_ERROR_12                          = 0x007C,   // Generic error (use only o
 350:funsape/peripheral/../globalDefines.hpp ****     // INTERRUPT_GENERIC_ERROR_13                          = 0x007D,   // Generic error (use only o
 351:funsape/peripheral/../globalDefines.hpp ****     // INTERRUPT_GENERIC_ERROR_14                          = 0x007E,   // Generic error (use only o
 352:funsape/peripheral/../globalDefines.hpp ****     // INTERRUPT_GENERIC_ERROR_15                          = 0x007F,   // Generic error (use only o
 353:funsape/peripheral/../globalDefines.hpp **** 
 354:funsape/peripheral/../globalDefines.hpp **** 
 355:funsape/peripheral/../globalDefines.hpp ****     // Package API class related error codes
 356:funsape/peripheral/../globalDefines.hpp ****     // PACKAGE_API_PACKAGE_DATA_FULL                       = 0x0080,   // TODO: Describe parameter
 357:funsape/peripheral/../globalDefines.hpp ****     // PACKAGE_API_PACKAGE_NOT_READY                       = 0x0081,   // TODO: Describe parameter
 358:funsape/peripheral/../globalDefines.hpp ****     // PACKAGE_API_PAYLOAD_DATA_NULL                       = 0x0082,   // TODO: Describe parameter
 359:funsape/peripheral/../globalDefines.hpp ****     // PACKAGE_API_PAYLOAD_SIZE_NULL                       = 0x0083,   // TODO: Describe parameter
 360:funsape/peripheral/../globalDefines.hpp ****     // PACKAGE_API_SOURCE_ADDRESS_INVALID                  = 0x0084,   // TODO: Describe parameter
 361:funsape/peripheral/../globalDefines.hpp ****     // PACKAGE_API_GENERIC_ERROR_5                         = 0x0085,   // Generic error (use only o
 362:funsape/peripheral/../globalDefines.hpp ****     // PACKAGE_API_GENERIC_ERROR_6                         = 0x0086,   // Generic error (use only o
 363:funsape/peripheral/../globalDefines.hpp ****     // PACKAGE_API_GENERIC_ERROR_7                         = 0x0087,   // Generic error (use only o
 364:funsape/peripheral/../globalDefines.hpp ****     // PACKAGE_API_GENERIC_ERROR_8                         = 0x0088,   // Generic error (use only o
 365:funsape/peripheral/../globalDefines.hpp ****     // PACKAGE_API_GENERIC_ERROR_9                         = 0x0089,   // Generic error (use only o
 366:funsape/peripheral/../globalDefines.hpp ****     // PACKAGE_API_GENERIC_ERROR_10                        = 0x008A,   // Generic error (use only o
 367:funsape/peripheral/../globalDefines.hpp ****     // PACKAGE_API_GENERIC_ERROR_11                        = 0x008B,   // Generic error (use only o
 368:funsape/peripheral/../globalDefines.hpp ****     // PACKAGE_API_GENERIC_ERROR_12                        = 0x008C,   // Generic error (use only o
 369:funsape/peripheral/../globalDefines.hpp ****     // PACKAGE_API_GENERIC_ERROR_13                        = 0x008D,   // Generic error (use only o
 370:funsape/peripheral/../globalDefines.hpp ****     // PACKAGE_API_GENERIC_ERROR_14                        = 0x008E,   // Generic error (use only o
 371:funsape/peripheral/../globalDefines.hpp ****     // PACKAGE_API_GENERIC_ERROR_15                        = 0x008F,   // Generic error (use only o
 372:funsape/peripheral/../globalDefines.hpp **** 
 373:funsape/peripheral/../globalDefines.hpp ****     // SPI related error codes
 374:funsape/peripheral/../globalDefines.hpp ****     // SPI_BUSY_FLAG                                       = 0x0090,   // TODO: Describe parameter
 375:funsape/peripheral/../globalDefines.hpp ****     // SPI_CRC                                             = 0x0091,   // TODO: Describe parameter
 376:funsape/peripheral/../globalDefines.hpp ****     // SPI_DMA                                             = 0x0092,   // TODO: Describe parameter
 377:funsape/peripheral/../globalDefines.hpp ****     // SPI_MODE_FAULT                                      = 0x0093,   // TODO: Describe parameter
 378:funsape/peripheral/../globalDefines.hpp ****     // SPI_OVERRUN                                         = 0x0094,   // TODO: Describe parameter
 379:funsape/peripheral/../globalDefines.hpp ****     // SPI_GENERIC_ERROR_5                                 = 0x0095,   // Generic error (use only o
 380:funsape/peripheral/../globalDefines.hpp ****     // SPI_GENERIC_ERROR_6                                 = 0x0096,   // Generic error (use only o
 381:funsape/peripheral/../globalDefines.hpp ****     // SPI_GENERIC_ERROR_7                                 = 0x0097,   // Generic error (use only o
 382:funsape/peripheral/../globalDefines.hpp ****     // SPI_GENERIC_ERROR_8                                 = 0x0098,   // Generic error (use only o
 383:funsape/peripheral/../globalDefines.hpp ****     // SPI_GENERIC_ERROR_9                                 = 0x0099,   // Generic error (use only o
 384:funsape/peripheral/../globalDefines.hpp ****     // SPI_GENERIC_ERROR_10                                = 0x009A,   // Generic error (use only o
GAS LISTING C:\Users\kenne\AppData\Local\Temp\ccmiL9m5.s 			page 8


 385:funsape/peripheral/../globalDefines.hpp ****     // SPI_GENERIC_ERROR_11                                = 0x009B,   // Generic error (use only o
 386:funsape/peripheral/../globalDefines.hpp ****     // SPI_GENERIC_ERROR_12                                = 0x009C,   // Generic error (use only o
 387:funsape/peripheral/../globalDefines.hpp ****     // SPI_GENERIC_ERROR_13                                = 0x009D,   // Generic error (use only o
 388:funsape/peripheral/../globalDefines.hpp ****     // SPI_GENERIC_ERROR_14                                = 0x009E,   // Generic error (use only o
 389:funsape/peripheral/../globalDefines.hpp ****     // SPI_GENERIC_ERROR_15                                = 0x009F,   // Generic error (use only o
 390:funsape/peripheral/../globalDefines.hpp **** 
 391:funsape/peripheral/../globalDefines.hpp ****     // TWI related error codes
 392:funsape/peripheral/../globalDefines.hpp ****     // TWI_AF_FLAG                                         = 0x00A0,   // TWI AF flag error
 393:funsape/peripheral/../globalDefines.hpp ****     // TWI_ARBITRATION_LOST                                = 0x00A1,   // TWI bus arbitration lost
 394:funsape/peripheral/../globalDefines.hpp ****     // TWI_BUS_ERROR                                       = 0x00A2,   // TWI bus error
 395:funsape/peripheral/../globalDefines.hpp ****     // TWI_DMA                                             = 0x00A3,   // DMA parameter error
 396:funsape/peripheral/../globalDefines.hpp ****     // TWI_DMA_PARAM                                       = 0x00A4,   // DMA transfer error
 397:funsape/peripheral/../globalDefines.hpp ****     // TWI_OVERRUN                                         = 0x00A5,   // TWI overrun
 398:funsape/peripheral/../globalDefines.hpp ****     // TWI_SIZE_MANAGEMENT_ERROR                           = 0x00A6,   // Size management error
 399:funsape/peripheral/../globalDefines.hpp ****     // TWI_INVALID_DEVICE_ADDRESS                          = 0x00A7,   // TODO: Describe parameter
 400:funsape/peripheral/../globalDefines.hpp ****     // TWI_GENERIC_ERROR_8                                 = 0x00A8,   // Generic error (use only o
 401:funsape/peripheral/../globalDefines.hpp ****     // TWI_GENERIC_ERROR_9                                 = 0x00A9,   // Generic error (use only o
 402:funsape/peripheral/../globalDefines.hpp ****     // TWI_GENERIC_ERROR_10                                = 0x00AA,   // Generic error (use only o
 403:funsape/peripheral/../globalDefines.hpp ****     // TWI_GENERIC_ERROR_11                                = 0x00AB,   // Generic error (use only o
 404:funsape/peripheral/../globalDefines.hpp ****     // TWI_GENERIC_ERROR_12                                = 0x00AC,   // Generic error (use only o
 405:funsape/peripheral/../globalDefines.hpp ****     // TWI_GENERIC_ERROR_13                                = 0x00AD,   // Generic error (use only o
 406:funsape/peripheral/../globalDefines.hpp ****     // TWI_GENERIC_ERROR_14                                = 0x00AE,   // Generic error (use only o
 407:funsape/peripheral/../globalDefines.hpp ****     // TWI_GENERIC_ERROR_15                                = 0x00AF,   // Generic error (use only o
 408:funsape/peripheral/../globalDefines.hpp **** 
 409:funsape/peripheral/../globalDefines.hpp ****     // USART related error codes
 410:funsape/peripheral/../globalDefines.hpp ****     // USART_BAUD_RATE_NOT_SUPPORTED                       = 0x00B0,   // TODO: Describe parameter
 411:funsape/peripheral/../globalDefines.hpp ****     // USART_CONFIGURATION_PARAMETER_WRONG                 = 0x00B1,   // TODO: Describe parameter
 412:funsape/peripheral/../globalDefines.hpp ****     // USART_DATA_BITS_NOT_SUPPORTED                       = 0x00B2,   // TODO: Describe parameter
 413:funsape/peripheral/../globalDefines.hpp ****     // USART_FRAME_FORMAT_NOT_SUPPORTED                    = 0x00B3,   // TODO: Describe parameter
 414:funsape/peripheral/../globalDefines.hpp ****     // USART_PARITY_NOT_SUPPORTED                          = 0x00B4,   // TODO: Describe parameter
 415:funsape/peripheral/../globalDefines.hpp ****     // USART_STOP_BIT_NOT_SUPPORTED                        = 0x00B5,   // TODO: Describe parameter
 416:funsape/peripheral/../globalDefines.hpp ****     // USART_GENERIC_ERROR_6                               = 0x00B6,   // Generic error (use only o
 417:funsape/peripheral/../globalDefines.hpp ****     // USART_GENERIC_ERROR_7                               = 0x00B7,   // Generic error (use only o
 418:funsape/peripheral/../globalDefines.hpp ****     // USART_GENERIC_ERROR_8                               = 0x00B8,   // Generic error (use only o
 419:funsape/peripheral/../globalDefines.hpp ****     // USART_GENERIC_ERROR_9                               = 0x00B9,   // Generic error (use only o
 420:funsape/peripheral/../globalDefines.hpp ****     // USART_GENERIC_ERROR_10                              = 0x00BA,   // Generic error (use only o
 421:funsape/peripheral/../globalDefines.hpp ****     // USART_GENERIC_ERROR_11                              = 0x00BB,   // Generic error (use only o
 422:funsape/peripheral/../globalDefines.hpp ****     // USART_GENERIC_ERROR_12                              = 0x00BC,   // Generic error (use only o
 423:funsape/peripheral/../globalDefines.hpp ****     // USART_GENERIC_ERROR_13                              = 0x00BD,   // Generic error (use only o
 424:funsape/peripheral/../globalDefines.hpp ****     // USART_GENERIC_ERROR_14                              = 0x00BE,   // Generic error (use only o
 425:funsape/peripheral/../globalDefines.hpp ****     // USART_GENERIC_ERROR_15                              = 0x00BF,   // Generic error (use only o
 426:funsape/peripheral/../globalDefines.hpp **** 
 427:funsape/peripheral/../globalDefines.hpp ****     // LCD related error codes
 428:funsape/peripheral/../globalDefines.hpp ****     // LCD_CONTROL_PORT_NOT_SET                            = 0x00C0,   // TODO: Describe parameter
 429:funsape/peripheral/../globalDefines.hpp ****     // LCD_CONTROL_PIN_E_INVALID                           = 0x00C1,   // TODO: Describe parameter
 430:funsape/peripheral/../globalDefines.hpp ****     // LCD_CONTROL_PIN_RS_INVALID                          = 0x00C2,   // TODO: Describe parameter
 431:funsape/peripheral/../globalDefines.hpp ****     // LCD_CONTROL_PIN_RW_INVALID                          = 0x00C3,   // TODO: Describe parameter
 432:funsape/peripheral/../globalDefines.hpp ****     // LCD_DATA_PORT_NOT_SET                               = 0x00C4,   // TODO: Describe parameter
 433:funsape/peripheral/../globalDefines.hpp ****     // LCD_DATA_PIN_INDEX_OUT_OF_BOUNDARIES                = 0x00C5,   // TODO: Describe parameter
 434:funsape/peripheral/../globalDefines.hpp ****     // LCD_GENERIC_ERROR_6                                 = 0x00C6,   // Generic error (use only o
 435:funsape/peripheral/../globalDefines.hpp ****     // LCD_GENERIC_ERROR_7                                 = 0x00C7,   // Generic error (use only o
 436:funsape/peripheral/../globalDefines.hpp ****     // LCD_GENERIC_ERROR_8                                 = 0x00C8,   // Generic error (use only o
 437:funsape/peripheral/../globalDefines.hpp ****     // LCD_GENERIC_ERROR_9                                 = 0x00C9,   // Generic error (use only o
 438:funsape/peripheral/../globalDefines.hpp ****     // LCD_GENERIC_ERROR_10                                = 0x00CA,   // Generic error (use only o
 439:funsape/peripheral/../globalDefines.hpp ****     // LCD_GENERIC_ERROR_11                                = 0x00CB,   // Generic error (use only o
 440:funsape/peripheral/../globalDefines.hpp ****     // LCD_GENERIC_ERROR_12                                = 0x00CC,   // Generic error (use only o
 441:funsape/peripheral/../globalDefines.hpp ****     // LCD_GENERIC_ERROR_13                                = 0x00CD,   // Generic error (use only o
GAS LISTING C:\Users\kenne\AppData\Local\Temp\ccmiL9m5.s 			page 9


 442:funsape/peripheral/../globalDefines.hpp ****     // LCD_GENERIC_ERROR_14                                = 0x00CE,   // Generic error (use only o
 443:funsape/peripheral/../globalDefines.hpp ****     // LCD_GENERIC_ERROR_15                                = 0x00CF,   // Generic error (use only o
 444:funsape/peripheral/../globalDefines.hpp **** 
 445:funsape/peripheral/../globalDefines.hpp ****     // GPIO related error codes
 446:funsape/peripheral/../globalDefines.hpp ****     GPIO_PORT_NOT_SET                                   = 0x00D0,   // Gpio port was not set before
 447:funsape/peripheral/../globalDefines.hpp ****     GPIO_DATA_PORT_NOT_SET                              = 0x00D1,   // Gpio data port was not set b
 448:funsape/peripheral/../globalDefines.hpp ****     GPIO_CONTROL_PORT_NOT_SET                           = 0x00D2,   // Gpio control port was not se
 449:funsape/peripheral/../globalDefines.hpp ****     GPIO_PORT_INVALID                                   = 0x00D3,   // Gpio port address is invalid
 450:funsape/peripheral/../globalDefines.hpp ****     GPIO_DATA_PORT_INVALID                              = 0x00D4,   // Gpio data port address is in
 451:funsape/peripheral/../globalDefines.hpp ****     GPIO_CONTROL_PORT_INVALID                           = 0x00D5,   // Gpio control port address is
 452:funsape/peripheral/../globalDefines.hpp ****     GPIO_PIN_INDEX_INVALID                              = 0x00D6,   // Invalid GPIO Pin
 453:funsape/peripheral/../globalDefines.hpp ****     GPIO_PIN_INDEX_OUT_OF_BOUNDARIES                    = 0x00D7,   // Gpio pin index was out of bo
 454:funsape/peripheral/../globalDefines.hpp ****     // GPIO_NO_PIN_SET                                     = 0x00D8,   // No pin selected at Gpio p
 455:funsape/peripheral/../globalDefines.hpp ****     // GPIO_ADDRESS_INVALID                                = 0x00D9,   // Invalid GPIO Port
 456:funsape/peripheral/../globalDefines.hpp ****     // GPIO_PORT_LOGIC_CONTENTION                          = 0x00DA,   // TODO: Describe parameter
 457:funsape/peripheral/../globalDefines.hpp ****     // GPIO_GENERIC_ERROR_11                               = 0x00DB,   // Generic error (use only o
 458:funsape/peripheral/../globalDefines.hpp ****     // GPIO_GENERIC_ERROR_12                               = 0x00DC,   // Generic error (use only o
 459:funsape/peripheral/../globalDefines.hpp ****     // GPIO_GENERIC_ERROR_13                               = 0x00DD,   // Generic error (use only o
 460:funsape/peripheral/../globalDefines.hpp ****     // GPIO_GENERIC_ERROR_14                               = 0x00DE,   // Generic error (use only o
 461:funsape/peripheral/../globalDefines.hpp ****     // GPIO_GENERIC_ERROR_15                               = 0x00DF,   // Generic error (use only o
 462:funsape/peripheral/../globalDefines.hpp **** 
 463:funsape/peripheral/../globalDefines.hpp ****     // HAL related error codes
 464:funsape/peripheral/../globalDefines.hpp ****     // HAL_UNKNOWN_ERROR                                   = 0x00E0,   // TODO: Describe parameter
 465:funsape/peripheral/../globalDefines.hpp ****     // HAL_STATUS_ERROR                                    = 0x00E1,   // TODO: Describe parameter
 466:funsape/peripheral/../globalDefines.hpp ****     // HAL_STATUS_BUSY                                     = 0x00E2,   // TODO: Describe parameter
 467:funsape/peripheral/../globalDefines.hpp ****     // HAL_STATUS_TIMEOUT                                  = 0x00E3,   // TODO: Describe parameter
 468:funsape/peripheral/../globalDefines.hpp ****     // HAL_GENERIC_ERROR_4                                 = 0x00E4,   // Generic error (use only o
 469:funsape/peripheral/../globalDefines.hpp ****     // HAL_GENERIC_ERROR_5                                 = 0x00E5,   // Generic error (use only o
 470:funsape/peripheral/../globalDefines.hpp ****     // HAL_GENERIC_ERROR_6                                 = 0x00E6,   // Generic error (use only o
 471:funsape/peripheral/../globalDefines.hpp ****     // HAL_GENERIC_ERROR_7                                 = 0x00E7,   // Generic error (use only o
 472:funsape/peripheral/../globalDefines.hpp ****     // HAL_GENERIC_ERROR_8                                 = 0x00E8,   // Generic error (use only o
 473:funsape/peripheral/../globalDefines.hpp ****     // HAL_GENERIC_ERROR_9                                 = 0x00E9,   // Generic error (use only o
 474:funsape/peripheral/../globalDefines.hpp ****     // HAL_GENERIC_ERROR_10                                = 0x00EA,   // Generic error (use only o
 475:funsape/peripheral/../globalDefines.hpp ****     // HAL_GENERIC_ERROR_11                                = 0x00EB,   // Generic error (use only o
 476:funsape/peripheral/../globalDefines.hpp ****     // HAL_GENERIC_ERROR_12                                = 0x00EC,   // Generic error (use only o
 477:funsape/peripheral/../globalDefines.hpp ****     // HAL_GENERIC_ERROR_13                                = 0x00ED,   // Generic error (use only o
 478:funsape/peripheral/../globalDefines.hpp ****     // HAL_GENERIC_ERROR_14                                = 0x00EE,   // Generic error (use only o
 479:funsape/peripheral/../globalDefines.hpp ****     // HAL_GENERIC_ERROR_15                                = 0x00EF,   // Generic error (use only o
 480:funsape/peripheral/../globalDefines.hpp **** 
 481:funsape/peripheral/../globalDefines.hpp ****     // System related error codes
 482:funsape/peripheral/../globalDefines.hpp ****     // SYSTEM_US_TIMER_HANDLER_NULL                        = 0x00F0,   // TODO: Describe parameter
 483:funsape/peripheral/../globalDefines.hpp ****     // SYSTEM_GENERIC_ERROR_1                              = 0x00F1,   // Generic error (use only o
 484:funsape/peripheral/../globalDefines.hpp ****     // SYSTEM_GENERIC_ERROR_2                              = 0x00F2,   // Generic error (use only o
 485:funsape/peripheral/../globalDefines.hpp ****     // SYSTEM_GENERIC_ERROR_3                              = 0x00F3,   // Generic error (use only o
 486:funsape/peripheral/../globalDefines.hpp ****     // SYSTEM_GENERIC_ERROR_4                              = 0x00F4,   // Generic error (use only o
 487:funsape/peripheral/../globalDefines.hpp ****     // SYSTEM_GENERIC_ERROR_5                              = 0x00F5,   // Generic error (use only o
 488:funsape/peripheral/../globalDefines.hpp ****     // SYSTEM_GENERIC_ERROR_6                              = 0x00F6,   // Generic error (use only o
 489:funsape/peripheral/../globalDefines.hpp ****     // SYSTEM_GENERIC_ERROR_7                              = 0x00F7,   // Generic error (use only o
 490:funsape/peripheral/../globalDefines.hpp ****     // SYSTEM_GENERIC_ERROR_8                              = 0x00F8,   // Generic error (use only o
 491:funsape/peripheral/../globalDefines.hpp ****     // SYSTEM_GENERIC_ERROR_9                              = 0x00F9,   // Generic error (use only o
 492:funsape/peripheral/../globalDefines.hpp ****     // SYSTEM_GENERIC_ERROR_10                             = 0x00FA,   // Generic error (use only o
 493:funsape/peripheral/../globalDefines.hpp ****     // SYSTEM_GENERIC_ERROR_11                             = 0x00FB,   // Generic error (use only o
 494:funsape/peripheral/../globalDefines.hpp ****     // SYSTEM_GENERIC_ERROR_12                             = 0x00FC,   // Generic error (use only o
 495:funsape/peripheral/../globalDefines.hpp ****     // SYSTEM_GENERIC_ERROR_13                             = 0x00FD,   // Generic error (use only o
 496:funsape/peripheral/../globalDefines.hpp ****     // SYSTEM_GENERIC_ERROR_14                             = 0x00FE,   // Generic error (use only o
 497:funsape/peripheral/../globalDefines.hpp ****     // SYSTEM_GENERIC_ERROR_15                             = 0x00FF,   // Generic error (use only o
 498:funsape/peripheral/../globalDefines.hpp **** 
GAS LISTING C:\Users\kenne\AppData\Local\Temp\ccmiL9m5.s 			page 10


 499:funsape/peripheral/../globalDefines.hpp ****     // FatFs related error codes
 500:funsape/peripheral/../globalDefines.hpp ****     // FAT_FS_UNKNOWN_ERROR                                = 0x0100,   // TODO: Describe parameter
 501:funsape/peripheral/../globalDefines.hpp ****     // FAT_FS_DRIVE_UNSUPPORTED                            = 0x0101,   // TODO: Describe parameter
 502:funsape/peripheral/../globalDefines.hpp ****     // FAT_FS_DISK_NOT_INSERTED                            = 0x0102,   // TODO: Describe parameter
 503:funsape/peripheral/../globalDefines.hpp ****     // FAT_FS_INITIALIZATION_FAILED                        = 0x0103,   // TODO: Describe parameter
 504:funsape/peripheral/../globalDefines.hpp ****     // FAT_FS_GENERIC_ERROR_4                              = 0x0104,   // Generic error (use only o
 505:funsape/peripheral/../globalDefines.hpp ****     // FAT_FS_GENERIC_ERROR_5                              = 0x0105,   // Generic error (use only o
 506:funsape/peripheral/../globalDefines.hpp ****     // FAT_FS_GENERIC_ERROR_6                              = 0x0106,   // Generic error (use only o
 507:funsape/peripheral/../globalDefines.hpp ****     // FAT_FS_GENERIC_ERROR_7                              = 0x0107,   // Generic error (use only o
 508:funsape/peripheral/../globalDefines.hpp ****     // FAT_FS_GENERIC_ERROR_8                              = 0x0108,   // Generic error (use only o
 509:funsape/peripheral/../globalDefines.hpp ****     // FAT_FS_GENERIC_ERROR_9                              = 0x0109,   // Generic error (use only o
 510:funsape/peripheral/../globalDefines.hpp ****     // FAT_FS_GENERIC_ERROR_10                             = 0x010A,   // Generic error (use only o
 511:funsape/peripheral/../globalDefines.hpp ****     // FAT_FS_GENERIC_ERROR_11                             = 0x010B,   // Generic error (use only o
 512:funsape/peripheral/../globalDefines.hpp ****     // FAT_FS_GENERIC_ERROR_12                             = 0x010C,   // Generic error (use only o
 513:funsape/peripheral/../globalDefines.hpp ****     // FAT_FS_GENERIC_ERROR_13                             = 0x010D,   // Generic error (use only o
 514:funsape/peripheral/../globalDefines.hpp ****     // FAT_FS_GENERIC_ERROR_14                             = 0x010E,   // Generic error (use only o
 515:funsape/peripheral/../globalDefines.hpp ****     // FAT_FS_GENERIC_ERROR_15                             = 0x010F,   // Generic error (use only o
 516:funsape/peripheral/../globalDefines.hpp **** 
 517:funsape/peripheral/../globalDefines.hpp ****     // Uncategorized error codes
 518:funsape/peripheral/../globalDefines.hpp ****     // LCD_OUT_OF_BOUNDARIES                               = 0xFFF1,   // TODO: Describe parameter
 519:funsape/peripheral/../globalDefines.hpp ****     // CONTROLLER_NOT_SUPPORTED                            = 0xFFF2,   // Unsupported controller
 520:funsape/peripheral/../globalDefines.hpp ****     // DEVICE_ID_MATCH_FAILED                              = 0xFFF3,   // Device ID doesn't match
 521:funsape/peripheral/../globalDefines.hpp ****     // DMA_NOT_SUPPORTED                                   = 0xFFF4,   // DMA interface mode is not
 522:funsape/peripheral/../globalDefines.hpp ****     // DMA_TRANSFER_ERROR                                  = 0xFFF5,   // DMA transfer error
 523:funsape/peripheral/../globalDefines.hpp ****     // MESSAGE_TOO_LONG                                    = 0xFFF6,   // Message is to long to be 
 524:funsape/peripheral/../globalDefines.hpp ****     // VALID_DATA_NOT_AVAILABLE                            = 0xFFF7,   // Valid data was unavailabl
 525:funsape/peripheral/../globalDefines.hpp ****     // PERIPHERAL_NOT_READY                                = 0xFFF8,   // TODO: Describe parameter
 526:funsape/peripheral/../globalDefines.hpp ****     // STOPWATCH_NOT_STARTED                               = 0xFFF9,   // TODO: Describe parameter
 527:funsape/peripheral/../globalDefines.hpp ****     // UNCATEGORIZED_GENERIC_ERROR_10                      = 0xFFFA,   // Generic error (use only o
 528:funsape/peripheral/../globalDefines.hpp ****     // UNCATEGORIZED_GENERIC_ERROR_11                      = 0xFFFB,   // Generic error (use only o
 529:funsape/peripheral/../globalDefines.hpp ****     // UNCATEGORIZED_GENERIC_ERROR_12                      = 0xFFFC,   // Generic error (use only o
 530:funsape/peripheral/../globalDefines.hpp ****     // UNCATEGORIZED_GENERIC_ERROR_13                      = 0xFFFD,   // Generic error (use only o
 531:funsape/peripheral/../globalDefines.hpp ****     // UNCATEGORIZED_GENERIC_ERROR_14                      = 0xFFFE,   // Generic error (use only o
 532:funsape/peripheral/../globalDefines.hpp **** 
 533:funsape/peripheral/../globalDefines.hpp ****     KEYPAD_COLUMNS_PIN_INDEX_INVALID                    = 0xFFF9,
 534:funsape/peripheral/../globalDefines.hpp ****     KEYPAD_LINES_PIN_INDEX_INVALID                      = 0xFFFA,
 535:funsape/peripheral/../globalDefines.hpp **** 
 536:funsape/peripheral/../globalDefines.hpp ****     KEYPAD_LINES_GPIO_PORT_INVALID                      = 0xFFFB,
 537:funsape/peripheral/../globalDefines.hpp ****     KEYPAD_COLUMNS_GPIO_PORT_INVALID                    = 0xFFFC,
 538:funsape/peripheral/../globalDefines.hpp ****     KEYPAD_TYPE_UNSUPPORTED                             = 0xFFFD,
 539:funsape/peripheral/../globalDefines.hpp ****     KEY_VALUES_NOT_SET                                  = 0xFFFE,
 540:funsape/peripheral/../globalDefines.hpp ****     // "I don't have the slightest idea" error code
 541:funsape/peripheral/../globalDefines.hpp ****     UNKNOWN                                             = 0xFFFF,   // Unknown error - Ops!!!!
 542:funsape/peripheral/../globalDefines.hpp **** };
 543:funsape/peripheral/../globalDefines.hpp **** 
 544:funsape/peripheral/../globalDefines.hpp **** // =============================================================================
 545:funsape/peripheral/../globalDefines.hpp **** // Macrofunctions
 546:funsape/peripheral/../globalDefines.hpp **** // =============================================================================
 547:funsape/peripheral/../globalDefines.hpp **** 
 548:funsape/peripheral/../globalDefines.hpp **** //     //////////////////////     DATA VALIDITY    //////////////////////     //
 549:funsape/peripheral/../globalDefines.hpp **** #define isGpioAddressValid(gpioPort)    (       \
 550:funsape/peripheral/../globalDefines.hpp ****         (IS_GPIO_ALL_INSTANCE(gpioPort))        \
 551:funsape/peripheral/../globalDefines.hpp ****         ? (bool_t)true                          \
 552:funsape/peripheral/../globalDefines.hpp ****         : (bool_t)false)
 553:funsape/peripheral/../globalDefines.hpp **** #define isGpioPinIndexValid(gpioPin)    (       \
 554:funsape/peripheral/../globalDefines.hpp ****         (IS_GPIO_ALL_PIN_NUMBER(gpioPin))       \
 555:funsape/peripheral/../globalDefines.hpp ****         ? (bool_t)true                          \
GAS LISTING C:\Users\kenne\AppData\Local\Temp\ccmiL9m5.s 			page 11


 556:funsape/peripheral/../globalDefines.hpp ****         : (bool_t)false)
 557:funsape/peripheral/../globalDefines.hpp **** #define isPointerValid(ptr)             (       \
 558:funsape/peripheral/../globalDefines.hpp ****         ((void *)(ptr))                         \
 559:funsape/peripheral/../globalDefines.hpp ****         ? (bool_t)true                          \
 560:funsape/peripheral/../globalDefines.hpp ****         : (bool_t)false)
 561:funsape/peripheral/../globalDefines.hpp **** 
 562:funsape/peripheral/../globalDefines.hpp **** //     //////////////////////     BIT HANDLING     //////////////////////     //
 563:funsape/peripheral/../globalDefines.hpp **** #ifndef setBit
 564:funsape/peripheral/../globalDefines.hpp **** #   define setBit(reg, bit)                     ((reg) |= (1 << (bit)))
 565:funsape/peripheral/../globalDefines.hpp **** #endif
 566:funsape/peripheral/../globalDefines.hpp **** #ifndef clrBit
 567:funsape/peripheral/../globalDefines.hpp **** #   define clrBit(reg, bit)                     ((reg) &= ~(1 << (bit)))
 568:funsape/peripheral/../globalDefines.hpp **** #endif
 569:funsape/peripheral/../globalDefines.hpp **** #ifndef cplBit
 570:funsape/peripheral/../globalDefines.hpp **** #   define cplBit(reg, bit)                     ((reg) ^= (1 << (bit)))
 571:funsape/peripheral/../globalDefines.hpp **** #endif
 572:funsape/peripheral/../globalDefines.hpp **** 
 573:funsape/peripheral/../globalDefines.hpp **** //     ///////////////////////     BIT TESTING    ///////////////////////     //
 574:funsape/peripheral/../globalDefines.hpp **** #ifndef isBitSet
 575:funsape/peripheral/../globalDefines.hpp **** #   define isBitSet(reg, bit)                   (((reg) >> (bit)) & 1)
 576:funsape/peripheral/../globalDefines.hpp **** #endif
 577:funsape/peripheral/../globalDefines.hpp **** #ifndef isBitClr
 578:funsape/peripheral/../globalDefines.hpp **** #   define isBitClr(reg, bit)                   (!isBitSet(reg,bit))
 579:funsape/peripheral/../globalDefines.hpp **** #endif
 580:funsape/peripheral/../globalDefines.hpp **** 
 581:funsape/peripheral/../globalDefines.hpp **** //     ///////////////////////     BIT LOOPING    ///////////////////////     //
 582:funsape/peripheral/../globalDefines.hpp **** #ifndef waitUntilBitIsSet
 583:funsape/peripheral/../globalDefines.hpp **** #   define waitUntilBitIsSet(reg, bit)          do{     \
 584:funsape/peripheral/../globalDefines.hpp ****         doNothing();                                    \
 585:funsape/peripheral/../globalDefines.hpp ****     } while (isBitClr((reg), (bit)))
 586:funsape/peripheral/../globalDefines.hpp **** #endif
 587:funsape/peripheral/../globalDefines.hpp **** #ifndef waitUntilBitIsClear
 588:funsape/peripheral/../globalDefines.hpp **** #   define waitUntilBitIsClear(reg, bit)        do{     \
 589:funsape/peripheral/../globalDefines.hpp ****         doNothing();                                    \
 590:funsape/peripheral/../globalDefines.hpp ****     }while(isBitSet((reg), (bit)))
 591:funsape/peripheral/../globalDefines.hpp **** #endif
 592:funsape/peripheral/../globalDefines.hpp **** 
 593:funsape/peripheral/../globalDefines.hpp **** //     ////////////////////     BIT MASK HANDLING    ////////////////////     //
 594:funsape/peripheral/../globalDefines.hpp **** #ifndef setMask
 595:funsape/peripheral/../globalDefines.hpp **** #   define setMask(reg, mask)                   ((reg) |= (mask))
 596:funsape/peripheral/../globalDefines.hpp **** #endif
 597:funsape/peripheral/../globalDefines.hpp **** #ifndef clrMask
 598:funsape/peripheral/../globalDefines.hpp **** #   define clrMask(reg, mask)                   ((reg) &= ~(mask))
 599:funsape/peripheral/../globalDefines.hpp **** #endif
 600:funsape/peripheral/../globalDefines.hpp **** #ifndef cplMask
 601:funsape/peripheral/../globalDefines.hpp **** #   define cplMask(reg, mask)                   ((reg) ^= (mask))
 602:funsape/peripheral/../globalDefines.hpp **** #endif
 603:funsape/peripheral/../globalDefines.hpp **** 
 604:funsape/peripheral/../globalDefines.hpp **** //     ////////////////     BIT MASK OFFSET HANDLING     ////////////////     //
 605:funsape/peripheral/../globalDefines.hpp **** #ifndef setMaskOffset
 606:funsape/peripheral/../globalDefines.hpp **** #   define setMaskOffset(reg, mask, offset)     ((reg) |= ((mask) << (offset)))
 607:funsape/peripheral/../globalDefines.hpp **** #endif
 608:funsape/peripheral/../globalDefines.hpp **** #ifndef clrMaskOffset
 609:funsape/peripheral/../globalDefines.hpp **** #   define clrMaskOffset(reg, mask, offset)     ((reg) &= ~((mask) << (offset)))
 610:funsape/peripheral/../globalDefines.hpp **** #endif
 611:funsape/peripheral/../globalDefines.hpp **** #ifndef cplMaskOffset
 612:funsape/peripheral/../globalDefines.hpp **** #   define cplMaskOffset(reg, mask, offset)     ((reg) ^= ((mask) << (offset)))
GAS LISTING C:\Users\kenne\AppData\Local\Temp\ccmiL9m5.s 			page 12


 613:funsape/peripheral/../globalDefines.hpp **** #endif
 614:funsape/peripheral/../globalDefines.hpp **** 
 615:funsape/peripheral/../globalDefines.hpp **** //     /////////////     DATA MANIPULATION (8-BITS WIDE)    /////////////     //
 616:funsape/peripheral/../globalDefines.hpp **** #define byteGetNibble1(dataByte)        (((dataByte) >> 4) & 0x0F)
 617:funsape/peripheral/../globalDefines.hpp **** #define byteGetNibble0(dataByte)        ((dataByte) & 0x0F)
 618:funsape/peripheral/../globalDefines.hpp **** #define byteSwitchNibbles(dataByte)     ((byteGetNibble0(dataByte) << 4) | \
 619:funsape/peripheral/../globalDefines.hpp ****         (byteGetNibble1(dataByte)))
 620:funsape/peripheral/../globalDefines.hpp **** 
 621:funsape/peripheral/../globalDefines.hpp **** //     ////////////     DATA MANIPULATION (16-BITS WIDE)     ////////////     //
 622:funsape/peripheral/../globalDefines.hpp **** #define hwordGetByte1(dataHword)        (((dataHword) >> 8) & 0x00FF)
 623:funsape/peripheral/../globalDefines.hpp **** #define hwordGetByte0(dataHword)        ((dataHword) & 0x00FF)
 624:funsape/peripheral/../globalDefines.hpp **** #define hwordSwitchBytes(dataHword)     ((hwordGetByte0(dataHword) << 8) | \
 625:funsape/peripheral/../globalDefines.hpp ****         (hwordGetByte1(dataHword)))
 626:funsape/peripheral/../globalDefines.hpp **** 
 627:funsape/peripheral/../globalDefines.hpp **** //     ////////////     DATA MANIPULATION (32-BITS WIDE)     ////////////     //
 628:funsape/peripheral/../globalDefines.hpp **** #define wordGetByte3(dataWord)          (((dataWord) >> 24) & 0x000000FF)
 629:funsape/peripheral/../globalDefines.hpp **** #define wordGetByte2(dataWord)          (((dataWord) >> 16) & 0x000000FF)
 630:funsape/peripheral/../globalDefines.hpp **** #define wordGetByte1(dataWord)          (((dataWord) >> 8) & 0x000000FF)
 631:funsape/peripheral/../globalDefines.hpp **** #define wordGetByte0(dataWord)          ((dataWord) & 0x000000FF)
 632:funsape/peripheral/../globalDefines.hpp **** #define wordSwitchBytes(dataWord)       ((wordGetByte0(dataWord) << 24)  | \
 633:funsape/peripheral/../globalDefines.hpp ****         (wordGetByte1(dataWord) << 16) | \
 634:funsape/peripheral/../globalDefines.hpp ****         (wordGetByte2(dataWord) << 8)  | \
 635:funsape/peripheral/../globalDefines.hpp ****         (wordGetByte3(dataWord)))
 636:funsape/peripheral/../globalDefines.hpp **** #define wordGetHword1(dataWord)         (((dataWord) >> 16) & 0x0000FFFF)
 637:funsape/peripheral/../globalDefines.hpp **** #define wordGetHword0(dataWord)         ((dataWord) & 0x0000FFFF)
 638:funsape/peripheral/../globalDefines.hpp **** #define wordSwitchHwords(dataWord)      ((wordGetHword0(dataWord) << 16) | \
 639:funsape/peripheral/../globalDefines.hpp ****         (wordGetHword1(dataWord)))
 640:funsape/peripheral/../globalDefines.hpp **** 
 641:funsape/peripheral/../globalDefines.hpp **** //     ////////////     DATA MANIPULATION (64-BITS WIDE)     ////////////     //
 642:funsape/peripheral/../globalDefines.hpp **** #define dwordGetByte7(dataDword)        (((dataDword) >> 56) & 0x00000000000000FF)
 643:funsape/peripheral/../globalDefines.hpp **** #define dwordGetByte6(dataDword)        (((dataDword) >> 48) & 0x00000000000000FF)
 644:funsape/peripheral/../globalDefines.hpp **** #define dwordGetByte5(dataDword)        (((dataDword) >> 40) & 0x00000000000000FF)
 645:funsape/peripheral/../globalDefines.hpp **** #define dwordGetByte4(dataDword)        (((dataDword) >> 32) & 0x00000000000000FF)
 646:funsape/peripheral/../globalDefines.hpp **** #define dwordGetByte3(dataDword)        (((dataDword) >> 24) & 0x00000000000000FF)
 647:funsape/peripheral/../globalDefines.hpp **** #define dwordGetByte2(dataDword)        (((dataDword) >> 16) & 0x00000000000000FF)
 648:funsape/peripheral/../globalDefines.hpp **** #define dwordGetByte1(dataDword)        (((dataDword) >> 8) & 0x00000000000000FF)
 649:funsape/peripheral/../globalDefines.hpp **** #define dwordGetByte0(dataDword)        ((dataDword) & 0x00000000000000FF)
 650:funsape/peripheral/../globalDefines.hpp **** #define dwordSwitchBytes(dataDword)     ((dwordGetByte0(dataDword) << 56)  | \
 651:funsape/peripheral/../globalDefines.hpp ****         (dwordGetByte1(dataDword) << 48) | \
 652:funsape/peripheral/../globalDefines.hpp ****         (dwordGetByte2(dataDword) << 40) | \
 653:funsape/peripheral/../globalDefines.hpp ****         (dwordGetByte3(dataDword) << 32) | \
 654:funsape/peripheral/../globalDefines.hpp ****         (dwordGetByte4(dataDword) << 24) | \
 655:funsape/peripheral/../globalDefines.hpp ****         (dwordGetByte5(dataDword) << 16) | \
 656:funsape/peripheral/../globalDefines.hpp ****         (dwordGetByte6(dataDword) << 8)  | \
 657:funsape/peripheral/../globalDefines.hpp ****         (dwordGetByte7(dataDword)))
 658:funsape/peripheral/../globalDefines.hpp **** #define dwordGetHword3(dataDword)       ((dataDword >> 48) & 0x000000000000FFFF)
 659:funsape/peripheral/../globalDefines.hpp **** #define dwordGetHword2(dataDword)       ((dataDword >> 32) & 0x000000000000FFFF)
 660:funsape/peripheral/../globalDefines.hpp **** #define dwordGetHword1(dataDword)       ((dataDword >> 16) & 0x000000000000FFFF)
 661:funsape/peripheral/../globalDefines.hpp **** #define dwordGetHword0(dataDword)       ((dataDword >> 0) & 0x000000000000FFFF)
 662:funsape/peripheral/../globalDefines.hpp **** #define dwordSwitchHwords(dataDword)    ((dwordGetHword0(dataDword) << 48)  | \
 663:funsape/peripheral/../globalDefines.hpp ****         (dwordGetHword1(dataDword) << 32) | \
 664:funsape/peripheral/../globalDefines.hpp ****         (dwordGetHword2(dataDword) << 16) | \
 665:funsape/peripheral/../globalDefines.hpp ****         (dwordGetHword3(dataDword)))
 666:funsape/peripheral/../globalDefines.hpp **** #define dwordGetWord1(dataDword)         (((dataDword) >> 32) & 0x00000000FFFFFFFF)
 667:funsape/peripheral/../globalDefines.hpp **** #define dwordGetWord0(dataDword)         ((dataDword) & 0x00000000FFFFFFFF)
 668:funsape/peripheral/../globalDefines.hpp **** #define dwordSwitchWords(dataDword)     ((dwordGetWord0(dataDword) << 32)  | \
 669:funsape/peripheral/../globalDefines.hpp ****         (dwordGetWord1(dataDword)))
GAS LISTING C:\Users\kenne\AppData\Local\Temp\ccmiL9m5.s 			page 13


 670:funsape/peripheral/../globalDefines.hpp **** 
 671:funsape/peripheral/../globalDefines.hpp **** //     /////////////////////     TRUNCATE VALUES    /////////////////////     //
 672:funsape/peripheral/../globalDefines.hpp **** #define getMaximumOf(var1, var2)        (       \
 673:funsape/peripheral/../globalDefines.hpp ****         ((var1) > (var2))                       \
 674:funsape/peripheral/../globalDefines.hpp ****         ? (var1)                                \
 675:funsape/peripheral/../globalDefines.hpp ****         : (var2))
 676:funsape/peripheral/../globalDefines.hpp **** #define getMinimumOf(var1, var2)        (       \
 677:funsape/peripheral/../globalDefines.hpp ****         ((var1) < (var2))                       \
 678:funsape/peripheral/../globalDefines.hpp ****         ? (var1)                                \
 679:funsape/peripheral/../globalDefines.hpp ****         : (var2))
 680:funsape/peripheral/../globalDefines.hpp **** #define truncateBetween(var, min, max)  (       \
 681:funsape/peripheral/../globalDefines.hpp ****         ((var) < (min))                         \
 682:funsape/peripheral/../globalDefines.hpp ****         ? (min)                                 \
 683:funsape/peripheral/../globalDefines.hpp ****         : (((var) > (max))                      \
 684:funsape/peripheral/../globalDefines.hpp ****                 ? (max)                         \
 685:funsape/peripheral/../globalDefines.hpp ****                 : (var)                         \
 686:funsape/peripheral/../globalDefines.hpp ****         ))
 687:funsape/peripheral/../globalDefines.hpp **** 
 688:funsape/peripheral/../globalDefines.hpp **** //     //////////////////////     STRINGIFYING    ///////////////////////     //
 689:funsape/peripheral/../globalDefines.hpp **** #define stringifyName(constant)         #constant
 690:funsape/peripheral/../globalDefines.hpp **** #define stringifyValue(constant)        stringifyName(constant)
 691:funsape/peripheral/../globalDefines.hpp **** 
 692:funsape/peripheral/../globalDefines.hpp **** // =============================================================================
 693:funsape/peripheral/../globalDefines.hpp **** // Extern global variables
 694:funsape/peripheral/../globalDefines.hpp **** // =============================================================================
 695:funsape/peripheral/../globalDefines.hpp **** 
 696:funsape/peripheral/../globalDefines.hpp **** // NONE
 697:funsape/peripheral/../globalDefines.hpp **** 
 698:funsape/peripheral/../globalDefines.hpp **** // =============================================================================
 699:funsape/peripheral/../globalDefines.hpp **** // Inline functions declaration
 700:funsape/peripheral/../globalDefines.hpp **** // =============================================================================
 701:funsape/peripheral/../globalDefines.hpp **** 
 702:funsape/peripheral/../globalDefines.hpp **** //     ///////////////////     CHARACTER HANDLING    ////////////////////     //
 703:funsape/peripheral/../globalDefines.hpp **** char_t inlined toLowerCase(cchar_t character_p);
 704:funsape/peripheral/../globalDefines.hpp **** char_t inlined toUpperCase(cchar_t character_p);
 705:funsape/peripheral/../globalDefines.hpp **** 
 706:funsape/peripheral/../globalDefines.hpp **** //     /////////////////////     DATA VALIDITY     //////////////////////     //
 707:funsape/peripheral/../globalDefines.hpp **** bool_t inlined isAsciiLowerCaseLetter(cchar_t character_p);
 708:funsape/peripheral/../globalDefines.hpp **** bool_t inlined isAsciiUpperCaseLetter(cchar_t character_p);
 709:funsape/peripheral/../globalDefines.hpp **** bool_t inlined isAsciiCommand(cchar_t character_p);
 710:funsape/peripheral/../globalDefines.hpp **** bool_t inlined isAsciiLetter(cchar_t character_p);
 711:funsape/peripheral/../globalDefines.hpp **** bool_t inlined isAsciiNumber(cchar_t character_p);
 712:funsape/peripheral/../globalDefines.hpp **** bool_t inlined isAsciiSymbol(cchar_t character_p);
 713:funsape/peripheral/../globalDefines.hpp **** 
 714:funsape/peripheral/../globalDefines.hpp **** //     /////////////////////     SYSTEM ACTIONS    //////////////////////     //
 715:funsape/peripheral/../globalDefines.hpp **** void inlined die(Error errorCode_p);
 716:funsape/peripheral/../globalDefines.hpp **** void inlined doNop(void);
 717:funsape/peripheral/../globalDefines.hpp **** void inlined doNothing(void);
 718:funsape/peripheral/../globalDefines.hpp **** void inlined systemHalt(void (*function_p)(void) = nullptr);
 719:funsape/peripheral/../globalDefines.hpp **** 
 720:funsape/peripheral/../globalDefines.hpp **** // =============================================================================
 721:funsape/peripheral/../globalDefines.hpp **** // Inline functions definitions
 722:funsape/peripheral/../globalDefines.hpp **** // =============================================================================
 723:funsape/peripheral/../globalDefines.hpp **** 
 724:funsape/peripheral/../globalDefines.hpp **** //     ///////////////////     CHARACTER HANDLING    ////////////////////     //
 725:funsape/peripheral/../globalDefines.hpp **** char_t inlined toLowerCase(cchar_t character_p)
 726:funsape/peripheral/../globalDefines.hpp **** {
GAS LISTING C:\Users\kenne\AppData\Local\Temp\ccmiL9m5.s 			page 14


 727:funsape/peripheral/../globalDefines.hpp ****     return ((isAsciiUpperCaseLetter(character_p)) ? (character_p + 0x20) : character_p);
 728:funsape/peripheral/../globalDefines.hpp **** }
 729:funsape/peripheral/../globalDefines.hpp **** 
 730:funsape/peripheral/../globalDefines.hpp **** char_t inlined toUpperCase(cchar_t character_p)
 731:funsape/peripheral/../globalDefines.hpp **** {
 732:funsape/peripheral/../globalDefines.hpp ****     return ((isAsciiLowerCaseLetter(character_p)) ? (character_p - 0x20) : character_p);
 733:funsape/peripheral/../globalDefines.hpp **** }
 734:funsape/peripheral/../globalDefines.hpp **** 
 735:funsape/peripheral/../globalDefines.hpp **** //     /////////////////////     DATA VALIDITY     //////////////////////     //
 736:funsape/peripheral/../globalDefines.hpp **** bool_t inlined isAsciiLowerCaseLetter(cchar_t character_p)
 737:funsape/peripheral/../globalDefines.hpp **** {
 738:funsape/peripheral/../globalDefines.hpp ****     return ((bool_t)(((character_p >= 'a') && (character_p <= 'z')) ? true : false));
 739:funsape/peripheral/../globalDefines.hpp **** }
 740:funsape/peripheral/../globalDefines.hpp **** 
 741:funsape/peripheral/../globalDefines.hpp **** bool_t inlined isAsciiUpperCaseLetter(cchar_t character_p)
 742:funsape/peripheral/../globalDefines.hpp **** {
 743:funsape/peripheral/../globalDefines.hpp ****     return ((bool_t)(((character_p >= 'A') && (character_p <= 'Z')) ? true : false));
 744:funsape/peripheral/../globalDefines.hpp **** }
 745:funsape/peripheral/../globalDefines.hpp **** 
 746:funsape/peripheral/../globalDefines.hpp **** bool_t inlined isAsciiCommand(cchar_t character_p)
 747:funsape/peripheral/../globalDefines.hpp **** {
 748:funsape/peripheral/../globalDefines.hpp ****     return ((bool_t)((character_p < ' ') ? true : false));
 749:funsape/peripheral/../globalDefines.hpp **** }
 750:funsape/peripheral/../globalDefines.hpp **** 
 751:funsape/peripheral/../globalDefines.hpp **** bool_t inlined isAsciiLetter(cchar_t character_p)
 752:funsape/peripheral/../globalDefines.hpp **** {
 753:funsape/peripheral/../globalDefines.hpp ****     return ((bool_t)((isAsciiLowerCaseLetter(character_p) || (isAsciiUpperCaseLetter(character_p)) 
 754:funsape/peripheral/../globalDefines.hpp **** }
 755:funsape/peripheral/../globalDefines.hpp **** 
 756:funsape/peripheral/../globalDefines.hpp **** bool_t inlined isAsciiNumber(cchar_t character_p)
 757:funsape/peripheral/../globalDefines.hpp **** {
 758:funsape/peripheral/../globalDefines.hpp ****     return ((bool_t)(((character_p >= '0') && (character_p <= '9')) ? true : false));
 759:funsape/peripheral/../globalDefines.hpp **** }
 760:funsape/peripheral/../globalDefines.hpp **** 
 761:funsape/peripheral/../globalDefines.hpp **** bool_t inlined isAsciiSymbol(cchar_t character_p)
 762:funsape/peripheral/../globalDefines.hpp **** {
 763:funsape/peripheral/../globalDefines.hpp ****     return ((bool_t)(((!isAsciiNumber(character_p)) && (!isAsciiCommand(character_p)) &&
 764:funsape/peripheral/../globalDefines.hpp ****                                     (!isAsciiLetter(character_p))) ? true : false));
 765:funsape/peripheral/../globalDefines.hpp **** }
 766:funsape/peripheral/../globalDefines.hpp **** 
 767:funsape/peripheral/../globalDefines.hpp **** //     /////////////////////     SYSTEM ACTIONS    //////////////////////     //
 768:funsape/peripheral/../globalDefines.hpp **** void inlined die(Error errorCode_p)
 769:funsape/peripheral/../globalDefines.hpp **** {
 770:funsape/peripheral/../globalDefines.hpp ****     printf("Failed with error=%u (0x%04x).\r", (cuint16_t)errorCode_p, (cuint16_t)errorCode_p);
 771:funsape/peripheral/../globalDefines.hpp ****     systemHalt();
 772:funsape/peripheral/../globalDefines.hpp **** 
 773:funsape/peripheral/../globalDefines.hpp ****     return;
 774:funsape/peripheral/../globalDefines.hpp **** }
 775:funsape/peripheral/../globalDefines.hpp **** 
 776:funsape/peripheral/../globalDefines.hpp **** void inlined doNop(void)
 777:funsape/peripheral/../globalDefines.hpp **** {
 778:funsape/peripheral/../globalDefines.hpp ****     asm volatile("nop");
 779:funsape/peripheral/../globalDefines.hpp **** 
 780:funsape/peripheral/../globalDefines.hpp ****     return;
 781:funsape/peripheral/../globalDefines.hpp **** }
 782:funsape/peripheral/../globalDefines.hpp **** 
 783:funsape/peripheral/../globalDefines.hpp **** void inlined doNothing(void)
GAS LISTING C:\Users\kenne\AppData\Local\Temp\ccmiL9m5.s 			page 15


 784:funsape/peripheral/../globalDefines.hpp **** {
 785:funsape/peripheral/../globalDefines.hpp ****     return;
 786:funsape/peripheral/../globalDefines.hpp **** }
 787:funsape/peripheral/../globalDefines.hpp **** 
 788:funsape/peripheral/../globalDefines.hpp **** void inlined systemHalt(void (*function_p)(void))
 789:funsape/peripheral/../globalDefines.hpp **** {
 790:funsape/peripheral/../globalDefines.hpp ****     if(isPointerValid(function_p)) {
 791:funsape/peripheral/../globalDefines.hpp ****         function_p();
 792:funsape/peripheral/../globalDefines.hpp ****     }
 793:funsape/peripheral/../globalDefines.hpp ****     while(1) {
 794:funsape/peripheral/../globalDefines.hpp ****         doNothing();
 795:funsape/peripheral/../globalDefines.hpp ****     }
 796:funsape/peripheral/../globalDefines.hpp **** 
 797:funsape/peripheral/../globalDefines.hpp ****     return;
 798:funsape/peripheral/../globalDefines.hpp **** }
 799:funsape/peripheral/../globalDefines.hpp **** 
 800:funsape/peripheral/../globalDefines.hpp **** // =============================================================================
 801:funsape/peripheral/../globalDefines.hpp **** // Public functions weakly defined
 802:funsape/peripheral/../globalDefines.hpp **** // =============================================================================
 803:funsape/peripheral/../globalDefines.hpp **** 
 804:funsape/peripheral/../globalDefines.hpp **** #define delayMs(time_p)                 _delay_ms(time_p)
 805:funsape/peripheral/../globalDefines.hpp **** #define delayUs(time_p)                 _delay_us(time_p)
 806:funsape/peripheral/../globalDefines.hpp **** 
 807:funsape/peripheral/../globalDefines.hpp **** weakened uint32_t getTick(void)
 808:funsape/peripheral/../globalDefines.hpp **** {
  17               		.loc 1 808 1 view -0
  18               		.cfi_startproc
  19               	/* prologue: function */
  20               	/* frame size = 0 */
  21               	/* stack size = 0 */
  22               	.L__stack_usage = 0
 809:funsape/peripheral/../globalDefines.hpp ****     // TODO
 810:funsape/peripheral/../globalDefines.hpp ****     return 0;
  23               		.loc 1 810 5 view .LVU1
 811:funsape/peripheral/../globalDefines.hpp **** }
  24               		.loc 1 811 1 is_stmt 0 view .LVU2
  25 0000 60E0      		ldi r22,0
  26 0002 70E0      		ldi r23,0
  27 0004 CB01      		movw r24,r22
  28               	/* epilogue start */
  29 0006 0895      		ret
  30               		.cfi_endproc
  31               	.LFE32:
  33               		.section	.text._ZN3AdcC2Ev,"ax",@progbits
  34               	.global	_ZN3AdcC2Ev
  36               	_ZN3AdcC2Ev:
  37               	.LVL0:
  38               	.LFB37:
  39               		.file 2 "funsape/peripheral/adc.cpp"
   1:funsape/peripheral/adc.cpp **** //!
   2:funsape/peripheral/adc.cpp **** //! \file           adc.cpp
   3:funsape/peripheral/adc.cpp **** //! \brief          Analog-to-Digital Converter peripheral control for the FunSAPE AVR8 Library
   4:funsape/peripheral/adc.cpp **** //! \author         Leandro Schwarz (bladabuska+funsapeavr8lib@gmail.com)
   5:funsape/peripheral/adc.cpp **** //! \date           2023-04-05
   6:funsape/peripheral/adc.cpp **** //! \version        23.04
   7:funsape/peripheral/adc.cpp **** //! \copyright      license
   8:funsape/peripheral/adc.cpp **** //! \details        Analog-to-Digital Converter peripheral module control for
GAS LISTING C:\Users\kenne\AppData\Local\Temp\ccmiL9m5.s 			page 16


   9:funsape/peripheral/adc.cpp **** //!                     the FunSAPE AVR8 Library
  10:funsape/peripheral/adc.cpp **** //! \todo           Todo list
  11:funsape/peripheral/adc.cpp **** //!
  12:funsape/peripheral/adc.cpp **** 
  13:funsape/peripheral/adc.cpp **** // =============================================================================
  14:funsape/peripheral/adc.cpp **** // System file dependencies
  15:funsape/peripheral/adc.cpp **** // =============================================================================
  16:funsape/peripheral/adc.cpp **** 
  17:funsape/peripheral/adc.cpp **** #include "adc.hpp"
  18:funsape/peripheral/adc.cpp **** #if !defined(__ADC_HPP)
  19:funsape/peripheral/adc.cpp **** #    error "Header file is corrupted!"
  20:funsape/peripheral/adc.cpp **** #elif __ADC_HPP != 2304
  21:funsape/peripheral/adc.cpp **** #    error "Version mismatch between source and header files!"
  22:funsape/peripheral/adc.cpp **** #endif
  23:funsape/peripheral/adc.cpp **** 
  24:funsape/peripheral/adc.cpp **** // =============================================================================
  25:funsape/peripheral/adc.cpp **** // File exclusive - Constants
  26:funsape/peripheral/adc.cpp **** // =============================================================================
  27:funsape/peripheral/adc.cpp **** 
  28:funsape/peripheral/adc.cpp **** #define DEBUG_ADC                       0x0FFF
  29:funsape/peripheral/adc.cpp **** 
  30:funsape/peripheral/adc.cpp **** cuint8_t constChannelOffset             = MUX0;     //!< Channel bit position offset
  31:funsape/peripheral/adc.cpp **** cuint8_t constChannelMask               = 0x0F;     //!< Channel bit mask
  32:funsape/peripheral/adc.cpp **** cuint8_t constReferenceOffset           = REFS0;    //!< Reference source bit position offset
  33:funsape/peripheral/adc.cpp **** cuint8_t constReferenceMask             = 0x03;     //!< Reference source bit mask
  34:funsape/peripheral/adc.cpp **** cuint8_t constPrescalerOffset           = ADPS0;    //!< Clock prescaler bit position offset
  35:funsape/peripheral/adc.cpp **** cuint8_t constPrescalerMask             = 0x07;     //!< Clock prescaler bit mask
  36:funsape/peripheral/adc.cpp **** cuint8_t constTriggerSourceOffset       = ADTS0;    //!< Conversion trigger bit position offset
  37:funsape/peripheral/adc.cpp **** cuint8_t constTriggerSourceMask         = 0x07;     //!< Conversion trigger bit mask
  38:funsape/peripheral/adc.cpp **** 
  39:funsape/peripheral/adc.cpp **** // =============================================================================
  40:funsape/peripheral/adc.cpp **** // File exclusive - New data types
  41:funsape/peripheral/adc.cpp **** // =============================================================================
  42:funsape/peripheral/adc.cpp **** 
  43:funsape/peripheral/adc.cpp **** // NONE
  44:funsape/peripheral/adc.cpp **** 
  45:funsape/peripheral/adc.cpp **** // =============================================================================
  46:funsape/peripheral/adc.cpp **** // File exclusive - Global variables
  47:funsape/peripheral/adc.cpp **** // =============================================================================
  48:funsape/peripheral/adc.cpp **** 
  49:funsape/peripheral/adc.cpp **** Adc adc;
  50:funsape/peripheral/adc.cpp **** 
  51:funsape/peripheral/adc.cpp **** // =============================================================================
  52:funsape/peripheral/adc.cpp **** // File exclusive - Macro-functions
  53:funsape/peripheral/adc.cpp **** // =============================================================================
  54:funsape/peripheral/adc.cpp **** 
  55:funsape/peripheral/adc.cpp **** // NONE
  56:funsape/peripheral/adc.cpp **** 
  57:funsape/peripheral/adc.cpp **** // =============================================================================
  58:funsape/peripheral/adc.cpp **** // Class constructors
  59:funsape/peripheral/adc.cpp **** // =============================================================================
  60:funsape/peripheral/adc.cpp **** 
  61:funsape/peripheral/adc.cpp **** Adc::Adc()
  40               		.loc 2 61 1 is_stmt 1 view -0
  41               		.cfi_startproc
  42               	/* prologue: function */
  43               	/* frame size = 0 */
GAS LISTING C:\Users\kenne\AppData\Local\Temp\ccmiL9m5.s 			page 17


  44               	/* stack size = 0 */
  45               	.L__stack_usage = 0
  46               		.loc 2 61 1 is_stmt 0 view .LVU4
  47 0000 E82F      		mov r30,r24
  48 0002 F92F      		mov r31,r25
  49               	.LBB4:
  62:funsape/peripheral/adc.cpp **** {
  63:funsape/peripheral/adc.cpp ****     // Mark passage for debugging purpose
  64:funsape/peripheral/adc.cpp ****     debugMark("Adc::Adc(void)", DEBUG_ADC);
  50               		.loc 2 64 5 is_stmt 1 view .LVU5
  51               		.loc 2 64 43 view .LVU6
  65:funsape/peripheral/adc.cpp **** 
  66:funsape/peripheral/adc.cpp ****     // Reset data members
  67:funsape/peripheral/adc.cpp ****     this->_channel                      = Channel::CHANNEL_0;
  52               		.loc 2 67 5 view .LVU7
  53               		.loc 2 67 41 is_stmt 0 view .LVU8
  54 0004 1582      		std Z+5,__zero_reg__
  68:funsape/peripheral/adc.cpp ****     this->_dataAdjust                   = DataAdjust::RIGHT;
  55               		.loc 2 68 5 is_stmt 1 view .LVU9
  56               		.loc 2 68 41 is_stmt 0 view .LVU10
  57 0006 8085      		ldd r24,Z+8
  58               	.LVL1:
  59               		.loc 2 68 41 view .LVU11
  60 0008 8E7F      		andi r24,lo8(~(1<<0))
  61 000a 8087      		std Z+8,r24
  69:funsape/peripheral/adc.cpp ****     this->_isEnabled                    = false;
  62               		.loc 2 69 5 is_stmt 1 view .LVU12
  63               		.loc 2 69 41 is_stmt 0 view .LVU13
  64 000c 8081      		ld r24,Z
  65 000e 8E7F      		andi r24,lo8(~(1<<0))
  66 0010 8083      		st Z,r24
  70:funsape/peripheral/adc.cpp ****     this->_isInitialized                = false;
  67               		.loc 2 70 5 is_stmt 1 view .LVU14
  68               		.loc 2 70 41 is_stmt 0 view .LVU15
  69 0012 8D7F      		andi r24,lo8(~(1<<1))
  70 0014 8083      		st Z,r24
  71:funsape/peripheral/adc.cpp ****     this->_isInterruptEnabled           = false;
  71               		.loc 2 71 5 is_stmt 1 view .LVU16
  72               		.loc 2 71 41 is_stmt 0 view .LVU17
  73 0016 8B7F      		andi r24,lo8(~(1<<2))
  74 0018 8083      		st Z,r24
  72:funsape/peripheral/adc.cpp ****     this->_mode                         = Mode::SINGLE_CONVERSION;
  75               		.loc 2 72 5 is_stmt 1 view .LVU18
  76               		.loc 2 72 41 is_stmt 0 view .LVU19
  77 001a 8FE0      		ldi r24,lo8(15)
  78 001c 90E0      		ldi r25,0
  79 001e 9783      		std Z+7,r25
  80 0020 8683      		std Z+6,r24
  73:funsape/peripheral/adc.cpp ****     this->_prescaler                    = Prescaler::DISABLED;
  81               		.loc 2 73 5 is_stmt 1 view .LVU20
  82               		.loc 2 73 41 is_stmt 0 view .LVU21
  83 0022 1382      		std Z+3,__zero_reg__
  74:funsape/peripheral/adc.cpp ****     this->_reference                    = Reference::EXTERNAL;
  84               		.loc 2 74 5 is_stmt 1 view .LVU22
  85               		.loc 2 74 41 is_stmt 0 view .LVU23
  86 0024 1482      		std Z+4,__zero_reg__
  75:funsape/peripheral/adc.cpp **** 
GAS LISTING C:\Users\kenne\AppData\Local\Temp\ccmiL9m5.s 			page 18


  76:funsape/peripheral/adc.cpp ****     // Returns successfully
  77:funsape/peripheral/adc.cpp ****     this->_lastError = Error::NONE;
  87               		.loc 2 77 5 is_stmt 1 view .LVU24
  88               		.loc 2 77 22 is_stmt 0 view .LVU25
  89 0026 1282      		std Z+2,__zero_reg__
  90 0028 1182      		std Z+1,__zero_reg__
  78:funsape/peripheral/adc.cpp ****     debugMessage(Error::NONE, DEBUG_ADC);
  91               		.loc 2 78 5 is_stmt 1 view .LVU26
  92               		.loc 2 78 41 view .LVU27
  79:funsape/peripheral/adc.cpp ****     return;
  93               		.loc 2 79 5 view .LVU28
  94               	/* epilogue start */
  95               	.LBE4:
  80:funsape/peripheral/adc.cpp **** }
  96               		.loc 2 80 1 is_stmt 0 view .LVU29
  97 002a 0895      		ret
  98               		.cfi_endproc
  99               	.LFE37:
 101               	.global	_ZN3AdcC1Ev
 102               		.set	_ZN3AdcC1Ev,_ZN3AdcC2Ev
 103               		.section	.text._ZN3AdcD2Ev,"ax",@progbits
 104               	.global	_ZN3AdcD2Ev
 106               	_ZN3AdcD2Ev:
 107               	.LVL2:
 108               	.LFB40:
  81:funsape/peripheral/adc.cpp **** 
  82:funsape/peripheral/adc.cpp **** Adc::~Adc()
 109               		.loc 2 82 1 is_stmt 1 view -0
 110               		.cfi_startproc
 111               	/* prologue: function */
 112               	/* frame size = 0 */
 113               	/* stack size = 0 */
 114               	.L__stack_usage = 0
  83:funsape/peripheral/adc.cpp **** {
  84:funsape/peripheral/adc.cpp ****     // Returns successfully
  85:funsape/peripheral/adc.cpp ****     debugMessage(Error::NONE, DEBUG_ADC);
 115               		.loc 2 85 5 view .LVU31
 116               		.loc 2 85 41 view .LVU32
  86:funsape/peripheral/adc.cpp ****     return;
 117               		.loc 2 86 5 view .LVU33
 118               	/* epilogue start */
  87:funsape/peripheral/adc.cpp **** }
 119               		.loc 2 87 1 is_stmt 0 view .LVU34
 120 0000 0895      		ret
 121               		.cfi_endproc
 122               	.LFE40:
 124               	.global	_ZN3AdcD1Ev
 125               		.set	_ZN3AdcD1Ev,_ZN3AdcD2Ev
 126               		.section	.text._Z41__static_initialization_and_destruction_0ii,"ax",@progbits
 128               	_Z41__static_initialization_and_destruction_0ii:
 129               	.LVL3:
 130               	.LFB60:
  88:funsape/peripheral/adc.cpp **** 
  89:funsape/peripheral/adc.cpp **** // =============================================================================
  90:funsape/peripheral/adc.cpp **** // Class public methods
  91:funsape/peripheral/adc.cpp **** // =============================================================================
  92:funsape/peripheral/adc.cpp **** 
GAS LISTING C:\Users\kenne\AppData\Local\Temp\ccmiL9m5.s 			page 19


  93:funsape/peripheral/adc.cpp **** //     ///////////////////     CONFIGURATION     ////////////////////     //
  94:funsape/peripheral/adc.cpp **** bool_t Adc::init(Mode mode_p, Reference reference_p, Prescaler prescale_p)
  95:funsape/peripheral/adc.cpp **** {
  96:funsape/peripheral/adc.cpp ****     // Mark passage for debugging purpose
  97:funsape/peripheral/adc.cpp ****     debugMark("Adc::init(Mode, Reference, Prescaler)", DEBUG_ADC);
  98:funsape/peripheral/adc.cpp **** 
  99:funsape/peripheral/adc.cpp ****     // Local variables
 100:funsape/peripheral/adc.cpp ****     uint8_t auxAdcsrA = ADCSRA;
 101:funsape/peripheral/adc.cpp ****     uint8_t auxAdcsrB = ADCSRB;
 102:funsape/peripheral/adc.cpp ****     uint8_t auxAdmux = ADMUX;
 103:funsape/peripheral/adc.cpp **** 
 104:funsape/peripheral/adc.cpp ****     // Configure mode
 105:funsape/peripheral/adc.cpp ****     clrMaskOffset(auxAdcsrB, constTriggerSourceMask, constTriggerSourceOffset);
 106:funsape/peripheral/adc.cpp ****     if(mode_p == Mode::SINGLE_CONVERSION) {
 107:funsape/peripheral/adc.cpp ****         clrBit(auxAdcsrA, ADATE);
 108:funsape/peripheral/adc.cpp ****     } else {
 109:funsape/peripheral/adc.cpp ****         setBit(auxAdcsrA, ADATE);
 110:funsape/peripheral/adc.cpp ****         setMaskOffset(auxAdcsrB, (uint8_t)mode_p, constTriggerSourceOffset);
 111:funsape/peripheral/adc.cpp ****     }
 112:funsape/peripheral/adc.cpp ****     // Configure reference
 113:funsape/peripheral/adc.cpp ****     clrMaskOffset(auxAdmux, constReferenceMask, constReferenceOffset);
 114:funsape/peripheral/adc.cpp ****     setMaskOffset(auxAdmux, (uint8_t)reference_p, constReferenceOffset);
 115:funsape/peripheral/adc.cpp ****     // Configure prescaler
 116:funsape/peripheral/adc.cpp ****     clrMaskOffset(auxAdcsrA, constPrescalerMask, constPrescalerOffset);
 117:funsape/peripheral/adc.cpp ****     setMaskOffset(auxAdcsrA, (uint8_t)prescale_p, constPrescalerOffset);
 118:funsape/peripheral/adc.cpp **** 
 119:funsape/peripheral/adc.cpp ****     // Update registers
 120:funsape/peripheral/adc.cpp ****     ADMUX = auxAdmux;
 121:funsape/peripheral/adc.cpp ****     ADCSRA = auxAdcsrA;
 122:funsape/peripheral/adc.cpp ****     ADCSRB = auxAdcsrB;
 123:funsape/peripheral/adc.cpp **** 
 124:funsape/peripheral/adc.cpp ****     // Update class members
 125:funsape/peripheral/adc.cpp ****     this->_mode             = mode_p;
 126:funsape/peripheral/adc.cpp ****     this->_reference        = reference_p;
 127:funsape/peripheral/adc.cpp ****     this->_prescaler        = prescale_p;
 128:funsape/peripheral/adc.cpp ****     this->_isInitialized    = true;
 129:funsape/peripheral/adc.cpp **** 
 130:funsape/peripheral/adc.cpp ****     // Returns successfully
 131:funsape/peripheral/adc.cpp ****     this->_lastError = Error::NONE;
 132:funsape/peripheral/adc.cpp ****     debugMessage(Error::NONE, DEBUG_ADC);
 133:funsape/peripheral/adc.cpp ****     return true;
 134:funsape/peripheral/adc.cpp **** }
 135:funsape/peripheral/adc.cpp **** 
 136:funsape/peripheral/adc.cpp **** bool_t Adc::setDataAdjust(DataAdjust data_p)
 137:funsape/peripheral/adc.cpp **** {
 138:funsape/peripheral/adc.cpp ****     // Mark passage for debugging purpose
 139:funsape/peripheral/adc.cpp ****     debugMark("Adc::setDataAdjust(DataAdjust)", DEBUG_ADC);
 140:funsape/peripheral/adc.cpp **** 
 141:funsape/peripheral/adc.cpp ****     // Configure Data Adjustment
 142:funsape/peripheral/adc.cpp ****     if(data_p == DataAdjust::RIGHT) {
 143:funsape/peripheral/adc.cpp ****         clrBit(ADMUX, ADLAR);
 144:funsape/peripheral/adc.cpp ****     } else {
 145:funsape/peripheral/adc.cpp ****         setBit(ADMUX, ADLAR);
 146:funsape/peripheral/adc.cpp ****     }
 147:funsape/peripheral/adc.cpp **** 
 148:funsape/peripheral/adc.cpp ****     // Update class members
 149:funsape/peripheral/adc.cpp ****     this->_dataAdjust       = data_p;
GAS LISTING C:\Users\kenne\AppData\Local\Temp\ccmiL9m5.s 			page 20


 150:funsape/peripheral/adc.cpp **** 
 151:funsape/peripheral/adc.cpp ****     // Returns successfully
 152:funsape/peripheral/adc.cpp ****     this->_lastError = Error::NONE;
 153:funsape/peripheral/adc.cpp ****     debugMessage(Error::NONE, DEBUG_ADC);
 154:funsape/peripheral/adc.cpp ****     return true;
 155:funsape/peripheral/adc.cpp **** }
 156:funsape/peripheral/adc.cpp **** 
 157:funsape/peripheral/adc.cpp **** bool_t Adc::setMode(Mode mode_p)
 158:funsape/peripheral/adc.cpp **** {
 159:funsape/peripheral/adc.cpp ****     // Mark passage for debugging purpose
 160:funsape/peripheral/adc.cpp ****     debugMark("Adc::setMode(Mode)", DEBUG_ADC);
 161:funsape/peripheral/adc.cpp **** 
 162:funsape/peripheral/adc.cpp ****     // Local variables
 163:funsape/peripheral/adc.cpp ****     uint8_t auxAdcsrA = ADCSRA;
 164:funsape/peripheral/adc.cpp ****     uint8_t auxAdcsrB = ADCSRB;
 165:funsape/peripheral/adc.cpp **** 
 166:funsape/peripheral/adc.cpp ****     // Configure mode
 167:funsape/peripheral/adc.cpp ****     clrMaskOffset(auxAdcsrB, constTriggerSourceMask, constTriggerSourceOffset);
 168:funsape/peripheral/adc.cpp ****     if(mode_p == Mode::SINGLE_CONVERSION) {
 169:funsape/peripheral/adc.cpp ****         clrBit(auxAdcsrA, ADATE);
 170:funsape/peripheral/adc.cpp ****     } else {
 171:funsape/peripheral/adc.cpp ****         setBit(auxAdcsrA, ADATE);
 172:funsape/peripheral/adc.cpp ****         setMaskOffset(auxAdcsrB, (uint8_t)mode_p, constTriggerSourceOffset);
 173:funsape/peripheral/adc.cpp ****     }
 174:funsape/peripheral/adc.cpp **** 
 175:funsape/peripheral/adc.cpp ****     // Update registers
 176:funsape/peripheral/adc.cpp ****     ADCSRA = auxAdcsrA;
 177:funsape/peripheral/adc.cpp ****     ADCSRB = auxAdcsrB;
 178:funsape/peripheral/adc.cpp **** 
 179:funsape/peripheral/adc.cpp ****     // Update class members
 180:funsape/peripheral/adc.cpp ****     this->_mode             = mode_p;
 181:funsape/peripheral/adc.cpp **** 
 182:funsape/peripheral/adc.cpp ****     // Returns successfully
 183:funsape/peripheral/adc.cpp ****     this->_lastError = Error::NONE;
 184:funsape/peripheral/adc.cpp ****     debugMessage(Error::NONE, DEBUG_ADC);
 185:funsape/peripheral/adc.cpp ****     return true;
 186:funsape/peripheral/adc.cpp **** }
 187:funsape/peripheral/adc.cpp **** 
 188:funsape/peripheral/adc.cpp **** bool_t Adc::setPrescaler(Prescaler prescale_p)
 189:funsape/peripheral/adc.cpp **** {
 190:funsape/peripheral/adc.cpp ****     // Mark passage for debugging purpose
 191:funsape/peripheral/adc.cpp ****     debugMark("Adc::setPrescaler(Prescaler)", DEBUG_ADC);
 192:funsape/peripheral/adc.cpp **** 
 193:funsape/peripheral/adc.cpp ****     // Local variables
 194:funsape/peripheral/adc.cpp ****     uint8_t auxAdcsrA = ADCSRA;
 195:funsape/peripheral/adc.cpp **** 
 196:funsape/peripheral/adc.cpp ****     // Configure prescaler
 197:funsape/peripheral/adc.cpp ****     clrMaskOffset(auxAdcsrA, constPrescalerMask, constPrescalerOffset);
 198:funsape/peripheral/adc.cpp ****     setMaskOffset(auxAdcsrA, (uint8_t)prescale_p, constPrescalerOffset);
 199:funsape/peripheral/adc.cpp **** 
 200:funsape/peripheral/adc.cpp ****     // Update registers
 201:funsape/peripheral/adc.cpp ****     ADCSRA = auxAdcsrA;
 202:funsape/peripheral/adc.cpp **** 
 203:funsape/peripheral/adc.cpp ****     // Update class members
 204:funsape/peripheral/adc.cpp ****     this->_prescaler        = prescale_p;
 205:funsape/peripheral/adc.cpp **** 
 206:funsape/peripheral/adc.cpp ****     // Returns successfully
GAS LISTING C:\Users\kenne\AppData\Local\Temp\ccmiL9m5.s 			page 21


 207:funsape/peripheral/adc.cpp ****     this->_lastError = Error::NONE;
 208:funsape/peripheral/adc.cpp ****     debugMessage(Error::NONE, DEBUG_ADC);
 209:funsape/peripheral/adc.cpp ****     return true;
 210:funsape/peripheral/adc.cpp **** }
 211:funsape/peripheral/adc.cpp **** 
 212:funsape/peripheral/adc.cpp **** bool_t Adc::setReference(Reference reference_p)
 213:funsape/peripheral/adc.cpp **** {
 214:funsape/peripheral/adc.cpp ****     // Mark passage for debugging purpose
 215:funsape/peripheral/adc.cpp ****     debugMark("Adc::setReference(Reference)", DEBUG_ADC);
 216:funsape/peripheral/adc.cpp **** 
 217:funsape/peripheral/adc.cpp ****     // Local variables
 218:funsape/peripheral/adc.cpp ****     uint8_t auxAdmux = ADMUX;
 219:funsape/peripheral/adc.cpp **** 
 220:funsape/peripheral/adc.cpp ****     // Configure reference
 221:funsape/peripheral/adc.cpp ****     clrMaskOffset(auxAdmux, constReferenceMask, constReferenceOffset);
 222:funsape/peripheral/adc.cpp ****     setMaskOffset(auxAdmux, (uint8_t)reference_p, constReferenceOffset);
 223:funsape/peripheral/adc.cpp **** 
 224:funsape/peripheral/adc.cpp ****     // Update registers
 225:funsape/peripheral/adc.cpp ****     ADMUX = auxAdmux;
 226:funsape/peripheral/adc.cpp **** 
 227:funsape/peripheral/adc.cpp ****     // Update class members
 228:funsape/peripheral/adc.cpp ****     this->_reference        = reference_p;
 229:funsape/peripheral/adc.cpp **** 
 230:funsape/peripheral/adc.cpp ****     // Returns successfully
 231:funsape/peripheral/adc.cpp ****     this->_lastError = Error::NONE;
 232:funsape/peripheral/adc.cpp ****     debugMessage(Error::NONE, DEBUG_ADC);
 233:funsape/peripheral/adc.cpp ****     return true;
 234:funsape/peripheral/adc.cpp **** }
 235:funsape/peripheral/adc.cpp **** 
 236:funsape/peripheral/adc.cpp **** //     //////////////////     CHANNEL CONTROL     ///////////////////     //
 237:funsape/peripheral/adc.cpp **** bool_t Adc::disableDigitalInput(DigitalInput flagInputs_p)
 238:funsape/peripheral/adc.cpp **** {
 239:funsape/peripheral/adc.cpp ****     // Mark passage for debugging purpose
 240:funsape/peripheral/adc.cpp ****     debugMark("Adc::disableDigitalInput(DigitalInput)", DEBUG_ADC);
 241:funsape/peripheral/adc.cpp **** 
 242:funsape/peripheral/adc.cpp ****     // TODO: Implement function
 243:funsape/peripheral/adc.cpp ****     this->_lastError = Error::NOT_IMPLEMENTED;
 244:funsape/peripheral/adc.cpp ****     debugMessage(Error::NOT_IMPLEMENTED, DEBUG_ADC);
 245:funsape/peripheral/adc.cpp ****     return false;
 246:funsape/peripheral/adc.cpp **** }
 247:funsape/peripheral/adc.cpp **** 
 248:funsape/peripheral/adc.cpp **** bool_t Adc::enableDigitalInput(DigitalInput flagInputs_p)
 249:funsape/peripheral/adc.cpp **** {
 250:funsape/peripheral/adc.cpp ****     // Mark passage for debugging purpose
 251:funsape/peripheral/adc.cpp ****     debugMark("Adc::enableDigitalInput(DigitalInput)", DEBUG_ADC);
 252:funsape/peripheral/adc.cpp **** 
 253:funsape/peripheral/adc.cpp ****     // TODO: Implement function
 254:funsape/peripheral/adc.cpp ****     this->_lastError = Error::NOT_IMPLEMENTED;
 255:funsape/peripheral/adc.cpp ****     debugMessage(Error::NOT_IMPLEMENTED, DEBUG_ADC);
 256:funsape/peripheral/adc.cpp ****     return false;
 257:funsape/peripheral/adc.cpp **** }
 258:funsape/peripheral/adc.cpp **** 
 259:funsape/peripheral/adc.cpp **** bool_t Adc::setChannel(Channel channel_p)
 260:funsape/peripheral/adc.cpp **** {
 261:funsape/peripheral/adc.cpp ****     // Mark passage for debugging purpose
 262:funsape/peripheral/adc.cpp ****     debugMark("Adc::setChannel(Channel)", DEBUG_ADC);
 263:funsape/peripheral/adc.cpp **** 
GAS LISTING C:\Users\kenne\AppData\Local\Temp\ccmiL9m5.s 			page 22


 264:funsape/peripheral/adc.cpp ****     // Local variables
 265:funsape/peripheral/adc.cpp ****     uint8_t auxAdmux = ADMUX;
 266:funsape/peripheral/adc.cpp **** 
 267:funsape/peripheral/adc.cpp ****     // Configure reference
 268:funsape/peripheral/adc.cpp ****     clrMaskOffset(auxAdmux, constChannelMask, constChannelOffset);
 269:funsape/peripheral/adc.cpp ****     setMaskOffset(auxAdmux, (uint8_t)channel_p, constChannelOffset);
 270:funsape/peripheral/adc.cpp **** 
 271:funsape/peripheral/adc.cpp ****     // Update registers
 272:funsape/peripheral/adc.cpp ****     ADMUX = auxAdmux;
 273:funsape/peripheral/adc.cpp **** 
 274:funsape/peripheral/adc.cpp ****     // Update class members
 275:funsape/peripheral/adc.cpp ****     this->_channel          = channel_p;
 276:funsape/peripheral/adc.cpp **** 
 277:funsape/peripheral/adc.cpp ****     // Returns successfully
 278:funsape/peripheral/adc.cpp ****     this->_lastError = Error::NONE;
 279:funsape/peripheral/adc.cpp ****     debugMessage(Error::NONE, DEBUG_ADC);
 280:funsape/peripheral/adc.cpp ****     return true;
 281:funsape/peripheral/adc.cpp **** }
 282:funsape/peripheral/adc.cpp **** 
 283:funsape/peripheral/adc.cpp **** //     /////////////////     INTERRUPT CONTROL     //////////////////     //
 284:funsape/peripheral/adc.cpp **** bool_t Adc::activateInterrupt(void)
 285:funsape/peripheral/adc.cpp **** {
 286:funsape/peripheral/adc.cpp ****     // Mark passage for debugging purpose
 287:funsape/peripheral/adc.cpp ****     debugMark("Adc::activateInterrupt(void)", DEBUG_ADC);
 288:funsape/peripheral/adc.cpp **** 
 289:funsape/peripheral/adc.cpp ****     // Configure Interrupt
 290:funsape/peripheral/adc.cpp ****     setBit(ADCSRA, ADIE);
 291:funsape/peripheral/adc.cpp **** 
 292:funsape/peripheral/adc.cpp ****     // Update class members
 293:funsape/peripheral/adc.cpp ****     this->_isInterruptEnabled           = true;
 294:funsape/peripheral/adc.cpp **** 
 295:funsape/peripheral/adc.cpp ****     // Returns successfully
 296:funsape/peripheral/adc.cpp ****     this->_lastError = Error::NONE;
 297:funsape/peripheral/adc.cpp ****     debugMessage(Error::NONE, DEBUG_ADC);
 298:funsape/peripheral/adc.cpp ****     return true;
 299:funsape/peripheral/adc.cpp **** }
 300:funsape/peripheral/adc.cpp **** 
 301:funsape/peripheral/adc.cpp **** bool_t Adc::clearInterruptRequest(void)
 302:funsape/peripheral/adc.cpp **** {
 303:funsape/peripheral/adc.cpp ****     // Mark passage for debugging purpose
 304:funsape/peripheral/adc.cpp ****     debugMark("Adc::clearInterruptRequest(void)", DEBUG_ADC);
 305:funsape/peripheral/adc.cpp **** 
 306:funsape/peripheral/adc.cpp ****     // Configure Interrupt
 307:funsape/peripheral/adc.cpp ****     setBit(ADCSRA, ADIF);
 308:funsape/peripheral/adc.cpp **** 
 309:funsape/peripheral/adc.cpp ****     // Returns successfully
 310:funsape/peripheral/adc.cpp ****     this->_lastError = Error::NONE;
 311:funsape/peripheral/adc.cpp ****     debugMessage(Error::NONE, DEBUG_ADC);
 312:funsape/peripheral/adc.cpp ****     return true;
 313:funsape/peripheral/adc.cpp **** }
 314:funsape/peripheral/adc.cpp **** 
 315:funsape/peripheral/adc.cpp **** bool_t Adc::deactivateInterrupt(void)
 316:funsape/peripheral/adc.cpp **** {
 317:funsape/peripheral/adc.cpp ****     // Mark passage for debugging purpose
 318:funsape/peripheral/adc.cpp ****     debugMark("Adc::deactivateInterrupt(void)", DEBUG_ADC);
 319:funsape/peripheral/adc.cpp **** 
 320:funsape/peripheral/adc.cpp ****     // Configure Interrupt
GAS LISTING C:\Users\kenne\AppData\Local\Temp\ccmiL9m5.s 			page 23


 321:funsape/peripheral/adc.cpp ****     clrBit(ADCSRA, ADIE);
 322:funsape/peripheral/adc.cpp **** 
 323:funsape/peripheral/adc.cpp ****     // Update class members
 324:funsape/peripheral/adc.cpp ****     this->_isInterruptEnabled           = false;
 325:funsape/peripheral/adc.cpp **** 
 326:funsape/peripheral/adc.cpp ****     // Returns successfully
 327:funsape/peripheral/adc.cpp ****     this->_lastError = Error::NONE;
 328:funsape/peripheral/adc.cpp ****     debugMessage(Error::NONE, DEBUG_ADC);
 329:funsape/peripheral/adc.cpp ****     return true;
 330:funsape/peripheral/adc.cpp **** }
 331:funsape/peripheral/adc.cpp **** 
 332:funsape/peripheral/adc.cpp **** //     /////////////     MASTER CONTROL AND STATUS     //////////////     //
 333:funsape/peripheral/adc.cpp **** bool_t Adc::enable(void)
 334:funsape/peripheral/adc.cpp **** {
 335:funsape/peripheral/adc.cpp ****     // Mark passage for debugging purpose
 336:funsape/peripheral/adc.cpp ****     debugMark("Adc::enable(void)", DEBUG_ADC);
 337:funsape/peripheral/adc.cpp **** 
 338:funsape/peripheral/adc.cpp ****     // Enables ADC
 339:funsape/peripheral/adc.cpp ****     setBit(ADCSRA, ADEN);
 340:funsape/peripheral/adc.cpp **** 
 341:funsape/peripheral/adc.cpp ****     // Update class members
 342:funsape/peripheral/adc.cpp ****     this->_isEnabled                    = true;
 343:funsape/peripheral/adc.cpp **** 
 344:funsape/peripheral/adc.cpp ****     // Returns successfully
 345:funsape/peripheral/adc.cpp ****     this->_lastError = Error::NONE;
 346:funsape/peripheral/adc.cpp ****     debugMessage(Error::NONE, DEBUG_ADC);
 347:funsape/peripheral/adc.cpp ****     return true;
 348:funsape/peripheral/adc.cpp **** }
 349:funsape/peripheral/adc.cpp **** 
 350:funsape/peripheral/adc.cpp **** bool_t Adc::disable(void)
 351:funsape/peripheral/adc.cpp **** {
 352:funsape/peripheral/adc.cpp ****     // Mark passage for debugging purpose
 353:funsape/peripheral/adc.cpp ****     debugMark("Adc::disable(void)", DEBUG_ADC);
 354:funsape/peripheral/adc.cpp **** 
 355:funsape/peripheral/adc.cpp ****     // Disables ADC
 356:funsape/peripheral/adc.cpp ****     clrBit(ADCSRA, ADEN);
 357:funsape/peripheral/adc.cpp **** 
 358:funsape/peripheral/adc.cpp ****     // Update class members
 359:funsape/peripheral/adc.cpp ****     this->_isEnabled                    = false;
 360:funsape/peripheral/adc.cpp **** 
 361:funsape/peripheral/adc.cpp ****     // Returns successfully
 362:funsape/peripheral/adc.cpp ****     this->_lastError = Error::NONE;
 363:funsape/peripheral/adc.cpp ****     debugMessage(Error::NONE, DEBUG_ADC);
 364:funsape/peripheral/adc.cpp ****     return true;
 365:funsape/peripheral/adc.cpp **** }
 366:funsape/peripheral/adc.cpp **** 
 367:funsape/peripheral/adc.cpp **** Error Adc::getLastError(void)
 368:funsape/peripheral/adc.cpp **** {
 369:funsape/peripheral/adc.cpp ****     // Returns last error
 370:funsape/peripheral/adc.cpp ****     return this->_lastError;
 371:funsape/peripheral/adc.cpp **** }
 372:funsape/peripheral/adc.cpp **** 
 373:funsape/peripheral/adc.cpp **** bool_t Adc::startConversion(void)
 374:funsape/peripheral/adc.cpp **** {
 375:funsape/peripheral/adc.cpp ****     // Mark passage for debugging purpose
 376:funsape/peripheral/adc.cpp ****     debugMark("Adc::startConversion(void)", DEBUG_ADC);
 377:funsape/peripheral/adc.cpp **** 
GAS LISTING C:\Users\kenne\AppData\Local\Temp\ccmiL9m5.s 			page 24


 378:funsape/peripheral/adc.cpp ****     // Starts conversion
 379:funsape/peripheral/adc.cpp ****     setBit(ADCSRA, ADSC);
 380:funsape/peripheral/adc.cpp **** 
 381:funsape/peripheral/adc.cpp ****     // Returns successfully
 382:funsape/peripheral/adc.cpp ****     this->_lastError = Error::NONE;
 383:funsape/peripheral/adc.cpp ****     debugMessage(Error::NONE, DEBUG_ADC);
 384:funsape/peripheral/adc.cpp ****     return true;
 385:funsape/peripheral/adc.cpp **** }
 386:funsape/peripheral/adc.cpp **** 
 387:funsape/peripheral/adc.cpp **** bool_t Adc::waitUntilConversionFinish(void)
 388:funsape/peripheral/adc.cpp **** {
 389:funsape/peripheral/adc.cpp ****     // Mark passage for debugging purpose
 390:funsape/peripheral/adc.cpp ****     debugMark("Adc::waitUntilConversionFinish(void)", DEBUG_ADC);
 391:funsape/peripheral/adc.cpp **** 
 392:funsape/peripheral/adc.cpp ****     waitUntilBitIsClear(ADCSRA, ADSC);
 393:funsape/peripheral/adc.cpp **** 
 394:funsape/peripheral/adc.cpp ****     // Returns successfully
 395:funsape/peripheral/adc.cpp ****     this->_lastError = Error::NONE;
 396:funsape/peripheral/adc.cpp ****     debugMessage(Error::NONE, DEBUG_ADC);
 397:funsape/peripheral/adc.cpp ****     return true;
 398:funsape/peripheral/adc.cpp **** }
 399:funsape/peripheral/adc.cpp **** 
 400:funsape/peripheral/adc.cpp **** // =============================================================================
 401:funsape/peripheral/adc.cpp **** // Class private methods
 402:funsape/peripheral/adc.cpp **** // =============================================================================
 403:funsape/peripheral/adc.cpp **** 
 404:funsape/peripheral/adc.cpp **** // NONE
 405:funsape/peripheral/adc.cpp **** 
 406:funsape/peripheral/adc.cpp **** // =============================================================================
 407:funsape/peripheral/adc.cpp **** // Class protected methods
 408:funsape/peripheral/adc.cpp **** // =============================================================================
 409:funsape/peripheral/adc.cpp **** 
 410:funsape/peripheral/adc.cpp **** // NONE
 411:funsape/peripheral/adc.cpp **** 
 412:funsape/peripheral/adc.cpp **** // =============================================================================
 413:funsape/peripheral/adc.cpp **** // General public functions definitions
 414:funsape/peripheral/adc.cpp **** // =============================================================================
 415:funsape/peripheral/adc.cpp **** 
 416:funsape/peripheral/adc.cpp **** // NONE
 417:funsape/peripheral/adc.cpp **** 
 418:funsape/peripheral/adc.cpp **** // =============================================================================
 419:funsape/peripheral/adc.cpp **** // Interrupt callback functions
 420:funsape/peripheral/adc.cpp **** // =============================================================================
 421:funsape/peripheral/adc.cpp **** 
 422:funsape/peripheral/adc.cpp **** weakened void adcConversionCompleteCallback(void)
 423:funsape/peripheral/adc.cpp **** {
 424:funsape/peripheral/adc.cpp ****     return;
 425:funsape/peripheral/adc.cpp **** }
 426:funsape/peripheral/adc.cpp **** 
 427:funsape/peripheral/adc.cpp **** // =============================================================================
 428:funsape/peripheral/adc.cpp **** // Interruption handlers
 429:funsape/peripheral/adc.cpp **** // =============================================================================
 430:funsape/peripheral/adc.cpp **** 
 431:funsape/peripheral/adc.cpp **** //!
 432:funsape/peripheral/adc.cpp **** //! \brief          ADC interrupt service routine
 433:funsape/peripheral/adc.cpp **** //! \details        ADC interrupt service routine.
 434:funsape/peripheral/adc.cpp **** //!
GAS LISTING C:\Users\kenne\AppData\Local\Temp\ccmiL9m5.s 			page 25


 435:funsape/peripheral/adc.cpp **** ISR(ADC_vect)
 436:funsape/peripheral/adc.cpp **** {
 437:funsape/peripheral/adc.cpp ****     adcConversionCompleteCallback();
 438:funsape/peripheral/adc.cpp **** }
 131               		.loc 2 438 1 is_stmt 1 view -0
 132               		.cfi_startproc
 133               	/* prologue: function */
 134               	/* frame size = 0 */
 135               	/* stack size = 0 */
 136               	.L__stack_usage = 0
 137               		.loc 2 438 1 is_stmt 0 view .LVU36
 138 0000 262F      		mov r18,r22
 139 0002 372F      		mov r19,r23
 140               		.loc 2 438 1 view .LVU37
 141 0004 0197      		sbiw r24,1
 142 0006 01F0      		breq .L6
 143               	.LVL4:
 144               	.L4:
 145               	/* epilogue start */
 146               		.loc 2 438 1 view .LVU38
 147 0008 0895      		ret
 148               	.LVL5:
 149               	.L6:
 150               		.loc 2 438 1 discriminator 1 view .LVU39
 151 000a 2F3F      		cpi r18,-1
 152 000c 3F4F      		sbci r19,-1
 153               	.LVL6:
 154               		.loc 2 438 1 discriminator 1 view .LVU40
 155 000e 01F4      		brne .L4
  49:funsape/peripheral/adc.cpp **** 
 156               		.loc 2 49 5 view .LVU41
 157 0010 80E0      		ldi r24,lo8(adc)
 158 0012 90E0      		ldi r25,hi8(adc)
 159 0014 0E94 0000 		call _ZN3AdcC1Ev
 160               	.LVL7:
 161               		.loc 2 438 1 view .LVU42
 162 0018 00C0      		rjmp .L4
 163               		.cfi_endproc
 164               	.LFE60:
 166               		.section	.text._ZN3Adc4initENS_4ModeENS_9ReferenceENS_9PrescalerE,"ax",@progbits
 167               	.global	_ZN3Adc4initENS_4ModeENS_9ReferenceENS_9PrescalerE
 169               	_ZN3Adc4initENS_4ModeENS_9ReferenceENS_9PrescalerE:
 170               	.LVL8:
 171               	.LFB42:
  95:funsape/peripheral/adc.cpp ****     // Mark passage for debugging purpose
 172               		.loc 2 95 1 is_stmt 1 view -0
 173               		.cfi_startproc
 174               	/* prologue: function */
 175               	/* frame size = 0 */
 176               	/* stack size = 0 */
 177               	.L__stack_usage = 0
  95:funsape/peripheral/adc.cpp ****     // Mark passage for debugging purpose
 178               		.loc 2 95 1 is_stmt 0 view .LVU44
 179 0000 E82F      		mov r30,r24
 180 0002 F92F      		mov r31,r25
 181 0004 A62F      		mov r26,r22
 182 0006 B72F      		mov r27,r23
GAS LISTING C:\Users\kenne\AppData\Local\Temp\ccmiL9m5.s 			page 26


  97:funsape/peripheral/adc.cpp **** 
 183               		.loc 2 97 5 is_stmt 1 view .LVU45
  97:funsape/peripheral/adc.cpp **** 
 184               		.loc 2 97 66 view .LVU46
 100:funsape/peripheral/adc.cpp ****     uint8_t auxAdcsrB = ADCSRB;
 185               		.loc 2 100 5 view .LVU47
 100:funsape/peripheral/adc.cpp ****     uint8_t auxAdcsrB = ADCSRB;
 186               		.loc 2 100 25 is_stmt 0 view .LVU48
 187 0008 8091 7A00 		lds r24,122
 188               	.LVL9:
 101:funsape/peripheral/adc.cpp ****     uint8_t auxAdmux = ADMUX;
 189               		.loc 2 101 5 is_stmt 1 view .LVU49
 101:funsape/peripheral/adc.cpp ****     uint8_t auxAdmux = ADMUX;
 190               		.loc 2 101 25 is_stmt 0 view .LVU50
 191 000c 9091 7B00 		lds r25,123
 192               	.LVL10:
 102:funsape/peripheral/adc.cpp **** 
 193               		.loc 2 102 5 is_stmt 1 view .LVU51
 102:funsape/peripheral/adc.cpp **** 
 194               		.loc 2 102 24 is_stmt 0 view .LVU52
 195 0010 5091 7C00 		lds r21,124
 196               	.LVL11:
 105:funsape/peripheral/adc.cpp ****     if(mode_p == Mode::SINGLE_CONVERSION) {
 197               		.loc 2 105 5 is_stmt 1 view .LVU53
 198 0014 987F      		andi r25,lo8(-8)
 199               	.LVL12:
 106:funsape/peripheral/adc.cpp ****         clrBit(auxAdcsrA, ADATE);
 200               		.loc 2 106 5 view .LVU54
 201 0016 AF30      		cpi r26,15
 202 0018 B105      		cpc r27,__zero_reg__
 203 001a 01F0      		breq .L10
 109:funsape/peripheral/adc.cpp ****         setMaskOffset(auxAdcsrB, (uint8_t)mode_p, constTriggerSourceOffset);
 204               		.loc 2 109 9 view .LVU55
 205 001c 8062      		ori r24,lo8(32)
 206               	.LVL13:
 110:funsape/peripheral/adc.cpp ****     }
 207               		.loc 2 110 9 view .LVU56
 208 001e 962B      		or r25,r22
 209               	.LVL14:
 210               	.L9:
 113:funsape/peripheral/adc.cpp ****     setMaskOffset(auxAdmux, (uint8_t)reference_p, constReferenceOffset);
 211               		.loc 2 113 5 view .LVU57
 212 0020 5F73      		andi r21,lo8(63)
 213               	.LVL15:
 114:funsape/peripheral/adc.cpp ****     // Configure prescaler
 214               		.loc 2 114 5 view .LVU58
 215 0022 342F      		mov r19,r20
 216 0024 3295      		swap r19
 217 0026 330F      		lsl r19
 218 0028 330F      		lsl r19
 219 002a 307C      		andi r19,lo8(-64)
 220 002c 352B      		or r19,r21
 221               	.LVL16:
 116:funsape/peripheral/adc.cpp ****     setMaskOffset(auxAdcsrA, (uint8_t)prescale_p, constPrescalerOffset);
 222               		.loc 2 116 5 view .LVU59
 223 002e 887F      		andi r24,lo8(-8)
 224               	.LVL17:
GAS LISTING C:\Users\kenne\AppData\Local\Temp\ccmiL9m5.s 			page 27


 117:funsape/peripheral/adc.cpp **** 
 225               		.loc 2 117 5 view .LVU60
 226 0030 822B      		or r24,r18
 227               	.LVL18:
 120:funsape/peripheral/adc.cpp ****     ADCSRA = auxAdcsrA;
 228               		.loc 2 120 5 view .LVU61
 120:funsape/peripheral/adc.cpp ****     ADCSRA = auxAdcsrA;
 229               		.loc 2 120 11 is_stmt 0 view .LVU62
 230 0032 3093 7C00 		sts 124,r19
 121:funsape/peripheral/adc.cpp ****     ADCSRB = auxAdcsrB;
 231               		.loc 2 121 5 is_stmt 1 view .LVU63
 121:funsape/peripheral/adc.cpp ****     ADCSRB = auxAdcsrB;
 232               		.loc 2 121 12 is_stmt 0 view .LVU64
 233 0036 8093 7A00 		sts 122,r24
 122:funsape/peripheral/adc.cpp **** 
 234               		.loc 2 122 5 is_stmt 1 view .LVU65
 122:funsape/peripheral/adc.cpp **** 
 235               		.loc 2 122 12 is_stmt 0 view .LVU66
 236 003a 9093 7B00 		sts 123,r25
 125:funsape/peripheral/adc.cpp ****     this->_reference        = reference_p;
 237               		.loc 2 125 5 is_stmt 1 view .LVU67
 125:funsape/peripheral/adc.cpp ****     this->_reference        = reference_p;
 238               		.loc 2 125 29 is_stmt 0 view .LVU68
 239 003e B783      		std Z+7,r27
 240 0040 A683      		std Z+6,r26
 126:funsape/peripheral/adc.cpp ****     this->_prescaler        = prescale_p;
 241               		.loc 2 126 5 is_stmt 1 view .LVU69
 126:funsape/peripheral/adc.cpp ****     this->_prescaler        = prescale_p;
 242               		.loc 2 126 29 is_stmt 0 view .LVU70
 243 0042 4483      		std Z+4,r20
 127:funsape/peripheral/adc.cpp ****     this->_isInitialized    = true;
 244               		.loc 2 127 5 is_stmt 1 view .LVU71
 127:funsape/peripheral/adc.cpp ****     this->_isInitialized    = true;
 245               		.loc 2 127 29 is_stmt 0 view .LVU72
 246 0044 2383      		std Z+3,r18
 128:funsape/peripheral/adc.cpp **** 
 247               		.loc 2 128 5 is_stmt 1 view .LVU73
 128:funsape/peripheral/adc.cpp **** 
 248               		.loc 2 128 29 is_stmt 0 view .LVU74
 249 0046 8081      		ld r24,Z
 250               	.LVL19:
 128:funsape/peripheral/adc.cpp **** 
 251               		.loc 2 128 29 view .LVU75
 252 0048 8260      		ori r24,lo8(1<<1)
 253 004a 8083      		st Z,r24
 131:funsape/peripheral/adc.cpp ****     debugMessage(Error::NONE, DEBUG_ADC);
 254               		.loc 2 131 5 is_stmt 1 view .LVU76
 131:funsape/peripheral/adc.cpp ****     debugMessage(Error::NONE, DEBUG_ADC);
 255               		.loc 2 131 22 is_stmt 0 view .LVU77
 256 004c 1282      		std Z+2,__zero_reg__
 257 004e 1182      		std Z+1,__zero_reg__
 132:funsape/peripheral/adc.cpp ****     return true;
 258               		.loc 2 132 5 is_stmt 1 view .LVU78
 132:funsape/peripheral/adc.cpp ****     return true;
 259               		.loc 2 132 41 view .LVU79
 133:funsape/peripheral/adc.cpp **** }
 260               		.loc 2 133 5 view .LVU80
GAS LISTING C:\Users\kenne\AppData\Local\Temp\ccmiL9m5.s 			page 28


 134:funsape/peripheral/adc.cpp **** 
 261               		.loc 2 134 1 is_stmt 0 view .LVU81
 262 0050 81E0      		ldi r24,lo8(1)
 263               	/* epilogue start */
 264 0052 0895      		ret
 265               	.LVL20:
 266               	.L10:
 107:funsape/peripheral/adc.cpp ****     } else {
 267               		.loc 2 107 9 is_stmt 1 view .LVU82
 268 0054 8F7D      		andi r24,lo8(-33)
 269               	.LVL21:
 107:funsape/peripheral/adc.cpp ****     } else {
 270               		.loc 2 107 9 is_stmt 0 view .LVU83
 271 0056 00C0      		rjmp .L9
 272               		.cfi_endproc
 273               	.LFE42:
 275               		.section	.text._ZN3Adc13setDataAdjustENS_10DataAdjustE,"ax",@progbits
 276               	.global	_ZN3Adc13setDataAdjustENS_10DataAdjustE
 278               	_ZN3Adc13setDataAdjustENS_10DataAdjustE:
 279               	.LVL22:
 280               	.LFB43:
 137:funsape/peripheral/adc.cpp ****     // Mark passage for debugging purpose
 281               		.loc 2 137 1 is_stmt 1 view -0
 282               		.cfi_startproc
 283               	/* prologue: function */
 284               	/* frame size = 0 */
 285               	/* stack size = 0 */
 286               	.L__stack_usage = 0
 137:funsape/peripheral/adc.cpp ****     // Mark passage for debugging purpose
 287               		.loc 2 137 1 is_stmt 0 view .LVU85
 288 0000 E82F      		mov r30,r24
 289 0002 F92F      		mov r31,r25
 139:funsape/peripheral/adc.cpp **** 
 290               		.loc 2 139 5 is_stmt 1 view .LVU86
 139:funsape/peripheral/adc.cpp **** 
 291               		.loc 2 139 59 view .LVU87
 142:funsape/peripheral/adc.cpp ****         clrBit(ADMUX, ADLAR);
 292               		.loc 2 142 5 view .LVU88
 293 0004 6111      		cpse r22,__zero_reg__
 294 0006 00C0      		rjmp .L12
 143:funsape/peripheral/adc.cpp ****     } else {
 295               		.loc 2 143 9 view .LVU89
 296 0008 ACE7      		ldi r26,lo8(124)
 297 000a B0E0      		ldi r27,0
 298 000c 8C91      		ld r24,X
 299               	.LVL23:
 143:funsape/peripheral/adc.cpp ****     } else {
 300               		.loc 2 143 9 is_stmt 0 view .LVU90
 301 000e 8F7D      		andi r24,lo8(-33)
 302 0010 8C93      		st X,r24
 303               	.L13:
 149:funsape/peripheral/adc.cpp **** 
 304               		.loc 2 149 5 is_stmt 1 view .LVU91
 149:funsape/peripheral/adc.cpp **** 
 305               		.loc 2 149 29 is_stmt 0 view .LVU92
 306 0012 8085      		ldd r24,Z+8
 307 0014 60FB      		bst r22,0
GAS LISTING C:\Users\kenne\AppData\Local\Temp\ccmiL9m5.s 			page 29


 308 0016 80F9      		bld r24,0
 309 0018 8087      		std Z+8,r24
 152:funsape/peripheral/adc.cpp ****     debugMessage(Error::NONE, DEBUG_ADC);
 310               		.loc 2 152 5 is_stmt 1 view .LVU93
 152:funsape/peripheral/adc.cpp ****     debugMessage(Error::NONE, DEBUG_ADC);
 311               		.loc 2 152 22 is_stmt 0 view .LVU94
 312 001a 1282      		std Z+2,__zero_reg__
 313 001c 1182      		std Z+1,__zero_reg__
 153:funsape/peripheral/adc.cpp ****     return true;
 314               		.loc 2 153 5 is_stmt 1 view .LVU95
 153:funsape/peripheral/adc.cpp ****     return true;
 315               		.loc 2 153 41 view .LVU96
 154:funsape/peripheral/adc.cpp **** }
 316               		.loc 2 154 5 view .LVU97
 155:funsape/peripheral/adc.cpp **** 
 317               		.loc 2 155 1 is_stmt 0 view .LVU98
 318 001e 81E0      		ldi r24,lo8(1)
 319               	/* epilogue start */
 320 0020 0895      		ret
 321               	.LVL24:
 322               	.L12:
 145:funsape/peripheral/adc.cpp ****     }
 323               		.loc 2 145 9 is_stmt 1 view .LVU99
 324 0022 ACE7      		ldi r26,lo8(124)
 325 0024 B0E0      		ldi r27,0
 326 0026 8C91      		ld r24,X
 327               	.LVL25:
 145:funsape/peripheral/adc.cpp ****     }
 328               		.loc 2 145 9 is_stmt 0 view .LVU100
 329 0028 8062      		ori r24,lo8(32)
 330 002a 8C93      		st X,r24
 331 002c 00C0      		rjmp .L13
 332               		.cfi_endproc
 333               	.LFE43:
 335               		.section	.text._ZN3Adc7setModeENS_4ModeE,"ax",@progbits
 336               	.global	_ZN3Adc7setModeENS_4ModeE
 338               	_ZN3Adc7setModeENS_4ModeE:
 339               	.LVL26:
 340               	.LFB44:
 158:funsape/peripheral/adc.cpp ****     // Mark passage for debugging purpose
 341               		.loc 2 158 1 is_stmt 1 view -0
 342               		.cfi_startproc
 343               	/* prologue: function */
 344               	/* frame size = 0 */
 345               	/* stack size = 0 */
 346               	.L__stack_usage = 0
 158:funsape/peripheral/adc.cpp ****     // Mark passage for debugging purpose
 347               		.loc 2 158 1 is_stmt 0 view .LVU102
 348 0000 E82F      		mov r30,r24
 349 0002 F92F      		mov r31,r25
 350 0004 862F      		mov r24,r22
 351               	.LVL27:
 158:funsape/peripheral/adc.cpp ****     // Mark passage for debugging purpose
 352               		.loc 2 158 1 view .LVU103
 353 0006 972F      		mov r25,r23
 160:funsape/peripheral/adc.cpp **** 
 354               		.loc 2 160 5 is_stmt 1 view .LVU104
GAS LISTING C:\Users\kenne\AppData\Local\Temp\ccmiL9m5.s 			page 30


 160:funsape/peripheral/adc.cpp **** 
 355               		.loc 2 160 47 view .LVU105
 163:funsape/peripheral/adc.cpp ****     uint8_t auxAdcsrB = ADCSRB;
 356               		.loc 2 163 5 view .LVU106
 163:funsape/peripheral/adc.cpp ****     uint8_t auxAdcsrB = ADCSRB;
 357               		.loc 2 163 25 is_stmt 0 view .LVU107
 358 0008 3091 7A00 		lds r19,122
 359               	.LVL28:
 164:funsape/peripheral/adc.cpp **** 
 360               		.loc 2 164 5 is_stmt 1 view .LVU108
 164:funsape/peripheral/adc.cpp **** 
 361               		.loc 2 164 25 is_stmt 0 view .LVU109
 362 000c 2091 7B00 		lds r18,123
 363               	.LVL29:
 167:funsape/peripheral/adc.cpp ****     if(mode_p == Mode::SINGLE_CONVERSION) {
 364               		.loc 2 167 5 is_stmt 1 view .LVU110
 365 0010 287F      		andi r18,lo8(-8)
 366               	.LVL30:
 168:funsape/peripheral/adc.cpp ****         clrBit(auxAdcsrA, ADATE);
 367               		.loc 2 168 5 view .LVU111
 368 0012 8F30      		cpi r24,15
 369 0014 9105      		cpc r25,__zero_reg__
 370 0016 01F0      		breq .L17
 171:funsape/peripheral/adc.cpp ****         setMaskOffset(auxAdcsrB, (uint8_t)mode_p, constTriggerSourceOffset);
 371               		.loc 2 171 9 view .LVU112
 372 0018 3062      		ori r19,lo8(32)
 373               	.LVL31:
 172:funsape/peripheral/adc.cpp ****     }
 374               		.loc 2 172 9 view .LVU113
 375 001a 262B      		or r18,r22
 376               	.LVL32:
 377               	.L16:
 176:funsape/peripheral/adc.cpp ****     ADCSRB = auxAdcsrB;
 378               		.loc 2 176 5 view .LVU114
 176:funsape/peripheral/adc.cpp ****     ADCSRB = auxAdcsrB;
 379               		.loc 2 176 12 is_stmt 0 view .LVU115
 380 001c 3093 7A00 		sts 122,r19
 177:funsape/peripheral/adc.cpp **** 
 381               		.loc 2 177 5 is_stmt 1 view .LVU116
 177:funsape/peripheral/adc.cpp **** 
 382               		.loc 2 177 12 is_stmt 0 view .LVU117
 383 0020 2093 7B00 		sts 123,r18
 180:funsape/peripheral/adc.cpp **** 
 384               		.loc 2 180 5 is_stmt 1 view .LVU118
 180:funsape/peripheral/adc.cpp **** 
 385               		.loc 2 180 29 is_stmt 0 view .LVU119
 386 0024 9783      		std Z+7,r25
 387 0026 8683      		std Z+6,r24
 183:funsape/peripheral/adc.cpp ****     debugMessage(Error::NONE, DEBUG_ADC);
 388               		.loc 2 183 5 is_stmt 1 view .LVU120
 183:funsape/peripheral/adc.cpp ****     debugMessage(Error::NONE, DEBUG_ADC);
 389               		.loc 2 183 22 is_stmt 0 view .LVU121
 390 0028 1282      		std Z+2,__zero_reg__
 391 002a 1182      		std Z+1,__zero_reg__
 184:funsape/peripheral/adc.cpp ****     return true;
 392               		.loc 2 184 5 is_stmt 1 view .LVU122
 184:funsape/peripheral/adc.cpp ****     return true;
GAS LISTING C:\Users\kenne\AppData\Local\Temp\ccmiL9m5.s 			page 31


 393               		.loc 2 184 41 view .LVU123
 185:funsape/peripheral/adc.cpp **** }
 394               		.loc 2 185 5 view .LVU124
 186:funsape/peripheral/adc.cpp **** 
 395               		.loc 2 186 1 is_stmt 0 view .LVU125
 396 002c 81E0      		ldi r24,lo8(1)
 397               	/* epilogue start */
 398 002e 0895      		ret
 399               	.L17:
 169:funsape/peripheral/adc.cpp ****     } else {
 400               		.loc 2 169 9 is_stmt 1 view .LVU126
 401 0030 3F7D      		andi r19,lo8(-33)
 402               	.LVL33:
 169:funsape/peripheral/adc.cpp ****     } else {
 403               		.loc 2 169 9 is_stmt 0 view .LVU127
 404 0032 00C0      		rjmp .L16
 405               		.cfi_endproc
 406               	.LFE44:
 408               		.section	.text._ZN3Adc12setPrescalerENS_9PrescalerE,"ax",@progbits
 409               	.global	_ZN3Adc12setPrescalerENS_9PrescalerE
 411               	_ZN3Adc12setPrescalerENS_9PrescalerE:
 412               	.LVL34:
 413               	.LFB45:
 189:funsape/peripheral/adc.cpp ****     // Mark passage for debugging purpose
 414               		.loc 2 189 1 is_stmt 1 view -0
 415               		.cfi_startproc
 416               	/* prologue: function */
 417               	/* frame size = 0 */
 418               	/* stack size = 0 */
 419               	.L__stack_usage = 0
 189:funsape/peripheral/adc.cpp ****     // Mark passage for debugging purpose
 420               		.loc 2 189 1 is_stmt 0 view .LVU129
 421 0000 E82F      		mov r30,r24
 422 0002 F92F      		mov r31,r25
 191:funsape/peripheral/adc.cpp **** 
 423               		.loc 2 191 5 is_stmt 1 view .LVU130
 191:funsape/peripheral/adc.cpp **** 
 424               		.loc 2 191 57 view .LVU131
 194:funsape/peripheral/adc.cpp **** 
 425               		.loc 2 194 5 view .LVU132
 194:funsape/peripheral/adc.cpp **** 
 426               		.loc 2 194 25 is_stmt 0 view .LVU133
 427 0004 AAE7      		ldi r26,lo8(122)
 428 0006 B0E0      		ldi r27,0
 429 0008 8C91      		ld r24,X
 430               	.LVL35:
 197:funsape/peripheral/adc.cpp ****     setMaskOffset(auxAdcsrA, (uint8_t)prescale_p, constPrescalerOffset);
 431               		.loc 2 197 5 is_stmt 1 view .LVU134
 432 000a 887F      		andi r24,lo8(-8)
 433               	.LVL36:
 198:funsape/peripheral/adc.cpp **** 
 434               		.loc 2 198 5 view .LVU135
 435 000c 862B      		or r24,r22
 436               	.LVL37:
 201:funsape/peripheral/adc.cpp **** 
 437               		.loc 2 201 5 view .LVU136
 201:funsape/peripheral/adc.cpp **** 
GAS LISTING C:\Users\kenne\AppData\Local\Temp\ccmiL9m5.s 			page 32


 438               		.loc 2 201 12 is_stmt 0 view .LVU137
 439 000e 8C93      		st X,r24
 204:funsape/peripheral/adc.cpp **** 
 440               		.loc 2 204 5 is_stmt 1 view .LVU138
 204:funsape/peripheral/adc.cpp **** 
 441               		.loc 2 204 29 is_stmt 0 view .LVU139
 442 0010 6383      		std Z+3,r22
 207:funsape/peripheral/adc.cpp ****     debugMessage(Error::NONE, DEBUG_ADC);
 443               		.loc 2 207 5 is_stmt 1 view .LVU140
 207:funsape/peripheral/adc.cpp ****     debugMessage(Error::NONE, DEBUG_ADC);
 444               		.loc 2 207 22 is_stmt 0 view .LVU141
 445 0012 1282      		std Z+2,__zero_reg__
 446 0014 1182      		std Z+1,__zero_reg__
 208:funsape/peripheral/adc.cpp ****     return true;
 447               		.loc 2 208 5 is_stmt 1 view .LVU142
 208:funsape/peripheral/adc.cpp ****     return true;
 448               		.loc 2 208 41 view .LVU143
 209:funsape/peripheral/adc.cpp **** }
 449               		.loc 2 209 5 view .LVU144
 210:funsape/peripheral/adc.cpp **** 
 450               		.loc 2 210 1 is_stmt 0 view .LVU145
 451 0016 81E0      		ldi r24,lo8(1)
 452               	.LVL38:
 453               	/* epilogue start */
 210:funsape/peripheral/adc.cpp **** 
 454               		.loc 2 210 1 view .LVU146
 455 0018 0895      		ret
 456               		.cfi_endproc
 457               	.LFE45:
 459               		.section	.text._ZN3Adc12setReferenceENS_9ReferenceE,"ax",@progbits
 460               	.global	_ZN3Adc12setReferenceENS_9ReferenceE
 462               	_ZN3Adc12setReferenceENS_9ReferenceE:
 463               	.LVL39:
 464               	.LFB46:
 213:funsape/peripheral/adc.cpp ****     // Mark passage for debugging purpose
 465               		.loc 2 213 1 is_stmt 1 view -0
 466               		.cfi_startproc
 467               	/* prologue: function */
 468               	/* frame size = 0 */
 469               	/* stack size = 0 */
 470               	.L__stack_usage = 0
 213:funsape/peripheral/adc.cpp ****     // Mark passage for debugging purpose
 471               		.loc 2 213 1 is_stmt 0 view .LVU148
 472 0000 E82F      		mov r30,r24
 473 0002 F92F      		mov r31,r25
 215:funsape/peripheral/adc.cpp **** 
 474               		.loc 2 215 5 is_stmt 1 view .LVU149
 215:funsape/peripheral/adc.cpp **** 
 475               		.loc 2 215 57 view .LVU150
 218:funsape/peripheral/adc.cpp **** 
 476               		.loc 2 218 5 view .LVU151
 218:funsape/peripheral/adc.cpp **** 
 477               		.loc 2 218 24 is_stmt 0 view .LVU152
 478 0004 ACE7      		ldi r26,lo8(124)
 479 0006 B0E0      		ldi r27,0
 480 0008 9C91      		ld r25,X
 481               	.LVL40:
GAS LISTING C:\Users\kenne\AppData\Local\Temp\ccmiL9m5.s 			page 33


 221:funsape/peripheral/adc.cpp ****     setMaskOffset(auxAdmux, (uint8_t)reference_p, constReferenceOffset);
 482               		.loc 2 221 5 is_stmt 1 view .LVU153
 483 000a 9F73      		andi r25,lo8(63)
 484               	.LVL41:
 222:funsape/peripheral/adc.cpp **** 
 485               		.loc 2 222 5 view .LVU154
 486 000c 862F      		mov r24,r22
 487               	.LVL42:
 222:funsape/peripheral/adc.cpp **** 
 488               		.loc 2 222 5 is_stmt 0 view .LVU155
 489 000e 8295      		swap r24
 490 0010 880F      		lsl r24
 491 0012 880F      		lsl r24
 492 0014 807C      		andi r24,lo8(-64)
 493 0016 892B      		or r24,r25
 494               	.LVL43:
 225:funsape/peripheral/adc.cpp **** 
 495               		.loc 2 225 5 is_stmt 1 view .LVU156
 225:funsape/peripheral/adc.cpp **** 
 496               		.loc 2 225 11 is_stmt 0 view .LVU157
 497 0018 8C93      		st X,r24
 228:funsape/peripheral/adc.cpp **** 
 498               		.loc 2 228 5 is_stmt 1 view .LVU158
 228:funsape/peripheral/adc.cpp **** 
 499               		.loc 2 228 29 is_stmt 0 view .LVU159
 500 001a 6483      		std Z+4,r22
 231:funsape/peripheral/adc.cpp ****     debugMessage(Error::NONE, DEBUG_ADC);
 501               		.loc 2 231 5 is_stmt 1 view .LVU160
 231:funsape/peripheral/adc.cpp ****     debugMessage(Error::NONE, DEBUG_ADC);
 502               		.loc 2 231 22 is_stmt 0 view .LVU161
 503 001c 1282      		std Z+2,__zero_reg__
 504 001e 1182      		std Z+1,__zero_reg__
 232:funsape/peripheral/adc.cpp ****     return true;
 505               		.loc 2 232 5 is_stmt 1 view .LVU162
 232:funsape/peripheral/adc.cpp ****     return true;
 506               		.loc 2 232 41 view .LVU163
 233:funsape/peripheral/adc.cpp **** }
 507               		.loc 2 233 5 view .LVU164
 234:funsape/peripheral/adc.cpp **** 
 508               		.loc 2 234 1 is_stmt 0 view .LVU165
 509 0020 81E0      		ldi r24,lo8(1)
 510               	.LVL44:
 511               	/* epilogue start */
 234:funsape/peripheral/adc.cpp **** 
 512               		.loc 2 234 1 view .LVU166
 513 0022 0895      		ret
 514               		.cfi_endproc
 515               	.LFE46:
 517               		.section	.text._ZN3Adc19disableDigitalInputENS_12DigitalInputE,"ax",@progbits
 518               	.global	_ZN3Adc19disableDigitalInputENS_12DigitalInputE
 520               	_ZN3Adc19disableDigitalInputENS_12DigitalInputE:
 521               	.LVL45:
 522               	.LFB47:
 238:funsape/peripheral/adc.cpp ****     // Mark passage for debugging purpose
 523               		.loc 2 238 1 is_stmt 1 view -0
 524               		.cfi_startproc
 525               	/* prologue: function */
GAS LISTING C:\Users\kenne\AppData\Local\Temp\ccmiL9m5.s 			page 34


 526               	/* frame size = 0 */
 527               	/* stack size = 0 */
 528               	.L__stack_usage = 0
 240:funsape/peripheral/adc.cpp **** 
 529               		.loc 2 240 5 view .LVU168
 240:funsape/peripheral/adc.cpp **** 
 530               		.loc 2 240 67 view .LVU169
 243:funsape/peripheral/adc.cpp ****     debugMessage(Error::NOT_IMPLEMENTED, DEBUG_ADC);
 531               		.loc 2 243 5 view .LVU170
 243:funsape/peripheral/adc.cpp ****     debugMessage(Error::NOT_IMPLEMENTED, DEBUG_ADC);
 532               		.loc 2 243 22 is_stmt 0 view .LVU171
 533 0000 22E0      		ldi r18,lo8(2)
 534 0002 30E0      		ldi r19,0
 535 0004 FC01      		movw r30,r24
 536 0006 3283      		std Z+2,r19
 537 0008 2183      		std Z+1,r18
 244:funsape/peripheral/adc.cpp ****     return false;
 538               		.loc 2 244 5 is_stmt 1 view .LVU172
 244:funsape/peripheral/adc.cpp ****     return false;
 539               		.loc 2 244 52 view .LVU173
 245:funsape/peripheral/adc.cpp **** }
 540               		.loc 2 245 5 view .LVU174
 246:funsape/peripheral/adc.cpp **** 
 541               		.loc 2 246 1 is_stmt 0 view .LVU175
 542 000a 80E0      		ldi r24,0
 543               	.LVL46:
 544               	/* epilogue start */
 246:funsape/peripheral/adc.cpp **** 
 545               		.loc 2 246 1 view .LVU176
 546 000c 0895      		ret
 547               		.cfi_endproc
 548               	.LFE47:
 550               		.section	.text._ZN3Adc18enableDigitalInputENS_12DigitalInputE,"ax",@progbits
 551               	.global	_ZN3Adc18enableDigitalInputENS_12DigitalInputE
 553               	_ZN3Adc18enableDigitalInputENS_12DigitalInputE:
 554               	.LVL47:
 555               	.LFB48:
 249:funsape/peripheral/adc.cpp ****     // Mark passage for debugging purpose
 556               		.loc 2 249 1 is_stmt 1 view -0
 557               		.cfi_startproc
 558               	/* prologue: function */
 559               	/* frame size = 0 */
 560               	/* stack size = 0 */
 561               	.L__stack_usage = 0
 251:funsape/peripheral/adc.cpp **** 
 562               		.loc 2 251 5 view .LVU178
 251:funsape/peripheral/adc.cpp **** 
 563               		.loc 2 251 66 view .LVU179
 254:funsape/peripheral/adc.cpp ****     debugMessage(Error::NOT_IMPLEMENTED, DEBUG_ADC);
 564               		.loc 2 254 5 view .LVU180
 254:funsape/peripheral/adc.cpp ****     debugMessage(Error::NOT_IMPLEMENTED, DEBUG_ADC);
 565               		.loc 2 254 22 is_stmt 0 view .LVU181
 566 0000 22E0      		ldi r18,lo8(2)
 567 0002 30E0      		ldi r19,0
 568 0004 FC01      		movw r30,r24
 569 0006 3283      		std Z+2,r19
 570 0008 2183      		std Z+1,r18
GAS LISTING C:\Users\kenne\AppData\Local\Temp\ccmiL9m5.s 			page 35


 255:funsape/peripheral/adc.cpp ****     return false;
 571               		.loc 2 255 5 is_stmt 1 view .LVU182
 255:funsape/peripheral/adc.cpp ****     return false;
 572               		.loc 2 255 52 view .LVU183
 256:funsape/peripheral/adc.cpp **** }
 573               		.loc 2 256 5 view .LVU184
 257:funsape/peripheral/adc.cpp **** 
 574               		.loc 2 257 1 is_stmt 0 view .LVU185
 575 000a 80E0      		ldi r24,0
 576               	.LVL48:
 577               	/* epilogue start */
 257:funsape/peripheral/adc.cpp **** 
 578               		.loc 2 257 1 view .LVU186
 579 000c 0895      		ret
 580               		.cfi_endproc
 581               	.LFE48:
 583               		.section	.text._ZN3Adc10setChannelENS_7ChannelE,"ax",@progbits
 584               	.global	_ZN3Adc10setChannelENS_7ChannelE
 586               	_ZN3Adc10setChannelENS_7ChannelE:
 587               	.LVL49:
 588               	.LFB49:
 260:funsape/peripheral/adc.cpp ****     // Mark passage for debugging purpose
 589               		.loc 2 260 1 is_stmt 1 view -0
 590               		.cfi_startproc
 591               	/* prologue: function */
 592               	/* frame size = 0 */
 593               	/* stack size = 0 */
 594               	.L__stack_usage = 0
 260:funsape/peripheral/adc.cpp ****     // Mark passage for debugging purpose
 595               		.loc 2 260 1 is_stmt 0 view .LVU188
 596 0000 E82F      		mov r30,r24
 597 0002 F92F      		mov r31,r25
 262:funsape/peripheral/adc.cpp **** 
 598               		.loc 2 262 5 is_stmt 1 view .LVU189
 262:funsape/peripheral/adc.cpp **** 
 599               		.loc 2 262 53 view .LVU190
 265:funsape/peripheral/adc.cpp **** 
 600               		.loc 2 265 5 view .LVU191
 265:funsape/peripheral/adc.cpp **** 
 601               		.loc 2 265 24 is_stmt 0 view .LVU192
 602 0004 ACE7      		ldi r26,lo8(124)
 603 0006 B0E0      		ldi r27,0
 604 0008 8C91      		ld r24,X
 605               	.LVL50:
 268:funsape/peripheral/adc.cpp ****     setMaskOffset(auxAdmux, (uint8_t)channel_p, constChannelOffset);
 606               		.loc 2 268 5 is_stmt 1 view .LVU193
 607 000a 807F      		andi r24,lo8(-16)
 608               	.LVL51:
 269:funsape/peripheral/adc.cpp **** 
 609               		.loc 2 269 5 view .LVU194
 610 000c 862B      		or r24,r22
 611               	.LVL52:
 272:funsape/peripheral/adc.cpp **** 
 612               		.loc 2 272 5 view .LVU195
 272:funsape/peripheral/adc.cpp **** 
 613               		.loc 2 272 11 is_stmt 0 view .LVU196
 614 000e 8C93      		st X,r24
GAS LISTING C:\Users\kenne\AppData\Local\Temp\ccmiL9m5.s 			page 36


 275:funsape/peripheral/adc.cpp **** 
 615               		.loc 2 275 5 is_stmt 1 view .LVU197
 275:funsape/peripheral/adc.cpp **** 
 616               		.loc 2 275 29 is_stmt 0 view .LVU198
 617 0010 6583      		std Z+5,r22
 278:funsape/peripheral/adc.cpp ****     debugMessage(Error::NONE, DEBUG_ADC);
 618               		.loc 2 278 5 is_stmt 1 view .LVU199
 278:funsape/peripheral/adc.cpp ****     debugMessage(Error::NONE, DEBUG_ADC);
 619               		.loc 2 278 22 is_stmt 0 view .LVU200
 620 0012 1282      		std Z+2,__zero_reg__
 621 0014 1182      		std Z+1,__zero_reg__
 279:funsape/peripheral/adc.cpp ****     return true;
 622               		.loc 2 279 5 is_stmt 1 view .LVU201
 279:funsape/peripheral/adc.cpp ****     return true;
 623               		.loc 2 279 41 view .LVU202
 280:funsape/peripheral/adc.cpp **** }
 624               		.loc 2 280 5 view .LVU203
 281:funsape/peripheral/adc.cpp **** 
 625               		.loc 2 281 1 is_stmt 0 view .LVU204
 626 0016 81E0      		ldi r24,lo8(1)
 627               	.LVL53:
 628               	/* epilogue start */
 281:funsape/peripheral/adc.cpp **** 
 629               		.loc 2 281 1 view .LVU205
 630 0018 0895      		ret
 631               		.cfi_endproc
 632               	.LFE49:
 634               		.section	.text._ZN3Adc17activateInterruptEv,"ax",@progbits
 635               	.global	_ZN3Adc17activateInterruptEv
 637               	_ZN3Adc17activateInterruptEv:
 638               	.LVL54:
 639               	.LFB50:
 285:funsape/peripheral/adc.cpp ****     // Mark passage for debugging purpose
 640               		.loc 2 285 1 is_stmt 1 view -0
 641               		.cfi_startproc
 642               	/* prologue: function */
 643               	/* frame size = 0 */
 644               	/* stack size = 0 */
 645               	.L__stack_usage = 0
 285:funsape/peripheral/adc.cpp ****     // Mark passage for debugging purpose
 646               		.loc 2 285 1 is_stmt 0 view .LVU207
 647 0000 E82F      		mov r30,r24
 648 0002 F92F      		mov r31,r25
 287:funsape/peripheral/adc.cpp **** 
 649               		.loc 2 287 5 is_stmt 1 view .LVU208
 287:funsape/peripheral/adc.cpp **** 
 650               		.loc 2 287 57 view .LVU209
 290:funsape/peripheral/adc.cpp **** 
 651               		.loc 2 290 5 view .LVU210
 652 0004 AAE7      		ldi r26,lo8(122)
 653 0006 B0E0      		ldi r27,0
 654 0008 8C91      		ld r24,X
 655               	.LVL55:
 290:funsape/peripheral/adc.cpp **** 
 656               		.loc 2 290 5 is_stmt 0 view .LVU211
 657 000a 8860      		ori r24,lo8(8)
 658 000c 8C93      		st X,r24
GAS LISTING C:\Users\kenne\AppData\Local\Temp\ccmiL9m5.s 			page 37


 293:funsape/peripheral/adc.cpp **** 
 659               		.loc 2 293 5 is_stmt 1 view .LVU212
 293:funsape/peripheral/adc.cpp **** 
 660               		.loc 2 293 41 is_stmt 0 view .LVU213
 661 000e 8081      		ld r24,Z
 662 0010 8460      		ori r24,lo8(1<<2)
 663 0012 8083      		st Z,r24
 296:funsape/peripheral/adc.cpp ****     debugMessage(Error::NONE, DEBUG_ADC);
 664               		.loc 2 296 5 is_stmt 1 view .LVU214
 296:funsape/peripheral/adc.cpp ****     debugMessage(Error::NONE, DEBUG_ADC);
 665               		.loc 2 296 22 is_stmt 0 view .LVU215
 666 0014 1282      		std Z+2,__zero_reg__
 667 0016 1182      		std Z+1,__zero_reg__
 297:funsape/peripheral/adc.cpp ****     return true;
 668               		.loc 2 297 5 is_stmt 1 view .LVU216
 297:funsape/peripheral/adc.cpp ****     return true;
 669               		.loc 2 297 41 view .LVU217
 298:funsape/peripheral/adc.cpp **** }
 670               		.loc 2 298 5 view .LVU218
 299:funsape/peripheral/adc.cpp **** 
 671               		.loc 2 299 1 is_stmt 0 view .LVU219
 672 0018 81E0      		ldi r24,lo8(1)
 673               	/* epilogue start */
 674 001a 0895      		ret
 675               		.cfi_endproc
 676               	.LFE50:
 678               		.section	.text._ZN3Adc21clearInterruptRequestEv,"ax",@progbits
 679               	.global	_ZN3Adc21clearInterruptRequestEv
 681               	_ZN3Adc21clearInterruptRequestEv:
 682               	.LVL56:
 683               	.LFB51:
 302:funsape/peripheral/adc.cpp ****     // Mark passage for debugging purpose
 684               		.loc 2 302 1 is_stmt 1 view -0
 685               		.cfi_startproc
 686               	/* prologue: function */
 687               	/* frame size = 0 */
 688               	/* stack size = 0 */
 689               	.L__stack_usage = 0
 302:funsape/peripheral/adc.cpp ****     // Mark passage for debugging purpose
 690               		.loc 2 302 1 is_stmt 0 view .LVU221
 691 0000 DC01      		movw r26,r24
 304:funsape/peripheral/adc.cpp **** 
 692               		.loc 2 304 5 is_stmt 1 view .LVU222
 304:funsape/peripheral/adc.cpp **** 
 693               		.loc 2 304 61 view .LVU223
 307:funsape/peripheral/adc.cpp **** 
 694               		.loc 2 307 5 view .LVU224
 695 0002 EAE7      		ldi r30,lo8(122)
 696 0004 F0E0      		ldi r31,0
 697 0006 9081      		ld r25,Z
 698 0008 9061      		ori r25,lo8(16)
 699 000a 9083      		st Z,r25
 310:funsape/peripheral/adc.cpp ****     debugMessage(Error::NONE, DEBUG_ADC);
 700               		.loc 2 310 5 view .LVU225
 310:funsape/peripheral/adc.cpp ****     debugMessage(Error::NONE, DEBUG_ADC);
 701               		.loc 2 310 22 is_stmt 0 view .LVU226
 702 000c 1296      		adiw r26,1+1
GAS LISTING C:\Users\kenne\AppData\Local\Temp\ccmiL9m5.s 			page 38


 703 000e 1C92      		st X,__zero_reg__
 704 0010 1E92      		st -X,__zero_reg__
 705 0012 1197      		sbiw r26,1
 311:funsape/peripheral/adc.cpp ****     return true;
 706               		.loc 2 311 5 is_stmt 1 view .LVU227
 311:funsape/peripheral/adc.cpp ****     return true;
 707               		.loc 2 311 41 view .LVU228
 312:funsape/peripheral/adc.cpp **** }
 708               		.loc 2 312 5 view .LVU229
 313:funsape/peripheral/adc.cpp **** 
 709               		.loc 2 313 1 is_stmt 0 view .LVU230
 710 0014 81E0      		ldi r24,lo8(1)
 711               	.LVL57:
 712               	/* epilogue start */
 313:funsape/peripheral/adc.cpp **** 
 713               		.loc 2 313 1 view .LVU231
 714 0016 0895      		ret
 715               		.cfi_endproc
 716               	.LFE51:
 718               		.section	.text._ZN3Adc19deactivateInterruptEv,"ax",@progbits
 719               	.global	_ZN3Adc19deactivateInterruptEv
 721               	_ZN3Adc19deactivateInterruptEv:
 722               	.LVL58:
 723               	.LFB52:
 316:funsape/peripheral/adc.cpp ****     // Mark passage for debugging purpose
 724               		.loc 2 316 1 is_stmt 1 view -0
 725               		.cfi_startproc
 726               	/* prologue: function */
 727               	/* frame size = 0 */
 728               	/* stack size = 0 */
 729               	.L__stack_usage = 0
 316:funsape/peripheral/adc.cpp ****     // Mark passage for debugging purpose
 730               		.loc 2 316 1 is_stmt 0 view .LVU233
 731 0000 E82F      		mov r30,r24
 732 0002 F92F      		mov r31,r25
 318:funsape/peripheral/adc.cpp **** 
 733               		.loc 2 318 5 is_stmt 1 view .LVU234
 318:funsape/peripheral/adc.cpp **** 
 734               		.loc 2 318 59 view .LVU235
 321:funsape/peripheral/adc.cpp **** 
 735               		.loc 2 321 5 view .LVU236
 736 0004 AAE7      		ldi r26,lo8(122)
 737 0006 B0E0      		ldi r27,0
 738 0008 8C91      		ld r24,X
 739               	.LVL59:
 321:funsape/peripheral/adc.cpp **** 
 740               		.loc 2 321 5 is_stmt 0 view .LVU237
 741 000a 877F      		andi r24,lo8(-9)
 742 000c 8C93      		st X,r24
 324:funsape/peripheral/adc.cpp **** 
 743               		.loc 2 324 5 is_stmt 1 view .LVU238
 324:funsape/peripheral/adc.cpp **** 
 744               		.loc 2 324 41 is_stmt 0 view .LVU239
 745 000e 8081      		ld r24,Z
 746 0010 8B7F      		andi r24,lo8(~(1<<2))
 747 0012 8083      		st Z,r24
 327:funsape/peripheral/adc.cpp ****     debugMessage(Error::NONE, DEBUG_ADC);
GAS LISTING C:\Users\kenne\AppData\Local\Temp\ccmiL9m5.s 			page 39


 748               		.loc 2 327 5 is_stmt 1 view .LVU240
 327:funsape/peripheral/adc.cpp ****     debugMessage(Error::NONE, DEBUG_ADC);
 749               		.loc 2 327 22 is_stmt 0 view .LVU241
 750 0014 1282      		std Z+2,__zero_reg__
 751 0016 1182      		std Z+1,__zero_reg__
 328:funsape/peripheral/adc.cpp ****     return true;
 752               		.loc 2 328 5 is_stmt 1 view .LVU242
 328:funsape/peripheral/adc.cpp ****     return true;
 753               		.loc 2 328 41 view .LVU243
 329:funsape/peripheral/adc.cpp **** }
 754               		.loc 2 329 5 view .LVU244
 330:funsape/peripheral/adc.cpp **** 
 755               		.loc 2 330 1 is_stmt 0 view .LVU245
 756 0018 81E0      		ldi r24,lo8(1)
 757               	/* epilogue start */
 758 001a 0895      		ret
 759               		.cfi_endproc
 760               	.LFE52:
 762               		.section	.text._ZN3Adc6enableEv,"ax",@progbits
 763               	.global	_ZN3Adc6enableEv
 765               	_ZN3Adc6enableEv:
 766               	.LVL60:
 767               	.LFB53:
 334:funsape/peripheral/adc.cpp ****     // Mark passage for debugging purpose
 768               		.loc 2 334 1 is_stmt 1 view -0
 769               		.cfi_startproc
 770               	/* prologue: function */
 771               	/* frame size = 0 */
 772               	/* stack size = 0 */
 773               	.L__stack_usage = 0
 334:funsape/peripheral/adc.cpp ****     // Mark passage for debugging purpose
 774               		.loc 2 334 1 is_stmt 0 view .LVU247
 775 0000 E82F      		mov r30,r24
 776 0002 F92F      		mov r31,r25
 336:funsape/peripheral/adc.cpp **** 
 777               		.loc 2 336 5 is_stmt 1 view .LVU248
 336:funsape/peripheral/adc.cpp **** 
 778               		.loc 2 336 46 view .LVU249
 339:funsape/peripheral/adc.cpp **** 
 779               		.loc 2 339 5 view .LVU250
 780 0004 AAE7      		ldi r26,lo8(122)
 781 0006 B0E0      		ldi r27,0
 782 0008 8C91      		ld r24,X
 783               	.LVL61:
 339:funsape/peripheral/adc.cpp **** 
 784               		.loc 2 339 5 is_stmt 0 view .LVU251
 785 000a 8068      		ori r24,lo8(-128)
 786 000c 8C93      		st X,r24
 342:funsape/peripheral/adc.cpp **** 
 787               		.loc 2 342 5 is_stmt 1 view .LVU252
 342:funsape/peripheral/adc.cpp **** 
 788               		.loc 2 342 41 is_stmt 0 view .LVU253
 789 000e 8081      		ld r24,Z
 790 0010 8160      		ori r24,lo8(1<<0)
 791 0012 8083      		st Z,r24
 345:funsape/peripheral/adc.cpp ****     debugMessage(Error::NONE, DEBUG_ADC);
 792               		.loc 2 345 5 is_stmt 1 view .LVU254
GAS LISTING C:\Users\kenne\AppData\Local\Temp\ccmiL9m5.s 			page 40


 345:funsape/peripheral/adc.cpp ****     debugMessage(Error::NONE, DEBUG_ADC);
 793               		.loc 2 345 22 is_stmt 0 view .LVU255
 794 0014 1282      		std Z+2,__zero_reg__
 795 0016 1182      		std Z+1,__zero_reg__
 346:funsape/peripheral/adc.cpp ****     return true;
 796               		.loc 2 346 5 is_stmt 1 view .LVU256
 346:funsape/peripheral/adc.cpp ****     return true;
 797               		.loc 2 346 41 view .LVU257
 347:funsape/peripheral/adc.cpp **** }
 798               		.loc 2 347 5 view .LVU258
 348:funsape/peripheral/adc.cpp **** 
 799               		.loc 2 348 1 is_stmt 0 view .LVU259
 800 0018 81E0      		ldi r24,lo8(1)
 801               	/* epilogue start */
 802 001a 0895      		ret
 803               		.cfi_endproc
 804               	.LFE53:
 806               		.section	.text._ZN3Adc7disableEv,"ax",@progbits
 807               	.global	_ZN3Adc7disableEv
 809               	_ZN3Adc7disableEv:
 810               	.LVL62:
 811               	.LFB54:
 351:funsape/peripheral/adc.cpp ****     // Mark passage for debugging purpose
 812               		.loc 2 351 1 is_stmt 1 view -0
 813               		.cfi_startproc
 814               	/* prologue: function */
 815               	/* frame size = 0 */
 816               	/* stack size = 0 */
 817               	.L__stack_usage = 0
 351:funsape/peripheral/adc.cpp ****     // Mark passage for debugging purpose
 818               		.loc 2 351 1 is_stmt 0 view .LVU261
 819 0000 E82F      		mov r30,r24
 820 0002 F92F      		mov r31,r25
 353:funsape/peripheral/adc.cpp **** 
 821               		.loc 2 353 5 is_stmt 1 view .LVU262
 353:funsape/peripheral/adc.cpp **** 
 822               		.loc 2 353 47 view .LVU263
 356:funsape/peripheral/adc.cpp **** 
 823               		.loc 2 356 5 view .LVU264
 824 0004 AAE7      		ldi r26,lo8(122)
 825 0006 B0E0      		ldi r27,0
 826 0008 8C91      		ld r24,X
 827               	.LVL63:
 356:funsape/peripheral/adc.cpp **** 
 828               		.loc 2 356 5 is_stmt 0 view .LVU265
 829 000a 8F77      		andi r24,lo8(127)
 830 000c 8C93      		st X,r24
 359:funsape/peripheral/adc.cpp **** 
 831               		.loc 2 359 5 is_stmt 1 view .LVU266
 359:funsape/peripheral/adc.cpp **** 
 832               		.loc 2 359 41 is_stmt 0 view .LVU267
 833 000e 8081      		ld r24,Z
 834 0010 8E7F      		andi r24,lo8(~(1<<0))
 835 0012 8083      		st Z,r24
 362:funsape/peripheral/adc.cpp ****     debugMessage(Error::NONE, DEBUG_ADC);
 836               		.loc 2 362 5 is_stmt 1 view .LVU268
 362:funsape/peripheral/adc.cpp ****     debugMessage(Error::NONE, DEBUG_ADC);
GAS LISTING C:\Users\kenne\AppData\Local\Temp\ccmiL9m5.s 			page 41


 837               		.loc 2 362 22 is_stmt 0 view .LVU269
 838 0014 1282      		std Z+2,__zero_reg__
 839 0016 1182      		std Z+1,__zero_reg__
 363:funsape/peripheral/adc.cpp ****     return true;
 840               		.loc 2 363 5 is_stmt 1 view .LVU270
 363:funsape/peripheral/adc.cpp ****     return true;
 841               		.loc 2 363 41 view .LVU271
 364:funsape/peripheral/adc.cpp **** }
 842               		.loc 2 364 5 view .LVU272
 365:funsape/peripheral/adc.cpp **** 
 843               		.loc 2 365 1 is_stmt 0 view .LVU273
 844 0018 81E0      		ldi r24,lo8(1)
 845               	/* epilogue start */
 846 001a 0895      		ret
 847               		.cfi_endproc
 848               	.LFE54:
 850               		.section	.text._ZN3Adc12getLastErrorEv,"ax",@progbits
 851               	.global	_ZN3Adc12getLastErrorEv
 853               	_ZN3Adc12getLastErrorEv:
 854               	.LVL64:
 855               	.LFB55:
 368:funsape/peripheral/adc.cpp ****     // Returns last error
 856               		.loc 2 368 1 is_stmt 1 view -0
 857               		.cfi_startproc
 858               	/* prologue: function */
 859               	/* frame size = 0 */
 860               	/* stack size = 0 */
 861               	.L__stack_usage = 0
 370:funsape/peripheral/adc.cpp **** }
 862               		.loc 2 370 5 view .LVU275
 371:funsape/peripheral/adc.cpp **** 
 863               		.loc 2 371 1 is_stmt 0 view .LVU276
 864 0000 FC01      		movw r30,r24
 865 0002 8181      		ldd r24,Z+1
 866 0004 9281      		ldd r25,Z+2
 867               	.LVL65:
 868               	/* epilogue start */
 371:funsape/peripheral/adc.cpp **** 
 869               		.loc 2 371 1 view .LVU277
 870 0006 0895      		ret
 871               		.cfi_endproc
 872               	.LFE55:
 874               		.section	.text._ZN3Adc15startConversionEv,"ax",@progbits
 875               	.global	_ZN3Adc15startConversionEv
 877               	_ZN3Adc15startConversionEv:
 878               	.LVL66:
 879               	.LFB56:
 374:funsape/peripheral/adc.cpp ****     // Mark passage for debugging purpose
 880               		.loc 2 374 1 is_stmt 1 view -0
 881               		.cfi_startproc
 882               	/* prologue: function */
 883               	/* frame size = 0 */
 884               	/* stack size = 0 */
 885               	.L__stack_usage = 0
 374:funsape/peripheral/adc.cpp ****     // Mark passage for debugging purpose
 886               		.loc 2 374 1 is_stmt 0 view .LVU279
 887 0000 DC01      		movw r26,r24
GAS LISTING C:\Users\kenne\AppData\Local\Temp\ccmiL9m5.s 			page 42


 376:funsape/peripheral/adc.cpp **** 
 888               		.loc 2 376 5 is_stmt 1 view .LVU280
 376:funsape/peripheral/adc.cpp **** 
 889               		.loc 2 376 55 view .LVU281
 379:funsape/peripheral/adc.cpp **** 
 890               		.loc 2 379 5 view .LVU282
 891 0002 EAE7      		ldi r30,lo8(122)
 892 0004 F0E0      		ldi r31,0
 893 0006 9081      		ld r25,Z
 894 0008 9064      		ori r25,lo8(64)
 895 000a 9083      		st Z,r25
 382:funsape/peripheral/adc.cpp ****     debugMessage(Error::NONE, DEBUG_ADC);
 896               		.loc 2 382 5 view .LVU283
 382:funsape/peripheral/adc.cpp ****     debugMessage(Error::NONE, DEBUG_ADC);
 897               		.loc 2 382 22 is_stmt 0 view .LVU284
 898 000c 1296      		adiw r26,1+1
 899 000e 1C92      		st X,__zero_reg__
 900 0010 1E92      		st -X,__zero_reg__
 901 0012 1197      		sbiw r26,1
 383:funsape/peripheral/adc.cpp ****     return true;
 902               		.loc 2 383 5 is_stmt 1 view .LVU285
 383:funsape/peripheral/adc.cpp ****     return true;
 903               		.loc 2 383 41 view .LVU286
 384:funsape/peripheral/adc.cpp **** }
 904               		.loc 2 384 5 view .LVU287
 385:funsape/peripheral/adc.cpp **** 
 905               		.loc 2 385 1 is_stmt 0 view .LVU288
 906 0014 81E0      		ldi r24,lo8(1)
 907               	.LVL67:
 908               	/* epilogue start */
 385:funsape/peripheral/adc.cpp **** 
 909               		.loc 2 385 1 view .LVU289
 910 0016 0895      		ret
 911               		.cfi_endproc
 912               	.LFE56:
 914               		.section	.text._ZN3Adc25waitUntilConversionFinishEv,"ax",@progbits
 915               	.global	_ZN3Adc25waitUntilConversionFinishEv
 917               	_ZN3Adc25waitUntilConversionFinishEv:
 918               	.LVL68:
 919               	.LFB57:
 388:funsape/peripheral/adc.cpp ****     // Mark passage for debugging purpose
 920               		.loc 2 388 1 is_stmt 1 view -0
 921               		.cfi_startproc
 922               	/* prologue: function */
 923               	/* frame size = 0 */
 924               	/* stack size = 0 */
 925               	.L__stack_usage = 0
 388:funsape/peripheral/adc.cpp ****     // Mark passage for debugging purpose
 926               		.loc 2 388 1 is_stmt 0 view .LVU291
 927 0000 E82F      		mov r30,r24
 928 0002 F92F      		mov r31,r25
 929               	.LVL69:
 930               	.L31:
 390:funsape/peripheral/adc.cpp **** 
 931               		.loc 2 390 5 is_stmt 1 discriminator 1 view .LVU292
 390:funsape/peripheral/adc.cpp **** 
 932               		.loc 2 390 65 discriminator 1 view .LVU293
GAS LISTING C:\Users\kenne\AppData\Local\Temp\ccmiL9m5.s 			page 43


 392:funsape/peripheral/adc.cpp **** 
 933               		.loc 2 392 5 discriminator 1 view .LVU294
 392:funsape/peripheral/adc.cpp **** 
 934               		.loc 2 392 5 discriminator 1 view .LVU295
 392:funsape/peripheral/adc.cpp **** 
 935               		.loc 2 392 5 discriminator 1 view .LVU296
 936 0004 8091 7A00 		lds r24,122
 937 0008 86FD      		sbrc r24,6
 938 000a 00C0      		rjmp .L31
 395:funsape/peripheral/adc.cpp ****     debugMessage(Error::NONE, DEBUG_ADC);
 939               		.loc 2 395 5 view .LVU297
 395:funsape/peripheral/adc.cpp ****     debugMessage(Error::NONE, DEBUG_ADC);
 940               		.loc 2 395 22 is_stmt 0 view .LVU298
 941 000c 1282      		std Z+2,__zero_reg__
 942 000e 1182      		std Z+1,__zero_reg__
 396:funsape/peripheral/adc.cpp ****     return true;
 943               		.loc 2 396 5 is_stmt 1 view .LVU299
 396:funsape/peripheral/adc.cpp ****     return true;
 944               		.loc 2 396 41 view .LVU300
 397:funsape/peripheral/adc.cpp **** }
 945               		.loc 2 397 5 view .LVU301
 398:funsape/peripheral/adc.cpp **** 
 946               		.loc 2 398 1 is_stmt 0 view .LVU302
 947 0010 81E0      		ldi r24,lo8(1)
 948               	/* epilogue start */
 949 0012 0895      		ret
 950               		.cfi_endproc
 951               	.LFE57:
 953               		.section	.text._Z29adcConversionCompleteCallbackv,"ax",@progbits
 954               		.weak	_Z29adcConversionCompleteCallbackv
 956               	_Z29adcConversionCompleteCallbackv:
 957               	.LFB58:
 423:funsape/peripheral/adc.cpp ****     return;
 958               		.loc 2 423 1 is_stmt 1 view -0
 959               		.cfi_startproc
 960               	/* prologue: function */
 961               	/* frame size = 0 */
 962               	/* stack size = 0 */
 963               	.L__stack_usage = 0
 424:funsape/peripheral/adc.cpp **** }
 964               		.loc 2 424 5 view .LVU304
 965               	/* epilogue start */
 425:funsape/peripheral/adc.cpp **** 
 966               		.loc 2 425 1 is_stmt 0 view .LVU305
 967 0000 0895      		ret
 968               		.cfi_endproc
 969               	.LFE58:
 971               		.section	.text.__vector_21,"ax",@progbits
 972               	.global	__vector_21
 974               	__vector_21:
 975               	.LFB59:
 436:funsape/peripheral/adc.cpp ****     adcConversionCompleteCallback();
 976               		.loc 2 436 1 is_stmt 1 view -0
 977               		.cfi_startproc
 978 0000 1F92      		push r1
 979               		.cfi_def_cfa_offset 3
 980               		.cfi_offset 1, -2
GAS LISTING C:\Users\kenne\AppData\Local\Temp\ccmiL9m5.s 			page 44


 981 0002 0F92      		push r0
 982               		.cfi_def_cfa_offset 4
 983               		.cfi_offset 0, -3
 984 0004 0FB6      		in r0,__SREG__
 985 0006 0F92      		push r0
 986 0008 1124      		clr __zero_reg__
 987 000a 2F93      		push r18
 988               		.cfi_def_cfa_offset 5
 989               		.cfi_offset 18, -4
 990 000c 3F93      		push r19
 991               		.cfi_def_cfa_offset 6
 992               		.cfi_offset 19, -5
 993 000e 4F93      		push r20
 994               		.cfi_def_cfa_offset 7
 995               		.cfi_offset 20, -6
 996 0010 5F93      		push r21
 997               		.cfi_def_cfa_offset 8
 998               		.cfi_offset 21, -7
 999 0012 6F93      		push r22
 1000               		.cfi_def_cfa_offset 9
 1001               		.cfi_offset 22, -8
 1002 0014 7F93      		push r23
 1003               		.cfi_def_cfa_offset 10
 1004               		.cfi_offset 23, -9
 1005 0016 8F93      		push r24
 1006               		.cfi_def_cfa_offset 11
 1007               		.cfi_offset 24, -10
 1008 0018 9F93      		push r25
 1009               		.cfi_def_cfa_offset 12
 1010               		.cfi_offset 25, -11
 1011 001a AF93      		push r26
 1012               		.cfi_def_cfa_offset 13
 1013               		.cfi_offset 26, -12
 1014 001c BF93      		push r27
 1015               		.cfi_def_cfa_offset 14
 1016               		.cfi_offset 27, -13
 1017 001e EF93      		push r30
 1018               		.cfi_def_cfa_offset 15
 1019               		.cfi_offset 30, -14
 1020 0020 FF93      		push r31
 1021               		.cfi_def_cfa_offset 16
 1022               		.cfi_offset 31, -15
 1023               	/* prologue: Signal */
 1024               	/* frame size = 0 */
 1025               	/* stack size = 15 */
 1026               	.L__stack_usage = 15
 437:funsape/peripheral/adc.cpp **** }
 1027               		.loc 2 437 5 view .LVU307
 437:funsape/peripheral/adc.cpp **** }
 1028               		.loc 2 437 34 is_stmt 0 view .LVU308
 1029 0022 0E94 0000 		call _Z29adcConversionCompleteCallbackv
 1030               	.LVL70:
 1031               	/* epilogue start */
 1032               		.loc 2 438 1 view .LVU309
 1033 0026 FF91      		pop r31
 1034 0028 EF91      		pop r30
 1035 002a BF91      		pop r27
GAS LISTING C:\Users\kenne\AppData\Local\Temp\ccmiL9m5.s 			page 45


 1036 002c AF91      		pop r26
 1037 002e 9F91      		pop r25
 1038 0030 8F91      		pop r24
 1039 0032 7F91      		pop r23
 1040 0034 6F91      		pop r22
 1041 0036 5F91      		pop r21
 1042 0038 4F91      		pop r20
 1043 003a 3F91      		pop r19
 1044 003c 2F91      		pop r18
 1045 003e 0F90      		pop r0
 1046 0040 0FBE      		out __SREG__,r0
 1047 0042 0F90      		pop r0
 1048 0044 1F90      		pop r1
 1049 0046 1895      		reti
 1050               		.cfi_endproc
 1051               	.LFE59:
 1053               		.section	.text._GLOBAL__sub_I_adc,"ax",@progbits
 1055               	_GLOBAL__sub_I_adc:
 1056               	.LFB61:
 1057               		.loc 2 438 1 is_stmt 1 view -0
 1058               		.cfi_startproc
 1059               	/* prologue: function */
 1060               	/* frame size = 0 */
 1061               	/* stack size = 0 */
 1062               	.L__stack_usage = 0
 1063               		.loc 2 438 1 is_stmt 0 view .LVU311
 1064 0000 6FEF      		ldi r22,lo8(-1)
 1065 0002 7FEF      		ldi r23,lo8(-1)
 1066 0004 81E0      		ldi r24,lo8(1)
 1067 0006 90E0      		ldi r25,0
 1068 0008 0E94 0000 		call _Z41__static_initialization_and_destruction_0ii
 1069               	.LVL71:
 1070               	/* epilogue start */
 1071 000c 0895      		ret
 1072               		.cfi_endproc
 1073               	.LFE61:
 1075               		.global __do_global_ctors
 1076               		.section .ctors,"a",@progbits
 1077               		.p2align	1
 1078 0000 0000      		.word	gs(_GLOBAL__sub_I_adc)
 1079               		.section	.text._GLOBAL__sub_D_adc,"ax",@progbits
 1081               	_GLOBAL__sub_D_adc:
 1082               	.LFB62:
 1083               		.loc 2 438 1 is_stmt 1 view -0
 1084               		.cfi_startproc
 1085               	/* prologue: function */
 1086               	/* frame size = 0 */
 1087               	/* stack size = 0 */
 1088               	.L__stack_usage = 0
 1089               		.loc 2 438 1 is_stmt 0 view .LVU313
 1090 0000 6FEF      		ldi r22,lo8(-1)
 1091 0002 7FEF      		ldi r23,lo8(-1)
 1092 0004 80E0      		ldi r24,0
 1093 0006 90E0      		ldi r25,0
 1094 0008 0E94 0000 		call _Z41__static_initialization_and_destruction_0ii
 1095               	.LVL72:
 1096               	/* epilogue start */
GAS LISTING C:\Users\kenne\AppData\Local\Temp\ccmiL9m5.s 			page 46


 1097 000c 0895      		ret
 1098               		.cfi_endproc
 1099               	.LFE62:
 1101               		.global __do_global_dtors
 1102               		.section .dtors,"a",@progbits
 1103               		.p2align	1
 1104 0000 0000      		.word	gs(_GLOBAL__sub_D_adc)
 1105               	.global	adc
 1106               		.section	.bss.adc,"aw",@nobits
 1109               	adc:
 1110 0000 0000 0000 		.zero	9
 1110      0000 0000 
 1110      00
 1111               		.text
 1112               	.Letext0:
 1113               		.file 3 "c:\\d\\ifsc\\vscodeleandro\\ex\\toolchains\\avr-gcc\\avr\\include\\stdint.h"
 1114               		.file 4 "funsape/peripheral/adc.hpp"
GAS LISTING C:\Users\kenne\AppData\Local\Temp\ccmiL9m5.s 			page 47


DEFINED SYMBOLS
                            *ABS*:00000000 adc.cpp
C:\Users\kenne\AppData\Local\Temp\ccmiL9m5.s:2      *ABS*:0000003e __SP_H__
C:\Users\kenne\AppData\Local\Temp\ccmiL9m5.s:3      *ABS*:0000003d __SP_L__
C:\Users\kenne\AppData\Local\Temp\ccmiL9m5.s:4      *ABS*:0000003f __SREG__
C:\Users\kenne\AppData\Local\Temp\ccmiL9m5.s:5      *ABS*:00000000 __tmp_reg__
C:\Users\kenne\AppData\Local\Temp\ccmiL9m5.s:6      *ABS*:00000001 __zero_reg__
C:\Users\kenne\AppData\Local\Temp\ccmiL9m5.s:14     .text._Z7getTickv:00000000 _Z7getTickv
C:\Users\kenne\AppData\Local\Temp\ccmiL9m5.s:17     .text._Z7getTickv:00000000 .Loc.0
C:\Users\kenne\AppData\Local\Temp\ccmiL9m5.s:18     .text._Z7getTickv:00000000 L0
C:\Users\kenne\AppData\Local\Temp\ccmiL9m5.s:23     .text._Z7getTickv:00000000 .Loc.1
C:\Users\kenne\AppData\Local\Temp\ccmiL9m5.s:24     .text._Z7getTickv:00000000 .Loc.2
C:\Users\kenne\AppData\Local\Temp\ccmiL9m5.s:30     .text._Z7getTickv:00000008 L0
C:\Users\kenne\AppData\Local\Temp\ccmiL9m5.s:36     .text._ZN3AdcC2Ev:00000000 _ZN3AdcC2Ev
C:\Users\kenne\AppData\Local\Temp\ccmiL9m5.s:40     .text._ZN3AdcC2Ev:00000000 .Loc.3
C:\Users\kenne\AppData\Local\Temp\ccmiL9m5.s:41     .text._ZN3AdcC2Ev:00000000 L0
C:\Users\kenne\AppData\Local\Temp\ccmiL9m5.s:46     .text._ZN3AdcC2Ev:00000000 .Loc.4
C:\Users\kenne\AppData\Local\Temp\ccmiL9m5.s:50     .text._ZN3AdcC2Ev:00000004 .Loc.5
C:\Users\kenne\AppData\Local\Temp\ccmiL9m5.s:51     .text._ZN3AdcC2Ev:00000004 .Loc.6
C:\Users\kenne\AppData\Local\Temp\ccmiL9m5.s:52     .text._ZN3AdcC2Ev:00000004 .Loc.7
C:\Users\kenne\AppData\Local\Temp\ccmiL9m5.s:53     .text._ZN3AdcC2Ev:00000004 .Loc.8
C:\Users\kenne\AppData\Local\Temp\ccmiL9m5.s:55     .text._ZN3AdcC2Ev:00000006 .Loc.9
C:\Users\kenne\AppData\Local\Temp\ccmiL9m5.s:56     .text._ZN3AdcC2Ev:00000006 .Loc.10
C:\Users\kenne\AppData\Local\Temp\ccmiL9m5.s:59     .text._ZN3AdcC2Ev:00000008 .Loc.11
C:\Users\kenne\AppData\Local\Temp\ccmiL9m5.s:62     .text._ZN3AdcC2Ev:0000000c .Loc.12
C:\Users\kenne\AppData\Local\Temp\ccmiL9m5.s:63     .text._ZN3AdcC2Ev:0000000c .Loc.13
C:\Users\kenne\AppData\Local\Temp\ccmiL9m5.s:67     .text._ZN3AdcC2Ev:00000012 .Loc.14
C:\Users\kenne\AppData\Local\Temp\ccmiL9m5.s:68     .text._ZN3AdcC2Ev:00000012 .Loc.15
C:\Users\kenne\AppData\Local\Temp\ccmiL9m5.s:71     .text._ZN3AdcC2Ev:00000016 .Loc.16
C:\Users\kenne\AppData\Local\Temp\ccmiL9m5.s:72     .text._ZN3AdcC2Ev:00000016 .Loc.17
C:\Users\kenne\AppData\Local\Temp\ccmiL9m5.s:75     .text._ZN3AdcC2Ev:0000001a .Loc.18
C:\Users\kenne\AppData\Local\Temp\ccmiL9m5.s:76     .text._ZN3AdcC2Ev:0000001a .Loc.19
C:\Users\kenne\AppData\Local\Temp\ccmiL9m5.s:81     .text._ZN3AdcC2Ev:00000022 .Loc.20
C:\Users\kenne\AppData\Local\Temp\ccmiL9m5.s:82     .text._ZN3AdcC2Ev:00000022 .Loc.21
C:\Users\kenne\AppData\Local\Temp\ccmiL9m5.s:84     .text._ZN3AdcC2Ev:00000024 .Loc.22
C:\Users\kenne\AppData\Local\Temp\ccmiL9m5.s:85     .text._ZN3AdcC2Ev:00000024 .Loc.23
C:\Users\kenne\AppData\Local\Temp\ccmiL9m5.s:87     .text._ZN3AdcC2Ev:00000026 .Loc.24
C:\Users\kenne\AppData\Local\Temp\ccmiL9m5.s:88     .text._ZN3AdcC2Ev:00000026 .Loc.25
C:\Users\kenne\AppData\Local\Temp\ccmiL9m5.s:91     .text._ZN3AdcC2Ev:0000002a .Loc.26
C:\Users\kenne\AppData\Local\Temp\ccmiL9m5.s:92     .text._ZN3AdcC2Ev:0000002a .Loc.27
C:\Users\kenne\AppData\Local\Temp\ccmiL9m5.s:93     .text._ZN3AdcC2Ev:0000002a .Loc.28
C:\Users\kenne\AppData\Local\Temp\ccmiL9m5.s:96     .text._ZN3AdcC2Ev:0000002a .Loc.29
C:\Users\kenne\AppData\Local\Temp\ccmiL9m5.s:98     .text._ZN3AdcC2Ev:0000002c L0
C:\Users\kenne\AppData\Local\Temp\ccmiL9m5.s:36     .text._ZN3AdcC2Ev:00000000 _ZN3AdcC1Ev
C:\Users\kenne\AppData\Local\Temp\ccmiL9m5.s:106    .text._ZN3AdcD2Ev:00000000 _ZN3AdcD2Ev
C:\Users\kenne\AppData\Local\Temp\ccmiL9m5.s:109    .text._ZN3AdcD2Ev:00000000 .Loc.30
C:\Users\kenne\AppData\Local\Temp\ccmiL9m5.s:110    .text._ZN3AdcD2Ev:00000000 L0
C:\Users\kenne\AppData\Local\Temp\ccmiL9m5.s:115    .text._ZN3AdcD2Ev:00000000 .Loc.31
C:\Users\kenne\AppData\Local\Temp\ccmiL9m5.s:116    .text._ZN3AdcD2Ev:00000000 .Loc.32
C:\Users\kenne\AppData\Local\Temp\ccmiL9m5.s:117    .text._ZN3AdcD2Ev:00000000 .Loc.33
C:\Users\kenne\AppData\Local\Temp\ccmiL9m5.s:119    .text._ZN3AdcD2Ev:00000000 .Loc.34
C:\Users\kenne\AppData\Local\Temp\ccmiL9m5.s:121    .text._ZN3AdcD2Ev:00000002 L0
C:\Users\kenne\AppData\Local\Temp\ccmiL9m5.s:106    .text._ZN3AdcD2Ev:00000000 _ZN3AdcD1Ev
C:\Users\kenne\AppData\Local\Temp\ccmiL9m5.s:128    .text._Z41__static_initialization_and_destruction_0ii:00000000 _Z41__static_initialization_and_destruction_0ii
C:\Users\kenne\AppData\Local\Temp\ccmiL9m5.s:131    .text._Z41__static_initialization_and_destruction_0ii:00000000 .Loc.35
C:\Users\kenne\AppData\Local\Temp\ccmiL9m5.s:132    .text._Z41__static_initialization_and_destruction_0ii:00000000 L0
C:\Users\kenne\AppData\Local\Temp\ccmiL9m5.s:137    .text._Z41__static_initialization_and_destruction_0ii:00000000 .Loc.36
GAS LISTING C:\Users\kenne\AppData\Local\Temp\ccmiL9m5.s 			page 48


C:\Users\kenne\AppData\Local\Temp\ccmiL9m5.s:140    .text._Z41__static_initialization_and_destruction_0ii:00000004 .Loc.37
C:\Users\kenne\AppData\Local\Temp\ccmiL9m5.s:146    .text._Z41__static_initialization_and_destruction_0ii:00000008 .Loc.38
C:\Users\kenne\AppData\Local\Temp\ccmiL9m5.s:150    .text._Z41__static_initialization_and_destruction_0ii:0000000a .Loc.39
C:\Users\kenne\AppData\Local\Temp\ccmiL9m5.s:154    .text._Z41__static_initialization_and_destruction_0ii:0000000e .Loc.40
C:\Users\kenne\AppData\Local\Temp\ccmiL9m5.s:156    .text._Z41__static_initialization_and_destruction_0ii:00000010 .Loc.41
C:\Users\kenne\AppData\Local\Temp\ccmiL9m5.s:1109   .bss.adc:00000000 adc
C:\Users\kenne\AppData\Local\Temp\ccmiL9m5.s:161    .text._Z41__static_initialization_and_destruction_0ii:00000018 .Loc.42
C:\Users\kenne\AppData\Local\Temp\ccmiL9m5.s:163    .text._Z41__static_initialization_and_destruction_0ii:0000001a L0
C:\Users\kenne\AppData\Local\Temp\ccmiL9m5.s:169    .text._ZN3Adc4initENS_4ModeENS_9ReferenceENS_9PrescalerE:00000000 _ZN3Adc4initENS_4ModeENS_9ReferenceENS_9PrescalerE
C:\Users\kenne\AppData\Local\Temp\ccmiL9m5.s:172    .text._ZN3Adc4initENS_4ModeENS_9ReferenceENS_9PrescalerE:00000000 .Loc.43
C:\Users\kenne\AppData\Local\Temp\ccmiL9m5.s:173    .text._ZN3Adc4initENS_4ModeENS_9ReferenceENS_9PrescalerE:00000000 L0
C:\Users\kenne\AppData\Local\Temp\ccmiL9m5.s:178    .text._ZN3Adc4initENS_4ModeENS_9ReferenceENS_9PrescalerE:00000000 .Loc.44
C:\Users\kenne\AppData\Local\Temp\ccmiL9m5.s:183    .text._ZN3Adc4initENS_4ModeENS_9ReferenceENS_9PrescalerE:00000008 .Loc.45
C:\Users\kenne\AppData\Local\Temp\ccmiL9m5.s:184    .text._ZN3Adc4initENS_4ModeENS_9ReferenceENS_9PrescalerE:00000008 .Loc.46
C:\Users\kenne\AppData\Local\Temp\ccmiL9m5.s:185    .text._ZN3Adc4initENS_4ModeENS_9ReferenceENS_9PrescalerE:00000008 .Loc.47
C:\Users\kenne\AppData\Local\Temp\ccmiL9m5.s:186    .text._ZN3Adc4initENS_4ModeENS_9ReferenceENS_9PrescalerE:00000008 .Loc.48
C:\Users\kenne\AppData\Local\Temp\ccmiL9m5.s:189    .text._ZN3Adc4initENS_4ModeENS_9ReferenceENS_9PrescalerE:0000000c .Loc.49
C:\Users\kenne\AppData\Local\Temp\ccmiL9m5.s:190    .text._ZN3Adc4initENS_4ModeENS_9ReferenceENS_9PrescalerE:0000000c .Loc.50
C:\Users\kenne\AppData\Local\Temp\ccmiL9m5.s:193    .text._ZN3Adc4initENS_4ModeENS_9ReferenceENS_9PrescalerE:00000010 .Loc.51
C:\Users\kenne\AppData\Local\Temp\ccmiL9m5.s:194    .text._ZN3Adc4initENS_4ModeENS_9ReferenceENS_9PrescalerE:00000010 .Loc.52
C:\Users\kenne\AppData\Local\Temp\ccmiL9m5.s:197    .text._ZN3Adc4initENS_4ModeENS_9ReferenceENS_9PrescalerE:00000014 .Loc.53
C:\Users\kenne\AppData\Local\Temp\ccmiL9m5.s:200    .text._ZN3Adc4initENS_4ModeENS_9ReferenceENS_9PrescalerE:00000016 .Loc.54
C:\Users\kenne\AppData\Local\Temp\ccmiL9m5.s:204    .text._ZN3Adc4initENS_4ModeENS_9ReferenceENS_9PrescalerE:0000001c .Loc.55
C:\Users\kenne\AppData\Local\Temp\ccmiL9m5.s:207    .text._ZN3Adc4initENS_4ModeENS_9ReferenceENS_9PrescalerE:0000001e .Loc.56
C:\Users\kenne\AppData\Local\Temp\ccmiL9m5.s:211    .text._ZN3Adc4initENS_4ModeENS_9ReferenceENS_9PrescalerE:00000020 .Loc.57
C:\Users\kenne\AppData\Local\Temp\ccmiL9m5.s:214    .text._ZN3Adc4initENS_4ModeENS_9ReferenceENS_9PrescalerE:00000022 .Loc.58
C:\Users\kenne\AppData\Local\Temp\ccmiL9m5.s:222    .text._ZN3Adc4initENS_4ModeENS_9ReferenceENS_9PrescalerE:0000002e .Loc.59
C:\Users\kenne\AppData\Local\Temp\ccmiL9m5.s:225    .text._ZN3Adc4initENS_4ModeENS_9ReferenceENS_9PrescalerE:00000030 .Loc.60
C:\Users\kenne\AppData\Local\Temp\ccmiL9m5.s:228    .text._ZN3Adc4initENS_4ModeENS_9ReferenceENS_9PrescalerE:00000032 .Loc.61
C:\Users\kenne\AppData\Local\Temp\ccmiL9m5.s:229    .text._ZN3Adc4initENS_4ModeENS_9ReferenceENS_9PrescalerE:00000032 .Loc.62
C:\Users\kenne\AppData\Local\Temp\ccmiL9m5.s:231    .text._ZN3Adc4initENS_4ModeENS_9ReferenceENS_9PrescalerE:00000036 .Loc.63
C:\Users\kenne\AppData\Local\Temp\ccmiL9m5.s:232    .text._ZN3Adc4initENS_4ModeENS_9ReferenceENS_9PrescalerE:00000036 .Loc.64
C:\Users\kenne\AppData\Local\Temp\ccmiL9m5.s:234    .text._ZN3Adc4initENS_4ModeENS_9ReferenceENS_9PrescalerE:0000003a .Loc.65
C:\Users\kenne\AppData\Local\Temp\ccmiL9m5.s:235    .text._ZN3Adc4initENS_4ModeENS_9ReferenceENS_9PrescalerE:0000003a .Loc.66
C:\Users\kenne\AppData\Local\Temp\ccmiL9m5.s:237    .text._ZN3Adc4initENS_4ModeENS_9ReferenceENS_9PrescalerE:0000003e .Loc.67
C:\Users\kenne\AppData\Local\Temp\ccmiL9m5.s:238    .text._ZN3Adc4initENS_4ModeENS_9ReferenceENS_9PrescalerE:0000003e .Loc.68
C:\Users\kenne\AppData\Local\Temp\ccmiL9m5.s:241    .text._ZN3Adc4initENS_4ModeENS_9ReferenceENS_9PrescalerE:00000042 .Loc.69
C:\Users\kenne\AppData\Local\Temp\ccmiL9m5.s:242    .text._ZN3Adc4initENS_4ModeENS_9ReferenceENS_9PrescalerE:00000042 .Loc.70
C:\Users\kenne\AppData\Local\Temp\ccmiL9m5.s:244    .text._ZN3Adc4initENS_4ModeENS_9ReferenceENS_9PrescalerE:00000044 .Loc.71
C:\Users\kenne\AppData\Local\Temp\ccmiL9m5.s:245    .text._ZN3Adc4initENS_4ModeENS_9ReferenceENS_9PrescalerE:00000044 .Loc.72
C:\Users\kenne\AppData\Local\Temp\ccmiL9m5.s:247    .text._ZN3Adc4initENS_4ModeENS_9ReferenceENS_9PrescalerE:00000046 .Loc.73
C:\Users\kenne\AppData\Local\Temp\ccmiL9m5.s:248    .text._ZN3Adc4initENS_4ModeENS_9ReferenceENS_9PrescalerE:00000046 .Loc.74
C:\Users\kenne\AppData\Local\Temp\ccmiL9m5.s:251    .text._ZN3Adc4initENS_4ModeENS_9ReferenceENS_9PrescalerE:00000048 .Loc.75
C:\Users\kenne\AppData\Local\Temp\ccmiL9m5.s:254    .text._ZN3Adc4initENS_4ModeENS_9ReferenceENS_9PrescalerE:0000004c .Loc.76
C:\Users\kenne\AppData\Local\Temp\ccmiL9m5.s:255    .text._ZN3Adc4initENS_4ModeENS_9ReferenceENS_9PrescalerE:0000004c .Loc.77
C:\Users\kenne\AppData\Local\Temp\ccmiL9m5.s:258    .text._ZN3Adc4initENS_4ModeENS_9ReferenceENS_9PrescalerE:00000050 .Loc.78
C:\Users\kenne\AppData\Local\Temp\ccmiL9m5.s:259    .text._ZN3Adc4initENS_4ModeENS_9ReferenceENS_9PrescalerE:00000050 .Loc.79
C:\Users\kenne\AppData\Local\Temp\ccmiL9m5.s:260    .text._ZN3Adc4initENS_4ModeENS_9ReferenceENS_9PrescalerE:00000050 .Loc.80
C:\Users\kenne\AppData\Local\Temp\ccmiL9m5.s:261    .text._ZN3Adc4initENS_4ModeENS_9ReferenceENS_9PrescalerE:00000050 .Loc.81
C:\Users\kenne\AppData\Local\Temp\ccmiL9m5.s:267    .text._ZN3Adc4initENS_4ModeENS_9ReferenceENS_9PrescalerE:00000054 .Loc.82
C:\Users\kenne\AppData\Local\Temp\ccmiL9m5.s:270    .text._ZN3Adc4initENS_4ModeENS_9ReferenceENS_9PrescalerE:00000056 .Loc.83
C:\Users\kenne\AppData\Local\Temp\ccmiL9m5.s:272    .text._ZN3Adc4initENS_4ModeENS_9ReferenceENS_9PrescalerE:00000058 L0
C:\Users\kenne\AppData\Local\Temp\ccmiL9m5.s:278    .text._ZN3Adc13setDataAdjustENS_10DataAdjustE:00000000 _ZN3Adc13setDataAdjustENS_10DataAdjustE
C:\Users\kenne\AppData\Local\Temp\ccmiL9m5.s:281    .text._ZN3Adc13setDataAdjustENS_10DataAdjustE:00000000 .Loc.84
C:\Users\kenne\AppData\Local\Temp\ccmiL9m5.s:282    .text._ZN3Adc13setDataAdjustENS_10DataAdjustE:00000000 L0
C:\Users\kenne\AppData\Local\Temp\ccmiL9m5.s:287    .text._ZN3Adc13setDataAdjustENS_10DataAdjustE:00000000 .Loc.85
C:\Users\kenne\AppData\Local\Temp\ccmiL9m5.s:290    .text._ZN3Adc13setDataAdjustENS_10DataAdjustE:00000004 .Loc.86
GAS LISTING C:\Users\kenne\AppData\Local\Temp\ccmiL9m5.s 			page 49


C:\Users\kenne\AppData\Local\Temp\ccmiL9m5.s:291    .text._ZN3Adc13setDataAdjustENS_10DataAdjustE:00000004 .Loc.87
C:\Users\kenne\AppData\Local\Temp\ccmiL9m5.s:292    .text._ZN3Adc13setDataAdjustENS_10DataAdjustE:00000004 .Loc.88
C:\Users\kenne\AppData\Local\Temp\ccmiL9m5.s:295    .text._ZN3Adc13setDataAdjustENS_10DataAdjustE:00000008 .Loc.89
C:\Users\kenne\AppData\Local\Temp\ccmiL9m5.s:300    .text._ZN3Adc13setDataAdjustENS_10DataAdjustE:0000000e .Loc.90
C:\Users\kenne\AppData\Local\Temp\ccmiL9m5.s:304    .text._ZN3Adc13setDataAdjustENS_10DataAdjustE:00000012 .Loc.91
C:\Users\kenne\AppData\Local\Temp\ccmiL9m5.s:305    .text._ZN3Adc13setDataAdjustENS_10DataAdjustE:00000012 .Loc.92
C:\Users\kenne\AppData\Local\Temp\ccmiL9m5.s:310    .text._ZN3Adc13setDataAdjustENS_10DataAdjustE:0000001a .Loc.93
C:\Users\kenne\AppData\Local\Temp\ccmiL9m5.s:311    .text._ZN3Adc13setDataAdjustENS_10DataAdjustE:0000001a .Loc.94
C:\Users\kenne\AppData\Local\Temp\ccmiL9m5.s:314    .text._ZN3Adc13setDataAdjustENS_10DataAdjustE:0000001e .Loc.95
C:\Users\kenne\AppData\Local\Temp\ccmiL9m5.s:315    .text._ZN3Adc13setDataAdjustENS_10DataAdjustE:0000001e .Loc.96
C:\Users\kenne\AppData\Local\Temp\ccmiL9m5.s:316    .text._ZN3Adc13setDataAdjustENS_10DataAdjustE:0000001e .Loc.97
C:\Users\kenne\AppData\Local\Temp\ccmiL9m5.s:317    .text._ZN3Adc13setDataAdjustENS_10DataAdjustE:0000001e .Loc.98
C:\Users\kenne\AppData\Local\Temp\ccmiL9m5.s:323    .text._ZN3Adc13setDataAdjustENS_10DataAdjustE:00000022 .Loc.99
C:\Users\kenne\AppData\Local\Temp\ccmiL9m5.s:328    .text._ZN3Adc13setDataAdjustENS_10DataAdjustE:00000028 .Loc.100
C:\Users\kenne\AppData\Local\Temp\ccmiL9m5.s:332    .text._ZN3Adc13setDataAdjustENS_10DataAdjustE:0000002e L0
C:\Users\kenne\AppData\Local\Temp\ccmiL9m5.s:338    .text._ZN3Adc7setModeENS_4ModeE:00000000 _ZN3Adc7setModeENS_4ModeE
C:\Users\kenne\AppData\Local\Temp\ccmiL9m5.s:341    .text._ZN3Adc7setModeENS_4ModeE:00000000 .Loc.101
C:\Users\kenne\AppData\Local\Temp\ccmiL9m5.s:342    .text._ZN3Adc7setModeENS_4ModeE:00000000 L0
C:\Users\kenne\AppData\Local\Temp\ccmiL9m5.s:347    .text._ZN3Adc7setModeENS_4ModeE:00000000 .Loc.102
C:\Users\kenne\AppData\Local\Temp\ccmiL9m5.s:352    .text._ZN3Adc7setModeENS_4ModeE:00000006 .Loc.103
C:\Users\kenne\AppData\Local\Temp\ccmiL9m5.s:354    .text._ZN3Adc7setModeENS_4ModeE:00000008 .Loc.104
C:\Users\kenne\AppData\Local\Temp\ccmiL9m5.s:355    .text._ZN3Adc7setModeENS_4ModeE:00000008 .Loc.105
C:\Users\kenne\AppData\Local\Temp\ccmiL9m5.s:356    .text._ZN3Adc7setModeENS_4ModeE:00000008 .Loc.106
C:\Users\kenne\AppData\Local\Temp\ccmiL9m5.s:357    .text._ZN3Adc7setModeENS_4ModeE:00000008 .Loc.107
C:\Users\kenne\AppData\Local\Temp\ccmiL9m5.s:360    .text._ZN3Adc7setModeENS_4ModeE:0000000c .Loc.108
C:\Users\kenne\AppData\Local\Temp\ccmiL9m5.s:361    .text._ZN3Adc7setModeENS_4ModeE:0000000c .Loc.109
C:\Users\kenne\AppData\Local\Temp\ccmiL9m5.s:364    .text._ZN3Adc7setModeENS_4ModeE:00000010 .Loc.110
C:\Users\kenne\AppData\Local\Temp\ccmiL9m5.s:367    .text._ZN3Adc7setModeENS_4ModeE:00000012 .Loc.111
C:\Users\kenne\AppData\Local\Temp\ccmiL9m5.s:371    .text._ZN3Adc7setModeENS_4ModeE:00000018 .Loc.112
C:\Users\kenne\AppData\Local\Temp\ccmiL9m5.s:374    .text._ZN3Adc7setModeENS_4ModeE:0000001a .Loc.113
C:\Users\kenne\AppData\Local\Temp\ccmiL9m5.s:378    .text._ZN3Adc7setModeENS_4ModeE:0000001c .Loc.114
C:\Users\kenne\AppData\Local\Temp\ccmiL9m5.s:379    .text._ZN3Adc7setModeENS_4ModeE:0000001c .Loc.115
C:\Users\kenne\AppData\Local\Temp\ccmiL9m5.s:381    .text._ZN3Adc7setModeENS_4ModeE:00000020 .Loc.116
C:\Users\kenne\AppData\Local\Temp\ccmiL9m5.s:382    .text._ZN3Adc7setModeENS_4ModeE:00000020 .Loc.117
C:\Users\kenne\AppData\Local\Temp\ccmiL9m5.s:384    .text._ZN3Adc7setModeENS_4ModeE:00000024 .Loc.118
C:\Users\kenne\AppData\Local\Temp\ccmiL9m5.s:385    .text._ZN3Adc7setModeENS_4ModeE:00000024 .Loc.119
C:\Users\kenne\AppData\Local\Temp\ccmiL9m5.s:388    .text._ZN3Adc7setModeENS_4ModeE:00000028 .Loc.120
C:\Users\kenne\AppData\Local\Temp\ccmiL9m5.s:389    .text._ZN3Adc7setModeENS_4ModeE:00000028 .Loc.121
C:\Users\kenne\AppData\Local\Temp\ccmiL9m5.s:392    .text._ZN3Adc7setModeENS_4ModeE:0000002c .Loc.122
C:\Users\kenne\AppData\Local\Temp\ccmiL9m5.s:393    .text._ZN3Adc7setModeENS_4ModeE:0000002c .Loc.123
C:\Users\kenne\AppData\Local\Temp\ccmiL9m5.s:394    .text._ZN3Adc7setModeENS_4ModeE:0000002c .Loc.124
C:\Users\kenne\AppData\Local\Temp\ccmiL9m5.s:395    .text._ZN3Adc7setModeENS_4ModeE:0000002c .Loc.125
C:\Users\kenne\AppData\Local\Temp\ccmiL9m5.s:400    .text._ZN3Adc7setModeENS_4ModeE:00000030 .Loc.126
C:\Users\kenne\AppData\Local\Temp\ccmiL9m5.s:403    .text._ZN3Adc7setModeENS_4ModeE:00000032 .Loc.127
C:\Users\kenne\AppData\Local\Temp\ccmiL9m5.s:405    .text._ZN3Adc7setModeENS_4ModeE:00000034 L0
C:\Users\kenne\AppData\Local\Temp\ccmiL9m5.s:411    .text._ZN3Adc12setPrescalerENS_9PrescalerE:00000000 _ZN3Adc12setPrescalerENS_9PrescalerE
C:\Users\kenne\AppData\Local\Temp\ccmiL9m5.s:414    .text._ZN3Adc12setPrescalerENS_9PrescalerE:00000000 .Loc.128
C:\Users\kenne\AppData\Local\Temp\ccmiL9m5.s:415    .text._ZN3Adc12setPrescalerENS_9PrescalerE:00000000 L0
C:\Users\kenne\AppData\Local\Temp\ccmiL9m5.s:420    .text._ZN3Adc12setPrescalerENS_9PrescalerE:00000000 .Loc.129
C:\Users\kenne\AppData\Local\Temp\ccmiL9m5.s:423    .text._ZN3Adc12setPrescalerENS_9PrescalerE:00000004 .Loc.130
C:\Users\kenne\AppData\Local\Temp\ccmiL9m5.s:424    .text._ZN3Adc12setPrescalerENS_9PrescalerE:00000004 .Loc.131
C:\Users\kenne\AppData\Local\Temp\ccmiL9m5.s:425    .text._ZN3Adc12setPrescalerENS_9PrescalerE:00000004 .Loc.132
C:\Users\kenne\AppData\Local\Temp\ccmiL9m5.s:426    .text._ZN3Adc12setPrescalerENS_9PrescalerE:00000004 .Loc.133
C:\Users\kenne\AppData\Local\Temp\ccmiL9m5.s:431    .text._ZN3Adc12setPrescalerENS_9PrescalerE:0000000a .Loc.134
C:\Users\kenne\AppData\Local\Temp\ccmiL9m5.s:434    .text._ZN3Adc12setPrescalerENS_9PrescalerE:0000000c .Loc.135
C:\Users\kenne\AppData\Local\Temp\ccmiL9m5.s:437    .text._ZN3Adc12setPrescalerENS_9PrescalerE:0000000e .Loc.136
C:\Users\kenne\AppData\Local\Temp\ccmiL9m5.s:438    .text._ZN3Adc12setPrescalerENS_9PrescalerE:0000000e .Loc.137
GAS LISTING C:\Users\kenne\AppData\Local\Temp\ccmiL9m5.s 			page 50


C:\Users\kenne\AppData\Local\Temp\ccmiL9m5.s:440    .text._ZN3Adc12setPrescalerENS_9PrescalerE:00000010 .Loc.138
C:\Users\kenne\AppData\Local\Temp\ccmiL9m5.s:441    .text._ZN3Adc12setPrescalerENS_9PrescalerE:00000010 .Loc.139
C:\Users\kenne\AppData\Local\Temp\ccmiL9m5.s:443    .text._ZN3Adc12setPrescalerENS_9PrescalerE:00000012 .Loc.140
C:\Users\kenne\AppData\Local\Temp\ccmiL9m5.s:444    .text._ZN3Adc12setPrescalerENS_9PrescalerE:00000012 .Loc.141
C:\Users\kenne\AppData\Local\Temp\ccmiL9m5.s:447    .text._ZN3Adc12setPrescalerENS_9PrescalerE:00000016 .Loc.142
C:\Users\kenne\AppData\Local\Temp\ccmiL9m5.s:448    .text._ZN3Adc12setPrescalerENS_9PrescalerE:00000016 .Loc.143
C:\Users\kenne\AppData\Local\Temp\ccmiL9m5.s:449    .text._ZN3Adc12setPrescalerENS_9PrescalerE:00000016 .Loc.144
C:\Users\kenne\AppData\Local\Temp\ccmiL9m5.s:450    .text._ZN3Adc12setPrescalerENS_9PrescalerE:00000016 .Loc.145
C:\Users\kenne\AppData\Local\Temp\ccmiL9m5.s:454    .text._ZN3Adc12setPrescalerENS_9PrescalerE:00000018 .Loc.146
C:\Users\kenne\AppData\Local\Temp\ccmiL9m5.s:456    .text._ZN3Adc12setPrescalerENS_9PrescalerE:0000001a L0
C:\Users\kenne\AppData\Local\Temp\ccmiL9m5.s:462    .text._ZN3Adc12setReferenceENS_9ReferenceE:00000000 _ZN3Adc12setReferenceENS_9ReferenceE
C:\Users\kenne\AppData\Local\Temp\ccmiL9m5.s:465    .text._ZN3Adc12setReferenceENS_9ReferenceE:00000000 .Loc.147
C:\Users\kenne\AppData\Local\Temp\ccmiL9m5.s:466    .text._ZN3Adc12setReferenceENS_9ReferenceE:00000000 L0
C:\Users\kenne\AppData\Local\Temp\ccmiL9m5.s:471    .text._ZN3Adc12setReferenceENS_9ReferenceE:00000000 .Loc.148
C:\Users\kenne\AppData\Local\Temp\ccmiL9m5.s:474    .text._ZN3Adc12setReferenceENS_9ReferenceE:00000004 .Loc.149
C:\Users\kenne\AppData\Local\Temp\ccmiL9m5.s:475    .text._ZN3Adc12setReferenceENS_9ReferenceE:00000004 .Loc.150
C:\Users\kenne\AppData\Local\Temp\ccmiL9m5.s:476    .text._ZN3Adc12setReferenceENS_9ReferenceE:00000004 .Loc.151
C:\Users\kenne\AppData\Local\Temp\ccmiL9m5.s:477    .text._ZN3Adc12setReferenceENS_9ReferenceE:00000004 .Loc.152
C:\Users\kenne\AppData\Local\Temp\ccmiL9m5.s:482    .text._ZN3Adc12setReferenceENS_9ReferenceE:0000000a .Loc.153
C:\Users\kenne\AppData\Local\Temp\ccmiL9m5.s:485    .text._ZN3Adc12setReferenceENS_9ReferenceE:0000000c .Loc.154
C:\Users\kenne\AppData\Local\Temp\ccmiL9m5.s:488    .text._ZN3Adc12setReferenceENS_9ReferenceE:0000000e .Loc.155
C:\Users\kenne\AppData\Local\Temp\ccmiL9m5.s:495    .text._ZN3Adc12setReferenceENS_9ReferenceE:00000018 .Loc.156
C:\Users\kenne\AppData\Local\Temp\ccmiL9m5.s:496    .text._ZN3Adc12setReferenceENS_9ReferenceE:00000018 .Loc.157
C:\Users\kenne\AppData\Local\Temp\ccmiL9m5.s:498    .text._ZN3Adc12setReferenceENS_9ReferenceE:0000001a .Loc.158
C:\Users\kenne\AppData\Local\Temp\ccmiL9m5.s:499    .text._ZN3Adc12setReferenceENS_9ReferenceE:0000001a .Loc.159
C:\Users\kenne\AppData\Local\Temp\ccmiL9m5.s:501    .text._ZN3Adc12setReferenceENS_9ReferenceE:0000001c .Loc.160
C:\Users\kenne\AppData\Local\Temp\ccmiL9m5.s:502    .text._ZN3Adc12setReferenceENS_9ReferenceE:0000001c .Loc.161
C:\Users\kenne\AppData\Local\Temp\ccmiL9m5.s:505    .text._ZN3Adc12setReferenceENS_9ReferenceE:00000020 .Loc.162
C:\Users\kenne\AppData\Local\Temp\ccmiL9m5.s:506    .text._ZN3Adc12setReferenceENS_9ReferenceE:00000020 .Loc.163
C:\Users\kenne\AppData\Local\Temp\ccmiL9m5.s:507    .text._ZN3Adc12setReferenceENS_9ReferenceE:00000020 .Loc.164
C:\Users\kenne\AppData\Local\Temp\ccmiL9m5.s:508    .text._ZN3Adc12setReferenceENS_9ReferenceE:00000020 .Loc.165
C:\Users\kenne\AppData\Local\Temp\ccmiL9m5.s:512    .text._ZN3Adc12setReferenceENS_9ReferenceE:00000022 .Loc.166
C:\Users\kenne\AppData\Local\Temp\ccmiL9m5.s:514    .text._ZN3Adc12setReferenceENS_9ReferenceE:00000024 L0
C:\Users\kenne\AppData\Local\Temp\ccmiL9m5.s:520    .text._ZN3Adc19disableDigitalInputENS_12DigitalInputE:00000000 _ZN3Adc19disableDigitalInputENS_12DigitalInputE
C:\Users\kenne\AppData\Local\Temp\ccmiL9m5.s:523    .text._ZN3Adc19disableDigitalInputENS_12DigitalInputE:00000000 .Loc.167
C:\Users\kenne\AppData\Local\Temp\ccmiL9m5.s:524    .text._ZN3Adc19disableDigitalInputENS_12DigitalInputE:00000000 L0
C:\Users\kenne\AppData\Local\Temp\ccmiL9m5.s:529    .text._ZN3Adc19disableDigitalInputENS_12DigitalInputE:00000000 .Loc.168
C:\Users\kenne\AppData\Local\Temp\ccmiL9m5.s:530    .text._ZN3Adc19disableDigitalInputENS_12DigitalInputE:00000000 .Loc.169
C:\Users\kenne\AppData\Local\Temp\ccmiL9m5.s:531    .text._ZN3Adc19disableDigitalInputENS_12DigitalInputE:00000000 .Loc.170
C:\Users\kenne\AppData\Local\Temp\ccmiL9m5.s:532    .text._ZN3Adc19disableDigitalInputENS_12DigitalInputE:00000000 .Loc.171
C:\Users\kenne\AppData\Local\Temp\ccmiL9m5.s:538    .text._ZN3Adc19disableDigitalInputENS_12DigitalInputE:0000000a .Loc.172
C:\Users\kenne\AppData\Local\Temp\ccmiL9m5.s:539    .text._ZN3Adc19disableDigitalInputENS_12DigitalInputE:0000000a .Loc.173
C:\Users\kenne\AppData\Local\Temp\ccmiL9m5.s:540    .text._ZN3Adc19disableDigitalInputENS_12DigitalInputE:0000000a .Loc.174
C:\Users\kenne\AppData\Local\Temp\ccmiL9m5.s:541    .text._ZN3Adc19disableDigitalInputENS_12DigitalInputE:0000000a .Loc.175
C:\Users\kenne\AppData\Local\Temp\ccmiL9m5.s:545    .text._ZN3Adc19disableDigitalInputENS_12DigitalInputE:0000000c .Loc.176
C:\Users\kenne\AppData\Local\Temp\ccmiL9m5.s:547    .text._ZN3Adc19disableDigitalInputENS_12DigitalInputE:0000000e L0
C:\Users\kenne\AppData\Local\Temp\ccmiL9m5.s:553    .text._ZN3Adc18enableDigitalInputENS_12DigitalInputE:00000000 _ZN3Adc18enableDigitalInputENS_12DigitalInputE
C:\Users\kenne\AppData\Local\Temp\ccmiL9m5.s:556    .text._ZN3Adc18enableDigitalInputENS_12DigitalInputE:00000000 .Loc.177
C:\Users\kenne\AppData\Local\Temp\ccmiL9m5.s:557    .text._ZN3Adc18enableDigitalInputENS_12DigitalInputE:00000000 L0
C:\Users\kenne\AppData\Local\Temp\ccmiL9m5.s:562    .text._ZN3Adc18enableDigitalInputENS_12DigitalInputE:00000000 .Loc.178
C:\Users\kenne\AppData\Local\Temp\ccmiL9m5.s:563    .text._ZN3Adc18enableDigitalInputENS_12DigitalInputE:00000000 .Loc.179
C:\Users\kenne\AppData\Local\Temp\ccmiL9m5.s:564    .text._ZN3Adc18enableDigitalInputENS_12DigitalInputE:00000000 .Loc.180
C:\Users\kenne\AppData\Local\Temp\ccmiL9m5.s:565    .text._ZN3Adc18enableDigitalInputENS_12DigitalInputE:00000000 .Loc.181
C:\Users\kenne\AppData\Local\Temp\ccmiL9m5.s:571    .text._ZN3Adc18enableDigitalInputENS_12DigitalInputE:0000000a .Loc.182
C:\Users\kenne\AppData\Local\Temp\ccmiL9m5.s:572    .text._ZN3Adc18enableDigitalInputENS_12DigitalInputE:0000000a .Loc.183
C:\Users\kenne\AppData\Local\Temp\ccmiL9m5.s:573    .text._ZN3Adc18enableDigitalInputENS_12DigitalInputE:0000000a .Loc.184
C:\Users\kenne\AppData\Local\Temp\ccmiL9m5.s:574    .text._ZN3Adc18enableDigitalInputENS_12DigitalInputE:0000000a .Loc.185
GAS LISTING C:\Users\kenne\AppData\Local\Temp\ccmiL9m5.s 			page 51


C:\Users\kenne\AppData\Local\Temp\ccmiL9m5.s:578    .text._ZN3Adc18enableDigitalInputENS_12DigitalInputE:0000000c .Loc.186
C:\Users\kenne\AppData\Local\Temp\ccmiL9m5.s:580    .text._ZN3Adc18enableDigitalInputENS_12DigitalInputE:0000000e L0
C:\Users\kenne\AppData\Local\Temp\ccmiL9m5.s:586    .text._ZN3Adc10setChannelENS_7ChannelE:00000000 _ZN3Adc10setChannelENS_7ChannelE
C:\Users\kenne\AppData\Local\Temp\ccmiL9m5.s:589    .text._ZN3Adc10setChannelENS_7ChannelE:00000000 .Loc.187
C:\Users\kenne\AppData\Local\Temp\ccmiL9m5.s:590    .text._ZN3Adc10setChannelENS_7ChannelE:00000000 L0
C:\Users\kenne\AppData\Local\Temp\ccmiL9m5.s:595    .text._ZN3Adc10setChannelENS_7ChannelE:00000000 .Loc.188
C:\Users\kenne\AppData\Local\Temp\ccmiL9m5.s:598    .text._ZN3Adc10setChannelENS_7ChannelE:00000004 .Loc.189
C:\Users\kenne\AppData\Local\Temp\ccmiL9m5.s:599    .text._ZN3Adc10setChannelENS_7ChannelE:00000004 .Loc.190
C:\Users\kenne\AppData\Local\Temp\ccmiL9m5.s:600    .text._ZN3Adc10setChannelENS_7ChannelE:00000004 .Loc.191
C:\Users\kenne\AppData\Local\Temp\ccmiL9m5.s:601    .text._ZN3Adc10setChannelENS_7ChannelE:00000004 .Loc.192
C:\Users\kenne\AppData\Local\Temp\ccmiL9m5.s:606    .text._ZN3Adc10setChannelENS_7ChannelE:0000000a .Loc.193
C:\Users\kenne\AppData\Local\Temp\ccmiL9m5.s:609    .text._ZN3Adc10setChannelENS_7ChannelE:0000000c .Loc.194
C:\Users\kenne\AppData\Local\Temp\ccmiL9m5.s:612    .text._ZN3Adc10setChannelENS_7ChannelE:0000000e .Loc.195
C:\Users\kenne\AppData\Local\Temp\ccmiL9m5.s:613    .text._ZN3Adc10setChannelENS_7ChannelE:0000000e .Loc.196
C:\Users\kenne\AppData\Local\Temp\ccmiL9m5.s:615    .text._ZN3Adc10setChannelENS_7ChannelE:00000010 .Loc.197
C:\Users\kenne\AppData\Local\Temp\ccmiL9m5.s:616    .text._ZN3Adc10setChannelENS_7ChannelE:00000010 .Loc.198
C:\Users\kenne\AppData\Local\Temp\ccmiL9m5.s:618    .text._ZN3Adc10setChannelENS_7ChannelE:00000012 .Loc.199
C:\Users\kenne\AppData\Local\Temp\ccmiL9m5.s:619    .text._ZN3Adc10setChannelENS_7ChannelE:00000012 .Loc.200
C:\Users\kenne\AppData\Local\Temp\ccmiL9m5.s:622    .text._ZN3Adc10setChannelENS_7ChannelE:00000016 .Loc.201
C:\Users\kenne\AppData\Local\Temp\ccmiL9m5.s:623    .text._ZN3Adc10setChannelENS_7ChannelE:00000016 .Loc.202
C:\Users\kenne\AppData\Local\Temp\ccmiL9m5.s:624    .text._ZN3Adc10setChannelENS_7ChannelE:00000016 .Loc.203
C:\Users\kenne\AppData\Local\Temp\ccmiL9m5.s:625    .text._ZN3Adc10setChannelENS_7ChannelE:00000016 .Loc.204
C:\Users\kenne\AppData\Local\Temp\ccmiL9m5.s:629    .text._ZN3Adc10setChannelENS_7ChannelE:00000018 .Loc.205
C:\Users\kenne\AppData\Local\Temp\ccmiL9m5.s:631    .text._ZN3Adc10setChannelENS_7ChannelE:0000001a L0
C:\Users\kenne\AppData\Local\Temp\ccmiL9m5.s:637    .text._ZN3Adc17activateInterruptEv:00000000 _ZN3Adc17activateInterruptEv
C:\Users\kenne\AppData\Local\Temp\ccmiL9m5.s:640    .text._ZN3Adc17activateInterruptEv:00000000 .Loc.206
C:\Users\kenne\AppData\Local\Temp\ccmiL9m5.s:641    .text._ZN3Adc17activateInterruptEv:00000000 L0
C:\Users\kenne\AppData\Local\Temp\ccmiL9m5.s:646    .text._ZN3Adc17activateInterruptEv:00000000 .Loc.207
C:\Users\kenne\AppData\Local\Temp\ccmiL9m5.s:649    .text._ZN3Adc17activateInterruptEv:00000004 .Loc.208
C:\Users\kenne\AppData\Local\Temp\ccmiL9m5.s:650    .text._ZN3Adc17activateInterruptEv:00000004 .Loc.209
C:\Users\kenne\AppData\Local\Temp\ccmiL9m5.s:651    .text._ZN3Adc17activateInterruptEv:00000004 .Loc.210
C:\Users\kenne\AppData\Local\Temp\ccmiL9m5.s:656    .text._ZN3Adc17activateInterruptEv:0000000a .Loc.211
C:\Users\kenne\AppData\Local\Temp\ccmiL9m5.s:659    .text._ZN3Adc17activateInterruptEv:0000000e .Loc.212
C:\Users\kenne\AppData\Local\Temp\ccmiL9m5.s:660    .text._ZN3Adc17activateInterruptEv:0000000e .Loc.213
C:\Users\kenne\AppData\Local\Temp\ccmiL9m5.s:664    .text._ZN3Adc17activateInterruptEv:00000014 .Loc.214
C:\Users\kenne\AppData\Local\Temp\ccmiL9m5.s:665    .text._ZN3Adc17activateInterruptEv:00000014 .Loc.215
C:\Users\kenne\AppData\Local\Temp\ccmiL9m5.s:668    .text._ZN3Adc17activateInterruptEv:00000018 .Loc.216
C:\Users\kenne\AppData\Local\Temp\ccmiL9m5.s:669    .text._ZN3Adc17activateInterruptEv:00000018 .Loc.217
C:\Users\kenne\AppData\Local\Temp\ccmiL9m5.s:670    .text._ZN3Adc17activateInterruptEv:00000018 .Loc.218
C:\Users\kenne\AppData\Local\Temp\ccmiL9m5.s:671    .text._ZN3Adc17activateInterruptEv:00000018 .Loc.219
C:\Users\kenne\AppData\Local\Temp\ccmiL9m5.s:675    .text._ZN3Adc17activateInterruptEv:0000001c L0
C:\Users\kenne\AppData\Local\Temp\ccmiL9m5.s:681    .text._ZN3Adc21clearInterruptRequestEv:00000000 _ZN3Adc21clearInterruptRequestEv
C:\Users\kenne\AppData\Local\Temp\ccmiL9m5.s:684    .text._ZN3Adc21clearInterruptRequestEv:00000000 .Loc.220
C:\Users\kenne\AppData\Local\Temp\ccmiL9m5.s:685    .text._ZN3Adc21clearInterruptRequestEv:00000000 L0
C:\Users\kenne\AppData\Local\Temp\ccmiL9m5.s:690    .text._ZN3Adc21clearInterruptRequestEv:00000000 .Loc.221
C:\Users\kenne\AppData\Local\Temp\ccmiL9m5.s:692    .text._ZN3Adc21clearInterruptRequestEv:00000002 .Loc.222
C:\Users\kenne\AppData\Local\Temp\ccmiL9m5.s:693    .text._ZN3Adc21clearInterruptRequestEv:00000002 .Loc.223
C:\Users\kenne\AppData\Local\Temp\ccmiL9m5.s:694    .text._ZN3Adc21clearInterruptRequestEv:00000002 .Loc.224
C:\Users\kenne\AppData\Local\Temp\ccmiL9m5.s:700    .text._ZN3Adc21clearInterruptRequestEv:0000000c .Loc.225
C:\Users\kenne\AppData\Local\Temp\ccmiL9m5.s:701    .text._ZN3Adc21clearInterruptRequestEv:0000000c .Loc.226
C:\Users\kenne\AppData\Local\Temp\ccmiL9m5.s:706    .text._ZN3Adc21clearInterruptRequestEv:00000014 .Loc.227
C:\Users\kenne\AppData\Local\Temp\ccmiL9m5.s:707    .text._ZN3Adc21clearInterruptRequestEv:00000014 .Loc.228
C:\Users\kenne\AppData\Local\Temp\ccmiL9m5.s:708    .text._ZN3Adc21clearInterruptRequestEv:00000014 .Loc.229
C:\Users\kenne\AppData\Local\Temp\ccmiL9m5.s:709    .text._ZN3Adc21clearInterruptRequestEv:00000014 .Loc.230
C:\Users\kenne\AppData\Local\Temp\ccmiL9m5.s:713    .text._ZN3Adc21clearInterruptRequestEv:00000016 .Loc.231
C:\Users\kenne\AppData\Local\Temp\ccmiL9m5.s:715    .text._ZN3Adc21clearInterruptRequestEv:00000018 L0
C:\Users\kenne\AppData\Local\Temp\ccmiL9m5.s:721    .text._ZN3Adc19deactivateInterruptEv:00000000 _ZN3Adc19deactivateInterruptEv
GAS LISTING C:\Users\kenne\AppData\Local\Temp\ccmiL9m5.s 			page 52


C:\Users\kenne\AppData\Local\Temp\ccmiL9m5.s:724    .text._ZN3Adc19deactivateInterruptEv:00000000 .Loc.232
C:\Users\kenne\AppData\Local\Temp\ccmiL9m5.s:725    .text._ZN3Adc19deactivateInterruptEv:00000000 L0
C:\Users\kenne\AppData\Local\Temp\ccmiL9m5.s:730    .text._ZN3Adc19deactivateInterruptEv:00000000 .Loc.233
C:\Users\kenne\AppData\Local\Temp\ccmiL9m5.s:733    .text._ZN3Adc19deactivateInterruptEv:00000004 .Loc.234
C:\Users\kenne\AppData\Local\Temp\ccmiL9m5.s:734    .text._ZN3Adc19deactivateInterruptEv:00000004 .Loc.235
C:\Users\kenne\AppData\Local\Temp\ccmiL9m5.s:735    .text._ZN3Adc19deactivateInterruptEv:00000004 .Loc.236
C:\Users\kenne\AppData\Local\Temp\ccmiL9m5.s:740    .text._ZN3Adc19deactivateInterruptEv:0000000a .Loc.237
C:\Users\kenne\AppData\Local\Temp\ccmiL9m5.s:743    .text._ZN3Adc19deactivateInterruptEv:0000000e .Loc.238
C:\Users\kenne\AppData\Local\Temp\ccmiL9m5.s:744    .text._ZN3Adc19deactivateInterruptEv:0000000e .Loc.239
C:\Users\kenne\AppData\Local\Temp\ccmiL9m5.s:748    .text._ZN3Adc19deactivateInterruptEv:00000014 .Loc.240
C:\Users\kenne\AppData\Local\Temp\ccmiL9m5.s:749    .text._ZN3Adc19deactivateInterruptEv:00000014 .Loc.241
C:\Users\kenne\AppData\Local\Temp\ccmiL9m5.s:752    .text._ZN3Adc19deactivateInterruptEv:00000018 .Loc.242
C:\Users\kenne\AppData\Local\Temp\ccmiL9m5.s:753    .text._ZN3Adc19deactivateInterruptEv:00000018 .Loc.243
C:\Users\kenne\AppData\Local\Temp\ccmiL9m5.s:754    .text._ZN3Adc19deactivateInterruptEv:00000018 .Loc.244
C:\Users\kenne\AppData\Local\Temp\ccmiL9m5.s:755    .text._ZN3Adc19deactivateInterruptEv:00000018 .Loc.245
C:\Users\kenne\AppData\Local\Temp\ccmiL9m5.s:759    .text._ZN3Adc19deactivateInterruptEv:0000001c L0
C:\Users\kenne\AppData\Local\Temp\ccmiL9m5.s:765    .text._ZN3Adc6enableEv:00000000 _ZN3Adc6enableEv
C:\Users\kenne\AppData\Local\Temp\ccmiL9m5.s:768    .text._ZN3Adc6enableEv:00000000 .Loc.246
C:\Users\kenne\AppData\Local\Temp\ccmiL9m5.s:769    .text._ZN3Adc6enableEv:00000000 L0
C:\Users\kenne\AppData\Local\Temp\ccmiL9m5.s:774    .text._ZN3Adc6enableEv:00000000 .Loc.247
C:\Users\kenne\AppData\Local\Temp\ccmiL9m5.s:777    .text._ZN3Adc6enableEv:00000004 .Loc.248
C:\Users\kenne\AppData\Local\Temp\ccmiL9m5.s:778    .text._ZN3Adc6enableEv:00000004 .Loc.249
C:\Users\kenne\AppData\Local\Temp\ccmiL9m5.s:779    .text._ZN3Adc6enableEv:00000004 .Loc.250
C:\Users\kenne\AppData\Local\Temp\ccmiL9m5.s:784    .text._ZN3Adc6enableEv:0000000a .Loc.251
C:\Users\kenne\AppData\Local\Temp\ccmiL9m5.s:787    .text._ZN3Adc6enableEv:0000000e .Loc.252
C:\Users\kenne\AppData\Local\Temp\ccmiL9m5.s:788    .text._ZN3Adc6enableEv:0000000e .Loc.253
C:\Users\kenne\AppData\Local\Temp\ccmiL9m5.s:792    .text._ZN3Adc6enableEv:00000014 .Loc.254
C:\Users\kenne\AppData\Local\Temp\ccmiL9m5.s:793    .text._ZN3Adc6enableEv:00000014 .Loc.255
C:\Users\kenne\AppData\Local\Temp\ccmiL9m5.s:796    .text._ZN3Adc6enableEv:00000018 .Loc.256
C:\Users\kenne\AppData\Local\Temp\ccmiL9m5.s:797    .text._ZN3Adc6enableEv:00000018 .Loc.257
C:\Users\kenne\AppData\Local\Temp\ccmiL9m5.s:798    .text._ZN3Adc6enableEv:00000018 .Loc.258
C:\Users\kenne\AppData\Local\Temp\ccmiL9m5.s:799    .text._ZN3Adc6enableEv:00000018 .Loc.259
C:\Users\kenne\AppData\Local\Temp\ccmiL9m5.s:803    .text._ZN3Adc6enableEv:0000001c L0
C:\Users\kenne\AppData\Local\Temp\ccmiL9m5.s:809    .text._ZN3Adc7disableEv:00000000 _ZN3Adc7disableEv
C:\Users\kenne\AppData\Local\Temp\ccmiL9m5.s:812    .text._ZN3Adc7disableEv:00000000 .Loc.260
C:\Users\kenne\AppData\Local\Temp\ccmiL9m5.s:813    .text._ZN3Adc7disableEv:00000000 L0
C:\Users\kenne\AppData\Local\Temp\ccmiL9m5.s:818    .text._ZN3Adc7disableEv:00000000 .Loc.261
C:\Users\kenne\AppData\Local\Temp\ccmiL9m5.s:821    .text._ZN3Adc7disableEv:00000004 .Loc.262
C:\Users\kenne\AppData\Local\Temp\ccmiL9m5.s:822    .text._ZN3Adc7disableEv:00000004 .Loc.263
C:\Users\kenne\AppData\Local\Temp\ccmiL9m5.s:823    .text._ZN3Adc7disableEv:00000004 .Loc.264
C:\Users\kenne\AppData\Local\Temp\ccmiL9m5.s:828    .text._ZN3Adc7disableEv:0000000a .Loc.265
C:\Users\kenne\AppData\Local\Temp\ccmiL9m5.s:831    .text._ZN3Adc7disableEv:0000000e .Loc.266
C:\Users\kenne\AppData\Local\Temp\ccmiL9m5.s:832    .text._ZN3Adc7disableEv:0000000e .Loc.267
C:\Users\kenne\AppData\Local\Temp\ccmiL9m5.s:836    .text._ZN3Adc7disableEv:00000014 .Loc.268
C:\Users\kenne\AppData\Local\Temp\ccmiL9m5.s:837    .text._ZN3Adc7disableEv:00000014 .Loc.269
C:\Users\kenne\AppData\Local\Temp\ccmiL9m5.s:840    .text._ZN3Adc7disableEv:00000018 .Loc.270
C:\Users\kenne\AppData\Local\Temp\ccmiL9m5.s:841    .text._ZN3Adc7disableEv:00000018 .Loc.271
C:\Users\kenne\AppData\Local\Temp\ccmiL9m5.s:842    .text._ZN3Adc7disableEv:00000018 .Loc.272
C:\Users\kenne\AppData\Local\Temp\ccmiL9m5.s:843    .text._ZN3Adc7disableEv:00000018 .Loc.273
C:\Users\kenne\AppData\Local\Temp\ccmiL9m5.s:847    .text._ZN3Adc7disableEv:0000001c L0
C:\Users\kenne\AppData\Local\Temp\ccmiL9m5.s:853    .text._ZN3Adc12getLastErrorEv:00000000 _ZN3Adc12getLastErrorEv
C:\Users\kenne\AppData\Local\Temp\ccmiL9m5.s:856    .text._ZN3Adc12getLastErrorEv:00000000 .Loc.274
C:\Users\kenne\AppData\Local\Temp\ccmiL9m5.s:857    .text._ZN3Adc12getLastErrorEv:00000000 L0
C:\Users\kenne\AppData\Local\Temp\ccmiL9m5.s:862    .text._ZN3Adc12getLastErrorEv:00000000 .Loc.275
C:\Users\kenne\AppData\Local\Temp\ccmiL9m5.s:863    .text._ZN3Adc12getLastErrorEv:00000000 .Loc.276
C:\Users\kenne\AppData\Local\Temp\ccmiL9m5.s:869    .text._ZN3Adc12getLastErrorEv:00000006 .Loc.277
C:\Users\kenne\AppData\Local\Temp\ccmiL9m5.s:871    .text._ZN3Adc12getLastErrorEv:00000008 L0
GAS LISTING C:\Users\kenne\AppData\Local\Temp\ccmiL9m5.s 			page 53


C:\Users\kenne\AppData\Local\Temp\ccmiL9m5.s:877    .text._ZN3Adc15startConversionEv:00000000 _ZN3Adc15startConversionEv
C:\Users\kenne\AppData\Local\Temp\ccmiL9m5.s:880    .text._ZN3Adc15startConversionEv:00000000 .Loc.278
C:\Users\kenne\AppData\Local\Temp\ccmiL9m5.s:881    .text._ZN3Adc15startConversionEv:00000000 L0
C:\Users\kenne\AppData\Local\Temp\ccmiL9m5.s:886    .text._ZN3Adc15startConversionEv:00000000 .Loc.279
C:\Users\kenne\AppData\Local\Temp\ccmiL9m5.s:888    .text._ZN3Adc15startConversionEv:00000002 .Loc.280
C:\Users\kenne\AppData\Local\Temp\ccmiL9m5.s:889    .text._ZN3Adc15startConversionEv:00000002 .Loc.281
C:\Users\kenne\AppData\Local\Temp\ccmiL9m5.s:890    .text._ZN3Adc15startConversionEv:00000002 .Loc.282
C:\Users\kenne\AppData\Local\Temp\ccmiL9m5.s:896    .text._ZN3Adc15startConversionEv:0000000c .Loc.283
C:\Users\kenne\AppData\Local\Temp\ccmiL9m5.s:897    .text._ZN3Adc15startConversionEv:0000000c .Loc.284
C:\Users\kenne\AppData\Local\Temp\ccmiL9m5.s:902    .text._ZN3Adc15startConversionEv:00000014 .Loc.285
C:\Users\kenne\AppData\Local\Temp\ccmiL9m5.s:903    .text._ZN3Adc15startConversionEv:00000014 .Loc.286
C:\Users\kenne\AppData\Local\Temp\ccmiL9m5.s:904    .text._ZN3Adc15startConversionEv:00000014 .Loc.287
C:\Users\kenne\AppData\Local\Temp\ccmiL9m5.s:905    .text._ZN3Adc15startConversionEv:00000014 .Loc.288
C:\Users\kenne\AppData\Local\Temp\ccmiL9m5.s:909    .text._ZN3Adc15startConversionEv:00000016 .Loc.289
C:\Users\kenne\AppData\Local\Temp\ccmiL9m5.s:911    .text._ZN3Adc15startConversionEv:00000018 L0
C:\Users\kenne\AppData\Local\Temp\ccmiL9m5.s:917    .text._ZN3Adc25waitUntilConversionFinishEv:00000000 _ZN3Adc25waitUntilConversionFinishEv
C:\Users\kenne\AppData\Local\Temp\ccmiL9m5.s:920    .text._ZN3Adc25waitUntilConversionFinishEv:00000000 .Loc.290
C:\Users\kenne\AppData\Local\Temp\ccmiL9m5.s:921    .text._ZN3Adc25waitUntilConversionFinishEv:00000000 L0
C:\Users\kenne\AppData\Local\Temp\ccmiL9m5.s:926    .text._ZN3Adc25waitUntilConversionFinishEv:00000000 .Loc.291
C:\Users\kenne\AppData\Local\Temp\ccmiL9m5.s:931    .text._ZN3Adc25waitUntilConversionFinishEv:00000004 .Loc.292
C:\Users\kenne\AppData\Local\Temp\ccmiL9m5.s:932    .text._ZN3Adc25waitUntilConversionFinishEv:00000004 .Loc.293
C:\Users\kenne\AppData\Local\Temp\ccmiL9m5.s:933    .text._ZN3Adc25waitUntilConversionFinishEv:00000004 .Loc.294
C:\Users\kenne\AppData\Local\Temp\ccmiL9m5.s:934    .text._ZN3Adc25waitUntilConversionFinishEv:00000004 .Loc.295
C:\Users\kenne\AppData\Local\Temp\ccmiL9m5.s:935    .text._ZN3Adc25waitUntilConversionFinishEv:00000004 .Loc.296
C:\Users\kenne\AppData\Local\Temp\ccmiL9m5.s:939    .text._ZN3Adc25waitUntilConversionFinishEv:0000000c .Loc.297
C:\Users\kenne\AppData\Local\Temp\ccmiL9m5.s:940    .text._ZN3Adc25waitUntilConversionFinishEv:0000000c .Loc.298
C:\Users\kenne\AppData\Local\Temp\ccmiL9m5.s:943    .text._ZN3Adc25waitUntilConversionFinishEv:00000010 .Loc.299
C:\Users\kenne\AppData\Local\Temp\ccmiL9m5.s:944    .text._ZN3Adc25waitUntilConversionFinishEv:00000010 .Loc.300
C:\Users\kenne\AppData\Local\Temp\ccmiL9m5.s:945    .text._ZN3Adc25waitUntilConversionFinishEv:00000010 .Loc.301
C:\Users\kenne\AppData\Local\Temp\ccmiL9m5.s:946    .text._ZN3Adc25waitUntilConversionFinishEv:00000010 .Loc.302
C:\Users\kenne\AppData\Local\Temp\ccmiL9m5.s:950    .text._ZN3Adc25waitUntilConversionFinishEv:00000014 L0
C:\Users\kenne\AppData\Local\Temp\ccmiL9m5.s:956    .text._Z29adcConversionCompleteCallbackv:00000000 _Z29adcConversionCompleteCallbackv
C:\Users\kenne\AppData\Local\Temp\ccmiL9m5.s:958    .text._Z29adcConversionCompleteCallbackv:00000000 .Loc.303
C:\Users\kenne\AppData\Local\Temp\ccmiL9m5.s:959    .text._Z29adcConversionCompleteCallbackv:00000000 L0
C:\Users\kenne\AppData\Local\Temp\ccmiL9m5.s:964    .text._Z29adcConversionCompleteCallbackv:00000000 .Loc.304
C:\Users\kenne\AppData\Local\Temp\ccmiL9m5.s:966    .text._Z29adcConversionCompleteCallbackv:00000000 .Loc.305
C:\Users\kenne\AppData\Local\Temp\ccmiL9m5.s:968    .text._Z29adcConversionCompleteCallbackv:00000002 L0
C:\Users\kenne\AppData\Local\Temp\ccmiL9m5.s:974    .text.__vector_21:00000000 __vector_21
C:\Users\kenne\AppData\Local\Temp\ccmiL9m5.s:976    .text.__vector_21:00000000 .Loc.306
C:\Users\kenne\AppData\Local\Temp\ccmiL9m5.s:977    .text.__vector_21:00000000 L0
C:\Users\kenne\AppData\Local\Temp\ccmiL9m5.s:1027   .text.__vector_21:00000022 .Loc.307
C:\Users\kenne\AppData\Local\Temp\ccmiL9m5.s:1028   .text.__vector_21:00000022 .Loc.308
C:\Users\kenne\AppData\Local\Temp\ccmiL9m5.s:1032   .text.__vector_21:00000026 .Loc.309
C:\Users\kenne\AppData\Local\Temp\ccmiL9m5.s:1050   .text.__vector_21:00000048 L0
C:\Users\kenne\AppData\Local\Temp\ccmiL9m5.s:1055   .text._GLOBAL__sub_I_adc:00000000 _GLOBAL__sub_I_adc
C:\Users\kenne\AppData\Local\Temp\ccmiL9m5.s:1057   .text._GLOBAL__sub_I_adc:00000000 .Loc.310
C:\Users\kenne\AppData\Local\Temp\ccmiL9m5.s:1058   .text._GLOBAL__sub_I_adc:00000000 L0
C:\Users\kenne\AppData\Local\Temp\ccmiL9m5.s:1063   .text._GLOBAL__sub_I_adc:00000000 .Loc.311
C:\Users\kenne\AppData\Local\Temp\ccmiL9m5.s:1072   .text._GLOBAL__sub_I_adc:0000000e L0
C:\Users\kenne\AppData\Local\Temp\ccmiL9m5.s:1081   .text._GLOBAL__sub_D_adc:00000000 _GLOBAL__sub_D_adc
C:\Users\kenne\AppData\Local\Temp\ccmiL9m5.s:1083   .text._GLOBAL__sub_D_adc:00000000 .Loc.312
C:\Users\kenne\AppData\Local\Temp\ccmiL9m5.s:1084   .text._GLOBAL__sub_D_adc:00000000 L0
C:\Users\kenne\AppData\Local\Temp\ccmiL9m5.s:1089   .text._GLOBAL__sub_D_adc:00000000 .Loc.313
C:\Users\kenne\AppData\Local\Temp\ccmiL9m5.s:1098   .text._GLOBAL__sub_D_adc:0000000e L0
C:\Users\kenne\AppData\Local\Temp\ccmiL9m5.s:33     .text._Z7getTickv:00000008 L0
C:\Users\kenne\AppData\Local\Temp\ccmiL9m5.s:103    .text._ZN3AdcC2Ev:0000002c L0
C:\Users\kenne\AppData\Local\Temp\ccmiL9m5.s:126    .text._ZN3AdcD2Ev:00000002 L0
GAS LISTING C:\Users\kenne\AppData\Local\Temp\ccmiL9m5.s 			page 54


C:\Users\kenne\AppData\Local\Temp\ccmiL9m5.s:166    .text._Z41__static_initialization_and_destruction_0ii:0000001a L0
C:\Users\kenne\AppData\Local\Temp\ccmiL9m5.s:275    .text._ZN3Adc4initENS_4ModeENS_9ReferenceENS_9PrescalerE:00000058 L0
C:\Users\kenne\AppData\Local\Temp\ccmiL9m5.s:335    .text._ZN3Adc13setDataAdjustENS_10DataAdjustE:0000002e L0
C:\Users\kenne\AppData\Local\Temp\ccmiL9m5.s:408    .text._ZN3Adc7setModeENS_4ModeE:00000034 L0
C:\Users\kenne\AppData\Local\Temp\ccmiL9m5.s:459    .text._ZN3Adc12setPrescalerENS_9PrescalerE:0000001a L0
C:\Users\kenne\AppData\Local\Temp\ccmiL9m5.s:517    .text._ZN3Adc12setReferenceENS_9ReferenceE:00000024 L0
C:\Users\kenne\AppData\Local\Temp\ccmiL9m5.s:550    .text._ZN3Adc19disableDigitalInputENS_12DigitalInputE:0000000e L0
C:\Users\kenne\AppData\Local\Temp\ccmiL9m5.s:583    .text._ZN3Adc18enableDigitalInputENS_12DigitalInputE:0000000e L0
C:\Users\kenne\AppData\Local\Temp\ccmiL9m5.s:634    .text._ZN3Adc10setChannelENS_7ChannelE:0000001a L0
C:\Users\kenne\AppData\Local\Temp\ccmiL9m5.s:678    .text._ZN3Adc17activateInterruptEv:0000001c L0
C:\Users\kenne\AppData\Local\Temp\ccmiL9m5.s:718    .text._ZN3Adc21clearInterruptRequestEv:00000018 L0
C:\Users\kenne\AppData\Local\Temp\ccmiL9m5.s:762    .text._ZN3Adc19deactivateInterruptEv:0000001c L0
C:\Users\kenne\AppData\Local\Temp\ccmiL9m5.s:806    .text._ZN3Adc6enableEv:0000001c L0
C:\Users\kenne\AppData\Local\Temp\ccmiL9m5.s:850    .text._ZN3Adc7disableEv:0000001c L0
C:\Users\kenne\AppData\Local\Temp\ccmiL9m5.s:874    .text._ZN3Adc12getLastErrorEv:00000008 L0
C:\Users\kenne\AppData\Local\Temp\ccmiL9m5.s:914    .text._ZN3Adc15startConversionEv:00000018 L0
C:\Users\kenne\AppData\Local\Temp\ccmiL9m5.s:953    .text._ZN3Adc25waitUntilConversionFinishEv:00000014 L0
C:\Users\kenne\AppData\Local\Temp\ccmiL9m5.s:971    .text._Z29adcConversionCompleteCallbackv:00000002 L0
C:\Users\kenne\AppData\Local\Temp\ccmiL9m5.s:1053   .text.__vector_21:00000048 L0
C:\Users\kenne\AppData\Local\Temp\ccmiL9m5.s:1076   .text._GLOBAL__sub_I_adc:0000000e L0
C:\Users\kenne\AppData\Local\Temp\ccmiL9m5.s:1102   .text._GLOBAL__sub_D_adc:0000000e L0
                     .debug_frame:00000000 L0
C:\Users\kenne\AppData\Local\Temp\ccmiL9m5.s:149    .text._Z41__static_initialization_and_destruction_0ii:0000000a .L6
C:\Users\kenne\AppData\Local\Temp\ccmiL9m5.s:144    .text._Z41__static_initialization_and_destruction_0ii:00000008 .L4
C:\Users\kenne\AppData\Local\Temp\ccmiL9m5.s:266    .text._ZN3Adc4initENS_4ModeENS_9ReferenceENS_9PrescalerE:00000054 .L10
C:\Users\kenne\AppData\Local\Temp\ccmiL9m5.s:210    .text._ZN3Adc4initENS_4ModeENS_9ReferenceENS_9PrescalerE:00000020 .L9
C:\Users\kenne\AppData\Local\Temp\ccmiL9m5.s:322    .text._ZN3Adc13setDataAdjustENS_10DataAdjustE:00000022 .L12
C:\Users\kenne\AppData\Local\Temp\ccmiL9m5.s:303    .text._ZN3Adc13setDataAdjustENS_10DataAdjustE:00000012 .L13
C:\Users\kenne\AppData\Local\Temp\ccmiL9m5.s:399    .text._ZN3Adc7setModeENS_4ModeE:00000030 .L17
C:\Users\kenne\AppData\Local\Temp\ccmiL9m5.s:377    .text._ZN3Adc7setModeENS_4ModeE:0000001c .L16
C:\Users\kenne\AppData\Local\Temp\ccmiL9m5.s:930    .text._ZN3Adc25waitUntilConversionFinishEv:00000004 .L31
C:\Users\kenne\AppData\Local\Temp\ccmiL9m5.s:2385   .debug_abbrev:00000000 .Ldebug_abbrev0
C:\Users\kenne\AppData\Local\Temp\ccmiL9m5.s:3985   .debug_rnglists:0000000c .LLRL27
C:\Users\kenne\AppData\Local\Temp\ccmiL9m5.s:4061   .debug_line:00000000 .Ldebug_line0
C:\Users\kenne\AppData\Local\Temp\ccmiL9m5.s:1082   .text._GLOBAL__sub_D_adc:00000000 .LFB62
C:\Users\kenne\AppData\Local\Temp\ccmiL9m5.s:1099   .text._GLOBAL__sub_D_adc:0000000e .LFE62
C:\Users\kenne\AppData\Local\Temp\ccmiL9m5.s:1095   .text._GLOBAL__sub_D_adc:0000000c .LVL72
C:\Users\kenne\AppData\Local\Temp\ccmiL9m5.s:1056   .text._GLOBAL__sub_I_adc:00000000 .LFB61
C:\Users\kenne\AppData\Local\Temp\ccmiL9m5.s:1073   .text._GLOBAL__sub_I_adc:0000000e .LFE61
C:\Users\kenne\AppData\Local\Temp\ccmiL9m5.s:1069   .text._GLOBAL__sub_I_adc:0000000c .LVL71
C:\Users\kenne\AppData\Local\Temp\ccmiL9m5.s:130    .text._Z41__static_initialization_and_destruction_0ii:00000000 .LFB60
C:\Users\kenne\AppData\Local\Temp\ccmiL9m5.s:164    .text._Z41__static_initialization_and_destruction_0ii:0000001a .LFE60
C:\Users\kenne\AppData\Local\Temp\ccmiL9m5.s:3189   .debug_loclists:00000014 .LLST1
C:\Users\kenne\AppData\Local\Temp\ccmiL9m5.s:3180   .debug_loclists:0000000c .LVUS1
C:\Users\kenne\AppData\Local\Temp\ccmiL9m5.s:3238   .debug_loclists:00000046 .LLST2
C:\Users\kenne\AppData\Local\Temp\ccmiL9m5.s:3229   .debug_loclists:0000003e .LVUS2
C:\Users\kenne\AppData\Local\Temp\ccmiL9m5.s:160    .text._Z41__static_initialization_and_destruction_0ii:00000018 .LVL7
C:\Users\kenne\AppData\Local\Temp\ccmiL9m5.s:975    .text.__vector_21:00000000 .LFB59
C:\Users\kenne\AppData\Local\Temp\ccmiL9m5.s:1051   .text.__vector_21:00000048 .LFE59
C:\Users\kenne\AppData\Local\Temp\ccmiL9m5.s:1030   .text.__vector_21:00000026 .LVL70
C:\Users\kenne\AppData\Local\Temp\ccmiL9m5.s:957    .text._Z29adcConversionCompleteCallbackv:00000000 .LFB58
C:\Users\kenne\AppData\Local\Temp\ccmiL9m5.s:969    .text._Z29adcConversionCompleteCallbackv:00000002 .LFE58
C:\Users\kenne\AppData\Local\Temp\ccmiL9m5.s:919    .text._ZN3Adc25waitUntilConversionFinishEv:00000000 .LFB57
C:\Users\kenne\AppData\Local\Temp\ccmiL9m5.s:951    .text._ZN3Adc25waitUntilConversionFinishEv:00000014 .LFE57
C:\Users\kenne\AppData\Local\Temp\ccmiL9m5.s:3283   .debug_loclists:00000074 .LLST26
C:\Users\kenne\AppData\Local\Temp\ccmiL9m5.s:3278   .debug_loclists:00000070 .LVUS26
C:\Users\kenne\AppData\Local\Temp\ccmiL9m5.s:879    .text._ZN3Adc15startConversionEv:00000000 .LFB56
GAS LISTING C:\Users\kenne\AppData\Local\Temp\ccmiL9m5.s 			page 55


C:\Users\kenne\AppData\Local\Temp\ccmiL9m5.s:912    .text._ZN3Adc15startConversionEv:00000018 .LFE56
C:\Users\kenne\AppData\Local\Temp\ccmiL9m5.s:3310   .debug_loclists:00000090 .LLST25
C:\Users\kenne\AppData\Local\Temp\ccmiL9m5.s:3305   .debug_loclists:0000008c .LVUS25
C:\Users\kenne\AppData\Local\Temp\ccmiL9m5.s:855    .text._ZN3Adc12getLastErrorEv:00000000 .LFB55
C:\Users\kenne\AppData\Local\Temp\ccmiL9m5.s:872    .text._ZN3Adc12getLastErrorEv:00000008 .LFE55
C:\Users\kenne\AppData\Local\Temp\ccmiL9m5.s:3339   .debug_loclists:000000ae .LLST24
C:\Users\kenne\AppData\Local\Temp\ccmiL9m5.s:3334   .debug_loclists:000000aa .LVUS24
C:\Users\kenne\AppData\Local\Temp\ccmiL9m5.s:811    .text._ZN3Adc7disableEv:00000000 .LFB54
C:\Users\kenne\AppData\Local\Temp\ccmiL9m5.s:848    .text._ZN3Adc7disableEv:0000001c .LFE54
C:\Users\kenne\AppData\Local\Temp\ccmiL9m5.s:3368   .debug_loclists:000000cc .LLST23
C:\Users\kenne\AppData\Local\Temp\ccmiL9m5.s:3363   .debug_loclists:000000c8 .LVUS23
C:\Users\kenne\AppData\Local\Temp\ccmiL9m5.s:767    .text._ZN3Adc6enableEv:00000000 .LFB53
C:\Users\kenne\AppData\Local\Temp\ccmiL9m5.s:804    .text._ZN3Adc6enableEv:0000001c .LFE53
C:\Users\kenne\AppData\Local\Temp\ccmiL9m5.s:3395   .debug_loclists:000000e8 .LLST22
C:\Users\kenne\AppData\Local\Temp\ccmiL9m5.s:3390   .debug_loclists:000000e4 .LVUS22
C:\Users\kenne\AppData\Local\Temp\ccmiL9m5.s:723    .text._ZN3Adc19deactivateInterruptEv:00000000 .LFB52
C:\Users\kenne\AppData\Local\Temp\ccmiL9m5.s:760    .text._ZN3Adc19deactivateInterruptEv:0000001c .LFE52
C:\Users\kenne\AppData\Local\Temp\ccmiL9m5.s:3422   .debug_loclists:00000104 .LLST21
C:\Users\kenne\AppData\Local\Temp\ccmiL9m5.s:3417   .debug_loclists:00000100 .LVUS21
C:\Users\kenne\AppData\Local\Temp\ccmiL9m5.s:683    .text._ZN3Adc21clearInterruptRequestEv:00000000 .LFB51
C:\Users\kenne\AppData\Local\Temp\ccmiL9m5.s:716    .text._ZN3Adc21clearInterruptRequestEv:00000018 .LFE51
C:\Users\kenne\AppData\Local\Temp\ccmiL9m5.s:3449   .debug_loclists:00000120 .LLST20
C:\Users\kenne\AppData\Local\Temp\ccmiL9m5.s:3444   .debug_loclists:0000011c .LVUS20
C:\Users\kenne\AppData\Local\Temp\ccmiL9m5.s:639    .text._ZN3Adc17activateInterruptEv:00000000 .LFB50
C:\Users\kenne\AppData\Local\Temp\ccmiL9m5.s:676    .text._ZN3Adc17activateInterruptEv:0000001c .LFE50
C:\Users\kenne\AppData\Local\Temp\ccmiL9m5.s:3478   .debug_loclists:0000013e .LLST19
C:\Users\kenne\AppData\Local\Temp\ccmiL9m5.s:3473   .debug_loclists:0000013a .LVUS19
C:\Users\kenne\AppData\Local\Temp\ccmiL9m5.s:588    .text._ZN3Adc10setChannelENS_7ChannelE:00000000 .LFB49
C:\Users\kenne\AppData\Local\Temp\ccmiL9m5.s:632    .text._ZN3Adc10setChannelENS_7ChannelE:0000001a .LFE49
C:\Users\kenne\AppData\Local\Temp\ccmiL9m5.s:3505   .debug_loclists:0000015a .LLST17
C:\Users\kenne\AppData\Local\Temp\ccmiL9m5.s:3500   .debug_loclists:00000156 .LVUS17
C:\Users\kenne\AppData\Local\Temp\ccmiL9m5.s:3530   .debug_loclists:00000174 .LLST18
C:\Users\kenne\AppData\Local\Temp\ccmiL9m5.s:3527   .debug_loclists:00000172 .LVUS18
C:\Users\kenne\AppData\Local\Temp\ccmiL9m5.s:555    .text._ZN3Adc18enableDigitalInputENS_12DigitalInputE:00000000 .LFB48
C:\Users\kenne\AppData\Local\Temp\ccmiL9m5.s:581    .text._ZN3Adc18enableDigitalInputENS_12DigitalInputE:0000000e .LFE48
C:\Users\kenne\AppData\Local\Temp\ccmiL9m5.s:3542   .debug_loclists:00000181 .LLST16
C:\Users\kenne\AppData\Local\Temp\ccmiL9m5.s:3537   .debug_loclists:0000017d .LVUS16
C:\Users\kenne\AppData\Local\Temp\ccmiL9m5.s:522    .text._ZN3Adc19disableDigitalInputENS_12DigitalInputE:00000000 .LFB47
C:\Users\kenne\AppData\Local\Temp\ccmiL9m5.s:548    .text._ZN3Adc19disableDigitalInputENS_12DigitalInputE:0000000e .LFE47
C:\Users\kenne\AppData\Local\Temp\ccmiL9m5.s:3571   .debug_loclists:0000019f .LLST15
C:\Users\kenne\AppData\Local\Temp\ccmiL9m5.s:3566   .debug_loclists:0000019b .LVUS15
C:\Users\kenne\AppData\Local\Temp\ccmiL9m5.s:464    .text._ZN3Adc12setReferenceENS_9ReferenceE:00000000 .LFB46
C:\Users\kenne\AppData\Local\Temp\ccmiL9m5.s:515    .text._ZN3Adc12setReferenceENS_9ReferenceE:00000024 .LFE46
C:\Users\kenne\AppData\Local\Temp\ccmiL9m5.s:3600   .debug_loclists:000001bd .LLST13
C:\Users\kenne\AppData\Local\Temp\ccmiL9m5.s:3595   .debug_loclists:000001b9 .LVUS13
C:\Users\kenne\AppData\Local\Temp\ccmiL9m5.s:3629   .debug_loclists:000001db .LLST14
C:\Users\kenne\AppData\Local\Temp\ccmiL9m5.s:3622   .debug_loclists:000001d5 .LVUS14
C:\Users\kenne\AppData\Local\Temp\ccmiL9m5.s:413    .text._ZN3Adc12setPrescalerENS_9PrescalerE:00000000 .LFB45
C:\Users\kenne\AppData\Local\Temp\ccmiL9m5.s:457    .text._ZN3Adc12setPrescalerENS_9PrescalerE:0000001a .LFE45
C:\Users\kenne\AppData\Local\Temp\ccmiL9m5.s:3681   .debug_loclists:00000210 .LLST11
C:\Users\kenne\AppData\Local\Temp\ccmiL9m5.s:3676   .debug_loclists:0000020c .LVUS11
C:\Users\kenne\AppData\Local\Temp\ccmiL9m5.s:3706   .debug_loclists:0000022a .LLST12
C:\Users\kenne\AppData\Local\Temp\ccmiL9m5.s:3703   .debug_loclists:00000228 .LVUS12
C:\Users\kenne\AppData\Local\Temp\ccmiL9m5.s:340    .text._ZN3Adc7setModeENS_4ModeE:00000000 .LFB44
C:\Users\kenne\AppData\Local\Temp\ccmiL9m5.s:406    .text._ZN3Adc7setModeENS_4ModeE:00000034 .LFE44
C:\Users\kenne\AppData\Local\Temp\ccmiL9m5.s:3718   .debug_loclists:00000237 .LLST8
C:\Users\kenne\AppData\Local\Temp\ccmiL9m5.s:3713   .debug_loclists:00000233 .LVUS8
GAS LISTING C:\Users\kenne\AppData\Local\Temp\ccmiL9m5.s 			page 56


C:\Users\kenne\AppData\Local\Temp\ccmiL9m5.s:3743   .debug_loclists:00000251 .LLST9
C:\Users\kenne\AppData\Local\Temp\ccmiL9m5.s:3740   .debug_loclists:0000024f .LVUS9
C:\Users\kenne\AppData\Local\Temp\ccmiL9m5.s:3753   .debug_loclists:0000025c .LLST10
C:\Users\kenne\AppData\Local\Temp\ccmiL9m5.s:3750   .debug_loclists:0000025a .LVUS10
C:\Users\kenne\AppData\Local\Temp\ccmiL9m5.s:280    .text._ZN3Adc13setDataAdjustENS_10DataAdjustE:00000000 .LFB43
C:\Users\kenne\AppData\Local\Temp\ccmiL9m5.s:333    .text._ZN3Adc13setDataAdjustENS_10DataAdjustE:0000002e .LFE43
C:\Users\kenne\AppData\Local\Temp\ccmiL9m5.s:3769   .debug_loclists:0000026d .LLST7
C:\Users\kenne\AppData\Local\Temp\ccmiL9m5.s:3760   .debug_loclists:00000265 .LVUS7
C:\Users\kenne\AppData\Local\Temp\ccmiL9m5.s:171    .text._ZN3Adc4initENS_4ModeENS_9ReferenceENS_9PrescalerE:00000000 .LFB42
C:\Users\kenne\AppData\Local\Temp\ccmiL9m5.s:273    .text._ZN3Adc4initENS_4ModeENS_9ReferenceENS_9PrescalerE:00000058 .LFE42
C:\Users\kenne\AppData\Local\Temp\ccmiL9m5.s:3814   .debug_loclists:0000029b .LLST3
C:\Users\kenne\AppData\Local\Temp\ccmiL9m5.s:3809   .debug_loclists:00000297 .LVUS3
C:\Users\kenne\AppData\Local\Temp\ccmiL9m5.s:3841   .debug_loclists:000002b7 .LLST4
C:\Users\kenne\AppData\Local\Temp\ccmiL9m5.s:3836   .debug_loclists:000002b3 .LVUS4
C:\Users\kenne\AppData\Local\Temp\ccmiL9m5.s:3858   .debug_loclists:000002c9 .LLST5
C:\Users\kenne\AppData\Local\Temp\ccmiL9m5.s:3855   .debug_loclists:000002c7 .LVUS5
C:\Users\kenne\AppData\Local\Temp\ccmiL9m5.s:3872   .debug_loclists:000002d8 .LLST6
C:\Users\kenne\AppData\Local\Temp\ccmiL9m5.s:3865   .debug_loclists:000002d2 .LVUS6
C:\Users\kenne\AppData\Local\Temp\ccmiL9m5.s:108    .text._ZN3AdcD2Ev:00000000 .LFB40
C:\Users\kenne\AppData\Local\Temp\ccmiL9m5.s:122    .text._ZN3AdcD2Ev:00000002 .LFE40
C:\Users\kenne\AppData\Local\Temp\ccmiL9m5.s:38     .text._ZN3AdcC2Ev:00000000 .LFB37
C:\Users\kenne\AppData\Local\Temp\ccmiL9m5.s:99     .text._ZN3AdcC2Ev:0000002c .LFE37
C:\Users\kenne\AppData\Local\Temp\ccmiL9m5.s:3896   .debug_loclists:000002f1 .LLST0
C:\Users\kenne\AppData\Local\Temp\ccmiL9m5.s:3891   .debug_loclists:000002ed .LVUS0
C:\Users\kenne\AppData\Local\Temp\ccmiL9m5.s:15     .text._Z7getTickv:00000000 .LFB32
C:\Users\kenne\AppData\Local\Temp\ccmiL9m5.s:31     .text._Z7getTickv:00000008 .LFE32
C:\Users\kenne\AppData\Local\Temp\ccmiL9m5.s:129    .text._Z41__static_initialization_and_destruction_0ii:00000000 .LVL3
C:\Users\kenne\AppData\Local\Temp\ccmiL9m5.s:918    .text._ZN3Adc25waitUntilConversionFinishEv:00000000 .LVL68
C:\Users\kenne\AppData\Local\Temp\ccmiL9m5.s:878    .text._ZN3Adc15startConversionEv:00000000 .LVL66
C:\Users\kenne\AppData\Local\Temp\ccmiL9m5.s:854    .text._ZN3Adc12getLastErrorEv:00000000 .LVL64
C:\Users\kenne\AppData\Local\Temp\ccmiL9m5.s:810    .text._ZN3Adc7disableEv:00000000 .LVL62
C:\Users\kenne\AppData\Local\Temp\ccmiL9m5.s:766    .text._ZN3Adc6enableEv:00000000 .LVL60
C:\Users\kenne\AppData\Local\Temp\ccmiL9m5.s:722    .text._ZN3Adc19deactivateInterruptEv:00000000 .LVL58
C:\Users\kenne\AppData\Local\Temp\ccmiL9m5.s:682    .text._ZN3Adc21clearInterruptRequestEv:00000000 .LVL56
C:\Users\kenne\AppData\Local\Temp\ccmiL9m5.s:638    .text._ZN3Adc17activateInterruptEv:00000000 .LVL54
C:\Users\kenne\AppData\Local\Temp\ccmiL9m5.s:587    .text._ZN3Adc10setChannelENS_7ChannelE:00000000 .LVL49
C:\Users\kenne\AppData\Local\Temp\ccmiL9m5.s:605    .text._ZN3Adc10setChannelENS_7ChannelE:0000000a .LVL50
C:\Users\kenne\AppData\Local\Temp\ccmiL9m5.s:554    .text._ZN3Adc18enableDigitalInputENS_12DigitalInputE:00000000 .LVL47
C:\Users\kenne\AppData\Local\Temp\ccmiL9m5.s:521    .text._ZN3Adc19disableDigitalInputENS_12DigitalInputE:00000000 .LVL45
C:\Users\kenne\AppData\Local\Temp\ccmiL9m5.s:463    .text._ZN3Adc12setReferenceENS_9ReferenceE:00000000 .LVL39
C:\Users\kenne\AppData\Local\Temp\ccmiL9m5.s:481    .text._ZN3Adc12setReferenceENS_9ReferenceE:0000000a .LVL40
C:\Users\kenne\AppData\Local\Temp\ccmiL9m5.s:412    .text._ZN3Adc12setPrescalerENS_9PrescalerE:00000000 .LVL34
C:\Users\kenne\AppData\Local\Temp\ccmiL9m5.s:430    .text._ZN3Adc12setPrescalerENS_9PrescalerE:0000000a .LVL35
C:\Users\kenne\AppData\Local\Temp\ccmiL9m5.s:339    .text._ZN3Adc7setModeENS_4ModeE:00000000 .LVL26
C:\Users\kenne\AppData\Local\Temp\ccmiL9m5.s:359    .text._ZN3Adc7setModeENS_4ModeE:0000000c .LVL28
C:\Users\kenne\AppData\Local\Temp\ccmiL9m5.s:363    .text._ZN3Adc7setModeENS_4ModeE:00000010 .LVL29
C:\Users\kenne\AppData\Local\Temp\ccmiL9m5.s:279    .text._ZN3Adc13setDataAdjustENS_10DataAdjustE:00000000 .LVL22
C:\Users\kenne\AppData\Local\Temp\ccmiL9m5.s:170    .text._ZN3Adc4initENS_4ModeENS_9ReferenceENS_9PrescalerE:00000000 .LVL8
C:\Users\kenne\AppData\Local\Temp\ccmiL9m5.s:188    .text._ZN3Adc4initENS_4ModeENS_9ReferenceENS_9PrescalerE:0000000c .LVL9
C:\Users\kenne\AppData\Local\Temp\ccmiL9m5.s:192    .text._ZN3Adc4initENS_4ModeENS_9ReferenceENS_9PrescalerE:00000010 .LVL10
C:\Users\kenne\AppData\Local\Temp\ccmiL9m5.s:196    .text._ZN3Adc4initENS_4ModeENS_9ReferenceENS_9PrescalerE:00000014 .LVL11
C:\Users\kenne\AppData\Local\Temp\ccmiL9m5.s:37     .text._ZN3AdcC2Ev:00000000 .LVL0
C:\Users\kenne\AppData\Local\Temp\ccmiL9m5.s:1116   .debug_info:00000000 .Ldebug_info0

UNDEFINED SYMBOLS
__do_global_ctors
__do_global_dtors
GAS LISTING C:\Users\kenne\AppData\Local\Temp\ccmiL9m5.s 			page 57


__do_clear_bss
