GAS LISTING C:\Users\Aluno\AppData\Local\Temp\ccYjLeON.s 			page 1


   1               		.file	"sevenSegmentsMuxDisplay.cpp"
   2               	__SP_H__ = 0x3e
   3               	__SP_L__ = 0x3d
   4               	__SREG__ = 0x3f
   5               	__tmp_reg__ = 0
   6               	__zero_reg__ = 1
   7               		.text
   8               	.Ltext0:
   9               		.cfi_sections	.debug_frame
  10               		.file 0 "E:\\projects\\Atividade\\Keypad" "funsape/device/sevenSegmentsMuxDisplay.cpp"
  11               		.section	.text._Z7getTickv,"ax",@progbits
  12               		.weak	_Z7getTickv
  14               	_Z7getTickv:
  15               	.LFB32:
  16               		.file 1 "funsape/device/../globalDefines.hpp"
   1:funsape/device/../globalDefines.hpp **** //!
   2:funsape/device/../globalDefines.hpp **** //! \file           globalDefines.hpp
   3:funsape/device/../globalDefines.hpp **** //! \brief          Global definitions file
   4:funsape/device/../globalDefines.hpp **** //! \author         Leandro Schwarz (bladabuska+funsapeavr8lib@gmail.com)
   5:funsape/device/../globalDefines.hpp **** //! \date           2023-04-05
   6:funsape/device/../globalDefines.hpp **** //! \version        23.04
   7:funsape/device/../globalDefines.hpp **** //! \copyright      license
   8:funsape/device/../globalDefines.hpp **** //! \details        Global definitions file.
   9:funsape/device/../globalDefines.hpp **** //! \todo           Todo list
  10:funsape/device/../globalDefines.hpp **** //!
  11:funsape/device/../globalDefines.hpp **** 
  12:funsape/device/../globalDefines.hpp **** // =============================================================================
  13:funsape/device/../globalDefines.hpp **** // Include guard (START)
  14:funsape/device/../globalDefines.hpp **** // =============================================================================
  15:funsape/device/../globalDefines.hpp **** 
  16:funsape/device/../globalDefines.hpp **** #ifndef __GLOBAL_DEFINES_HPP
  17:funsape/device/../globalDefines.hpp **** #define __GLOBAL_DEFINES_HPP                    2304
  18:funsape/device/../globalDefines.hpp **** 
  19:funsape/device/../globalDefines.hpp **** // =============================================================================
  20:funsape/device/../globalDefines.hpp **** // Basic definitions
  21:funsape/device/../globalDefines.hpp **** // =============================================================================
  22:funsape/device/../globalDefines.hpp **** 
  23:funsape/device/../globalDefines.hpp **** #ifndef F_CPU
  24:funsape/device/../globalDefines.hpp **** #   define F_CPU    16000000UL
  25:funsape/device/../globalDefines.hpp **** #endif
  26:funsape/device/../globalDefines.hpp **** 
  27:funsape/device/../globalDefines.hpp **** // =============================================================================
  28:funsape/device/../globalDefines.hpp **** // Dependencies
  29:funsape/device/../globalDefines.hpp **** // =============================================================================
  30:funsape/device/../globalDefines.hpp **** 
  31:funsape/device/../globalDefines.hpp **** //     //////////////////     AVR STANDARD LIBRARY     //////////////////     //
  32:funsape/device/../globalDefines.hpp **** #include <avr/io.h>
  33:funsape/device/../globalDefines.hpp **** #include <avr/interrupt.h>
  34:funsape/device/../globalDefines.hpp **** #include <util/delay.h>
  35:funsape/device/../globalDefines.hpp **** #include <util/atomic.h>
  36:funsape/device/../globalDefines.hpp **** 
  37:funsape/device/../globalDefines.hpp **** //     ///////////////////     STANDARD C LIBRARY     ///////////////////     //
  38:funsape/device/../globalDefines.hpp **** #include <stddef.h>
  39:funsape/device/../globalDefines.hpp **** #include <stdint.h>
  40:funsape/device/../globalDefines.hpp **** #include <stdio.h>
  41:funsape/device/../globalDefines.hpp **** #include <stdlib.h>
  42:funsape/device/../globalDefines.hpp **** #include <string.h>
GAS LISTING C:\Users\Aluno\AppData\Local\Temp\ccYjLeON.s 			page 2


  43:funsape/device/../globalDefines.hpp **** 
  44:funsape/device/../globalDefines.hpp **** //     //////////////////     LIBRARY DEPENDENCIES     //////////////////     //
  45:funsape/device/../globalDefines.hpp **** #include "pinout.hpp"
  46:funsape/device/../globalDefines.hpp **** #if !defined(__PINOUT_HPP)
  47:funsape/device/../globalDefines.hpp **** #   error "Header file (pinout.hpp) is corrupted!"
  48:funsape/device/../globalDefines.hpp **** #elif __PINOUT_HPP != __GLOBAL_DEFINES_HPP
  49:funsape/device/../globalDefines.hpp **** #   error "Version mismatch between header file and library dependency (pinout.hpp)!"
  50:funsape/device/../globalDefines.hpp **** #endif
  51:funsape/device/../globalDefines.hpp **** 
  52:funsape/device/../globalDefines.hpp **** // =============================================================================
  53:funsape/device/../globalDefines.hpp **** // Undefining previous definitions
  54:funsape/device/../globalDefines.hpp **** // =============================================================================
  55:funsape/device/../globalDefines.hpp **** 
  56:funsape/device/../globalDefines.hpp **** // NONE
  57:funsape/device/../globalDefines.hpp **** 
  58:funsape/device/../globalDefines.hpp **** // =============================================================================
  59:funsape/device/../globalDefines.hpp **** // Constant definitions
  60:funsape/device/../globalDefines.hpp **** // =============================================================================
  61:funsape/device/../globalDefines.hpp **** 
  62:funsape/device/../globalDefines.hpp **** #define inlined                         inline __attribute__((always_inline))
  63:funsape/device/../globalDefines.hpp **** #define weakened                        __attribute__((weak))
  64:funsape/device/../globalDefines.hpp **** 
  65:funsape/device/../globalDefines.hpp **** // =============================================================================
  66:funsape/device/../globalDefines.hpp **** // New data types
  67:funsape/device/../globalDefines.hpp **** // =============================================================================
  68:funsape/device/../globalDefines.hpp **** 
  69:funsape/device/../globalDefines.hpp **** //     ////////////////////     BASIC VARIABLES     /////////////////////     //
  70:funsape/device/../globalDefines.hpp **** typedef bool                            bool_t;
  71:funsape/device/../globalDefines.hpp **** typedef char                            char_t;
  72:funsape/device/../globalDefines.hpp **** 
  73:funsape/device/../globalDefines.hpp **** //     ///////////////////     CONSTANT VARIABLES    ////////////////////     //
  74:funsape/device/../globalDefines.hpp **** typedef const bool_t                    cbool_t;
  75:funsape/device/../globalDefines.hpp **** typedef const char_t                    cchar_t;
  76:funsape/device/../globalDefines.hpp **** typedef const int8_t                    cint8_t;
  77:funsape/device/../globalDefines.hpp **** typedef const int16_t                   cint16_t;
  78:funsape/device/../globalDefines.hpp **** typedef const int32_t                   cint32_t;
  79:funsape/device/../globalDefines.hpp **** typedef const int64_t                   cint64_t;
  80:funsape/device/../globalDefines.hpp **** typedef const uint8_t                   cuint8_t;
  81:funsape/device/../globalDefines.hpp **** typedef const uint16_t                  cuint16_t;
  82:funsape/device/../globalDefines.hpp **** typedef const uint32_t                  cuint32_t;
  83:funsape/device/../globalDefines.hpp **** typedef const uint64_t                  cuint64_t;
  84:funsape/device/../globalDefines.hpp **** 
  85:funsape/device/../globalDefines.hpp **** //     ///////////////////     VOLATILE VARIABLES    ////////////////////     //
  86:funsape/device/../globalDefines.hpp **** typedef volatile bool_t                 vbool_t;
  87:funsape/device/../globalDefines.hpp **** typedef volatile char_t                 vchar_t;
  88:funsape/device/../globalDefines.hpp **** typedef volatile int8_t                 vint8_t;
  89:funsape/device/../globalDefines.hpp **** typedef volatile int16_t                vint16_t;
  90:funsape/device/../globalDefines.hpp **** typedef volatile int32_t                vint32_t;
  91:funsape/device/../globalDefines.hpp **** typedef volatile int64_t                vint64_t;
  92:funsape/device/../globalDefines.hpp **** typedef volatile uint8_t                vuint8_t;
  93:funsape/device/../globalDefines.hpp **** typedef volatile uint16_t               vuint16_t;
  94:funsape/device/../globalDefines.hpp **** typedef volatile uint32_t               vuint32_t;
  95:funsape/device/../globalDefines.hpp **** typedef volatile uint64_t               vuint64_t;
  96:funsape/device/../globalDefines.hpp **** 
  97:funsape/device/../globalDefines.hpp **** //     /////////////////     AVR PLATFORM VARIABLES    //////////////////     //
  98:funsape/device/../globalDefines.hpp **** typedef int16_t                         int_t;          // 16-bit (AVR)
  99:funsape/device/../globalDefines.hpp **** typedef uint16_t                        uint_t;         // 16-bit (AVR)
GAS LISTING C:\Users\Aluno\AppData\Local\Temp\ccYjLeON.s 			page 3


 100:funsape/device/../globalDefines.hpp **** typedef cint16_t                        cint_t;         // 16-bit (AVR)
 101:funsape/device/../globalDefines.hpp **** typedef cuint16_t                       cuint_t;        // 16-bit (AVR)
 102:funsape/device/../globalDefines.hpp **** typedef vint16_t                        vint_t;         // 16-bit (AVR)
 103:funsape/device/../globalDefines.hpp **** typedef vuint16_t                       vuint_t;        // 16-bit (AVR)
 104:funsape/device/../globalDefines.hpp **** typedef uint8_t                         ioPinIndex_t;   // 8-bit (AVR)
 105:funsape/device/../globalDefines.hpp **** typedef vuint8_t                       *ioRegAddress_t; // 8-bit address (AVR)
 106:funsape/device/../globalDefines.hpp **** 
 107:funsape/device/../globalDefines.hpp **** //     //////////////////     BINARY ENUMERATIONS     ///////////////////     //
 108:funsape/device/../globalDefines.hpp **** enum class Activation : cbool_t {
 109:funsape/device/../globalDefines.hpp ****     OFF                                 = false,
 110:funsape/device/../globalDefines.hpp ****     ON                                  = true
 111:funsape/device/../globalDefines.hpp **** };
 112:funsape/device/../globalDefines.hpp **** 
 113:funsape/device/../globalDefines.hpp **** enum class DisplayOrientation : cbool_t {
 114:funsape/device/../globalDefines.hpp ****     LANDSCAPE                           = false,
 115:funsape/device/../globalDefines.hpp ****     PORTRAIT                            = true
 116:funsape/device/../globalDefines.hpp **** };
 117:funsape/device/../globalDefines.hpp **** 
 118:funsape/device/../globalDefines.hpp **** enum class DriverMode : cbool_t {
 119:funsape/device/../globalDefines.hpp ****     PUSH_PULL                           = false,
 120:funsape/device/../globalDefines.hpp ****     OPEN_DRAIN                          = true,
 121:funsape/device/../globalDefines.hpp **** };
 122:funsape/device/../globalDefines.hpp **** 
 123:funsape/device/../globalDefines.hpp **** enum class Edge : cbool_t {
 124:funsape/device/../globalDefines.hpp ****     FALLING                             = false,
 125:funsape/device/../globalDefines.hpp ****     RISING                              = true
 126:funsape/device/../globalDefines.hpp **** };
 127:funsape/device/../globalDefines.hpp **** 
 128:funsape/device/../globalDefines.hpp **** enum class IoOperation : cbool_t {
 129:funsape/device/../globalDefines.hpp ****     WRITE                               = false,
 130:funsape/device/../globalDefines.hpp ****     READ                                = true
 131:funsape/device/../globalDefines.hpp **** };
 132:funsape/device/../globalDefines.hpp **** 
 133:funsape/device/../globalDefines.hpp **** enum class LogicLevel : cbool_t {
 134:funsape/device/../globalDefines.hpp ****     LOW                                 = false,
 135:funsape/device/../globalDefines.hpp ****     HIGH                                = true
 136:funsape/device/../globalDefines.hpp **** };
 137:funsape/device/../globalDefines.hpp **** 
 138:funsape/device/../globalDefines.hpp **** enum class PinDirection : cbool_t {
 139:funsape/device/../globalDefines.hpp ****     INPUT                               = false,
 140:funsape/device/../globalDefines.hpp ****     OUTPUT                              = true,
 141:funsape/device/../globalDefines.hpp **** };
 142:funsape/device/../globalDefines.hpp **** 
 143:funsape/device/../globalDefines.hpp **** enum class Rotation : cbool_t {
 144:funsape/device/../globalDefines.hpp ****     CLOCKWISE                           = false,
 145:funsape/device/../globalDefines.hpp ****     COUNTERCLOCKWISE                    = true
 146:funsape/device/../globalDefines.hpp **** };
 147:funsape/device/../globalDefines.hpp **** 
 148:funsape/device/../globalDefines.hpp **** enum class State : cbool_t {
 149:funsape/device/../globalDefines.hpp ****     OFF                                 = false,
 150:funsape/device/../globalDefines.hpp ****     ON                                  = true
 151:funsape/device/../globalDefines.hpp **** };
 152:funsape/device/../globalDefines.hpp **** 
 153:funsape/device/../globalDefines.hpp **** //     ///////////////////     PLAIN ENUMERATIONS    ////////////////////     //
 154:funsape/device/../globalDefines.hpp **** enum class Axis : cuint8_t {
 155:funsape/device/../globalDefines.hpp ****     //                                     Z-AXIS     Y-AXIS     X-AXIS
 156:funsape/device/../globalDefines.hpp ****     NONE                                = (0 << 2) | (0 << 1) | (0 << 0),
GAS LISTING C:\Users\Aluno\AppData\Local\Temp\ccYjLeON.s 			page 4


 157:funsape/device/../globalDefines.hpp ****     X                                   = (0 << 2) | (0 << 1) | (1 << 0),
 158:funsape/device/../globalDefines.hpp ****     Y                                   = (0 << 2) | (1 << 1) | (0 << 0),
 159:funsape/device/../globalDefines.hpp ****     XY                                  = (0 << 2) | (1 << 1) | (1 << 0),
 160:funsape/device/../globalDefines.hpp ****     Z                                   = (1 << 2) | (0 << 1) | (0 << 0),
 161:funsape/device/../globalDefines.hpp ****     XZ                                  = (1 << 2) | (0 << 1) | (1 << 0),
 162:funsape/device/../globalDefines.hpp ****     YZ                                  = (1 << 2) | (1 << 1) | (0 << 0),
 163:funsape/device/../globalDefines.hpp ****     ALL                                 = (1 << 2) | (1 << 1) | (1 << 0)
 164:funsape/device/../globalDefines.hpp **** };
 165:funsape/device/../globalDefines.hpp **** 
 166:funsape/device/../globalDefines.hpp **** inlined Axis operator|(Axis a, Axis b)
 167:funsape/device/../globalDefines.hpp **** {
 168:funsape/device/../globalDefines.hpp ****     return static_cast<Axis>(static_cast<cint8_t>(a) | static_cast<uint8_t>(b));
 169:funsape/device/../globalDefines.hpp **** }
 170:funsape/device/../globalDefines.hpp **** 
 171:funsape/device/../globalDefines.hpp **** inlined Axis &operator|=(Axis &a, Axis b)
 172:funsape/device/../globalDefines.hpp **** {
 173:funsape/device/../globalDefines.hpp ****     return a = static_cast<Axis>(static_cast<uint8_t>(a) | static_cast<uint8_t>(b));
 174:funsape/device/../globalDefines.hpp **** }
 175:funsape/device/../globalDefines.hpp **** 
 176:funsape/device/../globalDefines.hpp **** inlined Axis operator&(Axis a, Axis b)
 177:funsape/device/../globalDefines.hpp **** {
 178:funsape/device/../globalDefines.hpp ****     return static_cast<Axis>(static_cast<uint8_t>(a) & static_cast<uint8_t>(b));
 179:funsape/device/../globalDefines.hpp **** }
 180:funsape/device/../globalDefines.hpp **** 
 181:funsape/device/../globalDefines.hpp **** inlined Axis &operator&=(Axis &a, Axis b)
 182:funsape/device/../globalDefines.hpp **** {
 183:funsape/device/../globalDefines.hpp ****     return a = static_cast<Axis>(static_cast<uint8_t>(a) & static_cast<uint8_t>(b));
 184:funsape/device/../globalDefines.hpp **** }
 185:funsape/device/../globalDefines.hpp **** 
 186:funsape/device/../globalDefines.hpp **** enum class Direction : cuint8_t {
 187:funsape/device/../globalDefines.hpp ****     LEFT                                = 0,
 188:funsape/device/../globalDefines.hpp ****     RIGHT                               = 1,
 189:funsape/device/../globalDefines.hpp ****     UP                                  = 2,
 190:funsape/device/../globalDefines.hpp ****     DOWN                                = 3
 191:funsape/device/../globalDefines.hpp **** };
 192:funsape/device/../globalDefines.hpp **** 
 193:funsape/device/../globalDefines.hpp **** enum class InterfaceMode : cuint8_t {
 194:funsape/device/../globalDefines.hpp ****     BLOCKING_MODE                       = 0,
 195:funsape/device/../globalDefines.hpp ****     INTERRUPT_MODE                      = 1,
 196:funsape/device/../globalDefines.hpp ****     DMA_MODE                            = 2
 197:funsape/device/../globalDefines.hpp **** };
 198:funsape/device/../globalDefines.hpp **** 
 199:funsape/device/../globalDefines.hpp **** enum class ThermometricScale : cuint8_t {
 200:funsape/device/../globalDefines.hpp ****     CELSIUS                             = 0,
 201:funsape/device/../globalDefines.hpp ****     DELISLE                             = 1,
 202:funsape/device/../globalDefines.hpp ****     FAHRENHEIT                          = 2,
 203:funsape/device/../globalDefines.hpp ****     KELVIN                              = 3,
 204:funsape/device/../globalDefines.hpp ****     NEWTON                              = 4,
 205:funsape/device/../globalDefines.hpp ****     RANKINE                             = 5,
 206:funsape/device/../globalDefines.hpp ****     REAUMUR                             = 6,
 207:funsape/device/../globalDefines.hpp ****     ROMER                               = 7
 208:funsape/device/../globalDefines.hpp **** };
 209:funsape/device/../globalDefines.hpp **** 
 210:funsape/device/../globalDefines.hpp **** enum class Error : cuint16_t {
 211:funsape/device/../globalDefines.hpp ****     // General error codes
 212:funsape/device/../globalDefines.hpp ****     NONE                                                = 0x0000,   // Success - No errors occurred
 213:funsape/device/../globalDefines.hpp ****     AXIS_INVALID                                        = 0x0001,   // Invalid axis
GAS LISTING C:\Users\Aluno\AppData\Local\Temp\ccYjLeON.s 			page 5


 214:funsape/device/../globalDefines.hpp ****     NOT_IMPLEMENTED                                     = 0x0002,   // Not implemented yet
 215:funsape/device/../globalDefines.hpp ****     UNDER_DEVELOPMENT                                   = 0x0003,   // This part of the code is sti
 216:funsape/device/../globalDefines.hpp ****     NOT_INITIALIZED                                     = 0x0004,   // Not initialized
 217:funsape/device/../globalDefines.hpp ****     // BUSY                                                = 0x0005,   // TODO: Describe parameter
 218:funsape/device/../globalDefines.hpp ****     // DEVICE_NOT_SUPPORTED                                = 0x0006,   // Device is not currently s
 219:funsape/device/../globalDefines.hpp ****     // FEATURE_NOT_SUPPORTED                               = 0x0007,   // Unsupported feature or co
 220:funsape/device/../globalDefines.hpp ****     // FUNCTION_POINTER_NULL                               = 0x0008,   // TODO: Describe parameter
 221:funsape/device/../globalDefines.hpp ****     // INSTANCE_INVALID                                    = 0x0009,   // Invalid instance
 222:funsape/device/../globalDefines.hpp ****     // LOCKED                                              = 0x000A,   // Accessed a locked device
 223:funsape/device/../globalDefines.hpp ****     MEMORY_ALLOCATION                                   = 0x000B,   // Memory allocation failed
 224:funsape/device/../globalDefines.hpp ****     // MODE_NOT_SUPPORTED                                  = 0x000C,   // Mode is not currently sup
 225:funsape/device/../globalDefines.hpp ****     // NOT_READY                                           = 0x000D,   // TODO: Describe parameter
 226:funsape/device/../globalDefines.hpp ****     // READ_PROTECTED                                      = 0x000E,   // Tried to read a read prot
 227:funsape/device/../globalDefines.hpp ****     // WRITE_PROTECTED                                     = 0x000F,   // Tried to write a write pr
 228:funsape/device/../globalDefines.hpp **** 
 229:funsape/device/../globalDefines.hpp ****     // Function arguments related error codes
 230:funsape/device/../globalDefines.hpp ****     // ARGUMENT_CANNOT_BE_ZERO                             = 0x0010,   // TODO: Describe parameter
 231:funsape/device/../globalDefines.hpp ****     ARGUMENT_POINTER_NULL                               = 0x0011,   // NULL pointer was passed as a
 232:funsape/device/../globalDefines.hpp ****     ARGUMENT_VALUE_INVALID                              = 0x0012,   // TODO: Describe parameter
 233:funsape/device/../globalDefines.hpp ****     // ARGUMENTS_MISMATCH                                  = 0x0013,   // A function was called wit
 234:funsape/device/../globalDefines.hpp ****     // ARGUMENTS_WRONG_NUMBER                              = 0x0014,   // A function was called wit
 235:funsape/device/../globalDefines.hpp ****     // ARGUMENT_GENERIC_ERROR_5                            = 0x0015,   // Generic error (use only o
 236:funsape/device/../globalDefines.hpp ****     // ARGUMENT_GENERIC_ERROR_6                            = 0x0016,   // Generic error (use only o
 237:funsape/device/../globalDefines.hpp ****     // ARGUMENT_GENERIC_ERROR_7                            = 0x0017,   // Generic error (use only o
 238:funsape/device/../globalDefines.hpp ****     // ARGUMENT_GENERIC_ERROR_8                            = 0x0018,   // Generic error (use only o
 239:funsape/device/../globalDefines.hpp ****     // ARGUMENT_GENERIC_ERROR_9                            = 0x0019,   // Generic error (use only o
 240:funsape/device/../globalDefines.hpp ****     // ARGUMENT_GENERIC_ERROR_10                           = 0x001A,   // Generic error (use only o
 241:funsape/device/../globalDefines.hpp ****     // ARGUMENT_GENERIC_ERROR_11                           = 0x001B,   // Generic error (use only o
 242:funsape/device/../globalDefines.hpp ****     // ARGUMENT_GENERIC_ERROR_12                           = 0x001C,   // Generic error (use only o
 243:funsape/device/../globalDefines.hpp ****     // ARGUMENT_GENERIC_ERROR_13                           = 0x001D,   // Generic error (use only o
 244:funsape/device/../globalDefines.hpp ****     // ARGUMENT_GENERIC_ERROR_14                           = 0x001E,   // Generic error (use only o
 245:funsape/device/../globalDefines.hpp ****     // ARGUMENT_GENERIC_ERROR                              = 0x001F,   // Generic error (use only o
 246:funsape/device/../globalDefines.hpp **** 
 247:funsape/device/../globalDefines.hpp ****     // Buffer related error codes
 248:funsape/device/../globalDefines.hpp ****     // BUFFER_EMPTY                                        = 0x0020,   // Buffer is empty
 249:funsape/device/../globalDefines.hpp ****     // BUFFER_FULL                                         = 0x0021,   // Buffer is full
 250:funsape/device/../globalDefines.hpp ****     // BUFFER_NOT_ENOUGH_ELEMENTS                          = 0x0022,   // Not enough space in buffe
 251:funsape/device/../globalDefines.hpp ****     // BUFFER_NOT_ENOUGH_SPACE                             = 0x0023,   // Not enough space in buffe
 252:funsape/device/../globalDefines.hpp ****     // BUFFER_POINTER_NULL                                 = 0x0024,   // Buffer size was set to ze
 253:funsape/device/../globalDefines.hpp ****     // BUFFER_SIZE_TOO_LARGE                               = 0x0025,   // Buffer size was set to a 
 254:funsape/device/../globalDefines.hpp ****     // BUFFER_SIZE_TOO_SMALL                               = 0x0026,   // Buffer size was set to a 
 255:funsape/device/../globalDefines.hpp ****     // BUFFER_SIZE_ZERO                                    = 0x0027,   // Buffer size was set to ze
 256:funsape/device/../globalDefines.hpp ****     // BUFFER_GENERIC_ERROR_8                              = 0x0028,   // Generic error (use only o
 257:funsape/device/../globalDefines.hpp ****     // BUFFER_GENERIC_ERROR_9                              = 0x0029,   // Generic error (use only o
 258:funsape/device/../globalDefines.hpp ****     // BUFFER_GENERIC_ERROR_10                             = 0x002A,   // Generic error (use only o
 259:funsape/device/../globalDefines.hpp ****     // BUFFER_GENERIC_ERROR_11                             = 0x002B,   // Generic error (use only o
 260:funsape/device/../globalDefines.hpp ****     // BUFFER_GENERIC_ERROR_12                             = 0x002C,   // Generic error (use only o
 261:funsape/device/../globalDefines.hpp ****     // BUFFER_GENERIC_ERROR_13                             = 0x002D,   // Generic error (use only o
 262:funsape/device/../globalDefines.hpp ****     // BUFFER_GENERIC_ERROR_14                             = 0x002E,   // Generic error (use only o
 263:funsape/device/../globalDefines.hpp ****     // BUFFER_GENERIC_ERROR_15                             = 0x002F,   // Generic error (use only o
 264:funsape/device/../globalDefines.hpp **** 
 265:funsape/device/../globalDefines.hpp ****     // Clock configuration related error codes
 266:funsape/device/../globalDefines.hpp ****     // CLOCK_PRESCALER_CHANGE_FAILED                       = 0x0030,   // Clock prescaler change fa
 267:funsape/device/../globalDefines.hpp ****     // CLOCK_PRESCALER_NOT_SUPPORTED                       = 0x0031,   // Clock prescaler configura
 268:funsape/device/../globalDefines.hpp ****     // CLOCK_SPEED_TOO_HIGH                                = 0x0032,   // TODO: Describe parameter
 269:funsape/device/../globalDefines.hpp ****     // CLOCK_SPEED_TOO_LOW                                 = 0x0033,   // TODO: Describe parameter
 270:funsape/device/../globalDefines.hpp ****     // CLOCK_GENERIC_ERROR_4                               = 0x0034,   // Generic error (use only o
GAS LISTING C:\Users\Aluno\AppData\Local\Temp\ccYjLeON.s 			page 6


 271:funsape/device/../globalDefines.hpp ****     // CLOCK_GENERIC_ERROR_5                               = 0x0035,   // Generic error (use only o
 272:funsape/device/../globalDefines.hpp ****     // CLOCK_GENERIC_ERROR_6                               = 0x0036,   // Generic error (use only o
 273:funsape/device/../globalDefines.hpp ****     // CLOCK_GENERIC_ERROR_7                               = 0x0037,   // Generic error (use only o
 274:funsape/device/../globalDefines.hpp ****     // CLOCK_GENERIC_ERROR_8                               = 0x0038,   // Generic error (use only o
 275:funsape/device/../globalDefines.hpp ****     // CLOCK_GENERIC_ERROR_9                               = 0x0039,   // Generic error (use only o
 276:funsape/device/../globalDefines.hpp ****     // CLOCK_GENERIC_ERROR_10                              = 0x003A,   // Generic error (use only o
 277:funsape/device/../globalDefines.hpp ****     // CLOCK_GENERIC_ERROR_11                              = 0x003B,   // Generic error (use only o
 278:funsape/device/../globalDefines.hpp ****     // CLOCK_GENERIC_ERROR_12                              = 0x003C,   // Generic error (use only o
 279:funsape/device/../globalDefines.hpp ****     // CLOCK_GENERIC_ERROR_13                              = 0x003D,   // Generic error (use only o
 280:funsape/device/../globalDefines.hpp ****     // CLOCK_GENERIC_ERROR_14                              = 0x003E,   // Generic error (use only o
 281:funsape/device/../globalDefines.hpp ****     // CLOCK_GENERIC_ERROR_15                              = 0x003F,   // Generic error (use only o
 282:funsape/device/../globalDefines.hpp **** 
 283:funsape/device/../globalDefines.hpp ****     // Communication related error codes
 284:funsape/device/../globalDefines.hpp ****     // COMMUNICATION_FAILED                                = 0x0040,   // TODO: Describe parameter
 285:funsape/device/../globalDefines.hpp ****     // COMMUNICATION_NO_DEVICE_SELECTED                    = 0x0041,   // TODO: Describe parameter
 286:funsape/device/../globalDefines.hpp ****     // COMMUNICATION_PORT_NOT_SET                          = 0x0042,   // TODO: Describe parameter
 287:funsape/device/../globalDefines.hpp ****     // COMMUNICATION_TIMEOUT                               = 0x0043,   // The operation timed out
 288:funsape/device/../globalDefines.hpp ****     // COMMUNICATION_DEVICE_ID_MATCH_FAILED                = 0x0044,   // TODO: Describe parameter
 289:funsape/device/../globalDefines.hpp ****     // CHECKSUM_ERROR                                      = 0x0045,   // TODO: Describe parameter
 290:funsape/device/../globalDefines.hpp ****     // FRAME_ERROR                                         = 0x0046,   // TODO: Describe parameter
 291:funsape/device/../globalDefines.hpp ****     // PACKAGE_AWAITING                                    = 0x0047,   // Try to write data to a re
 292:funsape/device/../globalDefines.hpp ****     // PACKAGE_NOT_READY                                   = 0x0048,   // Try to read data from a n
 293:funsape/device/../globalDefines.hpp ****     // COMMUNICATION_GENERIC_ERROR_9                       = 0x0049,   // Generic error (use only o
 294:funsape/device/../globalDefines.hpp ****     // COMMUNICATION_GENERIC_ERROR_10                      = 0x004A,   // Generic error (use only o
 295:funsape/device/../globalDefines.hpp ****     // COMMUNICATION_GENERIC_ERROR_11                      = 0x004B,   // Generic error (use only o
 296:funsape/device/../globalDefines.hpp ****     // COMMUNICATION_GENERIC_ERROR_12                      = 0x004C,   // Generic error (use only o
 297:funsape/device/../globalDefines.hpp ****     // COMMUNICATION_GENERIC_ERROR_13                      = 0x004D,   // Generic error (use only o
 298:funsape/device/../globalDefines.hpp ****     // COMMUNICATION_GENERIC_ERROR_14                      = 0x004E,   // Generic error (use only o
 299:funsape/device/../globalDefines.hpp ****     // COMMUNICATION_GENERIC_ERROR_15                      = 0x004F,   // Generic error (use only o
 300:funsape/device/../globalDefines.hpp **** 
 301:funsape/device/../globalDefines.hpp ****     // DateTime class related error codes
 302:funsape/device/../globalDefines.hpp ****     // DATETIME_DATE_NOT_INITIALIZED                       = 0x0050,   // TODO: Describe parameter
 303:funsape/device/../globalDefines.hpp ****     // DATETIME_HOUR_INVALID                               = 0x0051,   // TODO: Describe parameter
 304:funsape/device/../globalDefines.hpp ****     // DATETIME_MILLISECOND_INVALID                        = 0x0052,   // TODO: Describe parameter
 305:funsape/device/../globalDefines.hpp ****     // DATETIME_MINUTE_INVALID                             = 0x0053,   // TODO: Describe parameter
 306:funsape/device/../globalDefines.hpp ****     // DATETIME_MONTH_DAY_INVALID                          = 0x0054,   // TODO: Describe parameter
 307:funsape/device/../globalDefines.hpp ****     // DATETIME_MONTH_INVALID                              = 0x0055,   // TODO: Describe parameter
 308:funsape/device/../globalDefines.hpp ****     // DATETIME_SECOND_INVALID                             = 0x0056,   // TODO: Describe parameter
 309:funsape/device/../globalDefines.hpp ****     // DATETIME_TIME_NOT_INITIALIZED                       = 0x0057,   // TODO: Describe parameter
 310:funsape/device/../globalDefines.hpp ****     // DATETIME_TIMEZONE_INVALID                           = 0x0058,   // TODO: Describe parameter
 311:funsape/device/../globalDefines.hpp ****     // DATETIME_YEAR_INVALID                               = 0x0059,   // TODO: Describe parameter
 312:funsape/device/../globalDefines.hpp ****     // DATETIME_DATE_INVALID                               = 0x005A,   // TODO: Describe parameter
 313:funsape/device/../globalDefines.hpp ****     // DATETIME_TIME_INVALID                               = 0x005B,   // TODO: Describe parameter
 314:funsape/device/../globalDefines.hpp ****     // DATETIME_GENERIC_ERROR_13                           = 0x005C,   // Generic error (use only o
 315:funsape/device/../globalDefines.hpp ****     // DATETIME_GENERIC_ERROR_14                           = 0x005D,   // Generic error (use only o
 316:funsape/device/../globalDefines.hpp ****     // DATETIME_GENERIC_ERROR_15                           = 0x005F,   // Generic error (use only o
 317:funsape/device/../globalDefines.hpp **** 
 318:funsape/device/../globalDefines.hpp ****     // Handler related error codes
 319:funsape/device/../globalDefines.hpp ****     // HANDLER_NOT_SUPPORTED                               = 0x0060,   // TODO: Describe parameter
 320:funsape/device/../globalDefines.hpp ****     // HANDLER_POINTER_NULL                                = 0x0061,   // TODO: Describe parameter
 321:funsape/device/../globalDefines.hpp ****     // HANDLER_GENERIC_ERROR_2                             = 0x0062,   // Generic error (use only o
 322:funsape/device/../globalDefines.hpp ****     // HANDLER_GENERIC_ERROR_3                             = 0x0063,   // Generic error (use only o
 323:funsape/device/../globalDefines.hpp ****     // HANDLER_GENERIC_ERROR_4                             = 0x0064,   // Generic error (use only o
 324:funsape/device/../globalDefines.hpp ****     // HANDLER_GENERIC_ERROR_5                             = 0x0065,   // Generic error (use only o
 325:funsape/device/../globalDefines.hpp ****     // HANDLER_GENERIC_ERROR_6                             = 0x0066,   // Generic error (use only o
 326:funsape/device/../globalDefines.hpp ****     // HANDLER_GENERIC_ERROR_7                             = 0x0067,   // Generic error (use only o
 327:funsape/device/../globalDefines.hpp ****     // HANDLER_GENERIC_ERROR_8                             = 0x0068,   // Generic error (use only o
GAS LISTING C:\Users\Aluno\AppData\Local\Temp\ccYjLeON.s 			page 7


 328:funsape/device/../globalDefines.hpp ****     // HANDLER_GENERIC_ERROR_9                             = 0x0069,   // Generic error (use only o
 329:funsape/device/../globalDefines.hpp ****     // HANDLER_GENERIC_ERROR_10                            = 0x006A,   // Generic error (use only o
 330:funsape/device/../globalDefines.hpp ****     // HANDLER_GENERIC_ERROR_11                            = 0x006B,   // Generic error (use only o
 331:funsape/device/../globalDefines.hpp ****     // HANDLER_GENERIC_ERROR_12                            = 0x006C,   // Generic error (use only o
 332:funsape/device/../globalDefines.hpp ****     // HANDLER_GENERIC_ERROR_13                            = 0x006D,   // Generic error (use only o
 333:funsape/device/../globalDefines.hpp ****     // HANDLER_GENERIC_ERROR_14                            = 0x006E,   // Generic error (use only o
 334:funsape/device/../globalDefines.hpp ****     // HANDLER_GENERIC_ERROR_15                            = 0x006F,   // Generic error (use only o
 335:funsape/device/../globalDefines.hpp **** 
 336:funsape/device/../globalDefines.hpp ****     // External interrupts related error codes
 337:funsape/device/../globalDefines.hpp ****     // INTERRUPT_NOT_AVAILABLE                             = 0x0070,   // TODO: Describe parameter
 338:funsape/device/../globalDefines.hpp ****     // INTERRUPT_PORT_OUTPUT_MODE_NOT_SUPPORTED            = 0x0071,   // TODO: Describe parameter
 339:funsape/device/../globalDefines.hpp ****     // INTERRUPT_SENSE_MODE_NOT_SUPPORTED                  = 0x0072,   // TODO: Describe parameter
 340:funsape/device/../globalDefines.hpp ****     // INTERRUPT_GENERIC_ERROR_3                           = 0x0073,   // Generic error (use only o
 341:funsape/device/../globalDefines.hpp ****     // INTERRUPT_GENERIC_ERROR_4                           = 0x0074,   // Generic error (use only o
 342:funsape/device/../globalDefines.hpp ****     // INTERRUPT_GENERIC_ERROR_5                           = 0x0075,   // Generic error (use only o
 343:funsape/device/../globalDefines.hpp ****     // INTERRUPT_GENERIC_ERROR_6                           = 0x0076,   // Generic error (use only o
 344:funsape/device/../globalDefines.hpp ****     // INTERRUPT_GENERIC_ERROR_7                           = 0x0077,   // Generic error (use only o
 345:funsape/device/../globalDefines.hpp ****     // INTERRUPT_GENERIC_ERROR_8                           = 0x0078,   // Generic error (use only o
 346:funsape/device/../globalDefines.hpp ****     // INTERRUPT_GENERIC_ERROR_9                           = 0x0079,   // Generic error (use only o
 347:funsape/device/../globalDefines.hpp ****     // INTERRUPT_GENERIC_ERROR_10                          = 0x007A,   // Generic error (use only o
 348:funsape/device/../globalDefines.hpp ****     // INTERRUPT_GENERIC_ERROR_11                          = 0x007B,   // Generic error (use only o
 349:funsape/device/../globalDefines.hpp ****     // INTERRUPT_GENERIC_ERROR_12                          = 0x007C,   // Generic error (use only o
 350:funsape/device/../globalDefines.hpp ****     // INTERRUPT_GENERIC_ERROR_13                          = 0x007D,   // Generic error (use only o
 351:funsape/device/../globalDefines.hpp ****     // INTERRUPT_GENERIC_ERROR_14                          = 0x007E,   // Generic error (use only o
 352:funsape/device/../globalDefines.hpp ****     // INTERRUPT_GENERIC_ERROR_15                          = 0x007F,   // Generic error (use only o
 353:funsape/device/../globalDefines.hpp **** 
 354:funsape/device/../globalDefines.hpp **** 
 355:funsape/device/../globalDefines.hpp ****     // Package API class related error codes
 356:funsape/device/../globalDefines.hpp ****     // PACKAGE_API_PACKAGE_DATA_FULL                       = 0x0080,   // TODO: Describe parameter
 357:funsape/device/../globalDefines.hpp ****     // PACKAGE_API_PACKAGE_NOT_READY                       = 0x0081,   // TODO: Describe parameter
 358:funsape/device/../globalDefines.hpp ****     // PACKAGE_API_PAYLOAD_DATA_NULL                       = 0x0082,   // TODO: Describe parameter
 359:funsape/device/../globalDefines.hpp ****     // PACKAGE_API_PAYLOAD_SIZE_NULL                       = 0x0083,   // TODO: Describe parameter
 360:funsape/device/../globalDefines.hpp ****     // PACKAGE_API_SOURCE_ADDRESS_INVALID                  = 0x0084,   // TODO: Describe parameter
 361:funsape/device/../globalDefines.hpp ****     // PACKAGE_API_GENERIC_ERROR_5                         = 0x0085,   // Generic error (use only o
 362:funsape/device/../globalDefines.hpp ****     // PACKAGE_API_GENERIC_ERROR_6                         = 0x0086,   // Generic error (use only o
 363:funsape/device/../globalDefines.hpp ****     // PACKAGE_API_GENERIC_ERROR_7                         = 0x0087,   // Generic error (use only o
 364:funsape/device/../globalDefines.hpp ****     // PACKAGE_API_GENERIC_ERROR_8                         = 0x0088,   // Generic error (use only o
 365:funsape/device/../globalDefines.hpp ****     // PACKAGE_API_GENERIC_ERROR_9                         = 0x0089,   // Generic error (use only o
 366:funsape/device/../globalDefines.hpp ****     // PACKAGE_API_GENERIC_ERROR_10                        = 0x008A,   // Generic error (use only o
 367:funsape/device/../globalDefines.hpp ****     // PACKAGE_API_GENERIC_ERROR_11                        = 0x008B,   // Generic error (use only o
 368:funsape/device/../globalDefines.hpp ****     // PACKAGE_API_GENERIC_ERROR_12                        = 0x008C,   // Generic error (use only o
 369:funsape/device/../globalDefines.hpp ****     // PACKAGE_API_GENERIC_ERROR_13                        = 0x008D,   // Generic error (use only o
 370:funsape/device/../globalDefines.hpp ****     // PACKAGE_API_GENERIC_ERROR_14                        = 0x008E,   // Generic error (use only o
 371:funsape/device/../globalDefines.hpp ****     // PACKAGE_API_GENERIC_ERROR_15                        = 0x008F,   // Generic error (use only o
 372:funsape/device/../globalDefines.hpp **** 
 373:funsape/device/../globalDefines.hpp ****     // SPI related error codes
 374:funsape/device/../globalDefines.hpp ****     // SPI_BUSY_FLAG                                       = 0x0090,   // TODO: Describe parameter
 375:funsape/device/../globalDefines.hpp ****     // SPI_CRC                                             = 0x0091,   // TODO: Describe parameter
 376:funsape/device/../globalDefines.hpp ****     // SPI_DMA                                             = 0x0092,   // TODO: Describe parameter
 377:funsape/device/../globalDefines.hpp ****     // SPI_MODE_FAULT                                      = 0x0093,   // TODO: Describe parameter
 378:funsape/device/../globalDefines.hpp ****     // SPI_OVERRUN                                         = 0x0094,   // TODO: Describe parameter
 379:funsape/device/../globalDefines.hpp ****     // SPI_GENERIC_ERROR_5                                 = 0x0095,   // Generic error (use only o
 380:funsape/device/../globalDefines.hpp ****     // SPI_GENERIC_ERROR_6                                 = 0x0096,   // Generic error (use only o
 381:funsape/device/../globalDefines.hpp ****     // SPI_GENERIC_ERROR_7                                 = 0x0097,   // Generic error (use only o
 382:funsape/device/../globalDefines.hpp ****     // SPI_GENERIC_ERROR_8                                 = 0x0098,   // Generic error (use only o
 383:funsape/device/../globalDefines.hpp ****     // SPI_GENERIC_ERROR_9                                 = 0x0099,   // Generic error (use only o
 384:funsape/device/../globalDefines.hpp ****     // SPI_GENERIC_ERROR_10                                = 0x009A,   // Generic error (use only o
GAS LISTING C:\Users\Aluno\AppData\Local\Temp\ccYjLeON.s 			page 8


 385:funsape/device/../globalDefines.hpp ****     // SPI_GENERIC_ERROR_11                                = 0x009B,   // Generic error (use only o
 386:funsape/device/../globalDefines.hpp ****     // SPI_GENERIC_ERROR_12                                = 0x009C,   // Generic error (use only o
 387:funsape/device/../globalDefines.hpp ****     // SPI_GENERIC_ERROR_13                                = 0x009D,   // Generic error (use only o
 388:funsape/device/../globalDefines.hpp ****     // SPI_GENERIC_ERROR_14                                = 0x009E,   // Generic error (use only o
 389:funsape/device/../globalDefines.hpp ****     // SPI_GENERIC_ERROR_15                                = 0x009F,   // Generic error (use only o
 390:funsape/device/../globalDefines.hpp **** 
 391:funsape/device/../globalDefines.hpp ****     // TWI related error codes
 392:funsape/device/../globalDefines.hpp ****     // TWI_AF_FLAG                                         = 0x00A0,   // TWI AF flag error
 393:funsape/device/../globalDefines.hpp ****     // TWI_ARBITRATION_LOST                                = 0x00A1,   // TWI bus arbitration lost
 394:funsape/device/../globalDefines.hpp ****     // TWI_BUS_ERROR                                       = 0x00A2,   // TWI bus error
 395:funsape/device/../globalDefines.hpp ****     // TWI_DMA                                             = 0x00A3,   // DMA parameter error
 396:funsape/device/../globalDefines.hpp ****     // TWI_DMA_PARAM                                       = 0x00A4,   // DMA transfer error
 397:funsape/device/../globalDefines.hpp ****     // TWI_OVERRUN                                         = 0x00A5,   // TWI overrun
 398:funsape/device/../globalDefines.hpp ****     // TWI_SIZE_MANAGEMENT_ERROR                           = 0x00A6,   // Size management error
 399:funsape/device/../globalDefines.hpp ****     // TWI_INVALID_DEVICE_ADDRESS                          = 0x00A7,   // TODO: Describe parameter
 400:funsape/device/../globalDefines.hpp ****     // TWI_GENERIC_ERROR_8                                 = 0x00A8,   // Generic error (use only o
 401:funsape/device/../globalDefines.hpp ****     // TWI_GENERIC_ERROR_9                                 = 0x00A9,   // Generic error (use only o
 402:funsape/device/../globalDefines.hpp ****     // TWI_GENERIC_ERROR_10                                = 0x00AA,   // Generic error (use only o
 403:funsape/device/../globalDefines.hpp ****     // TWI_GENERIC_ERROR_11                                = 0x00AB,   // Generic error (use only o
 404:funsape/device/../globalDefines.hpp ****     // TWI_GENERIC_ERROR_12                                = 0x00AC,   // Generic error (use only o
 405:funsape/device/../globalDefines.hpp ****     // TWI_GENERIC_ERROR_13                                = 0x00AD,   // Generic error (use only o
 406:funsape/device/../globalDefines.hpp ****     // TWI_GENERIC_ERROR_14                                = 0x00AE,   // Generic error (use only o
 407:funsape/device/../globalDefines.hpp ****     // TWI_GENERIC_ERROR_15                                = 0x00AF,   // Generic error (use only o
 408:funsape/device/../globalDefines.hpp **** 
 409:funsape/device/../globalDefines.hpp ****     // USART related error codes
 410:funsape/device/../globalDefines.hpp ****     // USART_BAUD_RATE_NOT_SUPPORTED                       = 0x00B0,   // TODO: Describe parameter
 411:funsape/device/../globalDefines.hpp ****     // USART_CONFIGURATION_PARAMETER_WRONG                 = 0x00B1,   // TODO: Describe parameter
 412:funsape/device/../globalDefines.hpp ****     // USART_DATA_BITS_NOT_SUPPORTED                       = 0x00B2,   // TODO: Describe parameter
 413:funsape/device/../globalDefines.hpp ****     // USART_FRAME_FORMAT_NOT_SUPPORTED                    = 0x00B3,   // TODO: Describe parameter
 414:funsape/device/../globalDefines.hpp ****     // USART_PARITY_NOT_SUPPORTED                          = 0x00B4,   // TODO: Describe parameter
 415:funsape/device/../globalDefines.hpp ****     // USART_STOP_BIT_NOT_SUPPORTED                        = 0x00B5,   // TODO: Describe parameter
 416:funsape/device/../globalDefines.hpp ****     // USART_GENERIC_ERROR_6                               = 0x00B6,   // Generic error (use only o
 417:funsape/device/../globalDefines.hpp ****     // USART_GENERIC_ERROR_7                               = 0x00B7,   // Generic error (use only o
 418:funsape/device/../globalDefines.hpp ****     // USART_GENERIC_ERROR_8                               = 0x00B8,   // Generic error (use only o
 419:funsape/device/../globalDefines.hpp ****     // USART_GENERIC_ERROR_9                               = 0x00B9,   // Generic error (use only o
 420:funsape/device/../globalDefines.hpp ****     // USART_GENERIC_ERROR_10                              = 0x00BA,   // Generic error (use only o
 421:funsape/device/../globalDefines.hpp ****     // USART_GENERIC_ERROR_11                              = 0x00BB,   // Generic error (use only o
 422:funsape/device/../globalDefines.hpp ****     // USART_GENERIC_ERROR_12                              = 0x00BC,   // Generic error (use only o
 423:funsape/device/../globalDefines.hpp ****     // USART_GENERIC_ERROR_13                              = 0x00BD,   // Generic error (use only o
 424:funsape/device/../globalDefines.hpp ****     // USART_GENERIC_ERROR_14                              = 0x00BE,   // Generic error (use only o
 425:funsape/device/../globalDefines.hpp ****     // USART_GENERIC_ERROR_15                              = 0x00BF,   // Generic error (use only o
 426:funsape/device/../globalDefines.hpp **** 
 427:funsape/device/../globalDefines.hpp ****     // LCD related error codes
 428:funsape/device/../globalDefines.hpp ****     // LCD_CONTROL_PORT_NOT_SET                            = 0x00C0,   // TODO: Describe parameter
 429:funsape/device/../globalDefines.hpp ****     // LCD_CONTROL_PIN_E_INVALID                           = 0x00C1,   // TODO: Describe parameter
 430:funsape/device/../globalDefines.hpp ****     // LCD_CONTROL_PIN_RS_INVALID                          = 0x00C2,   // TODO: Describe parameter
 431:funsape/device/../globalDefines.hpp ****     // LCD_CONTROL_PIN_RW_INVALID                          = 0x00C3,   // TODO: Describe parameter
 432:funsape/device/../globalDefines.hpp ****     // LCD_DATA_PORT_NOT_SET                               = 0x00C4,   // TODO: Describe parameter
 433:funsape/device/../globalDefines.hpp ****     // LCD_DATA_PIN_INDEX_OUT_OF_BOUNDARIES                = 0x00C5,   // TODO: Describe parameter
 434:funsape/device/../globalDefines.hpp ****     // LCD_GENERIC_ERROR_6                                 = 0x00C6,   // Generic error (use only o
 435:funsape/device/../globalDefines.hpp ****     // LCD_GENERIC_ERROR_7                                 = 0x00C7,   // Generic error (use only o
 436:funsape/device/../globalDefines.hpp ****     // LCD_GENERIC_ERROR_8                                 = 0x00C8,   // Generic error (use only o
 437:funsape/device/../globalDefines.hpp ****     // LCD_GENERIC_ERROR_9                                 = 0x00C9,   // Generic error (use only o
 438:funsape/device/../globalDefines.hpp ****     // LCD_GENERIC_ERROR_10                                = 0x00CA,   // Generic error (use only o
 439:funsape/device/../globalDefines.hpp ****     // LCD_GENERIC_ERROR_11                                = 0x00CB,   // Generic error (use only o
 440:funsape/device/../globalDefines.hpp ****     // LCD_GENERIC_ERROR_12                                = 0x00CC,   // Generic error (use only o
 441:funsape/device/../globalDefines.hpp ****     // LCD_GENERIC_ERROR_13                                = 0x00CD,   // Generic error (use only o
GAS LISTING C:\Users\Aluno\AppData\Local\Temp\ccYjLeON.s 			page 9


 442:funsape/device/../globalDefines.hpp ****     // LCD_GENERIC_ERROR_14                                = 0x00CE,   // Generic error (use only o
 443:funsape/device/../globalDefines.hpp ****     // LCD_GENERIC_ERROR_15                                = 0x00CF,   // Generic error (use only o
 444:funsape/device/../globalDefines.hpp **** 
 445:funsape/device/../globalDefines.hpp ****     // GPIO related error codes
 446:funsape/device/../globalDefines.hpp ****     GPIO_PORT_NOT_SET                                   = 0x00D0,   // Gpio port was not set before
 447:funsape/device/../globalDefines.hpp ****     GPIO_DATA_PORT_NOT_SET                              = 0x00D1,   // Gpio data port was not set b
 448:funsape/device/../globalDefines.hpp ****     GPIO_CONTROL_PORT_NOT_SET                           = 0x00D2,   // Gpio control port was not se
 449:funsape/device/../globalDefines.hpp ****     GPIO_PORT_INVALID                                   = 0x00D3,   // Gpio port address is invalid
 450:funsape/device/../globalDefines.hpp ****     GPIO_DATA_PORT_INVALID                              = 0x00D4,   // Gpio data port address is in
 451:funsape/device/../globalDefines.hpp ****     GPIO_CONTROL_PORT_INVALID                           = 0x00D5,   // Gpio control port address is
 452:funsape/device/../globalDefines.hpp ****     GPIO_PIN_INDEX_INVALID                              = 0x00D6,   // Invalid GPIO Pin
 453:funsape/device/../globalDefines.hpp ****     GPIO_PIN_INDEX_OUT_OF_BOUNDARIES                    = 0x00D7,   // Gpio pin index was out of bo
 454:funsape/device/../globalDefines.hpp ****     // GPIO_NO_PIN_SET                                     = 0x00D8,   // No pin selected at Gpio p
 455:funsape/device/../globalDefines.hpp ****     // GPIO_ADDRESS_INVALID                                = 0x00D9,   // Invalid GPIO Port
 456:funsape/device/../globalDefines.hpp ****     // GPIO_PORT_LOGIC_CONTENTION                          = 0x00DA,   // TODO: Describe parameter
 457:funsape/device/../globalDefines.hpp ****     // GPIO_GENERIC_ERROR_11                               = 0x00DB,   // Generic error (use only o
 458:funsape/device/../globalDefines.hpp ****     // GPIO_GENERIC_ERROR_12                               = 0x00DC,   // Generic error (use only o
 459:funsape/device/../globalDefines.hpp ****     // GPIO_GENERIC_ERROR_13                               = 0x00DD,   // Generic error (use only o
 460:funsape/device/../globalDefines.hpp ****     // GPIO_GENERIC_ERROR_14                               = 0x00DE,   // Generic error (use only o
 461:funsape/device/../globalDefines.hpp ****     // GPIO_GENERIC_ERROR_15                               = 0x00DF,   // Generic error (use only o
 462:funsape/device/../globalDefines.hpp **** 
 463:funsape/device/../globalDefines.hpp ****     // HAL related error codes
 464:funsape/device/../globalDefines.hpp ****     // HAL_UNKNOWN_ERROR                                   = 0x00E0,   // TODO: Describe parameter
 465:funsape/device/../globalDefines.hpp ****     // HAL_STATUS_ERROR                                    = 0x00E1,   // TODO: Describe parameter
 466:funsape/device/../globalDefines.hpp ****     // HAL_STATUS_BUSY                                     = 0x00E2,   // TODO: Describe parameter
 467:funsape/device/../globalDefines.hpp ****     // HAL_STATUS_TIMEOUT                                  = 0x00E3,   // TODO: Describe parameter
 468:funsape/device/../globalDefines.hpp ****     // HAL_GENERIC_ERROR_4                                 = 0x00E4,   // Generic error (use only o
 469:funsape/device/../globalDefines.hpp ****     // HAL_GENERIC_ERROR_5                                 = 0x00E5,   // Generic error (use only o
 470:funsape/device/../globalDefines.hpp ****     // HAL_GENERIC_ERROR_6                                 = 0x00E6,   // Generic error (use only o
 471:funsape/device/../globalDefines.hpp ****     // HAL_GENERIC_ERROR_7                                 = 0x00E7,   // Generic error (use only o
 472:funsape/device/../globalDefines.hpp ****     // HAL_GENERIC_ERROR_8                                 = 0x00E8,   // Generic error (use only o
 473:funsape/device/../globalDefines.hpp ****     // HAL_GENERIC_ERROR_9                                 = 0x00E9,   // Generic error (use only o
 474:funsape/device/../globalDefines.hpp ****     // HAL_GENERIC_ERROR_10                                = 0x00EA,   // Generic error (use only o
 475:funsape/device/../globalDefines.hpp ****     // HAL_GENERIC_ERROR_11                                = 0x00EB,   // Generic error (use only o
 476:funsape/device/../globalDefines.hpp ****     // HAL_GENERIC_ERROR_12                                = 0x00EC,   // Generic error (use only o
 477:funsape/device/../globalDefines.hpp ****     // HAL_GENERIC_ERROR_13                                = 0x00ED,   // Generic error (use only o
 478:funsape/device/../globalDefines.hpp ****     // HAL_GENERIC_ERROR_14                                = 0x00EE,   // Generic error (use only o
 479:funsape/device/../globalDefines.hpp ****     // HAL_GENERIC_ERROR_15                                = 0x00EF,   // Generic error (use only o
 480:funsape/device/../globalDefines.hpp **** 
 481:funsape/device/../globalDefines.hpp ****     // System related error codes
 482:funsape/device/../globalDefines.hpp ****     // SYSTEM_US_TIMER_HANDLER_NULL                        = 0x00F0,   // TODO: Describe parameter
 483:funsape/device/../globalDefines.hpp ****     // SYSTEM_GENERIC_ERROR_1                              = 0x00F1,   // Generic error (use only o
 484:funsape/device/../globalDefines.hpp ****     // SYSTEM_GENERIC_ERROR_2                              = 0x00F2,   // Generic error (use only o
 485:funsape/device/../globalDefines.hpp ****     // SYSTEM_GENERIC_ERROR_3                              = 0x00F3,   // Generic error (use only o
 486:funsape/device/../globalDefines.hpp ****     // SYSTEM_GENERIC_ERROR_4                              = 0x00F4,   // Generic error (use only o
 487:funsape/device/../globalDefines.hpp ****     // SYSTEM_GENERIC_ERROR_5                              = 0x00F5,   // Generic error (use only o
 488:funsape/device/../globalDefines.hpp ****     // SYSTEM_GENERIC_ERROR_6                              = 0x00F6,   // Generic error (use only o
 489:funsape/device/../globalDefines.hpp ****     // SYSTEM_GENERIC_ERROR_7                              = 0x00F7,   // Generic error (use only o
 490:funsape/device/../globalDefines.hpp ****     // SYSTEM_GENERIC_ERROR_8                              = 0x00F8,   // Generic error (use only o
 491:funsape/device/../globalDefines.hpp ****     // SYSTEM_GENERIC_ERROR_9                              = 0x00F9,   // Generic error (use only o
 492:funsape/device/../globalDefines.hpp ****     // SYSTEM_GENERIC_ERROR_10                             = 0x00FA,   // Generic error (use only o
 493:funsape/device/../globalDefines.hpp ****     // SYSTEM_GENERIC_ERROR_11                             = 0x00FB,   // Generic error (use only o
 494:funsape/device/../globalDefines.hpp ****     // SYSTEM_GENERIC_ERROR_12                             = 0x00FC,   // Generic error (use only o
 495:funsape/device/../globalDefines.hpp ****     // SYSTEM_GENERIC_ERROR_13                             = 0x00FD,   // Generic error (use only o
 496:funsape/device/../globalDefines.hpp ****     // SYSTEM_GENERIC_ERROR_14                             = 0x00FE,   // Generic error (use only o
 497:funsape/device/../globalDefines.hpp ****     // SYSTEM_GENERIC_ERROR_15                             = 0x00FF,   // Generic error (use only o
 498:funsape/device/../globalDefines.hpp **** 
GAS LISTING C:\Users\Aluno\AppData\Local\Temp\ccYjLeON.s 			page 10


 499:funsape/device/../globalDefines.hpp ****     // FatFs related error codes
 500:funsape/device/../globalDefines.hpp ****     // FAT_FS_UNKNOWN_ERROR                                = 0x0100,   // TODO: Describe parameter
 501:funsape/device/../globalDefines.hpp ****     // FAT_FS_DRIVE_UNSUPPORTED                            = 0x0101,   // TODO: Describe parameter
 502:funsape/device/../globalDefines.hpp ****     // FAT_FS_DISK_NOT_INSERTED                            = 0x0102,   // TODO: Describe parameter
 503:funsape/device/../globalDefines.hpp ****     // FAT_FS_INITIALIZATION_FAILED                        = 0x0103,   // TODO: Describe parameter
 504:funsape/device/../globalDefines.hpp ****     // FAT_FS_GENERIC_ERROR_4                              = 0x0104,   // Generic error (use only o
 505:funsape/device/../globalDefines.hpp ****     // FAT_FS_GENERIC_ERROR_5                              = 0x0105,   // Generic error (use only o
 506:funsape/device/../globalDefines.hpp ****     // FAT_FS_GENERIC_ERROR_6                              = 0x0106,   // Generic error (use only o
 507:funsape/device/../globalDefines.hpp ****     // FAT_FS_GENERIC_ERROR_7                              = 0x0107,   // Generic error (use only o
 508:funsape/device/../globalDefines.hpp ****     // FAT_FS_GENERIC_ERROR_8                              = 0x0108,   // Generic error (use only o
 509:funsape/device/../globalDefines.hpp ****     // FAT_FS_GENERIC_ERROR_9                              = 0x0109,   // Generic error (use only o
 510:funsape/device/../globalDefines.hpp ****     // FAT_FS_GENERIC_ERROR_10                             = 0x010A,   // Generic error (use only o
 511:funsape/device/../globalDefines.hpp ****     // FAT_FS_GENERIC_ERROR_11                             = 0x010B,   // Generic error (use only o
 512:funsape/device/../globalDefines.hpp ****     // FAT_FS_GENERIC_ERROR_12                             = 0x010C,   // Generic error (use only o
 513:funsape/device/../globalDefines.hpp ****     // FAT_FS_GENERIC_ERROR_13                             = 0x010D,   // Generic error (use only o
 514:funsape/device/../globalDefines.hpp ****     // FAT_FS_GENERIC_ERROR_14                             = 0x010E,   // Generic error (use only o
 515:funsape/device/../globalDefines.hpp ****     // FAT_FS_GENERIC_ERROR_15                             = 0x010F,   // Generic error (use only o
 516:funsape/device/../globalDefines.hpp **** 
 517:funsape/device/../globalDefines.hpp ****     // Uncategorized error codes
 518:funsape/device/../globalDefines.hpp ****     // LCD_OUT_OF_BOUNDARIES                               = 0xFFF1,   // TODO: Describe parameter
 519:funsape/device/../globalDefines.hpp ****     // CONTROLLER_NOT_SUPPORTED                            = 0xFFF2,   // Unsupported controller
 520:funsape/device/../globalDefines.hpp ****     // DEVICE_ID_MATCH_FAILED                              = 0xFFF3,   // Device ID doesn't match
 521:funsape/device/../globalDefines.hpp ****     // DMA_NOT_SUPPORTED                                   = 0xFFF4,   // DMA interface mode is not
 522:funsape/device/../globalDefines.hpp ****     // DMA_TRANSFER_ERROR                                  = 0xFFF5,   // DMA transfer error
 523:funsape/device/../globalDefines.hpp ****     // MESSAGE_TOO_LONG                                    = 0xFFF6,   // Message is to long to be 
 524:funsape/device/../globalDefines.hpp ****     // VALID_DATA_NOT_AVAILABLE                            = 0xFFF7,   // Valid data was unavailabl
 525:funsape/device/../globalDefines.hpp ****     // PERIPHERAL_NOT_READY                                = 0xFFF8,   // TODO: Describe parameter
 526:funsape/device/../globalDefines.hpp ****     // STOPWATCH_NOT_STARTED                               = 0xFFF9,   // TODO: Describe parameter
 527:funsape/device/../globalDefines.hpp ****     // UNCATEGORIZED_GENERIC_ERROR_10                      = 0xFFFA,   // Generic error (use only o
 528:funsape/device/../globalDefines.hpp ****     // UNCATEGORIZED_GENERIC_ERROR_11                      = 0xFFFB,   // Generic error (use only o
 529:funsape/device/../globalDefines.hpp ****     // UNCATEGORIZED_GENERIC_ERROR_12                      = 0xFFFC,   // Generic error (use only o
 530:funsape/device/../globalDefines.hpp ****     // UNCATEGORIZED_GENERIC_ERROR_13                      = 0xFFFD,   // Generic error (use only o
 531:funsape/device/../globalDefines.hpp ****     // UNCATEGORIZED_GENERIC_ERROR_14                      = 0xFFFE,   // Generic error (use only o
 532:funsape/device/../globalDefines.hpp **** 
 533:funsape/device/../globalDefines.hpp ****     KEYPAD_COLUMNS_PIN_INDEX_INVALID                    = 0xFFF9,
 534:funsape/device/../globalDefines.hpp ****     KEYPAD_LINES_PIN_INDEX_INVALID                      = 0xFFFA,
 535:funsape/device/../globalDefines.hpp **** 
 536:funsape/device/../globalDefines.hpp ****     KEYPAD_LINES_GPIO_PORT_INVALID                      = 0xFFFB,
 537:funsape/device/../globalDefines.hpp ****     KEYPAD_COLUMNS_GPIO_PORT_INVALID                    = 0xFFFC,
 538:funsape/device/../globalDefines.hpp ****     KEYPAD_TYPE_UNSUPPORTED                             = 0xFFFD,
 539:funsape/device/../globalDefines.hpp ****     KEY_VALUES_NOT_SET                                  = 0xFFFE,
 540:funsape/device/../globalDefines.hpp ****     // "I don't have the slightest idea" error code
 541:funsape/device/../globalDefines.hpp ****     UNKNOWN                                             = 0xFFFF,   // Unknown error - Ops!!!!
 542:funsape/device/../globalDefines.hpp **** };
 543:funsape/device/../globalDefines.hpp **** 
 544:funsape/device/../globalDefines.hpp **** // =============================================================================
 545:funsape/device/../globalDefines.hpp **** // Macrofunctions
 546:funsape/device/../globalDefines.hpp **** // =============================================================================
 547:funsape/device/../globalDefines.hpp **** 
 548:funsape/device/../globalDefines.hpp **** //     //////////////////////     DATA VALIDITY    //////////////////////     //
 549:funsape/device/../globalDefines.hpp **** #define isGpioAddressValid(gpioPort)    (       \
 550:funsape/device/../globalDefines.hpp ****         (IS_GPIO_ALL_INSTANCE(gpioPort))        \
 551:funsape/device/../globalDefines.hpp ****         ? (bool_t)true                          \
 552:funsape/device/../globalDefines.hpp ****         : (bool_t)false)
 553:funsape/device/../globalDefines.hpp **** #define isGpioPinIndexValid(gpioPin)    (       \
 554:funsape/device/../globalDefines.hpp ****         (IS_GPIO_ALL_PIN_NUMBER(gpioPin))       \
 555:funsape/device/../globalDefines.hpp ****         ? (bool_t)true                          \
GAS LISTING C:\Users\Aluno\AppData\Local\Temp\ccYjLeON.s 			page 11


 556:funsape/device/../globalDefines.hpp ****         : (bool_t)false)
 557:funsape/device/../globalDefines.hpp **** #define isPointerValid(ptr)             (       \
 558:funsape/device/../globalDefines.hpp ****         ((void *)(ptr))                         \
 559:funsape/device/../globalDefines.hpp ****         ? (bool_t)true                          \
 560:funsape/device/../globalDefines.hpp ****         : (bool_t)false)
 561:funsape/device/../globalDefines.hpp **** 
 562:funsape/device/../globalDefines.hpp **** //     //////////////////////     BIT HANDLING     //////////////////////     //
 563:funsape/device/../globalDefines.hpp **** #ifndef setBit
 564:funsape/device/../globalDefines.hpp **** #   define setBit(reg, bit)                     ((reg) |= (1 << (bit)))
 565:funsape/device/../globalDefines.hpp **** #endif
 566:funsape/device/../globalDefines.hpp **** #ifndef clrBit
 567:funsape/device/../globalDefines.hpp **** #   define clrBit(reg, bit)                     ((reg) &= ~(1 << (bit)))
 568:funsape/device/../globalDefines.hpp **** #endif
 569:funsape/device/../globalDefines.hpp **** #ifndef cplBit
 570:funsape/device/../globalDefines.hpp **** #   define cplBit(reg, bit)                     ((reg) ^= (1 << (bit)))
 571:funsape/device/../globalDefines.hpp **** #endif
 572:funsape/device/../globalDefines.hpp **** 
 573:funsape/device/../globalDefines.hpp **** //     ///////////////////////     BIT TESTING    ///////////////////////     //
 574:funsape/device/../globalDefines.hpp **** #ifndef isBitSet
 575:funsape/device/../globalDefines.hpp **** #   define isBitSet(reg, bit)                   (((reg) >> (bit)) & 1)
 576:funsape/device/../globalDefines.hpp **** #endif
 577:funsape/device/../globalDefines.hpp **** #ifndef isBitClr
 578:funsape/device/../globalDefines.hpp **** #   define isBitClr(reg, bit)                   (!isBitSet(reg,bit))
 579:funsape/device/../globalDefines.hpp **** #endif
 580:funsape/device/../globalDefines.hpp **** 
 581:funsape/device/../globalDefines.hpp **** //     ///////////////////////     BIT LOOPING    ///////////////////////     //
 582:funsape/device/../globalDefines.hpp **** #ifndef waitUntilBitIsSet
 583:funsape/device/../globalDefines.hpp **** #   define waitUntilBitIsSet(reg, bit)          do{     \
 584:funsape/device/../globalDefines.hpp ****         doNothing();                                    \
 585:funsape/device/../globalDefines.hpp ****     } while (isBitClr((reg), (bit)))
 586:funsape/device/../globalDefines.hpp **** #endif
 587:funsape/device/../globalDefines.hpp **** #ifndef waitUntilBitIsClear
 588:funsape/device/../globalDefines.hpp **** #   define waitUntilBitIsClear(reg, bit)        do{     \
 589:funsape/device/../globalDefines.hpp ****         doNothing();                                    \
 590:funsape/device/../globalDefines.hpp ****     }while(isBitSet((reg), (bit)))
 591:funsape/device/../globalDefines.hpp **** #endif
 592:funsape/device/../globalDefines.hpp **** 
 593:funsape/device/../globalDefines.hpp **** //     ////////////////////     BIT MASK HANDLING    ////////////////////     //
 594:funsape/device/../globalDefines.hpp **** #ifndef setMask
 595:funsape/device/../globalDefines.hpp **** #   define setMask(reg, mask)                   ((reg) |= (mask))
 596:funsape/device/../globalDefines.hpp **** #endif
 597:funsape/device/../globalDefines.hpp **** #ifndef clrMask
 598:funsape/device/../globalDefines.hpp **** #   define clrMask(reg, mask)                   ((reg) &= ~(mask))
 599:funsape/device/../globalDefines.hpp **** #endif
 600:funsape/device/../globalDefines.hpp **** #ifndef cplMask
 601:funsape/device/../globalDefines.hpp **** #   define cplMask(reg, mask)                   ((reg) ^= (mask))
 602:funsape/device/../globalDefines.hpp **** #endif
 603:funsape/device/../globalDefines.hpp **** 
 604:funsape/device/../globalDefines.hpp **** //     ////////////////     BIT MASK OFFSET HANDLING     ////////////////     //
 605:funsape/device/../globalDefines.hpp **** #ifndef setMaskOffset
 606:funsape/device/../globalDefines.hpp **** #   define setMaskOffset(reg, mask, offset)     ((reg) |= ((mask) << (offset)))
 607:funsape/device/../globalDefines.hpp **** #endif
 608:funsape/device/../globalDefines.hpp **** #ifndef clrMaskOffset
 609:funsape/device/../globalDefines.hpp **** #   define clrMaskOffset(reg, mask, offset)     ((reg) &= ~((mask) << (offset)))
 610:funsape/device/../globalDefines.hpp **** #endif
 611:funsape/device/../globalDefines.hpp **** #ifndef cplMaskOffset
 612:funsape/device/../globalDefines.hpp **** #   define cplMaskOffset(reg, mask, offset)     ((reg) ^= ((mask) << (offset)))
GAS LISTING C:\Users\Aluno\AppData\Local\Temp\ccYjLeON.s 			page 12


 613:funsape/device/../globalDefines.hpp **** #endif
 614:funsape/device/../globalDefines.hpp **** 
 615:funsape/device/../globalDefines.hpp **** //     /////////////     DATA MANIPULATION (8-BITS WIDE)    /////////////     //
 616:funsape/device/../globalDefines.hpp **** #define byteGetNibble1(dataByte)        (((dataByte) >> 4) & 0x0F)
 617:funsape/device/../globalDefines.hpp **** #define byteGetNibble0(dataByte)        ((dataByte) & 0x0F)
 618:funsape/device/../globalDefines.hpp **** #define byteSwitchNibbles(dataByte)     ((byteGetNibble0(dataByte) << 4) | \
 619:funsape/device/../globalDefines.hpp ****         (byteGetNibble1(dataByte)))
 620:funsape/device/../globalDefines.hpp **** 
 621:funsape/device/../globalDefines.hpp **** //     ////////////     DATA MANIPULATION (16-BITS WIDE)     ////////////     //
 622:funsape/device/../globalDefines.hpp **** #define hwordGetByte1(dataHword)        (((dataHword) >> 8) & 0x00FF)
 623:funsape/device/../globalDefines.hpp **** #define hwordGetByte0(dataHword)        ((dataHword) & 0x00FF)
 624:funsape/device/../globalDefines.hpp **** #define hwordSwitchBytes(dataHword)     ((hwordGetByte0(dataHword) << 8) | \
 625:funsape/device/../globalDefines.hpp ****         (hwordGetByte1(dataHword)))
 626:funsape/device/../globalDefines.hpp **** 
 627:funsape/device/../globalDefines.hpp **** //     ////////////     DATA MANIPULATION (32-BITS WIDE)     ////////////     //
 628:funsape/device/../globalDefines.hpp **** #define wordGetByte3(dataWord)          (((dataWord) >> 24) & 0x000000FF)
 629:funsape/device/../globalDefines.hpp **** #define wordGetByte2(dataWord)          (((dataWord) >> 16) & 0x000000FF)
 630:funsape/device/../globalDefines.hpp **** #define wordGetByte1(dataWord)          (((dataWord) >> 8) & 0x000000FF)
 631:funsape/device/../globalDefines.hpp **** #define wordGetByte0(dataWord)          ((dataWord) & 0x000000FF)
 632:funsape/device/../globalDefines.hpp **** #define wordSwitchBytes(dataWord)       ((wordGetByte0(dataWord) << 24)  | \
 633:funsape/device/../globalDefines.hpp ****         (wordGetByte1(dataWord) << 16) | \
 634:funsape/device/../globalDefines.hpp ****         (wordGetByte2(dataWord) << 8)  | \
 635:funsape/device/../globalDefines.hpp ****         (wordGetByte3(dataWord)))
 636:funsape/device/../globalDefines.hpp **** #define wordGetHword1(dataWord)         (((dataWord) >> 16) & 0x0000FFFF)
 637:funsape/device/../globalDefines.hpp **** #define wordGetHword0(dataWord)         ((dataWord) & 0x0000FFFF)
 638:funsape/device/../globalDefines.hpp **** #define wordSwitchHwords(dataWord)      ((wordGetHword0(dataWord) << 16) | \
 639:funsape/device/../globalDefines.hpp ****         (wordGetHword1(dataWord)))
 640:funsape/device/../globalDefines.hpp **** 
 641:funsape/device/../globalDefines.hpp **** //     ////////////     DATA MANIPULATION (64-BITS WIDE)     ////////////     //
 642:funsape/device/../globalDefines.hpp **** #define dwordGetByte7(dataDword)        (((dataDword) >> 56) & 0x00000000000000FF)
 643:funsape/device/../globalDefines.hpp **** #define dwordGetByte6(dataDword)        (((dataDword) >> 48) & 0x00000000000000FF)
 644:funsape/device/../globalDefines.hpp **** #define dwordGetByte5(dataDword)        (((dataDword) >> 40) & 0x00000000000000FF)
 645:funsape/device/../globalDefines.hpp **** #define dwordGetByte4(dataDword)        (((dataDword) >> 32) & 0x00000000000000FF)
 646:funsape/device/../globalDefines.hpp **** #define dwordGetByte3(dataDword)        (((dataDword) >> 24) & 0x00000000000000FF)
 647:funsape/device/../globalDefines.hpp **** #define dwordGetByte2(dataDword)        (((dataDword) >> 16) & 0x00000000000000FF)
 648:funsape/device/../globalDefines.hpp **** #define dwordGetByte1(dataDword)        (((dataDword) >> 8) & 0x00000000000000FF)
 649:funsape/device/../globalDefines.hpp **** #define dwordGetByte0(dataDword)        ((dataDword) & 0x00000000000000FF)
 650:funsape/device/../globalDefines.hpp **** #define dwordSwitchBytes(dataDword)     ((dwordGetByte0(dataDword) << 56)  | \
 651:funsape/device/../globalDefines.hpp ****         (dwordGetByte1(dataDword) << 48) | \
 652:funsape/device/../globalDefines.hpp ****         (dwordGetByte2(dataDword) << 40) | \
 653:funsape/device/../globalDefines.hpp ****         (dwordGetByte3(dataDword) << 32) | \
 654:funsape/device/../globalDefines.hpp ****         (dwordGetByte4(dataDword) << 24) | \
 655:funsape/device/../globalDefines.hpp ****         (dwordGetByte5(dataDword) << 16) | \
 656:funsape/device/../globalDefines.hpp ****         (dwordGetByte6(dataDword) << 8)  | \
 657:funsape/device/../globalDefines.hpp ****         (dwordGetByte7(dataDword)))
 658:funsape/device/../globalDefines.hpp **** #define dwordGetHword3(dataDword)       ((dataDword >> 48) & 0x000000000000FFFF)
 659:funsape/device/../globalDefines.hpp **** #define dwordGetHword2(dataDword)       ((dataDword >> 32) & 0x000000000000FFFF)
 660:funsape/device/../globalDefines.hpp **** #define dwordGetHword1(dataDword)       ((dataDword >> 16) & 0x000000000000FFFF)
 661:funsape/device/../globalDefines.hpp **** #define dwordGetHword0(dataDword)       ((dataDword >> 0) & 0x000000000000FFFF)
 662:funsape/device/../globalDefines.hpp **** #define dwordSwitchHwords(dataDword)    ((dwordGetHword0(dataDword) << 48)  | \
 663:funsape/device/../globalDefines.hpp ****         (dwordGetHword1(dataDword) << 32) | \
 664:funsape/device/../globalDefines.hpp ****         (dwordGetHword2(dataDword) << 16) | \
 665:funsape/device/../globalDefines.hpp ****         (dwordGetHword3(dataDword)))
 666:funsape/device/../globalDefines.hpp **** #define dwordGetWord1(dataDword)         (((dataDword) >> 32) & 0x00000000FFFFFFFF)
 667:funsape/device/../globalDefines.hpp **** #define dwordGetWord0(dataDword)         ((dataDword) & 0x00000000FFFFFFFF)
 668:funsape/device/../globalDefines.hpp **** #define dwordSwitchWords(dataDword)     ((dwordGetWord0(dataDword) << 32)  | \
 669:funsape/device/../globalDefines.hpp ****         (dwordGetWord1(dataDword)))
GAS LISTING C:\Users\Aluno\AppData\Local\Temp\ccYjLeON.s 			page 13


 670:funsape/device/../globalDefines.hpp **** 
 671:funsape/device/../globalDefines.hpp **** //     /////////////////////     TRUNCATE VALUES    /////////////////////     //
 672:funsape/device/../globalDefines.hpp **** #define getMaximumOf(var1, var2)        (       \
 673:funsape/device/../globalDefines.hpp ****         ((var1) > (var2))                       \
 674:funsape/device/../globalDefines.hpp ****         ? (var1)                                \
 675:funsape/device/../globalDefines.hpp ****         : (var2))
 676:funsape/device/../globalDefines.hpp **** #define getMinimumOf(var1, var2)        (       \
 677:funsape/device/../globalDefines.hpp ****         ((var1) < (var2))                       \
 678:funsape/device/../globalDefines.hpp ****         ? (var1)                                \
 679:funsape/device/../globalDefines.hpp ****         : (var2))
 680:funsape/device/../globalDefines.hpp **** #define truncateBetween(var, min, max)  (       \
 681:funsape/device/../globalDefines.hpp ****         ((var) < (min))                         \
 682:funsape/device/../globalDefines.hpp ****         ? (min)                                 \
 683:funsape/device/../globalDefines.hpp ****         : (((var) > (max))                      \
 684:funsape/device/../globalDefines.hpp ****                 ? (max)                         \
 685:funsape/device/../globalDefines.hpp ****                 : (var)                         \
 686:funsape/device/../globalDefines.hpp ****         ))
 687:funsape/device/../globalDefines.hpp **** 
 688:funsape/device/../globalDefines.hpp **** //     //////////////////////     STRINGIFYING    ///////////////////////     //
 689:funsape/device/../globalDefines.hpp **** #define stringifyName(constant)         #constant
 690:funsape/device/../globalDefines.hpp **** #define stringifyValue(constant)        stringifyName(constant)
 691:funsape/device/../globalDefines.hpp **** 
 692:funsape/device/../globalDefines.hpp **** // =============================================================================
 693:funsape/device/../globalDefines.hpp **** // Extern global variables
 694:funsape/device/../globalDefines.hpp **** // =============================================================================
 695:funsape/device/../globalDefines.hpp **** 
 696:funsape/device/../globalDefines.hpp **** // NONE
 697:funsape/device/../globalDefines.hpp **** 
 698:funsape/device/../globalDefines.hpp **** // =============================================================================
 699:funsape/device/../globalDefines.hpp **** // Inline functions declaration
 700:funsape/device/../globalDefines.hpp **** // =============================================================================
 701:funsape/device/../globalDefines.hpp **** 
 702:funsape/device/../globalDefines.hpp **** //     ///////////////////     CHARACTER HANDLING    ////////////////////     //
 703:funsape/device/../globalDefines.hpp **** char_t inlined toLowerCase(cchar_t character_p);
 704:funsape/device/../globalDefines.hpp **** char_t inlined toUpperCase(cchar_t character_p);
 705:funsape/device/../globalDefines.hpp **** 
 706:funsape/device/../globalDefines.hpp **** //     /////////////////////     DATA VALIDITY     //////////////////////     //
 707:funsape/device/../globalDefines.hpp **** bool_t inlined isAsciiLowerCaseLetter(cchar_t character_p);
 708:funsape/device/../globalDefines.hpp **** bool_t inlined isAsciiUpperCaseLetter(cchar_t character_p);
 709:funsape/device/../globalDefines.hpp **** bool_t inlined isAsciiCommand(cchar_t character_p);
 710:funsape/device/../globalDefines.hpp **** bool_t inlined isAsciiLetter(cchar_t character_p);
 711:funsape/device/../globalDefines.hpp **** bool_t inlined isAsciiNumber(cchar_t character_p);
 712:funsape/device/../globalDefines.hpp **** bool_t inlined isAsciiSymbol(cchar_t character_p);
 713:funsape/device/../globalDefines.hpp **** 
 714:funsape/device/../globalDefines.hpp **** //     /////////////////////     SYSTEM ACTIONS    //////////////////////     //
 715:funsape/device/../globalDefines.hpp **** void inlined die(Error errorCode_p);
 716:funsape/device/../globalDefines.hpp **** void inlined doNop(void);
 717:funsape/device/../globalDefines.hpp **** void inlined doNothing(void);
 718:funsape/device/../globalDefines.hpp **** void inlined systemHalt(void (*function_p)(void) = nullptr);
 719:funsape/device/../globalDefines.hpp **** 
 720:funsape/device/../globalDefines.hpp **** // =============================================================================
 721:funsape/device/../globalDefines.hpp **** // Inline functions definitions
 722:funsape/device/../globalDefines.hpp **** // =============================================================================
 723:funsape/device/../globalDefines.hpp **** 
 724:funsape/device/../globalDefines.hpp **** //     ///////////////////     CHARACTER HANDLING    ////////////////////     //
 725:funsape/device/../globalDefines.hpp **** char_t inlined toLowerCase(cchar_t character_p)
 726:funsape/device/../globalDefines.hpp **** {
GAS LISTING C:\Users\Aluno\AppData\Local\Temp\ccYjLeON.s 			page 14


 727:funsape/device/../globalDefines.hpp ****     return ((isAsciiUpperCaseLetter(character_p)) ? (character_p + 0x20) : character_p);
 728:funsape/device/../globalDefines.hpp **** }
 729:funsape/device/../globalDefines.hpp **** 
 730:funsape/device/../globalDefines.hpp **** char_t inlined toUpperCase(cchar_t character_p)
 731:funsape/device/../globalDefines.hpp **** {
 732:funsape/device/../globalDefines.hpp ****     return ((isAsciiLowerCaseLetter(character_p)) ? (character_p - 0x20) : character_p);
 733:funsape/device/../globalDefines.hpp **** }
 734:funsape/device/../globalDefines.hpp **** 
 735:funsape/device/../globalDefines.hpp **** //     /////////////////////     DATA VALIDITY     //////////////////////     //
 736:funsape/device/../globalDefines.hpp **** bool_t inlined isAsciiLowerCaseLetter(cchar_t character_p)
 737:funsape/device/../globalDefines.hpp **** {
 738:funsape/device/../globalDefines.hpp ****     return ((bool_t)(((character_p >= 'a') && (character_p <= 'z')) ? true : false));
 739:funsape/device/../globalDefines.hpp **** }
 740:funsape/device/../globalDefines.hpp **** 
 741:funsape/device/../globalDefines.hpp **** bool_t inlined isAsciiUpperCaseLetter(cchar_t character_p)
 742:funsape/device/../globalDefines.hpp **** {
 743:funsape/device/../globalDefines.hpp ****     return ((bool_t)(((character_p >= 'A') && (character_p <= 'Z')) ? true : false));
 744:funsape/device/../globalDefines.hpp **** }
 745:funsape/device/../globalDefines.hpp **** 
 746:funsape/device/../globalDefines.hpp **** bool_t inlined isAsciiCommand(cchar_t character_p)
 747:funsape/device/../globalDefines.hpp **** {
 748:funsape/device/../globalDefines.hpp ****     return ((bool_t)((character_p < ' ') ? true : false));
 749:funsape/device/../globalDefines.hpp **** }
 750:funsape/device/../globalDefines.hpp **** 
 751:funsape/device/../globalDefines.hpp **** bool_t inlined isAsciiLetter(cchar_t character_p)
 752:funsape/device/../globalDefines.hpp **** {
 753:funsape/device/../globalDefines.hpp ****     return ((bool_t)((isAsciiLowerCaseLetter(character_p) || (isAsciiUpperCaseLetter(character_p)) 
 754:funsape/device/../globalDefines.hpp **** }
 755:funsape/device/../globalDefines.hpp **** 
 756:funsape/device/../globalDefines.hpp **** bool_t inlined isAsciiNumber(cchar_t character_p)
 757:funsape/device/../globalDefines.hpp **** {
 758:funsape/device/../globalDefines.hpp ****     return ((bool_t)(((character_p >= '0') && (character_p <= '9')) ? true : false));
 759:funsape/device/../globalDefines.hpp **** }
 760:funsape/device/../globalDefines.hpp **** 
 761:funsape/device/../globalDefines.hpp **** bool_t inlined isAsciiSymbol(cchar_t character_p)
 762:funsape/device/../globalDefines.hpp **** {
 763:funsape/device/../globalDefines.hpp ****     return ((bool_t)(((!isAsciiNumber(character_p)) && (!isAsciiCommand(character_p)) &&
 764:funsape/device/../globalDefines.hpp ****                                     (!isAsciiLetter(character_p))) ? true : false));
 765:funsape/device/../globalDefines.hpp **** }
 766:funsape/device/../globalDefines.hpp **** 
 767:funsape/device/../globalDefines.hpp **** //     /////////////////////     SYSTEM ACTIONS    //////////////////////     //
 768:funsape/device/../globalDefines.hpp **** void inlined die(Error errorCode_p)
 769:funsape/device/../globalDefines.hpp **** {
 770:funsape/device/../globalDefines.hpp ****     printf("Failed with error=%u (0x%04x).\r", (cuint16_t)errorCode_p, (cuint16_t)errorCode_p);
 771:funsape/device/../globalDefines.hpp ****     systemHalt();
 772:funsape/device/../globalDefines.hpp **** 
 773:funsape/device/../globalDefines.hpp ****     return;
 774:funsape/device/../globalDefines.hpp **** }
 775:funsape/device/../globalDefines.hpp **** 
 776:funsape/device/../globalDefines.hpp **** void inlined doNop(void)
 777:funsape/device/../globalDefines.hpp **** {
 778:funsape/device/../globalDefines.hpp ****     asm volatile("nop");
 779:funsape/device/../globalDefines.hpp **** 
 780:funsape/device/../globalDefines.hpp ****     return;
 781:funsape/device/../globalDefines.hpp **** }
 782:funsape/device/../globalDefines.hpp **** 
 783:funsape/device/../globalDefines.hpp **** void inlined doNothing(void)
GAS LISTING C:\Users\Aluno\AppData\Local\Temp\ccYjLeON.s 			page 15


 784:funsape/device/../globalDefines.hpp **** {
 785:funsape/device/../globalDefines.hpp ****     return;
 786:funsape/device/../globalDefines.hpp **** }
 787:funsape/device/../globalDefines.hpp **** 
 788:funsape/device/../globalDefines.hpp **** void inlined systemHalt(void (*function_p)(void))
 789:funsape/device/../globalDefines.hpp **** {
 790:funsape/device/../globalDefines.hpp ****     if(isPointerValid(function_p)) {
 791:funsape/device/../globalDefines.hpp ****         function_p();
 792:funsape/device/../globalDefines.hpp ****     }
 793:funsape/device/../globalDefines.hpp ****     while(1) {
 794:funsape/device/../globalDefines.hpp ****         doNothing();
 795:funsape/device/../globalDefines.hpp ****     }
 796:funsape/device/../globalDefines.hpp **** 
 797:funsape/device/../globalDefines.hpp ****     return;
 798:funsape/device/../globalDefines.hpp **** }
 799:funsape/device/../globalDefines.hpp **** 
 800:funsape/device/../globalDefines.hpp **** // =============================================================================
 801:funsape/device/../globalDefines.hpp **** // Public functions weakly defined
 802:funsape/device/../globalDefines.hpp **** // =============================================================================
 803:funsape/device/../globalDefines.hpp **** 
 804:funsape/device/../globalDefines.hpp **** #define delayMs(time_p)                 _delay_ms(time_p)
 805:funsape/device/../globalDefines.hpp **** #define delayUs(time_p)                 _delay_us(time_p)
 806:funsape/device/../globalDefines.hpp **** 
 807:funsape/device/../globalDefines.hpp **** weakened uint32_t getTick(void)
 808:funsape/device/../globalDefines.hpp **** {
  17               		.loc 1 808 1 view -0
  18               		.cfi_startproc
  19               	/* prologue: function */
  20               	/* frame size = 0 */
  21               	/* stack size = 0 */
  22               	.L__stack_usage = 0
 809:funsape/device/../globalDefines.hpp ****     // TODO
 810:funsape/device/../globalDefines.hpp ****     return 0;
  23               		.loc 1 810 5 view .LVU1
 811:funsape/device/../globalDefines.hpp **** }
  24               		.loc 1 811 1 is_stmt 0 view .LVU2
  25 0000 60E0      		ldi r22,0
  26 0002 70E0      		ldi r23,0
  27 0004 CB01      		movw r24,r22
  28               	/* epilogue start */
  29 0006 0895      		ret
  30               		.cfi_endproc
  31               	.LFE32:
  33               		.section	.text._ZN23SevenSegmentsMuxDisplayC2Ev,"ax",@progbits
  34               	.global	_ZN23SevenSegmentsMuxDisplayC2Ev
  36               	_ZN23SevenSegmentsMuxDisplayC2Ev:
  37               	.LVL0:
  38               	.LFB34:
  39               		.file 2 "funsape/device/sevenSegmentsMuxDisplay.cpp"
   1:funsape/device/sevenSegmentsMuxDisplay.cpp **** //!
   2:funsape/device/sevenSegmentsMuxDisplay.cpp **** //! \file           sevenSegmentsMuxDisplay.cpp
   3:funsape/device/sevenSegmentsMuxDisplay.cpp **** //! \brief          Seven segments multiplexed display controller
   4:funsape/device/sevenSegmentsMuxDisplay.cpp **** //! \author         Leandro Schwarz (bladabuska+funsapeavr8lib@gmail.com)
   5:funsape/device/sevenSegmentsMuxDisplay.cpp **** //! \date           2023-04-05
   6:funsape/device/sevenSegmentsMuxDisplay.cpp **** //! \version        23.04
   7:funsape/device/sevenSegmentsMuxDisplay.cpp **** //! \copyright      license
   8:funsape/device/sevenSegmentsMuxDisplay.cpp **** //! \details        Seven segments multiplexed display controller with support
GAS LISTING C:\Users\Aluno\AppData\Local\Temp\ccYjLeON.s 			page 16


   9:funsape/device/sevenSegmentsMuxDisplay.cpp **** //!                     to variable number of digits (2 to 8). The library
  10:funsape/device/sevenSegmentsMuxDisplay.cpp **** //!                     supports both common anode and common cathode displays,
  11:funsape/device/sevenSegmentsMuxDisplay.cpp **** //!                     decimal point, and the special characters defined in
  12:funsape/device/sevenSegmentsMuxDisplay.cpp **** //!                     sevenSegmentsDisplay.hpp.
  13:funsape/device/sevenSegmentsMuxDisplay.cpp **** //! \todo           Todo list
  14:funsape/device/sevenSegmentsMuxDisplay.cpp **** //!
  15:funsape/device/sevenSegmentsMuxDisplay.cpp **** 
  16:funsape/device/sevenSegmentsMuxDisplay.cpp **** // =============================================================================
  17:funsape/device/sevenSegmentsMuxDisplay.cpp **** // System file dependencies
  18:funsape/device/sevenSegmentsMuxDisplay.cpp **** // =============================================================================
  19:funsape/device/sevenSegmentsMuxDisplay.cpp **** 
  20:funsape/device/sevenSegmentsMuxDisplay.cpp **** #include "sevenSegmentsMuxDisplay.hpp"
  21:funsape/device/sevenSegmentsMuxDisplay.cpp **** #if !defined(__SEVEN_SEGMENTS_MUX_DISPLAY_HPP)
  22:funsape/device/sevenSegmentsMuxDisplay.cpp **** #   error "Header file is corrupted!"
  23:funsape/device/sevenSegmentsMuxDisplay.cpp **** #elif __SEVEN_SEGMENTS_MUX_DISPLAY_HPP != 2304
  24:funsape/device/sevenSegmentsMuxDisplay.cpp **** #   error "Version mismatch between source and header files!"
  25:funsape/device/sevenSegmentsMuxDisplay.cpp **** #endif
  26:funsape/device/sevenSegmentsMuxDisplay.cpp **** 
  27:funsape/device/sevenSegmentsMuxDisplay.cpp **** // =============================================================================
  28:funsape/device/sevenSegmentsMuxDisplay.cpp **** // File exclusive - Constants
  29:funsape/device/sevenSegmentsMuxDisplay.cpp **** // =============================================================================
  30:funsape/device/sevenSegmentsMuxDisplay.cpp **** 
  31:funsape/device/sevenSegmentsMuxDisplay.cpp **** #define DEBUG_SEVEN_SEGMENTS_MUX_DISPLAY        0xFFFF
  32:funsape/device/sevenSegmentsMuxDisplay.cpp **** 
  33:funsape/device/sevenSegmentsMuxDisplay.cpp **** cuint8_t constSevenSegmentMuxDisplayMask[] = {0x00, 0x03, 0x07, 0x0F, 0x1F, 0x3F, 0x7F, 0xFF};
  34:funsape/device/sevenSegmentsMuxDisplay.cpp **** 
  35:funsape/device/sevenSegmentsMuxDisplay.cpp **** // =============================================================================
  36:funsape/device/sevenSegmentsMuxDisplay.cpp **** // File exclusive - New data types
  37:funsape/device/sevenSegmentsMuxDisplay.cpp **** // =============================================================================
  38:funsape/device/sevenSegmentsMuxDisplay.cpp **** 
  39:funsape/device/sevenSegmentsMuxDisplay.cpp **** // NONE
  40:funsape/device/sevenSegmentsMuxDisplay.cpp **** 
  41:funsape/device/sevenSegmentsMuxDisplay.cpp **** // =============================================================================
  42:funsape/device/sevenSegmentsMuxDisplay.cpp **** // File exclusive - Global variables
  43:funsape/device/sevenSegmentsMuxDisplay.cpp **** // =============================================================================
  44:funsape/device/sevenSegmentsMuxDisplay.cpp **** 
  45:funsape/device/sevenSegmentsMuxDisplay.cpp **** // NONE
  46:funsape/device/sevenSegmentsMuxDisplay.cpp **** 
  47:funsape/device/sevenSegmentsMuxDisplay.cpp **** // =============================================================================
  48:funsape/device/sevenSegmentsMuxDisplay.cpp **** // File exclusive - Macro-functions
  49:funsape/device/sevenSegmentsMuxDisplay.cpp **** // =============================================================================
  50:funsape/device/sevenSegmentsMuxDisplay.cpp **** 
  51:funsape/device/sevenSegmentsMuxDisplay.cpp **** // NONE
  52:funsape/device/sevenSegmentsMuxDisplay.cpp **** 
  53:funsape/device/sevenSegmentsMuxDisplay.cpp **** // =============================================================================
  54:funsape/device/sevenSegmentsMuxDisplay.cpp **** // Class constructors
  55:funsape/device/sevenSegmentsMuxDisplay.cpp **** // =============================================================================
  56:funsape/device/sevenSegmentsMuxDisplay.cpp **** 
  57:funsape/device/sevenSegmentsMuxDisplay.cpp **** SevenSegmentsMuxDisplay::SevenSegmentsMuxDisplay(void)
  40               		.loc 2 57 1 is_stmt 1 view -0
  41               		.cfi_startproc
  42               	/* prologue: function */
  43               	/* frame size = 0 */
  44               	/* stack size = 0 */
  45               	.L__stack_usage = 0
  46               		.loc 2 57 1 is_stmt 0 view .LVU4
  47 0000 E82F      		mov r30,r24
GAS LISTING C:\Users\Aluno\AppData\Local\Temp\ccYjLeON.s 			page 17


  48 0002 F92F      		mov r31,r25
  49               	.LBB2:
  58:funsape/device/sevenSegmentsMuxDisplay.cpp **** {
  59:funsape/device/sevenSegmentsMuxDisplay.cpp ****     // Mark passage for debugging purpose
  60:funsape/device/sevenSegmentsMuxDisplay.cpp ****     debugMark("SevenSegmentsMuxDisplay::SevenSegmentsMuxDisplay(void)", DEBUG_SEVEN_SEGMENTS_MUX_DI
  50               		.loc 2 60 5 is_stmt 1 view .LVU5
  51               		.loc 2 60 106 view .LVU6
  61:funsape/device/sevenSegmentsMuxDisplay.cpp **** 
  62:funsape/device/sevenSegmentsMuxDisplay.cpp ****     // Reset data members
  63:funsape/device/sevenSegmentsMuxDisplay.cpp ****     this->_dataDdr                      = nullptr;
  52               		.loc 2 63 5 view .LVU7
  53               		.loc 2 63 41 is_stmt 0 view .LVU8
  54 0004 1182      		std Z+1,__zero_reg__
  55 0006 1082      		st Z,__zero_reg__
  64:funsape/device/sevenSegmentsMuxDisplay.cpp ****     this->_dataPort                     = nullptr;
  56               		.loc 2 64 5 is_stmt 1 view .LVU9
  57               		.loc 2 64 41 is_stmt 0 view .LVU10
  58 0008 1382      		std Z+3,__zero_reg__
  59 000a 1282      		std Z+2,__zero_reg__
  65:funsape/device/sevenSegmentsMuxDisplay.cpp ****     this->_controlDdr                   = nullptr;
  60               		.loc 2 65 5 is_stmt 1 view .LVU11
  61               		.loc 2 65 41 is_stmt 0 view .LVU12
  62 000c 1582      		std Z+5,__zero_reg__
  63 000e 1482      		std Z+4,__zero_reg__
  66:funsape/device/sevenSegmentsMuxDisplay.cpp ****     this->_controlPort                  = nullptr;
  64               		.loc 2 66 5 is_stmt 1 view .LVU13
  65               		.loc 2 66 41 is_stmt 0 view .LVU14
  66 0010 1782      		std Z+7,__zero_reg__
  67 0012 1682      		std Z+6,__zero_reg__
  67:funsape/device/sevenSegmentsMuxDisplay.cpp ****     this->_controlMask                  = 0;
  68               		.loc 2 67 5 is_stmt 1 view .LVU15
  69               		.loc 2 67 41 is_stmt 0 view .LVU16
  70 0014 1186      		std Z+9,__zero_reg__
  68:funsape/device/sevenSegmentsMuxDisplay.cpp ****     this->_controlFirst                 = 0;
  71               		.loc 2 68 5 is_stmt 1 view .LVU17
  72               		.loc 2 68 41 is_stmt 0 view .LVU18
  73 0016 8085      		ldd r24,Z+8
  74               	.LVL1:
  75               		.loc 2 68 41 view .LVU19
  76 0018 887F      		andi r24,lo8(-8)
  77 001a 8087      		std Z+8,r24
  69:funsape/device/sevenSegmentsMuxDisplay.cpp ****     this->_digitMax                     = 0;
  78               		.loc 2 69 5 is_stmt 1 view .LVU20
  79               		.loc 2 69 41 is_stmt 0 view .LVU21
  80 001c 8285      		ldd r24,Z+10
  81 001e 982F      		mov r25,r24
  82 0020 987F      		andi r25,lo8(-8)
  83 0022 9287      		std Z+10,r25
  70:funsape/device/sevenSegmentsMuxDisplay.cpp ****     this->_digitIndex                   = 0;
  84               		.loc 2 70 5 is_stmt 1 view .LVU22
  85               		.loc 2 70 41 is_stmt 0 view .LVU23
  86 0024 807C      		andi r24,lo8(-64)
  87 0026 8287      		std Z+10,r24
  71:funsape/device/sevenSegmentsMuxDisplay.cpp ****     for(uint8_t i = 0; i < 8; i++) {
  88               		.loc 2 71 5 is_stmt 1 view .LVU24
  89               	.LVL2:
  90               	.LBB3:
GAS LISTING C:\Users\Aluno\AppData\Local\Temp\ccYjLeON.s 			page 18


  91               		.loc 2 71 17 is_stmt 0 view .LVU25
  92 0028 80E0      		ldi r24,0
  93               		.loc 2 71 5 view .LVU26
  94 002a 00C0      		rjmp .L3
  95               	.LVL3:
  96               	.L4:
  72:funsape/device/sevenSegmentsMuxDisplay.cpp ****         this->_digitValue[i]            = (uint8_t)SevenSegmentsCode::OFF;
  97               		.loc 2 72 9 is_stmt 1 discriminator 3 view .LVU27
  98               		.loc 2 72 41 is_stmt 0 discriminator 3 view .LVU28
  99 002c DF01      		movw r26,r30
 100 002e A80F      		add r26,r24
 101 0030 B11D      		adc r27,__zero_reg__
 102 0032 9FEF      		ldi r25,lo8(-1)
 103 0034 1B96      		adiw r26,11
 104 0036 9C93      		st X,r25
 105 0038 1B97      		sbiw r26,11
  73:funsape/device/sevenSegmentsMuxDisplay.cpp ****         this->_digitPoint[i]            = false;
 106               		.loc 2 73 9 is_stmt 1 discriminator 3 view .LVU29
 107               		.loc 2 73 41 is_stmt 0 discriminator 3 view .LVU30
 108 003a 5396      		adiw r26,19
 109 003c 1C92      		st X,__zero_reg__
  71:funsape/device/sevenSegmentsMuxDisplay.cpp ****     for(uint8_t i = 0; i < 8; i++) {
 110               		.loc 2 71 5 is_stmt 1 discriminator 3 view .LVU31
 111 003e 8F5F      		subi r24,lo8(-(1))
 112               	.LVL4:
 113               	.L3:
  71:funsape/device/sevenSegmentsMuxDisplay.cpp ****     for(uint8_t i = 0; i < 8; i++) {
 114               		.loc 2 71 26 discriminator 1 view .LVU32
 115 0040 8830      		cpi r24,lo8(8)
 116 0042 00F0      		brlo .L4
 117               	.LBE3:
  74:funsape/device/sevenSegmentsMuxDisplay.cpp ****     }
  75:funsape/device/sevenSegmentsMuxDisplay.cpp ****     this->_displayType                  =  SevenSegmentsDisplayType::COMMON_ANODE;
 118               		.loc 2 75 5 view .LVU33
 119               		.loc 2 75 41 is_stmt 0 view .LVU34
 120 0044 838D      		ldd r24,Z+27
 121               	.LVL5:
 122               		.loc 2 75 41 view .LVU35
 123 0046 8E7F      		andi r24,lo8(~(1<<0))
 124 0048 838F      		std Z+27,r24
  76:funsape/device/sevenSegmentsMuxDisplay.cpp ****     this->_isInitialized                = false;
 125               		.loc 2 76 5 is_stmt 1 view .LVU36
 126               		.loc 2 76 41 is_stmt 0 view .LVU37
 127 004a 8D7F      		andi r24,lo8(~(1<<1))
 128 004c 838F      		std Z+27,r24
  77:funsape/device/sevenSegmentsMuxDisplay.cpp ****     this->_isPortsSet                   = false;
 129               		.loc 2 77 5 is_stmt 1 view .LVU38
 130               		.loc 2 77 41 is_stmt 0 view .LVU39
 131 004e 8B7F      		andi r24,lo8(~(1<<2))
 132 0050 838F      		std Z+27,r24
  78:funsape/device/sevenSegmentsMuxDisplay.cpp ****     this->_controlActiveLevel           = LogicLevel::HIGH;
 133               		.loc 2 78 5 is_stmt 1 view .LVU40
 134               		.loc 2 78 41 is_stmt 0 view .LVU41
 135 0052 8860      		ori r24,lo8(1<<3)
 136 0054 838F      		std Z+27,r24
  79:funsape/device/sevenSegmentsMuxDisplay.cpp **** 
  80:funsape/device/sevenSegmentsMuxDisplay.cpp ****     // Returns successfully
GAS LISTING C:\Users\Aluno\AppData\Local\Temp\ccYjLeON.s 			page 19


  81:funsape/device/sevenSegmentsMuxDisplay.cpp ****     this->_lastError = Error::NONE;
 137               		.loc 2 81 5 is_stmt 1 view .LVU42
 138               		.loc 2 81 22 is_stmt 0 view .LVU43
 139 0056 158E      		std Z+29,__zero_reg__
 140 0058 148E      		std Z+28,__zero_reg__
  82:funsape/device/sevenSegmentsMuxDisplay.cpp ****     debugMessage(Error::NONE, DEBUG_SEVEN_SEGMENTS_MUX_DISPLAY);
 141               		.loc 2 82 5 is_stmt 1 view .LVU44
 142               		.loc 2 82 64 view .LVU45
  83:funsape/device/sevenSegmentsMuxDisplay.cpp ****     return;
 143               		.loc 2 83 5 view .LVU46
 144               	/* epilogue start */
 145               	.LBE2:
  84:funsape/device/sevenSegmentsMuxDisplay.cpp **** }
 146               		.loc 2 84 1 is_stmt 0 view .LVU47
 147 005a 0895      		ret
 148               		.cfi_endproc
 149               	.LFE34:
 151               	.global	_ZN23SevenSegmentsMuxDisplayC1Ev
 152               		.set	_ZN23SevenSegmentsMuxDisplayC1Ev,_ZN23SevenSegmentsMuxDisplayC2Ev
 153               		.section	.text._ZN23SevenSegmentsMuxDisplayD2Ev,"ax",@progbits
 154               	.global	_ZN23SevenSegmentsMuxDisplayD2Ev
 156               	_ZN23SevenSegmentsMuxDisplayD2Ev:
 157               	.LVL6:
 158               	.LFB37:
  85:funsape/device/sevenSegmentsMuxDisplay.cpp **** 
  86:funsape/device/sevenSegmentsMuxDisplay.cpp **** SevenSegmentsMuxDisplay::~SevenSegmentsMuxDisplay(void)
 159               		.loc 2 86 1 is_stmt 1 view -0
 160               		.cfi_startproc
 161               	/* prologue: function */
 162               	/* frame size = 0 */
 163               	/* stack size = 0 */
 164               	.L__stack_usage = 0
  87:funsape/device/sevenSegmentsMuxDisplay.cpp **** {
  88:funsape/device/sevenSegmentsMuxDisplay.cpp ****     // Mark passage for debugging purpose
  89:funsape/device/sevenSegmentsMuxDisplay.cpp ****     debugMark("SevenSegmentsMuxDisplay::~SevenSegmentsMuxDisplay(void)", DEBUG_SEVEN_SEGMENTS_MUX_D
 165               		.loc 2 89 5 view .LVU49
 166               		.loc 2 89 107 view .LVU50
  90:funsape/device/sevenSegmentsMuxDisplay.cpp **** 
  91:funsape/device/sevenSegmentsMuxDisplay.cpp ****     // Returns successfully
  92:funsape/device/sevenSegmentsMuxDisplay.cpp ****     debugMessage(Error::NONE, DEBUG_SEVEN_SEGMENTS_MUX_DISPLAY);
 167               		.loc 2 92 5 view .LVU51
 168               		.loc 2 92 64 view .LVU52
  93:funsape/device/sevenSegmentsMuxDisplay.cpp ****     return;
 169               		.loc 2 93 5 view .LVU53
 170               	/* epilogue start */
  94:funsape/device/sevenSegmentsMuxDisplay.cpp **** }
 171               		.loc 2 94 1 is_stmt 0 view .LVU54
 172 0000 0895      		ret
 173               		.cfi_endproc
 174               	.LFE37:
 176               	.global	_ZN23SevenSegmentsMuxDisplayD1Ev
 177               		.set	_ZN23SevenSegmentsMuxDisplayD1Ev,_ZN23SevenSegmentsMuxDisplayD2Ev
 178               		.section	.text._ZN23SevenSegmentsMuxDisplay4initENS_6DigitsE24SevenSegmentsDisplayType,"ax",@progb
 179               	.global	_ZN23SevenSegmentsMuxDisplay4initENS_6DigitsE24SevenSegmentsDisplayType
 181               	_ZN23SevenSegmentsMuxDisplay4initENS_6DigitsE24SevenSegmentsDisplayType:
 182               	.LVL7:
 183               	.LFB39:
GAS LISTING C:\Users\Aluno\AppData\Local\Temp\ccYjLeON.s 			page 20


  95:funsape/device/sevenSegmentsMuxDisplay.cpp **** 
  96:funsape/device/sevenSegmentsMuxDisplay.cpp **** // =============================================================================
  97:funsape/device/sevenSegmentsMuxDisplay.cpp **** // Class public methods
  98:funsape/device/sevenSegmentsMuxDisplay.cpp **** // =============================================================================
  99:funsape/device/sevenSegmentsMuxDisplay.cpp **** 
 100:funsape/device/sevenSegmentsMuxDisplay.cpp **** bool_t SevenSegmentsMuxDisplay::init(Digits numberOfDigits_p, SevenSegmentsDisplayType displayType_
 101:funsape/device/sevenSegmentsMuxDisplay.cpp **** {
 184               		.loc 2 101 1 is_stmt 1 view -0
 185               		.cfi_startproc
 186               		.loc 2 101 1 is_stmt 0 view .LVU56
 187 0000 0F93      		push r16
 188               		.cfi_def_cfa_offset 3
 189               		.cfi_offset 16, -2
 190 0002 1F93      		push r17
 191               		.cfi_def_cfa_offset 4
 192               		.cfi_offset 17, -3
 193 0004 CF93      		push r28
 194               		.cfi_def_cfa_offset 5
 195               		.cfi_offset 28, -4
 196 0006 DF93      		push r29
 197               		.cfi_def_cfa_offset 6
 198               		.cfi_offset 29, -5
 199               	/* prologue: function */
 200               	/* frame size = 0 */
 201               	/* stack size = 4 */
 202               	.L__stack_usage = 4
 203 0008 E82F      		mov r30,r24
 204 000a F92F      		mov r31,r25
 205 000c 262F      		mov r18,r22
 206 000e 372F      		mov r19,r23
 102:funsape/device/sevenSegmentsMuxDisplay.cpp ****     // Mark passage for debugging purpose
 103:funsape/device/sevenSegmentsMuxDisplay.cpp ****     debugMark("SevenSegmentsMuxDisplay::init(SevenSegmentsMuxDisplay::Digits, SevenSegmentsDisplayT
 207               		.loc 2 103 5 is_stmt 1 view .LVU57
 104:funsape/device/sevenSegmentsMuxDisplay.cpp ****             DEBUG_SEVEN_SEGMENTS_MUX_DISPLAY);
 208               		.loc 2 104 46 view .LVU58
 105:funsape/device/sevenSegmentsMuxDisplay.cpp **** 
 106:funsape/device/sevenSegmentsMuxDisplay.cpp ****     // Local variables
 107:funsape/device/sevenSegmentsMuxDisplay.cpp ****     uint8_t auxMask = 0;
 209               		.loc 2 107 5 view .LVU59
 210               	.LVL8:
 108:funsape/device/sevenSegmentsMuxDisplay.cpp **** 
 109:funsape/device/sevenSegmentsMuxDisplay.cpp ****     // Resets data members
 110:funsape/device/sevenSegmentsMuxDisplay.cpp ****     this->_digitMax             = 0;
 211               		.loc 2 110 5 view .LVU60
 212               		.loc 2 110 33 is_stmt 0 view .LVU61
 213 0010 8285      		ldd r24,Z+10
 214               	.LVL9:
 215               		.loc 2 110 33 view .LVU62
 216 0012 982F      		mov r25,r24
 217 0014 987F      		andi r25,lo8(-8)
 218 0016 9287      		std Z+10,r25
 111:funsape/device/sevenSegmentsMuxDisplay.cpp ****     this->_digitIndex           = 0;
 219               		.loc 2 111 5 is_stmt 1 view .LVU63
 220               		.loc 2 111 33 is_stmt 0 view .LVU64
 221 0018 807C      		andi r24,lo8(-64)
 222 001a 8287      		std Z+10,r24
 112:funsape/device/sevenSegmentsMuxDisplay.cpp ****     this->_controlMask          = 0;
GAS LISTING C:\Users\Aluno\AppData\Local\Temp\ccYjLeON.s 			page 21


 223               		.loc 2 112 5 is_stmt 1 view .LVU65
 224               		.loc 2 112 33 is_stmt 0 view .LVU66
 225 001c 1186      		std Z+9,__zero_reg__
 113:funsape/device/sevenSegmentsMuxDisplay.cpp ****     this->_isInitialized        = false;
 226               		.loc 2 113 5 is_stmt 1 view .LVU67
 227               		.loc 2 113 33 is_stmt 0 view .LVU68
 228 001e 838D      		ldd r24,Z+27
 229 0020 8D7F      		andi r24,lo8(~(1<<1))
 230 0022 838F      		std Z+27,r24
 114:funsape/device/sevenSegmentsMuxDisplay.cpp **** 
 115:funsape/device/sevenSegmentsMuxDisplay.cpp ****     // Check for errors
 116:funsape/device/sevenSegmentsMuxDisplay.cpp ****     if(!this->_isPortsSet) {
 231               		.loc 2 116 5 is_stmt 1 view .LVU69
 232               		.loc 2 116 15 is_stmt 0 view .LVU70
 233 0024 82FB      		bst r24,2
 234 0026 8827      		clr r24
 235 0028 80F9      		bld r24,0
 236               		.loc 2 116 5 view .LVU71
 237 002a 8823      		tst r24
 238 002c 01F4      		brne .+2
 239 002e 00C0      		rjmp .L15
 117:funsape/device/sevenSegmentsMuxDisplay.cpp ****         // Returns error
 118:funsape/device/sevenSegmentsMuxDisplay.cpp ****         this->_lastError = Error::GPIO_PORT_NOT_SET;
 119:funsape/device/sevenSegmentsMuxDisplay.cpp ****         debugMessage(Error::GPIO_PORT_NOT_SET, DEBUG_SEVEN_SEGMENTS_MUX_DISPLAY);
 120:funsape/device/sevenSegmentsMuxDisplay.cpp ****         return false;
 121:funsape/device/sevenSegmentsMuxDisplay.cpp ****     }
 122:funsape/device/sevenSegmentsMuxDisplay.cpp ****     if(((uint8_t)numberOfDigits_p < 2) || ((uint8_t)numberOfDigits_p > 8)) {
 240               		.loc 2 122 5 is_stmt 1 view .LVU72
 241               		.loc 2 122 40 is_stmt 0 view .LVU73
 242 0030 9EEF      		ldi r25,lo8(-2)
 243 0032 960F      		add r25,r22
 244               		.loc 2 122 5 view .LVU74
 245 0034 9730      		cpi r25,lo8(7)
 246 0036 00F0      		brlo .+2
 247 0038 00C0      		rjmp .L16
 123:funsape/device/sevenSegmentsMuxDisplay.cpp ****         // Returns error
 124:funsape/device/sevenSegmentsMuxDisplay.cpp ****         this->_lastError = Error::ARGUMENT_VALUE_INVALID;
 125:funsape/device/sevenSegmentsMuxDisplay.cpp ****         debugMessage(Error::ARGUMENT_VALUE_INVALID, DEBUG_SEVEN_SEGMENTS_MUX_DISPLAY);
 126:funsape/device/sevenSegmentsMuxDisplay.cpp ****         return false;
 127:funsape/device/sevenSegmentsMuxDisplay.cpp ****     }
 128:funsape/device/sevenSegmentsMuxDisplay.cpp ****     if(!isGpioPinIndexValid((uint8_t)numberOfDigits_p + this->_controlFirst - 1)) {
 248               		.loc 2 128 5 is_stmt 1 view .LVU75
 249 003a D901      		movw r26,r18
 250 003c BB27      		clr r27
 251               		.loc 2 128 9 is_stmt 0 view .LVU76
 252 003e 6085      		ldd r22,Z+8
 253               	.LVL10:
 254               		.loc 2 128 9 view .LVU77
 255 0040 6770      		andi r22,lo8(7)
 256 0042 6A0F      		add r22,r26
 257 0044 7B2F      		mov r23,r27
 258 0046 711D      		adc r23,__zero_reg__
 259               		.loc 2 128 5 view .LVU78
 260 0048 6930      		cpi r22,9
 261 004a 7105      		cpc r23,__zero_reg__
 262 004c 04F0      		brlt .+2
 263 004e 00C0      		rjmp .L17
GAS LISTING C:\Users\Aluno\AppData\Local\Temp\ccYjLeON.s 			page 22


 129:funsape/device/sevenSegmentsMuxDisplay.cpp ****         // Returns error
 130:funsape/device/sevenSegmentsMuxDisplay.cpp ****         this->_lastError = Error::GPIO_PIN_INDEX_OUT_OF_BOUNDARIES;
 131:funsape/device/sevenSegmentsMuxDisplay.cpp ****         debugMessage(Error::GPIO_PIN_INDEX_OUT_OF_BOUNDARIES, DEBUG_SEVEN_SEGMENTS_MUX_DISPLAY);
 132:funsape/device/sevenSegmentsMuxDisplay.cpp ****         return false;
 133:funsape/device/sevenSegmentsMuxDisplay.cpp ****     }
 134:funsape/device/sevenSegmentsMuxDisplay.cpp **** 
 135:funsape/device/sevenSegmentsMuxDisplay.cpp ****     // Evaluates control mask
 136:funsape/device/sevenSegmentsMuxDisplay.cpp ****     auxMask = constSevenSegmentMuxDisplayMask[(uint8_t)numberOfDigits_p - 1];
 264               		.loc 2 136 5 is_stmt 1 view .LVU79
 265               		.loc 2 136 13 is_stmt 0 view .LVU80
 266 0050 A050      		subi r26,lo8(-(_ZL31constSevenSegmentMuxDisplayMask-1))
 267 0052 B040      		sbci r27,hi8(-(_ZL31constSevenSegmentMuxDisplayMask-1))
 268 0054 AC91      		ld r26,X
 269               	.LVL11:
 137:funsape/device/sevenSegmentsMuxDisplay.cpp **** 
 138:funsape/device/sevenSegmentsMuxDisplay.cpp ****     // I/O initialization
 139:funsape/device/sevenSegmentsMuxDisplay.cpp ****     *(this->_dataDdr) = 0xFF;
 270               		.loc 2 139 5 is_stmt 1 view .LVU81
 271               		.loc 2 139 13 is_stmt 0 view .LVU82
 272 0056 C081      		ld r28,Z
 273 0058 D181      		ldd r29,Z+1
 274               		.loc 2 139 23 view .LVU83
 275 005a 9FEF      		ldi r25,lo8(-1)
 276 005c 9883      		st Y,r25
 140:funsape/device/sevenSegmentsMuxDisplay.cpp ****     setMaskOffset(*(this->_controlDdr), auxMask, this->_controlFirst);
 277               		.loc 2 140 5 is_stmt 1 view .LVU84
 278 005e C481      		ldd r28,Z+4
 279 0060 D581      		ldd r29,Z+5
 280 0062 9881      		ld r25,Y
 281 0064 6A2F      		mov r22,r26
 282 0066 70E0      		ldi r23,0
 283 0068 5085      		ldd r21,Z+8
 284 006a 5770      		andi r21,lo8(7)
 285 006c 8B01      		movw r16,r22
 286 006e 00C0      		rjmp 2f
 287               		1:
 288 0070 000F      		lsl r16
 289 0072 111F      		rol r17
 290               		2:
 291 0074 5A95      		dec r21
 292 0076 02F4      		brpl 1b
 293 0078 902B      		or r25,r16
 294 007a 9883      		st Y,r25
 141:funsape/device/sevenSegmentsMuxDisplay.cpp ****     *(this->_dataPort) = (displayType_p == SevenSegmentsDisplayType::COMMON_ANODE) ? 0xFF : 0x00;
 295               		.loc 2 141 5 view .LVU85
 296               		.loc 2 141 24 is_stmt 0 view .LVU86
 297 007c 4423      		tst r20
 298 007e 01F0      		breq .L14
 299 0080 90E0      		ldi r25,0
 300               	.L11:
 301               		.loc 2 141 13 discriminator 4 view .LVU87
 302 0082 C281      		ldd r28,Z+2
 303 0084 D381      		ldd r29,Z+3
 304               		.loc 2 141 24 discriminator 4 view .LVU88
 305 0086 9883      		st Y,r25
 142:funsape/device/sevenSegmentsMuxDisplay.cpp ****     if(this->_controlActiveLevel == LogicLevel::HIGH) {
 306               		.loc 2 142 5 is_stmt 1 discriminator 4 view .LVU89
GAS LISTING C:\Users\Aluno\AppData\Local\Temp\ccYjLeON.s 			page 23


 307               		.loc 2 142 34 is_stmt 0 discriminator 4 view .LVU90
 308 0088 938D      		ldd r25,Z+27
 309               		.loc 2 142 5 discriminator 4 view .LVU91
 310 008a 93FF      		sbrs r25,3
 311 008c 00C0      		rjmp .L12
 143:funsape/device/sevenSegmentsMuxDisplay.cpp ****         clrMaskOffset(*(this->_controlPort), auxMask, this->_controlFirst);
 312               		.loc 2 143 9 is_stmt 1 view .LVU92
 313 008e C681      		ldd r28,Z+6
 314 0090 D781      		ldd r29,Z+7
 315 0092 5881      		ld r21,Y
 316 0094 9085      		ldd r25,Z+8
 317 0096 9770      		andi r25,lo8(7)
 318 0098 00C0      		rjmp 2f
 319               		1:
 320 009a 660F      		lsl r22
 321 009c 771F      		rol r23
 322               		2:
 323 009e 9A95      		dec r25
 324 00a0 02F4      		brpl 1b
 325 00a2 6095      		com r22
 326 00a4 6523      		and r22,r21
 327 00a6 6883      		st Y,r22
 328               	.L13:
 144:funsape/device/sevenSegmentsMuxDisplay.cpp ****     } else {
 145:funsape/device/sevenSegmentsMuxDisplay.cpp ****         setMaskOffset(*(this->_controlPort), auxMask, this->_controlFirst);
 146:funsape/device/sevenSegmentsMuxDisplay.cpp ****     }
 147:funsape/device/sevenSegmentsMuxDisplay.cpp **** 
 148:funsape/device/sevenSegmentsMuxDisplay.cpp ****     // Updates data members
 149:funsape/device/sevenSegmentsMuxDisplay.cpp ****     this->_displayType          = displayType_p;
 329               		.loc 2 149 5 view .LVU93
 330               		.loc 2 149 33 is_stmt 0 view .LVU94
 331 00a8 338D      		ldd r19,Z+27
 332 00aa 40FB      		bst r20,0
 333 00ac 30F9      		bld r19,0
 334 00ae 338F      		std Z+27,r19
 150:funsape/device/sevenSegmentsMuxDisplay.cpp ****     this->_digitMax             = (uint8_t)numberOfDigits_p - 1;
 335               		.loc 2 150 5 is_stmt 1 view .LVU95
 336               		.loc 2 150 61 is_stmt 0 view .LVU96
 337 00b0 9FEF      		ldi r25,lo8(-1)
 338 00b2 920F      		add r25,r18
 339               		.loc 2 150 33 view .LVU97
 340 00b4 9770      		andi r25,lo8(7)
 341 00b6 2285      		ldd r18,Z+10
 342 00b8 287F      		andi r18,lo8(-8)
 343 00ba 922B      		or r25,r18
 344 00bc 9287      		std Z+10,r25
 151:funsape/device/sevenSegmentsMuxDisplay.cpp ****     this->_controlMask          = auxMask;
 345               		.loc 2 151 5 is_stmt 1 view .LVU98
 346               		.loc 2 151 33 is_stmt 0 view .LVU99
 347 00be A187      		std Z+9,r26
 152:funsape/device/sevenSegmentsMuxDisplay.cpp ****     this->_isInitialized        = true;
 348               		.loc 2 152 5 is_stmt 1 view .LVU100
 349               		.loc 2 152 33 is_stmt 0 view .LVU101
 350 00c0 3260      		ori r19,lo8(1<<1)
 351 00c2 338F      		std Z+27,r19
 153:funsape/device/sevenSegmentsMuxDisplay.cpp **** 
 154:funsape/device/sevenSegmentsMuxDisplay.cpp ****     // Returns successfully
GAS LISTING C:\Users\Aluno\AppData\Local\Temp\ccYjLeON.s 			page 24


 155:funsape/device/sevenSegmentsMuxDisplay.cpp ****     this->_lastError = Error::NONE;
 352               		.loc 2 155 5 is_stmt 1 view .LVU102
 353               		.loc 2 155 22 is_stmt 0 view .LVU103
 354 00c4 158E      		std Z+29,__zero_reg__
 355 00c6 148E      		std Z+28,__zero_reg__
 156:funsape/device/sevenSegmentsMuxDisplay.cpp ****     debugMessage(Error::NONE, DEBUG_SEVEN_SEGMENTS_MUX_DISPLAY);
 356               		.loc 2 156 5 is_stmt 1 view .LVU104
 357               		.loc 2 156 64 view .LVU105
 157:funsape/device/sevenSegmentsMuxDisplay.cpp ****     return true;
 358               		.loc 2 157 5 view .LVU106
 359               		.loc 2 157 12 is_stmt 0 view .LVU107
 360 00c8 00C0      		rjmp .L6
 361               	.LVL12:
 362               	.L15:
 118:funsape/device/sevenSegmentsMuxDisplay.cpp ****         debugMessage(Error::GPIO_PORT_NOT_SET, DEBUG_SEVEN_SEGMENTS_MUX_DISPLAY);
 363               		.loc 2 118 9 is_stmt 1 view .LVU108
 118:funsape/device/sevenSegmentsMuxDisplay.cpp ****         debugMessage(Error::GPIO_PORT_NOT_SET, DEBUG_SEVEN_SEGMENTS_MUX_DISPLAY);
 364               		.loc 2 118 26 is_stmt 0 view .LVU109
 365 00ca 20ED      		ldi r18,lo8(-48)
 366 00cc 30E0      		ldi r19,0
 367 00ce 358F      		std Z+29,r19
 368 00d0 248F      		std Z+28,r18
 119:funsape/device/sevenSegmentsMuxDisplay.cpp ****         return false;
 369               		.loc 2 119 9 is_stmt 1 view .LVU110
 119:funsape/device/sevenSegmentsMuxDisplay.cpp ****         return false;
 370               		.loc 2 119 81 view .LVU111
 120:funsape/device/sevenSegmentsMuxDisplay.cpp ****     }
 371               		.loc 2 120 9 view .LVU112
 372               	.LVL13:
 373               	.L6:
 374               	/* epilogue start */
 158:funsape/device/sevenSegmentsMuxDisplay.cpp **** }
 375               		.loc 2 158 1 is_stmt 0 view .LVU113
 376 00d2 DF91      		pop r29
 377 00d4 CF91      		pop r28
 378 00d6 1F91      		pop r17
 379 00d8 0F91      		pop r16
 380 00da 0895      		ret
 381               	.LVL14:
 382               	.L16:
 124:funsape/device/sevenSegmentsMuxDisplay.cpp ****         debugMessage(Error::ARGUMENT_VALUE_INVALID, DEBUG_SEVEN_SEGMENTS_MUX_DISPLAY);
 383               		.loc 2 124 9 is_stmt 1 view .LVU114
 124:funsape/device/sevenSegmentsMuxDisplay.cpp ****         debugMessage(Error::ARGUMENT_VALUE_INVALID, DEBUG_SEVEN_SEGMENTS_MUX_DISPLAY);
 384               		.loc 2 124 26 is_stmt 0 view .LVU115
 385 00dc 82E1      		ldi r24,lo8(18)
 386 00de 90E0      		ldi r25,0
 387 00e0 958F      		std Z+29,r25
 388 00e2 848F      		std Z+28,r24
 125:funsape/device/sevenSegmentsMuxDisplay.cpp ****         return false;
 389               		.loc 2 125 9 is_stmt 1 view .LVU116
 125:funsape/device/sevenSegmentsMuxDisplay.cpp ****         return false;
 390               		.loc 2 125 86 view .LVU117
 126:funsape/device/sevenSegmentsMuxDisplay.cpp ****     }
 391               		.loc 2 126 9 view .LVU118
 126:funsape/device/sevenSegmentsMuxDisplay.cpp ****     }
 392               		.loc 2 126 16 is_stmt 0 view .LVU119
 393 00e4 80E0      		ldi r24,0
GAS LISTING C:\Users\Aluno\AppData\Local\Temp\ccYjLeON.s 			page 25


 394 00e6 00C0      		rjmp .L6
 395               	.LVL15:
 396               	.L17:
 130:funsape/device/sevenSegmentsMuxDisplay.cpp ****         debugMessage(Error::GPIO_PIN_INDEX_OUT_OF_BOUNDARIES, DEBUG_SEVEN_SEGMENTS_MUX_DISPLAY);
 397               		.loc 2 130 9 is_stmt 1 view .LVU120
 130:funsape/device/sevenSegmentsMuxDisplay.cpp ****         debugMessage(Error::GPIO_PIN_INDEX_OUT_OF_BOUNDARIES, DEBUG_SEVEN_SEGMENTS_MUX_DISPLAY);
 398               		.loc 2 130 26 is_stmt 0 view .LVU121
 399 00e8 87ED      		ldi r24,lo8(-41)
 400 00ea 90E0      		ldi r25,0
 401 00ec 958F      		std Z+29,r25
 402 00ee 848F      		std Z+28,r24
 131:funsape/device/sevenSegmentsMuxDisplay.cpp ****         return false;
 403               		.loc 2 131 9 is_stmt 1 view .LVU122
 131:funsape/device/sevenSegmentsMuxDisplay.cpp ****         return false;
 404               		.loc 2 131 96 view .LVU123
 132:funsape/device/sevenSegmentsMuxDisplay.cpp ****     }
 405               		.loc 2 132 9 view .LVU124
 132:funsape/device/sevenSegmentsMuxDisplay.cpp ****     }
 406               		.loc 2 132 16 is_stmt 0 view .LVU125
 407 00f0 80E0      		ldi r24,0
 408 00f2 00C0      		rjmp .L6
 409               	.LVL16:
 410               	.L14:
 141:funsape/device/sevenSegmentsMuxDisplay.cpp ****     if(this->_controlActiveLevel == LogicLevel::HIGH) {
 411               		.loc 2 141 24 view .LVU126
 412 00f4 9FEF      		ldi r25,lo8(-1)
 413 00f6 00C0      		rjmp .L11
 414               	.L12:
 145:funsape/device/sevenSegmentsMuxDisplay.cpp ****     }
 415               		.loc 2 145 9 is_stmt 1 view .LVU127
 416 00f8 C681      		ldd r28,Z+6
 417 00fa D781      		ldd r29,Z+7
 418 00fc 9881      		ld r25,Y
 419 00fe 5085      		ldd r21,Z+8
 420 0100 5770      		andi r21,lo8(7)
 421 0102 00C0      		rjmp 2f
 422               		1:
 423 0104 660F      		lsl r22
 424 0106 771F      		rol r23
 425               		2:
 426 0108 5A95      		dec r21
 427 010a 02F4      		brpl 1b
 428               	.LVL17:
 145:funsape/device/sevenSegmentsMuxDisplay.cpp ****     }
 429               		.loc 2 145 9 is_stmt 0 view .LVU128
 430 010c 962B      		or r25,r22
 431 010e 9883      		st Y,r25
 432 0110 00C0      		rjmp .L13
 433               		.cfi_endproc
 434               	.LFE39:
 436               		.section	.text._ZN23SevenSegmentsMuxDisplay8setPortsEPVhS1_h10LogicLevel,"ax",@progbits
 437               	.global	_ZN23SevenSegmentsMuxDisplay8setPortsEPVhS1_h10LogicLevel
 439               	_ZN23SevenSegmentsMuxDisplay8setPortsEPVhS1_h10LogicLevel:
 440               	.LVL18:
 441               	.LFB40:
 159:funsape/device/sevenSegmentsMuxDisplay.cpp **** 
 160:funsape/device/sevenSegmentsMuxDisplay.cpp **** bool_t SevenSegmentsMuxDisplay::setPorts(ioRegAddress_t dataRegAddress_p, ioRegAddress_t controlReg
GAS LISTING C:\Users\Aluno\AppData\Local\Temp\ccYjLeON.s 			page 26


 161:funsape/device/sevenSegmentsMuxDisplay.cpp ****         ioPinIndex_t controlFirstPin_p, LogicLevel displayOnLevel_p)
 162:funsape/device/sevenSegmentsMuxDisplay.cpp **** {
 442               		.loc 2 162 1 is_stmt 1 view -0
 443               		.cfi_startproc
 444               		.loc 2 162 1 is_stmt 0 view .LVU130
 445 0000 0F93      		push r16
 446               		.cfi_def_cfa_offset 3
 447               		.cfi_offset 16, -2
 448 0002 CF93      		push r28
 449               		.cfi_def_cfa_offset 4
 450               		.cfi_offset 28, -3
 451 0004 DF93      		push r29
 452               		.cfi_def_cfa_offset 5
 453               		.cfi_offset 29, -4
 454               	/* prologue: function */
 455               	/* frame size = 0 */
 456               	/* stack size = 3 */
 457               	.L__stack_usage = 3
 458 0006 E82F      		mov r30,r24
 459 0008 F92F      		mov r31,r25
 460 000a 862F      		mov r24,r22
 461               	.LVL19:
 462               		.loc 2 162 1 view .LVU131
 463 000c 972F      		mov r25,r23
 464 000e C42F      		mov r28,r20
 465 0010 D52F      		mov r29,r21
 466 0012 422F      		mov r20,r18
 467               	.LVL20:
 163:funsape/device/sevenSegmentsMuxDisplay.cpp ****     // Mark passage for debugging purpose
 164:funsape/device/sevenSegmentsMuxDisplay.cpp ****     debugMark("SevenSegmentsMuxDisplay::setPorts(ioRegAddress_t, ioRegAddress_t, ioPinIndex_t, Logi
 468               		.loc 2 164 5 is_stmt 1 view .LVU132
 165:funsape/device/sevenSegmentsMuxDisplay.cpp ****             DEBUG_SEVEN_SEGMENTS_MUX_DISPLAY);
 469               		.loc 2 165 46 view .LVU133
 166:funsape/device/sevenSegmentsMuxDisplay.cpp **** 
 167:funsape/device/sevenSegmentsMuxDisplay.cpp ****     // Resets data members
 168:funsape/device/sevenSegmentsMuxDisplay.cpp ****     this->_dataDdr          = nullptr;
 470               		.loc 2 168 5 view .LVU134
 471               		.loc 2 168 29 is_stmt 0 view .LVU135
 472 0014 1182      		std Z+1,__zero_reg__
 473 0016 1082      		st Z,__zero_reg__
 169:funsape/device/sevenSegmentsMuxDisplay.cpp ****     this->_dataPort         = nullptr;
 474               		.loc 2 169 5 is_stmt 1 view .LVU136
 475               		.loc 2 169 29 is_stmt 0 view .LVU137
 476 0018 1382      		std Z+3,__zero_reg__
 477 001a 1282      		std Z+2,__zero_reg__
 170:funsape/device/sevenSegmentsMuxDisplay.cpp ****     this->_controlDdr       = nullptr;
 478               		.loc 2 170 5 is_stmt 1 view .LVU138
 479               		.loc 2 170 29 is_stmt 0 view .LVU139
 480 001c 1582      		std Z+5,__zero_reg__
 481 001e 1482      		std Z+4,__zero_reg__
 171:funsape/device/sevenSegmentsMuxDisplay.cpp ****     this->_controlPort      = nullptr;
 482               		.loc 2 171 5 is_stmt 1 view .LVU140
 483               		.loc 2 171 29 is_stmt 0 view .LVU141
 484 0020 1782      		std Z+7,__zero_reg__
 485 0022 1682      		std Z+6,__zero_reg__
 172:funsape/device/sevenSegmentsMuxDisplay.cpp ****     this->_controlFirst     = 0;
 486               		.loc 2 172 5 is_stmt 1 view .LVU142
GAS LISTING C:\Users\Aluno\AppData\Local\Temp\ccYjLeON.s 			page 27


 487               		.loc 2 172 29 is_stmt 0 view .LVU143
 488 0024 2085      		ldd r18,Z+8
 489               	.LVL21:
 490               		.loc 2 172 29 view .LVU144
 491 0026 287F      		andi r18,lo8(-8)
 492 0028 2087      		std Z+8,r18
 173:funsape/device/sevenSegmentsMuxDisplay.cpp ****     this->_isPortsSet       = false;
 493               		.loc 2 173 5 is_stmt 1 view .LVU145
 494               		.loc 2 173 29 is_stmt 0 view .LVU146
 495 002a 238D      		ldd r18,Z+27
 496 002c 2B7F      		andi r18,lo8(~(1<<2))
 497 002e 238F      		std Z+27,r18
 174:funsape/device/sevenSegmentsMuxDisplay.cpp ****     this->_digitIndex       = 0;
 498               		.loc 2 174 5 is_stmt 1 view .LVU147
 499               		.loc 2 174 29 is_stmt 0 view .LVU148
 500 0030 2285      		ldd r18,Z+10
 501 0032 277C      		andi r18,lo8(-57)
 502 0034 2287      		std Z+10,r18
 175:funsape/device/sevenSegmentsMuxDisplay.cpp **** 
 176:funsape/device/sevenSegmentsMuxDisplay.cpp ****     // Check for errors
 177:funsape/device/sevenSegmentsMuxDisplay.cpp ****     if(!isGpioAddressValid(dataRegAddress_p)) {
 503               		.loc 2 177 5 is_stmt 1 view .LVU149
 504               		.loc 2 177 9 is_stmt 0 view .LVU150
 505 0036 9C01      		movw r18,r24
 506 0038 2352      		subi r18,35
 507 003a 3109      		sbc r19,__zero_reg__
 508               		.loc 2 177 5 view .LVU151
 509 003c 2930      		cpi r18,9
 510 003e 3105      		cpc r19,__zero_reg__
 511 0040 00F0      		brlo .+2
 512 0042 00C0      		rjmp .L23
 178:funsape/device/sevenSegmentsMuxDisplay.cpp ****         // Returns error
 179:funsape/device/sevenSegmentsMuxDisplay.cpp ****         debugMessage(Error::GPIO_DATA_PORT_INVALID, DEBUG_SEVEN_SEGMENTS_MUX_DISPLAY);
 180:funsape/device/sevenSegmentsMuxDisplay.cpp ****         this->_lastError = Error::GPIO_DATA_PORT_INVALID;
 181:funsape/device/sevenSegmentsMuxDisplay.cpp ****         return false;
 182:funsape/device/sevenSegmentsMuxDisplay.cpp ****     }
 183:funsape/device/sevenSegmentsMuxDisplay.cpp ****     if(!isGpioAddressValid(controlRegAddress_p)) {
 513               		.loc 2 183 5 is_stmt 1 view .LVU152
 514               		.loc 2 183 9 is_stmt 0 view .LVU153
 515 0044 9E01      		movw r18,r28
 516 0046 2352      		subi r18,35
 517 0048 3109      		sbc r19,__zero_reg__
 518               		.loc 2 183 5 view .LVU154
 519 004a 2930      		cpi r18,9
 520 004c 3105      		cpc r19,__zero_reg__
 521 004e 00F0      		brlo .+2
 522 0050 00C0      		rjmp .L24
 184:funsape/device/sevenSegmentsMuxDisplay.cpp ****         // Returns error
 185:funsape/device/sevenSegmentsMuxDisplay.cpp ****         debugMessage(Error::GPIO_CONTROL_PORT_INVALID, DEBUG_SEVEN_SEGMENTS_MUX_DISPLAY);
 186:funsape/device/sevenSegmentsMuxDisplay.cpp ****         this->_lastError = Error::GPIO_CONTROL_PORT_INVALID;
 187:funsape/device/sevenSegmentsMuxDisplay.cpp ****         return false;
 188:funsape/device/sevenSegmentsMuxDisplay.cpp ****     }
 189:funsape/device/sevenSegmentsMuxDisplay.cpp ****     if(!isGpioPinIndexValid(controlFirstPin_p)) {
 523               		.loc 2 189 5 is_stmt 1 view .LVU155
 524 0052 4830      		cpi r20,lo8(8)
 525 0054 00F0      		brlo .+2
 526 0056 00C0      		rjmp .L25
GAS LISTING C:\Users\Aluno\AppData\Local\Temp\ccYjLeON.s 			page 28


 190:funsape/device/sevenSegmentsMuxDisplay.cpp ****         // Returns error
 191:funsape/device/sevenSegmentsMuxDisplay.cpp ****         debugMessage(Error::GPIO_PIN_INDEX_INVALID, DEBUG_SEVEN_SEGMENTS_MUX_DISPLAY);
 192:funsape/device/sevenSegmentsMuxDisplay.cpp ****         this->_lastError = Error::GPIO_PIN_INDEX_INVALID;
 193:funsape/device/sevenSegmentsMuxDisplay.cpp ****         return false;
 194:funsape/device/sevenSegmentsMuxDisplay.cpp ****     }
 195:funsape/device/sevenSegmentsMuxDisplay.cpp **** 
 196:funsape/device/sevenSegmentsMuxDisplay.cpp ****     // Updates data members
 197:funsape/device/sevenSegmentsMuxDisplay.cpp ****     this->_dataDdr              = getGpioDdrAddress(dataRegAddress_p);
 527               		.loc 2 197 5 view .LVU156
 528               		.loc 2 197 35 is_stmt 0 view .LVU157
 529 0058 9C01      		movw r18,r24
 530 005a 2052      		subi r18,32
 531 005c 3109      		sbc r19,__zero_reg__
 532 005e ABEA      		ldi r26,lo8(-85)
 533 0060 BAEA      		ldi r27,lo8(-86)
 534 0062 0E94 0000 		call __umulhisi3
 535               	.LVL22:
 536               		.loc 2 197 35 view .LVU158
 537 0066 9C01      		movw r18,r24
 538 0068 3695      		lsr r19
 539 006a 2795      		ror r18
 540 006c 8E7F      		andi r24,254
 541 006e 820F      		add r24,r18
 542 0070 931F      		adc r25,r19
 543 0072 9C01      		movw r18,r24
 544 0074 2F5D      		subi r18,-33
 545 0076 3F4F      		sbci r19,-1
 546               		.loc 2 197 33 view .LVU159
 547 0078 3183      		std Z+1,r19
 548 007a 2083      		st Z,r18
 198:funsape/device/sevenSegmentsMuxDisplay.cpp ****     this->_dataPort             = getGpioPortAddress(dataRegAddress_p);
 549               		.loc 2 198 5 is_stmt 1 view .LVU160
 550               		.loc 2 198 35 is_stmt 0 view .LVU161
 551 007c 8296      		adiw r24,34
 552               		.loc 2 198 33 view .LVU162
 553 007e 9383      		std Z+3,r25
 554 0080 8283      		std Z+2,r24
 199:funsape/device/sevenSegmentsMuxDisplay.cpp ****     this->_controlDdr           = getGpioDdrAddress(controlRegAddress_p);
 555               		.loc 2 199 5 is_stmt 1 view .LVU163
 556               		.loc 2 199 35 is_stmt 0 view .LVU164
 557 0082 9E01      		movw r18,r28
 558 0084 2052      		subi r18,32
 559 0086 3109      		sbc r19,__zero_reg__
 560 0088 0E94 0000 		call __umulhisi3
 561 008c 9C01      		movw r18,r24
 562 008e 3695      		lsr r19
 563 0090 2795      		ror r18
 564 0092 8E7F      		andi r24,254
 565 0094 820F      		add r24,r18
 566 0096 931F      		adc r25,r19
 567 0098 9C01      		movw r18,r24
 568 009a 2F5D      		subi r18,-33
 569 009c 3F4F      		sbci r19,-1
 570               		.loc 2 199 33 view .LVU165
 571 009e 3583      		std Z+5,r19
 572 00a0 2483      		std Z+4,r18
 200:funsape/device/sevenSegmentsMuxDisplay.cpp ****     this->_controlPort          = getGpioPortAddress(controlRegAddress_p);
GAS LISTING C:\Users\Aluno\AppData\Local\Temp\ccYjLeON.s 			page 29


 573               		.loc 2 200 5 is_stmt 1 view .LVU166
 574               		.loc 2 200 35 is_stmt 0 view .LVU167
 575 00a2 8296      		adiw r24,34
 576               		.loc 2 200 33 view .LVU168
 577 00a4 9783      		std Z+7,r25
 578 00a6 8683      		std Z+6,r24
 201:funsape/device/sevenSegmentsMuxDisplay.cpp ****     this->_controlFirst         = controlFirstPin_p;
 579               		.loc 2 201 5 is_stmt 1 view .LVU169
 580               		.loc 2 201 35 is_stmt 0 view .LVU170
 581 00a8 4770      		andi r20,lo8(7)
 582               	.LVL23:
 583               		.loc 2 201 33 view .LVU171
 584 00aa 8085      		ldd r24,Z+8
 585 00ac 887F      		andi r24,lo8(-8)
 586 00ae 842B      		or r24,r20
 587 00b0 8087      		std Z+8,r24
 202:funsape/device/sevenSegmentsMuxDisplay.cpp ****     this->_controlActiveLevel   = displayOnLevel_p;
 588               		.loc 2 202 5 is_stmt 1 view .LVU172
 589               		.loc 2 202 33 is_stmt 0 view .LVU173
 590 00b2 838D      		ldd r24,Z+27
 591 00b4 00FB      		bst r16,0
 592 00b6 83F9      		bld r24,3
 593 00b8 838F      		std Z+27,r24
 203:funsape/device/sevenSegmentsMuxDisplay.cpp ****     this->_isPortsSet           = true;
 594               		.loc 2 203 5 is_stmt 1 view .LVU174
 595               		.loc 2 203 33 is_stmt 0 view .LVU175
 596 00ba 8460      		ori r24,lo8(1<<2)
 597 00bc 838F      		std Z+27,r24
 204:funsape/device/sevenSegmentsMuxDisplay.cpp **** 
 205:funsape/device/sevenSegmentsMuxDisplay.cpp ****     // Returns successfully
 206:funsape/device/sevenSegmentsMuxDisplay.cpp ****     this->_lastError = Error::NONE;
 598               		.loc 2 206 5 is_stmt 1 view .LVU176
 599               		.loc 2 206 22 is_stmt 0 view .LVU177
 600 00be 158E      		std Z+29,__zero_reg__
 601 00c0 148E      		std Z+28,__zero_reg__
 207:funsape/device/sevenSegmentsMuxDisplay.cpp ****     debugMessage(Error::NONE, DEBUG_SEVEN_SEGMENTS_MUX_DISPLAY);
 602               		.loc 2 207 5 is_stmt 1 view .LVU178
 603               		.loc 2 207 64 view .LVU179
 208:funsape/device/sevenSegmentsMuxDisplay.cpp ****     return true;
 604               		.loc 2 208 5 view .LVU180
 605               		.loc 2 208 12 is_stmt 0 view .LVU181
 606 00c2 81E0      		ldi r24,lo8(1)
 607 00c4 00C0      		rjmp .L18
 608               	.LVL24:
 609               	.L23:
 179:funsape/device/sevenSegmentsMuxDisplay.cpp ****         this->_lastError = Error::GPIO_DATA_PORT_INVALID;
 610               		.loc 2 179 9 is_stmt 1 view .LVU182
 179:funsape/device/sevenSegmentsMuxDisplay.cpp ****         this->_lastError = Error::GPIO_DATA_PORT_INVALID;
 611               		.loc 2 179 86 view .LVU183
 180:funsape/device/sevenSegmentsMuxDisplay.cpp ****         return false;
 612               		.loc 2 180 9 view .LVU184
 180:funsape/device/sevenSegmentsMuxDisplay.cpp ****         return false;
 613               		.loc 2 180 26 is_stmt 0 view .LVU185
 614 00c6 84ED      		ldi r24,lo8(-44)
 615 00c8 90E0      		ldi r25,0
 616 00ca 958F      		std Z+29,r25
 617 00cc 848F      		std Z+28,r24
GAS LISTING C:\Users\Aluno\AppData\Local\Temp\ccYjLeON.s 			page 30


 181:funsape/device/sevenSegmentsMuxDisplay.cpp ****     }
 618               		.loc 2 181 9 is_stmt 1 view .LVU186
 181:funsape/device/sevenSegmentsMuxDisplay.cpp ****     }
 619               		.loc 2 181 16 is_stmt 0 view .LVU187
 620 00ce 80E0      		ldi r24,0
 621               	.LVL25:
 622               	.L18:
 623               	/* epilogue start */
 209:funsape/device/sevenSegmentsMuxDisplay.cpp **** }
 624               		.loc 2 209 1 view .LVU188
 625 00d0 DF91      		pop r29
 626 00d2 CF91      		pop r28
 627 00d4 0F91      		pop r16
 628               	.LVL26:
 629               		.loc 2 209 1 view .LVU189
 630 00d6 0895      		ret
 631               	.LVL27:
 632               	.L24:
 185:funsape/device/sevenSegmentsMuxDisplay.cpp ****         this->_lastError = Error::GPIO_CONTROL_PORT_INVALID;
 633               		.loc 2 185 9 is_stmt 1 view .LVU190
 185:funsape/device/sevenSegmentsMuxDisplay.cpp ****         this->_lastError = Error::GPIO_CONTROL_PORT_INVALID;
 634               		.loc 2 185 89 view .LVU191
 186:funsape/device/sevenSegmentsMuxDisplay.cpp ****         return false;
 635               		.loc 2 186 9 view .LVU192
 186:funsape/device/sevenSegmentsMuxDisplay.cpp ****         return false;
 636               		.loc 2 186 26 is_stmt 0 view .LVU193
 637 00d8 85ED      		ldi r24,lo8(-43)
 638 00da 90E0      		ldi r25,0
 639 00dc 958F      		std Z+29,r25
 640 00de 848F      		std Z+28,r24
 187:funsape/device/sevenSegmentsMuxDisplay.cpp ****     }
 641               		.loc 2 187 9 is_stmt 1 view .LVU194
 187:funsape/device/sevenSegmentsMuxDisplay.cpp ****     }
 642               		.loc 2 187 16 is_stmt 0 view .LVU195
 643 00e0 80E0      		ldi r24,0
 644 00e2 00C0      		rjmp .L18
 645               	.L25:
 191:funsape/device/sevenSegmentsMuxDisplay.cpp ****         this->_lastError = Error::GPIO_PIN_INDEX_INVALID;
 646               		.loc 2 191 9 is_stmt 1 view .LVU196
 191:funsape/device/sevenSegmentsMuxDisplay.cpp ****         this->_lastError = Error::GPIO_PIN_INDEX_INVALID;
 647               		.loc 2 191 86 view .LVU197
 192:funsape/device/sevenSegmentsMuxDisplay.cpp ****         return false;
 648               		.loc 2 192 9 view .LVU198
 192:funsape/device/sevenSegmentsMuxDisplay.cpp ****         return false;
 649               		.loc 2 192 26 is_stmt 0 view .LVU199
 650 00e4 86ED      		ldi r24,lo8(-42)
 651 00e6 90E0      		ldi r25,0
 652 00e8 958F      		std Z+29,r25
 653 00ea 848F      		std Z+28,r24
 193:funsape/device/sevenSegmentsMuxDisplay.cpp ****     }
 654               		.loc 2 193 9 is_stmt 1 view .LVU200
 193:funsape/device/sevenSegmentsMuxDisplay.cpp ****     }
 655               		.loc 2 193 16 is_stmt 0 view .LVU201
 656 00ec 80E0      		ldi r24,0
 657 00ee 00C0      		rjmp .L18
 658               		.cfi_endproc
 659               	.LFE40:
GAS LISTING C:\Users\Aluno\AppData\Local\Temp\ccYjLeON.s 			page 31


 661               		.section	.text._ZN23SevenSegmentsMuxDisplay13showNextDigitEv,"ax",@progbits
 662               	.global	_ZN23SevenSegmentsMuxDisplay13showNextDigitEv
 664               	_ZN23SevenSegmentsMuxDisplay13showNextDigitEv:
 665               	.LVL28:
 666               	.LFB41:
 210:funsape/device/sevenSegmentsMuxDisplay.cpp **** 
 211:funsape/device/sevenSegmentsMuxDisplay.cpp **** bool_t SevenSegmentsMuxDisplay::showNextDigit(void)
 212:funsape/device/sevenSegmentsMuxDisplay.cpp **** {
 667               		.loc 2 212 1 is_stmt 1 view -0
 668               		.cfi_startproc
 669               		.loc 2 212 1 is_stmt 0 view .LVU203
 670 0000 EF92      		push r14
 671               		.cfi_def_cfa_offset 3
 672               		.cfi_offset 14, -2
 673 0002 FF92      		push r15
 674               		.cfi_def_cfa_offset 4
 675               		.cfi_offset 15, -3
 676 0004 1F93      		push r17
 677               		.cfi_def_cfa_offset 5
 678               		.cfi_offset 17, -4
 679 0006 CF93      		push r28
 680               		.cfi_def_cfa_offset 6
 681               		.cfi_offset 28, -5
 682 0008 DF93      		push r29
 683               		.cfi_def_cfa_offset 7
 684               		.cfi_offset 29, -6
 685               	/* prologue: function */
 686               	/* frame size = 0 */
 687               	/* stack size = 5 */
 688               	.L__stack_usage = 5
 689 000a C82F      		mov r28,r24
 690 000c D92F      		mov r29,r25
 213:funsape/device/sevenSegmentsMuxDisplay.cpp ****     // Mark passage for debugging purpose
 214:funsape/device/sevenSegmentsMuxDisplay.cpp ****     debugMark("SevenSegmentsMuxDisplay::showNextDigit(void)", DEBUG_SEVEN_SEGMENTS_MUX_DISPLAY);
 691               		.loc 2 214 5 is_stmt 1 view .LVU204
 692               		.loc 2 214 96 view .LVU205
 215:funsape/device/sevenSegmentsMuxDisplay.cpp **** 
 216:funsape/device/sevenSegmentsMuxDisplay.cpp ****     // Checks for errors
 217:funsape/device/sevenSegmentsMuxDisplay.cpp ****     if(!this->_isInitialized) {
 693               		.loc 2 217 5 view .LVU206
 694               		.loc 2 217 15 is_stmt 0 view .LVU207
 695 000e 1B8D      		ldd r17,Y+27
 696 0010 1695      		lsr r17
 697 0012 1170      		andi r17,1
 698               		.loc 2 217 5 view .LVU208
 699 0014 1123      		tst r17
 700 0016 01F4      		brne .+2
 701 0018 00C0      		rjmp .L37
 218:funsape/device/sevenSegmentsMuxDisplay.cpp ****         // Returns error
 219:funsape/device/sevenSegmentsMuxDisplay.cpp ****         this->_lastError = Error::NOT_INITIALIZED;
 220:funsape/device/sevenSegmentsMuxDisplay.cpp ****         debugMessage(Error::NOT_INITIALIZED, DEBUG_SEVEN_SEGMENTS_MUX_DISPLAY);
 221:funsape/device/sevenSegmentsMuxDisplay.cpp ****         return false;
 222:funsape/device/sevenSegmentsMuxDisplay.cpp ****     }
 223:funsape/device/sevenSegmentsMuxDisplay.cpp **** 
 224:funsape/device/sevenSegmentsMuxDisplay.cpp ****     // Turns current digit OFF
 225:funsape/device/sevenSegmentsMuxDisplay.cpp ****     *(this->_dataPort) = (this->_displayType == SevenSegmentsDisplayType::COMMON_ANODE) ? 0xFF : 0x
 702               		.loc 2 225 5 is_stmt 1 view .LVU209
GAS LISTING C:\Users\Aluno\AppData\Local\Temp\ccYjLeON.s 			page 32


 703               		.loc 2 225 46 is_stmt 0 view .LVU210
 704 001a 8B8D      		ldd r24,Y+27
 705               	.LVL29:
 706               		.loc 2 225 24 view .LVU211
 707 001c 80FD      		sbrc r24,0
 708 001e 00C0      		rjmp .L35
 709 0020 8FEF      		ldi r24,lo8(-1)
 710               	.L29:
 711               		.loc 2 225 13 discriminator 4 view .LVU212
 712 0022 EA81      		ldd r30,Y+2
 713 0024 FB81      		ldd r31,Y+3
 714               		.loc 2 225 24 discriminator 4 view .LVU213
 715 0026 8083      		st Z,r24
 226:funsape/device/sevenSegmentsMuxDisplay.cpp ****     if(this->_controlActiveLevel == LogicLevel::HIGH) {
 716               		.loc 2 226 5 is_stmt 1 discriminator 4 view .LVU214
 717               		.loc 2 226 34 is_stmt 0 discriminator 4 view .LVU215
 718 0028 8B8D      		ldd r24,Y+27
 719               		.loc 2 226 5 discriminator 4 view .LVU216
 720 002a 83FF      		sbrs r24,3
 721 002c 00C0      		rjmp .L30
 227:funsape/device/sevenSegmentsMuxDisplay.cpp ****         clrMaskOffset(*(this->_controlPort), this->_controlMask, this->_controlFirst);
 722               		.loc 2 227 9 is_stmt 1 view .LVU217
 723 002e EE81      		ldd r30,Y+6
 724 0030 FF81      		ldd r31,Y+7
 725 0032 3081      		ld r19,Z
 726 0034 8985      		ldd r24,Y+9
 727 0036 90E0      		ldi r25,0
 728 0038 2885      		ldd r18,Y+8
 729 003a 2770      		andi r18,lo8(7)
 730 003c 00C0      		rjmp 2f
 731               		1:
 732 003e 880F      		lsl r24
 733 0040 991F      		rol r25
 734               		2:
 735 0042 2A95      		dec r18
 736 0044 02F4      		brpl 1b
 737 0046 8095      		com r24
 738 0048 8323      		and r24,r19
 739 004a 8083      		st Z,r24
 740               	.L31:
 228:funsape/device/sevenSegmentsMuxDisplay.cpp ****     } else {
 229:funsape/device/sevenSegmentsMuxDisplay.cpp ****         setMaskOffset(*(this->_controlPort), this->_controlMask, this->_controlFirst);
 230:funsape/device/sevenSegmentsMuxDisplay.cpp ****     }
 231:funsape/device/sevenSegmentsMuxDisplay.cpp **** 
 232:funsape/device/sevenSegmentsMuxDisplay.cpp ****     // Evaluates next digit
 233:funsape/device/sevenSegmentsMuxDisplay.cpp ****     this->_digitIndex = (this->_digitIndex == this->_digitMax) ? 0 : (this->_digitIndex + 1);
 741               		.loc 2 233 5 view .LVU218
 742               		.loc 2 233 32 is_stmt 0 view .LVU219
 743 004c 8A85      		ldd r24,Y+10
 744 004e E82F      		mov r30,r24
 745 0050 E695      		lsr r30
 746 0052 E695      		lsr r30
 747 0054 E695      		lsr r30
 748 0056 E770      		andi r30,lo8(7)
 749               		.loc 2 233 53 view .LVU220
 750 0058 8770      		andi r24,lo8(7)
 751               		.loc 2 233 23 view .LVU221
GAS LISTING C:\Users\Aluno\AppData\Local\Temp\ccYjLeON.s 			page 33


 752 005a E817      		cp r30,r24
 753 005c 01F4      		brne .+2
 754 005e 00C0      		rjmp .L36
 755               		.loc 2 233 89 discriminator 1 view .LVU222
 756 0060 EF5F      		subi r30,lo8(-(1))
 757               		.loc 2 233 23 discriminator 1 view .LVU223
 758 0062 E770      		andi r30,lo8(7)
 759               	.L32:
 760               		.loc 2 233 23 discriminator 4 view .LVU224
 761 0064 8E2F      		mov r24,r30
 762 0066 880F      		lsl r24
 763 0068 880F      		lsl r24
 764 006a 880F      		lsl r24
 765 006c 9A85      		ldd r25,Y+10
 766 006e 977C      		andi r25,lo8(-57)
 767 0070 892B      		or r24,r25
 768 0072 8A87      		std Y+10,r24
 234:funsape/device/sevenSegmentsMuxDisplay.cpp **** 
 235:funsape/device/sevenSegmentsMuxDisplay.cpp ****     // Send data to port
 236:funsape/device/sevenSegmentsMuxDisplay.cpp ****     *(this->_dataPort) = convertToSevenSegments(this->_digitValue[this->_digitIndex], this->_digitP
 769               		.loc 2 236 5 is_stmt 1 discriminator 4 view .LVU225
 770               		.loc 2 236 13 is_stmt 0 discriminator 4 view .LVU226
 771 0074 EA80      		ldd r14,Y+2
 772 0076 FB80      		ldd r15,Y+3
 773               		.loc 2 236 48 discriminator 4 view .LVU227
 774 0078 4B8D      		ldd r20,Y+27
 775 007a 4170      		andi r20,1
 776 007c EC0F      		add r30,r28
 777 007e FD2F      		mov r31,r29
 778 0080 F11D      		adc r31,__zero_reg__
 779 0082 6389      		ldd r22,Z+19
 780 0084 8385      		ldd r24,Z+11
 781 0086 0E94 0000 		call _Z22convertToSevenSegmentshb24SevenSegmentsDisplayType
 782               	.LVL30:
 783               		.loc 2 236 24 discriminator 4 view .LVU228
 784 008a F701      		movw r30,r14
 785 008c 8083      		st Z,r24
 237:funsape/device/sevenSegmentsMuxDisplay.cpp ****                     this->_displayType);
 238:funsape/device/sevenSegmentsMuxDisplay.cpp ****     if(this->_controlActiveLevel == LogicLevel::HIGH) {
 786               		.loc 2 238 5 is_stmt 1 discriminator 4 view .LVU229
 787               		.loc 2 238 34 is_stmt 0 discriminator 4 view .LVU230
 788 008e 8B8D      		ldd r24,Y+27
 789               		.loc 2 238 5 discriminator 4 view .LVU231
 790 0090 83FF      		sbrs r24,3
 791 0092 00C0      		rjmp .L33
 239:funsape/device/sevenSegmentsMuxDisplay.cpp ****         setBit(*(this->_controlPort), (this->_controlFirst + this->_digitIndex));
 792               		.loc 2 239 9 is_stmt 1 view .LVU232
 793 0094 EE81      		ldd r30,Y+6
 794 0096 FF81      		ldd r31,Y+7
 795 0098 2081      		ld r18,Z
 796 009a 8885      		ldd r24,Y+8
 797 009c 8770      		andi r24,lo8(7)
 798 009e 9A85      		ldd r25,Y+10
 799 00a0 9695      		lsr r25
 800 00a2 9695      		lsr r25
 801 00a4 9695      		lsr r25
 802 00a6 9770      		andi r25,lo8(7)
GAS LISTING C:\Users\Aluno\AppData\Local\Temp\ccYjLeON.s 			page 34


 803 00a8 890F      		add r24,r25
 804 00aa 9927      		clr r25
 805 00ac 991F      		rol r25
 806 00ae 41E0      		ldi r20,lo8(1)
 807 00b0 50E0      		ldi r21,0
 808 00b2 BA01      		movw r22,r20
 809 00b4 00C0      		rjmp 2f
 810               		1:
 811 00b6 660F      		lsl r22
 812 00b8 771F      		rol r23
 813               		2:
 814 00ba 8A95      		dec r24
 815 00bc 02F4      		brpl 1b
 816 00be CB01      		movw r24,r22
 817 00c0 822B      		or r24,r18
 818 00c2 8083      		st Z,r24
 819               	.L34:
 240:funsape/device/sevenSegmentsMuxDisplay.cpp ****     } else {
 241:funsape/device/sevenSegmentsMuxDisplay.cpp ****         clrBit(*(this->_controlPort), (this->_controlFirst + this->_digitIndex));
 242:funsape/device/sevenSegmentsMuxDisplay.cpp ****     }
 243:funsape/device/sevenSegmentsMuxDisplay.cpp **** 
 244:funsape/device/sevenSegmentsMuxDisplay.cpp ****     // Returns successfully
 245:funsape/device/sevenSegmentsMuxDisplay.cpp ****     this->_lastError = Error::NONE;
 820               		.loc 2 245 5 view .LVU233
 821               		.loc 2 245 22 is_stmt 0 view .LVU234
 822 00c4 1D8E      		std Y+29,__zero_reg__
 823 00c6 1C8E      		std Y+28,__zero_reg__
 246:funsape/device/sevenSegmentsMuxDisplay.cpp ****     debugMessage(Error::NONE, DEBUG_SEVEN_SEGMENTS_MUX_DISPLAY);
 824               		.loc 2 246 5 is_stmt 1 view .LVU235
 825               		.loc 2 246 64 view .LVU236
 247:funsape/device/sevenSegmentsMuxDisplay.cpp ****     return true;
 826               		.loc 2 247 5 view .LVU237
 827               	.L26:
 248:funsape/device/sevenSegmentsMuxDisplay.cpp **** }
 828               		.loc 2 248 1 is_stmt 0 view .LVU238
 829 00c8 812F      		mov r24,r17
 830               	/* epilogue start */
 831 00ca DF91      		pop r29
 832 00cc CF91      		pop r28
 833 00ce 1F91      		pop r17
 834 00d0 FF90      		pop r15
 835 00d2 EF90      		pop r14
 836 00d4 0895      		ret
 837               	.LVL31:
 838               	.L37:
 219:funsape/device/sevenSegmentsMuxDisplay.cpp ****         debugMessage(Error::NOT_INITIALIZED, DEBUG_SEVEN_SEGMENTS_MUX_DISPLAY);
 839               		.loc 2 219 9 is_stmt 1 view .LVU239
 219:funsape/device/sevenSegmentsMuxDisplay.cpp ****         debugMessage(Error::NOT_INITIALIZED, DEBUG_SEVEN_SEGMENTS_MUX_DISPLAY);
 840               		.loc 2 219 26 is_stmt 0 view .LVU240
 841 00d6 84E0      		ldi r24,lo8(4)
 842 00d8 90E0      		ldi r25,0
 843               	.LVL32:
 219:funsape/device/sevenSegmentsMuxDisplay.cpp ****         debugMessage(Error::NOT_INITIALIZED, DEBUG_SEVEN_SEGMENTS_MUX_DISPLAY);
 844               		.loc 2 219 26 view .LVU241
 845 00da 9D8F      		std Y+29,r25
 846 00dc 8C8F      		std Y+28,r24
 220:funsape/device/sevenSegmentsMuxDisplay.cpp ****         return false;
GAS LISTING C:\Users\Aluno\AppData\Local\Temp\ccYjLeON.s 			page 35


 847               		.loc 2 220 9 is_stmt 1 view .LVU242
 220:funsape/device/sevenSegmentsMuxDisplay.cpp ****         return false;
 848               		.loc 2 220 79 view .LVU243
 221:funsape/device/sevenSegmentsMuxDisplay.cpp ****     }
 849               		.loc 2 221 9 view .LVU244
 221:funsape/device/sevenSegmentsMuxDisplay.cpp ****     }
 850               		.loc 2 221 16 is_stmt 0 view .LVU245
 851 00de 00C0      		rjmp .L26
 852               	.L35:
 225:funsape/device/sevenSegmentsMuxDisplay.cpp ****     if(this->_controlActiveLevel == LogicLevel::HIGH) {
 853               		.loc 2 225 24 view .LVU246
 854 00e0 80E0      		ldi r24,0
 855 00e2 00C0      		rjmp .L29
 856               	.L30:
 229:funsape/device/sevenSegmentsMuxDisplay.cpp ****     }
 857               		.loc 2 229 9 is_stmt 1 view .LVU247
 858 00e4 EE81      		ldd r30,Y+6
 859 00e6 FF81      		ldd r31,Y+7
 860 00e8 2081      		ld r18,Z
 861 00ea 8985      		ldd r24,Y+9
 862 00ec 90E0      		ldi r25,0
 863 00ee 3885      		ldd r19,Y+8
 864 00f0 3770      		andi r19,lo8(7)
 865 00f2 00C0      		rjmp 2f
 866               		1:
 867 00f4 880F      		lsl r24
 868 00f6 991F      		rol r25
 869               		2:
 870 00f8 3A95      		dec r19
 871 00fa 02F4      		brpl 1b
 872 00fc 822B      		or r24,r18
 873 00fe 8083      		st Z,r24
 874 0100 00C0      		rjmp .L31
 875               	.L36:
 233:funsape/device/sevenSegmentsMuxDisplay.cpp **** 
 876               		.loc 2 233 23 is_stmt 0 view .LVU248
 877 0102 E0E0      		ldi r30,0
 878 0104 00C0      		rjmp .L32
 879               	.L33:
 241:funsape/device/sevenSegmentsMuxDisplay.cpp ****     }
 880               		.loc 2 241 9 is_stmt 1 view .LVU249
 881 0106 EE81      		ldd r30,Y+6
 882 0108 FF81      		ldd r31,Y+7
 883 010a 4081      		ld r20,Z
 884 010c 2885      		ldd r18,Y+8
 885 010e 2770      		andi r18,lo8(7)
 886 0110 8A85      		ldd r24,Y+10
 887 0112 8695      		lsr r24
 888 0114 8695      		lsr r24
 889 0116 8695      		lsr r24
 890 0118 8770      		andi r24,lo8(7)
 891 011a 280F      		add r18,r24
 892 011c 3327      		clr r19
 893 011e 331F      		rol r19
 894 0120 81E0      		ldi r24,lo8(1)
 895 0122 90E0      		ldi r25,0
 896 0124 00C0      		rjmp 2f
GAS LISTING C:\Users\Aluno\AppData\Local\Temp\ccYjLeON.s 			page 36


 897               		1:
 898 0126 880F      		lsl r24
 899 0128 991F      		rol r25
 900               		2:
 901 012a 2A95      		dec r18
 902 012c 02F4      		brpl 1b
 903 012e 8095      		com r24
 904 0130 8423      		and r24,r20
 905 0132 8083      		st Z,r24
 906 0134 00C0      		rjmp .L34
 907               		.cfi_endproc
 908               	.LFE41:
 910               		.section	.text._ZN23SevenSegmentsMuxDisplay17updateDigitValuesEPKhPKb,"ax",@progbits
 911               	.global	_ZN23SevenSegmentsMuxDisplay17updateDigitValuesEPKhPKb
 913               	_ZN23SevenSegmentsMuxDisplay17updateDigitValuesEPKhPKb:
 914               	.LVL33:
 915               	.LFB42:
 249:funsape/device/sevenSegmentsMuxDisplay.cpp **** 
 250:funsape/device/sevenSegmentsMuxDisplay.cpp **** bool_t SevenSegmentsMuxDisplay::updateDigitValues(cuint8_t *digitValues_p, cbool_t *digitPoints_p)
 251:funsape/device/sevenSegmentsMuxDisplay.cpp **** {
 916               		.loc 2 251 1 view -0
 917               		.cfi_startproc
 918               		.loc 2 251 1 is_stmt 0 view .LVU251
 919 0000 CF93      		push r28
 920               		.cfi_def_cfa_offset 3
 921               		.cfi_offset 28, -2
 922 0002 DF93      		push r29
 923               		.cfi_def_cfa_offset 4
 924               		.cfi_offset 29, -3
 925               	/* prologue: function */
 926               	/* frame size = 0 */
 927               	/* stack size = 2 */
 928               	.L__stack_usage = 2
 929 0004 E82F      		mov r30,r24
 930 0006 F92F      		mov r31,r25
 931 0008 A62F      		mov r26,r22
 932 000a B72F      		mov r27,r23
 933 000c 642F      		mov r22,r20
 934               	.LVL34:
 935               		.loc 2 251 1 view .LVU252
 936 000e 752F      		mov r23,r21
 252:funsape/device/sevenSegmentsMuxDisplay.cpp ****     // Mark passage for debugging purpose
 253:funsape/device/sevenSegmentsMuxDisplay.cpp ****     debugMark("SevenSegmentsMuxDisplay::updateDigitValues(cuint8_t *, cbool_t *)", DEBUG_SEVEN_SEGM
 937               		.loc 2 253 5 is_stmt 1 view .LVU253
 938               		.loc 2 253 117 view .LVU254
 254:funsape/device/sevenSegmentsMuxDisplay.cpp **** 
 255:funsape/device/sevenSegmentsMuxDisplay.cpp ****     // Check for errors
 256:funsape/device/sevenSegmentsMuxDisplay.cpp ****     if(!isPointerValid(digitValues_p)) {
 939               		.loc 2 256 5 view .LVU255
 940 0010 1097      		sbiw r26,0
 941 0012 01F0      		breq .L44
 942               	.LBB4:
 257:funsape/device/sevenSegmentsMuxDisplay.cpp ****         // Returns error
 258:funsape/device/sevenSegmentsMuxDisplay.cpp ****         debugMessage(Error::ARGUMENT_POINTER_NULL, DEBUG_SEVEN_SEGMENTS_MUX_DISPLAY);
 259:funsape/device/sevenSegmentsMuxDisplay.cpp ****         this->_lastError = Error::ARGUMENT_POINTER_NULL;
 260:funsape/device/sevenSegmentsMuxDisplay.cpp ****         return false;
 261:funsape/device/sevenSegmentsMuxDisplay.cpp ****     }
GAS LISTING C:\Users\Aluno\AppData\Local\Temp\ccYjLeON.s 			page 37


 262:funsape/device/sevenSegmentsMuxDisplay.cpp **** 
 263:funsape/device/sevenSegmentsMuxDisplay.cpp ****     // Updates data members
 264:funsape/device/sevenSegmentsMuxDisplay.cpp ****     for(uint8_t i = 0; i < (this->_digitMax + 1); i++) {
 943               		.loc 2 264 17 is_stmt 0 view .LVU256
 944 0014 40E0      		ldi r20,0
 945               	.LVL35:
 946               		.loc 2 264 17 view .LVU257
 947 0016 00C0      		rjmp .L39
 948               	.LVL36:
 949               	.L44:
 950               		.loc 2 264 17 view .LVU258
 951               	.LBE4:
 258:funsape/device/sevenSegmentsMuxDisplay.cpp ****         this->_lastError = Error::ARGUMENT_POINTER_NULL;
 952               		.loc 2 258 9 is_stmt 1 view .LVU259
 258:funsape/device/sevenSegmentsMuxDisplay.cpp ****         this->_lastError = Error::ARGUMENT_POINTER_NULL;
 953               		.loc 2 258 85 view .LVU260
 259:funsape/device/sevenSegmentsMuxDisplay.cpp ****         return false;
 954               		.loc 2 259 9 view .LVU261
 259:funsape/device/sevenSegmentsMuxDisplay.cpp ****         return false;
 955               		.loc 2 259 26 is_stmt 0 view .LVU262
 956 0018 81E1      		ldi r24,lo8(17)
 957 001a 90E0      		ldi r25,0
 958               	.LVL37:
 259:funsape/device/sevenSegmentsMuxDisplay.cpp ****         return false;
 959               		.loc 2 259 26 view .LVU263
 960 001c 958F      		std Z+29,r25
 961 001e 848F      		std Z+28,r24
 260:funsape/device/sevenSegmentsMuxDisplay.cpp ****     }
 962               		.loc 2 260 9 is_stmt 1 view .LVU264
 260:funsape/device/sevenSegmentsMuxDisplay.cpp ****     }
 963               		.loc 2 260 16 is_stmt 0 view .LVU265
 964 0020 80E0      		ldi r24,0
 965 0022 00C0      		rjmp .L38
 966               	.LVL38:
 967               	.L41:
 968               	.LBB5:
 969               		.loc 2 264 5 is_stmt 1 discriminator 2 view .LVU266
 970 0024 4F5F      		subi r20,lo8(-(1))
 971               	.LVL39:
 972               	.L39:
 973               		.loc 2 264 26 discriminator 1 view .LVU267
 974               		.loc 2 264 35 is_stmt 0 discriminator 1 view .LVU268
 975 0026 8285      		ldd r24,Z+10
 976 0028 8770      		andi r24,lo8(7)
 977 002a 90E0      		ldi r25,0
 978               		.loc 2 264 24 discriminator 1 view .LVU269
 979 002c 242F      		mov r18,r20
 980 002e 30E0      		ldi r19,0
 981               		.loc 2 264 26 discriminator 1 view .LVU270
 982 0030 8217      		cp r24,r18
 983 0032 9307      		cpc r25,r19
 984 0034 04F0      		brlt .L45
 265:funsape/device/sevenSegmentsMuxDisplay.cpp ****         this->_digitValue[i] = digitValues_p[i];
 985               		.loc 2 265 9 is_stmt 1 view .LVU271
 986               		.loc 2 265 46 is_stmt 0 view .LVU272
 987 0036 842F      		mov r24,r20
 988 0038 90E0      		ldi r25,0
GAS LISTING C:\Users\Aluno\AppData\Local\Temp\ccYjLeON.s 			page 38


 989               		.loc 2 265 47 view .LVU273
 990 003a ED01      		movw r28,r26
 991 003c C80F      		add r28,r24
 992 003e D91F      		adc r29,r25
 993 0040 5881      		ld r21,Y
 994               		.loc 2 265 30 view .LVU274
 995 0042 EF01      		movw r28,r30
 996 0044 C20F      		add r28,r18
 997 0046 D31F      		adc r29,r19
 998 0048 5B87      		std Y+11,r21
 266:funsape/device/sevenSegmentsMuxDisplay.cpp ****         if(isPointerValid(digitPoints_p)) {
 999               		.loc 2 266 9 is_stmt 1 view .LVU275
 1000               		.loc 2 266 12 is_stmt 0 view .LVU276
 1001 004a 6115      		cp r22,__zero_reg__
 1002 004c 7105      		cpc r23,__zero_reg__
 1003 004e 01F0      		breq .L41
 267:funsape/device/sevenSegmentsMuxDisplay.cpp ****             this->_digitPoint[i] = digitPoints_p[i];
 1004               		.loc 2 267 13 is_stmt 1 view .LVU277
 1005               		.loc 2 267 51 is_stmt 0 view .LVU278
 1006 0050 860F      		add r24,r22
 1007 0052 971F      		adc r25,r23
 1008 0054 EC01      		movw r28,r24
 1009 0056 8881      		ld r24,Y
 1010               		.loc 2 267 34 view .LVU279
 1011 0058 2E0F      		add r18,r30
 1012 005a 3F1F      		adc r19,r31
 1013 005c E901      		movw r28,r18
 1014 005e 8B8B      		std Y+19,r24
 1015 0060 00C0      		rjmp .L41
 1016               	.LVL40:
 1017               	.L45:
 1018               		.loc 2 267 34 view .LVU280
 1019               	.LBE5:
 268:funsape/device/sevenSegmentsMuxDisplay.cpp ****         }
 269:funsape/device/sevenSegmentsMuxDisplay.cpp ****     }
 270:funsape/device/sevenSegmentsMuxDisplay.cpp **** 
 271:funsape/device/sevenSegmentsMuxDisplay.cpp ****     // Returns successfully
 272:funsape/device/sevenSegmentsMuxDisplay.cpp ****     this->_lastError = Error::NONE;
 1020               		.loc 2 272 5 is_stmt 1 view .LVU281
 1021               		.loc 2 272 22 is_stmt 0 view .LVU282
 1022 0062 158E      		std Z+29,__zero_reg__
 1023 0064 148E      		std Z+28,__zero_reg__
 273:funsape/device/sevenSegmentsMuxDisplay.cpp ****     debugMessage(Error::NONE, DEBUG_SEVEN_SEGMENTS_MUX_DISPLAY);
 1024               		.loc 2 273 5 is_stmt 1 view .LVU283
 1025               		.loc 2 273 64 view .LVU284
 274:funsape/device/sevenSegmentsMuxDisplay.cpp ****     return true;
 1026               		.loc 2 274 5 view .LVU285
 1027               		.loc 2 274 12 is_stmt 0 view .LVU286
 1028 0066 81E0      		ldi r24,lo8(1)
 1029               	.LVL41:
 1030               	.L38:
 1031               	/* epilogue start */
 275:funsape/device/sevenSegmentsMuxDisplay.cpp **** }
 1032               		.loc 2 275 1 view .LVU287
 1033 0068 DF91      		pop r29
 1034 006a CF91      		pop r28
 1035 006c 0895      		ret
GAS LISTING C:\Users\Aluno\AppData\Local\Temp\ccYjLeON.s 			page 39


 1036               		.cfi_endproc
 1037               	.LFE42:
 1039               		.section	.rodata._ZL31constSevenSegmentMuxDisplayMask,"a"
 1042               	_ZL31constSevenSegmentMuxDisplayMask:
 1043 0000 00        		.string	""
 1044 0001 0307 0F1F 		.ascii	"\003\007\017\037?\177\377"
 1044      3F7F FF
 1045               		.text
 1046               	.Letext0:
 1047               		.file 3 "e:\\vscode-avr-win\\toolchains\\avr-gcc\\avr\\include\\stdint.h"
 1048               		.file 4 "funsape/device/sevenSegmentsDisplay.hpp"
 1049               		.file 5 "funsape/device/sevenSegmentsMuxDisplay.hpp"
GAS LISTING C:\Users\Aluno\AppData\Local\Temp\ccYjLeON.s 			page 40


DEFINED SYMBOLS
                            *ABS*:00000000 sevenSegmentsMuxDisplay.cpp
C:\Users\Aluno\AppData\Local\Temp\ccYjLeON.s:2      *ABS*:0000003e __SP_H__
C:\Users\Aluno\AppData\Local\Temp\ccYjLeON.s:3      *ABS*:0000003d __SP_L__
C:\Users\Aluno\AppData\Local\Temp\ccYjLeON.s:4      *ABS*:0000003f __SREG__
C:\Users\Aluno\AppData\Local\Temp\ccYjLeON.s:5      *ABS*:00000000 __tmp_reg__
C:\Users\Aluno\AppData\Local\Temp\ccYjLeON.s:6      *ABS*:00000001 __zero_reg__
C:\Users\Aluno\AppData\Local\Temp\ccYjLeON.s:14     .text._Z7getTickv:00000000 _Z7getTickv
C:\Users\Aluno\AppData\Local\Temp\ccYjLeON.s:17     .text._Z7getTickv:00000000 .Loc.0
C:\Users\Aluno\AppData\Local\Temp\ccYjLeON.s:18     .text._Z7getTickv:00000000 L0
C:\Users\Aluno\AppData\Local\Temp\ccYjLeON.s:23     .text._Z7getTickv:00000000 .Loc.1
C:\Users\Aluno\AppData\Local\Temp\ccYjLeON.s:24     .text._Z7getTickv:00000000 .Loc.2
C:\Users\Aluno\AppData\Local\Temp\ccYjLeON.s:30     .text._Z7getTickv:00000008 L0
C:\Users\Aluno\AppData\Local\Temp\ccYjLeON.s:36     .text._ZN23SevenSegmentsMuxDisplayC2Ev:00000000 _ZN23SevenSegmentsMuxDisplayC2Ev
C:\Users\Aluno\AppData\Local\Temp\ccYjLeON.s:40     .text._ZN23SevenSegmentsMuxDisplayC2Ev:00000000 .Loc.3
C:\Users\Aluno\AppData\Local\Temp\ccYjLeON.s:41     .text._ZN23SevenSegmentsMuxDisplayC2Ev:00000000 L0
C:\Users\Aluno\AppData\Local\Temp\ccYjLeON.s:46     .text._ZN23SevenSegmentsMuxDisplayC2Ev:00000000 .Loc.4
C:\Users\Aluno\AppData\Local\Temp\ccYjLeON.s:50     .text._ZN23SevenSegmentsMuxDisplayC2Ev:00000004 .Loc.5
C:\Users\Aluno\AppData\Local\Temp\ccYjLeON.s:51     .text._ZN23SevenSegmentsMuxDisplayC2Ev:00000004 .Loc.6
C:\Users\Aluno\AppData\Local\Temp\ccYjLeON.s:52     .text._ZN23SevenSegmentsMuxDisplayC2Ev:00000004 .Loc.7
C:\Users\Aluno\AppData\Local\Temp\ccYjLeON.s:53     .text._ZN23SevenSegmentsMuxDisplayC2Ev:00000004 .Loc.8
C:\Users\Aluno\AppData\Local\Temp\ccYjLeON.s:56     .text._ZN23SevenSegmentsMuxDisplayC2Ev:00000008 .Loc.9
C:\Users\Aluno\AppData\Local\Temp\ccYjLeON.s:57     .text._ZN23SevenSegmentsMuxDisplayC2Ev:00000008 .Loc.10
C:\Users\Aluno\AppData\Local\Temp\ccYjLeON.s:60     .text._ZN23SevenSegmentsMuxDisplayC2Ev:0000000c .Loc.11
C:\Users\Aluno\AppData\Local\Temp\ccYjLeON.s:61     .text._ZN23SevenSegmentsMuxDisplayC2Ev:0000000c .Loc.12
C:\Users\Aluno\AppData\Local\Temp\ccYjLeON.s:64     .text._ZN23SevenSegmentsMuxDisplayC2Ev:00000010 .Loc.13
C:\Users\Aluno\AppData\Local\Temp\ccYjLeON.s:65     .text._ZN23SevenSegmentsMuxDisplayC2Ev:00000010 .Loc.14
C:\Users\Aluno\AppData\Local\Temp\ccYjLeON.s:68     .text._ZN23SevenSegmentsMuxDisplayC2Ev:00000014 .Loc.15
C:\Users\Aluno\AppData\Local\Temp\ccYjLeON.s:69     .text._ZN23SevenSegmentsMuxDisplayC2Ev:00000014 .Loc.16
C:\Users\Aluno\AppData\Local\Temp\ccYjLeON.s:71     .text._ZN23SevenSegmentsMuxDisplayC2Ev:00000016 .Loc.17
C:\Users\Aluno\AppData\Local\Temp\ccYjLeON.s:72     .text._ZN23SevenSegmentsMuxDisplayC2Ev:00000016 .Loc.18
C:\Users\Aluno\AppData\Local\Temp\ccYjLeON.s:75     .text._ZN23SevenSegmentsMuxDisplayC2Ev:00000018 .Loc.19
C:\Users\Aluno\AppData\Local\Temp\ccYjLeON.s:78     .text._ZN23SevenSegmentsMuxDisplayC2Ev:0000001c .Loc.20
C:\Users\Aluno\AppData\Local\Temp\ccYjLeON.s:79     .text._ZN23SevenSegmentsMuxDisplayC2Ev:0000001c .Loc.21
C:\Users\Aluno\AppData\Local\Temp\ccYjLeON.s:84     .text._ZN23SevenSegmentsMuxDisplayC2Ev:00000024 .Loc.22
C:\Users\Aluno\AppData\Local\Temp\ccYjLeON.s:85     .text._ZN23SevenSegmentsMuxDisplayC2Ev:00000024 .Loc.23
C:\Users\Aluno\AppData\Local\Temp\ccYjLeON.s:88     .text._ZN23SevenSegmentsMuxDisplayC2Ev:00000028 .Loc.24
C:\Users\Aluno\AppData\Local\Temp\ccYjLeON.s:91     .text._ZN23SevenSegmentsMuxDisplayC2Ev:00000028 .Loc.25
C:\Users\Aluno\AppData\Local\Temp\ccYjLeON.s:93     .text._ZN23SevenSegmentsMuxDisplayC2Ev:0000002a .Loc.26
C:\Users\Aluno\AppData\Local\Temp\ccYjLeON.s:97     .text._ZN23SevenSegmentsMuxDisplayC2Ev:0000002c .Loc.27
C:\Users\Aluno\AppData\Local\Temp\ccYjLeON.s:98     .text._ZN23SevenSegmentsMuxDisplayC2Ev:0000002c .Loc.28
C:\Users\Aluno\AppData\Local\Temp\ccYjLeON.s:106    .text._ZN23SevenSegmentsMuxDisplayC2Ev:0000003a .Loc.29
C:\Users\Aluno\AppData\Local\Temp\ccYjLeON.s:107    .text._ZN23SevenSegmentsMuxDisplayC2Ev:0000003a .Loc.30
C:\Users\Aluno\AppData\Local\Temp\ccYjLeON.s:110    .text._ZN23SevenSegmentsMuxDisplayC2Ev:0000003e .Loc.31
C:\Users\Aluno\AppData\Local\Temp\ccYjLeON.s:114    .text._ZN23SevenSegmentsMuxDisplayC2Ev:00000040 .Loc.32
C:\Users\Aluno\AppData\Local\Temp\ccYjLeON.s:118    .text._ZN23SevenSegmentsMuxDisplayC2Ev:00000044 .Loc.33
C:\Users\Aluno\AppData\Local\Temp\ccYjLeON.s:119    .text._ZN23SevenSegmentsMuxDisplayC2Ev:00000044 .Loc.34
C:\Users\Aluno\AppData\Local\Temp\ccYjLeON.s:122    .text._ZN23SevenSegmentsMuxDisplayC2Ev:00000046 .Loc.35
C:\Users\Aluno\AppData\Local\Temp\ccYjLeON.s:125    .text._ZN23SevenSegmentsMuxDisplayC2Ev:0000004a .Loc.36
C:\Users\Aluno\AppData\Local\Temp\ccYjLeON.s:126    .text._ZN23SevenSegmentsMuxDisplayC2Ev:0000004a .Loc.37
C:\Users\Aluno\AppData\Local\Temp\ccYjLeON.s:129    .text._ZN23SevenSegmentsMuxDisplayC2Ev:0000004e .Loc.38
C:\Users\Aluno\AppData\Local\Temp\ccYjLeON.s:130    .text._ZN23SevenSegmentsMuxDisplayC2Ev:0000004e .Loc.39
C:\Users\Aluno\AppData\Local\Temp\ccYjLeON.s:133    .text._ZN23SevenSegmentsMuxDisplayC2Ev:00000052 .Loc.40
C:\Users\Aluno\AppData\Local\Temp\ccYjLeON.s:134    .text._ZN23SevenSegmentsMuxDisplayC2Ev:00000052 .Loc.41
C:\Users\Aluno\AppData\Local\Temp\ccYjLeON.s:137    .text._ZN23SevenSegmentsMuxDisplayC2Ev:00000056 .Loc.42
C:\Users\Aluno\AppData\Local\Temp\ccYjLeON.s:138    .text._ZN23SevenSegmentsMuxDisplayC2Ev:00000056 .Loc.43
C:\Users\Aluno\AppData\Local\Temp\ccYjLeON.s:141    .text._ZN23SevenSegmentsMuxDisplayC2Ev:0000005a .Loc.44
GAS LISTING C:\Users\Aluno\AppData\Local\Temp\ccYjLeON.s 			page 41


C:\Users\Aluno\AppData\Local\Temp\ccYjLeON.s:142    .text._ZN23SevenSegmentsMuxDisplayC2Ev:0000005a .Loc.45
C:\Users\Aluno\AppData\Local\Temp\ccYjLeON.s:143    .text._ZN23SevenSegmentsMuxDisplayC2Ev:0000005a .Loc.46
C:\Users\Aluno\AppData\Local\Temp\ccYjLeON.s:146    .text._ZN23SevenSegmentsMuxDisplayC2Ev:0000005a .Loc.47
C:\Users\Aluno\AppData\Local\Temp\ccYjLeON.s:148    .text._ZN23SevenSegmentsMuxDisplayC2Ev:0000005c L0
C:\Users\Aluno\AppData\Local\Temp\ccYjLeON.s:36     .text._ZN23SevenSegmentsMuxDisplayC2Ev:00000000 _ZN23SevenSegmentsMuxDisplayC1Ev
C:\Users\Aluno\AppData\Local\Temp\ccYjLeON.s:156    .text._ZN23SevenSegmentsMuxDisplayD2Ev:00000000 _ZN23SevenSegmentsMuxDisplayD2Ev
C:\Users\Aluno\AppData\Local\Temp\ccYjLeON.s:159    .text._ZN23SevenSegmentsMuxDisplayD2Ev:00000000 .Loc.48
C:\Users\Aluno\AppData\Local\Temp\ccYjLeON.s:160    .text._ZN23SevenSegmentsMuxDisplayD2Ev:00000000 L0
C:\Users\Aluno\AppData\Local\Temp\ccYjLeON.s:165    .text._ZN23SevenSegmentsMuxDisplayD2Ev:00000000 .Loc.49
C:\Users\Aluno\AppData\Local\Temp\ccYjLeON.s:166    .text._ZN23SevenSegmentsMuxDisplayD2Ev:00000000 .Loc.50
C:\Users\Aluno\AppData\Local\Temp\ccYjLeON.s:167    .text._ZN23SevenSegmentsMuxDisplayD2Ev:00000000 .Loc.51
C:\Users\Aluno\AppData\Local\Temp\ccYjLeON.s:168    .text._ZN23SevenSegmentsMuxDisplayD2Ev:00000000 .Loc.52
C:\Users\Aluno\AppData\Local\Temp\ccYjLeON.s:169    .text._ZN23SevenSegmentsMuxDisplayD2Ev:00000000 .Loc.53
C:\Users\Aluno\AppData\Local\Temp\ccYjLeON.s:171    .text._ZN23SevenSegmentsMuxDisplayD2Ev:00000000 .Loc.54
C:\Users\Aluno\AppData\Local\Temp\ccYjLeON.s:173    .text._ZN23SevenSegmentsMuxDisplayD2Ev:00000002 L0
C:\Users\Aluno\AppData\Local\Temp\ccYjLeON.s:156    .text._ZN23SevenSegmentsMuxDisplayD2Ev:00000000 _ZN23SevenSegmentsMuxDisplayD1Ev
C:\Users\Aluno\AppData\Local\Temp\ccYjLeON.s:181    .text._ZN23SevenSegmentsMuxDisplay4initENS_6DigitsE24SevenSegmentsDisplayType:00000000 _ZN23SevenSegmentsMuxDisplay4initENS_6DigitsE24SevenSegmentsDisplayType
C:\Users\Aluno\AppData\Local\Temp\ccYjLeON.s:184    .text._ZN23SevenSegmentsMuxDisplay4initENS_6DigitsE24SevenSegmentsDisplayType:00000000 .Loc.55
C:\Users\Aluno\AppData\Local\Temp\ccYjLeON.s:185    .text._ZN23SevenSegmentsMuxDisplay4initENS_6DigitsE24SevenSegmentsDisplayType:00000000 L0
C:\Users\Aluno\AppData\Local\Temp\ccYjLeON.s:186    .text._ZN23SevenSegmentsMuxDisplay4initENS_6DigitsE24SevenSegmentsDisplayType:00000000 .Loc.56
C:\Users\Aluno\AppData\Local\Temp\ccYjLeON.s:207    .text._ZN23SevenSegmentsMuxDisplay4initENS_6DigitsE24SevenSegmentsDisplayType:00000010 .Loc.57
C:\Users\Aluno\AppData\Local\Temp\ccYjLeON.s:208    .text._ZN23SevenSegmentsMuxDisplay4initENS_6DigitsE24SevenSegmentsDisplayType:00000010 .Loc.58
C:\Users\Aluno\AppData\Local\Temp\ccYjLeON.s:209    .text._ZN23SevenSegmentsMuxDisplay4initENS_6DigitsE24SevenSegmentsDisplayType:00000010 .Loc.59
C:\Users\Aluno\AppData\Local\Temp\ccYjLeON.s:211    .text._ZN23SevenSegmentsMuxDisplay4initENS_6DigitsE24SevenSegmentsDisplayType:00000010 .Loc.60
C:\Users\Aluno\AppData\Local\Temp\ccYjLeON.s:212    .text._ZN23SevenSegmentsMuxDisplay4initENS_6DigitsE24SevenSegmentsDisplayType:00000010 .Loc.61
C:\Users\Aluno\AppData\Local\Temp\ccYjLeON.s:215    .text._ZN23SevenSegmentsMuxDisplay4initENS_6DigitsE24SevenSegmentsDisplayType:00000012 .Loc.62
C:\Users\Aluno\AppData\Local\Temp\ccYjLeON.s:219    .text._ZN23SevenSegmentsMuxDisplay4initENS_6DigitsE24SevenSegmentsDisplayType:00000018 .Loc.63
C:\Users\Aluno\AppData\Local\Temp\ccYjLeON.s:220    .text._ZN23SevenSegmentsMuxDisplay4initENS_6DigitsE24SevenSegmentsDisplayType:00000018 .Loc.64
C:\Users\Aluno\AppData\Local\Temp\ccYjLeON.s:223    .text._ZN23SevenSegmentsMuxDisplay4initENS_6DigitsE24SevenSegmentsDisplayType:0000001c .Loc.65
C:\Users\Aluno\AppData\Local\Temp\ccYjLeON.s:224    .text._ZN23SevenSegmentsMuxDisplay4initENS_6DigitsE24SevenSegmentsDisplayType:0000001c .Loc.66
C:\Users\Aluno\AppData\Local\Temp\ccYjLeON.s:226    .text._ZN23SevenSegmentsMuxDisplay4initENS_6DigitsE24SevenSegmentsDisplayType:0000001e .Loc.67
C:\Users\Aluno\AppData\Local\Temp\ccYjLeON.s:227    .text._ZN23SevenSegmentsMuxDisplay4initENS_6DigitsE24SevenSegmentsDisplayType:0000001e .Loc.68
C:\Users\Aluno\AppData\Local\Temp\ccYjLeON.s:231    .text._ZN23SevenSegmentsMuxDisplay4initENS_6DigitsE24SevenSegmentsDisplayType:00000024 .Loc.69
C:\Users\Aluno\AppData\Local\Temp\ccYjLeON.s:232    .text._ZN23SevenSegmentsMuxDisplay4initENS_6DigitsE24SevenSegmentsDisplayType:00000024 .Loc.70
C:\Users\Aluno\AppData\Local\Temp\ccYjLeON.s:236    .text._ZN23SevenSegmentsMuxDisplay4initENS_6DigitsE24SevenSegmentsDisplayType:0000002a .Loc.71
C:\Users\Aluno\AppData\Local\Temp\ccYjLeON.s:238    .text._ZN23SevenSegmentsMuxDisplay4initENS_6DigitsE24SevenSegmentsDisplayType:0000002e L0
C:\Users\Aluno\AppData\Local\Temp\ccYjLeON.s:240    .text._ZN23SevenSegmentsMuxDisplay4initENS_6DigitsE24SevenSegmentsDisplayType:00000030 .Loc.72
C:\Users\Aluno\AppData\Local\Temp\ccYjLeON.s:241    .text._ZN23SevenSegmentsMuxDisplay4initENS_6DigitsE24SevenSegmentsDisplayType:00000030 .Loc.73
C:\Users\Aluno\AppData\Local\Temp\ccYjLeON.s:244    .text._ZN23SevenSegmentsMuxDisplay4initENS_6DigitsE24SevenSegmentsDisplayType:00000034 .Loc.74
C:\Users\Aluno\AppData\Local\Temp\ccYjLeON.s:246    .text._ZN23SevenSegmentsMuxDisplay4initENS_6DigitsE24SevenSegmentsDisplayType:00000038 L0
C:\Users\Aluno\AppData\Local\Temp\ccYjLeON.s:248    .text._ZN23SevenSegmentsMuxDisplay4initENS_6DigitsE24SevenSegmentsDisplayType:0000003a .Loc.75
C:\Users\Aluno\AppData\Local\Temp\ccYjLeON.s:251    .text._ZN23SevenSegmentsMuxDisplay4initENS_6DigitsE24SevenSegmentsDisplayType:0000003e .Loc.76
C:\Users\Aluno\AppData\Local\Temp\ccYjLeON.s:254    .text._ZN23SevenSegmentsMuxDisplay4initENS_6DigitsE24SevenSegmentsDisplayType:00000040 .Loc.77
C:\Users\Aluno\AppData\Local\Temp\ccYjLeON.s:259    .text._ZN23SevenSegmentsMuxDisplay4initENS_6DigitsE24SevenSegmentsDisplayType:00000048 .Loc.78
C:\Users\Aluno\AppData\Local\Temp\ccYjLeON.s:262    .text._ZN23SevenSegmentsMuxDisplay4initENS_6DigitsE24SevenSegmentsDisplayType:0000004e L0
C:\Users\Aluno\AppData\Local\Temp\ccYjLeON.s:264    .text._ZN23SevenSegmentsMuxDisplay4initENS_6DigitsE24SevenSegmentsDisplayType:00000050 .Loc.79
C:\Users\Aluno\AppData\Local\Temp\ccYjLeON.s:265    .text._ZN23SevenSegmentsMuxDisplay4initENS_6DigitsE24SevenSegmentsDisplayType:00000050 .Loc.80
C:\Users\Aluno\AppData\Local\Temp\ccYjLeON.s:1042   .rodata._ZL31constSevenSegmentMuxDisplayMask:00000000 _ZL31constSevenSegmentMuxDisplayMask
C:\Users\Aluno\AppData\Local\Temp\ccYjLeON.s:270    .text._ZN23SevenSegmentsMuxDisplay4initENS_6DigitsE24SevenSegmentsDisplayType:00000056 .Loc.81
C:\Users\Aluno\AppData\Local\Temp\ccYjLeON.s:271    .text._ZN23SevenSegmentsMuxDisplay4initENS_6DigitsE24SevenSegmentsDisplayType:00000056 .Loc.82
C:\Users\Aluno\AppData\Local\Temp\ccYjLeON.s:274    .text._ZN23SevenSegmentsMuxDisplay4initENS_6DigitsE24SevenSegmentsDisplayType:0000005a .Loc.83
C:\Users\Aluno\AppData\Local\Temp\ccYjLeON.s:277    .text._ZN23SevenSegmentsMuxDisplay4initENS_6DigitsE24SevenSegmentsDisplayType:0000005e .Loc.84
C:\Users\Aluno\AppData\Local\Temp\ccYjLeON.s:295    .text._ZN23SevenSegmentsMuxDisplay4initENS_6DigitsE24SevenSegmentsDisplayType:0000007c .Loc.85
C:\Users\Aluno\AppData\Local\Temp\ccYjLeON.s:296    .text._ZN23SevenSegmentsMuxDisplay4initENS_6DigitsE24SevenSegmentsDisplayType:0000007c .Loc.86
C:\Users\Aluno\AppData\Local\Temp\ccYjLeON.s:301    .text._ZN23SevenSegmentsMuxDisplay4initENS_6DigitsE24SevenSegmentsDisplayType:00000082 .Loc.87
C:\Users\Aluno\AppData\Local\Temp\ccYjLeON.s:304    .text._ZN23SevenSegmentsMuxDisplay4initENS_6DigitsE24SevenSegmentsDisplayType:00000086 .Loc.88
C:\Users\Aluno\AppData\Local\Temp\ccYjLeON.s:306    .text._ZN23SevenSegmentsMuxDisplay4initENS_6DigitsE24SevenSegmentsDisplayType:00000088 .Loc.89
GAS LISTING C:\Users\Aluno\AppData\Local\Temp\ccYjLeON.s 			page 42


C:\Users\Aluno\AppData\Local\Temp\ccYjLeON.s:307    .text._ZN23SevenSegmentsMuxDisplay4initENS_6DigitsE24SevenSegmentsDisplayType:00000088 .Loc.90
C:\Users\Aluno\AppData\Local\Temp\ccYjLeON.s:309    .text._ZN23SevenSegmentsMuxDisplay4initENS_6DigitsE24SevenSegmentsDisplayType:0000008a .Loc.91
C:\Users\Aluno\AppData\Local\Temp\ccYjLeON.s:312    .text._ZN23SevenSegmentsMuxDisplay4initENS_6DigitsE24SevenSegmentsDisplayType:0000008e .Loc.92
C:\Users\Aluno\AppData\Local\Temp\ccYjLeON.s:329    .text._ZN23SevenSegmentsMuxDisplay4initENS_6DigitsE24SevenSegmentsDisplayType:000000a8 .Loc.93
C:\Users\Aluno\AppData\Local\Temp\ccYjLeON.s:330    .text._ZN23SevenSegmentsMuxDisplay4initENS_6DigitsE24SevenSegmentsDisplayType:000000a8 .Loc.94
C:\Users\Aluno\AppData\Local\Temp\ccYjLeON.s:335    .text._ZN23SevenSegmentsMuxDisplay4initENS_6DigitsE24SevenSegmentsDisplayType:000000b0 .Loc.95
C:\Users\Aluno\AppData\Local\Temp\ccYjLeON.s:336    .text._ZN23SevenSegmentsMuxDisplay4initENS_6DigitsE24SevenSegmentsDisplayType:000000b0 .Loc.96
C:\Users\Aluno\AppData\Local\Temp\ccYjLeON.s:339    .text._ZN23SevenSegmentsMuxDisplay4initENS_6DigitsE24SevenSegmentsDisplayType:000000b4 .Loc.97
C:\Users\Aluno\AppData\Local\Temp\ccYjLeON.s:345    .text._ZN23SevenSegmentsMuxDisplay4initENS_6DigitsE24SevenSegmentsDisplayType:000000be .Loc.98
C:\Users\Aluno\AppData\Local\Temp\ccYjLeON.s:346    .text._ZN23SevenSegmentsMuxDisplay4initENS_6DigitsE24SevenSegmentsDisplayType:000000be .Loc.99
C:\Users\Aluno\AppData\Local\Temp\ccYjLeON.s:348    .text._ZN23SevenSegmentsMuxDisplay4initENS_6DigitsE24SevenSegmentsDisplayType:000000c0 .Loc.100
C:\Users\Aluno\AppData\Local\Temp\ccYjLeON.s:349    .text._ZN23SevenSegmentsMuxDisplay4initENS_6DigitsE24SevenSegmentsDisplayType:000000c0 .Loc.101
C:\Users\Aluno\AppData\Local\Temp\ccYjLeON.s:352    .text._ZN23SevenSegmentsMuxDisplay4initENS_6DigitsE24SevenSegmentsDisplayType:000000c4 .Loc.102
C:\Users\Aluno\AppData\Local\Temp\ccYjLeON.s:353    .text._ZN23SevenSegmentsMuxDisplay4initENS_6DigitsE24SevenSegmentsDisplayType:000000c4 .Loc.103
C:\Users\Aluno\AppData\Local\Temp\ccYjLeON.s:356    .text._ZN23SevenSegmentsMuxDisplay4initENS_6DigitsE24SevenSegmentsDisplayType:000000c8 .Loc.104
C:\Users\Aluno\AppData\Local\Temp\ccYjLeON.s:357    .text._ZN23SevenSegmentsMuxDisplay4initENS_6DigitsE24SevenSegmentsDisplayType:000000c8 .Loc.105
C:\Users\Aluno\AppData\Local\Temp\ccYjLeON.s:358    .text._ZN23SevenSegmentsMuxDisplay4initENS_6DigitsE24SevenSegmentsDisplayType:000000c8 .Loc.106
C:\Users\Aluno\AppData\Local\Temp\ccYjLeON.s:359    .text._ZN23SevenSegmentsMuxDisplay4initENS_6DigitsE24SevenSegmentsDisplayType:000000c8 .Loc.107
C:\Users\Aluno\AppData\Local\Temp\ccYjLeON.s:363    .text._ZN23SevenSegmentsMuxDisplay4initENS_6DigitsE24SevenSegmentsDisplayType:000000ca .Loc.108
C:\Users\Aluno\AppData\Local\Temp\ccYjLeON.s:364    .text._ZN23SevenSegmentsMuxDisplay4initENS_6DigitsE24SevenSegmentsDisplayType:000000ca .Loc.109
C:\Users\Aluno\AppData\Local\Temp\ccYjLeON.s:369    .text._ZN23SevenSegmentsMuxDisplay4initENS_6DigitsE24SevenSegmentsDisplayType:000000d2 .Loc.110
C:\Users\Aluno\AppData\Local\Temp\ccYjLeON.s:370    .text._ZN23SevenSegmentsMuxDisplay4initENS_6DigitsE24SevenSegmentsDisplayType:000000d2 .Loc.111
C:\Users\Aluno\AppData\Local\Temp\ccYjLeON.s:371    .text._ZN23SevenSegmentsMuxDisplay4initENS_6DigitsE24SevenSegmentsDisplayType:000000d2 .Loc.112
C:\Users\Aluno\AppData\Local\Temp\ccYjLeON.s:375    .text._ZN23SevenSegmentsMuxDisplay4initENS_6DigitsE24SevenSegmentsDisplayType:000000d2 .Loc.113
C:\Users\Aluno\AppData\Local\Temp\ccYjLeON.s:383    .text._ZN23SevenSegmentsMuxDisplay4initENS_6DigitsE24SevenSegmentsDisplayType:000000dc .Loc.114
C:\Users\Aluno\AppData\Local\Temp\ccYjLeON.s:384    .text._ZN23SevenSegmentsMuxDisplay4initENS_6DigitsE24SevenSegmentsDisplayType:000000dc .Loc.115
C:\Users\Aluno\AppData\Local\Temp\ccYjLeON.s:389    .text._ZN23SevenSegmentsMuxDisplay4initENS_6DigitsE24SevenSegmentsDisplayType:000000e4 .Loc.116
C:\Users\Aluno\AppData\Local\Temp\ccYjLeON.s:390    .text._ZN23SevenSegmentsMuxDisplay4initENS_6DigitsE24SevenSegmentsDisplayType:000000e4 .Loc.117
C:\Users\Aluno\AppData\Local\Temp\ccYjLeON.s:391    .text._ZN23SevenSegmentsMuxDisplay4initENS_6DigitsE24SevenSegmentsDisplayType:000000e4 .Loc.118
C:\Users\Aluno\AppData\Local\Temp\ccYjLeON.s:392    .text._ZN23SevenSegmentsMuxDisplay4initENS_6DigitsE24SevenSegmentsDisplayType:000000e4 .Loc.119
C:\Users\Aluno\AppData\Local\Temp\ccYjLeON.s:397    .text._ZN23SevenSegmentsMuxDisplay4initENS_6DigitsE24SevenSegmentsDisplayType:000000e8 .Loc.120
C:\Users\Aluno\AppData\Local\Temp\ccYjLeON.s:398    .text._ZN23SevenSegmentsMuxDisplay4initENS_6DigitsE24SevenSegmentsDisplayType:000000e8 .Loc.121
C:\Users\Aluno\AppData\Local\Temp\ccYjLeON.s:403    .text._ZN23SevenSegmentsMuxDisplay4initENS_6DigitsE24SevenSegmentsDisplayType:000000f0 .Loc.122
C:\Users\Aluno\AppData\Local\Temp\ccYjLeON.s:404    .text._ZN23SevenSegmentsMuxDisplay4initENS_6DigitsE24SevenSegmentsDisplayType:000000f0 .Loc.123
C:\Users\Aluno\AppData\Local\Temp\ccYjLeON.s:405    .text._ZN23SevenSegmentsMuxDisplay4initENS_6DigitsE24SevenSegmentsDisplayType:000000f0 .Loc.124
C:\Users\Aluno\AppData\Local\Temp\ccYjLeON.s:406    .text._ZN23SevenSegmentsMuxDisplay4initENS_6DigitsE24SevenSegmentsDisplayType:000000f0 .Loc.125
C:\Users\Aluno\AppData\Local\Temp\ccYjLeON.s:411    .text._ZN23SevenSegmentsMuxDisplay4initENS_6DigitsE24SevenSegmentsDisplayType:000000f4 .Loc.126
C:\Users\Aluno\AppData\Local\Temp\ccYjLeON.s:415    .text._ZN23SevenSegmentsMuxDisplay4initENS_6DigitsE24SevenSegmentsDisplayType:000000f8 .Loc.127
C:\Users\Aluno\AppData\Local\Temp\ccYjLeON.s:429    .text._ZN23SevenSegmentsMuxDisplay4initENS_6DigitsE24SevenSegmentsDisplayType:0000010c .Loc.128
C:\Users\Aluno\AppData\Local\Temp\ccYjLeON.s:433    .text._ZN23SevenSegmentsMuxDisplay4initENS_6DigitsE24SevenSegmentsDisplayType:00000112 L0
C:\Users\Aluno\AppData\Local\Temp\ccYjLeON.s:439    .text._ZN23SevenSegmentsMuxDisplay8setPortsEPVhS1_h10LogicLevel:00000000 _ZN23SevenSegmentsMuxDisplay8setPortsEPVhS1_h10LogicLevel
C:\Users\Aluno\AppData\Local\Temp\ccYjLeON.s:442    .text._ZN23SevenSegmentsMuxDisplay8setPortsEPVhS1_h10LogicLevel:00000000 .Loc.129
C:\Users\Aluno\AppData\Local\Temp\ccYjLeON.s:443    .text._ZN23SevenSegmentsMuxDisplay8setPortsEPVhS1_h10LogicLevel:00000000 L0
C:\Users\Aluno\AppData\Local\Temp\ccYjLeON.s:444    .text._ZN23SevenSegmentsMuxDisplay8setPortsEPVhS1_h10LogicLevel:00000000 .Loc.130
C:\Users\Aluno\AppData\Local\Temp\ccYjLeON.s:462    .text._ZN23SevenSegmentsMuxDisplay8setPortsEPVhS1_h10LogicLevel:0000000c .Loc.131
C:\Users\Aluno\AppData\Local\Temp\ccYjLeON.s:468    .text._ZN23SevenSegmentsMuxDisplay8setPortsEPVhS1_h10LogicLevel:00000014 .Loc.132
C:\Users\Aluno\AppData\Local\Temp\ccYjLeON.s:469    .text._ZN23SevenSegmentsMuxDisplay8setPortsEPVhS1_h10LogicLevel:00000014 .Loc.133
C:\Users\Aluno\AppData\Local\Temp\ccYjLeON.s:470    .text._ZN23SevenSegmentsMuxDisplay8setPortsEPVhS1_h10LogicLevel:00000014 .Loc.134
C:\Users\Aluno\AppData\Local\Temp\ccYjLeON.s:471    .text._ZN23SevenSegmentsMuxDisplay8setPortsEPVhS1_h10LogicLevel:00000014 .Loc.135
C:\Users\Aluno\AppData\Local\Temp\ccYjLeON.s:474    .text._ZN23SevenSegmentsMuxDisplay8setPortsEPVhS1_h10LogicLevel:00000018 .Loc.136
C:\Users\Aluno\AppData\Local\Temp\ccYjLeON.s:475    .text._ZN23SevenSegmentsMuxDisplay8setPortsEPVhS1_h10LogicLevel:00000018 .Loc.137
C:\Users\Aluno\AppData\Local\Temp\ccYjLeON.s:478    .text._ZN23SevenSegmentsMuxDisplay8setPortsEPVhS1_h10LogicLevel:0000001c .Loc.138
C:\Users\Aluno\AppData\Local\Temp\ccYjLeON.s:479    .text._ZN23SevenSegmentsMuxDisplay8setPortsEPVhS1_h10LogicLevel:0000001c .Loc.139
C:\Users\Aluno\AppData\Local\Temp\ccYjLeON.s:482    .text._ZN23SevenSegmentsMuxDisplay8setPortsEPVhS1_h10LogicLevel:00000020 .Loc.140
C:\Users\Aluno\AppData\Local\Temp\ccYjLeON.s:483    .text._ZN23SevenSegmentsMuxDisplay8setPortsEPVhS1_h10LogicLevel:00000020 .Loc.141
C:\Users\Aluno\AppData\Local\Temp\ccYjLeON.s:486    .text._ZN23SevenSegmentsMuxDisplay8setPortsEPVhS1_h10LogicLevel:00000024 .Loc.142
C:\Users\Aluno\AppData\Local\Temp\ccYjLeON.s:487    .text._ZN23SevenSegmentsMuxDisplay8setPortsEPVhS1_h10LogicLevel:00000024 .Loc.143
GAS LISTING C:\Users\Aluno\AppData\Local\Temp\ccYjLeON.s 			page 43


C:\Users\Aluno\AppData\Local\Temp\ccYjLeON.s:490    .text._ZN23SevenSegmentsMuxDisplay8setPortsEPVhS1_h10LogicLevel:00000026 .Loc.144
C:\Users\Aluno\AppData\Local\Temp\ccYjLeON.s:493    .text._ZN23SevenSegmentsMuxDisplay8setPortsEPVhS1_h10LogicLevel:0000002a .Loc.145
C:\Users\Aluno\AppData\Local\Temp\ccYjLeON.s:494    .text._ZN23SevenSegmentsMuxDisplay8setPortsEPVhS1_h10LogicLevel:0000002a .Loc.146
C:\Users\Aluno\AppData\Local\Temp\ccYjLeON.s:498    .text._ZN23SevenSegmentsMuxDisplay8setPortsEPVhS1_h10LogicLevel:00000030 .Loc.147
C:\Users\Aluno\AppData\Local\Temp\ccYjLeON.s:499    .text._ZN23SevenSegmentsMuxDisplay8setPortsEPVhS1_h10LogicLevel:00000030 .Loc.148
C:\Users\Aluno\AppData\Local\Temp\ccYjLeON.s:503    .text._ZN23SevenSegmentsMuxDisplay8setPortsEPVhS1_h10LogicLevel:00000036 .Loc.149
C:\Users\Aluno\AppData\Local\Temp\ccYjLeON.s:504    .text._ZN23SevenSegmentsMuxDisplay8setPortsEPVhS1_h10LogicLevel:00000036 .Loc.150
C:\Users\Aluno\AppData\Local\Temp\ccYjLeON.s:508    .text._ZN23SevenSegmentsMuxDisplay8setPortsEPVhS1_h10LogicLevel:0000003c .Loc.151
C:\Users\Aluno\AppData\Local\Temp\ccYjLeON.s:511    .text._ZN23SevenSegmentsMuxDisplay8setPortsEPVhS1_h10LogicLevel:00000042 L0
C:\Users\Aluno\AppData\Local\Temp\ccYjLeON.s:513    .text._ZN23SevenSegmentsMuxDisplay8setPortsEPVhS1_h10LogicLevel:00000044 .Loc.152
C:\Users\Aluno\AppData\Local\Temp\ccYjLeON.s:514    .text._ZN23SevenSegmentsMuxDisplay8setPortsEPVhS1_h10LogicLevel:00000044 .Loc.153
C:\Users\Aluno\AppData\Local\Temp\ccYjLeON.s:518    .text._ZN23SevenSegmentsMuxDisplay8setPortsEPVhS1_h10LogicLevel:0000004a .Loc.154
C:\Users\Aluno\AppData\Local\Temp\ccYjLeON.s:521    .text._ZN23SevenSegmentsMuxDisplay8setPortsEPVhS1_h10LogicLevel:00000050 L0
C:\Users\Aluno\AppData\Local\Temp\ccYjLeON.s:523    .text._ZN23SevenSegmentsMuxDisplay8setPortsEPVhS1_h10LogicLevel:00000052 .Loc.155
C:\Users\Aluno\AppData\Local\Temp\ccYjLeON.s:525    .text._ZN23SevenSegmentsMuxDisplay8setPortsEPVhS1_h10LogicLevel:00000056 L0
C:\Users\Aluno\AppData\Local\Temp\ccYjLeON.s:527    .text._ZN23SevenSegmentsMuxDisplay8setPortsEPVhS1_h10LogicLevel:00000058 .Loc.156
C:\Users\Aluno\AppData\Local\Temp\ccYjLeON.s:528    .text._ZN23SevenSegmentsMuxDisplay8setPortsEPVhS1_h10LogicLevel:00000058 .Loc.157
C:\Users\Aluno\AppData\Local\Temp\ccYjLeON.s:536    .text._ZN23SevenSegmentsMuxDisplay8setPortsEPVhS1_h10LogicLevel:00000066 .Loc.158
C:\Users\Aluno\AppData\Local\Temp\ccYjLeON.s:546    .text._ZN23SevenSegmentsMuxDisplay8setPortsEPVhS1_h10LogicLevel:00000078 .Loc.159
C:\Users\Aluno\AppData\Local\Temp\ccYjLeON.s:549    .text._ZN23SevenSegmentsMuxDisplay8setPortsEPVhS1_h10LogicLevel:0000007c .Loc.160
C:\Users\Aluno\AppData\Local\Temp\ccYjLeON.s:550    .text._ZN23SevenSegmentsMuxDisplay8setPortsEPVhS1_h10LogicLevel:0000007c .Loc.161
C:\Users\Aluno\AppData\Local\Temp\ccYjLeON.s:552    .text._ZN23SevenSegmentsMuxDisplay8setPortsEPVhS1_h10LogicLevel:0000007e .Loc.162
C:\Users\Aluno\AppData\Local\Temp\ccYjLeON.s:555    .text._ZN23SevenSegmentsMuxDisplay8setPortsEPVhS1_h10LogicLevel:00000082 .Loc.163
C:\Users\Aluno\AppData\Local\Temp\ccYjLeON.s:556    .text._ZN23SevenSegmentsMuxDisplay8setPortsEPVhS1_h10LogicLevel:00000082 .Loc.164
C:\Users\Aluno\AppData\Local\Temp\ccYjLeON.s:570    .text._ZN23SevenSegmentsMuxDisplay8setPortsEPVhS1_h10LogicLevel:0000009e .Loc.165
C:\Users\Aluno\AppData\Local\Temp\ccYjLeON.s:573    .text._ZN23SevenSegmentsMuxDisplay8setPortsEPVhS1_h10LogicLevel:000000a2 .Loc.166
C:\Users\Aluno\AppData\Local\Temp\ccYjLeON.s:574    .text._ZN23SevenSegmentsMuxDisplay8setPortsEPVhS1_h10LogicLevel:000000a2 .Loc.167
C:\Users\Aluno\AppData\Local\Temp\ccYjLeON.s:576    .text._ZN23SevenSegmentsMuxDisplay8setPortsEPVhS1_h10LogicLevel:000000a4 .Loc.168
C:\Users\Aluno\AppData\Local\Temp\ccYjLeON.s:579    .text._ZN23SevenSegmentsMuxDisplay8setPortsEPVhS1_h10LogicLevel:000000a8 .Loc.169
C:\Users\Aluno\AppData\Local\Temp\ccYjLeON.s:580    .text._ZN23SevenSegmentsMuxDisplay8setPortsEPVhS1_h10LogicLevel:000000a8 .Loc.170
C:\Users\Aluno\AppData\Local\Temp\ccYjLeON.s:583    .text._ZN23SevenSegmentsMuxDisplay8setPortsEPVhS1_h10LogicLevel:000000aa .Loc.171
C:\Users\Aluno\AppData\Local\Temp\ccYjLeON.s:588    .text._ZN23SevenSegmentsMuxDisplay8setPortsEPVhS1_h10LogicLevel:000000b2 .Loc.172
C:\Users\Aluno\AppData\Local\Temp\ccYjLeON.s:589    .text._ZN23SevenSegmentsMuxDisplay8setPortsEPVhS1_h10LogicLevel:000000b2 .Loc.173
C:\Users\Aluno\AppData\Local\Temp\ccYjLeON.s:594    .text._ZN23SevenSegmentsMuxDisplay8setPortsEPVhS1_h10LogicLevel:000000ba .Loc.174
C:\Users\Aluno\AppData\Local\Temp\ccYjLeON.s:595    .text._ZN23SevenSegmentsMuxDisplay8setPortsEPVhS1_h10LogicLevel:000000ba .Loc.175
C:\Users\Aluno\AppData\Local\Temp\ccYjLeON.s:598    .text._ZN23SevenSegmentsMuxDisplay8setPortsEPVhS1_h10LogicLevel:000000be .Loc.176
C:\Users\Aluno\AppData\Local\Temp\ccYjLeON.s:599    .text._ZN23SevenSegmentsMuxDisplay8setPortsEPVhS1_h10LogicLevel:000000be .Loc.177
C:\Users\Aluno\AppData\Local\Temp\ccYjLeON.s:602    .text._ZN23SevenSegmentsMuxDisplay8setPortsEPVhS1_h10LogicLevel:000000c2 .Loc.178
C:\Users\Aluno\AppData\Local\Temp\ccYjLeON.s:603    .text._ZN23SevenSegmentsMuxDisplay8setPortsEPVhS1_h10LogicLevel:000000c2 .Loc.179
C:\Users\Aluno\AppData\Local\Temp\ccYjLeON.s:604    .text._ZN23SevenSegmentsMuxDisplay8setPortsEPVhS1_h10LogicLevel:000000c2 .Loc.180
C:\Users\Aluno\AppData\Local\Temp\ccYjLeON.s:605    .text._ZN23SevenSegmentsMuxDisplay8setPortsEPVhS1_h10LogicLevel:000000c2 .Loc.181
C:\Users\Aluno\AppData\Local\Temp\ccYjLeON.s:610    .text._ZN23SevenSegmentsMuxDisplay8setPortsEPVhS1_h10LogicLevel:000000c6 .Loc.182
C:\Users\Aluno\AppData\Local\Temp\ccYjLeON.s:611    .text._ZN23SevenSegmentsMuxDisplay8setPortsEPVhS1_h10LogicLevel:000000c6 .Loc.183
C:\Users\Aluno\AppData\Local\Temp\ccYjLeON.s:612    .text._ZN23SevenSegmentsMuxDisplay8setPortsEPVhS1_h10LogicLevel:000000c6 .Loc.184
C:\Users\Aluno\AppData\Local\Temp\ccYjLeON.s:613    .text._ZN23SevenSegmentsMuxDisplay8setPortsEPVhS1_h10LogicLevel:000000c6 .Loc.185
C:\Users\Aluno\AppData\Local\Temp\ccYjLeON.s:618    .text._ZN23SevenSegmentsMuxDisplay8setPortsEPVhS1_h10LogicLevel:000000ce .Loc.186
C:\Users\Aluno\AppData\Local\Temp\ccYjLeON.s:619    .text._ZN23SevenSegmentsMuxDisplay8setPortsEPVhS1_h10LogicLevel:000000ce .Loc.187
C:\Users\Aluno\AppData\Local\Temp\ccYjLeON.s:624    .text._ZN23SevenSegmentsMuxDisplay8setPortsEPVhS1_h10LogicLevel:000000d0 .Loc.188
C:\Users\Aluno\AppData\Local\Temp\ccYjLeON.s:629    .text._ZN23SevenSegmentsMuxDisplay8setPortsEPVhS1_h10LogicLevel:000000d6 .Loc.189
C:\Users\Aluno\AppData\Local\Temp\ccYjLeON.s:633    .text._ZN23SevenSegmentsMuxDisplay8setPortsEPVhS1_h10LogicLevel:000000d8 .Loc.190
C:\Users\Aluno\AppData\Local\Temp\ccYjLeON.s:634    .text._ZN23SevenSegmentsMuxDisplay8setPortsEPVhS1_h10LogicLevel:000000d8 .Loc.191
C:\Users\Aluno\AppData\Local\Temp\ccYjLeON.s:635    .text._ZN23SevenSegmentsMuxDisplay8setPortsEPVhS1_h10LogicLevel:000000d8 .Loc.192
C:\Users\Aluno\AppData\Local\Temp\ccYjLeON.s:636    .text._ZN23SevenSegmentsMuxDisplay8setPortsEPVhS1_h10LogicLevel:000000d8 .Loc.193
C:\Users\Aluno\AppData\Local\Temp\ccYjLeON.s:641    .text._ZN23SevenSegmentsMuxDisplay8setPortsEPVhS1_h10LogicLevel:000000e0 .Loc.194
C:\Users\Aluno\AppData\Local\Temp\ccYjLeON.s:642    .text._ZN23SevenSegmentsMuxDisplay8setPortsEPVhS1_h10LogicLevel:000000e0 .Loc.195
C:\Users\Aluno\AppData\Local\Temp\ccYjLeON.s:646    .text._ZN23SevenSegmentsMuxDisplay8setPortsEPVhS1_h10LogicLevel:000000e4 .Loc.196
C:\Users\Aluno\AppData\Local\Temp\ccYjLeON.s:647    .text._ZN23SevenSegmentsMuxDisplay8setPortsEPVhS1_h10LogicLevel:000000e4 .Loc.197
GAS LISTING C:\Users\Aluno\AppData\Local\Temp\ccYjLeON.s 			page 44


C:\Users\Aluno\AppData\Local\Temp\ccYjLeON.s:648    .text._ZN23SevenSegmentsMuxDisplay8setPortsEPVhS1_h10LogicLevel:000000e4 .Loc.198
C:\Users\Aluno\AppData\Local\Temp\ccYjLeON.s:649    .text._ZN23SevenSegmentsMuxDisplay8setPortsEPVhS1_h10LogicLevel:000000e4 .Loc.199
C:\Users\Aluno\AppData\Local\Temp\ccYjLeON.s:654    .text._ZN23SevenSegmentsMuxDisplay8setPortsEPVhS1_h10LogicLevel:000000ec .Loc.200
C:\Users\Aluno\AppData\Local\Temp\ccYjLeON.s:655    .text._ZN23SevenSegmentsMuxDisplay8setPortsEPVhS1_h10LogicLevel:000000ec .Loc.201
C:\Users\Aluno\AppData\Local\Temp\ccYjLeON.s:658    .text._ZN23SevenSegmentsMuxDisplay8setPortsEPVhS1_h10LogicLevel:000000f0 L0
C:\Users\Aluno\AppData\Local\Temp\ccYjLeON.s:664    .text._ZN23SevenSegmentsMuxDisplay13showNextDigitEv:00000000 _ZN23SevenSegmentsMuxDisplay13showNextDigitEv
C:\Users\Aluno\AppData\Local\Temp\ccYjLeON.s:667    .text._ZN23SevenSegmentsMuxDisplay13showNextDigitEv:00000000 .Loc.202
C:\Users\Aluno\AppData\Local\Temp\ccYjLeON.s:668    .text._ZN23SevenSegmentsMuxDisplay13showNextDigitEv:00000000 L0
C:\Users\Aluno\AppData\Local\Temp\ccYjLeON.s:669    .text._ZN23SevenSegmentsMuxDisplay13showNextDigitEv:00000000 .Loc.203
C:\Users\Aluno\AppData\Local\Temp\ccYjLeON.s:691    .text._ZN23SevenSegmentsMuxDisplay13showNextDigitEv:0000000e .Loc.204
C:\Users\Aluno\AppData\Local\Temp\ccYjLeON.s:692    .text._ZN23SevenSegmentsMuxDisplay13showNextDigitEv:0000000e .Loc.205
C:\Users\Aluno\AppData\Local\Temp\ccYjLeON.s:693    .text._ZN23SevenSegmentsMuxDisplay13showNextDigitEv:0000000e .Loc.206
C:\Users\Aluno\AppData\Local\Temp\ccYjLeON.s:694    .text._ZN23SevenSegmentsMuxDisplay13showNextDigitEv:0000000e .Loc.207
C:\Users\Aluno\AppData\Local\Temp\ccYjLeON.s:698    .text._ZN23SevenSegmentsMuxDisplay13showNextDigitEv:00000014 .Loc.208
C:\Users\Aluno\AppData\Local\Temp\ccYjLeON.s:700    .text._ZN23SevenSegmentsMuxDisplay13showNextDigitEv:00000018 L0
C:\Users\Aluno\AppData\Local\Temp\ccYjLeON.s:702    .text._ZN23SevenSegmentsMuxDisplay13showNextDigitEv:0000001a .Loc.209
C:\Users\Aluno\AppData\Local\Temp\ccYjLeON.s:703    .text._ZN23SevenSegmentsMuxDisplay13showNextDigitEv:0000001a .Loc.210
C:\Users\Aluno\AppData\Local\Temp\ccYjLeON.s:706    .text._ZN23SevenSegmentsMuxDisplay13showNextDigitEv:0000001c .Loc.211
C:\Users\Aluno\AppData\Local\Temp\ccYjLeON.s:711    .text._ZN23SevenSegmentsMuxDisplay13showNextDigitEv:00000022 .Loc.212
C:\Users\Aluno\AppData\Local\Temp\ccYjLeON.s:714    .text._ZN23SevenSegmentsMuxDisplay13showNextDigitEv:00000026 .Loc.213
C:\Users\Aluno\AppData\Local\Temp\ccYjLeON.s:716    .text._ZN23SevenSegmentsMuxDisplay13showNextDigitEv:00000028 .Loc.214
C:\Users\Aluno\AppData\Local\Temp\ccYjLeON.s:717    .text._ZN23SevenSegmentsMuxDisplay13showNextDigitEv:00000028 .Loc.215
C:\Users\Aluno\AppData\Local\Temp\ccYjLeON.s:719    .text._ZN23SevenSegmentsMuxDisplay13showNextDigitEv:0000002a .Loc.216
C:\Users\Aluno\AppData\Local\Temp\ccYjLeON.s:722    .text._ZN23SevenSegmentsMuxDisplay13showNextDigitEv:0000002e .Loc.217
C:\Users\Aluno\AppData\Local\Temp\ccYjLeON.s:741    .text._ZN23SevenSegmentsMuxDisplay13showNextDigitEv:0000004c .Loc.218
C:\Users\Aluno\AppData\Local\Temp\ccYjLeON.s:742    .text._ZN23SevenSegmentsMuxDisplay13showNextDigitEv:0000004c .Loc.219
C:\Users\Aluno\AppData\Local\Temp\ccYjLeON.s:749    .text._ZN23SevenSegmentsMuxDisplay13showNextDigitEv:00000058 .Loc.220
C:\Users\Aluno\AppData\Local\Temp\ccYjLeON.s:751    .text._ZN23SevenSegmentsMuxDisplay13showNextDigitEv:0000005a .Loc.221
C:\Users\Aluno\AppData\Local\Temp\ccYjLeON.s:753    .text._ZN23SevenSegmentsMuxDisplay13showNextDigitEv:0000005e L0
C:\Users\Aluno\AppData\Local\Temp\ccYjLeON.s:755    .text._ZN23SevenSegmentsMuxDisplay13showNextDigitEv:00000060 .Loc.222
C:\Users\Aluno\AppData\Local\Temp\ccYjLeON.s:757    .text._ZN23SevenSegmentsMuxDisplay13showNextDigitEv:00000062 .Loc.223
C:\Users\Aluno\AppData\Local\Temp\ccYjLeON.s:760    .text._ZN23SevenSegmentsMuxDisplay13showNextDigitEv:00000064 .Loc.224
C:\Users\Aluno\AppData\Local\Temp\ccYjLeON.s:769    .text._ZN23SevenSegmentsMuxDisplay13showNextDigitEv:00000074 .Loc.225
C:\Users\Aluno\AppData\Local\Temp\ccYjLeON.s:770    .text._ZN23SevenSegmentsMuxDisplay13showNextDigitEv:00000074 .Loc.226
C:\Users\Aluno\AppData\Local\Temp\ccYjLeON.s:773    .text._ZN23SevenSegmentsMuxDisplay13showNextDigitEv:00000078 .Loc.227
C:\Users\Aluno\AppData\Local\Temp\ccYjLeON.s:783    .text._ZN23SevenSegmentsMuxDisplay13showNextDigitEv:0000008a .Loc.228
C:\Users\Aluno\AppData\Local\Temp\ccYjLeON.s:786    .text._ZN23SevenSegmentsMuxDisplay13showNextDigitEv:0000008e .Loc.229
C:\Users\Aluno\AppData\Local\Temp\ccYjLeON.s:787    .text._ZN23SevenSegmentsMuxDisplay13showNextDigitEv:0000008e .Loc.230
C:\Users\Aluno\AppData\Local\Temp\ccYjLeON.s:789    .text._ZN23SevenSegmentsMuxDisplay13showNextDigitEv:00000090 .Loc.231
C:\Users\Aluno\AppData\Local\Temp\ccYjLeON.s:792    .text._ZN23SevenSegmentsMuxDisplay13showNextDigitEv:00000094 .Loc.232
C:\Users\Aluno\AppData\Local\Temp\ccYjLeON.s:820    .text._ZN23SevenSegmentsMuxDisplay13showNextDigitEv:000000c4 .Loc.233
C:\Users\Aluno\AppData\Local\Temp\ccYjLeON.s:821    .text._ZN23SevenSegmentsMuxDisplay13showNextDigitEv:000000c4 .Loc.234
C:\Users\Aluno\AppData\Local\Temp\ccYjLeON.s:824    .text._ZN23SevenSegmentsMuxDisplay13showNextDigitEv:000000c8 .Loc.235
C:\Users\Aluno\AppData\Local\Temp\ccYjLeON.s:825    .text._ZN23SevenSegmentsMuxDisplay13showNextDigitEv:000000c8 .Loc.236
C:\Users\Aluno\AppData\Local\Temp\ccYjLeON.s:826    .text._ZN23SevenSegmentsMuxDisplay13showNextDigitEv:000000c8 .Loc.237
C:\Users\Aluno\AppData\Local\Temp\ccYjLeON.s:828    .text._ZN23SevenSegmentsMuxDisplay13showNextDigitEv:000000c8 .Loc.238
C:\Users\Aluno\AppData\Local\Temp\ccYjLeON.s:839    .text._ZN23SevenSegmentsMuxDisplay13showNextDigitEv:000000d6 .Loc.239
C:\Users\Aluno\AppData\Local\Temp\ccYjLeON.s:840    .text._ZN23SevenSegmentsMuxDisplay13showNextDigitEv:000000d6 .Loc.240
C:\Users\Aluno\AppData\Local\Temp\ccYjLeON.s:844    .text._ZN23SevenSegmentsMuxDisplay13showNextDigitEv:000000da .Loc.241
C:\Users\Aluno\AppData\Local\Temp\ccYjLeON.s:847    .text._ZN23SevenSegmentsMuxDisplay13showNextDigitEv:000000de .Loc.242
C:\Users\Aluno\AppData\Local\Temp\ccYjLeON.s:848    .text._ZN23SevenSegmentsMuxDisplay13showNextDigitEv:000000de .Loc.243
C:\Users\Aluno\AppData\Local\Temp\ccYjLeON.s:849    .text._ZN23SevenSegmentsMuxDisplay13showNextDigitEv:000000de .Loc.244
C:\Users\Aluno\AppData\Local\Temp\ccYjLeON.s:850    .text._ZN23SevenSegmentsMuxDisplay13showNextDigitEv:000000de .Loc.245
C:\Users\Aluno\AppData\Local\Temp\ccYjLeON.s:853    .text._ZN23SevenSegmentsMuxDisplay13showNextDigitEv:000000e0 .Loc.246
C:\Users\Aluno\AppData\Local\Temp\ccYjLeON.s:857    .text._ZN23SevenSegmentsMuxDisplay13showNextDigitEv:000000e4 .Loc.247
C:\Users\Aluno\AppData\Local\Temp\ccYjLeON.s:876    .text._ZN23SevenSegmentsMuxDisplay13showNextDigitEv:00000102 .Loc.248
C:\Users\Aluno\AppData\Local\Temp\ccYjLeON.s:880    .text._ZN23SevenSegmentsMuxDisplay13showNextDigitEv:00000106 .Loc.249
GAS LISTING C:\Users\Aluno\AppData\Local\Temp\ccYjLeON.s 			page 45


C:\Users\Aluno\AppData\Local\Temp\ccYjLeON.s:907    .text._ZN23SevenSegmentsMuxDisplay13showNextDigitEv:00000136 L0
C:\Users\Aluno\AppData\Local\Temp\ccYjLeON.s:913    .text._ZN23SevenSegmentsMuxDisplay17updateDigitValuesEPKhPKb:00000000 _ZN23SevenSegmentsMuxDisplay17updateDigitValuesEPKhPKb
C:\Users\Aluno\AppData\Local\Temp\ccYjLeON.s:916    .text._ZN23SevenSegmentsMuxDisplay17updateDigitValuesEPKhPKb:00000000 .Loc.250
C:\Users\Aluno\AppData\Local\Temp\ccYjLeON.s:917    .text._ZN23SevenSegmentsMuxDisplay17updateDigitValuesEPKhPKb:00000000 L0
C:\Users\Aluno\AppData\Local\Temp\ccYjLeON.s:918    .text._ZN23SevenSegmentsMuxDisplay17updateDigitValuesEPKhPKb:00000000 .Loc.251
C:\Users\Aluno\AppData\Local\Temp\ccYjLeON.s:935    .text._ZN23SevenSegmentsMuxDisplay17updateDigitValuesEPKhPKb:0000000e .Loc.252
C:\Users\Aluno\AppData\Local\Temp\ccYjLeON.s:937    .text._ZN23SevenSegmentsMuxDisplay17updateDigitValuesEPKhPKb:00000010 .Loc.253
C:\Users\Aluno\AppData\Local\Temp\ccYjLeON.s:938    .text._ZN23SevenSegmentsMuxDisplay17updateDigitValuesEPKhPKb:00000010 .Loc.254
C:\Users\Aluno\AppData\Local\Temp\ccYjLeON.s:939    .text._ZN23SevenSegmentsMuxDisplay17updateDigitValuesEPKhPKb:00000010 .Loc.255
C:\Users\Aluno\AppData\Local\Temp\ccYjLeON.s:943    .text._ZN23SevenSegmentsMuxDisplay17updateDigitValuesEPKhPKb:00000014 .Loc.256
C:\Users\Aluno\AppData\Local\Temp\ccYjLeON.s:946    .text._ZN23SevenSegmentsMuxDisplay17updateDigitValuesEPKhPKb:00000016 .Loc.257
C:\Users\Aluno\AppData\Local\Temp\ccYjLeON.s:950    .text._ZN23SevenSegmentsMuxDisplay17updateDigitValuesEPKhPKb:00000018 .Loc.258
C:\Users\Aluno\AppData\Local\Temp\ccYjLeON.s:952    .text._ZN23SevenSegmentsMuxDisplay17updateDigitValuesEPKhPKb:00000018 .Loc.259
C:\Users\Aluno\AppData\Local\Temp\ccYjLeON.s:953    .text._ZN23SevenSegmentsMuxDisplay17updateDigitValuesEPKhPKb:00000018 .Loc.260
C:\Users\Aluno\AppData\Local\Temp\ccYjLeON.s:954    .text._ZN23SevenSegmentsMuxDisplay17updateDigitValuesEPKhPKb:00000018 .Loc.261
C:\Users\Aluno\AppData\Local\Temp\ccYjLeON.s:955    .text._ZN23SevenSegmentsMuxDisplay17updateDigitValuesEPKhPKb:00000018 .Loc.262
C:\Users\Aluno\AppData\Local\Temp\ccYjLeON.s:959    .text._ZN23SevenSegmentsMuxDisplay17updateDigitValuesEPKhPKb:0000001c .Loc.263
C:\Users\Aluno\AppData\Local\Temp\ccYjLeON.s:962    .text._ZN23SevenSegmentsMuxDisplay17updateDigitValuesEPKhPKb:00000020 .Loc.264
C:\Users\Aluno\AppData\Local\Temp\ccYjLeON.s:963    .text._ZN23SevenSegmentsMuxDisplay17updateDigitValuesEPKhPKb:00000020 .Loc.265
C:\Users\Aluno\AppData\Local\Temp\ccYjLeON.s:969    .text._ZN23SevenSegmentsMuxDisplay17updateDigitValuesEPKhPKb:00000024 .Loc.266
C:\Users\Aluno\AppData\Local\Temp\ccYjLeON.s:973    .text._ZN23SevenSegmentsMuxDisplay17updateDigitValuesEPKhPKb:00000026 .Loc.267
C:\Users\Aluno\AppData\Local\Temp\ccYjLeON.s:974    .text._ZN23SevenSegmentsMuxDisplay17updateDigitValuesEPKhPKb:00000026 .Loc.268
C:\Users\Aluno\AppData\Local\Temp\ccYjLeON.s:978    .text._ZN23SevenSegmentsMuxDisplay17updateDigitValuesEPKhPKb:0000002c .Loc.269
C:\Users\Aluno\AppData\Local\Temp\ccYjLeON.s:981    .text._ZN23SevenSegmentsMuxDisplay17updateDigitValuesEPKhPKb:00000030 .Loc.270
C:\Users\Aluno\AppData\Local\Temp\ccYjLeON.s:985    .text._ZN23SevenSegmentsMuxDisplay17updateDigitValuesEPKhPKb:00000036 .Loc.271
C:\Users\Aluno\AppData\Local\Temp\ccYjLeON.s:986    .text._ZN23SevenSegmentsMuxDisplay17updateDigitValuesEPKhPKb:00000036 .Loc.272
C:\Users\Aluno\AppData\Local\Temp\ccYjLeON.s:989    .text._ZN23SevenSegmentsMuxDisplay17updateDigitValuesEPKhPKb:0000003a .Loc.273
C:\Users\Aluno\AppData\Local\Temp\ccYjLeON.s:994    .text._ZN23SevenSegmentsMuxDisplay17updateDigitValuesEPKhPKb:00000042 .Loc.274
C:\Users\Aluno\AppData\Local\Temp\ccYjLeON.s:999    .text._ZN23SevenSegmentsMuxDisplay17updateDigitValuesEPKhPKb:0000004a .Loc.275
C:\Users\Aluno\AppData\Local\Temp\ccYjLeON.s:1000   .text._ZN23SevenSegmentsMuxDisplay17updateDigitValuesEPKhPKb:0000004a .Loc.276
C:\Users\Aluno\AppData\Local\Temp\ccYjLeON.s:1004   .text._ZN23SevenSegmentsMuxDisplay17updateDigitValuesEPKhPKb:00000050 .Loc.277
C:\Users\Aluno\AppData\Local\Temp\ccYjLeON.s:1005   .text._ZN23SevenSegmentsMuxDisplay17updateDigitValuesEPKhPKb:00000050 .Loc.278
C:\Users\Aluno\AppData\Local\Temp\ccYjLeON.s:1010   .text._ZN23SevenSegmentsMuxDisplay17updateDigitValuesEPKhPKb:00000058 .Loc.279
C:\Users\Aluno\AppData\Local\Temp\ccYjLeON.s:1018   .text._ZN23SevenSegmentsMuxDisplay17updateDigitValuesEPKhPKb:00000062 .Loc.280
C:\Users\Aluno\AppData\Local\Temp\ccYjLeON.s:1020   .text._ZN23SevenSegmentsMuxDisplay17updateDigitValuesEPKhPKb:00000062 .Loc.281
C:\Users\Aluno\AppData\Local\Temp\ccYjLeON.s:1021   .text._ZN23SevenSegmentsMuxDisplay17updateDigitValuesEPKhPKb:00000062 .Loc.282
C:\Users\Aluno\AppData\Local\Temp\ccYjLeON.s:1024   .text._ZN23SevenSegmentsMuxDisplay17updateDigitValuesEPKhPKb:00000066 .Loc.283
C:\Users\Aluno\AppData\Local\Temp\ccYjLeON.s:1025   .text._ZN23SevenSegmentsMuxDisplay17updateDigitValuesEPKhPKb:00000066 .Loc.284
C:\Users\Aluno\AppData\Local\Temp\ccYjLeON.s:1026   .text._ZN23SevenSegmentsMuxDisplay17updateDigitValuesEPKhPKb:00000066 .Loc.285
C:\Users\Aluno\AppData\Local\Temp\ccYjLeON.s:1027   .text._ZN23SevenSegmentsMuxDisplay17updateDigitValuesEPKhPKb:00000066 .Loc.286
C:\Users\Aluno\AppData\Local\Temp\ccYjLeON.s:1032   .text._ZN23SevenSegmentsMuxDisplay17updateDigitValuesEPKhPKb:00000068 .Loc.287
C:\Users\Aluno\AppData\Local\Temp\ccYjLeON.s:1036   .text._ZN23SevenSegmentsMuxDisplay17updateDigitValuesEPKhPKb:0000006e L0
C:\Users\Aluno\AppData\Local\Temp\ccYjLeON.s:33     .text._Z7getTickv:00000008 L0
C:\Users\Aluno\AppData\Local\Temp\ccYjLeON.s:153    .text._ZN23SevenSegmentsMuxDisplayC2Ev:0000005c L0
C:\Users\Aluno\AppData\Local\Temp\ccYjLeON.s:178    .text._ZN23SevenSegmentsMuxDisplayD2Ev:00000002 L0
C:\Users\Aluno\AppData\Local\Temp\ccYjLeON.s:436    .text._ZN23SevenSegmentsMuxDisplay4initENS_6DigitsE24SevenSegmentsDisplayType:00000112 L0
C:\Users\Aluno\AppData\Local\Temp\ccYjLeON.s:661    .text._ZN23SevenSegmentsMuxDisplay8setPortsEPVhS1_h10LogicLevel:000000f0 L0
C:\Users\Aluno\AppData\Local\Temp\ccYjLeON.s:910    .text._ZN23SevenSegmentsMuxDisplay13showNextDigitEv:00000136 L0
C:\Users\Aluno\AppData\Local\Temp\ccYjLeON.s:1039   .text._ZN23SevenSegmentsMuxDisplay17updateDigitValuesEPKhPKb:0000006e L0
                     .debug_frame:00000000 L0
C:\Users\Aluno\AppData\Local\Temp\ccYjLeON.s:113    .text._ZN23SevenSegmentsMuxDisplayC2Ev:00000040 .L3
C:\Users\Aluno\AppData\Local\Temp\ccYjLeON.s:96     .text._ZN23SevenSegmentsMuxDisplayC2Ev:0000002c .L4
C:\Users\Aluno\AppData\Local\Temp\ccYjLeON.s:362    .text._ZN23SevenSegmentsMuxDisplay4initENS_6DigitsE24SevenSegmentsDisplayType:000000ca .L15
C:\Users\Aluno\AppData\Local\Temp\ccYjLeON.s:382    .text._ZN23SevenSegmentsMuxDisplay4initENS_6DigitsE24SevenSegmentsDisplayType:000000dc .L16
C:\Users\Aluno\AppData\Local\Temp\ccYjLeON.s:396    .text._ZN23SevenSegmentsMuxDisplay4initENS_6DigitsE24SevenSegmentsDisplayType:000000e8 .L17
C:\Users\Aluno\AppData\Local\Temp\ccYjLeON.s:290    .text._ZN23SevenSegmentsMuxDisplay4initENS_6DigitsE24SevenSegmentsDisplayType:00000074 .L21
C:\Users\Aluno\AppData\Local\Temp\ccYjLeON.s:287    .text._ZN23SevenSegmentsMuxDisplay4initENS_6DigitsE24SevenSegmentsDisplayType:00000070 .L11
GAS LISTING C:\Users\Aluno\AppData\Local\Temp\ccYjLeON.s 			page 46


C:\Users\Aluno\AppData\Local\Temp\ccYjLeON.s:410    .text._ZN23SevenSegmentsMuxDisplay4initENS_6DigitsE24SevenSegmentsDisplayType:000000f4 .L14
C:\Users\Aluno\AppData\Local\Temp\ccYjLeON.s:414    .text._ZN23SevenSegmentsMuxDisplay4initENS_6DigitsE24SevenSegmentsDisplayType:000000f8 .L12
C:\Users\Aluno\AppData\Local\Temp\ccYjLeON.s:322    .text._ZN23SevenSegmentsMuxDisplay4initENS_6DigitsE24SevenSegmentsDisplayType:0000009e .L22
C:\Users\Aluno\AppData\Local\Temp\ccYjLeON.s:319    .text._ZN23SevenSegmentsMuxDisplay4initENS_6DigitsE24SevenSegmentsDisplayType:0000009a .L12
C:\Users\Aluno\AppData\Local\Temp\ccYjLeON.s:373    .text._ZN23SevenSegmentsMuxDisplay4initENS_6DigitsE24SevenSegmentsDisplayType:000000d2 .L6
C:\Users\Aluno\AppData\Local\Temp\ccYjLeON.s:300    .text._ZN23SevenSegmentsMuxDisplay4initENS_6DigitsE24SevenSegmentsDisplayType:00000082 .L11
C:\Users\Aluno\AppData\Local\Temp\ccYjLeON.s:425    .text._ZN23SevenSegmentsMuxDisplay4initENS_6DigitsE24SevenSegmentsDisplayType:00000108 .L23
C:\Users\Aluno\AppData\Local\Temp\ccYjLeON.s:422    .text._ZN23SevenSegmentsMuxDisplay4initENS_6DigitsE24SevenSegmentsDisplayType:00000104 .L13
C:\Users\Aluno\AppData\Local\Temp\ccYjLeON.s:328    .text._ZN23SevenSegmentsMuxDisplay4initENS_6DigitsE24SevenSegmentsDisplayType:000000a8 .L13
C:\Users\Aluno\AppData\Local\Temp\ccYjLeON.s:609    .text._ZN23SevenSegmentsMuxDisplay8setPortsEPVhS1_h10LogicLevel:000000c6 .L23
C:\Users\Aluno\AppData\Local\Temp\ccYjLeON.s:632    .text._ZN23SevenSegmentsMuxDisplay8setPortsEPVhS1_h10LogicLevel:000000d8 .L24
C:\Users\Aluno\AppData\Local\Temp\ccYjLeON.s:645    .text._ZN23SevenSegmentsMuxDisplay8setPortsEPVhS1_h10LogicLevel:000000e4 .L25
C:\Users\Aluno\AppData\Local\Temp\ccYjLeON.s:622    .text._ZN23SevenSegmentsMuxDisplay8setPortsEPVhS1_h10LogicLevel:000000d0 .L18
C:\Users\Aluno\AppData\Local\Temp\ccYjLeON.s:838    .text._ZN23SevenSegmentsMuxDisplay13showNextDigitEv:000000d6 .L37
C:\Users\Aluno\AppData\Local\Temp\ccYjLeON.s:852    .text._ZN23SevenSegmentsMuxDisplay13showNextDigitEv:000000e0 .L35
C:\Users\Aluno\AppData\Local\Temp\ccYjLeON.s:856    .text._ZN23SevenSegmentsMuxDisplay13showNextDigitEv:000000e4 .L30
C:\Users\Aluno\AppData\Local\Temp\ccYjLeON.s:734    .text._ZN23SevenSegmentsMuxDisplay13showNextDigitEv:00000042 .L24
C:\Users\Aluno\AppData\Local\Temp\ccYjLeON.s:731    .text._ZN23SevenSegmentsMuxDisplay13showNextDigitEv:0000003e .L14
C:\Users\Aluno\AppData\Local\Temp\ccYjLeON.s:875    .text._ZN23SevenSegmentsMuxDisplay13showNextDigitEv:00000102 .L36
C:\Users\Aluno\AppData\Local\Temp\ccYjLeON.s:879    .text._ZN23SevenSegmentsMuxDisplay13showNextDigitEv:00000106 .L33
C:\Users\Aluno\AppData\Local\Temp\ccYjLeON.s:813    .text._ZN23SevenSegmentsMuxDisplay13showNextDigitEv:000000ba .L25
C:\Users\Aluno\AppData\Local\Temp\ccYjLeON.s:810    .text._ZN23SevenSegmentsMuxDisplay13showNextDigitEv:000000b6 .L15
C:\Users\Aluno\AppData\Local\Temp\ccYjLeON.s:827    .text._ZN23SevenSegmentsMuxDisplay13showNextDigitEv:000000c8 .L26
C:\Users\Aluno\AppData\Local\Temp\ccYjLeON.s:710    .text._ZN23SevenSegmentsMuxDisplay13showNextDigitEv:00000022 .L29
C:\Users\Aluno\AppData\Local\Temp\ccYjLeON.s:869    .text._ZN23SevenSegmentsMuxDisplay13showNextDigitEv:000000f8 .L26
C:\Users\Aluno\AppData\Local\Temp\ccYjLeON.s:866    .text._ZN23SevenSegmentsMuxDisplay13showNextDigitEv:000000f4 .L16
C:\Users\Aluno\AppData\Local\Temp\ccYjLeON.s:740    .text._ZN23SevenSegmentsMuxDisplay13showNextDigitEv:0000004c .L31
C:\Users\Aluno\AppData\Local\Temp\ccYjLeON.s:759    .text._ZN23SevenSegmentsMuxDisplay13showNextDigitEv:00000064 .L32
C:\Users\Aluno\AppData\Local\Temp\ccYjLeON.s:900    .text._ZN23SevenSegmentsMuxDisplay13showNextDigitEv:0000012a .L27
C:\Users\Aluno\AppData\Local\Temp\ccYjLeON.s:897    .text._ZN23SevenSegmentsMuxDisplay13showNextDigitEv:00000126 .L17
C:\Users\Aluno\AppData\Local\Temp\ccYjLeON.s:819    .text._ZN23SevenSegmentsMuxDisplay13showNextDigitEv:000000c4 .L34
C:\Users\Aluno\AppData\Local\Temp\ccYjLeON.s:949    .text._ZN23SevenSegmentsMuxDisplay17updateDigitValuesEPKhPKb:00000018 .L44
C:\Users\Aluno\AppData\Local\Temp\ccYjLeON.s:972    .text._ZN23SevenSegmentsMuxDisplay17updateDigitValuesEPKhPKb:00000026 .L39
C:\Users\Aluno\AppData\Local\Temp\ccYjLeON.s:1030   .text._ZN23SevenSegmentsMuxDisplay17updateDigitValuesEPKhPKb:00000068 .L38
C:\Users\Aluno\AppData\Local\Temp\ccYjLeON.s:1017   .text._ZN23SevenSegmentsMuxDisplay17updateDigitValuesEPKhPKb:00000062 .L45
C:\Users\Aluno\AppData\Local\Temp\ccYjLeON.s:967    .text._ZN23SevenSegmentsMuxDisplay17updateDigitValuesEPKhPKb:00000024 .L41
C:\Users\Aluno\AppData\Local\Temp\ccYjLeON.s:1759   .debug_abbrev:00000000 .Ldebug_abbrev0
C:\Users\Aluno\AppData\Local\Temp\ccYjLeON.s:3021   .debug_rnglists:00000018 .LLRL16
C:\Users\Aluno\AppData\Local\Temp\ccYjLeON.s:3046   .debug_line:00000000 .Ldebug_line0
C:\Users\Aluno\AppData\Local\Temp\ccYjLeON.s:915    .text._ZN23SevenSegmentsMuxDisplay17updateDigitValuesEPKhPKb:00000000 .LFB42
C:\Users\Aluno\AppData\Local\Temp\ccYjLeON.s:1037   .text._ZN23SevenSegmentsMuxDisplay17updateDigitValuesEPKhPKb:0000006e .LFE42
C:\Users\Aluno\AppData\Local\Temp\ccYjLeON.s:2420   .debug_loclists:00000010 .LLST11
C:\Users\Aluno\AppData\Local\Temp\ccYjLeON.s:2415   .debug_loclists:0000000c .LVUS11
C:\Users\Aluno\AppData\Local\Temp\ccYjLeON.s:2447   .debug_loclists:0000002c .LLST12
C:\Users\Aluno\AppData\Local\Temp\ccYjLeON.s:2442   .debug_loclists:00000028 .LVUS12
C:\Users\Aluno\AppData\Local\Temp\ccYjLeON.s:2478   .debug_loclists:0000004c .LLST13
C:\Users\Aluno\AppData\Local\Temp\ccYjLeON.s:2469   .debug_loclists:00000044 .LVUS13
C:\Users\Aluno\AppData\Local\Temp\ccYjLeON.s:3011   .debug_rnglists:0000000c .LLRL14
C:\Users\Aluno\AppData\Local\Temp\ccYjLeON.s:2523   .debug_loclists:0000007a .LLST15
C:\Users\Aluno\AppData\Local\Temp\ccYjLeON.s:2518   .debug_loclists:00000076 .LVUS15
C:\Users\Aluno\AppData\Local\Temp\ccYjLeON.s:666    .text._ZN23SevenSegmentsMuxDisplay13showNextDigitEv:00000000 .LFB41
C:\Users\Aluno\AppData\Local\Temp\ccYjLeON.s:908    .text._ZN23SevenSegmentsMuxDisplay13showNextDigitEv:00000136 .LFE41
C:\Users\Aluno\AppData\Local\Temp\ccYjLeON.s:2546   .debug_loclists:00000092 .LLST10
C:\Users\Aluno\AppData\Local\Temp\ccYjLeON.s:2537   .debug_loclists:0000008a .LVUS10
C:\Users\Aluno\AppData\Local\Temp\ccYjLeON.s:782    .text._ZN23SevenSegmentsMuxDisplay13showNextDigitEv:0000008a .LVL30
C:\Users\Aluno\AppData\Local\Temp\ccYjLeON.s:441    .text._ZN23SevenSegmentsMuxDisplay8setPortsEPVhS1_h10LogicLevel:00000000 .LFB40
C:\Users\Aluno\AppData\Local\Temp\ccYjLeON.s:659    .text._ZN23SevenSegmentsMuxDisplay8setPortsEPVhS1_h10LogicLevel:000000f0 .LFE40
GAS LISTING C:\Users\Aluno\AppData\Local\Temp\ccYjLeON.s 			page 47


C:\Users\Aluno\AppData\Local\Temp\ccYjLeON.s:2591   .debug_loclists:000000c5 .LLST5
C:\Users\Aluno\AppData\Local\Temp\ccYjLeON.s:2586   .debug_loclists:000000c1 .LVUS5
C:\Users\Aluno\AppData\Local\Temp\ccYjLeON.s:2624   .debug_loclists:000000e8 .LLST6
C:\Users\Aluno\AppData\Local\Temp\ccYjLeON.s:2613   .debug_loclists:000000de .LVUS6
C:\Users\Aluno\AppData\Local\Temp\ccYjLeON.s:2679   .debug_loclists:00000127 .LLST7
C:\Users\Aluno\AppData\Local\Temp\ccYjLeON.s:2674   .debug_loclists:00000123 .LVUS7
C:\Users\Aluno\AppData\Local\Temp\ccYjLeON.s:2714   .debug_loclists:0000014c .LLST8
C:\Users\Aluno\AppData\Local\Temp\ccYjLeON.s:2701   .debug_loclists:00000140 .LVUS8
C:\Users\Aluno\AppData\Local\Temp\ccYjLeON.s:2761   .debug_loclists:00000185 .LLST9
C:\Users\Aluno\AppData\Local\Temp\ccYjLeON.s:2754   .debug_loclists:0000017f .LVUS9
C:\Users\Aluno\AppData\Local\Temp\ccYjLeON.s:183    .text._ZN23SevenSegmentsMuxDisplay4initENS_6DigitsE24SevenSegmentsDisplayType:00000000 .LFB39
C:\Users\Aluno\AppData\Local\Temp\ccYjLeON.s:434    .text._ZN23SevenSegmentsMuxDisplay4initENS_6DigitsE24SevenSegmentsDisplayType:00000112 .LFE39
C:\Users\Aluno\AppData\Local\Temp\ccYjLeON.s:2788   .debug_loclists:000001a6 .LLST2
C:\Users\Aluno\AppData\Local\Temp\ccYjLeON.s:2783   .debug_loclists:000001a2 .LVUS2
C:\Users\Aluno\AppData\Local\Temp\ccYjLeON.s:2823   .debug_loclists:000001cb .LLST3
C:\Users\Aluno\AppData\Local\Temp\ccYjLeON.s:2810   .debug_loclists:000001bf .LVUS3
C:\Users\Aluno\AppData\Local\Temp\ccYjLeON.s:2894   .debug_loclists:0000021c .LLST4
C:\Users\Aluno\AppData\Local\Temp\ccYjLeON.s:2881   .debug_loclists:00000210 .LVUS4
C:\Users\Aluno\AppData\Local\Temp\ccYjLeON.s:158    .text._ZN23SevenSegmentsMuxDisplayD2Ev:00000000 .LFB37
C:\Users\Aluno\AppData\Local\Temp\ccYjLeON.s:174    .text._ZN23SevenSegmentsMuxDisplayD2Ev:00000002 .LFE37
C:\Users\Aluno\AppData\Local\Temp\ccYjLeON.s:38     .text._ZN23SevenSegmentsMuxDisplayC2Ev:00000000 .LFB34
C:\Users\Aluno\AppData\Local\Temp\ccYjLeON.s:149    .text._ZN23SevenSegmentsMuxDisplayC2Ev:0000005c .LFE34
C:\Users\Aluno\AppData\Local\Temp\ccYjLeON.s:2936   .debug_loclists:00000250 .LLST0
C:\Users\Aluno\AppData\Local\Temp\ccYjLeON.s:2931   .debug_loclists:0000024c .LVUS0
C:\Users\Aluno\AppData\Local\Temp\ccYjLeON.s:90     .text._ZN23SevenSegmentsMuxDisplayC2Ev:00000028 .LBB3
C:\Users\Aluno\AppData\Local\Temp\ccYjLeON.s:117    .text._ZN23SevenSegmentsMuxDisplayC2Ev:00000044 .LBE3
C:\Users\Aluno\AppData\Local\Temp\ccYjLeON.s:2963   .debug_loclists:0000026c .LLST1
C:\Users\Aluno\AppData\Local\Temp\ccYjLeON.s:2958   .debug_loclists:00000268 .LVUS1
C:\Users\Aluno\AppData\Local\Temp\ccYjLeON.s:15     .text._Z7getTickv:00000000 .LFB32
C:\Users\Aluno\AppData\Local\Temp\ccYjLeON.s:31     .text._Z7getTickv:00000008 .LFE32
C:\Users\Aluno\AppData\Local\Temp\ccYjLeON.s:914    .text._ZN23SevenSegmentsMuxDisplay17updateDigitValuesEPKhPKb:00000000 .LVL33
C:\Users\Aluno\AppData\Local\Temp\ccYjLeON.s:966    .text._ZN23SevenSegmentsMuxDisplay17updateDigitValuesEPKhPKb:00000024 .LVL38
C:\Users\Aluno\AppData\Local\Temp\ccYjLeON.s:665    .text._ZN23SevenSegmentsMuxDisplay13showNextDigitEv:00000000 .LVL28
C:\Users\Aluno\AppData\Local\Temp\ccYjLeON.s:440    .text._ZN23SevenSegmentsMuxDisplay8setPortsEPVhS1_h10LogicLevel:00000000 .LVL18
C:\Users\Aluno\AppData\Local\Temp\ccYjLeON.s:182    .text._ZN23SevenSegmentsMuxDisplay4initENS_6DigitsE24SevenSegmentsDisplayType:00000000 .LVL7
C:\Users\Aluno\AppData\Local\Temp\ccYjLeON.s:210    .text._ZN23SevenSegmentsMuxDisplay4initENS_6DigitsE24SevenSegmentsDisplayType:00000010 .LVL8
C:\Users\Aluno\AppData\Local\Temp\ccYjLeON.s:37     .text._ZN23SevenSegmentsMuxDisplayC2Ev:00000000 .LVL0
C:\Users\Aluno\AppData\Local\Temp\ccYjLeON.s:89     .text._ZN23SevenSegmentsMuxDisplayC2Ev:00000028 .LVL2
C:\Users\Aluno\AppData\Local\Temp\ccYjLeON.s:1051   .debug_info:00000000 .Ldebug_info0
C:\Users\Aluno\AppData\Local\Temp\ccYjLeON.s:942    .text._ZN23SevenSegmentsMuxDisplay17updateDigitValuesEPKhPKb:00000014 .LBB4

UNDEFINED SYMBOLS
__umulhisi3
_Z22convertToSevenSegmentshb24SevenSegmentsDisplayType
__do_copy_data
